ccopy_reg
_reconstructor
p1
(cpsychopy.data
ExperimentHandler
p2
c__builtin__
object
p3
NtRp4
(dp5
S'originPath'
p6
NsS'dataFileName'
p7
Vsubject705
p8
sS'runtimeInfo'
p9
NsS'name'
p10
VVERBALRBsubject 705
p11
sS'dataNames'
p12
(lp13
S'Block Number'
p14
aS'Key pressed'
p15
aS'Category'
p16
aS'Correct?'
p17
aS'Int Match?'
p18
aS'Int Response'
p19
aS'Int Correct?'
p20
aS'Line Accuracy'
p21
aS'Interference Accuracy'
p22
aS'Matching Interferences'
p23
aS'New instruction shown?'
p24
aS'Buttons switched?'
p25
aS'Fast?'
p26
asS'autoLog'
p27
I01
sS'extraInfo'
p28
(dp29
S'gender'
p30
Vmale
p31
sS'age'
p32
V18
p33
ssS'loopsUnfinished'
p34
(lp35
g1
(cpsychopy.data
TrialHandler
p36
g3
NtRp37
(dp38
S'origin'
p39
NsS'thisTrial'
p40
I9
sS'_exp'
p41
I82084848
sg10
S''
sg6
S'C:\\Users\\Mike\\Desktop\\Dual2\\NEWSpatialii.py'
p42
sS'thisRepN'
p43
I39
sg27
I01
sg28
NsS'data'
p44
g1
(cpsychopy.data
DataHandler
p45
c__builtin__
dict
p46
(dp47
S'ran'
p48
cnumpy.ma.core
_mareconstruct
p49
(cnumpy.ma.core
MaskedArray
p50
cnumpy
ndarray
p51
(I0
tp52
S'b'
tRp53
(I1
(I15
I40
tcnumpy
dtype
p54
(S'f4'
I0
I1
tRp55
(I3
S'<'
NNNI-1
I-1
I0
tbI00
S'\x00\x00\x80?\x00\x00\x80?\x00\x00\x80?\x00\x00\x80?\x00\x00\x80?\x00\x00\x80?\x00\x00\x80?\x00\x00\x80?\x00\x00\x80?\x00\x00\x80?\x00\x00\x80?\x00\x00\x80?\x00\x00\x80?\x00\x00\x80?\x00\x00\x80?\x00\x00\x80?\x00\x00\x80?\x00\x00\x80?\x00\x00\x80?\x00\x00\x80?\x00\x00\x80?\x00\x00\x80?\x00\x00\x80?\x00\x00\x80?\x00\x00\x80?\x00\x00\x80?\x00\x00\x80?\x00\x00\x80?\x00\x00\x80?\x00\x00\x80?\x00\x00\x80?\x00\x00\x80?\x00\x00\x80?\x00\x00\x80?\x00\x00\x80?\x00\x00\x80?\x00\x00\x80?\x00\x00\x80?\x00\x00\x80?\x00\x00\x80?\x00\x00\x80?\x00\x00\x80?\x00\x00\x80?\x00\x00\x80?\x00\x00\x80?\x00\x00\x80?\x00\x00\x80?\x00\x00\x80?\x00\x00\x80?\x00\x00\x80?\x00\x00\x80?\x00\x00\x80?\x00\x00\x80?\x00\x00\x80?\x00\x00\x80?\x00\x00\x80?\x00\x00\x80?\x00\x00\x80?\x00\x00\x80?\x00\x00\x80?\x00\x00\x80?\x00\x00\x80?\x00\x00\x80?\x00\x00\x80?\x00\x00\x80?\x00\x00\x80?\x00\x00\x80?\x00\x00\x80?\x00\x00\x80?\x00\x00\x80?\x00\x00\x80?\x00\x00\x80?\x00\x00\x80?\x00\x00\x80?\x00\x00\x80?\x00\x00\x80?\x00\x00\x80?\x00\x00\x80?\x00\x00\x80?\x00\x00\x80?\x00\x00\x80?\x00\x00\x80?\x00\x00\x80?\x00\x00\x80?\x00\x00\x80?\x00\x00\x80?\x00\x00\x80?\x00\x00\x80?\x00\x00\x80?\x00\x00\x80?\x00\x00\x80?\x00\x00\x80?\x00\x00\x80?\x00\x00\x80?\x00\x00\x80?\x00\x00\x80?\x00\x00\x80?\x00\x00\x80?\x00\x00\x80?\x00\x00\x80?\x00\x00\x80?\x00\x00\x80?\x00\x00\x80?\x00\x00\x80?\x00\x00\x80?\x00\x00\x80?\x00\x00\x80?\x00\x00\x80?\x00\x00\x80?\x00\x00\x80?\x00\x00\x80?\x00\x00\x80?\x00\x00\x80?\x00\x00\x80?\x00\x00\x80?\x00\x00\x80?\x00\x00\x80?\x00\x00\x80?\x00\x00\x80?\x00\x00\x80?\x00\x00\x80?\x00\x00\x80?\x00\x00\x80?\x00\x00\x80?\x00\x00\x80?\x00\x00\x80?\x00\x00\x80?\x00\x00\x80?\x00\x00\x80?\x00\x00\x80?\x00\x00\x80?\x00\x00\x80?\x00\x00\x80?\x00\x00\x80?\x00\x00\x80?\x00\x00\x80?\x00\x00\x80?\x00\x00\x80?\x00\x00\x80?\x00\x00\x80?\x00\x00\x80?\x00\x00\x80?\x00\x00\x80?\x00\x00\x80?\x00\x00\x80?\x00\x00\x80?\x00\x00\x80?\x00\x00\x80?\x00\x00\x80?\x00\x00\x80?\x00\x00\x80?\x00\x00\x80?\x00\x00\x80?\x00\x00\x80?\x00\x00\x80?\x00\x00\x80?\x00\x00\x80?\x00\x00\x80?\x00\x00\x80?\x00\x00\x80?\x00\x00\x80?\x00\x00\x80?\x00\x00\x80?\x00\x00\x80?\x00\x00\x80?\x00\x00\x80?\x00\x00\x80?\x00\x00\x80?\x00\x00\x80?\x00\x00\x80?\x00\x00\x80?\x00\x00\x80?\x00\x00\x80?\x00\x00\x80?\x00\x00\x80?\x00\x00\x80?\x00\x00\x80?\x00\x00\x80?\x00\x00\x80?\x00\x00\x80?\x00\x00\x80?\x00\x00\x80?\x00\x00\x80?\x00\x00\x80?\x00\x00\x80?\x00\x00\x80?\x00\x00\x80?\x00\x00\x80?\x00\x00\x80?\x00\x00\x80?\x00\x00\x80?\x00\x00\x80?\x00\x00\x80?\x00\x00\x80?\x00\x00\x80?\x00\x00\x80?\x00\x00\x80?\x00\x00\x80?\x00\x00\x80?\x00\x00\x80?\x00\x00\x80?\x00\x00\x80?\x00\x00\x80?\x00\x00\x80?\x00\x00\x80?\x00\x00\x80?\x00\x00\x80?\x00\x00\x80?\x00\x00\x80?\x00\x00\x80?\x00\x00\x80?\x00\x00\x80?\x00\x00\x80?\x00\x00\x80?\x00\x00\x80?\x00\x00\x80?\x00\x00\x80?\x00\x00\x80?\x00\x00\x80?\x00\x00\x80?\x00\x00\x80?\x00\x00\x80?\x00\x00\x80?\x00\x00\x80?\x00\x00\x80?\x00\x00\x80?\x00\x00\x80?\x00\x00\x80?\x00\x00\x80?\x00\x00\x80?\x00\x00\x80?\x00\x00\x80?\x00\x00\x80?\x00\x00\x80?\x00\x00\x80?\x00\x00\x80?\x00\x00\x80?\x00\x00\x80?\x00\x00\x80?\x00\x00\x80?\x00\x00\x80?\x00\x00\x80?\x00\x00\x80?\x00\x00\x80?\x00\x00\x80?\x00\x00\x80?\x00\x00\x80?\x00\x00\x80?\x00\x00\x80?\x00\x00\x80?\x00\x00\x80?\x00\x00\x80?\x00\x00\x80?\x00\x00\x80?\x00\x00\x80?\x00\x00\x80?\x00\x00\x80?\x00\x00\x80?\x00\x00\x80?\x00\x00\x80?\x00\x00\x80?\x00\x00\x80?\x00\x00\x80?\x00\x00\x80?\x00\x00\x80?\x00\x00\x80?\x00\x00\x80?\x00\x00\x80?\x00\x00\x80?\x00\x00\x80?\x00\x00\x80?\x00\x00\x80?\x00\x00\x80?\x00\x00\x80?\x00\x00\x80?\x00\x00\x80?\x00\x00\x80?\x00\x00\x80?\x00\x00\x80?\x00\x00\x80?\x00\x00\x80?\x00\x00\x80?\x00\x00\x80?\x00\x00\x80?\x00\x00\x80?\x00\x00\x80?\x00\x00\x80?\x00\x00\x80?\x00\x00\x80?\x00\x00\x80?\x00\x00\x80?\x00\x00\x80?\x00\x00\x80?\x00\x00\x80?\x00\x00\x80?\x00\x00\x80?\x00\x00\x80?\x00\x00\x80?\x00\x00\x80?\x00\x00\x80?\x00\x00\x80?\x00\x00\x80?\x00\x00\x80?\x00\x00\x80?\x00\x00\x80?\x00\x00\x80?\x00\x00\x80?\x00\x00\x80?\x00\x00\x80?\x00\x00\x80?\x00\x00\x80?\x00\x00\x80?\x00\x00\x80?\x00\x00\x80?\x00\x00\x80?\x00\x00\x80?\x00\x00\x80?\x00\x00\x80?\x00\x00\x80?\x00\x00\x80?\x00\x00\x80?\x00\x00\x80?\x00\x00\x80?\x00\x00\x80?\x00\x00\x80?\x00\x00\x80?\x00\x00\x80?\x00\x00\x80?\x00\x00\x80?\x00\x00\x80?\x00\x00\x80?\x00\x00\x80?\x00\x00\x80?\x00\x00\x80?\x00\x00\x80?\x00\x00\x80?\x00\x00\x80?\x00\x00\x80?\x00\x00\x80?\x00\x00\x80?\x00\x00\x80?\x00\x00\x80?\x00\x00\x80?\x00\x00\x80?\x00\x00\x80?\x00\x00\x80?\x00\x00\x80?\x00\x00\x80?\x00\x00\x80?\x00\x00\x80?\x00\x00\x80?\x00\x00\x80?\x00\x00\x80?\x00\x00\x80?\x00\x00\x80?\x00\x00\x80?\x00\x00\x80?\x00\x00\x80?\x00\x00\x80?\x00\x00\x80?\x00\x00\x80?\x00\x00\x80?\x00\x00\x80?\x00\x00\x80?\x00\x00\x80?\x00\x00\x80?\x00\x00\x80?\x00\x00\x80?\x00\x00\x80?\x00\x00\x80?\x00\x00\x80?\x00\x00\x80?\x00\x00\x80?\x00\x00\x80?\x00\x00\x80?\x00\x00\x80?\x00\x00\x80?\x00\x00\x80?\x00\x00\x80?\x00\x00\x80?\x00\x00\x80?\x00\x00\x80?\x00\x00\x80?\x00\x00\x80?\x00\x00\x80?\x00\x00\x80?\x00\x00\x80?\x00\x00\x80?\x00\x00\x80?\x00\x00\x80?\x00\x00\x80?\x00\x00\x80?\x00\x00\x80?\x00\x00\x80?\x00\x00\x80?\x00\x00\x80?\x00\x00\x80?\x00\x00\x80?\x00\x00\x80?\x00\x00\x80?\x00\x00\x80?\x00\x00\x80?\x00\x00\x80?\x00\x00\x80?\x00\x00\x80?\x00\x00\x80?\x00\x00\x80?\x00\x00\x80?\x00\x00\x80?\x00\x00\x80?\x00\x00\x80?\x00\x00\x80?\x00\x00\x80?\x00\x00\x80?\x00\x00\x80?\x00\x00\x80?\x00\x00\x80?\x00\x00\x80?\x00\x00\x80?\x00\x00\x80?\x00\x00\x80?\x00\x00\x80?\x00\x00\x80?\x00\x00\x80?\x00\x00\x80?\x00\x00\x80?\x00\x00\x80?\x00\x00\x80?\x00\x00\x80?\x00\x00\x80?\x00\x00\x80?\x00\x00\x80?\x00\x00\x80?\x00\x00\x80?\x00\x00\x80?\x00\x00\x80?\x00\x00\x80?\x00\x00\x80?\x00\x00\x80?\x00\x00\x80?\x00\x00\x80?\x00\x00\x80?\x00\x00\x80?\x00\x00\x80?\x00\x00\x80?\x00\x00\x80?\x00\x00\x80?\x00\x00\x80?\x00\x00\x80?\x00\x00\x80?\x00\x00\x80?\x00\x00\x80?\x00\x00\x80?\x00\x00\x80?\x00\x00\x80?\x00\x00\x80?\x00\x00\x80?\x00\x00\x80?\x00\x00\x80?\x00\x00\x80?\x00\x00\x80?\x00\x00\x80?\x00\x00\x80?\x00\x00\x80?\x00\x00\x80?\x00\x00\x80?\x00\x00\x80?\x00\x00\x80?\x00\x00\x80?\x00\x00\x80?\x00\x00\x80?\x00\x00\x80?\x00\x00\x80?\x00\x00\x80?\x00\x00\x80?\x00\x00\x80?\x00\x00\x80?\x00\x00\x80?\x00\x00\x80?\x00\x00\x80?\x00\x00\x80?\x00\x00\x80?\x00\x00\x80?\x00\x00\x80?\x00\x00\x80?\x00\x00\x80?\x00\x00\x80?\x00\x00\x80?\x00\x00\x80?\x00\x00\x80?\x00\x00\x80?\x00\x00\x80?\x00\x00\x80?\x00\x00\x80?\x00\x00\x80?\x00\x00\x80?\x00\x00\x80?\x00\x00\x80?\x00\x00\x80?\x00\x00\x80?\x00\x00\x80?\x00\x00\x80?\x00\x00\x80?\x00\x00\x80?\x00\x00\x80?\x00\x00\x80?\x00\x00\x80?\x00\x00\x80?\x00\x00\x80?\x00\x00\x80?\x00\x00\x80?\x00\x00\x80?\x00\x00\x80?\x00\x00\x80?\x00\x00\x80?\x00\x00\x80?\x00\x00\x80?\x00\x00\x80?\x00\x00\x80?\x00\x00\x80?\x00\x00\x80?\x00\x00\x80?\x00\x00\x80?\x00\x00\x80?\x00\x00\x80?\x00\x00\x80?\x00\x00\x80?\x00\x00\x80?\x00\x00\x80?\x00\x00\x80?\x00\x00\x80?\x00\x00\x80?\x00\x00\x80?\x00\x00\x80?\x00\x00\x80?\x00\x00\x80?\x00\x00\x80?\x00\x00\x80?\x00\x00\x80?\x00\x00\x80?\x00\x00\x80?\x00\x00\x80?\x00\x00\x80?\x00\x00\x80?\x00\x00\x80?\x00\x00\x80?\x00\x00\x80?\x00\x00\x80?\x00\x00\x80?\x00\x00\x80?\x00\x00\x80?\x00\x00\x80?\x00\x00\x80?\x00\x00\x80?\x00\x00\x80?\x00\x00\x80?\x00\x00\x80?\x00\x00\x80?\x00\x00\x80?\x00\x00\x80?\x00\x00\x80?\x00\x00\x80?\x00\x00\x80?\x00\x00\x80?\x00\x00\x80?\x00\x00\x80?\x00\x00\x80?\x00\x00\x80?\x00\x00\x80?\x00\x00\x80?\x00\x00\x80?\x00\x00\x80?\x00\x00\x80?\x00\x00\x80?\x00\x00\x80?\x00\x00\x80?\x00\x00\x80?\x00\x00\x80?\x00\x00\x80?\x00\x00\x80?\x00\x00\x80?\x00\x00\x80?\x00\x00\x80?\x00\x00\x80?\x00\x00\x80?\x00\x00\x80?\x00\x00\x80?\x00\x00\x80?\x00\x00\x80?\x00\x00\x80?\x00\x00\x80?\x00\x00\x80?\x00\x00\x80?\x00\x00\x80?\x00\x00\x80?\x00\x00\x80?\x00\x00\x80?\x00\x00\x80?\x00\x00\x80?\x00\x00\x80?'
S'\x00\x00\x00\x00\x00\x00\x00\x00\x00\x00\x00\x00\x00\x00\x00\x00\x00\x00\x00\x00\x00\x00\x00\x00\x00\x00\x00\x00\x00\x00\x00\x00\x00\x00\x00\x00\x00\x00\x00\x00\x00\x00\x00\x00\x00\x00\x00\x00\x00\x00\x00\x00\x00\x00\x00\x00\x00\x00\x00\x00\x00\x00\x00\x00\x00\x00\x00\x00\x00\x00\x00\x00\x00\x00\x00\x00\x00\x00\x00\x00\x00\x00\x00\x00\x00\x00\x00\x00\x00\x00\x00\x00\x00\x00\x00\x00\x00\x00\x00\x00\x00\x00\x00\x00\x00\x00\x00\x00\x00\x00\x00\x00\x00\x00\x00\x00\x00\x00\x00\x00\x00\x00\x00\x00\x00\x00\x00\x00\x00\x00\x00\x00\x00\x00\x00\x00\x00\x00\x00\x00\x00\x00\x00\x00\x00\x00\x00\x00\x00\x00\x00\x00\x00\x00\x00\x00\x00\x00\x00\x00\x00\x00\x00\x00\x00\x00\x00\x00\x00\x00\x00\x00\x00\x00\x00\x00\x00\x00\x00\x00\x00\x00\x00\x00\x00\x00\x00\x00\x00\x00\x00\x00\x00\x00\x00\x00\x00\x00\x00\x00\x00\x00\x00\x00\x00\x00\x00\x00\x00\x00\x00\x00\x00\x00\x00\x00\x00\x00\x00\x00\x00\x00\x00\x00\x00\x00\x00\x00\x00\x00\x00\x00\x00\x00\x00\x00\x00\x00\x00\x00\x00\x00\x00\x00\x00\x00\x00\x00\x00\x00\x00\x00\x00\x00\x00\x00\x00\x00\x00\x00\x00\x00\x00\x00\x00\x00\x00\x00\x00\x00\x00\x00\x00\x00\x00\x00\x00\x00\x00\x00\x00\x00\x00\x00\x00\x00\x00\x00\x00\x00\x00\x00\x00\x00\x00\x00\x00\x00\x00\x00\x00\x00\x00\x00\x00\x00\x00\x00\x00\x00\x00\x00\x00\x00\x00\x00\x00\x00\x00\x00\x00\x00\x00\x00\x00\x00\x00\x00\x00\x00\x00\x00\x00\x00\x00\x00\x00\x00\x00\x00\x00\x00\x00\x00\x00\x00\x00\x00\x00\x00\x00\x00\x00\x00\x00\x00\x00\x00\x00\x00\x00\x00\x00\x00\x00\x00\x00\x00\x00\x00\x00\x00\x00\x00\x00\x00\x00\x00\x00\x00\x00\x00\x00\x00\x00\x00\x00\x00\x00\x00\x00\x00\x00\x00\x00\x00\x00\x00\x00\x00\x00\x00\x00\x00\x00\x00\x00\x00\x00\x00\x00\x00\x00\x00\x00\x00\x00\x00\x00\x00\x00\x00\x00\x00\x00\x00\x00\x00\x00\x00\x00\x00\x00\x00\x00\x00\x00\x00\x00\x00\x00\x00\x00\x00\x00\x00\x00\x00\x00\x00\x00\x00\x00\x00\x00\x00\x00\x00\x00\x00\x00\x00\x00\x00\x00\x00\x00\x00\x00\x00\x00\x00\x00\x00\x00\x00\x00\x00\x00\x00\x00\x00\x00\x00\x00\x00\x00\x00\x00\x00\x00\x00\x00\x00\x00\x00\x00\x00\x00\x00\x00\x00\x00\x00\x00\x00\x00\x00\x00\x00\x00\x00\x00\x00\x00\x00\x00\x00\x00\x00\x00\x00\x00\x00\x00\x00\x00\x00\x00\x00\x00\x00\x00\x00\x00\x00\x00\x00\x00\x00\x00\x00\x00\x00\x00\x00\x00\x00\x00\x00\x00\x00\x00\x00\x00\x00\x00\x00\x00\x00\x00\x00\x00\x00\x00\x00\x00\x00\x00\x00\x00\x00\x00\x00\x00\x00\x00\x00\x00\x00\x00\x00\x00\x00\x00\x00\x00\x00\x00\x00\x00\x00\x00\x00\x00\x00\x00\x00\x00\x00'
NtbsS'order'
p56
g49
(g50
g51
g52
S'b'
tRp57
(I1
(I15
I40
tg55
I00
S'\x00\x00\xb0A\x00\x00\x0cB\x00\x00@B\x00\x00tB\x00\x00\x96B\x00\x00\xa6B\x00\x00\xa8B\x00\x00\xb0B\x00\x00\x14C\x00\x00\x16C\x00\x00\x1bC\x00\x00(C\x00\x00<C\x00\x00>C\x00\x00IC\x00\x00ZC\x00\x00zC\x00\x80\x84C\x00\x80\x8cC\x00\x80\x8eC\x00\x80\x92C\x00\x80\x96C\x00\x80\xb0C\x00\x80\xbeC\x00\x00\xc2C\x00\x00\xc7C\x00\x00\xcfC\x00\x00\xd3C\x00\x80\xe2C\x00\x00\xefC\x00\x00\xf1C\x00\x80\xf1C\x00\x80\xfbC\x00\xc0\x03D\x00\xc0\x05D\x00\x00\x08D\x00\x80\x0cD\x00@\x0eD\x00@\x12D\x00\x00\x14D\x00\x00\x80?\x00\x00xB\x00\x00\xb4B\x00\x00\xbaB\x00\x00\xf2B\x00\x00\xf6B\x00\x00\x12C\x00\x00\x1cC\x00\x00!C\x00\x00)C\x00\x00+C\x00\x003C\x00\x00:C\x00\x00?C\x00\x00VC\x00\x00`C\x00\x00dC\x00\x00tC\x00\x00}C\x00\x00\x84C\x00\x00\x8dC\x00\x00\xa0C\x00\x00\xa6C\x00\x80\xa8C\x00\x80\xaeC\x00\x00\xb4C\x00\x00\xb5C\x00\x80\xb5C\x00\x80\xbaC\x00\x80\xbcC\x00\x00\xc5C\x00\x00\xc6C\x00\x80\xc9C\x00\x80\xdaC\x00\x80\xdbC\x00\x00\xdeC\x00\x00\xe3C\x00\x80\x00D\x00\xc0\x07D\x00\xc0\x08D\x00\x00\x90A\x00\x00\x08B\x00\x00\x1cB\x00\x008B\x00\x00\x8cB\x00\x00\x94B\x00\x00\x9aB\x00\x00\xaeB\x00\x00\xbcB\x00\x00\xc0B\x00\x00\xe0B\x00\x00\xecB\x00\x00\xeeB\x00\x00\x1aC\x00\x00=C\x00\x00LC\x00\x00OC\x00\x00vC\x00\x00xC\x00\x80\x80C\x00\x80\x97C\x00\x80\xa0C\x00\x00\xafC\x00\x00\xb7C\x00\x00\xb9C\x00\x80\xbbC\x00\x80\xc1C\x00\x00\xc3C\x00\x80\xd7C\x00\x80\xdeC\x00\x80\xe3C\x00\x80\xe7C\x00\x80\xf3C\x00\x80\xf4C\x00\x80\x05D\x00\x80\x0bD\x00\xc0\x0cD\x00@\x11D\x00\x00\x12D\x00\x80\x14D\x00\x00@@\x00\x00\x10A\x00\x00\xb8A\x00\x00\xc0A\x00\x00HB\x00\x00\x88B\x00\x00\xbeB\x00\x00\xc6B\x00\x00\xd8B\x00\x00\x0bC\x00\x00\x11C\x00\x00#C\x00\x00%C\x00\x00/C\x00\x00JC\x00\x00QC\x00\x00[C\x00\x00aC\x00\x00eC\x00\x00mC\x00\x80\x88C\x00\x00\x9aC\x00\x80\x9aC\x00\x80\xa9C\x00\x80\xacC\x00\x00\xadC\x00\x80\xb2C\x00\x00\xb3C\x00\x80\xd8C\x00\x80\xd9C\x00\x80\xdcC\x00\x00\xe1C\x00\x00\xf4C\x00\x00\x00D\x00\xc0\x01D\x00\x00\x05D\x00@\x08D\x00@\nD\x00\x00\rD\x00\x00\x15D\x00\x00PA\x00\x00\x88A\x00\x00\xf0A\x00\x00\x10B\x00\x00\x18B\x00\x00(B\x00\x00\x86B\x00\x00\x9eB\x00\x00\xb6B\x00\x00\xd2B\x00\x00\xfeB\x00\x00\x1fC\x00\x00"C\x00\x007C\x00\x00;C\x00\x00BC\x00\x00gC\x00\x00kC\x00\x00wC\x00\x80\x9cC\x00\x80\xa5C\x00\x00\xa8C\x00\x80\xadC\x00\x80\xb3C\x00\x00\xbeC\x00\x80\xc0C\x00\x80\xc6C\x00\x00\xcbC\x00\x00\xccC\x00\x80\xd2C\x00\x00\xdcC\x00\x00\xe6C\x00\x00\xe7C\x00\x80\xebC\x00\x00\x01D\x00@\x01D\x00\xc0\x0bD\x00@\rD\x00\x80\x13D\x00\x80\x15D\x00\x00\xd0A\x00\x00\xf8A\x00\x00PB\x00\x00TB\x00\x00\x8eB\x00\x00\x98B\x00\x00\xccB\x00\x00\xe2B\x00\x00\xe4B\x00\x00\x03C\x00\x00\x07C\x00\x00$C\x00\x00\'C\x00\x005C\x00\x00DC\x00\x00GC\x00\x00SC\x00\x00TC\x00\x00\\C\x00\x00sC\x00\x00\x87C\x00\x00\x8cC\x00\x00\x91C\x00\x00\xa3C\x00\x80\xabC\x00\x00\xb0C\x00\x80\xccC\x00\x00\xceC\x00\x80\xcfC\x00\x00\xd2C\x00\x80\xddC\x00\x80\xf0C\x00\x80\xf8C\x00\x00\xfdC\x00\x80\xfeC\x00\x00\xffC\x00\xc0\x02D\x00\x00\x07D\x00\x80\nD\x00@\x0cD\x00\x00\x00A\x00\x00\x98A\x00\x00 B\x00\x00`B\x00\x00dB\x00\x00\xa0B\x00\x00\xa2B\x00\x00\xe6B\x00\x00\xfcB\x00\x00\x05C\x00\x006C\x00\x00PC\x00\x00WC\x00\x00XC\x00\x00^C\x00\x00jC\x00\x00lC\x00\x00pC\x00\x00\x86C\x00\x80\x89C\x00\x00\x8bC\x00\x80\x8dC\x00\x00\x90C\x00\x00\x96C\x00\x00\x9eC\x00\x00\xbbC\x00\x00\xbcC\x00\x80\xcaC\x00\x00\xdbC\x00\x80\xe0C\x00\x00\xfaC\x00\x80\x01D\x00@\x06D\x00\x80\x06D\x00@\x07D\x00\x00\x0eD\x00\x80\x0eD\x00@\x0fD\x00\x00\x11D\x00\xc0\x11D\x00\x000A\x00\x00\xa0A\x00\x00\xc8A\x00\x00,B\x00\x00\x92B\x00\x00\xe8B\x00\x00\xf8B\x00\x00\x01C\x00\x00\x04C\x00\x00\x0cC\x00\x009C\x00\x00CC\x00\x00UC\x00\x00hC\x00\x00iC\x00\x00rC\x00\x00~C\x00\x80\x82C\x00\x80\x90C\x00\x80\x95C\x00\x00\x98C\x00\x80\x98C\x00\x00\x9dC\x00\x80\xafC\x00\x80\xb4C\x00\x80\xb8C\x00\x00\xc4C\x00\x80\xc8C\x00\x80\xd3C\x00\x80\xd5C\x00\x00\xdfC\x00\x00\xe4C\x00\x80\xe4C\x00\x00\xe5C\x00\x00\x02D\x00@\x05D\x00\x00\x0fD\x00\xc0\x0fD\x00\x00\x10D\x00\xc0\x12D\x00\x00\xe8A\x00\x00\x00B\x00\x00\x14B\x00\x004B\x00\x00<B\x00\x00pB\x00\x00\xaaB\x00\x00\xcaB\x00\x00\xdaB\x00\x00\nC\x00\x00\x0eC\x00\x00\x13C\x00\x00NC\x00\x00\x7fC\x00\x00\x82C\x00\x80\x83C\x00\x80\x94C\x00\x80\x9dC\x00\x80\xa4C\x00\x80\xa7C\x00\x80\xaaC\x00\x00\xb1C\x00\x00\xb6C\x00\x80\xb6C\x00\x00\xbaC\x00\x80\xc5C\x00\x00\xcdC\x00\x80\xcdC\x00\x80\xd0C\x00\x00\xd5C\x00\x00\xd6C\x00\x80\xd6C\x00\x00\xe2C\x00\x80\xe5C\x00\x00\xecC\x00\x80\xf6C\x00\x80\xffC\x00@\x03D\x00\xc0\rD\x00\x80\x0fD\x00\x00\x00@\x00\x00\xc0@\x00\x00\xe0@\x00\x00\xd8A\x00\x00DB\x00\x00|B\x00\x00\x82B\x00\x00\xc8B\x00\x00\xceB\x00\x00\xd6B\x00\x00\x02C\x00\x00\x10C\x00\x001C\x00\x002C\x00\x00EC\x00\x00MC\x00\x00cC\x00\x00uC\x00\x00{C\x00\x00\x81C\x00\x00\x83C\x00\x80\xa2C\x00\x80\xb1C\x00\x80\xc7C\x00\x00\xcaC\x00\x00\xd9C\x00\x80\xeaC\x00\x00\xedC\x00\x00\xf3C\x00\x00\xf7C\x00\x80\xfaC\x00\x00\x03D\x00\x80\x03D\x00\xc0\x06D\x00\x00\x0bD\x00\x80\x11D\x00\x00\x13D\x00\xc0\x13D\x00\xc0\x14D\x00\xc0\x15D\x00\x00\x00\x00\x00\x00\x80@\x00\x00 A\x00\x00\xa8A\x00\x00hB\x00\x00\x80B\x00\x00\xacB\x00\x00\xf4B\x00\x00\x00C\x00\x00\tC\x00\x00\x1dC\x00\x00\x1eC\x00\x00 C\x00\x00*C\x00\x00HC\x00\x00YC\x00\x00oC\x00\x80\x86C\x00\x80\x8bC\x00\x00\x93C\x00\x00\x97C\x00\x80\x9bC\x00\x80\x9eC\x00\x00\xa4C\x00\x00\xa7C\x00\x00\xb2C\x00\x80\xb7C\x00\x00\xb8C\x00\x80\xb9C\x00\x00\xc0C\x00\x80\xe9C\x00\x00\xebC\x00\x80\xeeC\x00\x00\xf9C\x00\x80\xfdC\x00\x00\xfeC\x00\x80\x08D\x00\x80\rD\x00@\x13D\x00@\x14D\x00\x00\xa0@\x00\x00\\B\x00\x00\x84B\x00\x00\x8aB\x00\x00\xb2B\x00\x00\xc4B\x00\x00\xd0B\x00\x00\xdcB\x00\x00\x06C\x00\x00\x08C\x00\x00\x15C\x00\x00\x18C\x00\x00,C\x00\x000C\x00\x004C\x00\x00@C\x00\x00RC\x00\x00_C\x00\x80\x87C\x00\x00\x89C\x00\x00\x8aC\x00\x80\x8fC\x00\x00\x9cC\x00\x00\x9fC\x00\x00\xa1C\x00\x80\xa1C\x00\x80\xa3C\x00\x00\xa9C\x00\x00\xbfC\x00\x80\xc4C\x00\x00\xd0C\x00\x80\xdfC\x00\x80\xe6C\x00\x00\xe8C\x00\x00\xeaC\x00\x80\xf2C\x00\x80\xf7C\x00\x80\xf9C\x00\x80\xfcC\x00\xc0\tD\x00\x00\x04B\x00\x00\xa4B\x00\x00\xd4B\x00\x00\xdeB\x00\x00\xf0B\x00\x00\xfaB\x00\x00\x0fC\x00\x00\x17C\x00\x00\x19C\x00\x00.C\x00\x008C\x00\x00AC\x00\x00qC\x00\x00\x80C\x00\x00\x85C\x00\x80\x91C\x00\x00\x92C\x00\x00\x95C\x00\x00\x99C\x00\x00\xacC\x00\x80\xbdC\x00\x80\xbfC\x00\x00\xc1C\x00\x80\xc3C\x00\x00\xc9C\x00\x80\xcbC\x00\x80\xd4C\x00\x80\xe1C\x00\x80\xedC\x00\x80\xefC\x00\x00\xf0C\x00\x00\xf2C\x00\x00\xf6C\x00\xc0\x00D\x00\x80\x02D\x00\x80\x04D\x00\xc0\x04D\x00\x00\nD\x00\xc0\x0eD\x00\xc0\x10D\x00\x00@A\x00\x00`A\x00\x00\x80A\x00\x00$B\x00\x000B\x00\x00XB\x00\x00\x90B\x00\x00\x9cB\x00\x00\xb8B\x00\x00\rC\x00\x00-C\x00\x00KC\x00\x00]C\x00\x00bC\x00\x00nC\x00\x00yC\x00\x00\x88C\x00\x00\x8eC\x00\x80\x93C\x00\x00\x9bC\x00\x80\x9fC\x00\x00\xa2C\x00\x00\xa5C\x00\x80\xc2C\x00\x00\xc8C\x00\x80\xd1C\x00\x00\xd7C\x00\x80\xe8C\x00\x00\xe9C\x00\x00\xf5C\x00\x80\xf5C\x00\x00\xfbC\x00\x00\xfcC\x00@\x00D\x00@\x04D\x00\x80\x07D\x00@\tD\x00@\x0bD\x00\x00\x0cD\x00@\x10D\x00\x00pA\x00\x00\xe0A\x00\x00LB\x00\x00lB\x00\x00\xc2B\x00\x00\xeaB\x00\x00&C\x00\x00FC\x00\x00fC\x00\x00|C\x00\x80\x81C\x00\x80\x85C\x00\x80\x8aC\x00\x00\x8fC\x00\x00\x94C\x00\x80\x99C\x00\x80\xa6C\x00\x00\xaaC\x00\x00\xabC\x00\x00\xaeC\x00\x00\xbdC\x00\x80\xceC\x00\x00\xd1C\x00\x00\xd4C\x00\x00\xd8C\x00\x00\xdaC\x00\x00\xddC\x00\x00\xe0C\x00\x80\xecC\x00\x00\xeeC\x00\x00\xf8C\x00@\x02D\x00\x00\x04D\x00\x00\x06D\x00\x00\tD\x00\x80\tD\x00\xc0\nD\x00\x80\x10D\x00\x80\x12D\x00@\x15D'
S'\x00\x00\x00\x00\x00\x00\x00\x00\x00\x00\x00\x00\x00\x00\x00\x00\x00\x00\x00\x00\x00\x00\x00\x00\x00\x00\x00\x00\x00\x00\x00\x00\x00\x00\x00\x00\x00\x00\x00\x00\x00\x00\x00\x00\x00\x00\x00\x00\x00\x00\x00\x00\x00\x00\x00\x00\x00\x00\x00\x00\x00\x00\x00\x00\x00\x00\x00\x00\x00\x00\x00\x00\x00\x00\x00\x00\x00\x00\x00\x00\x00\x00\x00\x00\x00\x00\x00\x00\x00\x00\x00\x00\x00\x00\x00\x00\x00\x00\x00\x00\x00\x00\x00\x00\x00\x00\x00\x00\x00\x00\x00\x00\x00\x00\x00\x00\x00\x00\x00\x00\x00\x00\x00\x00\x00\x00\x00\x00\x00\x00\x00\x00\x00\x00\x00\x00\x00\x00\x00\x00\x00\x00\x00\x00\x00\x00\x00\x00\x00\x00\x00\x00\x00\x00\x00\x00\x00\x00\x00\x00\x00\x00\x00\x00\x00\x00\x00\x00\x00\x00\x00\x00\x00\x00\x00\x00\x00\x00\x00\x00\x00\x00\x00\x00\x00\x00\x00\x00\x00\x00\x00\x00\x00\x00\x00\x00\x00\x00\x00\x00\x00\x00\x00\x00\x00\x00\x00\x00\x00\x00\x00\x00\x00\x00\x00\x00\x00\x00\x00\x00\x00\x00\x00\x00\x00\x00\x00\x00\x00\x00\x00\x00\x00\x00\x00\x00\x00\x00\x00\x00\x00\x00\x00\x00\x00\x00\x00\x00\x00\x00\x00\x00\x00\x00\x00\x00\x00\x00\x00\x00\x00\x00\x00\x00\x00\x00\x00\x00\x00\x00\x00\x00\x00\x00\x00\x00\x00\x00\x00\x00\x00\x00\x00\x00\x00\x00\x00\x00\x00\x00\x00\x00\x00\x00\x00\x00\x00\x00\x00\x00\x00\x00\x00\x00\x00\x00\x00\x00\x00\x00\x00\x00\x00\x00\x00\x00\x00\x00\x00\x00\x00\x00\x00\x00\x00\x00\x00\x00\x00\x00\x00\x00\x00\x00\x00\x00\x00\x00\x00\x00\x00\x00\x00\x00\x00\x00\x00\x00\x00\x00\x00\x00\x00\x00\x00\x00\x00\x00\x00\x00\x00\x00\x00\x00\x00\x00\x00\x00\x00\x00\x00\x00\x00\x00\x00\x00\x00\x00\x00\x00\x00\x00\x00\x00\x00\x00\x00\x00\x00\x00\x00\x00\x00\x00\x00\x00\x00\x00\x00\x00\x00\x00\x00\x00\x00\x00\x00\x00\x00\x00\x00\x00\x00\x00\x00\x00\x00\x00\x00\x00\x00\x00\x00\x00\x00\x00\x00\x00\x00\x00\x00\x00\x00\x00\x00\x00\x00\x00\x00\x00\x00\x00\x00\x00\x00\x00\x00\x00\x00\x00\x00\x00\x00\x00\x00\x00\x00\x00\x00\x00\x00\x00\x00\x00\x00\x00\x00\x00\x00\x00\x00\x00\x00\x00\x00\x00\x00\x00\x00\x00\x00\x00\x00\x00\x00\x00\x00\x00\x00\x00\x00\x00\x00\x00\x00\x00\x00\x00\x00\x00\x00\x00\x00\x00\x00\x00\x00\x00\x00\x00\x00\x00\x00\x00\x00\x00\x00\x00\x00\x00\x00\x00\x00\x00\x00\x00\x00\x00\x00\x00\x00\x00\x00\x00\x00\x00\x00\x00\x00\x00\x00\x00\x00\x00\x00\x00\x00\x00\x00\x00\x00\x00\x00\x00\x00\x00\x00\x00\x00\x00\x00\x00\x00\x00\x00\x00\x00\x00\x00\x00\x00\x00\x00\x00\x00\x00\x00\x00\x00\x00\x00\x00\x00\x00\x00\x00\x00\x00\x00\x00\x00\x00\x00\x00\x00\x00\x00\x00\x00\x00'
NtbstRp58
(dp59
S'isNumeric'
p60
(dp61
g48
I01
sg56
I01
ssS'trials'
p62
g37
sS'dataTypes'
p63
(lp64
g48
ag56
asS'dataShape'
p65
(lp66
I15
aI40
asbsS'method'
p67
S'fullRandom'
p68
sS'sequenceIndices'
p69
cnumpy.core.multiarray
_reconstruct
p70
(g51
(I0
tS'b'
tRp71
(I1
(I15
I40
tg54
(S'O4'
I0
I1
tRp72
(I3
S'|'
NNNI-1
I-1
I63
tbI00
(lp73
I10
aI14
aI4
aI8
aI8
aI0
aI1
aI4
aI12
aI5
aI0
aI3
aI11
aI7
aI11
aI3
aI6
aI8
aI5
aI0
aI6
aI8
aI13
aI3
aI1
aI2
aI2
aI6
aI5
aI3
aI3
aI13
aI12
aI11
aI5
aI8
aI5
aI14
aI6
aI0
aI1
aI13
aI5
aI2
aI0
aI5
aI4
aI12
aI1
aI11
aI12
aI14
aI5
aI5
aI5
aI13
aI12
aI12
aI11
aI14
aI0
aI6
aI4
aI3
aI7
aI6
aI12
aI4
aI4
aI14
aI12
aI13
aI5
aI14
aI8
aI9
aI6
aI9
aI12
aI14
aI9
aI4
aI8
aI8
aI1
aI2
aI13
aI9
aI10
aI10
aI11
aI5
aI6
aI9
aI5
aI9
aI7
aI2
aI13
aI11
aI10
aI10
aI1
aI4
aI1
aI1
aI7
aI12
aI0
aI1
aI8
aI10
aI0
aI5
aI3
aI0
aI13
aI13
aI7
aI7
aI3
aI2
aI12
aI0
aI9
aI13
aI1
aI3
aI1
aI8
aI12
aI0
aI4
aI14
aI7
aI1
aI5
aI9
aI3
aI6
aI2
aI11
aI14
aI14
aI1
aI14
aI11
aI4
aI7
aI6
aI0
aI11
aI0
aI10
aI13
aI14
aI1
aI2
aI6
aI9
aI10
aI6
aI2
aI9
aI10
aI4
aI2
aI8
aI7
aI3
aI2
aI1
aI12
aI5
aI1
aI3
aI1
aI14
aI11
aI7
aI7
aI13
aI10
aI1
aI8
aI12
aI1
aI5
aI14
aI1
aI1
aI9
aI12
aI11
aI1
aI13
aI0
aI4
aI8
aI10
aI11
aI7
aI0
aI3
aI9
aI6
aI3
aI11
aI12
aI7
aI0
aI10
aI7
aI10
aI6
aI14
aI9
aI8
aI6
aI5
aI7
aI1
aI8
aI2
aI8
aI4
aI8
aI8
aI12
aI4
aI2
aI10
aI11
aI6
aI12
aI12
aI3
aI13
aI7
aI4
aI9
aI10
aI4
aI14
aI11
aI6
aI2
aI12
aI6
aI13
aI1
aI1
aI1
aI0
aI6
aI4
aI2
aI7
aI11
aI12
aI12
aI2
aI4
aI7
aI2
aI0
aI1
aI8
aI8
aI3
aI7
aI4
aI9
aI9
aI4
aI12
aI10
aI5
aI7
aI9
aI9
aI0
aI8
aI5
aI4
aI12
aI14
aI2
aI4
aI8
aI10
aI11
aI4
aI3
aI10
aI7
aI4
aI9
aI14
aI12
aI14
aI11
aI1
aI5
aI10
aI11
aI4
aI5
aI7
aI14
aI7
aI8
aI2
aI13
aI4
aI3
aI1
aI0
aI13
aI0
aI6
aI3
aI4
aI5
aI3
aI0
aI11
aI5
aI10
aI12
aI10
aI13
aI0
aI13
aI0
aI7
aI2
aI8
aI6
aI0
aI3
aI11
aI11
aI0
aI10
aI12
aI0
aI14
aI8
aI5
aI7
aI14
aI3
aI0
aI6
aI7
aI14
aI2
aI14
aI10
aI3
aI3
aI2
aI13
aI11
aI0
aI3
aI5
aI7
aI9
aI4
aI12
aI2
aI2
aI3
aI6
aI13
aI1
aI10
aI10
aI3
aI13
aI3
aI8
aI7
aI10
aI9
aI0
aI8
aI1
aI8
aI9
aI2
aI13
aI3
aI2
aI13
aI3
aI12
aI2
aI10
aI7
aI6
aI11
aI2
aI8
aI9
aI6
aI9
aI3
aI10
aI3
aI0
aI9
aI5
aI4
aI0
aI0
aI5
aI13
aI13
aI9
aI14
aI9
aI2
aI4
aI13
aI5
aI13
aI2
aI4
aI12
aI13
aI11
aI7
aI0
aI14
aI4
aI6
aI9
aI7
aI5
aI13
aI6
aI5
aI10
aI8
aI7
aI5
aI1
aI1
aI11
aI1
aI8
aI13
aI6
aI9
aI12
aI0
aI14
aI10
aI5
aI8
aI10
aI10
aI12
aI7
aI11
aI2
aI7
aI11
aI14
aI13
aI5
aI14
aI14
aI11
aI10
aI2
aI3
aI13
aI9
aI4
aI6
aI13
aI2
aI5
aI14
aI7
aI8
aI4
aI9
aI11
aI2
aI6
aI3
aI14
aI14
aI1
aI8
aI11
aI11
aI14
aI3
aI8
aI2
aI12
aI8
aI14
aI11
aI4
aI10
aI12
aI10
aI12
aI6
aI12
aI8
aI9
aI14
aI4
aI14
aI7
aI10
aI7
aI0
aI9
aI2
aI6
aI0
aI3
aI9
aI12
aI6
aI11
aI13
aI1
aI6
aI6
aI12
aI4
aI10
aI5
aI3
aI1
aI0
aI1
aI14
aI3
aI14
aI2
aI0
aI8
aI10
aI5
aI6
aI3
aI6
aI6
aI4
aI13
aI8
aI13
aI14
aI2
aI11
aI11
aI2
aI11
aI11
aI5
aI1
aI4
aI3
aI1
aI10
aI7
aI10
aI13
aI7
aI7
aI8
aI12
aI4
aI6
aI13
aI9
aI13
aI9
aI6
aI11
aI12
aI9
aI5
aI9
aI9
aI5
aI0
aI2
aI9
atbsS'finished'
p74
I00
sS'nReps'
p75
I40
sS'nRemaining'
p76
I0
sS'trialList'
p77
(lp78
I0
aI1
aI2
aI3
aI4
aI5
aI6
aI7
aI8
aI9
aI10
aI11
aI12
aI13
aI14
asS'seed'
p79
NsS'thisIndex'
p80
I9
sS'thisN'
p81
I599
sS'thisTrialN'
p82
I14
sS'nTotal'
p83
I600
sS'_warnUseOfNext'
p84
I01
sbasS'saveWideText'
p85
I00
sS'thisEntry'
p86
(dp87
sS'version'
p88
S''
sS'_paramNamesSoFar'
p89
(lp90
sS'entries'
p91
(lp92
(dp93
g16
(lp94
S'k'
asS'.thisTrial'
p95
I10
sS'.thisRepN'
p96
I0
sg30
g31
sg32
g33
sS'.thisTrialN'
p97
I0
sS'.thisN'
p98
I0
sS'.thisIndex'
p99
I10
sg15
(lp100
S'd'
asg17
S'N'
sg14
I1
sa(dp101
g16
(lp102
S'd'
asg95
I1
sS'.thisRepN'
p103
I0
sg30
g31
sg32
g33
sS'.thisTrialN'
p104
I1
sS'.thisN'
p105
I1
sS'.thisIndex'
p106
I1
sg15
(lp107
S'd'
asg17
S'Y'
sg14
I1
sa(dp108
g16
(lp109
S'd'
asg18
S'N'
sS'.thisRepN'
p110
I0
sg20
S'Y'
sg32
g33
sS'.thisTrialN'
p111
I2
sS'.thisN'
p112
I2
sS'.thisIndex'
p113
I9
sg15
(lp114
S'd'
asg30
g31
sg17
S'Y'
sg14
I1
sg19
Nsg95
I9
sa(dp115
g16
(lp116
S'k'
asg18
S'N'
sS'.thisRepN'
p117
I0
sg20
S'N'
sg32
g33
sS'.thisTrialN'
p118
I3
sS'.thisN'
p119
I3
sS'.thisIndex'
p120
I3
sg15
(lp121
S'd'
asg30
g31
sg17
S'N'
sg14
I1
sg19
(lp122
S'space'
p123
asg95
I3
sa(dp124
g16
(lp125
S'd'
asg18
S'Y'
sS'.thisRepN'
p126
I0
sg20
S'Y'
sg32
g33
sS'.thisTrialN'
p127
I4
sS'.thisN'
p128
I4
sS'.thisIndex'
p129
I10
sg15
(lp130
S'k'
asg30
g31
sg17
S'N'
sg14
I1
sg19
(lp131
S'space'
p132
asg95
I10
sa(dp133
g16
(lp134
S'd'
asg18
S'Y'
sS'.thisRepN'
p135
I0
sg20
S'Y'
sg32
g33
sS'.thisTrialN'
p136
I5
sS'.thisN'
p137
I5
sS'.thisIndex'
p138
I11
sg15
(lp139
S'd'
asg30
g31
sg17
S'Y'
sg14
I1
sg19
(lp140
S'space'
p141
asg95
I11
sa(dp142
g16
(lp143
S'd'
asg18
S'Y'
sS'.thisRepN'
p144
I0
sg20
S'Y'
sg32
g33
sS'.thisTrialN'
p145
I6
sS'.thisN'
p146
I6
sS'.thisIndex'
p147
I9
sg15
(lp148
S'd'
asg30
g31
sg17
S'Y'
sg14
I1
sg19
(lp149
S'space'
p150
asg95
I9
sa(dp151
g16
(lp152
S'd'
asg18
S'Y'
sS'.thisRepN'
p153
I0
sg20
S'Y'
sg32
g33
sS'.thisTrialN'
p154
I7
sS'.thisN'
p155
I7
sS'.thisIndex'
p156
I9
sg15
(lp157
S'd'
asg30
g31
sg17
S'Y'
sg14
I1
sg19
(lp158
S'space'
p159
asg95
I9
sa(dp160
g16
(lp161
S'd'
asg18
S'Y'
sS'.thisRepN'
p162
I0
sg20
S'N'
sg32
g33
sS'.thisTrialN'
p163
I8
sS'.thisN'
p164
I8
sS'.thisIndex'
p165
I6
sg15
(lp166
S'k'
asg30
g31
sg17
S'N'
sg14
I1
sg19
(lp167
S'k'
asg95
I6
sa(dp168
g16
(lp169
S'd'
asg18
S'Y'
sS'.thisRepN'
p170
I0
sg20
S'Y'
sg32
g33
sS'.thisTrialN'
p171
I9
sS'.thisN'
p172
I9
sS'.thisIndex'
p173
I3
sg15
(lp174
S'd'
asg30
g31
sg17
S'Y'
sg14
I1
sg19
(lp175
S'space'
p176
asg95
I3
sa(dp177
g16
(lp178
S'd'
asg18
S'N'
sS'.thisRepN'
p179
I0
sg20
S'N'
sg32
g33
sS'.thisTrialN'
p180
I10
sS'.thisN'
p181
I10
sS'.thisIndex'
p182
I10
sg15
(lp183
S'd'
asg30
g31
sg17
S'Y'
sg14
I1
sg19
(lp184
S'space'
p185
asg95
I10
sa(dp186
g16
(lp187
S'k'
asg18
S'N'
sS'.thisRepN'
p188
I0
sg20
S'N'
sg32
g33
sS'.thisTrialN'
p189
I11
sS'.thisN'
p190
I11
sS'.thisIndex'
p191
I7
sg15
(lp192
S'k'
asg30
g31
sg17
S'Y'
sg14
I1
sg19
(lp193
S'space'
p194
asg95
I7
sa(dp195
g16
(lp196
S'd'
asg18
S'Y'
sS'.thisRepN'
p197
I0
sg20
S'N'
sg32
g33
sS'.thisTrialN'
p198
I12
sS'.thisN'
p199
I12
sS'.thisIndex'
p200
I13
sg15
(lp201
S'd'
asg30
g31
sg17
S'Y'
sg14
I1
sg19
(lp202
S'd'
asg95
I13
sa(dp203
g16
(lp204
S'd'
asg18
S'N'
sS'.thisRepN'
p205
I0
sg20
S'Y'
sg32
g33
sS'.thisTrialN'
p206
I13
sS'.thisN'
p207
I13
sS'.thisIndex'
p208
I4
sg15
(lp209
S'k'
asg30
g31
sg17
S'N'
sg14
I1
sg19
Nsg95
I4
sa(dp210
g16
(lp211
S'd'
asg18
S'Y'
sS'.thisRepN'
p212
I0
sg20
S'N'
sg32
g33
sS'.thisTrialN'
p213
I14
sS'.thisN'
p214
I14
sS'.thisIndex'
p215
I13
sg15
(lp216
S'd'
asg30
g31
sg17
S'Y'
sg14
I1
sg19
(lp217
S'd'
asg95
I13
sa(dp218
g16
(lp219
S'd'
asg18
S'N'
sS'.thisRepN'
p220
I1
sg20
S'N'
sg32
g33
sS'.thisTrialN'
p221
I0
sS'.thisN'
p222
I15
sS'.thisIndex'
p223
I14
sg15
(lp224
S'd'
asg30
g31
sg17
S'Y'
sg14
I1
sg19
(lp225
S'k'
asg95
I14
sa(dp226
g16
(lp227
S'k'
asg18
S'N'
sS'.thisRepN'
p228
I1
sg20
S'N'
sg32
g33
sS'.thisTrialN'
p229
I1
sS'.thisN'
p230
I16
sS'.thisIndex'
p231
I13
sg15
(lp232
S'd'
asg30
g31
sg17
S'N'
sg14
I1
sg19
(lp233
S'space'
p234
asg95
I13
sa(dp235
g16
(lp236
S'k'
asg18
S'N'
sS'.thisRepN'
p237
I1
sg20
S'N'
sg32
g33
sS'.thisTrialN'
p238
I2
sS'.thisN'
p239
I17
sS'.thisIndex'
p240
I4
sg15
(lp241
S'd'
asg30
g31
sg17
S'N'
sg14
I1
sg19
(lp242
S'space'
p243
asg95
I4
sa(dp244
g16
(lp245
S'k'
asg18
S'Y'
sS'.thisRepN'
p246
I1
sg20
S'Y'
sg32
g33
sS'.thisTrialN'
p247
I3
sS'.thisN'
p248
I18
sS'.thisIndex'
p249
I2
sg15
(lp250
S'k'
asg30
g31
sg17
S'Y'
sg14
I1
sg19
(lp251
S'space'
p252
asg95
I2
sa(dp253
g16
(lp254
S'd'
asg18
S'Y'
sS'.thisRepN'
p255
I1
sg20
S'N'
sg32
g33
sS'.thisTrialN'
p256
I4
sS'.thisN'
p257
I19
sS'.thisIndex'
p258
I6
sg15
(lp259
S'd'
asg30
g31
sg17
S'Y'
sg14
I1
sg19
(lp260
S'd'
asg95
I6
sa(dp261
g16
(lp262
S'd'
asg18
S'N'
sS'.thisRepN'
p263
I1
sg20
S'N'
sg32
g33
sS'.thisTrialN'
p264
I5
sS'.thisN'
p265
I20
sS'.thisIndex'
p266
I7
sg15
(lp267
S'k'
asg30
g31
sg17
S'N'
sg14
I1
sg19
(lp268
S'space'
p269
asg95
I7
sa(dp270
g16
(lp271
S'k'
asg18
S'Y'
sS'.thisRepN'
p272
I1
sg20
S'Y'
sg32
g33
sS'.thisTrialN'
p273
I6
sS'.thisN'
p274
I21
sS'.thisIndex'
p275
I10
sg15
(lp276
S'k'
asg30
g31
sg17
S'Y'
sg14
I1
sg19
(lp277
S'space'
p278
asg95
I10
sa(dp279
g16
(lp280
S'k'
asg18
S'Y'
sS'.thisRepN'
p281
I1
sg20
S'N'
sg32
g33
sS'.thisTrialN'
p282
I7
sS'.thisN'
p283
I22
sS'.thisIndex'
p284
I0
sg15
(lp285
S'd'
asg30
g31
sg17
S'N'
sg14
I1
sg19
Nsg95
I0
sa(dp286
g16
(lp287
S'd'
asg18
S'Y'
sS'.thisRepN'
p288
I1
sg20
S'Y'
sg32
g33
sS'.thisTrialN'
p289
I8
sS'.thisN'
p290
I23
sS'.thisIndex'
p291
I3
sg15
(lp292
S'd'
asg30
g31
sg17
S'Y'
sg14
I1
sg19
(lp293
S'space'
p294
asg95
I3
sa(dp295
g16
(lp296
S'k'
asg18
S'Y'
sS'.thisRepN'
p297
I1
sg20
S'Y'
sg32
g33
sS'.thisTrialN'
p298
I9
sS'.thisN'
p299
I24
sS'.thisIndex'
p300
I3
sg15
(lp301
S'd'
asg30
g31
sg17
S'N'
sg14
I1
sg19
(lp302
S'space'
p303
asg95
I3
sa(dp304
g16
(lp305
S'd'
asg18
S'N'
sS'.thisRepN'
p306
I1
sg20
S'N'
sg32
g33
sS'.thisTrialN'
p307
I10
sS'.thisN'
p308
I25
sS'.thisIndex'
p309
I7
sg15
(lp310
S'd'
asg30
g31
sg17
S'Y'
sg14
I1
sg19
(lp311
S'space'
p312
asg95
I7
sa(dp313
g16
(lp314
S'k'
asg18
S'Y'
sS'.thisRepN'
p315
I1
sg20
S'N'
sg32
g33
sS'.thisTrialN'
p316
I11
sS'.thisN'
p317
I26
sS'.thisIndex'
p318
I5
sg15
(lp319
S'd'
asg30
g31
sg17
S'N'
sg14
I1
sg19
(lp320
S'd'
asg95
I5
sa(dp321
g16
(lp322
S'k'
asg18
S'N'
sS'.thisRepN'
p323
I1
sg20
S'N'
sg32
g33
sS'.thisTrialN'
p324
I12
sS'.thisN'
p325
I27
sS'.thisIndex'
p326
I9
sg15
(lp327
S'd'
asg30
g31
sg17
S'N'
sg14
I1
sg19
(lp328
S'space'
p329
asg95
I9
sa(dp330
g16
(lp331
S'd'
asg18
S'Y'
sS'.thisRepN'
p332
I1
sg20
S'N'
sg32
g33
sS'.thisTrialN'
p333
I13
sS'.thisN'
p334
I28
sS'.thisIndex'
p335
I14
sg15
(lp336
S'k'
asg30
g31
sg17
S'N'
sg14
I1
sg19
Nsg95
I14
sa(dp337
g16
(lp338
S'k'
asg18
S'N'
sS'.thisRepN'
p339
I1
sg20
S'N'
sg32
g33
sS'.thisTrialN'
p340
I14
sS'.thisN'
p341
I29
sS'.thisIndex'
p342
I8
sg15
(lp343
S'd'
asg30
g31
sg17
S'N'
sg14
I1
sg19
(lp344
S'space'
p345
asg95
I8
sa(dp346
g16
(lp347
S'd'
asg18
S'Y'
sS'.thisRepN'
p348
I2
sg20
S'N'
sg32
g33
sS'.thisTrialN'
p349
I0
sS'.thisN'
p350
I30
sS'.thisIndex'
p351
I4
sg15
(lp352
S'k'
asg30
g31
sg17
S'N'
sg14
I1
sg19
Nsg95
I4
sa(dp353
g16
(lp354
S'k'
asg18
S'N'
sS'.thisRepN'
p355
I2
sg20
S'N'
sg32
g33
sS'.thisTrialN'
p356
I1
sS'.thisN'
p357
I31
sS'.thisIndex'
p358
I5
sg15
(lp359
S'd'
asg30
g31
sg17
S'N'
sg14
I1
sg19
(lp360
S'space'
p361
asg95
I5
sa(dp362
g16
(lp363
S'k'
asg18
S'N'
sS'.thisRepN'
p364
I2
sg20
S'N'
sg32
g33
sS'.thisTrialN'
p365
I2
sS'.thisN'
p366
I32
sS'.thisIndex'
p367
I8
sg15
(lp368
S'd'
asg30
g31
sg17
S'N'
sg14
I1
sg19
(lp369
S'space'
p370
asg95
I8
sa(dp371
g16
(lp372
S'k'
asg18
S'Y'
sS'.thisRepN'
p373
I2
sg20
S'Y'
sg32
g33
sS'.thisTrialN'
p374
I3
sS'.thisN'
p375
I33
sS'.thisIndex'
p376
I12
sg15
(lp377
S'k'
asg30
g31
sg17
S'Y'
sg14
I1
sg19
(lp378
S'space'
p379
asg95
I12
sa(dp380
g16
(lp381
S'd'
asg18
S'N'
sS'.thisRepN'
p382
I2
sg20
S'N'
sg32
g33
sS'.thisTrialN'
p383
I4
sS'.thisN'
p384
I34
sS'.thisIndex'
p385
I2
sg15
(lp386
S'd'
asg30
g31
sg17
S'Y'
sg14
I1
sg19
(lp387
S'space'
p388
asg95
I2
sa(dp389
g16
(lp390
S'k'
asg18
S'N'
sS'.thisRepN'
p391
I2
sg20
S'N'
sg32
g33
sS'.thisTrialN'
p392
I5
sS'.thisN'
p393
I35
sS'.thisIndex'
p394
I0
sg15
(lp395
S'd'
asg30
g31
sg17
S'N'
sg14
I1
sg19
(lp396
S'space'
p397
asg95
I0
sa(dp398
g16
(lp399
S'k'
asg18
S'Y'
sS'.thisRepN'
p400
I2
sg20
S'N'
sg32
g33
sS'.thisTrialN'
p401
I6
sS'.thisN'
p402
I36
sS'.thisIndex'
p403
I4
sg15
(lp404
S'k'
asg30
g31
sg17
S'Y'
sg14
I1
sg19
Nsg95
I4
sa(dp405
g16
(lp406
S'd'
asg18
S'N'
sS'.thisRepN'
p407
I2
sg20
S'N'
sg32
g33
sS'.thisTrialN'
p408
I7
sS'.thisN'
p409
I37
sS'.thisIndex'
p410
I8
sg15
(lp411
S'd'
asg30
g31
sg17
S'Y'
sg14
I1
sg19
(lp412
S'k'
asg95
I8
sa(dp413
g16
(lp414
S'k'
asg18
S'Y'
sS'.thisRepN'
p415
I2
sg20
S'Y'
sg32
g33
sS'.thisTrialN'
p416
I8
sS'.thisN'
p417
I38
sS'.thisIndex'
p418
I4
sg15
(lp419
S'd'
asg30
g31
sg17
S'N'
sg14
I1
sg19
(lp420
S'space'
p421
asg95
I4
sa(dp422
g16
(lp423
S'k'
asg18
S'N'
sS'.thisRepN'
p424
I2
sg20
S'N'
sg32
g33
sS'.thisTrialN'
p425
I9
sS'.thisN'
p426
I39
sS'.thisIndex'
p427
I2
sg15
(lp428
S'k'
asg30
g31
sg17
S'Y'
sg14
I1
sg19
(lp429
S'space'
p430
asg95
I2
sa(dp431
g16
(lp432
S'd'
asg18
S'N'
sS'.thisRepN'
p433
I2
sg20
S'N'
sg32
g33
sS'.thisTrialN'
p434
I10
sS'.thisN'
p435
I40
sS'.thisIndex'
p436
I6
sg15
(lp437
S'd'
asg30
g31
sg17
S'Y'
sg14
I1
sg19
(lp438
S'space'
p439
asg95
I6
sa(dp440
g16
(lp441
S'k'
asg18
S'N'
sS'.thisRepN'
p442
I2
sg20
S'N'
sg32
g33
sS'.thisTrialN'
p443
I11
sS'.thisN'
p444
I41
sS'.thisIndex'
p445
I13
sg15
(lp446
S'd'
asg30
g31
sg17
S'N'
sg14
I1
sg19
(lp447
S'k'
asg95
I13
sa(dp448
g16
(lp449
S'd'
asg18
S'N'
sS'.thisRepN'
p450
I2
sg20
S'Y'
sg32
g33
sS'.thisTrialN'
p451
I12
sS'.thisN'
p452
I42
sS'.thisIndex'
p453
I4
sg15
(lp454
S'k'
asg30
g31
sg17
S'N'
sg14
I1
sg19
Nsg95
I4
sa(dp455
g16
(lp456
S'k'
asg18
S'Y'
sS'.thisRepN'
p457
I2
sg20
S'Y'
sg32
g33
sS'.thisTrialN'
p458
I13
sS'.thisN'
p459
I43
sS'.thisIndex'
p460
I7
sg15
(lp461
S'd'
asg30
g31
sg17
S'N'
sg14
I1
sg19
(lp462
S'space'
p463
asg95
I7
sa(dp464
g16
(lp465
S'k'
asg18
S'N'
sS'.thisRepN'
p466
I2
sg20
S'N'
sg32
g33
sS'.thisTrialN'
p467
I14
sS'.thisN'
p468
I44
sS'.thisIndex'
p469
I13
sg15
(lp470
S'k'
asg30
g31
sg17
S'Y'
sg14
I1
sg19
(lp471
S'space'
p472
asg95
I13
sa(dp473
g16
(lp474
S'k'
asg18
S'Y'
sS'.thisRepN'
p475
I3
sg20
S'N'
sg32
g33
sS'.thisTrialN'
p476
I0
sS'.thisN'
p477
I45
sS'.thisIndex'
p478
I8
sg15
(lp479
S'k'
asg30
g31
sg17
S'Y'
sg14
I1
sg19
Nsg95
I8
sa(dp480
g16
(lp481
S'k'
asg18
S'N'
sS'.thisRepN'
p482
I3
sg20
S'Y'
sg32
g33
sS'.thisTrialN'
p483
I1
sS'.thisN'
p484
I46
sS'.thisIndex'
p485
I2
sg15
(lp486
S'd'
asg30
g31
sg17
S'N'
sg14
I1
sg19
Nsg95
I2
sa(dp487
g16
(lp488
S'k'
asg18
S'N'
sS'.thisRepN'
p489
I3
sg20
S'N'
sg32
g33
sS'.thisTrialN'
p490
I2
sS'.thisN'
p491
I47
sS'.thisIndex'
p492
I8
sg15
(lp493
S'k'
asg30
g31
sg17
S'Y'
sg14
I1
sg19
(lp494
S'space'
p495
asg95
I8
sa(dp496
g16
(lp497
S'k'
asg18
S'N'
sS'.thisRepN'
p498
I3
sg20
S'N'
sg32
g33
sS'.thisTrialN'
p499
I3
sS'.thisN'
p500
I48
sS'.thisIndex'
p501
I0
sg15
(lp502
S'k'
asg30
g31
sg17
S'Y'
sg14
I1
sg19
(lp503
S'space'
p504
asg95
I0
sa(dp505
g16
(lp506
S'd'
asg18
S'N'
sg22
I16
sS'.thisN'
p507
I49
sg20
S'N'
sg32
g33
sS'.thisTrialN'
p508
I4
sS'.thisRepN'
p509
I3
sg21
I26
sS'.thisIndex'
p510
I9
sg23
I22
sg15
(lp511
S'k'
asg30
g31
sg17
S'N'
sg14
I1
sg19
(lp512
S'space'
p513
asg95
I9
sa(dp514
g16
(lp515
S'k'
asg95
I3
sS'.thisRepN'
p516
I3
sg30
g31
sg32
g33
sS'.thisTrialN'
p517
I5
sS'.thisN'
p518
I50
sS'.thisIndex'
p519
I3
sg15
(lp520
S'd'
asg17
S'N'
sg14
I2
sa(dp521
g16
(lp522
S'd'
asg95
I14
sS'.thisRepN'
p523
I3
sg30
g31
sg32
g33
sS'.thisTrialN'
p524
I6
sS'.thisN'
p525
I51
sS'.thisIndex'
p526
I14
sg15
(lp527
S'k'
asg17
S'N'
sg14
I2
sa(dp528
g16
(lp529
S'd'
asg18
S'N'
sS'.thisRepN'
p530
I3
sg20
S'Y'
sg32
g33
sS'.thisTrialN'
p531
I7
sS'.thisN'
p532
I52
sS'.thisIndex'
p533
I5
sg15
(lp534
S'd'
asg30
g31
sg17
S'Y'
sg14
I2
sg19
Nsg95
I5
sa(dp535
g16
(lp536
S'd'
asg18
S'Y'
sS'.thisRepN'
p537
I3
sg20
S'Y'
sg32
g33
sS'.thisTrialN'
p538
I8
sS'.thisN'
p539
I53
sS'.thisIndex'
p540
I5
sg15
(lp541
S'd'
asg30
g31
sg17
S'Y'
sg14
I2
sg19
(lp542
S'space'
p543
asg95
I5
sa(dp544
g16
(lp545
S'd'
asg18
S'N'
sS'.thisRepN'
p546
I3
sg20
S'Y'
sg32
g33
sS'.thisTrialN'
p547
I9
sS'.thisN'
p548
I54
sS'.thisIndex'
p549
I13
sg15
(lp550
S'k'
asg30
g31
sg17
S'N'
sg14
I2
sg19
Nsg95
I13
sa(dp551
g16
(lp552
S'k'
asg18
S'Y'
sS'.thisRepN'
p553
I3
sg20
S'Y'
sg32
g33
sS'.thisTrialN'
p554
I10
sS'.thisN'
p555
I55
sS'.thisIndex'
p556
I11
sg15
(lp557
S'd'
asg30
g31
sg17
S'N'
sg14
I2
sg19
(lp558
S'space'
p559
asg95
I11
sa(dp560
g16
(lp561
S'd'
asg18
S'N'
sS'.thisRepN'
p562
I3
sg20
S'N'
sg32
g33
sS'.thisTrialN'
p563
I11
sS'.thisN'
p564
I56
sS'.thisIndex'
p565
I6
sg15
(lp566
S'k'
asg30
g31
sg17
S'N'
sg14
I2
sg19
(lp567
S'k'
asg95
I6
sa(dp568
g16
(lp569
S'd'
asg18
S'Y'
sS'.thisRepN'
p570
I3
sg20
S'Y'
sg32
g33
sS'.thisTrialN'
p571
I12
sS'.thisN'
p572
I57
sS'.thisIndex'
p573
I6
sg15
(lp574
S'd'
asg30
g31
sg17
S'Y'
sg14
I2
sg19
(lp575
S'space'
p576
asg95
I6
sa(dp577
g16
(lp578
S'd'
asg18
S'N'
sS'.thisRepN'
p579
I3
sg20
S'N'
sg32
g33
sS'.thisTrialN'
p580
I13
sS'.thisN'
p581
I58
sS'.thisIndex'
p582
I10
sg15
(lp583
S'd'
asg30
g31
sg17
S'Y'
sg14
I2
sg19
(lp584
S'k'
asg95
I10
sa(dp585
g16
(lp586
S'd'
asg18
S'N'
sS'.thisRepN'
p587
I3
sg20
S'N'
sg32
g33
sS'.thisTrialN'
p588
I14
sS'.thisN'
p589
I59
sS'.thisIndex'
p590
I14
sg15
(lp591
S'd'
asg30
g31
sg17
S'Y'
sg14
I2
sg19
(lp592
S'space'
p593
asg95
I14
sa(dp594
g16
(lp595
S'k'
asg18
S'Y'
sS'.thisRepN'
p596
I4
sg20
S'Y'
sg32
g33
sS'.thisTrialN'
p597
I0
sS'.thisN'
p598
I60
sS'.thisIndex'
p599
I8
sg15
(lp600
S'd'
asg30
g31
sg17
S'N'
sg14
I2
sg19
(lp601
S'space'
p602
asg95
I8
sa(dp603
g16
(lp604
S'd'
asg18
S'N'
sS'.thisRepN'
p605
I4
sg20
S'N'
sg32
g33
sS'.thisTrialN'
p606
I1
sS'.thisN'
p607
I61
sS'.thisIndex'
p608
I0
sg15
(lp609
S'd'
asg30
g31
sg17
S'Y'
sg14
I2
sg19
(lp610
S'k'
asg95
I0
sa(dp611
g16
(lp612
S'k'
asg18
S'Y'
sS'.thisRepN'
p613
I4
sg20
S'Y'
sg32
g33
sS'.thisTrialN'
p614
I2
sS'.thisN'
p615
I62
sS'.thisIndex'
p616
I1
sg15
(lp617
S'k'
asg30
g31
sg17
S'Y'
sg14
I2
sg19
(lp618
S'space'
p619
asg95
I1
sa(dp620
g16
(lp621
S'k'
asg18
S'Y'
sS'.thisRepN'
p622
I4
sg20
S'Y'
sg32
g33
sS'.thisTrialN'
p623
I3
sS'.thisN'
p624
I63
sS'.thisIndex'
p625
I9
sg15
(lp626
S'd'
asg30
g31
sg17
S'N'
sg14
I2
sg19
(lp627
S'space'
p628
asg95
I9
sa(dp629
g16
(lp630
S'k'
asg18
S'N'
sS'.thisRepN'
p631
I4
sg20
S'N'
sg32
g33
sS'.thisTrialN'
p632
I4
sS'.thisN'
p633
I64
sS'.thisIndex'
p634
I10
sg15
(lp635
S'd'
asg30
g31
sg17
S'N'
sg14
I2
sg19
(lp636
S'k'
asg95
I10
sa(dp637
g16
(lp638
S'k'
asg18
S'Y'
sS'.thisRepN'
p639
I4
sg20
S'N'
sg32
g33
sS'.thisTrialN'
p640
I5
sS'.thisN'
p641
I65
sS'.thisIndex'
p642
I9
sg15
(lp643
S'd'
asg30
g31
sg17
S'N'
sg14
I2
sg19
(lp644
S'k'
asg95
I9
sa(dp645
g16
(lp646
S'd'
asg18
S'N'
sS'.thisRepN'
p647
I4
sg20
S'N'
sg32
g33
sS'.thisTrialN'
p648
I6
sS'.thisN'
p649
I66
sS'.thisIndex'
p650
I11
sg15
(lp651
S'k'
asg30
g31
sg17
S'N'
sg14
I2
sg19
(lp652
S'space'
p653
asg95
I11
sa(dp654
g16
(lp655
S'k'
asg18
S'N'
sS'.thisRepN'
p656
I4
sg20
S'Y'
sg32
g33
sS'.thisTrialN'
p657
I7
sS'.thisN'
p658
I67
sS'.thisIndex'
p659
I4
sg15
(lp660
S'd'
asg30
g31
sg17
S'N'
sg14
I2
sg19
Nsg95
I4
sa(dp661
g16
(lp662
S'd'
asg18
S'N'
sS'.thisRepN'
p663
I4
sg20
S'Y'
sg32
g33
sS'.thisTrialN'
p664
I8
sS'.thisN'
p665
I68
sS'.thisIndex'
p666
I3
sg15
(lp667
S'k'
asg30
g31
sg17
S'N'
sg14
I2
sg19
Nsg95
I3
sa(dp668
g16
(lp669
S'k'
asg18
S'Y'
sS'.thisRepN'
p670
I4
sg20
S'Y'
sg32
g33
sS'.thisTrialN'
p671
I9
sS'.thisN'
p672
I69
sS'.thisIndex'
p673
I11
sg15
(lp674
S'k'
asg30
g31
sg17
S'Y'
sg14
I2
sg19
(lp675
S'space'
p676
asg95
I11
sa(dp677
g16
(lp678
S'k'
asg18
S'Y'
sS'.thisRepN'
p679
I4
sg20
S'Y'
sg32
g33
sS'.thisTrialN'
p680
I10
sS'.thisN'
p681
I70
sS'.thisIndex'
p682
I2
sg15
(lp683
S'k'
asg30
g31
sg17
S'Y'
sg14
I2
sg19
(lp684
S'space'
p685
asg95
I2
sa(dp686
g16
(lp687
S'd'
asg18
S'Y'
sS'.thisRepN'
p688
I4
sg20
S'Y'
sg32
g33
sS'.thisTrialN'
p689
I11
sS'.thisN'
p690
I71
sS'.thisIndex'
p691
I5
sg15
(lp692
S'd'
asg30
g31
sg17
S'Y'
sg14
I2
sg19
(lp693
S'space'
p694
asg95
I5
sa(dp695
g16
(lp696
S'd'
asg18
S'N'
sS'.thisRepN'
p697
I4
sg20
S'N'
sg32
g33
sS'.thisTrialN'
p698
I12
sS'.thisN'
p699
I72
sS'.thisIndex'
p700
I13
sg15
(lp701
S'k'
asg30
g31
sg17
S'N'
sg14
I2
sg19
(lp702
S'space'
p703
asg95
I13
sa(dp704
g16
(lp705
S'k'
asg18
S'Y'
sS'.thisRepN'
p706
I4
sg20
S'Y'
sg32
g33
sS'.thisTrialN'
p707
I13
sS'.thisN'
p708
I73
sS'.thisIndex'
p709
I7
sg15
(lp710
S'd'
asg30
g31
sg17
S'N'
sg14
I2
sg19
(lp711
S'space'
p712
asg95
I7
sa(dp713
g16
(lp714
S'd'
asg18
S'Y'
sS'.thisRepN'
p715
I4
sg20
S'Y'
sg32
g33
sS'.thisTrialN'
p716
I14
sS'.thisN'
p717
I74
sS'.thisIndex'
p718
I2
sg15
(lp719
S'k'
asg30
g31
sg17
S'N'
sg14
I2
sg19
(lp720
S'space'
p721
asg95
I2
sa(dp722
g16
(lp723
S'k'
asg18
S'Y'
sS'.thisRepN'
p724
I5
sg20
S'Y'
sg32
g33
sS'.thisTrialN'
p725
I0
sS'.thisN'
p726
I75
sS'.thisIndex'
p727
I0
sg15
(lp728
S'd'
asg30
g31
sg17
S'N'
sg14
I2
sg19
(lp729
S'space'
p730
asg95
I0
sa(dp731
g16
(lp732
S'd'
asg18
S'N'
sS'.thisRepN'
p733
I5
sg20
S'N'
sg32
g33
sS'.thisTrialN'
p734
I1
sS'.thisN'
p735
I76
sS'.thisIndex'
p736
I5
sg15
(lp737
S'd'
asg30
g31
sg17
S'Y'
sg14
I2
sg19
(lp738
S'space'
p739
asg95
I5
sa(dp740
g16
(lp741
S'k'
asg18
S'Y'
sS'.thisRepN'
p742
I5
sg20
S'Y'
sg32
g33
sS'.thisTrialN'
p743
I2
sS'.thisN'
p744
I77
sS'.thisIndex'
p745
I2
sg15
(lp746
S'd'
asg30
g31
sg17
S'N'
sg14
I2
sg19
(lp747
S'space'
p748
asg95
I2
sa(dp749
g16
(lp750
S'd'
asg18
S'Y'
sS'.thisRepN'
p751
I5
sg20
S'Y'
sg32
g33
sS'.thisTrialN'
p752
I3
sS'.thisN'
p753
I78
sS'.thisIndex'
p754
I13
sg15
(lp755
S'k'
asg30
g31
sg17
S'N'
sg14
I2
sg19
(lp756
S'space'
p757
asg95
I13
sa(dp758
g16
(lp759
S'k'
asg18
S'N'
sS'.thisRepN'
p760
I5
sg20
S'N'
sg32
g33
sS'.thisTrialN'
p761
I4
sS'.thisN'
p762
I79
sS'.thisIndex'
p763
I4
sg15
(lp764
S'd'
asg30
g31
sg17
S'N'
sg14
I2
sg19
(lp765
S'd'
asg95
I4
sa(dp766
g16
(lp767
S'k'
asg18
S'N'
sS'.thisRepN'
p768
I5
sg20
S'N'
sg32
g33
sS'.thisTrialN'
p769
I5
sS'.thisN'
p770
I80
sS'.thisIndex'
p771
I6
sg15
(lp772
S'k'
asg30
g31
sg17
S'Y'
sg14
I2
sg19
(lp773
S'space'
p774
asg95
I6
sa(dp775
g16
(lp776
S'd'
asg18
S'N'
sS'.thisRepN'
p777
I5
sg20
S'N'
sg32
g33
sS'.thisTrialN'
p778
I6
sS'.thisN'
p779
I81
sS'.thisIndex'
p780
I6
sg15
(lp781
S'd'
asg30
g31
sg17
S'Y'
sg14
I2
sg19
(lp782
S'space'
p783
asg95
I6
sa(dp784
g16
(lp785
S'k'
asg18
S'N'
sS'.thisRepN'
p786
I5
sg20
S'N'
sg32
g33
sS'.thisTrialN'
p787
I7
sS'.thisN'
p788
I82
sS'.thisIndex'
p789
I12
sg15
(lp790
S'k'
asg30
g31
sg17
S'Y'
sg14
I2
sg19
(lp791
S'space'
p792
asg95
I12
sa(dp793
g16
(lp794
S'd'
asg18
S'Y'
sS'.thisRepN'
p795
I5
sg20
S'Y'
sg32
g33
sS'.thisTrialN'
p796
I8
sS'.thisN'
p797
I83
sS'.thisIndex'
p798
I0
sg15
(lp799
S'k'
asg30
g31
sg17
S'N'
sg14
I2
sg19
(lp800
S'space'
p801
asg95
I0
sa(dp802
g16
(lp803
S'd'
asg18
S'N'
sS'.thisRepN'
p804
I5
sg20
S'Y'
sg32
g33
sS'.thisTrialN'
p805
I9
sS'.thisN'
p806
I84
sS'.thisIndex'
p807
I0
sg15
(lp808
S'd'
asg30
g31
sg17
S'Y'
sg14
I2
sg19
Nsg95
I0
sa(dp809
g16
(lp810
S'k'
asg18
S'N'
sS'.thisRepN'
p811
I5
sg20
S'N'
sg32
g33
sS'.thisTrialN'
p812
I10
sS'.thisN'
p813
I85
sS'.thisIndex'
p814
I8
sg15
(lp815
S'k'
asg30
g31
sg17
S'Y'
sg14
I2
sg19
(lp816
S'space'
p817
asg95
I8
sa(dp818
g16
(lp819
S'k'
asg18
S'N'
sS'.thisRepN'
p820
I5
sg20
S'N'
sg32
g33
sS'.thisTrialN'
p821
I11
sS'.thisN'
p822
I86
sS'.thisIndex'
p823
I10
sg15
(lp824
S'd'
asg30
g31
sg17
S'N'
sg14
I2
sg19
(lp825
S'space'
p826
asg95
I10
sa(dp827
g16
(lp828
S'k'
asg18
S'Y'
sS'.thisRepN'
p829
I5
sg20
S'N'
sg32
g33
sS'.thisTrialN'
p830
I12
sS'.thisN'
p831
I87
sS'.thisIndex'
p832
I2
sg15
(lp833
S'd'
asg30
g31
sg17
S'N'
sg14
I2
sg19
(lp834
S'k'
asg95
I2
sa(dp835
g16
(lp836
S'k'
asg18
S'N'
sS'.thisRepN'
p837
I5
sg20
S'N'
sg32
g33
sS'.thisTrialN'
p838
I13
sS'.thisN'
p839
I88
sS'.thisIndex'
p840
I0
sg15
(lp841
S'k'
asg30
g31
sg17
S'Y'
sg14
I2
sg19
(lp842
S'k'
asg95
I0
sa(dp843
g16
(lp844
S'd'
asg18
S'Y'
sS'.thisRepN'
p845
I5
sg20
S'Y'
sg32
g33
sS'.thisTrialN'
p846
I14
sS'.thisN'
p847
I89
sS'.thisIndex'
p848
I11
sg15
(lp849
S'd'
asg30
g31
sg17
S'Y'
sg14
I2
sg19
(lp850
S'space'
p851
asg95
I11
sa(dp852
g16
(lp853
S'k'
asg18
S'Y'
sS'.thisRepN'
p854
I6
sg20
S'N'
sg32
g33
sS'.thisTrialN'
p855
I0
sS'.thisN'
p856
I90
sS'.thisIndex'
p857
I1
sg15
(lp858
S'd'
asg30
g31
sg17
S'N'
sg14
I2
sg19
(lp859
S'k'
asg95
I1
sa(dp860
g16
(lp861
S'k'
asg18
S'N'
sS'.thisRepN'
p862
I6
sg20
S'N'
sg32
g33
sS'.thisTrialN'
p863
I1
sS'.thisN'
p864
I91
sS'.thisIndex'
p865
I4
sg15
(lp866
S'k'
asg30
g31
sg17
S'Y'
sg14
I2
sg19
(lp867
S'space'
p868
asg95
I4
sa(dp869
g16
(lp870
S'k'
asg18
S'N'
sS'.thisRepN'
p871
I6
sg20
S'Y'
sg32
g33
sS'.thisTrialN'
p872
I2
sS'.thisN'
p873
I92
sS'.thisIndex'
p874
I13
sg15
(lp875
S'd'
asg30
g31
sg17
S'N'
sg14
I2
sg19
Nsg95
I13
sa(dp876
g16
(lp877
S'k'
asg18
S'N'
sS'.thisRepN'
p878
I6
sg20
S'N'
sg32
g33
sS'.thisTrialN'
p879
I3
sS'.thisN'
p880
I93
sS'.thisIndex'
p881
I1
sg15
(lp882
S'k'
asg30
g31
sg17
S'Y'
sg14
I2
sg19
(lp883
S'space'
p884
asg95
I1
sa(dp885
g16
(lp886
S'k'
asg18
S'N'
sS'.thisRepN'
p887
I6
sg20
S'N'
sg32
g33
sS'.thisTrialN'
p888
I4
sS'.thisN'
p889
I94
sS'.thisIndex'
p890
I2
sg15
(lp891
S'k'
asg30
g31
sg17
S'Y'
sg14
I2
sg19
(lp892
S'space'
p893
asg95
I2
sa(dp894
g16
(lp895
S'k'
asg18
S'Y'
sS'.thisRepN'
p896
I6
sg20
S'N'
sg32
g33
sS'.thisTrialN'
p897
I5
sS'.thisN'
p898
I95
sS'.thisIndex'
p899
I3
sg15
(lp900
S'k'
asg30
g31
sg17
S'Y'
sg14
I2
sg19
(lp901
S'd'
asg95
I3
sa(dp902
g16
(lp903
S'd'
asg18
S'Y'
sS'.thisRepN'
p904
I6
sg20
S'Y'
sg32
g33
sS'.thisTrialN'
p905
I6
sS'.thisN'
p906
I96
sS'.thisIndex'
p907
I2
sg15
(lp908
S'k'
asg30
g31
sg17
S'N'
sg14
I2
sg19
(lp909
S'space'
p910
asg95
I2
sa(dp911
g16
(lp912
S'd'
asg18
S'N'
sS'.thisRepN'
p913
I6
sg20
S'N'
sg32
g33
sS'.thisTrialN'
p914
I7
sS'.thisN'
p915
I97
sS'.thisIndex'
p916
I14
sg15
(lp917
S'd'
asg30
g31
sg17
S'Y'
sg14
I2
sg19
(lp918
S'space'
p919
asg95
I14
sa(dp920
g16
(lp921
S'k'
asg18
S'Y'
sS'.thisRepN'
p922
I6
sg20
S'N'
sg32
g33
sS'.thisTrialN'
p923
I8
sS'.thisN'
p924
I98
sS'.thisIndex'
p925
I11
sg15
(lp926
S'k'
asg30
g31
sg17
S'Y'
sg14
I2
sg19
Nsg95
I11
sa(dp927
g16
(lp928
S'd'
asg18
S'Y'
sg22
I23
sS'.thisN'
p929
I99
sg20
S'N'
sg32
g33
sS'.thisTrialN'
p930
I9
sS'.thisRepN'
p931
I6
sg21
I24
sS'.thisIndex'
p932
I3
sg23
I23
sg15
(lp933
S'k'
asg30
g31
sg17
S'N'
sg14
I2
sg19
(lp934
S'd'
asg95
I3
sa(dp935
g16
(lp936
S'd'
asg95
I9
sS'.thisRepN'
p937
I6
sg30
g31
sg32
g33
sS'.thisTrialN'
p938
I10
sS'.thisN'
p939
I100
sS'.thisIndex'
p940
I9
sg15
(lp941
S'd'
asg17
S'Y'
sg14
I3
sa(dp942
g16
(lp943
S'd'
asg95
I8
sS'.thisRepN'
p944
I6
sg30
g31
sg32
g33
sS'.thisTrialN'
p945
I11
sS'.thisN'
p946
I101
sS'.thisIndex'
p947
I8
sg15
(lp948
S'd'
asg17
S'Y'
sg14
I3
sa(dp949
g16
(lp950
S'k'
asg18
S'Y'
sS'.thisRepN'
p951
I6
sg20
S'N'
sg32
g33
sS'.thisTrialN'
p952
I12
sS'.thisN'
p953
I102
sS'.thisIndex'
p954
I5
sg15
(lp955
S'd'
asg30
g31
sg17
S'N'
sg14
I3
sg19
(lp956
S'k'
asg95
I5
sa(dp957
g16
(lp958
S'k'
asg18
S'N'
sS'.thisRepN'
p959
I6
sg20
S'N'
sg32
g33
sS'.thisTrialN'
p960
I13
sS'.thisN'
p961
I103
sS'.thisIndex'
p962
I9
sg15
(lp963
S'k'
asg30
g31
sg17
S'Y'
sg14
I3
sg19
(lp964
S'space'
p965
asg95
I9
sa(dp966
g16
(lp967
S'k'
asg18
S'Y'
sS'.thisRepN'
p968
I6
sg20
S'Y'
sg32
g33
sS'.thisTrialN'
p969
I14
sS'.thisN'
p970
I104
sS'.thisIndex'
p971
I11
sg15
(lp972
S'k'
asg30
g31
sg17
S'Y'
sg14
I3
sg19
(lp973
S'space'
p974
asg95
I11
sa(dp975
g16
(lp976
S'd'
asg18
S'Y'
sS'.thisRepN'
p977
I7
sg20
S'Y'
sg32
g33
sS'.thisTrialN'
p978
I0
sS'.thisN'
p979
I105
sS'.thisIndex'
p980
I4
sg15
(lp981
S'd'
asg30
g31
sg17
S'Y'
sg14
I3
sg19
(lp982
S'space'
p983
asg95
I4
sa(dp984
g16
(lp985
S'd'
asg18
S'N'
sS'.thisRepN'
p986
I7
sg20
S'Y'
sg32
g33
sS'.thisTrialN'
p987
I1
sS'.thisN'
p988
I106
sS'.thisIndex'
p989
I12
sg15
(lp990
S'k'
asg30
g31
sg17
S'N'
sg14
I3
sg19
Nsg95
I12
sa(dp991
g16
(lp992
S'd'
asg18
S'N'
sS'.thisRepN'
p993
I7
sg20
S'N'
sg32
g33
sS'.thisTrialN'
p994
I2
sS'.thisN'
p995
I107
sS'.thisIndex'
p996
I9
sg15
(lp997
S'd'
asg30
g31
sg17
S'Y'
sg14
I3
sg19
(lp998
S'd'
asg95
I9
sa(dp999
g16
(lp1000
S'd'
asg18
S'N'
sS'.thisRepN'
p1001
I7
sg20
S'N'
sg32
g33
sS'.thisTrialN'
p1002
I3
sS'.thisN'
p1003
I108
sS'.thisIndex'
p1004
I3
sg15
(lp1005
S'd'
asg30
g31
sg17
S'Y'
sg14
I3
sg19
(lp1006
S'space'
p1007
asg95
I3
sa(dp1008
g16
(lp1009
S'k'
asg18
S'Y'
sS'.thisRepN'
p1010
I7
sg20
S'Y'
sg32
g33
sS'.thisTrialN'
p1011
I4
sS'.thisN'
p1012
I109
sS'.thisIndex'
p1013
I8
sg15
(lp1014
S'd'
asg30
g31
sg17
S'N'
sg14
I3
sg19
(lp1015
S'space'
p1016
asg95
I8
sa(dp1017
g16
(lp1018
S'd'
asg18
S'Y'
sS'.thisRepN'
p1019
I7
sg20
S'N'
sg32
g33
sS'.thisTrialN'
p1020
I5
sS'.thisN'
p1021
I110
sS'.thisIndex'
p1022
I11
sg15
(lp1023
S'd'
asg30
g31
sg17
S'Y'
sg14
I3
sg19
(lp1024
S'k'
asg95
I11
sa(dp1025
g16
(lp1026
S'k'
asg18
S'Y'
sS'.thisRepN'
p1027
I7
sg20
S'N'
sg32
g33
sS'.thisTrialN'
p1028
I6
sS'.thisN'
p1029
I111
sS'.thisIndex'
p1030
I12
sg15
(lp1031
S'd'
asg30
g31
sg17
S'N'
sg14
I3
sg19
(lp1032
S'k'
asg95
I12
sa(dp1033
g16
(lp1034
S'd'
asg18
S'N'
sS'.thisRepN'
p1035
I7
sg20
S'N'
sg32
g33
sS'.thisTrialN'
p1036
I7
sS'.thisN'
p1037
I112
sS'.thisIndex'
p1038
I2
sg15
(lp1039
S'k'
asg30
g31
sg17
S'N'
sg14
I3
sg19
(lp1040
S'k'
asg95
I2
sa(dp1041
g16
(lp1042
S'd'
asg18
S'Y'
sS'.thisRepN'
p1043
I7
sg20
S'N'
sg32
g33
sS'.thisTrialN'
p1044
I8
sS'.thisN'
p1045
I113
sS'.thisIndex'
p1046
I5
sg15
(lp1047
S'd'
asg30
g31
sg17
S'Y'
sg14
I3
sg19
(lp1048
S'd'
asg95
I5
sa(dp1049
g16
(lp1050
S'd'
asg18
S'Y'
sS'.thisRepN'
p1051
I7
sg20
S'Y'
sg32
g33
sS'.thisTrialN'
p1052
I9
sS'.thisN'
p1053
I114
sS'.thisIndex'
p1054
I5
sg15
(lp1055
S'k'
asg30
g31
sg17
S'N'
sg14
I3
sg19
(lp1056
S'space'
p1057
asg95
I5
sa(dp1058
g16
(lp1059
S'k'
asg18
S'Y'
sS'.thisRepN'
p1060
I7
sg20
S'N'
sg32
g33
sS'.thisTrialN'
p1061
I10
sS'.thisN'
p1062
I115
sS'.thisIndex'
p1063
I6
sg15
(lp1064
S'k'
asg30
g31
sg17
S'Y'
sg14
I3
sg19
(lp1065
S'd'
asg95
I6
sa(dp1066
g16
(lp1067
S'd'
asg18
S'N'
sS'.thisRepN'
p1068
I7
sg20
S'N'
sg32
g33
sS'.thisTrialN'
p1069
I11
sS'.thisN'
p1070
I116
sS'.thisIndex'
p1071
I7
sg15
(lp1072
S'd'
asg30
g31
sg17
S'Y'
sg14
I3
sg19
(lp1073
S'space'
p1074
asg95
I7
sa(dp1075
g16
(lp1076
S'k'
asg18
S'N'
sS'.thisRepN'
p1077
I7
sg20
S'N'
sg32
g33
sS'.thisTrialN'
p1078
I12
sS'.thisN'
p1079
I117
sS'.thisIndex'
p1080
I14
sg15
(lp1081
S'k'
asg30
g31
sg17
S'Y'
sg14
I3
sg19
(lp1082
S'space'
p1083
asg95
I14
sa(dp1084
g16
(lp1085
S'k'
asg18
S'N'
sS'.thisRepN'
p1086
I7
sg20
S'N'
sg32
g33
sS'.thisTrialN'
p1087
I13
sS'.thisN'
p1088
I118
sS'.thisIndex'
p1089
I2
sg15
(lp1090
S'd'
asg30
g31
sg17
S'N'
sg14
I3
sg19
(lp1091
S'space'
p1092
asg95
I2
sa(dp1093
g16
(lp1094
S'd'
asg18
S'N'
sS'.thisRepN'
p1095
I7
sg20
S'N'
sg32
g33
sS'.thisTrialN'
p1096
I14
sS'.thisN'
p1097
I119
sS'.thisIndex'
p1098
I2
sg15
(lp1099
S'k'
asg30
g31
sg17
S'N'
sg14
I3
sg19
(lp1100
S'space'
p1101
asg95
I2
sa(dp1102
g16
(lp1103
S'k'
asg18
S'Y'
sS'.thisRepN'
p1104
I8
sg20
S'N'
sg32
g33
sS'.thisTrialN'
p1105
I0
sS'.thisN'
p1106
I120
sS'.thisIndex'
p1107
I12
sg15
(lp1108
S'k'
asg30
g31
sg17
S'Y'
sg14
I3
sg19
(lp1109
S'd'
asg95
I12
sa(dp1110
g16
(lp1111
S'k'
asg18
S'N'
sS'.thisRepN'
p1112
I8
sg20
S'N'
sg32
g33
sS'.thisTrialN'
p1113
I1
sS'.thisN'
p1114
I121
sS'.thisIndex'
p1115
I1
sg15
(lp1116
S'd'
asg30
g31
sg17
S'N'
sg14
I3
sg19
(lp1117
S'd'
asg95
I1
sa(dp1118
g16
(lp1119
S'd'
asg18
S'N'
sS'.thisRepN'
p1120
I8
sg20
S'N'
sg32
g33
sS'.thisTrialN'
p1121
I2
sS'.thisN'
p1122
I122
sS'.thisIndex'
p1123
I10
sg15
(lp1124
S'd'
asg30
g31
sg17
S'Y'
sg14
I3
sg19
(lp1125
S'k'
asg95
I10
sa(dp1126
g16
(lp1127
S'd'
asg18
S'N'
sS'.thisRepN'
p1128
I8
sg20
S'N'
sg32
g33
sS'.thisTrialN'
p1129
I3
sS'.thisN'
p1130
I123
sS'.thisIndex'
p1131
I1
sg15
(lp1132
S'k'
asg30
g31
sg17
S'N'
sg14
I3
sg19
(lp1133
S'space'
p1134
asg95
I1
sa(dp1135
g16
(lp1136
S'k'
asg18
S'N'
sS'.thisRepN'
p1137
I8
sg20
S'N'
sg32
g33
sS'.thisTrialN'
p1138
I4
sS'.thisN'
p1139
I124
sS'.thisIndex'
p1140
I7
sg15
(lp1141
S'd'
asg30
g31
sg17
S'N'
sg14
I3
sg19
(lp1142
S'd'
asg95
I7
sa(dp1143
g16
(lp1144
S'k'
asg18
S'N'
sS'.thisRepN'
p1145
I8
sg20
S'N'
sg32
g33
sS'.thisTrialN'
p1146
I5
sS'.thisN'
p1147
I125
sS'.thisIndex'
p1148
I12
sg15
(lp1149
S'k'
asg30
g31
sg17
S'Y'
sg14
I3
sg19
(lp1150
S'space'
p1151
asg95
I12
sa(dp1152
g16
(lp1153
S'k'
asg18
S'N'
sS'.thisRepN'
p1154
I8
sg20
S'N'
sg32
g33
sS'.thisTrialN'
p1155
I6
sS'.thisN'
p1156
I126
sS'.thisIndex'
p1157
I6
sg15
(lp1158
S'k'
asg30
g31
sg17
S'Y'
sg14
I3
sg19
(lp1159
S'd'
asg95
I6
sa(dp1160
g16
(lp1161
S'd'
asg18
S'N'
sS'.thisRepN'
p1162
I8
sg20
S'N'
sg32
g33
sS'.thisTrialN'
p1163
I7
sS'.thisN'
p1164
I127
sS'.thisIndex'
p1165
I4
sg15
(lp1166
S'k'
asg30
g31
sg17
S'N'
sg14
I3
sg19
(lp1167
S'space'
p1168
asg95
I4
sa(dp1169
g16
(lp1170
S'd'
asg18
S'Y'
sS'.thisRepN'
p1171
I8
sg20
S'N'
sg32
g33
sS'.thisTrialN'
p1172
I8
sS'.thisN'
p1173
I128
sS'.thisIndex'
p1174
I10
sg15
(lp1175
S'k'
asg30
g31
sg17
S'N'
sg14
I3
sg19
(lp1176
S'd'
asg95
I10
sa(dp1177
g16
(lp1178
S'k'
asg18
S'N'
sS'.thisRepN'
p1179
I8
sg20
S'N'
sg32
g33
sS'.thisTrialN'
p1180
I9
sS'.thisN'
p1181
I129
sS'.thisIndex'
p1182
I7
sg15
(lp1183
S'd'
asg30
g31
sg17
S'N'
sg14
I3
sg19
(lp1184
S'space'
p1185
asg95
I7
sa(dp1186
g16
(lp1187
S'k'
asg18
S'N'
sS'.thisRepN'
p1188
I8
sg20
S'N'
sg32
g33
sS'.thisTrialN'
p1189
I10
sS'.thisN'
p1190
I130
sS'.thisIndex'
p1191
I9
sg15
(lp1192
S'k'
asg30
g31
sg17
S'Y'
sg14
I3
sg19
(lp1193
S'space'
p1194
asg95
I9
sa(dp1195
g16
(lp1196
S'k'
asg18
S'Y'
sS'.thisRepN'
p1197
I8
sg20
S'N'
sg32
g33
sS'.thisTrialN'
p1198
I11
sS'.thisN'
p1199
I131
sS'.thisIndex'
p1200
I5
sg15
(lp1201
S'k'
asg30
g31
sg17
S'Y'
sg14
I3
sg19
(lp1202
S'k'
asg95
I5
sa(dp1203
g16
(lp1204
S'd'
asg18
S'N'
sS'.thisRepN'
p1205
I8
sg20
S'N'
sg32
g33
sS'.thisTrialN'
p1206
I12
sS'.thisN'
p1207
I132
sS'.thisIndex'
p1208
I7
sg15
(lp1209
S'd'
asg30
g31
sg17
S'Y'
sg14
I3
sg19
(lp1210
S'space'
p1211
asg95
I7
sa(dp1212
g16
(lp1213
S'd'
asg18
S'N'
sS'.thisRepN'
p1214
I8
sg20
S'N'
sg32
g33
sS'.thisTrialN'
p1215
I13
sS'.thisN'
p1216
I133
sS'.thisIndex'
p1217
I6
sg15
(lp1218
S'd'
asg30
g31
sg17
S'Y'
sg14
I3
sg19
(lp1219
S'k'
asg95
I6
sa(dp1220
g16
(lp1221
S'k'
asg18
S'Y'
sS'.thisRepN'
p1222
I8
sg20
S'Y'
sg32
g33
sS'.thisTrialN'
p1223
I14
sS'.thisN'
p1224
I134
sS'.thisIndex'
p1225
I11
sg15
(lp1226
S'k'
asg30
g31
sg17
S'Y'
sg14
I3
sg19
(lp1227
S'space'
p1228
asg95
I11
sa(dp1229
g16
(lp1230
S'd'
asg18
S'Y'
sS'.thisRepN'
p1231
I9
sg20
S'N'
sg32
g33
sS'.thisTrialN'
p1232
I0
sS'.thisN'
p1233
I135
sS'.thisIndex'
p1234
I5
sg15
(lp1235
S'd'
asg30
g31
sg17
S'Y'
sg14
I3
sg19
Nsg95
I5
sa(dp1236
g16
(lp1237
S'd'
asg18
S'N'
sS'.thisRepN'
p1238
I9
sg20
S'N'
sg32
g33
sS'.thisTrialN'
p1239
I1
sS'.thisN'
p1240
I136
sS'.thisIndex'
p1241
I11
sg15
(lp1242
S'k'
asg30
g31
sg17
S'N'
sg14
I3
sg19
(lp1243
S'space'
p1244
asg95
I11
sa(dp1245
g16
(lp1246
S'k'
asg18
S'N'
sS'.thisRepN'
p1247
I9
sg20
S'N'
sg32
g33
sS'.thisTrialN'
p1248
I2
sS'.thisN'
p1249
I137
sS'.thisIndex'
p1250
I10
sg15
(lp1251
S'd'
asg30
g31
sg17
S'N'
sg14
I3
sg19
(lp1252
S'space'
p1253
asg95
I10
sa(dp1254
g16
(lp1255
S'd'
asg18
S'N'
sS'.thisRepN'
p1256
I9
sg20
S'N'
sg32
g33
sS'.thisTrialN'
p1257
I3
sS'.thisN'
p1258
I138
sS'.thisIndex'
p1259
I8
sg15
(lp1260
S'k'
asg30
g31
sg17
S'N'
sg14
I3
sg19
(lp1261
S'k'
asg95
I8
sa(dp1262
g16
(lp1263
S'd'
asg18
S'Y'
sS'.thisRepN'
p1264
I9
sg20
S'N'
sg32
g33
sS'.thisTrialN'
p1265
I4
sS'.thisN'
p1266
I139
sS'.thisIndex'
p1267
I3
sg15
(lp1268
S'd'
asg30
g31
sg17
S'Y'
sg14
I3
sg19
(lp1269
S'd'
asg95
I3
sa(dp1270
g16
(lp1271
S'd'
asg18
S'Y'
sS'.thisRepN'
p1272
I9
sg20
S'Y'
sg32
g33
sS'.thisTrialN'
p1273
I5
sS'.thisN'
p1274
I140
sS'.thisIndex'
p1275
I7
sg15
(lp1276
S'k'
asg30
g31
sg17
S'N'
sg14
I3
sg19
(lp1277
S'space'
p1278
asg95
I7
sa(dp1279
g16
(lp1280
S'k'
asg18
S'N'
sS'.thisRepN'
p1281
I9
sg20
S'N'
sg32
g33
sS'.thisTrialN'
p1282
I6
sS'.thisN'
p1283
I141
sS'.thisIndex'
p1284
I13
sg15
(lp1285
S'd'
asg30
g31
sg17
S'N'
sg14
I3
sg19
(lp1286
S'd'
asg95
I13
sa(dp1287
g16
(lp1288
S'k'
asg18
S'N'
sS'.thisRepN'
p1289
I9
sg20
S'N'
sg32
g33
sS'.thisTrialN'
p1290
I7
sS'.thisN'
p1291
I142
sS'.thisIndex'
p1292
I8
sg15
(lp1293
S'd'
asg30
g31
sg17
S'N'
sg14
I3
sg19
(lp1294
S'k'
asg95
I8
sa(dp1295
g16
(lp1296
S'd'
asg18
S'Y'
sS'.thisRepN'
p1297
I9
sg20
S'Y'
sg32
g33
sS'.thisTrialN'
p1298
I8
sS'.thisN'
p1299
I143
sS'.thisIndex'
p1300
I12
sg15
(lp1301
S'd'
asg30
g31
sg17
S'Y'
sg14
I3
sg19
(lp1302
S'space'
p1303
asg95
I12
sa(dp1304
g16
(lp1305
S'd'
asg18
S'Y'
sS'.thisRepN'
p1306
I9
sg20
S'N'
sg32
g33
sS'.thisTrialN'
p1307
I9
sS'.thisN'
p1308
I144
sS'.thisIndex'
p1309
I9
sg15
(lp1310
S'd'
asg30
g31
sg17
S'Y'
sg14
I3
sg19
Nsg95
I9
sa(dp1311
g16
(lp1312
S'k'
asg18
S'Y'
sS'.thisRepN'
p1313
I9
sg20
S'N'
sg32
g33
sS'.thisTrialN'
p1314
I10
sS'.thisN'
p1315
I145
sS'.thisIndex'
p1316
I3
sg15
(lp1317
S'k'
asg30
g31
sg17
S'Y'
sg14
I3
sg19
(lp1318
S'k'
asg95
I3
sa(dp1319
g16
(lp1320
S'k'
asg18
S'N'
sS'.thisRepN'
p1321
I9
sg20
S'N'
sg32
g33
sS'.thisTrialN'
p1322
I11
sS'.thisN'
p1323
I146
sS'.thisIndex'
p1324
I1
sg15
(lp1325
S'd'
asg30
g31
sg17
S'N'
sg14
I3
sg19
(lp1326
S'space'
p1327
asg95
I1
sa(dp1328
g16
(lp1329
S'k'
asg18
S'N'
sS'.thisRepN'
p1330
I9
sg20
S'N'
sg32
g33
sS'.thisTrialN'
p1331
I12
sS'.thisN'
p1332
I147
sS'.thisIndex'
p1333
I8
sg15
(lp1334
S'k'
asg30
g31
sg17
S'Y'
sg14
I3
sg19
(lp1335
S'space'
p1336
asg95
I8
sa(dp1337
g16
(lp1338
S'k'
asg18
S'N'
sS'.thisRepN'
p1339
I9
sg20
S'N'
sg32
g33
sS'.thisTrialN'
p1340
I13
sS'.thisN'
p1341
I148
sS'.thisIndex'
p1342
I0
sg15
(lp1343
S'k'
asg30
g31
sg17
S'Y'
sg14
I3
sg19
(lp1344
S'k'
asg95
I0
sa(dp1345
g16
(lp1346
S'd'
asg18
S'N'
sg22
I8
sS'.thisN'
p1347
I149
sg20
S'N'
sg32
g33
sS'.thisTrialN'
p1348
I14
sS'.thisRepN'
p1349
I9
sg21
I29
sS'.thisIndex'
p1350
I11
sg23
I19
sg15
(lp1351
S'd'
asg30
g31
sg17
S'Y'
sg14
I3
sg19
(lp1352
S'd'
asg95
I11
sa(dp1353
g16
(lp1354
S'k'
asg95
I0
sS'.thisRepN'
p1355
I10
sg30
g31
sg32
g33
sS'.thisTrialN'
p1356
I0
sS'.thisN'
p1357
I150
sS'.thisIndex'
p1358
I0
sg15
(lp1359
S'd'
asg17
S'N'
sg14
I4
sa(dp1360
g16
(lp1361
S'k'
asg95
I12
sS'.thisRepN'
p1362
I10
sg30
g31
sg32
g33
sS'.thisTrialN'
p1363
I1
sS'.thisN'
p1364
I151
sS'.thisIndex'
p1365
I12
sg15
(lp1366
S'd'
asg17
S'N'
sg14
I4
sa(dp1367
g16
(lp1368
S'd'
asg18
S'Y'
sS'.thisRepN'
p1369
I10
sg20
S'Y'
sg32
g33
sS'.thisTrialN'
p1370
I2
sS'.thisN'
p1371
I152
sS'.thisIndex'
p1372
I11
sg15
(lp1373
S'k'
asg30
g31
sg17
S'N'
sg14
I4
sg19
(lp1374
S'space'
p1375
asg95
I11
sa(dp1376
g16
(lp1377
S'd'
asg18
S'N'
sS'.thisRepN'
p1378
I10
sg20
S'N'
sg32
g33
sS'.thisTrialN'
p1379
I3
sS'.thisN'
p1380
I153
sS'.thisIndex'
p1381
I12
sg15
(lp1382
S'd'
asg30
g31
sg17
S'Y'
sg14
I4
sg19
(lp1383
S'space'
p1384
asg95
I12
sa(dp1385
g16
(lp1386
S'd'
asg18
S'Y'
sS'.thisRepN'
p1387
I10
sg20
S'N'
sg32
g33
sS'.thisTrialN'
p1388
I4
sS'.thisN'
p1389
I154
sS'.thisIndex'
p1390
I2
sg15
(lp1391
S'd'
asg30
g31
sg17
S'Y'
sg14
I4
sg19
(lp1392
S'k'
asg95
I2
sa(dp1393
g16
(lp1394
S'd'
asg18
S'Y'
sS'.thisRepN'
p1395
I10
sg20
S'Y'
sg32
g33
sS'.thisTrialN'
p1396
I5
sS'.thisN'
p1397
I155
sS'.thisIndex'
p1398
I0
sg15
(lp1399
S'k'
asg30
g31
sg17
S'N'
sg14
I4
sg19
(lp1400
S'space'
p1401
asg95
I0
sa(dp1402
g16
(lp1403
S'd'
asg18
S'Y'
sS'.thisRepN'
p1404
I10
sg20
S'Y'
sg32
g33
sS'.thisTrialN'
p1405
I6
sS'.thisN'
p1406
I156
sS'.thisIndex'
p1407
I1
sg15
(lp1408
S'd'
asg30
g31
sg17
S'Y'
sg14
I4
sg19
(lp1409
S'space'
p1410
asg95
I1
sa(dp1411
g16
(lp1412
S'd'
asg18
S'N'
sS'.thisRepN'
p1413
I10
sg20
S'N'
sg32
g33
sS'.thisTrialN'
p1414
I7
sS'.thisN'
p1415
I157
sS'.thisIndex'
p1416
I10
sg15
(lp1417
S'k'
asg30
g31
sg17
S'N'
sg14
I4
sg19
(lp1418
S'space'
p1419
asg95
I10
sa(dp1420
g16
(lp1421
S'd'
asg18
S'N'
sS'.thisRepN'
p1422
I10
sg20
S'N'
sg32
g33
sS'.thisTrialN'
p1423
I8
sS'.thisN'
p1424
I158
sS'.thisIndex'
p1425
I10
sg15
(lp1426
S'd'
asg30
g31
sg17
S'Y'
sg14
I4
sg19
(lp1427
S'd'
asg95
I10
sa(dp1428
g16
(lp1429
S'd'
asg18
S'N'
sS'.thisRepN'
p1430
I10
sg20
S'N'
sg32
g33
sS'.thisTrialN'
p1431
I9
sS'.thisN'
p1432
I159
sS'.thisIndex'
p1433
I4
sg15
(lp1434
S'd'
asg30
g31
sg17
S'Y'
sg14
I4
sg19
(lp1435
S'space'
p1436
asg95
I4
sa(dp1437
g16
(lp1438
S'd'
asg18
S'Y'
sS'.thisRepN'
p1439
I10
sg20
S'N'
sg32
g33
sS'.thisTrialN'
p1440
I10
sS'.thisN'
p1441
I160
sS'.thisIndex'
p1442
I10
sg15
(lp1443
S'd'
asg30
g31
sg17
S'Y'
sg14
I4
sg19
Nsg95
I10
sa(dp1444
g16
(lp1445
S'k'
asg18
S'N'
sS'.thisRepN'
p1446
I10
sg20
S'N'
sg32
g33
sS'.thisTrialN'
p1447
I11
sS'.thisN'
p1448
I161
sS'.thisIndex'
p1449
I1
sg15
(lp1450
S'd'
asg30
g31
sg17
S'N'
sg14
I4
sg19
(lp1451
S'space'
p1452
asg95
I1
sa(dp1453
g16
(lp1454
S'k'
asg18
S'Y'
sS'.thisRepN'
p1455
I10
sg20
S'Y'
sg32
g33
sS'.thisTrialN'
p1456
I12
sS'.thisN'
p1457
I162
sS'.thisIndex'
p1458
I4
sg15
(lp1459
S'k'
asg30
g31
sg17
S'Y'
sg14
I4
sg19
(lp1460
S'space'
p1461
asg95
I4
sa(dp1462
g16
(lp1463
S'k'
asg18
S'Y'
sS'.thisRepN'
p1464
I10
sg20
S'N'
sg32
g33
sS'.thisTrialN'
p1465
I13
sS'.thisN'
p1466
I163
sS'.thisIndex'
p1467
I3
sg15
(lp1468
S'd'
asg30
g31
sg17
S'N'
sg14
I4
sg19
(lp1469
S'd'
asg95
I3
sa(dp1470
g16
(lp1471
S'k'
asg18
S'N'
sS'.thisRepN'
p1472
I10
sg20
S'N'
sg32
g33
sS'.thisTrialN'
p1473
I14
sS'.thisN'
p1474
I164
sS'.thisIndex'
p1475
I5
sg15
(lp1476
S'k'
asg30
g31
sg17
S'Y'
sg14
I4
sg19
(lp1477
S'space'
p1478
asg95
I5
sa(dp1479
g16
(lp1480
S'k'
asg18
S'Y'
sS'.thisRepN'
p1481
I11
sg20
S'N'
sg32
g33
sS'.thisTrialN'
p1482
I0
sS'.thisN'
p1483
I165
sS'.thisIndex'
p1484
I3
sg15
(lp1485
S'k'
asg30
g31
sg17
S'Y'
sg14
I4
sg19
(lp1486
S'd'
asg95
I3
sa(dp1487
g16
(lp1488
S'd'
asg18
S'Y'
sS'.thisRepN'
p1489
I11
sg20
S'Y'
sg32
g33
sS'.thisTrialN'
p1490
I1
sS'.thisN'
p1491
I166
sS'.thisIndex'
p1492
I14
sg15
(lp1493
S'd'
asg30
g31
sg17
S'Y'
sg14
I4
sg19
(lp1494
S'space'
p1495
asg95
I14
sa(dp1496
g16
(lp1497
S'k'
asg18
S'Y'
sS'.thisRepN'
p1498
I11
sg20
S'N'
sg32
g33
sS'.thisTrialN'
p1499
I2
sS'.thisN'
p1500
I167
sS'.thisIndex'
p1501
I5
sg15
(lp1502
S'k'
asg30
g31
sg17
S'Y'
sg14
I4
sg19
(lp1503
S'k'
asg95
I5
sa(dp1504
g16
(lp1505
S'k'
asg18
S'Y'
sS'.thisRepN'
p1506
I11
sg20
S'Y'
sg32
g33
sS'.thisTrialN'
p1507
I3
sS'.thisN'
p1508
I168
sS'.thisIndex'
p1509
I0
sg15
(lp1510
S'd'
asg30
g31
sg17
S'N'
sg14
I4
sg19
(lp1511
S'space'
p1512
asg95
I0
sa(dp1513
g16
(lp1514
S'k'
asg18
S'Y'
sS'.thisRepN'
p1515
I11
sg20
S'N'
sg32
g33
sS'.thisTrialN'
p1516
I4
sS'.thisN'
p1517
I169
sS'.thisIndex'
p1518
I1
sg15
(lp1519
S'k'
asg30
g31
sg17
S'Y'
sg14
I4
sg19
(lp1520
S'k'
asg95
I1
sa(dp1521
g16
(lp1522
S'k'
asg18
S'N'
sS'.thisRepN'
p1523
I11
sg20
S'N'
sg32
g33
sS'.thisTrialN'
p1524
I5
sS'.thisN'
p1525
I170
sS'.thisIndex'
p1526
I10
sg15
(lp1527
S'k'
asg30
g31
sg17
S'Y'
sg14
I4
sg19
(lp1528
S'd'
asg95
I10
sa(dp1529
g16
(lp1530
S'd'
asg18
S'N'
sS'.thisRepN'
p1531
I11
sg20
S'N'
sg32
g33
sS'.thisTrialN'
p1532
I6
sS'.thisN'
p1533
I171
sS'.thisIndex'
p1534
I1
sg15
(lp1535
S'd'
asg30
g31
sg17
S'Y'
sg14
I4
sg19
(lp1536
S'space'
p1537
asg95
I1
sa(dp1538
g16
(lp1539
S'd'
asg18
S'N'
sS'.thisRepN'
p1540
I11
sg20
S'N'
sg32
g33
sS'.thisTrialN'
p1541
I7
sS'.thisN'
p1542
I172
sS'.thisIndex'
p1543
I11
sg15
(lp1544
S'k'
asg30
g31
sg17
S'N'
sg14
I4
sg19
(lp1545
S'space'
p1546
asg95
I11
sa(dp1547
g16
(lp1548
S'k'
asg18
S'N'
sS'.thisRepN'
p1549
I11
sg20
S'N'
sg32
g33
sS'.thisTrialN'
p1550
I8
sS'.thisN'
p1551
I173
sS'.thisIndex'
p1552
I13
sg15
(lp1553
S'd'
asg30
g31
sg17
S'N'
sg14
I4
sg19
(lp1554
S'space'
p1555
asg95
I13
sa(dp1556
g16
(lp1557
S'k'
asg18
S'Y'
sS'.thisRepN'
p1558
I11
sg20
S'Y'
sg32
g33
sS'.thisTrialN'
p1559
I9
sS'.thisN'
p1560
I174
sS'.thisIndex'
p1561
I12
sg15
(lp1562
S'k'
asg30
g31
sg17
S'Y'
sg14
I4
sg19
(lp1563
S'space'
p1564
asg95
I12
sa(dp1565
g16
(lp1566
S'k'
asg18
S'Y'
sS'.thisRepN'
p1567
I11
sg20
S'Y'
sg32
g33
sS'.thisTrialN'
p1568
I10
sS'.thisN'
p1569
I175
sS'.thisIndex'
p1570
I3
sg15
(lp1571
S'd'
asg30
g31
sg17
S'N'
sg14
I4
sg19
(lp1572
S'space'
p1573
asg95
I3
sa(dp1574
g16
(lp1575
S'k'
asg18
S'N'
sS'.thisRepN'
p1576
I11
sg20
S'N'
sg32
g33
sS'.thisTrialN'
p1577
I11
sS'.thisN'
p1578
I176
sS'.thisIndex'
p1579
I11
sg15
(lp1580
S'k'
asg30
g31
sg17
S'Y'
sg14
I4
sg19
(lp1581
S'space'
p1582
asg95
I11
sa(dp1583
g16
(lp1584
S'd'
asg18
S'N'
sS'.thisRepN'
p1585
I11
sg20
S'N'
sg32
g33
sS'.thisTrialN'
p1586
I12
sS'.thisN'
p1587
I177
sS'.thisIndex'
p1588
I9
sg15
(lp1589
S'd'
asg30
g31
sg17
S'Y'
sg14
I4
sg19
(lp1590
S'space'
p1591
asg95
I9
sa(dp1592
g16
(lp1593
S'k'
asg18
S'Y'
sS'.thisRepN'
p1594
I11
sg20
S'Y'
sg32
g33
sS'.thisTrialN'
p1595
I13
sS'.thisN'
p1596
I178
sS'.thisIndex'
p1597
I9
sg15
(lp1598
S'k'
asg30
g31
sg17
S'Y'
sg14
I4
sg19
(lp1599
S'space'
p1600
asg95
I9
sa(dp1601
g16
(lp1602
S'd'
asg18
S'N'
sS'.thisRepN'
p1603
I11
sg20
S'N'
sg32
g33
sS'.thisTrialN'
p1604
I14
sS'.thisN'
p1605
I179
sS'.thisIndex'
p1606
I1
sg15
(lp1607
S'k'
asg30
g31
sg17
S'N'
sg14
I4
sg19
(lp1608
S'd'
asg95
I1
sa(dp1609
g16
(lp1610
S'd'
asg18
S'Y'
sS'.thisRepN'
p1611
I12
sg20
S'Y'
sg32
g33
sS'.thisTrialN'
p1612
I0
sS'.thisN'
p1613
I180
sS'.thisIndex'
p1614
I11
sg15
(lp1615
S'd'
asg30
g31
sg17
S'Y'
sg14
I4
sg19
(lp1616
S'space'
p1617
asg95
I11
sa(dp1618
g16
(lp1619
S'd'
asg18
S'Y'
sS'.thisRepN'
p1620
I12
sg20
S'Y'
sg32
g33
sS'.thisTrialN'
p1621
I1
sS'.thisN'
p1622
I181
sS'.thisIndex'
p1623
I5
sg15
(lp1624
S'k'
asg30
g31
sg17
S'N'
sg14
I4
sg19
(lp1625
S'space'
p1626
asg95
I5
sa(dp1627
g16
(lp1628
S'd'
asg18
S'N'
sS'.thisRepN'
p1629
I12
sg20
S'N'
sg32
g33
sS'.thisTrialN'
p1630
I2
sS'.thisN'
p1631
I182
sS'.thisIndex'
p1632
I6
sg15
(lp1633
S'd'
asg30
g31
sg17
S'Y'
sg14
I4
sg19
(lp1634
S'd'
asg95
I6
sa(dp1635
g16
(lp1636
S'd'
asg18
S'Y'
sS'.thisRepN'
p1637
I12
sg20
S'Y'
sg32
g33
sS'.thisTrialN'
p1638
I3
sS'.thisN'
p1639
I183
sS'.thisIndex'
p1640
I4
sg15
(lp1641
S'k'
asg30
g31
sg17
S'N'
sg14
I4
sg19
(lp1642
S'space'
p1643
asg95
I4
sa(dp1644
g16
(lp1645
S'd'
asg18
S'Y'
sS'.thisRepN'
p1646
I12
sg20
S'Y'
sg32
g33
sS'.thisTrialN'
p1647
I4
sS'.thisN'
p1648
I184
sS'.thisIndex'
p1649
I12
sg15
(lp1650
S'd'
asg30
g31
sg17
S'Y'
sg14
I4
sg19
(lp1651
S'space'
p1652
asg95
I12
sa(dp1653
g16
(lp1654
S'k'
asg18
S'N'
sS'.thisRepN'
p1655
I12
sg20
S'N'
sg32
g33
sS'.thisTrialN'
p1656
I5
sS'.thisN'
p1657
I185
sS'.thisIndex'
p1658
I7
sg15
(lp1659
S'k'
asg30
g31
sg17
S'Y'
sg14
I4
sg19
(lp1660
S'space'
p1661
asg95
I7
sa(dp1662
g16
(lp1663
S'd'
asg18
S'Y'
sS'.thisRepN'
p1664
I12
sg20
S'Y'
sg32
g33
sS'.thisTrialN'
p1665
I6
sS'.thisN'
p1666
I186
sS'.thisIndex'
p1667
I1
sg15
(lp1668
S'd'
asg30
g31
sg17
S'Y'
sg14
I4
sg19
(lp1669
S'space'
p1670
asg95
I1
sa(dp1671
g16
(lp1672
S'k'
asg18
S'N'
sS'.thisRepN'
p1673
I12
sg20
S'N'
sg32
g33
sS'.thisTrialN'
p1674
I7
sS'.thisN'
p1675
I187
sS'.thisIndex'
p1676
I4
sg15
(lp1677
S'k'
asg30
g31
sg17
S'Y'
sg14
I4
sg19
(lp1678
S'space'
p1679
asg95
I4
sa(dp1680
g16
(lp1681
S'd'
asg18
S'Y'
sS'.thisRepN'
p1682
I12
sg20
S'Y'
sg32
g33
sS'.thisTrialN'
p1683
I8
sS'.thisN'
p1684
I188
sS'.thisIndex'
p1685
I0
sg15
(lp1686
S'd'
asg30
g31
sg17
S'Y'
sg14
I4
sg19
(lp1687
S'space'
p1688
asg95
I0
sa(dp1689
g16
(lp1690
S'k'
asg18
S'N'
sS'.thisRepN'
p1691
I12
sg20
S'Y'
sg32
g33
sS'.thisTrialN'
p1692
I9
sS'.thisN'
p1693
I189
sS'.thisIndex'
p1694
I2
sg15
(lp1695
S'd'
asg30
g31
sg17
S'N'
sg14
I4
sg19
Nsg95
I2
sa(dp1696
g16
(lp1697
S'd'
asg18
S'N'
sS'.thisRepN'
p1698
I12
sg20
S'Y'
sg32
g33
sS'.thisTrialN'
p1699
I10
sS'.thisN'
p1700
I190
sS'.thisIndex'
p1701
I0
sg15
(lp1702
S'k'
asg30
g31
sg17
S'N'
sg14
I4
sg19
Nsg95
I0
sa(dp1703
g16
(lp1704
S'k'
asg18
S'Y'
sS'.thisRepN'
p1705
I12
sg20
S'Y'
sg32
g33
sS'.thisTrialN'
p1706
I11
sS'.thisN'
p1707
I191
sS'.thisIndex'
p1708
I1
sg15
(lp1709
S'd'
asg30
g31
sg17
S'N'
sg14
I4
sg19
(lp1710
S'space'
p1711
asg95
I1
sa(dp1712
g16
(lp1713
S'd'
asg18
S'Y'
sS'.thisRepN'
p1714
I12
sg20
S'Y'
sg32
g33
sS'.thisTrialN'
p1715
I12
sS'.thisN'
p1716
I192
sS'.thisIndex'
p1717
I11
sg15
(lp1718
S'd'
asg30
g31
sg17
S'Y'
sg14
I4
sg19
(lp1719
S'space'
p1720
asg95
I11
sa(dp1721
g16
(lp1722
S'd'
asg18
S'Y'
sS'.thisRepN'
p1723
I12
sg20
S'N'
sg32
g33
sS'.thisTrialN'
p1724
I13
sS'.thisN'
p1725
I193
sS'.thisIndex'
p1726
I12
sg15
(lp1727
S'd'
asg30
g31
sg17
S'Y'
sg14
I4
sg19
(lp1728
S'k'
asg95
I12
sa(dp1729
g16
(lp1730
S'k'
asg18
S'N'
sS'.thisRepN'
p1731
I12
sg20
S'N'
sg32
g33
sS'.thisTrialN'
p1732
I14
sS'.thisN'
p1733
I194
sS'.thisIndex'
p1734
I4
sg15
(lp1735
S'k'
asg30
g31
sg17
S'Y'
sg14
I4
sg19
(lp1736
S'space'
p1737
asg95
I4
sa(dp1738
g16
(lp1739
S'd'
asg18
S'N'
sS'.thisRepN'
p1740
I13
sg20
S'Y'
sg32
g33
sS'.thisTrialN'
p1741
I0
sS'.thisN'
p1742
I195
sS'.thisIndex'
p1743
I7
sg15
(lp1744
S'd'
asg30
g31
sg17
S'Y'
sg14
I4
sg19
Nsg95
I7
sa(dp1745
g16
(lp1746
S'k'
asg18
S'Y'
sS'.thisRepN'
p1747
I13
sg20
S'Y'
sg32
g33
sS'.thisTrialN'
p1748
I1
sS'.thisN'
p1749
I196
sS'.thisIndex'
p1750
I5
sg15
(lp1751
S'd'
asg30
g31
sg17
S'N'
sg14
I4
sg19
(lp1752
S'space'
p1753
asg95
I5
sa(dp1754
g16
(lp1755
S'd'
asg18
S'N'
sS'.thisRepN'
p1756
I13
sg20
S'N'
sg32
g33
sS'.thisTrialN'
p1757
I2
sS'.thisN'
p1758
I197
sS'.thisIndex'
p1759
I9
sg15
(lp1760
S'k'
asg30
g31
sg17
S'N'
sg14
I4
sg19
(lp1761
S'space'
p1762
asg95
I9
sa(dp1763
g16
(lp1764
S'd'
asg18
S'N'
sS'.thisRepN'
p1765
I13
sg20
S'N'
sg32
g33
sS'.thisTrialN'
p1766
I3
sS'.thisN'
p1767
I198
sS'.thisIndex'
p1768
I14
sg15
(lp1769
S'd'
asg30
g31
sg17
S'Y'
sg14
I4
sg19
(lp1770
S'space'
p1771
asg95
I14
sa(dp1772
g16
(lp1773
S'k'
asg18
S'N'
sg22
I22
sS'.thisN'
p1774
I199
sg20
S'Y'
sg32
g33
sS'.thisTrialN'
p1775
I4
sS'.thisRepN'
p1776
I13
sg21
I30
sS'.thisIndex'
p1777
I5
sg23
I25
sg15
(lp1778
S'd'
asg30
g31
sg17
S'N'
sg14
I4
sg19
Nsg95
I5
sa(dp1779
g16
(lp1780
S'k'
asg95
I10
sS'.thisRepN'
p1781
I13
sg30
g31
sg32
g33
sS'.thisTrialN'
p1782
I5
sS'.thisN'
p1783
I200
sS'.thisIndex'
p1784
I10
sg15
(lp1785
S'd'
asg17
S'N'
sg14
I5
sa(dp1786
g16
(lp1787
S'k'
asg95
I0
sS'.thisRepN'
p1788
I13
sg30
g31
sg32
g33
sS'.thisTrialN'
p1789
I6
sS'.thisN'
p1790
I201
sS'.thisIndex'
p1791
I0
sg15
(lp1792
S'k'
asg17
S'Y'
sg14
I5
sa(dp1793
g16
(lp1794
S'd'
asg18
S'Y'
sS'.thisRepN'
p1795
I13
sg20
S'N'
sg32
g33
sS'.thisTrialN'
p1796
I7
sS'.thisN'
p1797
I202
sS'.thisIndex'
p1798
I3
sg15
(lp1799
S'd'
asg30
g31
sg17
S'Y'
sg14
I5
sg19
(lp1800
S'd'
asg95
I3
sa(dp1801
g16
(lp1802
S'd'
asg18
S'Y'
sS'.thisRepN'
p1803
I13
sg20
S'Y'
sg32
g33
sS'.thisTrialN'
p1804
I8
sS'.thisN'
p1805
I203
sS'.thisIndex'
p1806
I13
sg15
(lp1807
S'k'
asg30
g31
sg17
S'N'
sg14
I5
sg19
(lp1808
S'space'
p1809
asg95
I13
sa(dp1810
g16
(lp1811
S'd'
asg18
S'Y'
sS'.thisRepN'
p1812
I13
sg20
S'N'
sg32
g33
sS'.thisTrialN'
p1813
I9
sS'.thisN'
p1814
I204
sS'.thisIndex'
p1815
I2
sg15
(lp1816
S'k'
asg30
g31
sg17
S'N'
sg14
I5
sg19
(lp1817
S'd'
asg95
I2
sa(dp1818
g16
(lp1819
S'd'
asg18
S'Y'
sS'.thisRepN'
p1820
I13
sg20
S'N'
sg32
g33
sS'.thisTrialN'
p1821
I10
sS'.thisN'
p1822
I205
sS'.thisIndex'
p1823
I9
sg15
(lp1824
S'd'
asg30
g31
sg17
S'Y'
sg14
I5
sg19
(lp1825
S'd'
asg95
I9
sa(dp1826
g16
(lp1827
S'd'
asg18
S'Y'
sS'.thisRepN'
p1828
I13
sg20
S'Y'
sg32
g33
sS'.thisTrialN'
p1829
I11
sS'.thisN'
p1830
I206
sS'.thisIndex'
p1831
I8
sg15
(lp1832
S'd'
asg30
g31
sg17
S'Y'
sg14
I5
sg19
(lp1833
S'space'
p1834
asg95
I8
sa(dp1835
g16
(lp1836
S'k'
asg18
S'Y'
sS'.thisRepN'
p1837
I13
sg20
S'Y'
sg32
g33
sS'.thisTrialN'
p1838
I12
sS'.thisN'
p1839
I207
sS'.thisIndex'
p1840
I2
sg15
(lp1841
S'd'
asg30
g31
sg17
S'N'
sg14
I5
sg19
(lp1842
S'space'
p1843
asg95
I2
sa(dp1844
g16
(lp1845
S'd'
asg18
S'Y'
sS'.thisRepN'
p1846
I13
sg20
S'N'
sg32
g33
sS'.thisTrialN'
p1847
I13
sS'.thisN'
p1848
I208
sS'.thisIndex'
p1849
I6
sg15
(lp1850
S'k'
asg30
g31
sg17
S'N'
sg14
I5
sg19
Nsg95
I6
sa(dp1851
g16
(lp1852
S'd'
asg18
S'N'
sS'.thisRepN'
p1853
I13
sg20
S'N'
sg32
g33
sS'.thisTrialN'
p1854
I14
sS'.thisN'
p1855
I209
sS'.thisIndex'
p1856
I3
sg15
(lp1857
S'd'
asg30
g31
sg17
S'Y'
sg14
I5
sg19
(lp1858
S'space'
p1859
asg95
I3
sa(dp1860
g16
(lp1861
S'k'
asg18
S'N'
sS'.thisRepN'
p1862
I14
sg20
S'N'
sg32
g33
sS'.thisTrialN'
p1863
I0
sS'.thisN'
p1864
I210
sS'.thisIndex'
p1865
I11
sg15
(lp1866
S'k'
asg30
g31
sg17
S'Y'
sg14
I5
sg19
(lp1867
S'space'
p1868
asg95
I11
sa(dp1869
g16
(lp1870
S'd'
asg18
S'Y'
sS'.thisRepN'
p1871
I14
sg20
S'N'
sg32
g33
sS'.thisTrialN'
p1872
I1
sS'.thisN'
p1873
I211
sS'.thisIndex'
p1874
I5
sg15
(lp1875
S'd'
asg30
g31
sg17
S'Y'
sg14
I5
sg19
Nsg95
I5
sa(dp1876
g16
(lp1877
S'd'
asg18
S'N'
sS'.thisRepN'
p1878
I14
sg20
S'N'
sg32
g33
sS'.thisTrialN'
p1879
I2
sS'.thisN'
p1880
I212
sS'.thisIndex'
p1881
I5
sg15
(lp1882
S'd'
asg30
g31
sg17
S'Y'
sg14
I5
sg19
(lp1883
S'space'
p1884
asg95
I5
sa(dp1885
g16
(lp1886
S'k'
asg18
S'Y'
sS'.thisRepN'
p1887
I14
sg20
S'N'
sg32
g33
sS'.thisTrialN'
p1888
I3
sS'.thisN'
p1889
I213
sS'.thisIndex'
p1890
I7
sg15
(lp1891
S'k'
asg30
g31
sg17
S'Y'
sg14
I5
sg19
Nsg95
I7
sa(dp1892
g16
(lp1893
S'd'
asg18
S'Y'
sS'.thisRepN'
p1894
I14
sg20
S'Y'
sg32
g33
sS'.thisTrialN'
p1895
I4
sS'.thisN'
p1896
I214
sS'.thisIndex'
p1897
I1
sg15
(lp1898
S'd'
asg30
g31
sg17
S'Y'
sg14
I5
sg19
(lp1899
S'space'
p1900
asg95
I1
sa(dp1901
g16
(lp1902
S'k'
asg18
S'N'
sS'.thisRepN'
p1903
I14
sg20
S'N'
sg32
g33
sS'.thisTrialN'
p1904
I5
sS'.thisN'
p1905
I215
sS'.thisIndex'
p1906
I6
sg15
(lp1907
S'd'
asg30
g31
sg17
S'N'
sg14
I5
sg19
(lp1908
S'd'
asg95
I6
sa(dp1909
g16
(lp1910
S'd'
asg18
S'N'
sS'.thisRepN'
p1911
I14
sg20
S'N'
sg32
g33
sS'.thisTrialN'
p1912
I6
sS'.thisN'
p1913
I216
sS'.thisIndex'
p1914
I6
sg15
(lp1915
S'k'
asg30
g31
sg17
S'N'
sg14
I5
sg19
(lp1916
S'k'
asg95
I6
sa(dp1917
g16
(lp1918
S'd'
asg18
S'N'
sS'.thisRepN'
p1919
I14
sg20
S'N'
sg32
g33
sS'.thisTrialN'
p1920
I7
sS'.thisN'
p1921
I217
sS'.thisIndex'
p1922
I10
sg15
(lp1923
S'd'
asg30
g31
sg17
S'Y'
sg14
I5
sg19
(lp1924
S'space'
p1925
asg95
I10
sa(dp1926
g16
(lp1927
S'd'
asg18
S'N'
sS'.thisRepN'
p1928
I14
sg20
S'N'
sg32
g33
sS'.thisTrialN'
p1929
I8
sS'.thisN'
p1930
I218
sS'.thisIndex'
p1931
I0
sg15
(lp1932
S'd'
asg30
g31
sg17
S'Y'
sg14
I5
sg19
(lp1933
S'space'
p1934
asg95
I0
sa(dp1935
g16
(lp1936
S'd'
asg18
S'Y'
sS'.thisRepN'
p1937
I14
sg20
S'N'
sg32
g33
sS'.thisTrialN'
p1938
I9
sS'.thisN'
p1939
I219
sS'.thisIndex'
p1940
I3
sg15
(lp1941
S'd'
asg30
g31
sg17
S'Y'
sg14
I5
sg19
Nsg95
I3
sa(dp1942
g16
(lp1943
S'k'
asg18
S'Y'
sS'.thisRepN'
p1944
I14
sg20
S'Y'
sg32
g33
sS'.thisTrialN'
p1945
I10
sS'.thisN'
p1946
I220
sS'.thisIndex'
p1947
I5
sg15
(lp1948
S'k'
asg30
g31
sg17
S'Y'
sg14
I5
sg19
(lp1949
S'space'
p1950
asg95
I5
sa(dp1951
g16
(lp1952
S'k'
asg18
S'Y'
sS'.thisRepN'
p1953
I14
sg20
S'Y'
sg32
g33
sS'.thisTrialN'
p1954
I11
sS'.thisN'
p1955
I221
sS'.thisIndex'
p1956
I13
sg15
(lp1957
S'd'
asg30
g31
sg17
S'N'
sg14
I5
sg19
(lp1958
S'space'
p1959
asg95
I13
sa(dp1960
g16
(lp1961
S'd'
asg18
S'Y'
sS'.thisRepN'
p1962
I14
sg20
S'N'
sg32
g33
sS'.thisTrialN'
p1963
I12
sS'.thisN'
p1964
I222
sS'.thisIndex'
p1965
I6
sg15
(lp1966
S'k'
asg30
g31
sg17
S'N'
sg14
I5
sg19
(lp1967
S'k'
asg95
I6
sa(dp1968
g16
(lp1969
S'd'
asg18
S'Y'
sS'.thisRepN'
p1970
I14
sg20
S'N'
sg32
g33
sS'.thisTrialN'
p1971
I13
sS'.thisN'
p1972
I223
sS'.thisIndex'
p1973
I11
sg15
(lp1974
S'd'
asg30
g31
sg17
S'Y'
sg14
I5
sg19
(lp1975
S'd'
asg95
I11
sa(dp1976
g16
(lp1977
S'k'
asg18
S'Y'
sS'.thisRepN'
p1978
I14
sg20
S'Y'
sg32
g33
sS'.thisTrialN'
p1979
I14
sS'.thisN'
p1980
I224
sS'.thisIndex'
p1981
I1
sg15
(lp1982
S'd'
asg30
g31
sg17
S'N'
sg14
I5
sg19
(lp1983
S'space'
p1984
asg95
I1
sa(dp1985
g16
(lp1986
S'd'
asg18
S'N'
sS'.thisRepN'
p1987
I15
sg20
S'N'
sg32
g33
sS'.thisTrialN'
p1988
I0
sS'.thisN'
p1989
I225
sS'.thisIndex'
p1990
I3
sg15
(lp1991
S'k'
asg30
g31
sg17
S'N'
sg14
I5
sg19
(lp1992
S'space'
p1993
asg95
I3
sa(dp1994
g16
(lp1995
S'k'
asg18
S'N'
sS'.thisRepN'
p1996
I15
sg20
S'Y'
sg32
g33
sS'.thisTrialN'
p1997
I1
sS'.thisN'
p1998
I226
sS'.thisIndex'
p1999
I13
sg15
(lp2000
S'd'
asg30
g31
sg17
S'N'
sg14
I5
sg19
Nsg95
I13
sa(dp2001
g16
(lp2002
S'd'
asg18
S'N'
sS'.thisRepN'
p2003
I15
sg20
S'Y'
sg32
g33
sS'.thisTrialN'
p2004
I2
sS'.thisN'
p2005
I227
sS'.thisIndex'
p2006
I9
sg15
(lp2007
S'd'
asg30
g31
sg17
S'Y'
sg14
I5
sg19
Nsg95
I9
sa(dp2008
g16
(lp2009
S'd'
asg18
S'Y'
sS'.thisRepN'
p2010
I15
sg20
S'Y'
sg32
g33
sS'.thisTrialN'
p2011
I3
sS'.thisN'
p2012
I228
sS'.thisIndex'
p2013
I1
sg15
(lp2014
S'k'
asg30
g31
sg17
S'N'
sg14
I5
sg19
(lp2015
S'space'
p2016
asg95
I1
sa(dp2017
g16
(lp2018
S'd'
asg18
S'N'
sS'.thisRepN'
p2019
I15
sg20
S'N'
sg32
g33
sS'.thisTrialN'
p2020
I4
sS'.thisN'
p2021
I229
sS'.thisIndex'
p2022
I3
sg15
(lp2023
S'd'
asg30
g31
sg17
S'Y'
sg14
I5
sg19
(lp2024
S'space'
p2025
asg95
I3
sa(dp2026
g16
(lp2027
S'd'
asg18
S'N'
sS'.thisRepN'
p2028
I15
sg20
S'Y'
sg32
g33
sS'.thisTrialN'
p2029
I5
sS'.thisN'
p2030
I230
sS'.thisIndex'
p2031
I14
sg15
(lp2032
S'd'
asg30
g31
sg17
S'Y'
sg14
I5
sg19
Nsg95
I14
sa(dp2033
g16
(lp2034
S'd'
asg18
S'Y'
sS'.thisRepN'
p2035
I15
sg20
S'N'
sg32
g33
sS'.thisTrialN'
p2036
I6
sS'.thisN'
p2037
I231
sS'.thisIndex'
p2038
I4
sg15
(lp2039
S'k'
asg30
g31
sg17
S'N'
sg14
I5
sg19
Nsg95
I4
sa(dp2040
g16
(lp2041
S'k'
asg18
S'Y'
sS'.thisRepN'
p2042
I15
sg20
S'N'
sg32
g33
sS'.thisTrialN'
p2043
I7
sS'.thisN'
p2044
I232
sS'.thisIndex'
p2045
I7
sg15
(lp2046
S'd'
asg30
g31
sg17
S'N'
sg14
I5
sg19
(lp2047
S'd'
asg95
I7
sa(dp2048
g16
(lp2049
S'k'
asg18
S'N'
sS'.thisRepN'
p2050
I15
sg20
S'N'
sg32
g33
sS'.thisTrialN'
p2051
I8
sS'.thisN'
p2052
I233
sS'.thisIndex'
p2053
I7
sg15
(lp2054
S'd'
asg30
g31
sg17
S'N'
sg14
I5
sg19
(lp2055
S'space'
p2056
asg95
I7
sa(dp2057
g16
(lp2058
S'd'
asg18
S'Y'
sS'.thisRepN'
p2059
I15
sg20
S'N'
sg32
g33
sS'.thisTrialN'
p2060
I9
sS'.thisN'
p2061
I234
sS'.thisIndex'
p2062
I6
sg15
(lp2063
S'k'
asg30
g31
sg17
S'N'
sg14
I5
sg19
Nsg95
I6
sa(dp2064
g16
(lp2065
S'k'
asg18
S'N'
sS'.thisRepN'
p2066
I15
sg20
S'Y'
sg32
g33
sS'.thisTrialN'
p2067
I10
sS'.thisN'
p2068
I235
sS'.thisIndex'
p2069
I4
sg15
(lp2070
S'd'
asg30
g31
sg17
S'N'
sg14
I5
sg19
Nsg95
I4
sa(dp2071
g16
(lp2072
S'd'
asg18
S'N'
sS'.thisRepN'
p2073
I15
sg20
S'N'
sg32
g33
sS'.thisTrialN'
p2074
I11
sS'.thisN'
p2075
I236
sS'.thisIndex'
p2076
I6
sg15
(lp2077
S'k'
asg30
g31
sg17
S'N'
sg14
I5
sg19
(lp2078
S'space'
p2079
asg95
I6
sa(dp2080
g16
(lp2081
S'k'
asg18
S'Y'
sS'.thisRepN'
p2082
I15
sg20
S'Y'
sg32
g33
sS'.thisTrialN'
p2083
I12
sS'.thisN'
p2084
I237
sS'.thisIndex'
p2085
I3
sg15
(lp2086
S'd'
asg30
g31
sg17
S'N'
sg14
I5
sg19
(lp2087
S'space'
p2088
asg95
I3
sa(dp2089
g16
(lp2090
S'k'
asg18
S'Y'
sS'.thisRepN'
p2091
I15
sg20
S'N'
sg32
g33
sS'.thisTrialN'
p2092
I13
sS'.thisN'
p2093
I238
sS'.thisIndex'
p2094
I13
sg15
(lp2095
S'd'
asg30
g31
sg17
S'N'
sg14
I5
sg19
Nsg95
I13
sa(dp2096
g16
(lp2097
S'k'
asg18
S'N'
sS'.thisRepN'
p2098
I15
sg20
S'N'
sg32
g33
sS'.thisTrialN'
p2099
I14
sS'.thisN'
p2100
I239
sS'.thisIndex'
p2101
I10
sg15
(lp2102
S'k'
asg30
g31
sg17
S'Y'
sg14
I5
sg19
(lp2103
S'space'
p2104
asg95
I10
sa(dp2105
g16
(lp2106
S'k'
asg18
S'Y'
sS'.thisRepN'
p2107
I16
sg20
S'Y'
sg32
g33
sS'.thisTrialN'
p2108
I0
sS'.thisN'
p2109
I240
sS'.thisIndex'
p2110
I6
sg15
(lp2111
S'd'
asg30
g31
sg17
S'N'
sg14
I5
sg19
(lp2112
S'space'
p2113
asg95
I6
sa(dp2114
g18
S'Y'
sS'.thisRepN'
p2115
I16
sg20
S'Y'
sg32
g33
sS'.thisTrialN'
p2116
I1
sS'.thisN'
p2117
I241
sS'.thisIndex'
p2118
I12
sg15
Nsg30
g31
sg17
S'Timed out'
p2119
sg14
I5
sg19
(lp2120
S'space'
p2121
asg95
I12
sa(dp2122
g16
(lp2123
S'k'
asg18
S'Y'
sS'.thisRepN'
p2124
I16
sg20
S'Y'
sg32
g33
sS'.thisTrialN'
p2125
I2
sS'.thisN'
p2126
I242
sS'.thisIndex'
p2127
I7
sg15
(lp2128
S'd'
asg30
g31
sg17
S'N'
sg14
I5
sg19
(lp2129
S'space'
p2130
asg95
I7
sa(dp2131
g16
(lp2132
S'd'
asg18
S'N'
sS'.thisRepN'
p2133
I16
sg20
S'N'
sg32
g33
sS'.thisTrialN'
p2134
I3
sS'.thisN'
p2135
I243
sS'.thisIndex'
p2136
I5
sg15
(lp2137
S'k'
asg30
g31
sg17
S'N'
sg14
I5
sg19
(lp2138
S'space'
p2139
asg95
I5
sa(dp2140
g16
(lp2141
S'd'
asg18
S'N'
sS'.thisRepN'
p2142
I16
sg20
S'N'
sg32
g33
sS'.thisTrialN'
p2143
I4
sS'.thisN'
p2144
I244
sS'.thisIndex'
p2145
I1
sg15
(lp2146
S'd'
asg30
g31
sg17
S'Y'
sg14
I5
sg19
(lp2147
S'd'
asg95
I1
sa(dp2148
g16
(lp2149
S'd'
asg18
S'N'
sS'.thisRepN'
p2150
I16
sg20
S'N'
sg32
g33
sS'.thisTrialN'
p2151
I5
sS'.thisN'
p2152
I245
sS'.thisIndex'
p2153
I9
sg15
(lp2154
S'd'
asg30
g31
sg17
S'Y'
sg14
I5
sg19
(lp2155
S'space'
p2156
asg95
I9
sa(dp2157
g16
(lp2158
S'k'
asg18
S'N'
sS'.thisRepN'
p2159
I16
sg20
S'N'
sg32
g33
sS'.thisTrialN'
p2160
I6
sS'.thisN'
p2161
I246
sS'.thisIndex'
p2162
I2
sg15
(lp2163
S'k'
asg30
g31
sg17
S'Y'
sg14
I5
sg19
(lp2164
S'space'
p2165
asg95
I2
sa(dp2166
g16
(lp2167
S'd'
asg18
S'N'
sS'.thisRepN'
p2168
I16
sg20
S'N'
sg32
g33
sS'.thisTrialN'
p2169
I7
sS'.thisN'
p2170
I247
sS'.thisIndex'
p2171
I4
sg15
(lp2172
S'd'
asg30
g31
sg17
S'Y'
sg14
I5
sg19
(lp2173
S'space'
p2174
asg95
I4
sa(dp2175
g16
(lp2176
S'k'
asg18
S'N'
sS'.thisRepN'
p2177
I16
sg20
S'N'
sg32
g33
sS'.thisTrialN'
p2178
I8
sS'.thisN'
p2179
I248
sS'.thisIndex'
p2180
I2
sg15
(lp2181
S'd'
asg30
g31
sg17
S'N'
sg14
I5
sg19
(lp2182
S'space'
p2183
asg95
I2
sa(dp2184
g16
(lp2185
S'k'
asg18
S'N'
sg22
I16
sS'.thisN'
p2186
I249
sg20
S'N'
sg32
g33
sS'.thisTrialN'
p2187
I9
sS'.thisRepN'
p2188
I16
sg21
I24
sS'.thisIndex'
p2189
I13
sg23
I25
sg15
(lp2190
S'k'
asg30
g31
sg17
S'Y'
sg14
I5
sg19
(lp2191
S'space'
p2192
asg95
I13
sa(dp2193
g16
(lp2194
S'd'
asg95
I0
sS'.thisRepN'
p2195
I16
sg30
g31
sg32
g33
sS'.thisTrialN'
p2196
I10
sS'.thisN'
p2197
I250
sS'.thisIndex'
p2198
I0
sg15
(lp2199
S'd'
asg17
S'Y'
sg14
I6
sa(dp2200
g16
(lp2201
S'd'
asg95
I9
sS'.thisRepN'
p2202
I16
sg30
g31
sg32
g33
sS'.thisTrialN'
p2203
I11
sS'.thisN'
p2204
I251
sS'.thisIndex'
p2205
I9
sg15
(lp2206
S'd'
asg17
S'Y'
sg14
I6
sa(dp2207
g16
(lp2208
S'k'
asg18
S'N'
sS'.thisRepN'
p2209
I16
sg20
S'N'
sg32
g33
sS'.thisTrialN'
p2210
I12
sS'.thisN'
p2211
I252
sS'.thisIndex'
p2212
I14
sg15
(lp2213
S'k'
asg30
g31
sg17
S'Y'
sg14
I6
sg19
(lp2214
S'space'
p2215
asg95
I14
sa(dp2216
g16
(lp2217
S'k'
asg18
S'Y'
sS'.thisRepN'
p2218
I16
sg20
S'Y'
sg32
g33
sS'.thisTrialN'
p2219
I13
sS'.thisN'
p2220
I253
sS'.thisIndex'
p2221
I1
sg15
(lp2222
S'd'
asg30
g31
sg17
S'N'
sg14
I6
sg19
(lp2223
S'space'
p2224
asg95
I1
sa(dp2225
g16
(lp2226
S'k'
asg18
S'Y'
sS'.thisRepN'
p2227
I16
sg20
S'N'
sg32
g33
sS'.thisTrialN'
p2228
I14
sS'.thisN'
p2229
I254
sS'.thisIndex'
p2230
I7
sg15
(lp2231
S'k'
asg30
g31
sg17
S'Y'
sg14
I6
sg19
(lp2232
S'k'
asg95
I7
sa(dp2233
g16
(lp2234
S'k'
asg18
S'N'
sS'.thisRepN'
p2235
I17
sg20
S'N'
sg32
g33
sS'.thisTrialN'
p2236
I0
sS'.thisN'
p2237
I255
sS'.thisIndex'
p2238
I8
sg15
(lp2239
S'd'
asg30
g31
sg17
S'N'
sg14
I6
sg19
(lp2240
S'd'
asg95
I8
sa(dp2241
g16
(lp2242
S'k'
asg18
S'Y'
sS'.thisRepN'
p2243
I17
sg20
S'N'
sg32
g33
sS'.thisTrialN'
p2244
I1
sS'.thisN'
p2245
I256
sS'.thisIndex'
p2246
I12
sg15
(lp2247
S'd'
asg30
g31
sg17
S'N'
sg14
I6
sg19
(lp2248
S'k'
asg95
I12
sa(dp2249
g16
(lp2250
S'k'
asg18
S'Y'
sS'.thisRepN'
p2251
I17
sg20
S'Y'
sg32
g33
sS'.thisTrialN'
p2252
I2
sS'.thisN'
p2253
I257
sS'.thisIndex'
p2254
I2
sg15
(lp2255
S'k'
asg30
g31
sg17
S'Y'
sg14
I6
sg19
(lp2256
S'space'
p2257
asg95
I2
sa(dp2258
g16
(lp2259
S'k'
asg18
S'Y'
sS'.thisRepN'
p2260
I17
sg20
S'Y'
sg32
g33
sS'.thisTrialN'
p2261
I3
sS'.thisN'
p2262
I258
sS'.thisIndex'
p2263
I9
sg15
(lp2264
S'd'
asg30
g31
sg17
S'N'
sg14
I6
sg19
(lp2265
S'space'
p2266
asg95
I9
sa(dp2267
g16
(lp2268
S'k'
asg18
S'N'
sS'.thisRepN'
p2269
I17
sg20
S'N'
sg32
g33
sS'.thisTrialN'
p2270
I4
sS'.thisN'
p2271
I259
sS'.thisIndex'
p2272
I14
sg15
(lp2273
S'd'
asg30
g31
sg17
S'N'
sg14
I6
sg19
(lp2274
S'space'
p2275
asg95
I14
sa(dp2276
g16
(lp2277
S'k'
asg18
S'Y'
sS'.thisRepN'
p2278
I17
sg20
S'N'
sg32
g33
sS'.thisTrialN'
p2279
I5
sS'.thisN'
p2280
I260
sS'.thisIndex'
p2281
I8
sg15
(lp2282
S'd'
asg30
g31
sg17
S'N'
sg14
I6
sg19
Nsg95
I8
sa(dp2283
g16
(lp2284
S'd'
asg18
S'Y'
sS'.thisRepN'
p2285
I17
sg20
S'Y'
sg32
g33
sS'.thisTrialN'
p2286
I6
sS'.thisN'
p2287
I261
sS'.thisIndex'
p2288
I7
sg15
(lp2289
S'k'
asg30
g31
sg17
S'N'
sg14
I6
sg19
(lp2290
S'space'
p2291
asg95
I7
sa(dp2292
g16
(lp2293
S'k'
asg18
S'N'
sS'.thisRepN'
p2294
I17
sg20
S'N'
sg32
g33
sS'.thisTrialN'
p2295
I7
sS'.thisN'
p2296
I262
sS'.thisIndex'
p2297
I9
sg15
(lp2298
S'd'
asg30
g31
sg17
S'N'
sg14
I6
sg19
(lp2299
S'd'
asg95
I9
sa(dp2300
g16
(lp2301
S'k'
asg18
S'N'
sS'.thisRepN'
p2302
I17
sg20
S'N'
sg32
g33
sS'.thisTrialN'
p2303
I8
sS'.thisN'
p2304
I263
sS'.thisIndex'
p2305
I8
sg15
(lp2306
S'k'
asg30
g31
sg17
S'Y'
sg14
I6
sg19
(lp2307
S'space'
p2308
asg95
I8
sa(dp2309
g16
(lp2310
S'k'
asg18
S'N'
sS'.thisRepN'
p2311
I17
sg20
S'N'
sg32
g33
sS'.thisTrialN'
p2312
I9
sS'.thisN'
p2313
I264
sS'.thisIndex'
p2314
I1
sg15
(lp2315
S'd'
asg30
g31
sg17
S'N'
sg14
I6
sg19
(lp2316
S'space'
p2317
asg95
I1
sa(dp2318
g16
(lp2319
S'd'
asg18
S'Y'
sS'.thisRepN'
p2320
I17
sg20
S'N'
sg32
g33
sS'.thisTrialN'
p2321
I10
sS'.thisN'
p2322
I265
sS'.thisIndex'
p2323
I0
sg15
(lp2324
S'd'
asg30
g31
sg17
S'Y'
sg14
I6
sg19
(lp2325
S'k'
asg95
I0
sa(dp2326
g16
(lp2327
S'd'
asg18
S'N'
sS'.thisRepN'
p2328
I17
sg20
S'N'
sg32
g33
sS'.thisTrialN'
p2329
I11
sS'.thisN'
p2330
I266
sS'.thisIndex'
p2331
I12
sg15
(lp2332
S'k'
asg30
g31
sg17
S'N'
sg14
I6
sg19
(lp2333
S'space'
p2334
asg95
I12
sa(dp2335
g16
(lp2336
S'd'
asg18
S'N'
sS'.thisRepN'
p2337
I17
sg20
S'N'
sg32
g33
sS'.thisTrialN'
p2338
I12
sS'.thisN'
p2339
I267
sS'.thisIndex'
p2340
I14
sg15
(lp2341
S'd'
asg30
g31
sg17
S'Y'
sg14
I6
sg19
(lp2342
S'space'
p2343
asg95
I14
sa(dp2344
g16
(lp2345
S'k'
asg18
S'Y'
sS'.thisRepN'
p2346
I17
sg20
S'N'
sg32
g33
sS'.thisTrialN'
p2347
I13
sS'.thisN'
p2348
I268
sS'.thisIndex'
p2349
I6
sg15
(lp2350
S'd'
asg30
g31
sg17
S'N'
sg14
I6
sg19
Nsg95
I6
sa(dp2351
g16
(lp2352
S'd'
asg18
S'N'
sS'.thisRepN'
p2353
I17
sg20
S'N'
sg32
g33
sS'.thisTrialN'
p2354
I14
sS'.thisN'
p2355
I269
sS'.thisIndex'
p2356
I10
sg15
(lp2357
S'k'
asg30
g31
sg17
S'N'
sg14
I6
sg19
(lp2358
S'space'
p2359
asg95
I10
sa(dp2360
g16
(lp2361
S'k'
asg18
S'Y'
sS'.thisRepN'
p2362
I18
sg20
S'N'
sg32
g33
sS'.thisTrialN'
p2363
I0
sS'.thisN'
p2364
I270
sS'.thisIndex'
p2365
I5
sg15
(lp2366
S'd'
asg30
g31
sg17
S'N'
sg14
I6
sg19
(lp2367
S'd'
asg95
I5
sa(dp2368
g16
(lp2369
S'k'
asg18
S'N'
sS'.thisRepN'
p2370
I18
sg20
S'N'
sg32
g33
sS'.thisTrialN'
p2371
I1
sS'.thisN'
p2372
I271
sS'.thisIndex'
p2373
I11
sg15
(lp2374
S'k'
asg30
g31
sg17
S'Y'
sg14
I6
sg19
(lp2375
S'space'
p2376
asg95
I11
sa(dp2377
g16
(lp2378
S'k'
asg18
S'N'
sS'.thisRepN'
p2379
I18
sg20
S'Y'
sg32
g33
sS'.thisTrialN'
p2380
I2
sS'.thisN'
p2381
I272
sS'.thisIndex'
p2382
I13
sg15
(lp2383
S'd'
asg30
g31
sg17
S'N'
sg14
I6
sg19
Nsg95
I13
sa(dp2384
g16
(lp2385
S'd'
asg18
S'N'
sS'.thisRepN'
p2386
I18
sg20
S'N'
sg32
g33
sS'.thisTrialN'
p2387
I3
sS'.thisN'
p2388
I273
sS'.thisIndex'
p2389
I3
sg15
(lp2390
S'd'
asg30
g31
sg17
S'Y'
sg14
I6
sg19
(lp2391
S'space'
p2392
asg95
I3
sa(dp2393
g16
(lp2394
S'k'
asg18
S'Y'
sS'.thisRepN'
p2395
I18
sg20
S'N'
sg32
g33
sS'.thisTrialN'
p2396
I4
sS'.thisN'
p2397
I274
sS'.thisIndex'
p2398
I11
sg15
(lp2399
S'k'
asg30
g31
sg17
S'Y'
sg14
I6
sg19
Nsg95
I11
sa(dp2400
g16
(lp2401
S'd'
asg18
S'N'
sS'.thisRepN'
p2402
I18
sg20
S'N'
sg32
g33
sS'.thisTrialN'
p2403
I5
sS'.thisN'
p2404
I275
sS'.thisIndex'
p2405
I6
sg15
(lp2406
S'd'
asg30
g31
sg17
S'Y'
sg14
I6
sg19
(lp2407
S'd'
asg95
I6
sa(dp2408
g16
(lp2409
S'k'
asg18
S'N'
sS'.thisRepN'
p2410
I18
sg20
S'N'
sg32
g33
sS'.thisTrialN'
p2411
I6
sS'.thisN'
p2412
I276
sS'.thisIndex'
p2413
I11
sg15
(lp2414
S'k'
asg30
g31
sg17
S'Y'
sg14
I6
sg19
(lp2415
S'space'
p2416
asg95
I11
sa(dp2417
g16
(lp2418
S'k'
asg18
S'N'
sS'.thisRepN'
p2419
I18
sg20
S'N'
sg32
g33
sS'.thisTrialN'
p2420
I7
sS'.thisN'
p2421
I277
sS'.thisIndex'
p2422
I14
sg15
(lp2423
S'd'
asg30
g31
sg17
S'N'
sg14
I6
sg19
(lp2424
S'space'
p2425
asg95
I14
sa(dp2426
g16
(lp2427
S'd'
asg18
S'N'
sS'.thisRepN'
p2428
I18
sg20
S'N'
sg32
g33
sS'.thisTrialN'
p2429
I8
sS'.thisN'
p2430
I278
sS'.thisIndex'
p2431
I6
sg15
(lp2432
S'd'
asg30
g31
sg17
S'Y'
sg14
I6
sg19
(lp2433
S'k'
asg95
I6
sa(dp2434
g16
(lp2435
S'd'
asg18
S'Y'
sS'.thisRepN'
p2436
I18
sg20
S'N'
sg32
g33
sS'.thisTrialN'
p2437
I9
sS'.thisN'
p2438
I279
sS'.thisIndex'
p2439
I10
sg15
(lp2440
S'd'
asg30
g31
sg17
S'Y'
sg14
I6
sg19
Nsg95
I10
sa(dp2441
g16
(lp2442
S'k'
asg18
S'N'
sS'.thisRepN'
p2443
I18
sg20
S'N'
sg32
g33
sS'.thisTrialN'
p2444
I10
sS'.thisN'
p2445
I280
sS'.thisIndex'
p2446
I5
sg15
(lp2447
S'k'
asg30
g31
sg17
S'Y'
sg14
I6
sg19
(lp2448
S'space'
p2449
asg95
I5
sa(dp2450
g16
(lp2451
S'k'
asg18
S'Y'
sS'.thisRepN'
p2452
I18
sg20
S'N'
sg32
g33
sS'.thisTrialN'
p2453
I11
sS'.thisN'
p2454
I281
sS'.thisIndex'
p2455
I0
sg15
(lp2456
S'd'
asg30
g31
sg17
S'N'
sg14
I6
sg19
Nsg95
I0
sa(dp2457
g16
(lp2458
S'k'
asg18
S'N'
sS'.thisRepN'
p2459
I18
sg20
S'N'
sg32
g33
sS'.thisTrialN'
p2460
I12
sS'.thisN'
p2461
I282
sS'.thisIndex'
p2462
I1
sg15
(lp2463
S'k'
asg30
g31
sg17
S'Y'
sg14
I6
sg19
(lp2464
S'space'
p2465
asg95
I1
sa(dp2466
g16
(lp2467
S'd'
asg18
S'N'
sS'.thisRepN'
p2468
I18
sg20
S'N'
sg32
g33
sS'.thisTrialN'
p2469
I13
sS'.thisN'
p2470
I283
sS'.thisIndex'
p2471
I6
sg15
(lp2472
S'k'
asg30
g31
sg17
S'N'
sg14
I6
sg19
(lp2473
S'space'
p2474
asg95
I6
sa(dp2475
g16
(lp2476
S'd'
asg18
S'N'
sS'.thisRepN'
p2477
I18
sg20
S'N'
sg32
g33
sS'.thisTrialN'
p2478
I14
sS'.thisN'
p2479
I284
sS'.thisIndex'
p2480
I13
sg15
(lp2481
S'd'
asg30
g31
sg17
S'Y'
sg14
I6
sg19
(lp2482
S'd'
asg95
I13
sa(dp2483
g16
(lp2484
S'k'
asg18
S'Y'
sS'.thisRepN'
p2485
I19
sg20
S'Y'
sg32
g33
sS'.thisTrialN'
p2486
I0
sS'.thisN'
p2487
I285
sS'.thisIndex'
p2488
I0
sg15
(lp2489
S'k'
asg30
g31
sg17
S'Y'
sg14
I6
sg19
(lp2490
S'space'
p2491
asg95
I0
sa(dp2492
g16
(lp2493
S'd'
asg18
S'Y'
sS'.thisRepN'
p2494
I19
sg20
S'Y'
sg32
g33
sS'.thisTrialN'
p2495
I1
sS'.thisN'
p2496
I286
sS'.thisIndex'
p2497
I14
sg15
(lp2498
S'd'
asg30
g31
sg17
S'Y'
sg14
I6
sg19
(lp2499
S'space'
p2500
asg95
I14
sa(dp2501
g16
(lp2502
S'k'
asg18
S'Y'
sS'.thisRepN'
p2503
I19
sg20
S'Y'
sg32
g33
sS'.thisTrialN'
p2504
I2
sS'.thisN'
p2505
I287
sS'.thisIndex'
p2506
I11
sg15
(lp2507
S'k'
asg30
g31
sg17
S'Y'
sg14
I6
sg19
(lp2508
S'space'
p2509
asg95
I11
sa(dp2510
g16
(lp2511
S'k'
asg18
S'N'
sS'.thisRepN'
p2512
I19
sg20
S'N'
sg32
g33
sS'.thisTrialN'
p2513
I3
sS'.thisN'
p2514
I288
sS'.thisIndex'
p2515
I6
sg15
(lp2516
S'k'
asg30
g31
sg17
S'Y'
sg14
I6
sg19
(lp2517
S'space'
p2518
asg95
I6
sa(dp2519
g16
(lp2520
S'k'
asg18
S'Y'
sS'.thisRepN'
p2521
I19
sg20
S'N'
sg32
g33
sS'.thisTrialN'
p2522
I4
sS'.thisN'
p2523
I289
sS'.thisIndex'
p2524
I7
sg15
(lp2525
S'k'
asg30
g31
sg17
S'Y'
sg14
I6
sg19
Nsg95
I7
sa(dp2526
g16
(lp2527
S'd'
asg18
S'Y'
sS'.thisRepN'
p2528
I19
sg20
S'Y'
sg32
g33
sS'.thisTrialN'
p2529
I5
sS'.thisN'
p2530
I290
sS'.thisIndex'
p2531
I5
sg15
(lp2532
S'd'
asg30
g31
sg17
S'Y'
sg14
I6
sg19
(lp2533
S'space'
p2534
asg95
I5
sa(dp2535
g16
(lp2536
S'k'
asg18
S'N'
sS'.thisRepN'
p2537
I19
sg20
S'Y'
sg32
g33
sS'.thisTrialN'
p2538
I6
sS'.thisN'
p2539
I291
sS'.thisIndex'
p2540
I12
sg15
(lp2541
S'k'
asg30
g31
sg17
S'Y'
sg14
I6
sg19
Nsg95
I12
sa(dp2542
g16
(lp2543
S'd'
asg18
S'Y'
sS'.thisRepN'
p2544
I19
sg20
S'N'
sg32
g33
sS'.thisTrialN'
p2545
I7
sS'.thisN'
p2546
I292
sS'.thisIndex'
p2547
I12
sg15
(lp2548
S'd'
asg30
g31
sg17
S'Y'
sg14
I6
sg19
(lp2549
S'd'
asg95
I12
sa(dp2550
g16
(lp2551
S'd'
asg18
S'Y'
sS'.thisRepN'
p2552
I19
sg20
S'N'
sg32
g33
sS'.thisTrialN'
p2553
I8
sS'.thisN'
p2554
I293
sS'.thisIndex'
p2555
I0
sg15
(lp2556
S'd'
asg30
g31
sg17
S'Y'
sg14
I6
sg19
(lp2557
S'k'
asg95
I0
sa(dp2558
g16
(lp2559
S'd'
asg18
S'Y'
sS'.thisRepN'
p2560
I19
sg20
S'Y'
sg32
g33
sS'.thisTrialN'
p2561
I9
sS'.thisN'
p2562
I294
sS'.thisIndex'
p2563
I10
sg15
(lp2564
S'd'
asg30
g31
sg17
S'Y'
sg14
I6
sg19
(lp2565
S'space'
p2566
asg95
I10
sa(dp2567
g16
(lp2568
S'k'
asg18
S'Y'
sS'.thisRepN'
p2569
I19
sg20
S'Y'
sg32
g33
sS'.thisTrialN'
p2570
I10
sS'.thisN'
p2571
I295
sS'.thisIndex'
p2572
I13
sg15
(lp2573
S'k'
asg30
g31
sg17
S'Y'
sg14
I6
sg19
(lp2574
S'space'
p2575
asg95
I13
sa(dp2576
g16
(lp2577
S'd'
asg18
S'Y'
sS'.thisRepN'
p2578
I19
sg20
S'N'
sg32
g33
sS'.thisTrialN'
p2579
I11
sS'.thisN'
p2580
I296
sS'.thisIndex'
p2581
I14
sg15
(lp2582
S'd'
asg30
g31
sg17
S'Y'
sg14
I6
sg19
Nsg95
I14
sa(dp2583
g16
(lp2584
S'd'
asg18
S'Y'
sS'.thisRepN'
p2585
I19
sg20
S'N'
sg32
g33
sS'.thisTrialN'
p2586
I12
sS'.thisN'
p2587
I297
sS'.thisIndex'
p2588
I8
sg15
(lp2589
S'k'
asg30
g31
sg17
S'N'
sg14
I6
sg19
Nsg95
I8
sa(dp2590
g18
S'Y'
sS'.thisRepN'
p2591
I19
sg20
S'N'
sg32
g33
sS'.thisTrialN'
p2592
I13
sS'.thisN'
p2593
I298
sS'.thisIndex'
p2594
I12
sg15
Nsg30
g31
sg17
g2119
sg14
I6
sg19
(lp2595
S'd'
asg95
I12
sa(dp2596
g16
(lp2597
S'd'
asg18
S'N'
sg22
I13
sS'.thisN'
p2598
I299
sg20
S'Y'
sg32
g33
sS'.thisTrialN'
p2599
I14
sS'.thisRepN'
p2600
I19
sg21
I30
sS'.thisIndex'
p2601
I7
sg23
I25
sg15
(lp2602
S'k'
asg30
g31
sg17
S'N'
sg14
I6
sg19
Nsg95
I7
sa(dp2603
g16
(lp2604
S'k'
asg95
I6
sS'.thisRepN'
p2605
I20
sg30
g31
sg32
g33
sS'.thisTrialN'
p2606
I0
sS'.thisN'
p2607
I300
sS'.thisIndex'
p2608
I6
sg15
(lp2609
S'd'
asg17
S'N'
sg14
I7
sa(dp2610
g16
(lp2611
S'd'
asg95
I0
sS'.thisRepN'
p2612
I20
sg30
g31
sg32
g33
sS'.thisTrialN'
p2613
I1
sS'.thisN'
p2614
I301
sS'.thisIndex'
p2615
I0
sg15
(lp2616
S'k'
asg17
S'N'
sg14
I7
sa(dp2617
g16
(lp2618
S'k'
asg18
S'Y'
sS'.thisRepN'
p2619
I20
sg20
S'N'
sg32
g33
sS'.thisTrialN'
p2620
I2
sS'.thisN'
p2621
I302
sS'.thisIndex'
p2622
I10
sg15
(lp2623
S'k'
asg30
g31
sg17
S'Y'
sg14
I7
sg19
Nsg95
I10
sa(dp2624
g16
(lp2625
S'd'
asg18
S'N'
sS'.thisRepN'
p2626
I20
sg20
S'N'
sg32
g33
sS'.thisTrialN'
p2627
I3
sS'.thisN'
p2628
I303
sS'.thisIndex'
p2629
I2
sg15
(lp2630
S'd'
asg30
g31
sg17
S'Y'
sg14
I7
sg19
(lp2631
S'space'
p2632
asg95
I2
sa(dp2633
g16
(lp2634
S'd'
asg18
S'N'
sS'.thisRepN'
p2635
I20
sg20
S'Y'
sg32
g33
sS'.thisTrialN'
p2636
I4
sS'.thisN'
p2637
I304
sS'.thisIndex'
p2638
I7
sg15
(lp2639
S'd'
asg30
g31
sg17
S'Y'
sg14
I7
sg19
Nsg95
I7
sa(dp2640
g16
(lp2641
S'k'
asg18
S'Y'
sS'.thisRepN'
p2642
I20
sg20
S'Y'
sg32
g33
sS'.thisTrialN'
p2643
I5
sS'.thisN'
p2644
I305
sS'.thisIndex'
p2645
I7
sg15
(lp2646
S'k'
asg30
g31
sg17
S'Y'
sg14
I7
sg19
(lp2647
S'space'
p2648
asg95
I7
sa(dp2649
g16
(lp2650
S'k'
asg18
S'Y'
sS'.thisRepN'
p2651
I20
sg20
S'N'
sg32
g33
sS'.thisTrialN'
p2652
I6
sS'.thisN'
p2653
I306
sS'.thisIndex'
p2654
I12
sg15
(lp2655
S'd'
asg30
g31
sg17
S'N'
sg14
I7
sg19
(lp2656
S'd'
asg95
I12
sa(dp2657
g16
(lp2658
S'd'
asg18
S'N'
sS'.thisRepN'
p2659
I20
sg20
S'N'
sg32
g33
sS'.thisTrialN'
p2660
I7
sS'.thisN'
p2661
I307
sS'.thisIndex'
p2662
I14
sg15
(lp2663
S'd'
asg30
g31
sg17
S'Y'
sg14
I7
sg19
(lp2664
S'space'
p2665
asg95
I14
sa(dp2666
g16
(lp2667
S'k'
asg18
S'Y'
sS'.thisRepN'
p2668
I20
sg20
S'N'
sg32
g33
sS'.thisTrialN'
p2669
I8
sS'.thisN'
p2670
I308
sS'.thisIndex'
p2671
I3
sg15
(lp2672
S'd'
asg30
g31
sg17
S'N'
sg14
I7
sg19
Nsg95
I3
sa(dp2673
g16
(lp2674
S'd'
asg18
S'N'
sS'.thisRepN'
p2675
I20
sg20
S'Y'
sg32
g33
sS'.thisTrialN'
p2676
I9
sS'.thisN'
p2677
I309
sS'.thisIndex'
p2678
I3
sg15
(lp2679
S'd'
asg30
g31
sg17
S'Y'
sg14
I7
sg19
Nsg95
I3
sa(dp2680
g16
(lp2681
S'd'
asg18
S'N'
sS'.thisRepN'
p2682
I20
sg20
S'N'
sg32
g33
sS'.thisTrialN'
p2683
I10
sS'.thisN'
p2684
I310
sS'.thisIndex'
p2685
I13
sg15
(lp2686
S'd'
asg30
g31
sg17
S'Y'
sg14
I7
sg19
(lp2687
S'd'
asg95
I13
sa(dp2688
g16
(lp2689
S'k'
asg18
S'N'
sS'.thisRepN'
p2690
I20
sg20
S'N'
sg32
g33
sS'.thisTrialN'
p2691
I11
sS'.thisN'
p2692
I311
sS'.thisIndex'
p2693
I10
sg15
(lp2694
S'd'
asg30
g31
sg17
S'N'
sg14
I7
sg19
(lp2695
S'space'
p2696
asg95
I10
sa(dp2697
g16
(lp2698
S'd'
asg18
S'Y'
sS'.thisRepN'
p2699
I20
sg20
S'N'
sg32
g33
sS'.thisTrialN'
p2700
I12
sS'.thisN'
p2701
I312
sS'.thisIndex'
p2702
I11
sg15
(lp2703
S'k'
asg30
g31
sg17
S'N'
sg14
I7
sg19
Nsg95
I11
sa(dp2704
g16
(lp2705
S'k'
asg18
S'Y'
sS'.thisRepN'
p2706
I20
sg20
S'N'
sg32
g33
sS'.thisTrialN'
p2707
I13
sS'.thisN'
p2708
I313
sS'.thisIndex'
p2709
I4
sg15
(lp2710
S'd'
asg30
g31
sg17
S'N'
sg14
I7
sg19
(lp2711
S'd'
asg95
I4
sa(dp2712
g16
(lp2713
S'd'
asg18
S'Y'
sS'.thisRepN'
p2714
I20
sg20
S'N'
sg32
g33
sS'.thisTrialN'
p2715
I14
sS'.thisN'
p2716
I314
sS'.thisIndex'
p2717
I7
sg15
(lp2718
S'd'
asg30
g31
sg17
S'Y'
sg14
I7
sg19
Nsg95
I7
sa(dp2719
g16
(lp2720
S'd'
asg18
S'N'
sS'.thisRepN'
p2721
I21
sg20
S'Y'
sg32
g33
sS'.thisTrialN'
p2722
I0
sS'.thisN'
p2723
I315
sS'.thisIndex'
p2724
I8
sg15
(lp2725
S'k'
asg30
g31
sg17
S'N'
sg14
I7
sg19
Nsg95
I8
sa(dp2726
g16
(lp2727
S'd'
asg18
S'Y'
sS'.thisRepN'
p2728
I21
sg20
S'Y'
sg32
g33
sS'.thisTrialN'
p2729
I1
sS'.thisN'
p2730
I316
sS'.thisIndex'
p2731
I6
sg15
(lp2732
S'd'
asg30
g31
sg17
S'Y'
sg14
I7
sg19
(lp2733
S'space'
p2734
asg95
I6
sa(dp2735
g16
(lp2736
S'd'
asg18
S'Y'
sS'.thisRepN'
p2737
I21
sg20
S'N'
sg32
g33
sS'.thisTrialN'
p2738
I2
sS'.thisN'
p2739
I317
sS'.thisIndex'
p2740
I10
sg15
(lp2741
S'd'
asg30
g31
sg17
S'Y'
sg14
I7
sg19
Nsg95
I10
sa(dp2742
g16
(lp2743
S'd'
asg18
S'N'
sS'.thisRepN'
p2744
I21
sg20
S'Y'
sg32
g33
sS'.thisTrialN'
p2745
I3
sS'.thisN'
p2746
I318
sS'.thisIndex'
p2747
I11
sg15
(lp2748
S'd'
asg30
g31
sg17
S'Y'
sg14
I7
sg19
Nsg95
I11
sa(dp2749
g16
(lp2750
S'k'
asg18
S'Y'
sS'.thisRepN'
p2751
I21
sg20
S'Y'
sg32
g33
sS'.thisTrialN'
p2752
I4
sS'.thisN'
p2753
I319
sS'.thisIndex'
p2754
I13
sg15
(lp2755
S'd'
asg30
g31
sg17
S'N'
sg14
I7
sg19
(lp2756
S'space'
p2757
asg95
I13
sa(dp2758
g16
(lp2759
S'k'
asg18
S'Y'
sS'.thisRepN'
p2760
I21
sg20
S'Y'
sg32
g33
sS'.thisTrialN'
p2761
I5
sS'.thisN'
p2762
I320
sS'.thisIndex'
p2763
I1
sg15
(lp2764
S'k'
asg30
g31
sg17
S'Y'
sg14
I7
sg19
(lp2765
S'space'
p2766
asg95
I1
sa(dp2767
g16
(lp2768
S'k'
asg18
S'Y'
sS'.thisRepN'
p2769
I21
sg20
S'N'
sg32
g33
sS'.thisTrialN'
p2770
I6
sS'.thisN'
p2771
I321
sS'.thisIndex'
p2772
I2
sg15
(lp2773
S'd'
asg30
g31
sg17
S'N'
sg14
I7
sg19
(lp2774
S'd'
asg95
I2
sa(dp2775
g16
(lp2776
S'k'
asg18
S'N'
sS'.thisRepN'
p2777
I21
sg20
S'Y'
sg32
g33
sS'.thisTrialN'
p2778
I7
sS'.thisN'
p2779
I322
sS'.thisIndex'
p2780
I11
sg15
(lp2781
S'd'
asg30
g31
sg17
S'N'
sg14
I7
sg19
Nsg95
I11
sa(dp2782
g16
(lp2783
S'k'
asg18
S'Y'
sS'.thisRepN'
p2784
I21
sg20
S'N'
sg32
g33
sS'.thisTrialN'
p2785
I8
sS'.thisN'
p2786
I323
sS'.thisIndex'
p2787
I11
sg15
(lp2788
S'k'
asg30
g31
sg17
S'Y'
sg14
I7
sg19
(lp2789
S'k'
asg95
I11
sa(dp2790
g16
(lp2791
S'd'
asg18
S'N'
sS'.thisRepN'
p2792
I21
sg20
S'Y'
sg32
g33
sS'.thisTrialN'
p2793
I9
sS'.thisN'
p2794
I324
sS'.thisIndex'
p2795
I13
sg15
(lp2796
S'd'
asg30
g31
sg17
S'Y'
sg14
I7
sg19
Nsg95
I13
sa(dp2797
g16
(lp2798
S'd'
asg18
S'N'
sS'.thisRepN'
p2799
I21
sg20
S'N'
sg32
g33
sS'.thisTrialN'
p2800
I10
sS'.thisN'
p2801
I325
sS'.thisIndex'
p2802
I9
sg15
(lp2803
S'd'
asg30
g31
sg17
S'Y'
sg14
I7
sg19
(lp2804
S'd'
asg95
I9
sa(dp2805
g16
(lp2806
S'k'
asg18
S'N'
sS'.thisRepN'
p2807
I21
sg20
S'N'
sg32
g33
sS'.thisTrialN'
p2808
I11
sS'.thisN'
p2809
I326
sS'.thisIndex'
p2810
I5
sg15
(lp2811
S'd'
asg30
g31
sg17
S'N'
sg14
I7
sg19
(lp2812
S'space'
p2813
asg95
I5
sa(dp2814
g16
(lp2815
S'd'
asg18
S'Y'
sS'.thisRepN'
p2816
I21
sg20
S'N'
sg32
g33
sS'.thisTrialN'
p2817
I12
sS'.thisN'
p2818
I327
sS'.thisIndex'
p2819
I11
sg15
(lp2820
S'd'
asg30
g31
sg17
S'Y'
sg14
I7
sg19
Nsg95
I11
sa(dp2821
g16
(lp2822
S'd'
asg18
S'Y'
sS'.thisRepN'
p2823
I21
sg20
S'N'
sg32
g33
sS'.thisTrialN'
p2824
I13
sS'.thisN'
p2825
I328
sS'.thisIndex'
p2826
I10
sg15
(lp2827
S'd'
asg30
g31
sg17
S'Y'
sg14
I7
sg19
Nsg95
I10
sa(dp2828
g16
(lp2829
S'd'
asg18
S'N'
sS'.thisRepN'
p2830
I21
sg20
S'N'
sg32
g33
sS'.thisTrialN'
p2831
I14
sS'.thisN'
p2832
I329
sS'.thisIndex'
p2833
I8
sg15
(lp2834
S'd'
asg30
g31
sg17
S'Y'
sg14
I7
sg19
(lp2835
S'space'
p2836
asg95
I8
sa(dp2837
g16
(lp2838
S'k'
asg18
S'Y'
sS'.thisRepN'
p2839
I22
sg20
S'N'
sg32
g33
sS'.thisTrialN'
p2840
I0
sS'.thisN'
p2841
I330
sS'.thisIndex'
p2842
I13
sg15
(lp2843
S'k'
asg30
g31
sg17
S'Y'
sg14
I7
sg19
Nsg95
I13
sa(dp2844
g18
S'N'
sS'.thisRepN'
p2845
I22
sg20
S'N'
sg32
g33
sS'.thisTrialN'
p2846
I1
sS'.thisN'
p2847
I331
sS'.thisIndex'
p2848
I4
sg15
Nsg30
g31
sg17
g2119
sg14
I7
sg19
(lp2849
S'space'
p2850
asg95
I4
sa(dp2851
g16
(lp2852
S'd'
asg18
S'N'
sS'.thisRepN'
p2853
I22
sg20
S'Y'
sg32
g33
sS'.thisTrialN'
p2854
I2
sS'.thisN'
p2855
I332
sS'.thisIndex'
p2856
I1
sg15
(lp2857
S'd'
asg30
g31
sg17
S'Y'
sg14
I7
sg19
Nsg95
I1
sa(dp2858
g16
(lp2859
S'k'
asg18
S'N'
sS'.thisRepN'
p2860
I22
sg20
S'Y'
sg32
g33
sS'.thisTrialN'
p2861
I3
sS'.thisN'
p2862
I333
sS'.thisIndex'
p2863
I14
sg15
(lp2864
S'd'
asg30
g31
sg17
S'N'
sg14
I7
sg19
Nsg95
I14
sa(dp2865
g18
S'Y'
sS'.thisRepN'
p2866
I22
sg20
S'N'
sg32
g33
sS'.thisTrialN'
p2867
I4
sS'.thisN'
p2868
I334
sS'.thisIndex'
p2869
I10
sg15
Nsg30
g31
sg17
g2119
sg14
I7
sg19
Nsg95
I10
sa(dp2870
g16
(lp2871
S'k'
asg18
S'N'
sS'.thisRepN'
p2872
I22
sg20
S'N'
sg32
g33
sS'.thisTrialN'
p2873
I5
sS'.thisN'
p2874
I335
sS'.thisIndex'
p2875
I8
sg15
(lp2876
S'd'
asg30
g31
sg17
S'N'
sg14
I7
sg19
(lp2877
S'd'
asg95
I8
sa(dp2878
g16
(lp2879
S'k'
asg18
S'N'
sS'.thisRepN'
p2880
I22
sg20
S'N'
sg32
g33
sS'.thisTrialN'
p2881
I6
sS'.thisN'
p2882
I336
sS'.thisIndex'
p2883
I4
sg15
(lp2884
S'k'
asg30
g31
sg17
S'Y'
sg14
I7
sg19
(lp2885
S'space'
p2886
asg95
I4
sa(dp2887
g16
(lp2888
S'd'
asg18
S'N'
sS'.thisRepN'
p2889
I22
sg20
S'Y'
sg32
g33
sS'.thisTrialN'
p2890
I7
sS'.thisN'
p2891
I337
sS'.thisIndex'
p2892
I1
sg15
(lp2893
S'd'
asg30
g31
sg17
S'Y'
sg14
I7
sg19
Nsg95
I1
sa(dp2894
g16
(lp2895
S'd'
asg18
S'Y'
sS'.thisRepN'
p2896
I22
sg20
S'Y'
sg32
g33
sS'.thisTrialN'
p2897
I8
sS'.thisN'
p2898
I338
sS'.thisIndex'
p2899
I11
sg15
(lp2900
S'k'
asg30
g31
sg17
S'N'
sg14
I7
sg19
(lp2901
S'space'
p2902
asg95
I11
sa(dp2903
g18
S'N'
sS'.thisRepN'
p2904
I22
sg20
S'Y'
sg32
g33
sS'.thisTrialN'
p2905
I9
sS'.thisN'
p2906
I339
sS'.thisIndex'
p2907
I3
sg15
Nsg30
g31
sg17
g2119
sg14
I7
sg19
Nsg95
I3
sa(dp2908
g16
(lp2909
S'k'
asg18
S'N'
sS'.thisRepN'
p2910
I22
sg20
S'Y'
sg32
g33
sS'.thisTrialN'
p2911
I10
sS'.thisN'
p2912
I340
sS'.thisIndex'
p2913
I14
sg15
(lp2914
S'd'
asg30
g31
sg17
S'N'
sg14
I7
sg19
Nsg95
I14
sa(dp2915
g16
(lp2916
S'd'
asg18
S'Y'
sS'.thisRepN'
p2917
I22
sg20
S'Y'
sg32
g33
sS'.thisTrialN'
p2918
I11
sS'.thisN'
p2919
I341
sS'.thisIndex'
p2920
I8
sg15
(lp2921
S'k'
asg30
g31
sg17
S'N'
sg14
I7
sg19
(lp2922
S'space'
p2923
asg95
I8
sa(dp2924
g18
S'Y'
sS'.thisRepN'
p2925
I22
sg20
S'N'
sg32
g33
sS'.thisTrialN'
p2926
I12
sS'.thisN'
p2927
I342
sS'.thisIndex'
p2928
I14
sg15
Nsg30
g31
sg17
g2119
sg14
I7
sg19
Nsg95
I14
sa(dp2929
g16
(lp2930
S'k'
asg18
S'N'
sS'.thisRepN'
p2931
I22
sg20
S'Y'
sg32
g33
sS'.thisTrialN'
p2932
I13
sS'.thisN'
p2933
I343
sS'.thisIndex'
p2934
I5
sg15
(lp2935
S'k'
asg30
g31
sg17
S'Y'
sg14
I7
sg19
Nsg95
I5
sa(dp2936
g16
(lp2937
S'k'
asg18
S'N'
sS'.thisRepN'
p2938
I22
sg20
S'N'
sg32
g33
sS'.thisTrialN'
p2939
I14
sS'.thisN'
p2940
I344
sS'.thisIndex'
p2941
I12
sg15
(lp2942
S'd'
asg30
g31
sg17
S'N'
sg14
I7
sg19
(lp2943
S'space'
p2944
asg95
I12
sa(dp2945
g16
(lp2946
S'k'
asg18
S'Y'
sS'.thisRepN'
p2947
I23
sg20
S'Y'
sg32
g33
sS'.thisTrialN'
p2948
I0
sS'.thisN'
p2949
I345
sS'.thisIndex'
p2950
I3
sg15
(lp2951
S'k'
asg30
g31
sg17
S'Y'
sg14
I7
sg19
(lp2952
S'space'
p2953
asg95
I3
sa(dp2954
g16
(lp2955
S'k'
asg18
S'N'
sS'.thisRepN'
p2956
I23
sg20
S'Y'
sg32
g33
sS'.thisTrialN'
p2957
I1
sS'.thisN'
p2958
I346
sS'.thisIndex'
p2959
I3
sg15
(lp2960
S'k'
asg30
g31
sg17
S'Y'
sg14
I7
sg19
Nsg95
I3
sa(dp2961
g16
(lp2962
S'k'
asg18
S'N'
sS'.thisRepN'
p2963
I23
sg20
S'N'
sg32
g33
sS'.thisTrialN'
p2964
I2
sS'.thisN'
p2965
I347
sS'.thisIndex'
p2966
I4
sg15
(lp2967
S'd'
asg30
g31
sg17
S'N'
sg14
I7
sg19
(lp2968
S'space'
p2969
asg95
I4
sa(dp2970
g16
(lp2971
S'd'
asg18
S'Y'
sS'.thisRepN'
p2972
I23
sg20
S'Y'
sg32
g33
sS'.thisTrialN'
p2973
I3
sS'.thisN'
p2974
I348
sS'.thisIndex'
p2975
I14
sg15
(lp2976
S'k'
asg30
g31
sg17
S'N'
sg14
I7
sg19
(lp2977
S'space'
p2978
asg95
I14
sa(dp2979
g23
I22
sg18
S'N'
sg22
I22
sS'.thisN'
p2980
I349
sg20
S'Y'
sg32
g33
sS'.thisTrialN'
p2981
I4
sS'.thisRepN'
p2982
I23
sg21
I25
sS'.thisIndex'
p2983
I1
sg15
Nsg30
g31
sg17
g2119
sg14
I7
sg19
Nsg95
I1
sa(dp2984
g16
(lp2985
S'd'
asg95
I2
sS'.thisRepN'
p2986
I23
sg30
g31
sg32
g33
sS'.thisTrialN'
p2987
I5
sS'.thisN'
p2988
I350
sS'.thisIndex'
p2989
I2
sg15
(lp2990
S'k'
asg17
S'N'
sg14
I8
sa(dp2991
g95
I7
sS'.thisN'
p2992
I351
sg30
g31
sg32
g33
sS'.thisTrialN'
p2993
I6
sS'.thisRepN'
p2994
I23
sS'.thisIndex'
p2995
I7
sg15
Nsg17
g2119
sg14
I8
sa(dp2996
g16
(lp2997
S'd'
asg18
S'N'
sS'.thisRepN'
p2998
I23
sg20
S'Y'
sg32
g33
sS'.thisTrialN'
p2999
I7
sS'.thisN'
p3000
I352
sS'.thisIndex'
p3001
I5
sg15
(lp3002
S'k'
asg30
g31
sg17
S'N'
sg14
I8
sg19
Nsg95
I5
sa(dp3003
g18
S'Y'
sS'.thisRepN'
p3004
I23
sg20
S'Y'
sg32
g33
sS'.thisTrialN'
p3005
I8
sS'.thisN'
p3006
I353
sS'.thisIndex'
p3007
I0
sg15
Nsg30
g31
sg17
g2119
sg14
I8
sg19
(lp3008
S'space'
p3009
asg95
I0
sa(dp3010
g16
(lp3011
S'k'
asg18
S'N'
sS'.thisRepN'
p3012
I23
sg20
S'Y'
sg32
g33
sS'.thisTrialN'
p3013
I9
sS'.thisN'
p3014
I354
sS'.thisIndex'
p3015
I8
sg15
(lp3016
S'd'
asg30
g31
sg17
S'N'
sg14
I8
sg19
Nsg95
I8
sa(dp3017
g18
S'N'
sS'.thisRepN'
p3018
I23
sg20
S'Y'
sg32
g33
sS'.thisTrialN'
p3019
I10
sS'.thisN'
p3020
I355
sS'.thisIndex'
p3021
I9
sg15
Nsg30
g31
sg17
g2119
sg14
I8
sg19
Nsg95
I9
sa(dp3022
g18
S'N'
sS'.thisRepN'
p3023
I23
sg20
S'N'
sg32
g33
sS'.thisTrialN'
p3024
I11
sS'.thisN'
p3025
I356
sS'.thisIndex'
p3026
I10
sg15
Nsg30
g31
sg17
g2119
sg14
I8
sg19
(lp3027
S'space'
p3028
asg95
I10
sa(dp3029
g16
(lp3030
S'd'
asg18
S'N'
sS'.thisRepN'
p3031
I23
sg20
S'Y'
sg32
g33
sS'.thisTrialN'
p3032
I12
sS'.thisN'
p3033
I357
sS'.thisIndex'
p3034
I3
sg15
(lp3035
S'd'
asg30
g31
sg17
S'Y'
sg14
I8
sg19
Nsg95
I3
sa(dp3036
g16
(lp3037
S'k'
asg18
S'N'
sS'.thisRepN'
p3038
I23
sg20
S'N'
sg32
g33
sS'.thisTrialN'
p3039
I13
sS'.thisN'
p3040
I358
sS'.thisIndex'
p3041
I3
sg15
(lp3042
S'k'
asg30
g31
sg17
S'Y'
sg14
I8
sg19
(lp3043
S'space'
p3044
asg95
I3
sa(dp3045
g18
S'N'
sS'.thisRepN'
p3046
I23
sg20
S'Y'
sg32
g33
sS'.thisTrialN'
p3047
I14
sS'.thisN'
p3048
I359
sS'.thisIndex'
p3049
I4
sg15
Nsg30
g31
sg17
g2119
sg14
I8
sg19
Nsg95
I4
sa(dp3050
g18
S'N'
sS'.thisRepN'
p3051
I24
sg20
S'Y'
sg32
g33
sS'.thisTrialN'
p3052
I0
sS'.thisN'
p3053
I360
sS'.thisIndex'
p3054
I1
sg15
Nsg30
g31
sg17
g2119
sg14
I8
sg19
Nsg95
I1
sa(dp3055
g16
(lp3056
S'd'
asg18
S'Y'
sS'.thisRepN'
p3057
I24
sg20
S'N'
sg32
g33
sS'.thisTrialN'
p3058
I1
sS'.thisN'
p3059
I361
sS'.thisIndex'
p3060
I7
sg15
(lp3061
S'k'
asg30
g31
sg17
S'N'
sg14
I8
sg19
(lp3062
S'd'
asg95
I7
sa(dp3063
g16
(lp3064
S'd'
asg18
S'N'
sS'.thisRepN'
p3065
I24
sg20
S'N'
sg32
g33
sS'.thisTrialN'
p3066
I2
sS'.thisN'
p3067
I362
sS'.thisIndex'
p3068
I1
sg15
(lp3069
S'd'
asg30
g31
sg17
S'Y'
sg14
I8
sg19
(lp3070
S'space'
p3071
asg95
I1
sa(dp3072
g16
(lp3073
S'd'
asg18
S'Y'
sS'.thisRepN'
p3074
I24
sg20
S'N'
sg32
g33
sS'.thisTrialN'
p3075
I3
sS'.thisN'
p3076
I363
sS'.thisIndex'
p3077
I1
sg15
(lp3078
S'd'
asg30
g31
sg17
S'Y'
sg14
I8
sg19
Nsg95
I1
sa(dp3079
g16
(lp3080
S'd'
asg18
S'Y'
sS'.thisRepN'
p3081
I24
sg20
S'Y'
sg32
g33
sS'.thisTrialN'
p3082
I4
sS'.thisN'
p3083
I364
sS'.thisIndex'
p3084
I8
sg15
(lp3085
S'd'
asg30
g31
sg17
S'Y'
sg14
I8
sg19
(lp3086
S'space'
p3087
asg95
I8
sa(dp3088
g18
S'Y'
sS'.thisRepN'
p3089
I24
sg20
S'Y'
sg32
g33
sS'.thisTrialN'
p3090
I5
sS'.thisN'
p3091
I365
sS'.thisIndex'
p3092
I8
sg15
Nsg30
g31
sg17
g2119
sg14
I8
sg19
(lp3093
S'space'
p3094
asg95
I8
sa(dp3095
g18
S'N'
sS'.thisRepN'
p3096
I24
sg20
S'Y'
sg32
g33
sS'.thisTrialN'
p3097
I6
sS'.thisN'
p3098
I366
sS'.thisIndex'
p3099
I2
sg15
Nsg30
g31
sg17
g2119
sg14
I8
sg19
Nsg95
I2
sa(dp3100
g16
(lp3101
S'k'
asg18
S'Y'
sS'.thisRepN'
p3102
I24
sg20
S'N'
sg32
g33
sS'.thisTrialN'
p3103
I7
sS'.thisN'
p3104
I367
sS'.thisIndex'
p3105
I10
sg15
(lp3106
S'd'
asg30
g31
sg17
S'N'
sg14
I8
sg19
Nsg95
I10
sa(dp3107
g16
(lp3108
S'd'
asg18
S'N'
sS'.thisRepN'
p3109
I24
sg20
S'N'
sg32
g33
sS'.thisTrialN'
p3110
I8
sS'.thisN'
p3111
I368
sS'.thisIndex'
p3112
I10
sg15
(lp3113
S'k'
asg30
g31
sg17
S'N'
sg14
I8
sg19
(lp3114
S'space'
p3115
asg95
I10
sa(dp3116
g16
(lp3117
S'k'
asg18
S'Y'
sS'.thisRepN'
p3118
I24
sg20
S'Y'
sg32
g33
sS'.thisTrialN'
p3119
I9
sS'.thisN'
p3120
I369
sS'.thisIndex'
p3121
I7
sg15
(lp3122
S'd'
asg30
g31
sg17
S'N'
sg14
I8
sg19
(lp3123
S'space'
p3124
asg95
I7
sa(dp3125
g16
(lp3126
S'd'
asg18
S'Y'
sS'.thisRepN'
p3127
I24
sg20
S'Y'
sg32
g33
sS'.thisTrialN'
p3128
I10
sS'.thisN'
p3129
I370
sS'.thisIndex'
p3130
I2
sg15
(lp3131
S'k'
asg30
g31
sg17
S'N'
sg14
I8
sg19
(lp3132
S'space'
p3133
asg95
I2
sa(dp3134
g16
(lp3135
S'k'
asg18
S'Y'
sS'.thisRepN'
p3136
I24
sg20
S'Y'
sg32
g33
sS'.thisTrialN'
p3137
I11
sS'.thisN'
p3138
I371
sS'.thisIndex'
p3139
I10
sg15
(lp3140
S'd'
asg30
g31
sg17
S'N'
sg14
I8
sg19
(lp3141
S'space'
p3142
asg95
I10
sa(dp3143
g16
(lp3144
S'k'
asg18
S'Y'
sS'.thisRepN'
p3145
I24
sg20
S'Y'
sg32
g33
sS'.thisTrialN'
p3146
I12
sS'.thisN'
p3147
I372
sS'.thisIndex'
p3148
I8
sg15
(lp3149
S'd'
asg30
g31
sg17
S'N'
sg14
I8
sg19
(lp3150
S'space'
p3151
asg95
I8
sa(dp3152
g16
(lp3153
S'd'
asg18
S'N'
sS'.thisRepN'
p3154
I24
sg20
S'N'
sg32
g33
sS'.thisTrialN'
p3155
I13
sS'.thisN'
p3156
I373
sS'.thisIndex'
p3157
I1
sg15
(lp3158
S'd'
asg30
g31
sg17
S'Y'
sg14
I8
sg19
(lp3159
S'k'
asg95
I1
sa(dp3160
g18
S'Y'
sS'.thisRepN'
p3161
I24
sg20
S'Y'
sg32
g33
sS'.thisTrialN'
p3162
I14
sS'.thisN'
p3163
I374
sS'.thisIndex'
p3164
I6
sg15
Nsg30
g31
sg17
g2119
sg14
I8
sg19
(lp3165
S'space'
p3166
asg95
I6
sa(dp3167
g16
(lp3168
S'd'
asg18
S'Y'
sS'.thisRepN'
p3169
I25
sg20
S'N'
sg32
g33
sS'.thisTrialN'
p3170
I0
sS'.thisN'
p3171
I375
sS'.thisIndex'
p3172
I2
sg15
(lp3173
S'k'
asg30
g31
sg17
S'N'
sg14
I8
sg19
Nsg95
I2
sa(dp3174
g16
(lp3175
S'd'
asg18
S'N'
sS'.thisRepN'
p3176
I25
sg20
S'N'
sg32
g33
sS'.thisTrialN'
p3177
I1
sS'.thisN'
p3178
I376
sS'.thisIndex'
p3179
I6
sg15
(lp3180
S'd'
asg30
g31
sg17
S'Y'
sg14
I8
sg19
(lp3181
S'space'
p3182
asg95
I6
sa(dp3183
g18
S'Y'
sS'.thisRepN'
p3184
I25
sg20
S'N'
sg32
g33
sS'.thisTrialN'
p3185
I2
sS'.thisN'
p3186
I377
sS'.thisIndex'
p3187
I1
sg15
Nsg30
g31
sg17
g2119
sg14
I8
sg19
Nsg95
I1
sa(dp3188
g16
(lp3189
S'd'
asg18
S'Y'
sS'.thisRepN'
p3190
I25
sg20
S'Y'
sg32
g33
sS'.thisTrialN'
p3191
I3
sS'.thisN'
p3192
I378
sS'.thisIndex'
p3193
I14
sg15
(lp3194
S'k'
asg30
g31
sg17
S'N'
sg14
I8
sg19
(lp3195
S'space'
p3196
asg95
I14
sa(dp3197
g18
S'N'
sS'.thisRepN'
p3198
I25
sg20
S'N'
sg32
g33
sS'.thisTrialN'
p3199
I4
sS'.thisN'
p3200
I379
sS'.thisIndex'
p3201
I12
sg15
Nsg30
g31
sg17
g2119
sg14
I8
sg19
(lp3202
S'space'
p3203
asg95
I12
sa(dp3204
g18
S'Y'
sS'.thisRepN'
p3205
I25
sg20
S'N'
sg32
g33
sS'.thisTrialN'
p3206
I5
sS'.thisN'
p3207
I380
sS'.thisIndex'
p3208
I4
sg15
Nsg30
g31
sg17
g2119
sg14
I8
sg19
Nsg95
I4
sa(dp3209
g16
(lp3210
S'd'
asg18
S'Y'
sS'.thisRepN'
p3211
I25
sg20
S'Y'
sg32
g33
sS'.thisTrialN'
p3212
I6
sS'.thisN'
p3213
I381
sS'.thisIndex'
p3214
I0
sg15
(lp3215
S'd'
asg30
g31
sg17
S'Y'
sg14
I8
sg19
(lp3216
S'space'
p3217
asg95
I0
sa(dp3218
g18
S'N'
sS'.thisRepN'
p3219
I25
sg20
S'Y'
sg32
g33
sS'.thisTrialN'
p3220
I7
sS'.thisN'
p3221
I382
sS'.thisIndex'
p3222
I11
sg15
Nsg30
g31
sg17
g2119
sg14
I8
sg19
Nsg95
I11
sa(dp3223
g18
S'N'
sS'.thisRepN'
p3224
I25
sg20
S'Y'
sg32
g33
sS'.thisTrialN'
p3225
I8
sS'.thisN'
p3226
I383
sS'.thisIndex'
p3227
I12
sg15
Nsg30
g31
sg17
g2119
sg14
I8
sg19
Nsg95
I12
sa(dp3228
g16
(lp3229
S'k'
asg18
S'Y'
sS'.thisRepN'
p3230
I25
sg20
S'N'
sg32
g33
sS'.thisTrialN'
p3231
I9
sS'.thisN'
p3232
I384
sS'.thisIndex'
p3233
I10
sg15
(lp3234
S'd'
asg30
g31
sg17
S'N'
sg14
I8
sg19
(lp3235
S'd'
asg95
I10
sa(dp3236
g16
(lp3237
S'd'
asg18
S'N'
sS'.thisRepN'
p3238
I25
sg20
S'N'
sg32
g33
sS'.thisTrialN'
p3239
I10
sS'.thisN'
p3240
I385
sS'.thisIndex'
p3241
I4
sg15
(lp3242
S'k'
asg30
g31
sg17
S'N'
sg14
I8
sg19
(lp3243
S'space'
p3244
asg95
I4
sa(dp3245
g16
(lp3246
S'd'
asg18
S'N'
sS'.thisRepN'
p3247
I25
sg20
S'N'
sg32
g33
sS'.thisTrialN'
p3248
I11
sS'.thisN'
p3249
I386
sS'.thisIndex'
p3250
I12
sg15
(lp3251
S'd'
asg30
g31
sg17
S'Y'
sg14
I8
sg19
(lp3252
S'd'
asg95
I12
sa(dp3253
g16
(lp3254
S'k'
asg18
S'N'
sS'.thisRepN'
p3255
I25
sg20
S'N'
sg32
g33
sS'.thisTrialN'
p3256
I12
sS'.thisN'
p3257
I387
sS'.thisIndex'
p3258
I2
sg15
(lp3259
S'd'
asg30
g31
sg17
S'N'
sg14
I8
sg19
(lp3260
S'space'
p3261
asg95
I2
sa(dp3262
g16
(lp3263
S'k'
asg18
S'N'
sS'.thisRepN'
p3264
I25
sg20
S'N'
sg32
g33
sS'.thisTrialN'
p3265
I13
sS'.thisN'
p3266
I388
sS'.thisIndex'
p3267
I0
sg15
(lp3268
S'k'
asg30
g31
sg17
S'Y'
sg14
I8
sg19
(lp3269
S'space'
p3270
asg95
I0
sa(dp3271
g16
(lp3272
S'd'
asg18
S'Y'
sS'.thisRepN'
p3273
I25
sg20
S'N'
sg32
g33
sS'.thisTrialN'
p3274
I14
sS'.thisN'
p3275
I389
sS'.thisIndex'
p3276
I13
sg15
(lp3277
S'k'
asg30
g31
sg17
S'N'
sg14
I8
sg19
Nsg95
I13
sa(dp3278
g16
(lp3279
S'k'
asg18
S'N'
sS'.thisRepN'
p3280
I26
sg20
S'N'
sg32
g33
sS'.thisTrialN'
p3281
I0
sS'.thisN'
p3282
I390
sS'.thisIndex'
p3283
I2
sg15
(lp3284
S'd'
asg30
g31
sg17
S'N'
sg14
I8
sg19
(lp3285
S'space'
p3286
asg95
I2
sa(dp3287
g16
(lp3288
S'd'
asg18
S'N'
sS'.thisRepN'
p3289
I26
sg20
S'Y'
sg32
g33
sS'.thisTrialN'
p3290
I1
sS'.thisN'
p3291
I391
sS'.thisIndex'
p3292
I12
sg15
(lp3293
S'd'
asg30
g31
sg17
S'Y'
sg14
I8
sg19
Nsg95
I12
sa(dp3294
g16
(lp3295
S'k'
asg18
S'Y'
sS'.thisRepN'
p3296
I26
sg20
S'Y'
sg32
g33
sS'.thisTrialN'
p3297
I2
sS'.thisN'
p3298
I392
sS'.thisIndex'
p3299
I7
sg15
(lp3300
S'd'
asg30
g31
sg17
S'N'
sg14
I8
sg19
(lp3301
S'space'
p3302
asg95
I7
sa(dp3303
g16
(lp3304
S'k'
asg18
S'Y'
sS'.thisRepN'
p3305
I26
sg20
S'N'
sg32
g33
sS'.thisTrialN'
p3306
I3
sS'.thisN'
p3307
I393
sS'.thisIndex'
p3308
I11
sg15
(lp3309
S'k'
asg30
g31
sg17
S'Y'
sg14
I8
sg19
(lp3310
S'k'
asg95
I11
sa(dp3311
g18
S'Y'
sS'.thisRepN'
p3312
I26
sg20
S'N'
sg32
g33
sS'.thisTrialN'
p3313
I4
sS'.thisN'
p3314
I394
sS'.thisIndex'
p3315
I1
sg15
Nsg30
g31
sg17
g2119
sg14
I8
sg19
Nsg95
I1
sa(dp3316
g16
(lp3317
S'd'
asg18
S'Y'
sS'.thisRepN'
p3318
I26
sg20
S'N'
sg32
g33
sS'.thisTrialN'
p3319
I5
sS'.thisN'
p3320
I395
sS'.thisIndex'
p3321
I8
sg15
(lp3322
S'd'
asg30
g31
sg17
S'Y'
sg14
I8
sg19
Nsg95
I8
sa(dp3323
g16
(lp3324
S'k'
asg18
S'N'
sS'.thisRepN'
p3325
I26
sg20
S'N'
sg32
g33
sS'.thisTrialN'
p3326
I6
sS'.thisN'
p3327
I396
sS'.thisIndex'
p3328
I1
sg15
(lp3329
S'k'
asg30
g31
sg17
S'Y'
sg14
I8
sg19
(lp3330
S'space'
p3331
asg95
I1
sa(dp3332
g16
(lp3333
S'd'
asg18
S'Y'
sS'.thisRepN'
p3334
I26
sg20
S'N'
sg32
g33
sS'.thisTrialN'
p3335
I7
sS'.thisN'
p3336
I397
sS'.thisIndex'
p3337
I4
sg15
(lp3338
S'k'
asg30
g31
sg17
S'N'
sg14
I8
sg19
(lp3339
S'd'
asg95
I4
sa(dp3340
g16
(lp3341
S'k'
asg18
S'N'
sS'.thisRepN'
p3342
I26
sg20
S'N'
sg32
g33
sS'.thisTrialN'
p3343
I8
sS'.thisN'
p3344
I398
sS'.thisIndex'
p3345
I0
sg15
(lp3346
S'd'
asg30
g31
sg17
S'N'
sg14
I8
sg19
(lp3347
S'space'
p3348
asg95
I0
sa(dp3349
g16
(lp3350
S'k'
asg18
S'Y'
sg22
I22
sS'.thisN'
p3351
I399
sg20
S'Y'
sg32
g33
sS'.thisTrialN'
p3352
I9
sS'.thisRepN'
p3353
I26
sg21
I15
sS'.thisIndex'
p3354
I9
sg23
I24
sg15
(lp3355
S'k'
asg30
g31
sg17
S'Y'
sg14
I8
sg19
(lp3356
S'space'
p3357
asg95
I9
sa(dp3358
g16
(lp3359
S'd'
asg95
I13
sS'.thisRepN'
p3360
I26
sg30
g31
sg32
g33
sS'.thisTrialN'
p3361
I10
sS'.thisN'
p3362
I400
sS'.thisIndex'
p3363
I13
sg15
(lp3364
S'k'
asg17
S'N'
sg14
I9
sa(dp3365
g95
I7
sS'.thisN'
p3366
I401
sg30
g31
sg32
g33
sS'.thisTrialN'
p3367
I11
sS'.thisRepN'
p3368
I26
sS'.thisIndex'
p3369
I7
sg15
Nsg17
g2119
sg14
I9
sa(dp3370
g16
(lp3371
S'd'
asg18
S'Y'
sS'.thisRepN'
p3372
I26
sg20
S'N'
sg32
g33
sS'.thisTrialN'
p3373
I12
sS'.thisN'
p3374
I402
sS'.thisIndex'
p3375
I12
sg15
(lp3376
S'k'
asg30
g31
sg17
S'N'
sg14
I9
sg19
Nsg95
I12
sa(dp3377
g16
(lp3378
S'k'
asg18
S'Y'
sS'.thisRepN'
p3379
I26
sg20
S'N'
sg32
g33
sS'.thisTrialN'
p3380
I13
sS'.thisN'
p3381
I403
sS'.thisIndex'
p3382
I1
sg15
(lp3383
S'd'
asg30
g31
sg17
S'N'
sg14
I9
sg19
(lp3384
S'd'
asg95
I1
sa(dp3385
g16
(lp3386
S'k'
asg18
S'Y'
sS'.thisRepN'
p3387
I26
sg20
S'Y'
sg32
g33
sS'.thisTrialN'
p3388
I14
sS'.thisN'
p3389
I404
sS'.thisIndex'
p3390
I9
sg15
(lp3391
S'k'
asg30
g31
sg17
S'Y'
sg14
I9
sg19
(lp3392
S'space'
p3393
asg95
I9
sa(dp3394
g16
(lp3395
S'd'
asg18
S'Y'
sS'.thisRepN'
p3396
I27
sg20
S'N'
sg32
g33
sS'.thisTrialN'
p3397
I0
sS'.thisN'
p3398
I405
sS'.thisIndex'
p3399
I6
sg15
(lp3400
S'k'
asg30
g31
sg17
S'N'
sg14
I9
sg19
(lp3401
S'd'
asg95
I6
sa(dp3402
g16
(lp3403
S'd'
asg18
S'N'
sS'.thisRepN'
p3404
I27
sg20
S'N'
sg32
g33
sS'.thisTrialN'
p3405
I1
sS'.thisN'
p3406
I406
sS'.thisIndex'
p3407
I4
sg15
(lp3408
S'd'
asg30
g31
sg17
S'Y'
sg14
I9
sg19
(lp3409
S'd'
asg95
I4
sa(dp3410
g16
(lp3411
S'k'
asg18
S'Y'
sS'.thisRepN'
p3412
I27
sg20
S'N'
sg32
g33
sS'.thisTrialN'
p3413
I2
sS'.thisN'
p3414
I407
sS'.thisIndex'
p3415
I12
sg15
(lp3416
S'k'
asg30
g31
sg17
S'Y'
sg14
I9
sg19
(lp3417
S'd'
asg95
I12
sa(dp3418
g16
(lp3419
S'd'
asg18
S'N'
sS'.thisRepN'
p3420
I27
sg20
S'Y'
sg32
g33
sS'.thisTrialN'
p3421
I3
sS'.thisN'
p3422
I408
sS'.thisIndex'
p3423
I4
sg15
(lp3424
S'd'
asg30
g31
sg17
S'Y'
sg14
I9
sg19
Nsg95
I4
sa(dp3425
g18
S'N'
sS'.thisRepN'
p3426
I27
sg20
S'N'
sg32
g33
sS'.thisTrialN'
p3427
I4
sS'.thisN'
p3428
I409
sS'.thisIndex'
p3429
I5
sg15
Nsg30
g31
sg17
g2119
sg14
I9
sg19
(lp3430
S'k'
asg95
I5
sa(dp3431
g16
(lp3432
S'd'
asg18
S'Y'
sS'.thisRepN'
p3433
I27
sg20
S'N'
sg32
g33
sS'.thisTrialN'
p3434
I5
sS'.thisN'
p3435
I410
sS'.thisIndex'
p3436
I8
sg15
(lp3437
S'd'
asg30
g31
sg17
S'Y'
sg14
I9
sg19
Nsg95
I8
sa(dp3438
g16
(lp3439
S'k'
asg18
S'Y'
sS'.thisRepN'
p3440
I27
sg20
S'N'
sg32
g33
sS'.thisTrialN'
p3441
I6
sS'.thisN'
p3442
I411
sS'.thisIndex'
p3443
I8
sg15
(lp3444
S'd'
asg30
g31
sg17
S'N'
sg14
I9
sg19
(lp3445
S'k'
asg95
I8
sa(dp3446
g16
(lp3447
S'd'
asg18
S'N'
sS'.thisRepN'
p3448
I27
sg20
S'N'
sg32
g33
sS'.thisTrialN'
p3449
I7
sS'.thisN'
p3450
I412
sS'.thisIndex'
p3451
I5
sg15
(lp3452
S'k'
asg30
g31
sg17
S'N'
sg14
I9
sg19
(lp3453
S'space'
p3454
asg95
I5
sa(dp3455
g16
(lp3456
S'k'
asg18
S'N'
sS'.thisRepN'
p3457
I27
sg20
S'N'
sg32
g33
sS'.thisTrialN'
p3458
I8
sS'.thisN'
p3459
I413
sS'.thisIndex'
p3460
I14
sg15
(lp3461
S'd'
asg30
g31
sg17
S'N'
sg14
I9
sg19
(lp3462
S'd'
asg95
I14
sa(dp3463
g16
(lp3464
S'd'
asg18
S'Y'
sS'.thisRepN'
p3465
I27
sg20
S'Y'
sg32
g33
sS'.thisTrialN'
p3466
I9
sS'.thisN'
p3467
I414
sS'.thisIndex'
p3468
I0
sg15
(lp3469
S'k'
asg30
g31
sg17
S'N'
sg14
I9
sg19
(lp3470
S'space'
p3471
asg95
I0
sa(dp3472
g16
(lp3473
S'd'
asg18
S'N'
sS'.thisRepN'
p3474
I27
sg20
S'N'
sg32
g33
sS'.thisTrialN'
p3475
I10
sS'.thisN'
p3476
I415
sS'.thisIndex'
p3477
I5
sg15
(lp3478
S'd'
asg30
g31
sg17
S'Y'
sg14
I9
sg19
(lp3479
S'space'
p3480
asg95
I5
sa(dp3481
g16
(lp3482
S'd'
asg18
S'N'
sS'.thisRepN'
p3483
I27
sg20
S'N'
sg32
g33
sS'.thisTrialN'
p3484
I11
sS'.thisN'
p3485
I416
sS'.thisIndex'
p3486
I11
sg15
(lp3487
S'k'
asg30
g31
sg17
S'N'
sg14
I9
sg19
(lp3488
S'space'
p3489
asg95
I11
sa(dp3490
g16
(lp3491
S'd'
asg18
S'N'
sS'.thisRepN'
p3492
I27
sg20
S'N'
sg32
g33
sS'.thisTrialN'
p3493
I12
sS'.thisN'
p3494
I417
sS'.thisIndex'
p3495
I8
sg15
(lp3496
S'd'
asg30
g31
sg17
S'Y'
sg14
I9
sg19
(lp3497
S'space'
p3498
asg95
I8
sa(dp3499
g16
(lp3500
S'k'
asg18
S'Y'
sS'.thisRepN'
p3501
I27
sg20
S'Y'
sg32
g33
sS'.thisTrialN'
p3502
I13
sS'.thisN'
p3503
I418
sS'.thisIndex'
p3504
I14
sg15
(lp3505
S'd'
asg30
g31
sg17
S'N'
sg14
I9
sg19
(lp3506
S'space'
p3507
asg95
I14
sa(dp3508
g16
(lp3509
S'k'
asg18
S'N'
sS'.thisRepN'
p3510
I27
sg20
S'N'
sg32
g33
sS'.thisTrialN'
p3511
I14
sS'.thisN'
p3512
I419
sS'.thisIndex'
p3513
I13
sg15
(lp3514
S'k'
asg30
g31
sg17
S'Y'
sg14
I9
sg19
(lp3515
S'k'
asg95
I13
sa(dp3516
g16
(lp3517
S'k'
asg18
S'N'
sS'.thisRepN'
p3518
I28
sg20
S'N'
sg32
g33
sS'.thisTrialN'
p3519
I0
sS'.thisN'
p3520
I420
sS'.thisIndex'
p3521
I5
sg15
(lp3522
S'd'
asg30
g31
sg17
S'N'
sg14
I9
sg19
(lp3523
S'space'
p3524
asg95
I5
sa(dp3525
g16
(lp3526
S'd'
asg18
S'N'
sS'.thisRepN'
p3527
I28
sg20
S'N'
sg32
g33
sS'.thisTrialN'
p3528
I1
sS'.thisN'
p3529
I421
sS'.thisIndex'
p3530
I4
sg15
(lp3531
S'k'
asg30
g31
sg17
S'N'
sg14
I9
sg19
(lp3532
S'space'
p3533
asg95
I4
sa(dp3534
g16
(lp3535
S'd'
asg18
S'Y'
sS'.thisRepN'
p3536
I28
sg20
S'Y'
sg32
g33
sS'.thisTrialN'
p3537
I2
sS'.thisN'
p3538
I422
sS'.thisIndex'
p3539
I0
sg15
(lp3540
S'd'
asg30
g31
sg17
S'Y'
sg14
I9
sg19
(lp3541
S'space'
p3542
asg95
I0
sa(dp3543
g16
(lp3544
S'k'
asg18
S'N'
sS'.thisRepN'
p3545
I28
sg20
S'Y'
sg32
g33
sS'.thisTrialN'
p3546
I3
sS'.thisN'
p3547
I423
sS'.thisIndex'
p3548
I7
sg15
(lp3549
S'd'
asg30
g31
sg17
S'N'
sg14
I9
sg19
Nsg95
I7
sa(dp3550
g16
(lp3551
S'd'
asg18
S'Y'
sS'.thisRepN'
p3552
I28
sg20
S'N'
sg32
g33
sS'.thisTrialN'
p3553
I4
sS'.thisN'
p3554
I424
sS'.thisIndex'
p3555
I14
sg15
(lp3556
S'd'
asg30
g31
sg17
S'Y'
sg14
I9
sg19
(lp3557
S'k'
asg95
I14
sa(dp3558
g16
(lp3559
S'd'
asg18
S'N'
sS'.thisRepN'
p3560
I28
sg20
S'Y'
sg32
g33
sS'.thisTrialN'
p3561
I5
sS'.thisN'
p3562
I425
sS'.thisIndex'
p3563
I12
sg15
(lp3564
S'd'
asg30
g31
sg17
S'Y'
sg14
I9
sg19
Nsg95
I12
sa(dp3565
g16
(lp3566
S'd'
asg18
S'Y'
sS'.thisRepN'
p3567
I28
sg20
S'Y'
sg32
g33
sS'.thisTrialN'
p3568
I6
sS'.thisN'
p3569
I426
sS'.thisIndex'
p3570
I8
sg15
(lp3571
S'd'
asg30
g31
sg17
S'Y'
sg14
I9
sg19
(lp3572
S'space'
p3573
asg95
I8
sa(dp3574
g16
(lp3575
S'k'
asg18
S'Y'
sS'.thisRepN'
p3576
I28
sg20
S'N'
sg32
g33
sS'.thisTrialN'
p3577
I7
sS'.thisN'
p3578
I427
sS'.thisIndex'
p3579
I7
sg15
(lp3580
S'd'
asg30
g31
sg17
S'N'
sg14
I9
sg19
Nsg95
I7
sa(dp3581
g16
(lp3582
S'd'
asg18
S'Y'
sS'.thisRepN'
p3583
I28
sg20
S'N'
sg32
g33
sS'.thisTrialN'
p3584
I8
sS'.thisN'
p3585
I428
sS'.thisIndex'
p3586
I8
sg15
(lp3587
S'k'
asg30
g31
sg17
S'N'
sg14
I9
sg19
(lp3588
S'k'
asg95
I8
sa(dp3589
g16
(lp3590
S'd'
asg18
S'N'
sS'.thisRepN'
p3591
I28
sg20
S'N'
sg32
g33
sS'.thisTrialN'
p3592
I9
sS'.thisN'
p3593
I429
sS'.thisIndex'
p3594
I8
sg15
(lp3595
S'd'
asg30
g31
sg17
S'Y'
sg14
I9
sg19
(lp3596
S'space'
p3597
asg95
I8
sa(dp3598
g16
(lp3599
S'k'
asg18
S'N'
sS'.thisRepN'
p3600
I28
sg20
S'Y'
sg32
g33
sS'.thisTrialN'
p3601
I10
sS'.thisN'
p3602
I430
sS'.thisIndex'
p3603
I13
sg15
(lp3604
S'k'
asg30
g31
sg17
S'Y'
sg14
I9
sg19
Nsg95
I13
sa(dp3605
g16
(lp3606
S'd'
asg18
S'Y'
sS'.thisRepN'
p3607
I28
sg20
S'Y'
sg32
g33
sS'.thisTrialN'
p3608
I11
sS'.thisN'
p3609
I431
sS'.thisIndex'
p3610
I2
sg15
(lp3611
S'd'
asg30
g31
sg17
S'Y'
sg14
I9
sg19
(lp3612
S'space'
p3613
asg95
I2
sa(dp3614
g16
(lp3615
S'k'
asg18
S'N'
sS'.thisRepN'
p3616
I28
sg20
S'Y'
sg32
g33
sS'.thisTrialN'
p3617
I12
sS'.thisN'
p3618
I432
sS'.thisIndex'
p3619
I14
sg15
(lp3620
S'k'
asg30
g31
sg17
S'Y'
sg14
I9
sg19
Nsg95
I14
sa(dp3621
g16
(lp3622
S'd'
asg18
S'Y'
sS'.thisRepN'
p3623
I28
sg20
S'Y'
sg32
g33
sS'.thisTrialN'
p3624
I13
sS'.thisN'
p3625
I433
sS'.thisIndex'
p3626
I3
sg15
(lp3627
S'd'
asg30
g31
sg17
S'Y'
sg14
I9
sg19
(lp3628
S'space'
p3629
asg95
I3
sa(dp3630
g16
(lp3631
S'd'
asg18
S'Y'
sS'.thisRepN'
p3632
I28
sg20
S'Y'
sg32
g33
sS'.thisTrialN'
p3633
I14
sS'.thisN'
p3634
I434
sS'.thisIndex'
p3635
I9
sg15
(lp3636
S'd'
asg30
g31
sg17
S'Y'
sg14
I9
sg19
(lp3637
S'space'
p3638
asg95
I9
sa(dp3639
g16
(lp3640
S'd'
asg18
S'N'
sS'.thisRepN'
p3641
I29
sg20
S'N'
sg32
g33
sS'.thisTrialN'
p3642
I0
sS'.thisN'
p3643
I435
sS'.thisIndex'
p3644
I3
sg15
(lp3645
S'k'
asg30
g31
sg17
S'N'
sg14
I9
sg19
(lp3646
S'space'
p3647
asg95
I3
sa(dp3648
g16
(lp3649
S'd'
asg18
S'Y'
sS'.thisRepN'
p3650
I29
sg20
S'N'
sg32
g33
sS'.thisTrialN'
p3651
I1
sS'.thisN'
p3652
I436
sS'.thisIndex'
p3653
I14
sg15
(lp3654
S'd'
asg30
g31
sg17
S'Y'
sg14
I9
sg19
Nsg95
I14
sa(dp3655
g16
(lp3656
S'k'
asg18
S'Y'
sS'.thisRepN'
p3657
I29
sg20
S'Y'
sg32
g33
sS'.thisTrialN'
p3658
I2
sS'.thisN'
p3659
I437
sS'.thisIndex'
p3660
I1
sg15
(lp3661
S'd'
asg30
g31
sg17
S'N'
sg14
I9
sg19
(lp3662
S'space'
p3663
asg95
I1
sa(dp3664
g16
(lp3665
S'd'
asg18
S'N'
sS'.thisRepN'
p3666
I29
sg20
S'N'
sg32
g33
sS'.thisTrialN'
p3667
I3
sS'.thisN'
p3668
I438
sS'.thisIndex'
p3669
I6
sg15
(lp3670
S'k'
asg30
g31
sg17
S'N'
sg14
I9
sg19
(lp3671
S'k'
asg95
I6
sa(dp3672
g16
(lp3673
S'k'
asg18
S'N'
sS'.thisRepN'
p3674
I29
sg20
S'N'
sg32
g33
sS'.thisTrialN'
p3675
I4
sS'.thisN'
p3676
I439
sS'.thisIndex'
p3677
I1
sg15
(lp3678
S'd'
asg30
g31
sg17
S'N'
sg14
I9
sg19
(lp3679
S'space'
p3680
asg95
I1
sa(dp3681
g16
(lp3682
S'd'
asg18
S'Y'
sS'.thisRepN'
p3683
I29
sg20
S'N'
sg32
g33
sS'.thisTrialN'
p3684
I5
sS'.thisN'
p3685
I440
sS'.thisIndex'
p3686
I4
sg15
(lp3687
S'k'
asg30
g31
sg17
S'N'
sg14
I9
sg19
Nsg95
I4
sa(dp3688
g16
(lp3689
S'k'
asg18
S'Y'
sS'.thisRepN'
p3690
I29
sg20
S'N'
sg32
g33
sS'.thisTrialN'
p3691
I6
sS'.thisN'
p3692
I441
sS'.thisIndex'
p3693
I3
sg15
(lp3694
S'd'
asg30
g31
sg17
S'N'
sg14
I9
sg19
Nsg95
I3
sa(dp3695
g16
(lp3696
S'd'
asg18
S'Y'
sS'.thisRepN'
p3697
I29
sg20
S'Y'
sg32
g33
sS'.thisTrialN'
p3698
I7
sS'.thisN'
p3699
I442
sS'.thisIndex'
p3700
I14
sg15
(lp3701
S'k'
asg30
g31
sg17
S'N'
sg14
I9
sg19
(lp3702
S'space'
p3703
asg95
I14
sa(dp3704
g16
(lp3705
S'k'
asg18
S'Y'
sS'.thisRepN'
p3706
I29
sg20
S'Y'
sg32
g33
sS'.thisTrialN'
p3707
I8
sS'.thisN'
p3708
I443
sS'.thisIndex'
p3709
I5
sg15
(lp3710
S'd'
asg30
g31
sg17
S'N'
sg14
I9
sg19
(lp3711
S'space'
p3712
asg95
I5
sa(dp3713
g16
(lp3714
S'k'
asg18
S'Y'
sS'.thisRepN'
p3715
I29
sg20
S'Y'
sg32
g33
sS'.thisTrialN'
p3716
I9
sS'.thisN'
p3717
I444
sS'.thisIndex'
p3718
I1
sg15
(lp3719
S'k'
asg30
g31
sg17
S'Y'
sg14
I9
sg19
(lp3720
S'space'
p3721
asg95
I1
sa(dp3722
g16
(lp3723
S'k'
asg18
S'N'
sS'.thisRepN'
p3724
I29
sg20
S'Y'
sg32
g33
sS'.thisTrialN'
p3725
I10
sS'.thisN'
p3726
I445
sS'.thisIndex'
p3727
I2
sg15
(lp3728
S'k'
asg30
g31
sg17
S'Y'
sg14
I9
sg19
Nsg95
I2
sa(dp3729
g16
(lp3730
S'd'
asg18
S'N'
sS'.thisRepN'
p3731
I29
sg20
S'Y'
sg32
g33
sS'.thisTrialN'
p3732
I11
sS'.thisN'
p3733
I446
sS'.thisIndex'
p3734
I7
sg15
(lp3735
S'k'
asg30
g31
sg17
S'N'
sg14
I9
sg19
Nsg95
I7
sa(dp3736
g16
(lp3737
S'd'
asg18
S'N'
sS'.thisRepN'
p3738
I29
sg20
S'N'
sg32
g33
sS'.thisTrialN'
p3739
I12
sS'.thisN'
p3740
I447
sS'.thisIndex'
p3741
I11
sg15
(lp3742
S'd'
asg30
g31
sg17
S'Y'
sg14
I9
sg19
(lp3743
S'space'
p3744
asg95
I11
sa(dp3745
g16
(lp3746
S'd'
asg18
S'N'
sS'.thisRepN'
p3747
I29
sg20
S'N'
sg32
g33
sS'.thisTrialN'
p3748
I13
sS'.thisN'
p3749
I448
sS'.thisIndex'
p3750
I14
sg15
(lp3751
S'd'
asg30
g31
sg17
S'Y'
sg14
I9
sg19
(lp3752
S'space'
p3753
asg95
I14
sa(dp3754
g16
(lp3755
S'd'
asg18
S'Y'
sg22
I20
sS'.thisN'
p3756
I449
sg20
S'Y'
sg32
g33
sS'.thisTrialN'
p3757
I14
sS'.thisRepN'
p3758
I29
sg21
I23
sS'.thisIndex'
p3759
I6
sg23
I25
sg15
(lp3760
S'k'
asg30
g31
sg17
S'N'
sg14
I9
sg19
(lp3761
S'space'
p3762
asg95
I6
sa(dp3763
g16
(lp3764
S'd'
asg95
I3
sS'.thisRepN'
p3765
I30
sg30
g31
sg32
g33
sS'.thisTrialN'
p3766
I0
sS'.thisN'
p3767
I450
sS'.thisIndex'
p3768
I3
sg15
(lp3769
S'd'
asg17
S'Y'
sg14
I10
sa(dp3770
g16
(lp3771
S'd'
asg95
I12
sS'.thisRepN'
p3772
I30
sg30
g31
sg32
g33
sS'.thisTrialN'
p3773
I1
sS'.thisN'
p3774
I451
sS'.thisIndex'
p3775
I12
sg15
(lp3776
S'k'
asg17
S'N'
sg14
I10
sa(dp3777
g16
(lp3778
S'k'
asg18
S'N'
sS'.thisRepN'
p3779
I30
sg20
S'Y'
sg32
g33
sS'.thisTrialN'
p3780
I2
sS'.thisN'
p3781
I452
sS'.thisIndex'
p3782
I8
sg15
(lp3783
S'k'
asg30
g31
sg17
S'Y'
sg14
I10
sg19
Nsg95
I8
sa(dp3784
g16
(lp3785
S'd'
asg18
S'N'
sS'.thisRepN'
p3786
I30
sg20
S'N'
sg32
g33
sS'.thisTrialN'
p3787
I3
sS'.thisN'
p3788
I453
sS'.thisIndex'
p3789
I0
sg15
(lp3790
S'd'
asg30
g31
sg17
S'Y'
sg14
I10
sg19
(lp3791
S'space'
p3792
asg95
I0
sa(dp3793
g18
S'N'
sS'.thisRepN'
p3794
I30
sg20
S'Y'
sg32
g33
sS'.thisTrialN'
p3795
I4
sS'.thisN'
p3796
I454
sS'.thisIndex'
p3797
I1
sg15
Nsg30
g31
sg17
g2119
sg14
I10
sg19
Nsg95
I1
sa(dp3798
g16
(lp3799
S'd'
asg18
S'N'
sS'.thisRepN'
p3800
I30
sg20
S'Y'
sg32
g33
sS'.thisTrialN'
p3801
I5
sS'.thisN'
p3802
I455
sS'.thisIndex'
p3803
I2
sg15
(lp3804
S'k'
asg30
g31
sg17
S'N'
sg14
I10
sg19
Nsg95
I2
sa(dp3805
g16
(lp3806
S'k'
asg18
S'N'
sS'.thisRepN'
p3807
I30
sg20
S'N'
sg32
g33
sS'.thisTrialN'
p3808
I6
sS'.thisN'
p3809
I456
sS'.thisIndex'
p3810
I7
sg15
(lp3811
S'd'
asg30
g31
sg17
S'N'
sg14
I10
sg19
(lp3812
S'd'
asg95
I7
sa(dp3813
g16
(lp3814
S'k'
asg18
S'Y'
sS'.thisRepN'
p3815
I30
sg20
S'Y'
sg32
g33
sS'.thisTrialN'
p3816
I7
sS'.thisN'
p3817
I457
sS'.thisIndex'
p3818
I7
sg15
(lp3819
S'k'
asg30
g31
sg17
S'Y'
sg14
I10
sg19
(lp3820
S'space'
p3821
asg95
I7
sa(dp3822
g16
(lp3823
S'k'
asg18
S'Y'
sS'.thisRepN'
p3824
I30
sg20
S'Y'
sg32
g33
sS'.thisTrialN'
p3825
I8
sS'.thisN'
p3826
I458
sS'.thisIndex'
p3827
I7
sg15
(lp3828
S'd'
asg30
g31
sg17
S'N'
sg14
I10
sg19
(lp3829
S'space'
p3830
asg95
I7
sa(dp3831
g16
(lp3832
S'k'
asg18
S'N'
sS'.thisRepN'
p3833
I30
sg20
S'N'
sg32
g33
sS'.thisTrialN'
p3834
I9
sS'.thisN'
p3835
I459
sS'.thisIndex'
p3836
I8
sg15
(lp3837
S'k'
asg30
g31
sg17
S'Y'
sg14
I10
sg19
(lp3838
S'space'
p3839
asg95
I8
sa(dp3840
g18
S'N'
sS'.thisRepN'
p3841
I30
sg20
S'Y'
sg32
g33
sS'.thisTrialN'
p3842
I10
sS'.thisN'
p3843
I460
sS'.thisIndex'
p3844
I4
sg15
Nsg30
g31
sg17
g2119
sg14
I10
sg19
Nsg95
I4
sa(dp3845
g16
(lp3846
S'k'
asg18
S'Y'
sS'.thisRepN'
p3847
I30
sg20
S'N'
sg32
g33
sS'.thisTrialN'
p3848
I11
sS'.thisN'
p3849
I461
sS'.thisIndex'
p3850
I11
sg15
(lp3851
S'd'
asg30
g31
sg17
S'N'
sg14
I10
sg19
Nsg95
I11
sa(dp3852
g16
(lp3853
S'k'
asg18
S'Y'
sS'.thisRepN'
p3854
I30
sg20
S'Y'
sg32
g33
sS'.thisTrialN'
p3855
I12
sS'.thisN'
p3856
I462
sS'.thisIndex'
p3857
I4
sg15
(lp3858
S'k'
asg30
g31
sg17
S'Y'
sg14
I10
sg19
(lp3859
S'space'
p3860
asg95
I4
sa(dp3861
g16
(lp3862
S'k'
asg18
S'N'
sS'.thisRepN'
p3863
I30
sg20
S'N'
sg32
g33
sS'.thisTrialN'
p3864
I13
sS'.thisN'
p3865
I463
sS'.thisIndex'
p3866
I2
sg15
(lp3867
S'd'
asg30
g31
sg17
S'N'
sg14
I10
sg19
(lp3868
S'space'
p3869
asg95
I2
sa(dp3870
g16
(lp3871
S'd'
asg18
S'N'
sS'.thisRepN'
p3872
I30
sg20
S'N'
sg32
g33
sS'.thisTrialN'
p3873
I14
sS'.thisN'
p3874
I464
sS'.thisIndex'
p3875
I11
sg15
(lp3876
S'd'
asg30
g31
sg17
S'Y'
sg14
I10
sg19
(lp3877
S'space'
p3878
asg95
I11
sa(dp3879
g16
(lp3880
S'd'
asg18
S'Y'
sS'.thisRepN'
p3881
I31
sg20
S'N'
sg32
g33
sS'.thisTrialN'
p3882
I0
sS'.thisN'
p3883
I465
sS'.thisIndex'
p3884
I13
sg15
(lp3885
S'k'
asg30
g31
sg17
S'N'
sg14
I10
sg19
(lp3886
S'k'
asg95
I13
sa(dp3887
g16
(lp3888
S'k'
asg18
S'Y'
sS'.thisRepN'
p3889
I31
sg20
S'Y'
sg32
g33
sS'.thisTrialN'
p3890
I1
sS'.thisN'
p3891
I466
sS'.thisIndex'
p3892
I13
sg15
(lp3893
S'd'
asg30
g31
sg17
S'N'
sg14
I10
sg19
(lp3894
S'space'
p3895
asg95
I13
sa(dp3896
g16
(lp3897
S'd'
asg18
S'Y'
sS'.thisRepN'
p3898
I31
sg20
S'N'
sg32
g33
sS'.thisTrialN'
p3899
I2
sS'.thisN'
p3900
I467
sS'.thisIndex'
p3901
I10
sg15
(lp3902
S'k'
asg30
g31
sg17
S'N'
sg14
I10
sg19
Nsg95
I10
sa(dp3903
g16
(lp3904
S'd'
asg18
S'Y'
sS'.thisRepN'
p3905
I31
sg20
S'Y'
sg32
g33
sS'.thisTrialN'
p3906
I3
sS'.thisN'
p3907
I468
sS'.thisIndex'
p3908
I11
sg15
(lp3909
S'd'
asg30
g31
sg17
S'Y'
sg14
I10
sg19
(lp3910
S'space'
p3911
asg95
I11
sa(dp3912
g16
(lp3913
S'k'
asg18
S'N'
sS'.thisRepN'
p3914
I31
sg20
S'Y'
sg32
g33
sS'.thisTrialN'
p3915
I4
sS'.thisN'
p3916
I469
sS'.thisIndex'
p3917
I9
sg15
(lp3918
S'd'
asg30
g31
sg17
S'N'
sg14
I10
sg19
Nsg95
I9
sa(dp3919
g16
(lp3920
S'k'
asg18
S'Y'
sS'.thisRepN'
p3921
I31
sg20
S'N'
sg32
g33
sS'.thisTrialN'
p3922
I5
sS'.thisN'
p3923
I470
sS'.thisIndex'
p3924
I10
sg15
(lp3925
S'k'
asg30
g31
sg17
S'Y'
sg14
I10
sg19
(lp3926
S'k'
asg95
I10
sa(dp3927
g16
(lp3928
S'k'
asg18
S'N'
sS'.thisRepN'
p3929
I31
sg20
S'N'
sg32
g33
sS'.thisTrialN'
p3930
I6
sS'.thisN'
p3931
I471
sS'.thisIndex'
p3932
I4
sg15
(lp3933
S'k'
asg30
g31
sg17
S'Y'
sg14
I10
sg19
(lp3934
S'space'
p3935
asg95
I4
sa(dp3936
g16
(lp3937
S'k'
asg18
S'N'
sS'.thisRepN'
p3938
I31
sg20
S'N'
sg32
g33
sS'.thisTrialN'
p3939
I7
sS'.thisN'
p3940
I472
sS'.thisIndex'
p3941
I8
sg15
(lp3942
S'd'
asg30
g31
sg17
S'N'
sg14
I10
sg19
(lp3943
S'space'
p3944
asg95
I8
sa(dp3945
g18
S'Y'
sS'.thisRepN'
p3946
I31
sg20
S'N'
sg32
g33
sS'.thisTrialN'
p3947
I8
sS'.thisN'
p3948
I473
sS'.thisIndex'
p3949
I14
sg15
Nsg30
g31
sg17
g2119
sg14
I10
sg19
Nsg95
I14
sa(dp3950
g16
(lp3951
S'd'
asg18
S'Y'
sS'.thisRepN'
p3952
I31
sg20
S'N'
sg32
g33
sS'.thisTrialN'
p3953
I9
sS'.thisN'
p3954
I474
sS'.thisIndex'
p3955
I9
sg15
(lp3956
S'd'
asg30
g31
sg17
S'Y'
sg14
I10
sg19
Nsg95
I9
sa(dp3957
g16
(lp3958
S'k'
asg18
S'N'
sS'.thisRepN'
p3959
I31
sg20
S'N'
sg32
g33
sS'.thisTrialN'
p3960
I10
sS'.thisN'
p3961
I475
sS'.thisIndex'
p3962
I12
sg15
(lp3963
S'k'
asg30
g31
sg17
S'Y'
sg14
I10
sg19
(lp3964
S'k'
asg95
I12
sa(dp3965
g16
(lp3966
S'd'
asg18
S'Y'
sS'.thisRepN'
p3967
I31
sg20
S'Y'
sg32
g33
sS'.thisTrialN'
p3968
I11
sS'.thisN'
p3969
I476
sS'.thisIndex'
p3970
I14
sg15
(lp3971
S'd'
asg30
g31
sg17
S'Y'
sg14
I10
sg19
(lp3972
S'space'
p3973
asg95
I14
sa(dp3974
g16
(lp3975
S'd'
asg18
S'Y'
sS'.thisRepN'
p3976
I31
sg20
S'N'
sg32
g33
sS'.thisTrialN'
p3977
I12
sS'.thisN'
p3978
I477
sS'.thisIndex'
p3979
I10
sg15
(lp3980
S'k'
asg30
g31
sg17
S'N'
sg14
I10
sg19
Nsg95
I10
sa(dp3981
g16
(lp3982
S'd'
asg18
S'Y'
sS'.thisRepN'
p3983
I31
sg20
S'N'
sg32
g33
sS'.thisTrialN'
p3984
I13
sS'.thisN'
p3985
I478
sS'.thisIndex'
p3986
I0
sg15
(lp3987
S'k'
asg30
g31
sg17
S'N'
sg14
I10
sg19
(lp3988
S'd'
asg95
I0
sa(dp3989
g16
(lp3990
S'd'
asg18
S'N'
sS'.thisRepN'
p3991
I31
sg20
S'N'
sg32
g33
sS'.thisTrialN'
p3992
I14
sS'.thisN'
p3993
I479
sS'.thisIndex'
p3994
I12
sg15
(lp3995
S'd'
asg30
g31
sg17
S'Y'
sg14
I10
sg19
(lp3996
S'space'
p3997
asg95
I12
sa(dp3998
g16
(lp3999
S'd'
asg18
S'N'
sS'.thisRepN'
p4000
I32
sg20
S'Y'
sg32
g33
sS'.thisTrialN'
p4001
I0
sS'.thisN'
p4002
I480
sS'.thisIndex'
p4003
I12
sg15
(lp4004
S'k'
asg30
g31
sg17
S'N'
sg14
I10
sg19
Nsg95
I12
sa(dp4005
g16
(lp4006
S'k'
asg18
S'N'
sS'.thisRepN'
p4007
I32
sg20
S'N'
sg32
g33
sS'.thisTrialN'
p4008
I1
sS'.thisN'
p4009
I481
sS'.thisIndex'
p4010
I5
sg15
(lp4011
S'd'
asg30
g31
sg17
S'N'
sg14
I10
sg19
(lp4012
S'd'
asg95
I5
sa(dp4013
g18
S'N'
sS'.thisRepN'
p4014
I32
sg20
S'Y'
sg32
g33
sS'.thisTrialN'
p4015
I2
sS'.thisN'
p4016
I482
sS'.thisIndex'
p4017
I0
sg15
Nsg30
g31
sg17
g2119
sg14
I10
sg19
Nsg95
I0
sa(dp4018
g16
(lp4019
S'k'
asg18
S'N'
sS'.thisRepN'
p4020
I32
sg20
S'Y'
sg32
g33
sS'.thisTrialN'
p4021
I3
sS'.thisN'
p4022
I483
sS'.thisIndex'
p4023
I0
sg15
(lp4024
S'd'
asg30
g31
sg17
S'N'
sg14
I10
sg19
Nsg95
I0
sa(dp4025
g16
(lp4026
S'k'
asg18
S'N'
sS'.thisRepN'
p4027
I32
sg20
S'N'
sg32
g33
sS'.thisTrialN'
p4028
I4
sS'.thisN'
p4029
I484
sS'.thisIndex'
p4030
I12
sg15
(lp4031
S'k'
asg30
g31
sg17
S'Y'
sg14
I10
sg19
(lp4032
S'space'
p4033
asg95
I12
sa(dp4034
g16
(lp4035
S'k'
asg18
S'N'
sS'.thisRepN'
p4036
I32
sg20
S'N'
sg32
g33
sS'.thisTrialN'
p4037
I5
sS'.thisN'
p4038
I485
sS'.thisIndex'
p4039
I11
sg15
(lp4040
S'd'
asg30
g31
sg17
S'N'
sg14
I10
sg19
(lp4041
S'space'
p4042
asg95
I11
sa(dp4043
g18
S'Y'
sS'.thisRepN'
p4044
I32
sg20
S'N'
sg32
g33
sS'.thisTrialN'
p4045
I6
sS'.thisN'
p4046
I486
sS'.thisIndex'
p4047
I9
sg15
Nsg30
g31
sg17
g2119
sg14
I10
sg19
Nsg95
I9
sa(dp4048
g16
(lp4049
S'd'
asg18
S'N'
sS'.thisRepN'
p4050
I32
sg20
S'N'
sg32
g33
sS'.thisTrialN'
p4051
I7
sS'.thisN'
p4052
I487
sS'.thisIndex'
p4053
I2
sg15
(lp4054
S'd'
asg30
g31
sg17
S'Y'
sg14
I10
sg19
(lp4055
S'd'
asg95
I2
sa(dp4056
g18
S'Y'
sS'.thisRepN'
p4057
I32
sg20
S'N'
sg32
g33
sS'.thisTrialN'
p4058
I8
sS'.thisN'
p4059
I488
sS'.thisIndex'
p4060
I3
sg15
Nsg30
g31
sg17
g2119
sg14
I10
sg19
Nsg95
I3
sa(dp4061
g16
(lp4062
S'd'
asg18
S'Y'
sS'.thisRepN'
p4063
I32
sg20
S'N'
sg32
g33
sS'.thisTrialN'
p4064
I9
sS'.thisN'
p4065
I489
sS'.thisIndex'
p4066
I2
sg15
(lp4067
S'k'
asg30
g31
sg17
S'N'
sg14
I10
sg19
Nsg95
I2
sa(dp4068
g16
(lp4069
S'k'
asg18
S'N'
sS'.thisRepN'
p4070
I32
sg20
S'N'
sg32
g33
sS'.thisTrialN'
p4071
I10
sS'.thisN'
p4072
I490
sS'.thisIndex'
p4073
I13
sg15
(lp4074
S'd'
asg30
g31
sg17
S'N'
sg14
I10
sg19
(lp4075
S'space'
p4076
asg95
I13
sa(dp4077
g16
(lp4078
S'd'
asg18
S'Y'
sS'.thisRepN'
p4079
I32
sg20
S'N'
sg32
g33
sS'.thisTrialN'
p4080
I11
sS'.thisN'
p4081
I491
sS'.thisIndex'
p4082
I13
sg15
(lp4083
S'd'
asg30
g31
sg17
S'Y'
sg14
I10
sg19
Nsg95
I13
sa(dp4084
g16
(lp4085
S'k'
asg18
S'N'
sS'.thisRepN'
p4086
I32
sg20
S'N'
sg32
g33
sS'.thisTrialN'
p4087
I12
sS'.thisN'
p4088
I492
sS'.thisIndex'
p4089
I12
sg15
(lp4090
S'k'
asg30
g31
sg17
S'Y'
sg14
I10
sg19
(lp4091
S'd'
asg95
I12
sa(dp4092
g16
(lp4093
S'k'
asg18
S'N'
sS'.thisRepN'
p4094
I32
sg20
S'N'
sg32
g33
sS'.thisTrialN'
p4095
I13
sS'.thisN'
p4096
I493
sS'.thisIndex'
p4097
I8
sg15
(lp4098
S'd'
asg30
g31
sg17
S'N'
sg14
I10
sg19
(lp4099
S'space'
p4100
asg95
I8
sa(dp4101
g16
(lp4102
S'd'
asg18
S'Y'
sS'.thisRepN'
p4103
I32
sg20
S'Y'
sg32
g33
sS'.thisTrialN'
p4104
I14
sS'.thisN'
p4105
I494
sS'.thisIndex'
p4106
I9
sg15
(lp4107
S'k'
asg30
g31
sg17
S'N'
sg14
I10
sg19
(lp4108
S'space'
p4109
asg95
I9
sa(dp4110
g16
(lp4111
S'k'
asg18
S'Y'
sS'.thisRepN'
p4112
I33
sg20
S'N'
sg32
g33
sS'.thisTrialN'
p4113
I0
sS'.thisN'
p4114
I495
sS'.thisIndex'
p4115
I11
sg15
(lp4116
S'd'
asg30
g31
sg17
S'N'
sg14
I10
sg19
(lp4117
S'd'
asg95
I11
sa(dp4118
g16
(lp4119
S'd'
asg18
S'Y'
sS'.thisRepN'
p4120
I33
sg20
S'N'
sg32
g33
sS'.thisTrialN'
p4121
I1
sS'.thisN'
p4122
I496
sS'.thisIndex'
p4123
I14
sg15
(lp4124
S'k'
asg30
g31
sg17
S'N'
sg14
I10
sg19
(lp4125
S'k'
asg95
I14
sa(dp4126
g16
(lp4127
S'k'
asg18
S'Y'
sS'.thisRepN'
p4128
I33
sg20
S'N'
sg32
g33
sS'.thisTrialN'
p4129
I2
sS'.thisN'
p4130
I497
sS'.thisIndex'
p4131
I5
sg15
(lp4132
S'd'
asg30
g31
sg17
S'N'
sg14
I10
sg19
(lp4133
S'd'
asg95
I5
sa(dp4134
g16
(lp4135
S'd'
asg18
S'Y'
sS'.thisRepN'
p4136
I33
sg20
S'Y'
sg32
g33
sS'.thisTrialN'
p4137
I3
sS'.thisN'
p4138
I498
sS'.thisIndex'
p4139
I10
sg15
(lp4140
S'k'
asg30
g31
sg17
S'N'
sg14
I10
sg19
(lp4141
S'space'
p4142
asg95
I10
sa(dp4143
g16
(lp4144
S'k'
asg18
S'N'
sg22
I17
sS'.thisN'
p4145
I499
sg20
S'Y'
sg32
g33
sS'.thisTrialN'
p4146
I4
sS'.thisRepN'
p4147
I33
sg21
I19
sS'.thisIndex'
p4148
I11
sg23
I23
sg15
(lp4149
S'k'
asg30
g31
sg17
S'Y'
sg14
I10
sg19
Nsg95
I11
sa(dp4150
g16
(lp4151
S'd'
asS'.thisIndex'
p4152
I6
sS'.thisRepN'
p4153
I33
sg26
S'Y'
sg30
g31
sg32
g33
sS'.thisTrialN'
p4154
I5
sS'.thisN'
p4155
I500
sg25
S'Y'
sg24
S'Y'
sg15
(lp4156
S'd'
asg17
S'N'
sg14
I11
sg95
I6
sa(dp4157
S'.thisIndex'
p4158
I9
sS'.thisRepN'
p4159
I33
sg26
S'Y'
sg30
g31
sg32
g33
sS'.thisTrialN'
p4160
I6
sS'.thisN'
p4161
I501
sg25
S'Y'
sg15
Nsg17
g2119
sg14
I11
sg95
I9
sa(dp4162
g16
(lp4163
S'k'
asg18
S'N'
sS'.thisRepN'
p4164
I33
sg26
S'Y'
sg20
S'N'
sg32
g33
sS'.thisTrialN'
p4165
I7
sS'.thisN'
p4166
I502
sg25
S'Y'
sg15
(lp4167
S'k'
asg30
g31
sg17
S'N'
sg14
I11
sg19
(lp4168
S'space'
p4169
asg95
I13
sS'.thisIndex'
p4170
I13
sa(dp4171
g16
(lp4172
S'k'
asg18
S'N'
sS'.thisRepN'
p4173
I33
sg26
S'Y'
sg20
S'Y'
sg32
g33
sS'.thisTrialN'
p4174
I8
sS'.thisN'
p4175
I503
sg25
S'Y'
sg15
(lp4176
S'd'
asg30
g31
sg17
S'Y'
sg14
I11
sg19
Nsg95
I0
sS'.thisIndex'
p4177
I0
sa(dp4178
g16
(lp4179
S'd'
asg18
S'Y'
sS'.thisRepN'
p4180
I33
sg26
S'Y'
sg20
S'Y'
sg32
g33
sS'.thisTrialN'
p4181
I9
sS'.thisN'
p4182
I504
sg25
S'Y'
sg15
(lp4183
S'k'
asg30
g31
sg17
S'Y'
sg14
I11
sg19
(lp4184
S'space'
p4185
asg95
I13
sS'.thisIndex'
p4186
I13
sa(dp4187
g16
(lp4188
S'd'
asg18
S'N'
sS'.thisRepN'
p4189
I33
sg26
S'Y'
sg20
S'N'
sg32
g33
sS'.thisTrialN'
p4190
I10
sS'.thisN'
p4191
I505
sg25
S'Y'
sg15
(lp4192
S'd'
asg30
g31
sg17
S'N'
sg14
I11
sg19
(lp4193
S'space'
p4194
asg95
I11
sS'.thisIndex'
p4195
I11
sa(dp4196
g16
(lp4197
S'k'
asg18
S'N'
sS'.thisRepN'
p4198
I33
sg26
S'Y'
sg20
S'N'
sg32
g33
sS'.thisTrialN'
p4199
I11
sS'.thisN'
p4200
I506
sg25
S'Y'
sg15
(lp4201
S'k'
asg30
g31
sg17
S'N'
sg14
I11
sg19
(lp4202
S'space'
p4203
asg95
I5
sS'.thisIndex'
p4204
I5
sa(dp4205
g16
(lp4206
S'k'
asg18
S'Y'
sS'.thisRepN'
p4207
I33
sg26
S'Y'
sg20
S'Y'
sg32
g33
sS'.thisTrialN'
p4208
I12
sS'.thisN'
p4209
I507
sg25
S'Y'
sg15
(lp4210
S'd'
asg30
g31
sg17
S'Y'
sg14
I11
sg19
(lp4211
S'space'
p4212
asg95
I10
sS'.thisIndex'
p4213
I10
sa(dp4214
g16
(lp4215
S'd'
asg18
S'N'
sS'.thisRepN'
p4216
I33
sg26
S'Y'
sg20
S'N'
sg32
g33
sS'.thisTrialN'
p4217
I13
sS'.thisN'
p4218
I508
sg25
S'Y'
sg15
(lp4219
S'k'
asg30
g31
sg17
S'Y'
sg14
I11
sg19
(lp4220
S'space'
p4221
asg95
I10
sS'.thisIndex'
p4222
I10
sa(dp4223
g16
(lp4224
S'd'
asg18
S'Y'
sS'.thisRepN'
p4225
I33
sg26
S'Y'
sg20
S'Y'
sg32
g33
sS'.thisTrialN'
p4226
I14
sS'.thisN'
p4227
I509
sg25
S'Y'
sg15
(lp4228
S'd'
asg30
g31
sg17
S'N'
sg14
I11
sg19
(lp4229
S'space'
p4230
asg95
I5
sS'.thisIndex'
p4231
I5
sa(dp4232
g18
S'Y'
sS'.thisRepN'
p4233
I34
sg26
S'Y'
sg20
S'N'
sg32
g33
sS'.thisTrialN'
p4234
I0
sS'.thisN'
p4235
I510
sg25
S'Y'
sg15
Nsg30
g31
sg17
g2119
sg14
I11
sg19
Nsg95
I5
sS'.thisIndex'
p4236
I5
sa(dp4237
g16
(lp4238
S'k'
asg18
S'N'
sS'.thisRepN'
p4239
I34
sg26
S'Y'
sg20
S'N'
sg32
g33
sS'.thisTrialN'
p4240
I1
sS'.thisN'
p4241
I511
sg25
S'Y'
sg15
(lp4242
S'k'
asg30
g31
sg17
S'N'
sg14
I11
sg19
(lp4243
S'd'
asg95
I8
sS'.thisIndex'
p4244
I8
sa(dp4245
g16
(lp4246
S'k'
asg18
S'Y'
sS'.thisRepN'
p4247
I34
sg26
S'Y'
sg20
S'Y'
sg32
g33
sS'.thisTrialN'
p4248
I2
sS'.thisN'
p4249
I512
sg25
S'Y'
sg15
(lp4250
S'd'
asg30
g31
sg17
S'Y'
sg14
I11
sg19
(lp4251
S'space'
p4252
asg95
I3
sS'.thisIndex'
p4253
I3
sa(dp4254
g16
(lp4255
S'd'
asg18
S'Y'
sS'.thisRepN'
p4256
I34
sg26
S'Y'
sg20
S'N'
sg32
g33
sS'.thisTrialN'
p4257
I3
sS'.thisN'
p4258
I513
sg25
S'Y'
sg15
(lp4259
S'd'
asg30
g31
sg17
S'N'
sg14
I11
sg19
(lp4260
S'k'
asg95
I13
sS'.thisIndex'
p4261
I13
sa(dp4262
g16
(lp4263
S'd'
asg18
S'N'
sS'.thisRepN'
p4264
I34
sg26
S'Y'
sg20
S'N'
sg32
g33
sS'.thisTrialN'
p4265
I4
sS'.thisN'
p4266
I514
sg25
S'Y'
sg15
(lp4267
S'k'
asg30
g31
sg17
S'Y'
sg14
I11
sg19
(lp4268
S'space'
p4269
asg95
I1
sS'.thisIndex'
p4270
I1
sa(dp4271
g16
(lp4272
S'd'
asg18
S'Y'
sS'.thisRepN'
p4273
I34
sg26
S'Y'
sg20
S'N'
sg32
g33
sS'.thisTrialN'
p4274
I5
sS'.thisN'
p4275
I515
sg25
S'Y'
sg15
(lp4276
S'd'
asg30
g31
sg17
S'N'
sg14
I11
sg19
Nsg95
I12
sS'.thisIndex'
p4277
I12
sa(dp4278
g16
(lp4279
S'd'
asg18
S'Y'
sS'.thisRepN'
p4280
I34
sg26
S'Y'
sg20
S'N'
sg32
g33
sS'.thisTrialN'
p4281
I6
sS'.thisN'
p4282
I516
sg25
S'Y'
sg15
(lp4283
S'k'
asg30
g31
sg17
S'Y'
sg14
I11
sg19
(lp4284
S'k'
asg95
I4
sS'.thisIndex'
p4285
I4
sa(dp4286
g18
S'Y'
sS'.thisRepN'
p4287
I34
sg26
S'Y'
sg20
S'N'
sg32
g33
sS'.thisTrialN'
p4288
I7
sS'.thisN'
p4289
I517
sg25
S'Y'
sg15
Nsg30
g31
sg17
g2119
sg14
I11
sg19
Nsg95
I4
sS'.thisIndex'
p4290
I4
sa(dp4291
g16
(lp4292
S'k'
asg18
S'Y'
sS'.thisRepN'
p4293
I34
sg26
S'Y'
sg20
S'N'
sg32
g33
sS'.thisTrialN'
p4294
I8
sS'.thisN'
p4295
I518
sg25
S'Y'
sg15
(lp4296
S'k'
asg30
g31
sg17
S'N'
sg14
I11
sg19
(lp4297
S'd'
asg95
I6
sS'.thisIndex'
p4298
I6
sa(dp4299
g16
(lp4300
S'k'
asg18
S'N'
sS'.thisRepN'
p4301
I34
sg26
S'Y'
sg20
S'N'
sg32
g33
sS'.thisTrialN'
p4302
I9
sS'.thisN'
p4303
I519
sg25
S'Y'
sg15
(lp4304
S'd'
asg30
g31
sg17
S'Y'
sg14
I11
sg19
(lp4305
S'space'
p4306
asg95
I3
sS'.thisIndex'
p4307
I3
sa(dp4308
g16
(lp4309
S'd'
asg18
S'N'
sS'.thisRepN'
p4310
I34
sg26
S'Y'
sg20
S'Y'
sg32
g33
sS'.thisTrialN'
p4311
I10
sS'.thisN'
p4312
I520
sg25
S'Y'
sg15
(lp4313
S'k'
asg30
g31
sg17
S'Y'
sg14
I11
sg19
Nsg95
I7
sS'.thisIndex'
p4314
I7
sa(dp4315
g18
S'Y'
sS'.thisRepN'
p4316
I34
sg26
S'Y'
sg20
S'N'
sg32
g33
sS'.thisTrialN'
p4317
I11
sS'.thisN'
p4318
I521
sg25
S'Y'
sg15
Nsg30
g31
sg17
g2119
sg14
I11
sg19
Nsg95
I14
sS'.thisIndex'
p4319
I14
sa(dp4320
g16
(lp4321
S'k'
asg18
S'N'
sS'.thisRepN'
p4322
I34
sg26
S'Y'
sg20
S'Y'
sg32
g33
sS'.thisTrialN'
p4323
I12
sS'.thisN'
p4324
I522
sg25
S'Y'
sg15
(lp4325
S'k'
asg30
g31
sg17
S'N'
sg14
I11
sg19
Nsg95
I12
sS'.thisIndex'
p4326
I12
sa(dp4327
g16
(lp4328
S'd'
asg18
S'N'
sS'.thisRepN'
p4329
I34
sg26
S'Y'
sg20
S'N'
sg32
g33
sS'.thisTrialN'
p4330
I13
sS'.thisN'
p4331
I523
sg25
S'Y'
sg15
(lp4332
S'd'
asg30
g31
sg17
S'N'
sg14
I11
sg19
(lp4333
S'd'
asg95
I5
sS'.thisIndex'
p4334
I5
sa(dp4335
g16
(lp4336
S'k'
asg18
S'N'
sS'.thisRepN'
p4337
I34
sg26
S'Y'
sg20
S'N'
sg32
g33
sS'.thisTrialN'
p4338
I14
sS'.thisN'
p4339
I524
sg25
S'Y'
sg15
(lp4340
S'd'
asg30
g31
sg17
S'Y'
sg14
I11
sg19
(lp4341
S'space'
p4342
asg95
I9
sS'.thisIndex'
p4343
I9
sa(dp4344
g16
(lp4345
S'd'
asg18
S'N'
sS'.thisRepN'
p4346
I35
sg26
S'Y'
sg20
S'N'
sg32
g33
sS'.thisTrialN'
p4347
I0
sS'.thisN'
p4348
I525
sg25
S'Y'
sg15
(lp4349
S'd'
asg30
g31
sg17
S'N'
sg14
I11
sg19
(lp4350
S'space'
p4351
asg95
I8
sS'.thisIndex'
p4352
I8
sa(dp4353
g16
(lp4354
S'd'
asg18
S'N'
sS'.thisRepN'
p4355
I35
sg26
S'Y'
sg20
S'N'
sg32
g33
sS'.thisTrialN'
p4356
I1
sS'.thisN'
p4357
I526
sg25
S'Y'
sg15
(lp4358
S'k'
asg30
g31
sg17
S'Y'
sg14
I11
sg19
(lp4359
S'space'
p4360
asg95
I9
sS'.thisIndex'
p4361
I9
sa(dp4362
g18
S'Y'
sS'.thisRepN'
p4363
I35
sg26
S'Y'
sg20
S'N'
sg32
g33
sS'.thisTrialN'
p4364
I2
sS'.thisN'
p4365
I527
sg25
S'Y'
sg15
Nsg30
g31
sg17
g2119
sg14
I11
sg19
Nsg95
I0
sS'.thisIndex'
p4366
I0
sa(dp4367
g16
(lp4368
S'd'
asg18
S'Y'
sS'.thisRepN'
p4369
I35
sg26
S'Y'
sg20
S'N'
sg32
g33
sS'.thisTrialN'
p4370
I3
sS'.thisN'
p4371
I528
sg25
S'Y'
sg15
(lp4372
S'k'
asg30
g31
sg17
S'Y'
sg14
I11
sg19
Nsg95
I14
sS'.thisIndex'
p4373
I14
sa(dp4374
g16
(lp4375
S'd'
asg18
S'Y'
sS'.thisRepN'
p4376
I35
sg26
S'Y'
sg20
S'N'
sg32
g33
sS'.thisTrialN'
p4377
I4
sS'.thisN'
p4378
I529
sg25
S'Y'
sg15
(lp4379
S'd'
asg30
g31
sg17
S'N'
sg14
I11
sg19
Nsg95
I13
sS'.thisIndex'
p4380
I13
sa(dp4381
g16
(lp4382
S'd'
asg18
S'Y'
sS'.thisRepN'
p4383
I35
sg26
S'Y'
sg20
S'Y'
sg32
g33
sS'.thisTrialN'
p4384
I5
sS'.thisN'
p4385
I530
sg25
S'Y'
sg15
(lp4386
S'd'
asg30
g31
sg17
S'N'
sg14
I11
sg19
(lp4387
S'space'
p4388
asg95
I12
sS'.thisIndex'
p4389
I12
sa(dp4390
g16
(lp4391
S'd'
asg18
S'N'
sS'.thisRepN'
p4392
I35
sg26
S'Y'
sg20
S'N'
sg32
g33
sS'.thisTrialN'
p4393
I6
sS'.thisN'
p4394
I531
sg25
S'Y'
sg15
(lp4395
S'k'
asg30
g31
sg17
S'Y'
sg14
I11
sg19
(lp4396
S'space'
p4397
asg95
I12
sS'.thisIndex'
p4398
I12
sa(dp4399
g18
S'Y'
sS'.thisRepN'
p4400
I35
sg26
S'Y'
sg20
S'N'
sg32
g33
sS'.thisTrialN'
p4401
I7
sS'.thisN'
p4402
I532
sg25
S'Y'
sg15
Nsg30
g31
sg17
g2119
sg14
I11
sg19
Nsg95
I3
sS'.thisIndex'
p4403
I3
sa(dp4404
g16
(lp4405
S'd'
asg18
S'N'
sS'.thisRepN'
p4406
I35
sg26
S'Y'
sg20
S'Y'
sg32
g33
sS'.thisTrialN'
p4407
I8
sS'.thisN'
p4408
I533
sg25
S'Y'
sg15
(lp4409
S'k'
asg30
g31
sg17
S'Y'
sg14
I11
sg19
Nsg95
I7
sS'.thisIndex'
p4410
I7
sa(dp4411
g16
(lp4412
S'k'
asg18
S'Y'
sS'.thisRepN'
p4413
I35
sg26
S'Y'
sg20
S'N'
sg32
g33
sS'.thisTrialN'
p4414
I9
sS'.thisN'
p4415
I534
sg25
S'Y'
sg15
(lp4416
S'k'
asg30
g31
sg17
S'N'
sg14
I11
sg19
(lp4417
S'd'
asg95
I2
sS'.thisIndex'
p4418
I2
sa(dp4419
g16
(lp4420
S'k'
asg18
S'N'
sS'.thisRepN'
p4421
I35
sg26
S'Y'
sg20
S'N'
sg32
g33
sS'.thisTrialN'
p4422
I10
sS'.thisN'
p4423
I535
sg25
S'Y'
sg15
(lp4424
S'd'
asg30
g31
sg17
S'Y'
sg14
I11
sg19
(lp4425
S'space'
p4426
asg95
I0
sS'.thisIndex'
p4427
I0
sa(dp4428
g16
(lp4429
S'd'
asg18
S'N'
sS'.thisRepN'
p4430
I35
sg26
S'Y'
sg20
S'N'
sg32
g33
sS'.thisTrialN'
p4431
I11
sS'.thisN'
p4432
I536
sg25
S'Y'
sg15
(lp4433
S'd'
asg30
g31
sg17
S'N'
sg14
I11
sg19
(lp4434
S'space'
p4435
asg95
I14
sS'.thisIndex'
p4436
I14
sa(dp4437
g16
(lp4438
S'd'
asg18
S'N'
sS'.thisRepN'
p4439
I35
sg26
S'Y'
sg20
S'N'
sg32
g33
sS'.thisTrialN'
p4440
I12
sS'.thisN'
p4441
I537
sg25
S'Y'
sg15
(lp4442
S'k'
asg30
g31
sg17
S'Y'
sg14
I11
sg19
(lp4443
S'k'
asg95
I6
sS'.thisIndex'
p4444
I6
sa(dp4445
g16
(lp4446
S'd'
asg18
S'N'
sS'.thisRepN'
p4447
I35
sg26
S'Y'
sg20
S'N'
sg32
g33
sS'.thisTrialN'
p4448
I13
sS'.thisN'
p4449
I538
sg25
S'Y'
sg15
(lp4450
S'd'
asg30
g31
sg17
S'N'
sg14
I11
sg19
(lp4451
S'space'
p4452
asg95
I6
sS'.thisIndex'
p4453
I6
sa(dp4454
g16
(lp4455
S'k'
asg18
S'N'
sS'.thisRepN'
p4456
I35
sg26
S'Y'
sg20
S'N'
sg32
g33
sS'.thisTrialN'
p4457
I14
sS'.thisN'
p4458
I539
sg25
S'Y'
sg15
(lp4459
S'k'
asg30
g31
sg17
S'N'
sg14
I11
sg19
(lp4460
S'k'
asg95
I9
sS'.thisIndex'
p4461
I9
sa(dp4462
g16
(lp4463
S'd'
asg18
S'N'
sS'.thisRepN'
p4464
I36
sg26
S'Y'
sg20
S'N'
sg32
g33
sS'.thisTrialN'
p4465
I0
sS'.thisN'
p4466
I540
sg25
S'Y'
sg15
(lp4467
S'd'
asg30
g31
sg17
S'N'
sg14
I11
sg19
(lp4468
S'space'
p4469
asg95
I5
sS'.thisIndex'
p4470
I5
sa(dp4471
g16
(lp4472
S'k'
asg18
S'N'
sS'.thisRepN'
p4473
I36
sg26
S'Y'
sg20
S'N'
sg32
g33
sS'.thisTrialN'
p4474
I1
sS'.thisN'
p4475
I541
sg25
S'Y'
sg15
(lp4476
S'd'
asg30
g31
sg17
S'Y'
sg14
I11
sg19
(lp4477
S'k'
asg95
I6
sS'.thisIndex'
p4478
I6
sa(dp4479
g16
(lp4480
S'k'
asg18
S'N'
sS'.thisRepN'
p4481
I36
sg26
S'Y'
sg20
S'N'
sg32
g33
sS'.thisTrialN'
p4482
I2
sS'.thisN'
p4483
I542
sg25
S'Y'
sg15
(lp4484
S'k'
asg30
g31
sg17
S'N'
sg14
I11
sg19
(lp4485
S'space'
p4486
asg95
I13
sS'.thisIndex'
p4487
I13
sa(dp4488
g16
(lp4489
S'd'
asg18
S'Y'
sS'.thisRepN'
p4490
I36
sg26
S'Y'
sg20
S'Y'
sg32
g33
sS'.thisTrialN'
p4491
I3
sS'.thisN'
p4492
I543
sg25
S'Y'
sg15
(lp4493
S'd'
asg30
g31
sg17
S'N'
sg14
I11
sg19
(lp4494
S'space'
p4495
asg95
I1
sS'.thisIndex'
p4496
I1
sa(dp4497
g16
(lp4498
S'd'
asg18
S'N'
sS'.thisRepN'
p4499
I36
sg26
S'Y'
sg20
S'N'
sg32
g33
sS'.thisTrialN'
p4500
I4
sS'.thisN'
p4501
I544
sg25
S'Y'
sg15
(lp4502
S'k'
asg30
g31
sg17
S'Y'
sg14
I11
sg19
(lp4503
S'lshift'
p4504
asg95
I0
sS'.thisIndex'
p4505
I0
sa(dp4506
g16
(lp4507
S'd'
asg18
S'N'
sS'.thisRepN'
p4508
I36
sg26
S'Y'
sg20
S'N'
sg32
g33
sS'.thisTrialN'
p4509
I5
sS'.thisN'
p4510
I545
sg25
S'Y'
sg15
(lp4511
S'd'
asg30
g31
sg17
S'N'
sg14
I11
sg19
(lp4512
S'space'
p4513
asg95
I3
sS'.thisIndex'
p4514
I3
sa(dp4515
g16
(lp4516
S'k'
asg18
S'N'
sS'.thisRepN'
p4517
I36
sg26
S'Y'
sg20
S'Y'
sg32
g33
sS'.thisTrialN'
p4518
I6
sS'.thisN'
p4519
I546
sg25
S'Y'
sg15
(lp4520
S'k'
asg30
g31
sg17
S'N'
sg14
I11
sg19
Nsg95
I10
sS'.thisIndex'
p4521
I10
sa(dp4522
g16
(lp4523
S'k'
asg18
S'N'
sS'.thisRepN'
p4524
I36
sg26
S'Y'
sg20
S'N'
sg32
g33
sS'.thisTrialN'
p4525
I7
sS'.thisN'
p4526
I547
sg25
S'Y'
sg15
(lp4527
S'd'
asg30
g31
sg17
S'Y'
sg14
I11
sg19
(lp4528
S'd'
asg95
I1
sS'.thisIndex'
p4529
I1
sa(dp4530
g16
(lp4531
S'k'
asg18
S'N'
sS'.thisRepN'
p4532
I36
sg26
S'Y'
sg20
S'Y'
sg32
g33
sS'.thisTrialN'
p4533
I8
sS'.thisN'
p4534
I548
sg25
S'Y'
sg15
(lp4535
S'd'
asg30
g31
sg17
S'Y'
sg14
I11
sg19
Nsg95
I14
sS'.thisIndex'
p4536
I14
sa(dp4537
g16
(lp4538
S'd'
asg18
S'Y'
sg22
I13
sg26
S'Y'
sS'.thisN'
p4539
I549
sg20
S'Y'
sg32
g33
sS'.thisTrialN'
p4540
I9
sS'.thisRepN'
p4541
I36
sg21
I21
sg25
S'Y'
sg23
I19
sg15
(lp4542
S'k'
asg30
g31
sg17
S'Y'
sg14
I11
sg19
(lp4543
S'space'
p4544
asg95
I13
sS'.thisIndex'
p4545
I13
sa(dp4546
g16
(lp4547
S'k'
asS'.thisIndex'
p4548
I14
sS'.thisRepN'
p4549
I36
sg26
S'Y'
sg30
g31
sg32
g33
sS'.thisTrialN'
p4550
I10
sS'.thisN'
p4551
I550
sg25
S'Y'
sg15
(lp4552
S'd'
asg17
S'Y'
sg14
I12
sg95
I14
sa(dp4553
g16
(lp4554
S'k'
asS'.thisIndex'
p4555
I11
sS'.thisRepN'
p4556
I36
sg26
S'Y'
sg30
g31
sg32
g33
sS'.thisTrialN'
p4557
I11
sS'.thisN'
p4558
I551
sg25
S'Y'
sg15
(lp4559
S'd'
asg17
S'Y'
sg14
I12
sg95
I11
sa(dp4560
g16
(lp4561
S'k'
asg18
S'N'
sS'.thisRepN'
p4562
I36
sg26
S'Y'
sg20
S'N'
sg32
g33
sS'.thisTrialN'
p4563
I12
sS'.thisN'
p4564
I552
sg25
S'Y'
sg15
(lp4565
S'd'
asg30
g31
sg17
S'Y'
sg14
I12
sg19
(lp4566
S'space'
p4567
asg95
I12
sS'.thisIndex'
p4568
I12
sa(dp4569
g16
(lp4570
S'd'
asg18
S'N'
sS'.thisRepN'
p4571
I36
sg26
S'Y'
sg20
S'Y'
sg32
g33
sS'.thisTrialN'
p4572
I13
sS'.thisN'
p4573
I553
sg25
S'Y'
sg15
(lp4574
S'k'
asg30
g31
sg17
S'Y'
sg14
I12
sg19
Nsg95
I3
sS'.thisIndex'
p4575
I3
sa(dp4576
g16
(lp4577
S'k'
asg18
S'Y'
sS'.thisRepN'
p4578
I36
sg26
S'Y'
sg20
S'Y'
sg32
g33
sS'.thisTrialN'
p4579
I14
sS'.thisN'
p4580
I554
sg25
S'Y'
sg15
(lp4581
S'd'
asg30
g31
sg17
S'Y'
sg14
I12
sg19
(lp4582
S'space'
p4583
asg95
I5
sS'.thisIndex'
p4584
I5
sa(dp4585
g16
(lp4586
S'k'
asg18
S'Y'
sS'.thisRepN'
p4587
I37
sg26
S'Y'
sg20
S'N'
sg32
g33
sS'.thisTrialN'
p4588
I0
sS'.thisN'
p4589
I555
sg25
S'Y'
sg15
(lp4590
S'd'
asg30
g31
sg17
S'Y'
sg14
I12
sg19
Nsg95
I14
sS'.thisIndex'
p4591
I14
sa(dp4592
g18
S'N'
sS'.thisRepN'
p4593
I37
sg26
S'Y'
sg20
S'Y'
sg32
g33
sS'.thisTrialN'
p4594
I1
sS'.thisN'
p4595
I556
sg25
S'Y'
sg15
Nsg30
g31
sg17
g2119
sg14
I12
sg19
Nsg95
I9
sS'.thisIndex'
p4596
I9
sa(dp4597
g18
S'Y'
sS'.thisRepN'
p4598
I37
sg26
S'Y'
sg20
S'N'
sg32
g33
sS'.thisTrialN'
p4599
I2
sS'.thisN'
p4600
I557
sg25
S'Y'
sg15
Nsg30
g31
sg17
g2119
sg14
I12
sg19
Nsg95
I13
sS'.thisIndex'
p4601
I13
sa(dp4602
g16
(lp4603
S'k'
asg18
S'N'
sS'.thisRepN'
p4604
I37
sg26
S'Y'
sg20
S'N'
sg32
g33
sS'.thisTrialN'
p4605
I3
sS'.thisN'
p4606
I558
sg25
S'Y'
sg15
(lp4607
S'd'
asg30
g31
sg17
S'Y'
sg14
I12
sg19
(lp4608
S'd'
asg95
I2
sS'.thisIndex'
p4609
I2
sa(dp4610
g16
(lp4611
S'd'
asg18
S'N'
sS'.thisRepN'
p4612
I37
sg26
S'Y'
sg20
S'N'
sg32
g33
sS'.thisTrialN'
p4613
I4
sS'.thisN'
p4614
I559
sg25
S'Y'
sg15
(lp4615
S'd'
asg30
g31
sg17
S'N'
sg14
I12
sg19
(lp4616
S'space'
p4617
asg95
I4
sS'.thisIndex'
p4618
I4
sa(dp4619
g16
(lp4620
S'd'
asg18
S'N'
sS'.thisRepN'
p4621
I37
sg26
S'Y'
sg20
S'N'
sg32
g33
sS'.thisTrialN'
p4622
I5
sS'.thisN'
p4623
I560
sg25
S'Y'
sg15
(lp4624
S'd'
asg30
g31
sg17
S'N'
sg14
I12
sg19
(lp4625
S'space'
p4626
asg95
I13
sS'.thisIndex'
p4627
I13
sa(dp4628
g16
(lp4629
S'd'
asg18
S'N'
sS'.thisRepN'
p4630
I37
sg26
S'Y'
sg20
S'N'
sg32
g33
sS'.thisTrialN'
p4631
I6
sS'.thisN'
p4632
I561
sg25
S'Y'
sg15
(lp4633
S'k'
asg30
g31
sg17
S'Y'
sg14
I12
sg19
(lp4634
S'space'
p4635
asg95
I5
sS'.thisIndex'
p4636
I5
sa(dp4637
g16
(lp4638
S'k'
asg18
S'N'
sS'.thisRepN'
p4639
I37
sg26
S'Y'
sg20
S'N'
sg32
g33
sS'.thisTrialN'
p4640
I7
sS'.thisN'
p4641
I562
sg25
S'Y'
sg15
(lp4642
S'd'
asg30
g31
sg17
S'Y'
sg14
I12
sg19
(lp4643
S'd'
asg95
I0
sS'.thisIndex'
p4644
I0
sa(dp4645
g16
(lp4646
S'k'
asg18
S'N'
sS'.thisRepN'
p4647
I37
sg26
S'Y'
sg20
S'N'
sg32
g33
sS'.thisTrialN'
p4648
I8
sS'.thisN'
p4649
I563
sg25
S'Y'
sg15
(lp4650
S'd'
asg30
g31
sg17
S'Y'
sg14
I12
sg19
(lp4651
S'space'
p4652
asg95
I2
sS'.thisIndex'
p4653
I2
sa(dp4654
g16
(lp4655
S'd'
asg18
S'N'
sS'.thisRepN'
p4656
I37
sg26
S'Y'
sg20
S'N'
sg32
g33
sS'.thisTrialN'
p4657
I9
sS'.thisN'
p4658
I564
sg25
S'Y'
sg15
(lp4659
S'd'
asg30
g31
sg17
S'N'
sg14
I12
sg19
(lp4660
S'k'
asg95
I3
sS'.thisIndex'
p4661
I3
sa(dp4662
g16
(lp4663
S'k'
asg18
S'Y'
sS'.thisRepN'
p4664
I37
sg26
S'Y'
sg20
S'Y'
sg32
g33
sS'.thisTrialN'
p4665
I10
sS'.thisN'
p4666
I565
sg25
S'Y'
sg15
(lp4667
S'k'
asg30
g31
sg17
S'N'
sg14
I12
sg19
(lp4668
S'space'
p4669
asg95
I4
sS'.thisIndex'
p4670
I4
sa(dp4671
g16
(lp4672
S'd'
asg18
S'Y'
sS'.thisRepN'
p4673
I37
sg26
S'Y'
sg20
S'N'
sg32
g33
sS'.thisTrialN'
p4674
I11
sS'.thisN'
p4675
I566
sg25
S'Y'
sg15
(lp4676
S'd'
asg30
g31
sg17
S'N'
sg14
I12
sg19
(lp4677
S'd'
asg95
I10
sS'.thisIndex'
p4678
I10
sa(dp4679
g16
(lp4680
S'k'
asg18
S'Y'
sS'.thisRepN'
p4681
I37
sg26
S'Y'
sg20
S'Y'
sg32
g33
sS'.thisTrialN'
p4682
I12
sS'.thisN'
p4683
I567
sg25
S'Y'
sg15
(lp4684
S'k'
asg30
g31
sg17
S'N'
sg14
I12
sg19
(lp4685
S'space'
p4686
asg95
I8
sS'.thisIndex'
p4687
I8
sa(dp4688
g16
(lp4689
S'k'
asg18
S'Y'
sS'.thisRepN'
p4690
I37
sg26
S'Y'
sg20
S'N'
sg32
g33
sS'.thisTrialN'
p4691
I13
sS'.thisN'
p4692
I568
sg25
S'Y'
sg15
(lp4693
S'd'
asg30
g31
sg17
S'Y'
sg14
I12
sg19
(lp4694
S'd'
asg95
I6
sS'.thisIndex'
p4695
I6
sa(dp4696
g16
(lp4697
S'k'
asg18
S'N'
sS'.thisRepN'
p4698
I37
sg26
S'Y'
sg20
S'N'
sg32
g33
sS'.thisTrialN'
p4699
I14
sS'.thisN'
p4700
I569
sg25
S'Y'
sg15
(lp4701
S'k'
asg30
g31
sg17
S'N'
sg14
I12
sg19
(lp4702
S'space'
p4703
asg95
I0
sS'.thisIndex'
p4704
I0
sa(dp4705
g16
(lp4706
S'd'
asg18
S'N'
sS'.thisRepN'
p4707
I38
sg26
S'Y'
sg20
S'Y'
sg32
g33
sS'.thisTrialN'
p4708
I0
sS'.thisN'
p4709
I570
sg25
S'Y'
sg15
(lp4710
S'd'
asg30
g31
sg17
S'N'
sg14
I12
sg19
Nsg95
I6
sS'.thisIndex'
p4711
I6
sa(dp4712
g16
(lp4713
S'k'
asg18
S'N'
sS'.thisRepN'
p4714
I38
sg26
S'Y'
sg20
S'Y'
sg32
g33
sS'.thisTrialN'
p4715
I1
sS'.thisN'
p4716
I571
sg25
S'Y'
sg15
(lp4717
S'k'
asg30
g31
sg17
S'N'
sg14
I12
sg19
Nsg95
I12
sS'.thisIndex'
p4718
I12
sa(dp4719
g16
(lp4720
S'k'
asg18
S'N'
sS'.thisRepN'
p4721
I38
sg26
S'Y'
sg20
S'N'
sg32
g33
sS'.thisTrialN'
p4722
I2
sS'.thisN'
p4723
I572
sg25
S'Y'
sg15
(lp4724
S'd'
asg30
g31
sg17
S'Y'
sg14
I12
sg19
(lp4725
S'space'
p4726
asg95
I7
sS'.thisIndex'
p4727
I7
sa(dp4728
g16
(lp4729
S'd'
asg18
S'N'
sS'.thisRepN'
p4730
I38
sg26
S'Y'
sg20
S'Y'
sg32
g33
sS'.thisTrialN'
p4731
I3
sS'.thisN'
p4732
I573
sg25
S'Y'
sg15
(lp4733
S'd'
asg30
g31
sg17
S'N'
sg14
I12
sg19
Nsg95
I6
sS'.thisIndex'
p4734
I6
sa(dp4735
g16
(lp4736
S'k'
asg18
S'N'
sS'.thisRepN'
p4737
I38
sg26
S'Y'
sg20
S'Y'
sg32
g33
sS'.thisTrialN'
p4738
I4
sS'.thisN'
p4739
I574
sg25
S'Y'
sg15
(lp4740
S'k'
asg30
g31
sg17
S'N'
sg14
I12
sg19
Nsg95
I8
sS'.thisIndex'
p4741
I8
sa(dp4742
g16
(lp4743
S'd'
asg18
S'N'
sS'.thisRepN'
p4744
I38
sg26
S'Y'
sg20
S'N'
sg32
g33
sS'.thisTrialN'
p4745
I5
sS'.thisN'
p4746
I575
sg25
S'Y'
sg15
(lp4747
S'd'
asg30
g31
sg17
S'N'
sg14
I12
sg19
(lp4748
S'space'
p4749
asg95
I7
sS'.thisIndex'
p4750
I7
sa(dp4751
g16
(lp4752
S'd'
asg18
S'N'
sS'.thisRepN'
p4753
I38
sg26
S'Y'
sg20
S'N'
sg32
g33
sS'.thisTrialN'
p4754
I6
sS'.thisN'
p4755
I576
sg25
S'Y'
sg15
(lp4756
S'k'
asg30
g31
sg17
S'Y'
sg14
I12
sg19
(lp4757
S'space'
p4758
asg95
I7
sS'.thisIndex'
p4759
I7
sa(dp4760
g16
(lp4761
S'k'
asg18
S'N'
sS'.thisRepN'
p4762
I38
sg26
S'Y'
sg20
S'N'
sg32
g33
sS'.thisTrialN'
p4763
I7
sS'.thisN'
p4764
I577
sg25
S'Y'
sg15
(lp4765
S'd'
asg30
g31
sg17
S'Y'
sg14
I12
sg19
(lp4766
S'd'
asg95
I13
sS'.thisIndex'
p4767
I13
sa(dp4768
g16
(lp4769
S'd'
asg18
S'Y'
sS'.thisRepN'
p4770
I38
sg26
S'Y'
sg20
S'Y'
sg32
g33
sS'.thisTrialN'
p4771
I8
sS'.thisN'
p4772
I578
sg25
S'Y'
sg15
(lp4773
S'd'
asg30
g31
sg17
S'N'
sg14
I12
sg19
(lp4774
S'space'
p4775
asg95
I14
sS'.thisIndex'
p4776
I14
sa(dp4777
g16
(lp4778
S'd'
asg18
S'Y'
sS'.thisRepN'
p4779
I38
sg26
S'Y'
sg20
S'N'
sg32
g33
sS'.thisTrialN'
p4780
I9
sS'.thisN'
p4781
I579
sg25
S'Y'
sg15
(lp4782
S'd'
asg30
g31
sg17
S'N'
sg14
I12
sg19
Nsg95
I12
sS'.thisIndex'
p4783
I12
sa(dp4784
g16
(lp4785
S'k'
asg18
S'Y'
sS'.thisRepN'
p4786
I38
sg26
S'Y'
sg20
S'N'
sg32
g33
sS'.thisTrialN'
p4787
I10
sS'.thisN'
p4788
I580
sg25
S'Y'
sg15
(lp4789
S'k'
asg30
g31
sg17
S'N'
sg14
I12
sg19
Nsg95
I6
sS'.thisIndex'
p4790
I6
sa(dp4791
g16
(lp4792
S'k'
asg18
S'Y'
sS'.thisRepN'
p4793
I38
sg26
S'Y'
sg20
S'N'
sg32
g33
sS'.thisTrialN'
p4794
I11
sS'.thisN'
p4795
I581
sg25
S'Y'
sg15
(lp4796
S'd'
asg30
g31
sg17
S'Y'
sg14
I12
sg19
(lp4797
S'd'
asg95
I2
sS'.thisIndex'
p4798
I2
sa(dp4799
g16
(lp4800
S'k'
asg18
S'N'
sS'.thisRepN'
p4801
I38
sg26
S'Y'
sg20
S'Y'
sg32
g33
sS'.thisTrialN'
p4802
I12
sS'.thisN'
p4803
I582
sg25
S'Y'
sg15
(lp4804
S'k'
asg30
g31
sg17
S'N'
sg14
I12
sg19
Nsg95
I9
sS'.thisIndex'
p4805
I9
sa(dp4806
g16
(lp4807
S'd'
asg18
S'N'
sS'.thisRepN'
p4808
I38
sg26
S'Y'
sg20
S'N'
sg32
g33
sS'.thisTrialN'
p4809
I13
sS'.thisN'
p4810
I583
sg25
S'Y'
sg15
(lp4811
S'd'
asg30
g31
sg17
S'N'
sg14
I12
sg19
(lp4812
S'space'
p4813
asg95
I6
sS'.thisIndex'
p4814
I6
sa(dp4815
g16
(lp4816
S'k'
asg18
S'N'
sS'.thisRepN'
p4817
I38
sg26
S'Y'
sg20
S'Y'
sg32
g33
sS'.thisTrialN'
p4818
I14
sS'.thisN'
p4819
I584
sg25
S'Y'
sg15
(lp4820
S'k'
asg30
g31
sg17
S'N'
sg14
I12
sg19
Nsg95
I2
sS'.thisIndex'
p4821
I2
sa(dp4822
g16
(lp4823
S'd'
asg18
S'Y'
sS'.thisRepN'
p4824
I39
sg26
S'Y'
sg20
S'Y'
sg32
g33
sS'.thisTrialN'
p4825
I0
sS'.thisN'
p4826
I585
sg25
S'Y'
sg15
(lp4827
S'd'
asg30
g31
sg17
S'N'
sg14
I12
sg19
(lp4828
S'space'
p4829
asg95
I0
sS'.thisIndex'
p4830
I0
sa(dp4831
g16
(lp4832
S'k'
asg18
S'Y'
sS'.thisRepN'
p4833
I39
sg26
S'Y'
sg20
S'N'
sg32
g33
sS'.thisTrialN'
p4834
I1
sS'.thisN'
p4835
I586
sg25
S'Y'
sg15
(lp4836
S'k'
asg30
g31
sg17
S'N'
sg14
I12
sg19
Nsg95
I14
sS'.thisIndex'
p4837
I14
sa(dp4838
g16
(lp4839
S'k'
asg18
S'N'
sS'.thisRepN'
p4840
I39
sg26
S'Y'
sg20
S'N'
sg32
g33
sS'.thisTrialN'
p4841
I2
sS'.thisN'
p4842
I587
sg25
S'Y'
sg15
(lp4843
S'd'
asg30
g31
sg17
S'Y'
sg14
I12
sg19
(lp4844
S'd'
asg95
I7
sS'.thisIndex'
p4845
I7
sa(dp4846
g16
(lp4847
S'd'
asg18
S'Y'
sS'.thisRepN'
p4848
I39
sg26
S'Y'
sg20
S'Y'
sg32
g33
sS'.thisTrialN'
p4849
I3
sS'.thisN'
p4850
I588
sg25
S'Y'
sg15
(lp4851
S'd'
asg30
g31
sg17
S'N'
sg14
I12
sg19
(lp4852
S'space'
p4853
asg95
I9
sS'.thisIndex'
p4854
I9
sa(dp4855
g16
(lp4856
S'k'
asg18
S'Y'
sS'.thisRepN'
p4857
I39
sg26
S'Y'
sg20
S'N'
sg32
g33
sS'.thisTrialN'
p4858
I4
sS'.thisN'
p4859
I589
sg25
S'Y'
sg15
(lp4860
S'k'
asg30
g31
sg17
S'N'
sg14
I12
sg19
Nsg95
I10
sS'.thisIndex'
p4861
I10
sa(dp4862
g16
(lp4863
S'd'
asg18
S'N'
sS'.thisRepN'
p4864
I39
sg26
S'Y'
sg20
S'N'
sg32
g33
sS'.thisTrialN'
p4865
I5
sS'.thisN'
p4866
I590
sg25
S'Y'
sg15
(lp4867
S'd'
asg30
g31
sg17
S'N'
sg14
I12
sg19
(lp4868
S'd'
asg95
I4
sS'.thisIndex'
p4869
I4
sa(dp4870
g16
(lp4871
S'k'
asg18
S'Y'
sS'.thisRepN'
p4872
I39
sg26
S'Y'
sg20
S'Y'
sg32
g33
sS'.thisTrialN'
p4873
I6
sS'.thisN'
p4874
I591
sg25
S'Y'
sg15
(lp4875
S'k'
asg30
g31
sg17
S'N'
sg14
I12
sg19
(lp4876
S'space'
p4877
asg95
I9
sS'.thisIndex'
p4878
I9
sa(dp4879
g16
(lp4880
S'k'
asg18
S'N'
sS'.thisRepN'
p4881
I39
sg26
S'Y'
sg20
S'N'
sg32
g33
sS'.thisTrialN'
p4882
I7
sS'.thisN'
p4883
I592
sg25
S'Y'
sg15
(lp4884
S'd'
asg30
g31
sg17
S'Y'
sg14
I12
sg19
(lp4885
S'space'
p4886
asg95
I0
sS'.thisIndex'
p4887
I0
sa(dp4888
g16
(lp4889
S'k'
asg18
S'N'
sS'.thisRepN'
p4890
I39
sg26
S'Y'
sg20
S'N'
sg32
g33
sS'.thisTrialN'
p4891
I8
sS'.thisN'
p4892
I593
sg25
S'Y'
sg15
(lp4893
S'd'
asg30
g31
sg17
S'Y'
sg14
I12
sg19
(lp4894
S'space'
p4895
asg95
I10
sS'.thisIndex'
p4896
I10
sa(dp4897
g16
(lp4898
S'k'
asg18
S'N'
sS'.thisRepN'
p4899
I39
sg26
S'Y'
sg20
S'Y'
sg32
g33
sS'.thisTrialN'
p4900
I9
sS'.thisN'
p4901
I594
sg25
S'Y'
sg15
(lp4902
S'd'
asg30
g31
sg17
S'Y'
sg14
I12
sg19
Nsg95
I2
sS'.thisIndex'
p4903
I2
sa(dp4904
g16
(lp4905
S'd'
asg18
S'Y'
sS'.thisRepN'
p4906
I39
sg26
S'Y'
sg20
S'N'
sg32
g33
sS'.thisTrialN'
p4907
I10
sS'.thisN'
p4908
I595
sg25
S'Y'
sg15
(lp4909
S'd'
asg30
g31
sg17
S'N'
sg14
I12
sg19
Nsg95
I9
sS'.thisIndex'
p4910
I9
sa(dp4911
g16
(lp4912
S'k'
asg18
S'N'
sS'.thisRepN'
p4913
I39
sg26
S'Y'
sg20
S'N'
sg32
g33
sS'.thisTrialN'
p4914
I11
sS'.thisN'
p4915
I596
sg25
S'Y'
sg15
(lp4916
S'k'
asg30
g31
sg17
S'N'
sg14
I12
sg19
(lp4917
S'space'
p4918
asg95
I3
sS'.thisIndex'
p4919
I3
sa(dp4920
g16
(lp4921
S'k'
asg18
S'N'
sS'.thisRepN'
p4922
I39
sg26
S'Y'
sg20
S'N'
sg32
g33
sS'.thisTrialN'
p4923
I12
sS'.thisN'
p4924
I597
sg25
S'Y'
sg15
(lp4925
S'd'
asg30
g31
sg17
S'Y'
sg14
I12
sg19
(lp4926
S'space'
p4927
asg95
I14
sS'.thisIndex'
p4928
I14
sa(dp4929
g16
(lp4930
S'k'
asg18
S'N'
sS'.thisRepN'
p4931
I39
sg26
S'Y'
sg20
S'Y'
sg32
g33
sS'.thisTrialN'
p4932
I13
sS'.thisN'
p4933
I598
sg25
S'Y'
sg15
(lp4934
S'k'
asg30
g31
sg17
S'N'
sg14
I12
sg19
Nsg95
I4
sS'.thisIndex'
p4935
I4
sa(dp4936
g16
(lp4937
S'd'
asg18
S'Y'
sg22
I17
sg26
S'Y'
sS'.thisN'
p4938
I599
sg20
S'N'
sg32
g33
sS'.thisTrialN'
p4939
I14
sS'.thisRepN'
p4940
I39
sg21
I20
sg25
S'Y'
sg23
I18
sg15
(lp4941
S'd'
asg30
g31
sg17
S'N'
sg14
I12
sg19
(lp4942
S'd'
asg95
I9
sS'.thisIndex'
p4943
I9
sasS'loops'
p4944
(lp4945
g1
(g36
g3
NtRp4946
(dp4947
g39
Nsg40
(lp4948
sg41
I82084848
sg10
S''
sg6
g42
sg43
I1
sg27
I01
sg28
Nsg44
g1
(g45
g46
(dp4949
g48
g49
(g50
g51
g52
S'b'
tRp4950
(I1
(I600
I1
tg55
I00
S'\x00\x00\x80?\x00\x00\x80?\x00\x00\x80?\x00\x00\x80?\x00\x00\x80?\x00\x00\x80?\x00\x00\x80?\x00\x00\x80?\x00\x00\x80?\x00\x00\x80?\x00\x00\x80?\x00\x00\x80?\x00\x00\x80?\x00\x00\x80?\x00\x00\x80?\x00\x00\x80?\x00\x00\x80?\x00\x00\x80?\x00\x00\x80?\x00\x00\x80?\x00\x00\x80?\x00\x00\x80?\x00\x00\x80?\x00\x00\x80?\x00\x00\x80?\x00\x00\x80?\x00\x00\x80?\x00\x00\x80?\x00\x00\x80?\x00\x00\x80?\x00\x00\x80?\x00\x00\x80?\x00\x00\x80?\x00\x00\x80?\x00\x00\x80?\x00\x00\x80?\x00\x00\x80?\x00\x00\x80?\x00\x00\x80?\x00\x00\x80?\x00\x00\x80?\x00\x00\x80?\x00\x00\x80?\x00\x00\x80?\x00\x00\x80?\x00\x00\x80?\x00\x00\x80?\x00\x00\x80?\x00\x00\x80?\x00\x00\x80?\x00\x00\x80?\x00\x00\x80?\x00\x00\x80?\x00\x00\x80?\x00\x00\x80?\x00\x00\x80?\x00\x00\x80?\x00\x00\x80?\x00\x00\x80?\x00\x00\x80?\x00\x00\x80?\x00\x00\x80?\x00\x00\x80?\x00\x00\x80?\x00\x00\x80?\x00\x00\x80?\x00\x00\x80?\x00\x00\x80?\x00\x00\x80?\x00\x00\x80?\x00\x00\x80?\x00\x00\x80?\x00\x00\x80?\x00\x00\x80?\x00\x00\x80?\x00\x00\x80?\x00\x00\x80?\x00\x00\x80?\x00\x00\x80?\x00\x00\x80?\x00\x00\x80?\x00\x00\x80?\x00\x00\x80?\x00\x00\x80?\x00\x00\x80?\x00\x00\x80?\x00\x00\x80?\x00\x00\x80?\x00\x00\x80?\x00\x00\x80?\x00\x00\x80?\x00\x00\x80?\x00\x00\x80?\x00\x00\x80?\x00\x00\x80?\x00\x00\x80?\x00\x00\x80?\x00\x00\x80?\x00\x00\x80?\x00\x00\x80?\x00\x00\x80?\x00\x00\x80?\x00\x00\x80?\x00\x00\x80?\x00\x00\x80?\x00\x00\x80?\x00\x00\x80?\x00\x00\x80?\x00\x00\x80?\x00\x00\x80?\x00\x00\x80?\x00\x00\x80?\x00\x00\x80?\x00\x00\x80?\x00\x00\x80?\x00\x00\x80?\x00\x00\x80?\x00\x00\x80?\x00\x00\x80?\x00\x00\x80?\x00\x00\x80?\x00\x00\x80?\x00\x00\x80?\x00\x00\x80?\x00\x00\x80?\x00\x00\x80?\x00\x00\x80?\x00\x00\x80?\x00\x00\x80?\x00\x00\x80?\x00\x00\x80?\x00\x00\x80?\x00\x00\x80?\x00\x00\x80?\x00\x00\x80?\x00\x00\x80?\x00\x00\x80?\x00\x00\x80?\x00\x00\x80?\x00\x00\x80?\x00\x00\x80?\x00\x00\x80?\x00\x00\x80?\x00\x00\x80?\x00\x00\x80?\x00\x00\x80?\x00\x00\x80?\x00\x00\x80?\x00\x00\x80?\x00\x00\x80?\x00\x00\x80?\x00\x00\x80?\x00\x00\x80?\x00\x00\x80?\x00\x00\x80?\x00\x00\x80?\x00\x00\x80?\x00\x00\x80?\x00\x00\x80?\x00\x00\x80?\x00\x00\x80?\x00\x00\x80?\x00\x00\x80?\x00\x00\x80?\x00\x00\x80?\x00\x00\x80?\x00\x00\x80?\x00\x00\x80?\x00\x00\x80?\x00\x00\x80?\x00\x00\x80?\x00\x00\x80?\x00\x00\x80?\x00\x00\x80?\x00\x00\x80?\x00\x00\x80?\x00\x00\x80?\x00\x00\x80?\x00\x00\x80?\x00\x00\x80?\x00\x00\x80?\x00\x00\x80?\x00\x00\x80?\x00\x00\x80?\x00\x00\x80?\x00\x00\x80?\x00\x00\x80?\x00\x00\x80?\x00\x00\x80?\x00\x00\x80?\x00\x00\x80?\x00\x00\x80?\x00\x00\x80?\x00\x00\x80?\x00\x00\x80?\x00\x00\x80?\x00\x00\x80?\x00\x00\x80?\x00\x00\x80?\x00\x00\x80?\x00\x00\x80?\x00\x00\x80?\x00\x00\x80?\x00\x00\x80?\x00\x00\x80?\x00\x00\x80?\x00\x00\x80?\x00\x00\x80?\x00\x00\x80?\x00\x00\x80?\x00\x00\x80?\x00\x00\x80?\x00\x00\x80?\x00\x00\x80?\x00\x00\x80?\x00\x00\x80?\x00\x00\x80?\x00\x00\x80?\x00\x00\x80?\x00\x00\x80?\x00\x00\x80?\x00\x00\x80?\x00\x00\x80?\x00\x00\x80?\x00\x00\x80?\x00\x00\x80?\x00\x00\x80?\x00\x00\x80?\x00\x00\x80?\x00\x00\x80?\x00\x00\x80?\x00\x00\x80?\x00\x00\x80?\x00\x00\x80?\x00\x00\x80?\x00\x00\x80?\x00\x00\x80?\x00\x00\x80?\x00\x00\x80?\x00\x00\x80?\x00\x00\x80?\x00\x00\x80?\x00\x00\x80?\x00\x00\x80?\x00\x00\x80?\x00\x00\x80?\x00\x00\x80?\x00\x00\x80?\x00\x00\x80?\x00\x00\x80?\x00\x00\x80?\x00\x00\x80?\x00\x00\x80?\x00\x00\x80?\x00\x00\x80?\x00\x00\x80?\x00\x00\x80?\x00\x00\x80?\x00\x00\x80?\x00\x00\x80?\x00\x00\x80?\x00\x00\x80?\x00\x00\x80?\x00\x00\x80?\x00\x00\x80?\x00\x00\x80?\x00\x00\x80?\x00\x00\x80?\x00\x00\x80?\x00\x00\x80?\x00\x00\x80?\x00\x00\x80?\x00\x00\x80?\x00\x00\x80?\x00\x00\x80?\x00\x00\x80?\x00\x00\x80?\x00\x00\x80?\x00\x00\x80?\x00\x00\x80?\x00\x00\x80?\x00\x00\x80?\x00\x00\x80?\x00\x00\x80?\x00\x00\x80?\x00\x00\x80?\x00\x00\x80?\x00\x00\x80?\x00\x00\x80?\x00\x00\x80?\x00\x00\x80?\x00\x00\x80?\x00\x00\x80?\x00\x00\x80?\x00\x00\x80?\x00\x00\x80?\x00\x00\x80?\x00\x00\x80?\x00\x00\x80?\x00\x00\x80?\x00\x00\x80?\x00\x00\x80?\x00\x00\x80?\x00\x00\x80?\x00\x00\x80?\x00\x00\x80?\x00\x00\x80?\x00\x00\x80?\x00\x00\x80?\x00\x00\x80?\x00\x00\x80?\x00\x00\x80?\x00\x00\x80?\x00\x00\x80?\x00\x00\x80?\x00\x00\x80?\x00\x00\x80?\x00\x00\x80?\x00\x00\x80?\x00\x00\x80?\x00\x00\x80?\x00\x00\x80?\x00\x00\x80?\x00\x00\x80?\x00\x00\x80?\x00\x00\x80?\x00\x00\x80?\x00\x00\x80?\x00\x00\x80?\x00\x00\x80?\x00\x00\x80?\x00\x00\x80?\x00\x00\x80?\x00\x00\x80?\x00\x00\x80?\x00\x00\x80?\x00\x00\x80?\x00\x00\x80?\x00\x00\x80?\x00\x00\x80?\x00\x00\x80?\x00\x00\x80?\x00\x00\x80?\x00\x00\x80?\x00\x00\x80?\x00\x00\x80?\x00\x00\x80?\x00\x00\x80?\x00\x00\x80?\x00\x00\x80?\x00\x00\x80?\x00\x00\x80?\x00\x00\x80?\x00\x00\x80?\x00\x00\x80?\x00\x00\x80?\x00\x00\x80?\x00\x00\x80?\x00\x00\x80?\x00\x00\x80?\x00\x00\x80?\x00\x00\x80?\x00\x00\x80?\x00\x00\x80?\x00\x00\x80?\x00\x00\x80?\x00\x00\x80?\x00\x00\x80?\x00\x00\x80?\x00\x00\x80?\x00\x00\x80?\x00\x00\x80?\x00\x00\x80?\x00\x00\x80?\x00\x00\x80?\x00\x00\x80?\x00\x00\x80?\x00\x00\x80?\x00\x00\x80?\x00\x00\x80?\x00\x00\x80?\x00\x00\x80?\x00\x00\x80?\x00\x00\x80?\x00\x00\x80?\x00\x00\x80?\x00\x00\x80?\x00\x00\x80?\x00\x00\x80?\x00\x00\x80?\x00\x00\x80?\x00\x00\x80?\x00\x00\x80?\x00\x00\x80?\x00\x00\x80?\x00\x00\x80?\x00\x00\x80?\x00\x00\x80?\x00\x00\x80?\x00\x00\x80?\x00\x00\x80?\x00\x00\x80?\x00\x00\x80?\x00\x00\x80?\x00\x00\x80?\x00\x00\x80?\x00\x00\x80?\x00\x00\x80?\x00\x00\x80?\x00\x00\x80?\x00\x00\x80?\x00\x00\x80?\x00\x00\x80?\x00\x00\x80?\x00\x00\x80?\x00\x00\x80?\x00\x00\x80?\x00\x00\x80?\x00\x00\x80?\x00\x00\x80?\x00\x00\x80?\x00\x00\x80?\x00\x00\x80?\x00\x00\x80?\x00\x00\x80?\x00\x00\x80?\x00\x00\x80?\x00\x00\x80?\x00\x00\x80?\x00\x00\x80?\x00\x00\x80?\x00\x00\x80?\x00\x00\x80?\x00\x00\x80?\x00\x00\x80?\x00\x00\x80?\x00\x00\x80?\x00\x00\x80?\x00\x00\x80?\x00\x00\x80?\x00\x00\x80?\x00\x00\x80?\x00\x00\x80?\x00\x00\x80?\x00\x00\x80?\x00\x00\x80?\x00\x00\x80?\x00\x00\x80?\x00\x00\x80?\x00\x00\x80?\x00\x00\x80?\x00\x00\x80?\x00\x00\x80?\x00\x00\x80?\x00\x00\x80?\x00\x00\x80?\x00\x00\x80?\x00\x00\x80?\x00\x00\x80?\x00\x00\x80?\x00\x00\x80?\x00\x00\x80?\x00\x00\x80?\x00\x00\x80?\x00\x00\x80?\x00\x00\x80?\x00\x00\x80?\x00\x00\x80?\x00\x00\x80?\x00\x00\x80?\x00\x00\x80?\x00\x00\x80?\x00\x00\x80?\x00\x00\x80?\x00\x00\x80?\x00\x00\x80?\x00\x00\x80?\x00\x00\x80?\x00\x00\x80?\x00\x00\x80?\x00\x00\x80?\x00\x00\x80?\x00\x00\x80?\x00\x00\x80?\x00\x00\x80?\x00\x00\x80?\x00\x00\x80?\x00\x00\x80?\x00\x00\x80?\x00\x00\x80?\x00\x00\x80?\x00\x00\x80?\x00\x00\x80?\x00\x00\x80?\x00\x00\x80?\x00\x00\x80?\x00\x00\x80?\x00\x00\x80?\x00\x00\x80?\x00\x00\x80?\x00\x00\x80?\x00\x00\x80?\x00\x00\x80?\x00\x00\x80?\x00\x00\x80?\x00\x00\x80?\x00\x00\x80?\x00\x00\x80?\x00\x00\x80?\x00\x00\x80?\x00\x00\x80?\x00\x00\x80?\x00\x00\x80?\x00\x00\x80?\x00\x00\x80?\x00\x00\x80?\x00\x00\x80?\x00\x00\x80?\x00\x00\x80?\x00\x00\x80?\x00\x00\x80?\x00\x00\x80?\x00\x00\x80?\x00\x00\x80?\x00\x00\x80?\x00\x00\x80?\x00\x00\x80?\x00\x00\x80?\x00\x00\x80?\x00\x00\x80?\x00\x00\x80?\x00\x00\x80?\x00\x00\x80?\x00\x00\x80?\x00\x00\x80?\x00\x00\x80?\x00\x00\x80?\x00\x00\x80?\x00\x00\x80?\x00\x00\x80?\x00\x00\x80?\x00\x00\x80?\x00\x00\x80?\x00\x00\x80?\x00\x00\x80?\x00\x00\x80?\x00\x00\x80?\x00\x00\x80?\x00\x00\x80?\x00\x00\x80?\x00\x00\x80?\x00\x00\x80?\x00\x00\x80?\x00\x00\x80?\x00\x00\x80?\x00\x00\x80?\x00\x00\x80?\x00\x00\x80?\x00\x00\x80?\x00\x00\x80?\x00\x00\x80?\x00\x00\x80?\x00\x00\x80?\x00\x00\x80?\x00\x00\x80?\x00\x00\x80?\x00\x00\x80?\x00\x00\x80?\x00\x00\x80?\x00\x00\x80?\x00\x00\x80?\x00\x00\x80?\x00\x00\x80?\x00\x00\x80?\x00\x00\x80?\x00\x00\x80?\x00\x00\x80?\x00\x00\x80?\x00\x00\x80?\x00\x00\x80?\x00\x00\x80?\x00\x00\x80?\x00\x00\x80?\x00\x00\x80?\x00\x00\x80?\x00\x00\x80?\x00\x00\x80?\x00\x00\x80?\x00\x00\x80?\x00\x00\x80?\x00\x00\x80?\x00\x00\x80?\x00\x00\x80?\x00\x00\x80?\x00\x00\x80?\x00\x00\x80?\x00\x00\x80?\x00\x00\x80?\x00\x00\x80?\x00\x00\x80?'
S'\x00\x00\x00\x00\x00\x00\x00\x00\x00\x00\x00\x00\x00\x00\x00\x00\x00\x00\x00\x00\x00\x00\x00\x00\x00\x00\x00\x00\x00\x00\x00\x00\x00\x00\x00\x00\x00\x00\x00\x00\x00\x00\x00\x00\x00\x00\x00\x00\x00\x00\x00\x00\x00\x00\x00\x00\x00\x00\x00\x00\x00\x00\x00\x00\x00\x00\x00\x00\x00\x00\x00\x00\x00\x00\x00\x00\x00\x00\x00\x00\x00\x00\x00\x00\x00\x00\x00\x00\x00\x00\x00\x00\x00\x00\x00\x00\x00\x00\x00\x00\x00\x00\x00\x00\x00\x00\x00\x00\x00\x00\x00\x00\x00\x00\x00\x00\x00\x00\x00\x00\x00\x00\x00\x00\x00\x00\x00\x00\x00\x00\x00\x00\x00\x00\x00\x00\x00\x00\x00\x00\x00\x00\x00\x00\x00\x00\x00\x00\x00\x00\x00\x00\x00\x00\x00\x00\x00\x00\x00\x00\x00\x00\x00\x00\x00\x00\x00\x00\x00\x00\x00\x00\x00\x00\x00\x00\x00\x00\x00\x00\x00\x00\x00\x00\x00\x00\x00\x00\x00\x00\x00\x00\x00\x00\x00\x00\x00\x00\x00\x00\x00\x00\x00\x00\x00\x00\x00\x00\x00\x00\x00\x00\x00\x00\x00\x00\x00\x00\x00\x00\x00\x00\x00\x00\x00\x00\x00\x00\x00\x00\x00\x00\x00\x00\x00\x00\x00\x00\x00\x00\x00\x00\x00\x00\x00\x00\x00\x00\x00\x00\x00\x00\x00\x00\x00\x00\x00\x00\x00\x00\x00\x00\x00\x00\x00\x00\x00\x00\x00\x00\x00\x00\x00\x00\x00\x00\x00\x00\x00\x00\x00\x00\x00\x00\x00\x00\x00\x00\x00\x00\x00\x00\x00\x00\x00\x00\x00\x00\x00\x00\x00\x00\x00\x00\x00\x00\x00\x00\x00\x00\x00\x00\x00\x00\x00\x00\x00\x00\x00\x00\x00\x00\x00\x00\x00\x00\x00\x00\x00\x00\x00\x00\x00\x00\x00\x00\x00\x00\x00\x00\x00\x00\x00\x00\x00\x00\x00\x00\x00\x00\x00\x00\x00\x00\x00\x00\x00\x00\x00\x00\x00\x00\x00\x00\x00\x00\x00\x00\x00\x00\x00\x00\x00\x00\x00\x00\x00\x00\x00\x00\x00\x00\x00\x00\x00\x00\x00\x00\x00\x00\x00\x00\x00\x00\x00\x00\x00\x00\x00\x00\x00\x00\x00\x00\x00\x00\x00\x00\x00\x00\x00\x00\x00\x00\x00\x00\x00\x00\x00\x00\x00\x00\x00\x00\x00\x00\x00\x00\x00\x00\x00\x00\x00\x00\x00\x00\x00\x00\x00\x00\x00\x00\x00\x00\x00\x00\x00\x00\x00\x00\x00\x00\x00\x00\x00\x00\x00\x00\x00\x00\x00\x00\x00\x00\x00\x00\x00\x00\x00\x00\x00\x00\x00\x00\x00\x00\x00\x00\x00\x00\x00\x00\x00\x00\x00\x00\x00\x00\x00\x00\x00\x00\x00\x00\x00\x00\x00\x00\x00\x00\x00\x00\x00\x00\x00\x00\x00\x00\x00\x00\x00\x00\x00\x00\x00\x00\x00\x00\x00\x00\x00\x00\x00\x00\x00\x00\x00\x00\x00\x00\x00\x00\x00\x00\x00\x00\x00\x00\x00\x00\x00\x00\x00\x00\x00\x00\x00\x00\x00\x00\x00\x00\x00\x00\x00\x00\x00\x00\x00\x00\x00\x00\x00\x00\x00\x00\x00\x00\x00\x00\x00\x00\x00\x00\x00\x00\x00\x00\x00\x00\x00\x00\x00\x00\x00\x00\x00\x00\x00\x00\x00\x00\x00\x00\x00\x00\x00\x00\x00\x00'
Ntbsg56
g49
(g50
g51
g52
S'b'
tRp4951
(I1
(I600
I1
tg55
I00
S'\x00\x00\xc1C\x00\x00\xbbC\x00\x80\xd6C\x00\x80\x99C\x00\x00\x14B\x00\x00pA\x00\x00LC\x00\xc0\x10D\x00\x80\xd7C\x00\x80\xefC\x00\x00\xdcB\x00\x00\xfcC\x00\x80\x00D\x00\x00\xe0B\x00\x80\xc3C\x00\x00\x9cC\x00\x00\x8eC\x00\x80\x9dC\x00\x80\xeeC\x00\x00\x93C\x00\x00\x07C\x00\x00\xe0C\x00\x00\xd9C\x00\x00\xc0@\x00\xc0\x0fD\x00\x00\xe4B\x00@\x05D\x00\x00\xf0C\x00\x004C\x00@\x00D\x00\x001C\x00\x80\x06D\x00\x00\xc2B\x00\x00\x91C\x00\x00\x00A\x00\x00\x8fC\x00\x80\x03D\x00\x80\xc6C\x00\x00tC\x00\x00SC\x00\x00FC\x00\x00\xf4B\x00\x80\xc5C\x00\x00CC\x00\x00\x92C\x00\x00\xdcC\x00\x00\xe1C\x00@\x0bD\x00\x00\xf8C\x00\x00[C\x00\x80\xe0C\x00\x00\xe8C\x00\x00\x00C\x00\x00\x94B\x00\x00TC\x00\x00\x90B\x00\x00\xa0A\x00\x00\x08C\x00\x00\x10C\x00\x00\xddC\x00\x00NC\x00\x00\xc8C\x00\x00\x0cD\x00\x80\xb4C\x00@\x12D\x00\x00cC\x00\x80\xa2C\x00\xc0\x04D\x00\x80\xbbC\x00\x00\xc0B\x00\x00QC\x00\x00\xd6C\x00\x80\xd4C\x00\x00\xedC\x00\x80\xf3C\x00\x00&C\x00\x00\x02D\x00\x80\xd0C\x00\xc0\x0bD\x00\x00\xe0@\x00\x80\xccC\x00\x00\xb9C\x00\x00\xc9C\x00\x00\xa6B\x00\x80\xcfC\x00\x00\x98A\x00\x80\xcaC\x00\x00\rD\x00\x00\x19C\x00\x00\xdfC\x00\x00\xcbC\x00@\x0fD\x00\x00:C\x00\x00\xe0A\x00\x00\xcaB\x00\x80\xdfC\x00\x00XC\x00\x00\x04D\x00\x007C\x00\x00\xb4C\x00\x80\xf5C\x00\x80\xbdC\x00\x00PC\x00\x80\rD\x00\x00+C\x00@\x04D\x00\x00\x94C\x00\x00TB\x00\x00\xcdC\x00\x008C\x00\x00PB\x00\x00\xfeB\x00\x00\xa0@\x00\xc0\x02D\x00\xc0\x00D\x00\x80\xe1C\x00\x80\xd8C\x00\x00\xd3C\x00\x80\xf4C\x00\x80\x10D\x00\x00gC\x00\x00\x8eB\x00\x80\xd9C\x00\x80\xa8C\x00\x80\x04D\x00\x80\xe8C\x00\x80\x95C\x00\x00\x84B\x00\x00\xbdC\x00\x80\xe3C\x00\x00dC\x00\x80\xa4C\x00\x00 B\x00\x00\x88B\x00@\x01D\x00\x00>C\x00\x005C\x00\x00\x9dC\x00\x00\x0bC\x00\x00\x06D\x00\x80\x9aC\x00@\tD\x00\x00zC\x00\x00 A\x00\x00\xb8A\x00\x00\x8bC\x00\x00\x05C\x00\x80\xbeC\x00@\x06D\x00\x00\x0fC\x00\xc0\x07D\x00\x00ZC\x00\x80\x82C\x00\x00\xe8B\x00\x00\x08B\x00\x00\xb7C\x00\x00\xc8B\x00\x80\x13D\x00\x00\x1eC\x00\x00\xd0C\x00\x00JC\x00\x00\xafC\x00\x00\xb8C\x00\x00dB\x00\x00VC\x00\x00\xd5C\x00\x00\x1dC\x00\x80\x86C\x00\x00\xaeC\x00\x00\x98C\x00\x00\xffC\x00\x80\x94C\x00\x00\xc8A\x00\x00\xf7C\x00\x00PA\x00\xc0\x11D\x00\x00eC\x00\x80\xc0C\x00\x00MC\x00\x00\xf9C\x00\x80\xb5C\x00\x00jC\x00\x00\xdbC\x00\x80\x97C\x00\x00\x18C\x00\x80\x88C\x00\x00\xeaC\x00\x00\x80@\x00\x80\xc2C\x00\x80\x8bC\x00\x00lC\x00\x80\xb2C\x00\x00\xd2B\x00\x80\xfcC\x00\x00aC\x00\x00XB\x00\x80\xe2C\x00\x80\xfeC\x00\x00\xbcC\x00\x00\x04C\x00\x00\xf4C\x00\x00@A\x00\x00\x9fC\x00\x00^C\x00\x00\xf6B\x00\x00\x07D\x00\x00\x9bC\x00\x00\xe2B\x00\x00\x13D\x00\x00\xd4C\x00\x00\xa2C\x00\x80\x96C\x00\x00\x15C\x00\x00\x10A\x00\x00\x80?\x00\x00\xcfC\x00\x00lB\x00\xc0\x15D\x00\x00\xc6B\x00\x80\x8dC\x00\x80\xa3C\x00\x00\x0cC\x00\x00\xd4B\x00\x80\x84C\x00\x00\x10D\x00\x00\x98B\x00\xc0\x14D\x00\x00\x08D\x00\x00_C\x00\x00\xf0A\x00@\nD\x00\x00\x9cB\x00\x80\xafC\x00\x00\x85C\x00@\x02D\x00@\x0cD\x00\x00\xefC\x00\x00\x9eC\x00\x00\x1cC\x00\x00fC\x00\x00\xccC\x00\x00\xb2B\x00\x80\x0eD\x00\x00uC\x00\x00`A\x00\x80\xe9C\x00\x00\xfaC\x00\x00\xb5C\x00\x00\xfeC\x00\x00\xa6C\x00\x80\x92C\x00\x80\xbaC\x00\x00\xb6C\x00@\x03D\x00\x00\x00@\x00\x00,C\x00\x00LB\x00\x00AC\x00\x00wC\x00\x00sC\x00\x00 C\x00\x00\xd6B\x00\x00\x01D\x00\x003C\x00\x00tB\x00\x00DB\x00\x00YC\x00\x00(B\x00\x00\xeeC\x00\x00\nC\x00\x006C\x00\x00<C\x00\x00\xa2B\x00\x00\x05D\x00\x80\x89C\x00\x00\x1fC\x00\x00\xb0C\x00\x80\x85C\x00\x80\x9eC\x00\x00\x1bC\x00\x00\xdaC\x00\x00\xceC\x00\x80\xaaC\x00\x00\xa8B\x00\x80\xd2C\x00\x00\xa4C\x00\x00\x1aC\x00\x80\xaeC\x00\x00\xd8B\x00\x00\xeeB\x00\x00\xa9C\x00\x00hB\x00\xc0\x03D\x00@\x08D\x00\x00KC\x00\x00{C\x00\x80\xbfC\x00\x00@C\x00\x00EC\x00\x00`B\x00\x00\xadC\x00\x00\xacB\x00\xc0\x01D\x00@\x10D\x00\x80\x9fC\x00\x80\x9bC\x00\x00\xf5C\x00\x00\xc0C\x00\x00OC\x00\x80\xf1C\x00\x00\xa4B\x00\x00\xf8B\x00\x80\x0cD\x00\x00\xb1C\x00\x00\x15D\x00\x00iC\x00\x00-C\x00\xc0\x13D\x00\x00\x00\x00\x00\x00}C\x00\x00\xc4B\x00\x00|B\x00\x80\xa6C\x00\x00\x12D\x00\x00GC\x00\x80\xe6C\x00\x00\xc5C\x00\x80\xc8C\x00\x00\x06C\x00\x80\xc1C\x00\x00\xbcB\x00\x00\x88A\x00\x00\xe3C\x00\x00\x80C\x00\x00@B\x00\x00\xd2C\x00\x00\x99C\x00\x00\\C\x00\x00\xa5C\x00\x80\xf9C\x00\x80\xb6C\x00@\x13D\x00\x00\xf6C\x00\x00\x90A\x00\x80\xe7C\x00\x00\xc6C\x00\x00\xe9C\x00\x00\xf8A\x00\x00\xacC\x00\x00\xf0B\x00\x00\xd8A\x00\x00\xc4C\x00\x00\x8cB\x00\x80\x93C\x00\x00\x02C\x00\x00\x96C\x00\x00\xbaB\x00\x00\\B\x00\x00\x18B\x00\x00\x03C\x00\x000B\x00\x00\xdaB\x00\x00.C\x00\x80\x12D\x00\x00IC\x00\x00DC\x00\x00\x0cB\x00\x00xC\x00\xc0\x12D\x00\x00\x12C\x00\x80\x14D\x00\x00vC\x00\x00\xb0A\x00\x00\x80A\x00\xc0\x08D\x00\x00yC\x00\x80\xedC\x00\x00HB\x00\x00\xccB\x00\xc0\tD\x00\x80\xebC\x00\x00\xfbC\x00\x00\xeaB\x00\x00@@\x00\x00\xc7C\x00\x80\xe5C\x00\x00UC\x00\x00\xe7C\x00\x00\tC\x00\x00xB\x00\x00WC\x00\x00)C\x00\x00\x10B\x00\x00"C\x00\x00\xb6B\x00\x00\x8aB\x00\x00\x7fC\x00\xc0\x0eD\x00\x80\xc4C\x00\x00\x16C\x00\x00\xe2C\x00\x80\x0fD\x00\x00\x0eD\x00\x80\x08D\x00\x00\x00D\x00\x80\xddC\x00\xc0\x06D\x00\x00=C\x00\x80\x98C\x00\x00\xe8A\x00\x80\xd5C\x00\x00\xb2C\x00\x00\xe6C\x00\x80\xf0C\x00\x80\xcbC\x00\x00\x13C\x00\x00\xd8C\x00\x80\xc9C\x00\x00\xb8B\x00\x80\tD\x00\xc0\rD\x00\x00\xbeB\x00\x00\x14C\x00\x80\x81C\x00\xc0\nD\x00\x80\x11D\x00\x80\x83C\x00\x00\x83C\x00\x00\xe6B\x00\x00$B\x00\x00\xb4B\x00\x00\xfdC\x00\x00\x87C\x00\x00\x86B\x00\x00\xa0B\x00\x00\'C\x00\x00\x0bD\x00\x00\x1cB\x00\x00\xecB\x00\x00\x9aC\x00@\x07D\x00\x00mC\x00\x00\xbfC\x00\x80\xd3C\x00\x00\xfaB\x00\x80\nD\x00\x80\xdbC\x00\x80\xacC\x00\x00\x0eC\x00\x80\xbcC\x00\x00bC\x00\x00\x80B\x00\x00\rC\x00\x00\xe4C\x00\x80\xfaC\x00\x00\xd1C\x00\x80\x05D\x00\x00\xdeC\x00\x00\nD\x00\x80\xceC\x00\x00\x11D\x00@\x0eD\x00\x80\xa0C\x00\x80\x01D\x00\x00\x9aB\x00\x00rC\x00\x00\xb3C\x00\x80\xfdC\x00\x00\xa7C\x00\x00\x90C\x00\x00\xa8A\x00\x00?C\x00\x80\x91C\x00\x00<B\x00\x00\xaeB\x00\x00\xa0C\x00\x80\xb0C\x00\x00\x81C\x00\x80\xb8C\x00\x00\x17C\x00\x00|C\x00\x00\x04B\x00\x80\xf8C\x00\x80\xcdC\x00\x00\xf2B\x00\x00\x89C\x00\x80\xadC\x00\x00\xb0B\x00\x80\xeaC\x00\x80\x90C\x00\x00\xfcB\x00\x00\xceB\x00\x80\x8eC\x00\x00hC\x00\x00\x8cC\x00\x00$C\x00\x80\xfbC\x00\x008B\x00\x00HC\x00\x00\xd0A\x00\x80\x9cC\x00@\x11D\x00\x00\xebC\x00\x009C\x00\x00\x86C\x00\x80\xa1C\x00\x00\x8dC\x00\x00pB\x00\x00\xc3C\x00\x80\xa9C\x00\x80\xabC\x00\x00\x97C\x00\x00/C\x00\x00\xc0A\x00\x00]C\x00\x00\x11C\x00\x00\x82C\x00\x00\xabC\x00@\x15D\x00\x00\x0fD\x00\x80\xb7C\x00\x00\xaaB\x00@\x14D\x00\x00\xa8C\x00\x00nC\x00\x00#C\x00\x004B\x00\x80\x8aC\x00\x00\x9eB\x00\x80\xb3C\x00\x00(C\x00\xc0\x05D\x00\x80\xa7C\x00\x80\xffC\x00\x00\xf3C\x00\x80\x87C\x00\x80\x8fC\x00\x002C\x00\x00\xd7C\x00\x80\x02D\x00@\rD\x00\x80\xc7C\x00\x00\xf1C\x00\x80\xf6C\x00\x00\xaaC\x00\x00,B\x00\x00BC\x00\x80\xa5C\x00\x80\xb1C\x00\x00\x84C\x00\x00qC\x00\x00\xdeB\x00\x00RC\x00\x80\x07D\x00\x00\x8aC\x00\x000C\x00\x00*C\x00\x00;C\x00\x80\xdaC\x00\x00~C\x00\x80\x15D\x00\x00\xecC\x00\x00`C\x00\x80\xb9C\x00\x00\xf2C\x00\x00oC\x00\x00\x92B\x00\x00\x95C\x00\x00\xc2C\x00\x00\x96B\x00\x00\tD\x00\x00\xcaC\x00\x00\xbaC\x00\x00\x82B\x00\x80\xf7C\x00\x80\xf2C\x00\x00\xa1C\x00\x000A\x00\x00\xa3C\x00\x80\x8cC\x00\x80\xdcC\x00\x80\xd1C\x00\xc0\x0cD\x00\x80\xe4C\x00\x00\x88C\x00\x00\xbeC\x00\x80\xdeC\x00\x00\x03D\x00\x00kC\x00\x80\x80C\x00\x00\xd0B\x00\x80\x0bD\x00\x00!C\x00\x00pC\x00\x00\x00B\x00\x00\x01C\x00\x00\x14D\x00\x80\xecC\x00\x00%C\x00\x00\xe5C'
S'\x00\x00\x00\x00\x00\x00\x00\x00\x00\x00\x00\x00\x00\x00\x00\x00\x00\x00\x00\x00\x00\x00\x00\x00\x00\x00\x00\x00\x00\x00\x00\x00\x00\x00\x00\x00\x00\x00\x00\x00\x00\x00\x00\x00\x00\x00\x00\x00\x00\x00\x00\x00\x00\x00\x00\x00\x00\x00\x00\x00\x00\x00\x00\x00\x00\x00\x00\x00\x00\x00\x00\x00\x00\x00\x00\x00\x00\x00\x00\x00\x00\x00\x00\x00\x00\x00\x00\x00\x00\x00\x00\x00\x00\x00\x00\x00\x00\x00\x00\x00\x00\x00\x00\x00\x00\x00\x00\x00\x00\x00\x00\x00\x00\x00\x00\x00\x00\x00\x00\x00\x00\x00\x00\x00\x00\x00\x00\x00\x00\x00\x00\x00\x00\x00\x00\x00\x00\x00\x00\x00\x00\x00\x00\x00\x00\x00\x00\x00\x00\x00\x00\x00\x00\x00\x00\x00\x00\x00\x00\x00\x00\x00\x00\x00\x00\x00\x00\x00\x00\x00\x00\x00\x00\x00\x00\x00\x00\x00\x00\x00\x00\x00\x00\x00\x00\x00\x00\x00\x00\x00\x00\x00\x00\x00\x00\x00\x00\x00\x00\x00\x00\x00\x00\x00\x00\x00\x00\x00\x00\x00\x00\x00\x00\x00\x00\x00\x00\x00\x00\x00\x00\x00\x00\x00\x00\x00\x00\x00\x00\x00\x00\x00\x00\x00\x00\x00\x00\x00\x00\x00\x00\x00\x00\x00\x00\x00\x00\x00\x00\x00\x00\x00\x00\x00\x00\x00\x00\x00\x00\x00\x00\x00\x00\x00\x00\x00\x00\x00\x00\x00\x00\x00\x00\x00\x00\x00\x00\x00\x00\x00\x00\x00\x00\x00\x00\x00\x00\x00\x00\x00\x00\x00\x00\x00\x00\x00\x00\x00\x00\x00\x00\x00\x00\x00\x00\x00\x00\x00\x00\x00\x00\x00\x00\x00\x00\x00\x00\x00\x00\x00\x00\x00\x00\x00\x00\x00\x00\x00\x00\x00\x00\x00\x00\x00\x00\x00\x00\x00\x00\x00\x00\x00\x00\x00\x00\x00\x00\x00\x00\x00\x00\x00\x00\x00\x00\x00\x00\x00\x00\x00\x00\x00\x00\x00\x00\x00\x00\x00\x00\x00\x00\x00\x00\x00\x00\x00\x00\x00\x00\x00\x00\x00\x00\x00\x00\x00\x00\x00\x00\x00\x00\x00\x00\x00\x00\x00\x00\x00\x00\x00\x00\x00\x00\x00\x00\x00\x00\x00\x00\x00\x00\x00\x00\x00\x00\x00\x00\x00\x00\x00\x00\x00\x00\x00\x00\x00\x00\x00\x00\x00\x00\x00\x00\x00\x00\x00\x00\x00\x00\x00\x00\x00\x00\x00\x00\x00\x00\x00\x00\x00\x00\x00\x00\x00\x00\x00\x00\x00\x00\x00\x00\x00\x00\x00\x00\x00\x00\x00\x00\x00\x00\x00\x00\x00\x00\x00\x00\x00\x00\x00\x00\x00\x00\x00\x00\x00\x00\x00\x00\x00\x00\x00\x00\x00\x00\x00\x00\x00\x00\x00\x00\x00\x00\x00\x00\x00\x00\x00\x00\x00\x00\x00\x00\x00\x00\x00\x00\x00\x00\x00\x00\x00\x00\x00\x00\x00\x00\x00\x00\x00\x00\x00\x00\x00\x00\x00\x00\x00\x00\x00\x00\x00\x00\x00\x00\x00\x00\x00\x00\x00\x00\x00\x00\x00\x00\x00\x00\x00\x00\x00\x00\x00\x00\x00\x00\x00\x00\x00\x00\x00\x00\x00\x00\x00\x00\x00\x00\x00\x00\x00\x00\x00\x00\x00\x00\x00\x00\x00\x00\x00\x00\x00\x00\x00\x00\x00\x00\x00\x00\x00'
NtbstRp4952
(dp4953
g60
(dp4954
g48
I01
sg56
I01
ssg62
g4946
sg63
(lp4955
g48
ag56
asg65
(lp4956
I600
aI1
asbsg67
S'random'
p4957
sg69
g70
(g51
(I0
tS'b'
tRp4958
(I1
(I600
I1
tg54
(S'i4'
I0
I1
tRp4959
(I3
S'<'
NNNI-1
I-1
I0
tbI01
S'>\x01\x00\x00\xd6\x00\x00\x00\xfe\x00\x00\x00\x7f\x01\x00\x00\xbb\x00\x00\x00p\x00\x00\x00\x17\x00\x00\x00O\x00\x00\x00"\x00\x00\x00\xd5\x00\x00\x00\x8f\x00\x00\x00A\x02\x00\x00\xc9\x00\x00\x00\xae\x00\x00\x00\xf4\x00\x00\x00\x05\x00\x00\x00u\x01\x00\x00K\x01\x00\x00W\x01\x00\x00U\x00\x00\x008\x00\x00\x00\xd6\x01\x00\x00t\x01\x00\x00\x90\x00\x00\x00\x01\x02\x00\x00\xac\x00\x00\x00\xf3\x01\x00\x00^\x01\x00\x00]\x00\x00\x00\x99\x01\x00\x00\xe5\x00\x00\x00[\x01\x00\x00R\x02\x00\x00\xe1\x01\x00\x00\x9a\x00\x00\x00n\x01\x00\x00\x88\x01\x00\x00\x04\x00\x00\x00f\x01\x00\x00\xb5\x01\x00\x00\x84\x00\x00\x00\xad\x01\x00\x00\x0b\x01\x00\x00!\x02\x00\x00h\x01\x00\x00\x0e\x02\x00\x00\xf1\x01\x00\x00\xd9\x01\x00\x00N\x01\x00\x00\t\x01\x00\x00y\x01\x00\x00\x00\x01\x00\x00n\x00\x00\x00k\x00\x00\x00\xc3\x00\x00\x00e\x01\x00\x00+\x01\x00\x00\xa3\x00\x00\x00#\x01\x00\x00\xd8\x00\x00\x00\xfb\x01\x00\x00\x08\x01\x00\x00\x85\x01\x00\x00A\x01\x00\x00\xc3\x01\x00\x00=\x02\x00\x00\x7f\x00\x00\x00\xb1\x01\x00\x00\x85\x00\x00\x00\x8b\x01\x00\x00`\x01\x00\x00y\x00\x00\x007\x00\x00\x006\x02\x00\x005\x00\x00\x009\x02\x00\x00\xe1\x00\x00\x00\xd0\x01\x00\x00\xe7\x00\x00\x00\x10\x02\x00\x00\xb2\x01\x00\x00\x10\x01\x00\x006\x01\x00\x00S\x00\x00\x00\x1b\x01\x00\x00\t\x02\x00\x00-\x01\x00\x00\xda\x01\x00\x00\xe7\x01\x00\x00\xf1\x00\x00\x00\xae\x01\x00\x00\x8a\x01\x00\x00\xa2\x01\x00\x00d\x01\x00\x00J\x01\x00\x00\xa5\x01\x00\x00E\x00\x00\x00 \x00\x00\x00@\x01\x00\x00\xda\x00\x00\x00\x9c\x00\x00\x00^\x00\x00\x00z\x01\x00\x00\xeb\x01\x00\x00N\x02\x00\x00\xc0\x00\x00\x00\xde\x00\x00\x00\x05\x01\x00\x00 \x01\x00\x00i\x01\x00\x00\n\x00\x00\x00\'\x02\x00\x00\r\x00\x00\x00\xcf\x00\x00\x00\x19\x00\x00\x00\xac\x01\x00\x00\x99\x00\x00\x00~\x01\x00\x00\xb6\x01\x00\x00!\x01\x00\x00]\x01\x00\x00\xe4\x01\x00\x00)\x00\x00\x00\xcc\x00\x00\x007\x01\x00\x00\xbc\x01\x00\x00\xea\x01\x00\x00o\x00\x00\x004\x00\x00\x00S\x02\x00\x00b\x01\x00\x00g\x01\x00\x00\xc7\x00\x00\x00\x92\x00\x00\x00H\x01\x00\x00\x14\x00\x00\x009\x00\x00\x00\x84\x01\x00\x00\r\x01\x00\x00\x8a\x00\x00\x00\xdd\x00\x00\x00\xc4\x01\x00\x00\xc0\x01\x00\x00\x95\x00\x00\x00:\x00\x00\x00\x03\x02\x00\x00q\x01\x00\x00\x9f\x01\x00\x00\xa6\x01\x00\x00\xd4\x00\x00\x00\x8f\x01\x00\x00\xdf\x01\x00\x00\xb8\x00\x00\x00X\x00\x00\x00\x1e\x01\x00\x00\x17\x01\x00\x00\xee\x00\x00\x00\xa6\x00\x00\x00\x9e\x00\x00\x00\x13\x01\x00\x00\x04\x01\x00\x00P\x02\x00\x00\x89\x01\x00\x00\r\x02\x00\x00\xef\x01\x00\x00V\x02\x00\x00K\x00\x00\x00\xb3\x01\x00\x00\x12\x02\x00\x00\x87\x01\x00\x00,\x02\x00\x00h\x00\x00\x00\xff\x00\x00\x00<\x01\x00\x00j\x01\x00\x00\x00\x02\x00\x00+\x02\x00\x00\x1e\x00\x00\x00\x19\x02\x00\x00\x07\x01\x00\x00\x1c\x00\x00\x00\x88\x00\x00\x00\x0e\x01\x00\x00b\x00\x00\x00m\x00\x00\x00\xf7\x01\x00\x00\\\x00\x00\x00-\x02\x00\x00\x0f\x01\x00\x00\x97\x01\x00\x00\x87\x00\x00\x00\xd7\x01\x00\x00)\x01\x00\x00\x01\x01\x00\x00"\x02\x00\x00+\x00\x00\x00m\x01\x00\x00*\x01\x00\x00(\x00\x00\x00D\x01\x00\x00\xf2\x01\x00\x00l\x01\x00\x00\xa0\x00\x00\x00&\x01\x00\x00\x06\x00\x00\x00\xb2\x00\x00\x00<\x00\x00\x004\x01\x00\x00f\x00\x00\x00F\x00\x00\x00(\x02\x00\x00\'\x00\x00\x006\x00\x00\x00\x82\x01\x00\x00\xa4\x00\x00\x00\x86\x01\x00\x00`\x00\x00\x00\n\x01\x00\x00\x97\x00\x00\x001\x00\x00\x00Q\x01\x00\x00\x02\x02\x00\x00\xcb\x00\x00\x00\xe4\x00\x00\x002\x02\x00\x00\xc2\x00\x00\x00\xc2\x01\x00\x00A\x00\x00\x00\x82\x00\x00\x00\xb0\x00\x00\x00\xef\x00\x00\x00x\x00\x00\x00\xed\x01\x00\x00;\x01\x00\x00\xb5\x00\x00\x00L\x02\x00\x00\xbe\x00\x00\x00\xb9\x01\x00\x00\x0c\x02\x00\x005\x02\x00\x00Q\x02\x00\x00&\x02\x00\x00\xd1\x01\x00\x00\x03\x01\x00\x00&\x00\x00\x00\xf3\x00\x00\x00s\x01\x00\x00\x02\x01\x00\x00o\x01\x00\x00w\x01\x00\x00\x8e\x00\x00\x00\'\x01\x00\x00\xe0\x01\x00\x00?\x01\x00\x00/\x02\x00\x00\x8c\x01\x00\x00M\x01\x00\x00M\x02\x00\x00\xdd\x01\x00\x00\xa7\x01\x00\x00\x04\x02\x00\x00\x98\x00\x00\x00\xab\x01\x00\x00\xaa\x01\x00\x00%\x02\x00\x00\xdf\x00\x00\x00\xe9\x00\x00\x00\x15\x01\x00\x00\xf8\x01\x00\x00\xa7\x00\x00\x00\xb0\x01\x00\x00\x17\x02\x00\x00H\x02\x00\x00\xb9\x00\x00\x00\xe5\x01\x00\x00\x12\x01\x00\x00*\x02\x00\x00\x0f\x02\x00\x00\x91\x00\x00\x00\xbd\x00\x00\x00\xee\x01\x00\x00C\x02\x00\x00\xfa\x01\x00\x00\xdb\x00\x00\x00\x10\x00\x00\x00\xec\x01\x00\x00#\x00\x00\x00\x18\x02\x00\x00\xd5\x01\x00\x00\xe9\x01\x00\x00!\x00\x00\x00\xd8\x01\x00\x00,\x00\x00\x00\xfa\x00\x00\x00\x13\x00\x00\x00a\x01\x00\x00j\x00\x00\x00\xab\x00\x00\x007\x02\x00\x00~\x00\x00\x00c\x01\x00\x00\xd3\x00\x00\x00\xff\x01\x00\x00\xb7\x00\x00\x00\xa9\x00\x00\x00\x98\x01\x00\x00P\x01\x00\x00\x03\x00\x00\x00\xb7\x01\x00\x00\x8c\x00\x00\x00\xce\x00\x00\x001\x01\x00\x00\x0f\x00\x00\x00\xf4\x01\x00\x00\x89\x00\x00\x00\x11\x00\x00\x00\xed\x00\x00\x00\x16\x01\x00\x00\xca\x00\x00\x000\x01\x00\x00\xdb\x01\x00\x00\xce\x01\x00\x00@\x02\x00\x00\xf9\x01\x00\x00\xd2\x00\x00\x00B\x00\x00\x00B\x02\x00\x00\xdc\x00\x00\x00\x1d\x01\x00\x00\x83\x00\x00\x00R\x01\x00\x00#\x02\x00\x00\xf9\x00\x00\x00B\x01\x00\x00\xd4\x01\x00\x00\x14\x02\x00\x00\x0b\x02\x00\x00{\x00\x00\x00"\x01\x00\x00\xfd\x01\x00\x00 \x02\x00\x00\x1a\x01\x00\x00\x05\x02\x00\x00\xfe\x01\x00\x00\\\x01\x00\x00\xbf\x01\x00\x00,\x01\x00\x00\xe6\x01\x00\x00\xa8\x00\x00\x00\x1f\x01\x00\x00\xa1\x00\x00\x00\xe8\x00\x00\x00\x14\x01\x00\x00\xdc\x01\x00\x009\x01\x00\x00$\x02\x00\x00\x9b\x01\x00\x00\xbf\x00\x00\x00\xd2\x01\x00\x00\x11\x02\x00\x00c\x00\x00\x00?\x00\x00\x00\xf7\x00\x00\x00\xb4\x00\x00\x00\xfc\x00\x00\x00T\x01\x00\x00\x9b\x00\x00\x00\x08\x02\x00\x00\xa2\x00\x00\x00\xde\x01\x00\x00Q\x00\x00\x003\x02\x00\x00<\x02\x00\x00\xfb\x00\x00\x00\x01\x00\x00\x00D\x00\x00\x00\xc6\x00\x00\x00\xc1\x01\x00\x00\x80\x00\x00\x00e\x00\x00\x00I\x02\x00\x00\x93\x00\x00\x00\xba\x01\x00\x00(\x01\x00\x003\x01\x00\x00\xb1\x00\x00\x00\x00\x00\x00\x00I\x01\x00\x008\x02\x00\x00\xbc\x00\x00\x00\xfc\x01\x00\x00\x0e\x00\x00\x00_\x01\x00\x00\x8e\x01\x00\x00F\x01\x00\x00*\x00\x00\x00Y\x01\x00\x00%\x00\x00\x00\x80\x01\x00\x00\x1d\x02\x00\x00=\x00\x00\x00G\x01\x00\x00R\x00\x00\x00\xa1\x01\x00\x00;\x02\x00\x00V\x00\x00\x00Z\x00\x00\x00\x9e\x01\x00\x00\xf0\x00\x00\x00P\x00\x00\x00l\x00\x00\x00\xe3\x01\x00\x00\x19\x01\x00\x00\xcb\x01\x00\x00\xd7\x00\x00\x00T\x00\x00\x00\x9f\x00\x00\x00M\x00\x00\x00\xc7\x01\x00\x00E\x02\x00\x00O\x01\x00\x00\x1c\x01\x00\x00u\x00\x00\x00\xbb\x01\x00\x00\xd1\x00\x00\x00H\x00\x00\x00\xa5\x00\x00\x00\x9a\x01\x00\x00G\x00\x00\x00\x02\x00\x00\x00\x1a\x02\x00\x00\x08\x00\x00\x00\xa0\x01\x00\x00t\x00\x00\x00\x16\x00\x00\x00z\x00\x00\x00\x18\x01\x00\x00.\x02\x00\x00\xb6\x00\x00\x00\xbe\x01\x00\x00-\x00\x00\x00D\x02\x00\x00;\x00\x00\x00\x95\x01\x00\x00\xc9\x01\x00\x00J\x02\x00\x00Y\x00\x00\x00_\x00\x00\x00\x15\x00\x00\x002\x00\x00\x00.\x00\x00\x00s\x00\x00\x00\x90\x01\x00\x00\xc4\x00\x00\x00L\x01\x00\x00\x81\x00\x00\x00\xc5\x01\x00\x00G\x02\x00\x00W\x02\x00\x00\x81\x01\x00\x00\x9c\x01\x00\x00E\x01\x00\x00\x83\x01\x00\x00X\x01\x00\x003\x00\x00\x00}\x00\x00\x00Z\x01\x00\x00\xf5\x00\x00\x00\xba\x00\x00\x00\xe8\x01\x00\x00\xf6\x01\x00\x00|\x01\x00\x001\x02\x00\x00U\x02\x00\x00I\x00\x00\x00x\x01\x00\x00\x0c\x01\x00\x00\x12\x00\x00\x00\xec\x00\x00\x00\t\x00\x00\x00\x1b\x00\x00\x00\x9d\x01\x00\x00\x1e\x02\x00\x005\x01\x00\x004\x02\x00\x00?\x02\x00\x00\x16\x02\x00\x00J\x00\x00\x00\xc8\x00\x00\x00v\x00\x00\x002\x01\x00\x00d\x00\x00\x00V\x01\x00\x00\x1f\x02\x00\x00\xad\x00\x00\x00>\x02\x00\x000\x00\x00\x00\xe2\x01\x00\x00\xb3\x00\x00\x00S\x01\x00\x00\xf6\x00\x00\x00\xc6\x01\x00\x00}\x01\x00\x00\xf0\x01\x00\x00\x0b\x00\x00\x00\xc1\x00\x00\x00\xaf\x01\x00\x00\xd3\x01\x00\x00\xf8\x00\x00\x00\xc5\x00\x00\x00\xaa\x00\x00\x00\x15\x02\x00\x00\x94\x01\x00\x00\x1d\x00\x00\x00\x0c\x00\x00\x00r\x00\x00\x00\x06\x01\x00\x00\x86\x00\x00\x00\xcf\x01\x00\x00.\x01\x00\x00L\x00\x00\x00\xea\x00\x00\x00\x1b\x02\x00\x00q\x00\x00\x00K\x02\x00\x00\xfd\x00\x00\x00$\x00\x00\x00$\x01\x00\x00a\x00\x00\x00i\x00\x00\x00|\x00\x00\x00C\x00\x00\x00\x11\x01\x00\x00\x1a\x00\x00\x00\xc8\x01\x00\x00\x13\x02\x00\x00\x8b\x00\x00\x00\x94\x00\x00\x00\x1f\x00\x00\x00\x96\x01\x00\x00\xcd\x00\x00\x00\xb8\x01\x00\x00)\x02\x00\x00\x96\x00\x00\x00\xe3\x00\x00\x00%\x01\x00\x00\x93\x01\x00\x00v\x01\x00\x00:\x02\x00\x00\x8d\x00\x00\x00\xa3\x01\x00\x00{\x01\x00\x00\xca\x01\x00\x00\xe6\x00\x00\x00\xbd\x01\x00\x00\xa8\x01\x00\x00\xb4\x01\x00\x00/\x00\x00\x00O\x02\x00\x00N\x00\x00\x00>\x00\x00\x00\xeb\x00\x00\x008\x01\x00\x00F\x02\x00\x00W\x00\x00\x00\x1c\x02\x00\x00g\x00\x00\x00\xa4\x01\x00\x00\x92\x01\x00\x00\xcd\x01\x00\x00\xf2\x00\x00\x00\x8d\x01\x00\x00\x07\x02\x00\x00[\x00\x00\x00\x91\x01\x00\x00\x18\x00\x00\x00\xe0\x00\x00\x00/\x01\x00\x00w\x00\x00\x00\x07\x00\x00\x00\xcc\x01\x00\x00\xf5\x01\x00\x00\xa9\x01\x00\x00\xaf\x00\x00\x00C\x01\x00\x00@\x00\x00\x00k\x01\x00\x00p\x01\x00\x00\xd0\x00\x00\x00U\x01\x00\x00\x9d\x00\x00\x00=\x01\x00\x00T\x02\x00\x00\n\x02\x00\x00r\x01\x00\x00\xe2\x00\x00\x00:\x01\x00\x00\x06\x02\x00\x000\x02\x00\x00\xd9\x00\x00\x00'
tbsg74
I01
sg75
I1
sg76
I-1
sg77
(lp4960
I0
aI1
aI2
aI3
aI4
aI5
aI6
aI7
aI8
aI9
aI10
aI11
aI12
aI13
aI14
aI15
aI16
aI17
aI18
aI19
aI20
aI21
aI22
aI23
aI24
aI25
aI26
aI27
aI28
aI29
aI30
aI31
aI32
aI33
aI34
aI35
aI36
aI37
aI38
aI39
aI40
aI41
aI42
aI43
aI44
aI45
aI46
aI47
aI48
aI49
aI50
aI51
aI52
aI53
aI54
aI55
aI56
aI57
aI58
aI59
aI60
aI61
aI62
aI63
aI64
aI65
aI66
aI67
aI68
aI69
aI70
aI71
aI72
aI73
aI74
aI75
aI76
aI77
aI78
aI79
aI80
aI81
aI82
aI83
aI84
aI85
aI86
aI87
aI88
aI89
aI90
aI91
aI92
aI93
aI94
aI95
aI96
aI97
aI98
aI99
aI100
aI101
aI102
aI103
aI104
aI105
aI106
aI107
aI108
aI109
aI110
aI111
aI112
aI113
aI114
aI115
aI116
aI117
aI118
aI119
aI120
aI121
aI122
aI123
aI124
aI125
aI126
aI127
aI128
aI129
aI130
aI131
aI132
aI133
aI134
aI135
aI136
aI137
aI138
aI139
aI140
aI141
aI142
aI143
aI144
aI145
aI146
aI147
aI148
aI149
aI150
aI151
aI152
aI153
aI154
aI155
aI156
aI157
aI158
aI159
aI160
aI161
aI162
aI163
aI164
aI165
aI166
aI167
aI168
aI169
aI170
aI171
aI172
aI173
aI174
aI175
aI176
aI177
aI178
aI179
aI180
aI181
aI182
aI183
aI184
aI185
aI186
aI187
aI188
aI189
aI190
aI191
aI192
aI193
aI194
aI195
aI196
aI197
aI198
aI199
aI200
aI201
aI202
aI203
aI204
aI205
aI206
aI207
aI208
aI209
aI210
aI211
aI212
aI213
aI214
aI215
aI216
aI217
aI218
aI219
aI220
aI221
aI222
aI223
aI224
aI225
aI226
aI227
aI228
aI229
aI230
aI231
aI232
aI233
aI234
aI235
aI236
aI237
aI238
aI239
aI240
aI241
aI242
aI243
aI244
aI245
aI246
aI247
aI248
aI249
aI250
aI251
aI252
aI253
aI254
aI255
aI256
aI257
aI258
aI259
aI260
aI261
aI262
aI263
aI264
aI265
aI266
aI267
aI268
aI269
aI270
aI271
aI272
aI273
aI274
aI275
aI276
aI277
aI278
aI279
aI280
aI281
aI282
aI283
aI284
aI285
aI286
aI287
aI288
aI289
aI290
aI291
aI292
aI293
aI294
aI295
aI296
aI297
aI298
aI299
aI300
aI301
aI302
aI303
aI304
aI305
aI306
aI307
aI308
aI309
aI310
aI311
aI312
aI313
aI314
aI315
aI316
aI317
aI318
aI319
aI320
aI321
aI322
aI323
aI324
aI325
aI326
aI327
aI328
aI329
aI330
aI331
aI332
aI333
aI334
aI335
aI336
aI337
aI338
aI339
aI340
aI341
aI342
aI343
aI344
aI345
aI346
aI347
aI348
aI349
aI350
aI351
aI352
aI353
aI354
aI355
aI356
aI357
aI358
aI359
aI360
aI361
aI362
aI363
aI364
aI365
aI366
aI367
aI368
aI369
aI370
aI371
aI372
aI373
aI374
aI375
aI376
aI377
aI378
aI379
aI380
aI381
aI382
aI383
aI384
aI385
aI386
aI387
aI388
aI389
aI390
aI391
aI392
aI393
aI394
aI395
aI396
aI397
aI398
aI399
aI400
aI401
aI402
aI403
aI404
aI405
aI406
aI407
aI408
aI409
aI410
aI411
aI412
aI413
aI414
aI415
aI416
aI417
aI418
aI419
aI420
aI421
aI422
aI423
aI424
aI425
aI426
aI427
aI428
aI429
aI430
aI431
aI432
aI433
aI434
aI435
aI436
aI437
aI438
aI439
aI440
aI441
aI442
aI443
aI444
aI445
aI446
aI447
aI448
aI449
aI450
aI451
aI452
aI453
aI454
aI455
aI456
aI457
aI458
aI459
aI460
aI461
aI462
aI463
aI464
aI465
aI466
aI467
aI468
aI469
aI470
aI471
aI472
aI473
aI474
aI475
aI476
aI477
aI478
aI479
aI480
aI481
aI482
aI483
aI484
aI485
aI486
aI487
aI488
aI489
aI490
aI491
aI492
aI493
aI494
aI495
aI496
aI497
aI498
aI499
aI500
aI501
aI502
aI503
aI504
aI505
aI506
aI507
aI508
aI509
aI510
aI511
aI512
aI513
aI514
aI515
aI516
aI517
aI518
aI519
aI520
aI521
aI522
aI523
aI524
aI525
aI526
aI527
aI528
aI529
aI530
aI531
aI532
aI533
aI534
aI535
aI536
aI537
aI538
aI539
aI540
aI541
aI542
aI543
aI544
aI545
aI546
aI547
aI548
aI549
aI550
aI551
aI552
aI553
aI554
aI555
aI556
aI557
aI558
aI559
aI560
aI561
aI562
aI563
aI564
aI565
aI566
aI567
aI568
aI569
aI570
aI571
aI572
aI573
aI574
aI575
aI576
aI577
aI578
aI579
aI580
aI581
aI582
aI583
aI584
aI585
aI586
aI587
aI588
aI589
aI590
aI591
aI592
aI593
aI594
aI595
aI596
aI597
aI598
aI599
asg79
Nsg80
cnumpy.core.multiarray
scalar
p4961
(g4959
S'\xd9\x00\x00\x00'
tRp4962
sg81
I600
sg82
I0
sg83
I600
sg84
I01
sbag37
asS'savePickle'
p4963
I00
sb.