ccopy_reg
_reconstructor
p1
(cpsychopy.data
ExperimentHandler
p2
c__builtin__
object
p3
NtRp4
(dp5
S'originPath'
p6
NsS'dataFileName'
p7
Vsubject703
p8
sS'runtimeInfo'
p9
NsS'name'
p10
VVERBALRBsubject 703
p11
sS'dataNames'
p12
(lp13
S'Block Number'
p14
aS'Key pressed'
p15
aS'Category'
p16
aS'Correct?'
p17
aS'Int Match?'
p18
aS'Int Response'
p19
aS'Int Correct?'
p20
aS'Line Accuracy'
p21
aS'Interference Accuracy'
p22
aS'Matching Interferences'
p23
aS'New instruction shown?'
p24
aS'Buttons switched?'
p25
aS'Fast?'
p26
asS'autoLog'
p27
I01
sS'extraInfo'
p28
(dp29
S'gender'
p30
VM
sS'age'
p31
V20
p32
ssS'loopsUnfinished'
p33
(lp34
g1
(cpsychopy.data
TrialHandler
p35
g3
NtRp36
(dp37
S'origin'
p38
NsS'thisTrial'
p39
I9
sS'_exp'
p40
I79823856
sg10
S''
sg6
S'C:\\Users\\Mike\\Desktop\\Dual2\\NEWSpatialii.py'
p41
sS'thisRepN'
p42
I39
sg27
I01
sg28
NsS'data'
p43
g1
(cpsychopy.data
DataHandler
p44
c__builtin__
dict
p45
(dp46
S'ran'
p47
cnumpy.ma.core
_mareconstruct
p48
(cnumpy.ma.core
MaskedArray
p49
cnumpy
ndarray
p50
(I0
tp51
S'b'
tRp52
(I1
(I15
I40
tcnumpy
dtype
p53
(S'f4'
I0
I1
tRp54
(I3
S'<'
NNNI-1
I-1
I0
tbI00
S'\x00\x00\x80?\x00\x00\x80?\x00\x00\x80?\x00\x00\x80?\x00\x00\x80?\x00\x00\x80?\x00\x00\x80?\x00\x00\x80?\x00\x00\x80?\x00\x00\x80?\x00\x00\x80?\x00\x00\x80?\x00\x00\x80?\x00\x00\x80?\x00\x00\x80?\x00\x00\x80?\x00\x00\x80?\x00\x00\x80?\x00\x00\x80?\x00\x00\x80?\x00\x00\x80?\x00\x00\x80?\x00\x00\x80?\x00\x00\x80?\x00\x00\x80?\x00\x00\x80?\x00\x00\x80?\x00\x00\x80?\x00\x00\x80?\x00\x00\x80?\x00\x00\x80?\x00\x00\x80?\x00\x00\x80?\x00\x00\x80?\x00\x00\x80?\x00\x00\x80?\x00\x00\x80?\x00\x00\x80?\x00\x00\x80?\x00\x00\x80?\x00\x00\x80?\x00\x00\x80?\x00\x00\x80?\x00\x00\x80?\x00\x00\x80?\x00\x00\x80?\x00\x00\x80?\x00\x00\x80?\x00\x00\x80?\x00\x00\x80?\x00\x00\x80?\x00\x00\x80?\x00\x00\x80?\x00\x00\x80?\x00\x00\x80?\x00\x00\x80?\x00\x00\x80?\x00\x00\x80?\x00\x00\x80?\x00\x00\x80?\x00\x00\x80?\x00\x00\x80?\x00\x00\x80?\x00\x00\x80?\x00\x00\x80?\x00\x00\x80?\x00\x00\x80?\x00\x00\x80?\x00\x00\x80?\x00\x00\x80?\x00\x00\x80?\x00\x00\x80?\x00\x00\x80?\x00\x00\x80?\x00\x00\x80?\x00\x00\x80?\x00\x00\x80?\x00\x00\x80?\x00\x00\x80?\x00\x00\x80?\x00\x00\x80?\x00\x00\x80?\x00\x00\x80?\x00\x00\x80?\x00\x00\x80?\x00\x00\x80?\x00\x00\x80?\x00\x00\x80?\x00\x00\x80?\x00\x00\x80?\x00\x00\x80?\x00\x00\x80?\x00\x00\x80?\x00\x00\x80?\x00\x00\x80?\x00\x00\x80?\x00\x00\x80?\x00\x00\x80?\x00\x00\x80?\x00\x00\x80?\x00\x00\x80?\x00\x00\x80?\x00\x00\x80?\x00\x00\x80?\x00\x00\x80?\x00\x00\x80?\x00\x00\x80?\x00\x00\x80?\x00\x00\x80?\x00\x00\x80?\x00\x00\x80?\x00\x00\x80?\x00\x00\x80?\x00\x00\x80?\x00\x00\x80?\x00\x00\x80?\x00\x00\x80?\x00\x00\x80?\x00\x00\x80?\x00\x00\x80?\x00\x00\x80?\x00\x00\x80?\x00\x00\x80?\x00\x00\x80?\x00\x00\x80?\x00\x00\x80?\x00\x00\x80?\x00\x00\x80?\x00\x00\x80?\x00\x00\x80?\x00\x00\x80?\x00\x00\x80?\x00\x00\x80?\x00\x00\x80?\x00\x00\x80?\x00\x00\x80?\x00\x00\x80?\x00\x00\x80?\x00\x00\x80?\x00\x00\x80?\x00\x00\x80?\x00\x00\x80?\x00\x00\x80?\x00\x00\x80?\x00\x00\x80?\x00\x00\x80?\x00\x00\x80?\x00\x00\x80?\x00\x00\x80?\x00\x00\x80?\x00\x00\x80?\x00\x00\x80?\x00\x00\x80?\x00\x00\x80?\x00\x00\x80?\x00\x00\x80?\x00\x00\x80?\x00\x00\x80?\x00\x00\x80?\x00\x00\x80?\x00\x00\x80?\x00\x00\x80?\x00\x00\x80?\x00\x00\x80?\x00\x00\x80?\x00\x00\x80?\x00\x00\x80?\x00\x00\x80?\x00\x00\x80?\x00\x00\x80?\x00\x00\x80?\x00\x00\x80?\x00\x00\x80?\x00\x00\x80?\x00\x00\x80?\x00\x00\x80?\x00\x00\x80?\x00\x00\x80?\x00\x00\x80?\x00\x00\x80?\x00\x00\x80?\x00\x00\x80?\x00\x00\x80?\x00\x00\x80?\x00\x00\x80?\x00\x00\x80?\x00\x00\x80?\x00\x00\x80?\x00\x00\x80?\x00\x00\x80?\x00\x00\x80?\x00\x00\x80?\x00\x00\x80?\x00\x00\x80?\x00\x00\x80?\x00\x00\x80?\x00\x00\x80?\x00\x00\x80?\x00\x00\x80?\x00\x00\x80?\x00\x00\x80?\x00\x00\x80?\x00\x00\x80?\x00\x00\x80?\x00\x00\x80?\x00\x00\x80?\x00\x00\x80?\x00\x00\x80?\x00\x00\x80?\x00\x00\x80?\x00\x00\x80?\x00\x00\x80?\x00\x00\x80?\x00\x00\x80?\x00\x00\x80?\x00\x00\x80?\x00\x00\x80?\x00\x00\x80?\x00\x00\x80?\x00\x00\x80?\x00\x00\x80?\x00\x00\x80?\x00\x00\x80?\x00\x00\x80?\x00\x00\x80?\x00\x00\x80?\x00\x00\x80?\x00\x00\x80?\x00\x00\x80?\x00\x00\x80?\x00\x00\x80?\x00\x00\x80?\x00\x00\x80?\x00\x00\x80?\x00\x00\x80?\x00\x00\x80?\x00\x00\x80?\x00\x00\x80?\x00\x00\x80?\x00\x00\x80?\x00\x00\x80?\x00\x00\x80?\x00\x00\x80?\x00\x00\x80?\x00\x00\x80?\x00\x00\x80?\x00\x00\x80?\x00\x00\x80?\x00\x00\x80?\x00\x00\x80?\x00\x00\x80?\x00\x00\x80?\x00\x00\x80?\x00\x00\x80?\x00\x00\x80?\x00\x00\x80?\x00\x00\x80?\x00\x00\x80?\x00\x00\x80?\x00\x00\x80?\x00\x00\x80?\x00\x00\x80?\x00\x00\x80?\x00\x00\x80?\x00\x00\x80?\x00\x00\x80?\x00\x00\x80?\x00\x00\x80?\x00\x00\x80?\x00\x00\x80?\x00\x00\x80?\x00\x00\x80?\x00\x00\x80?\x00\x00\x80?\x00\x00\x80?\x00\x00\x80?\x00\x00\x80?\x00\x00\x80?\x00\x00\x80?\x00\x00\x80?\x00\x00\x80?\x00\x00\x80?\x00\x00\x80?\x00\x00\x80?\x00\x00\x80?\x00\x00\x80?\x00\x00\x80?\x00\x00\x80?\x00\x00\x80?\x00\x00\x80?\x00\x00\x80?\x00\x00\x80?\x00\x00\x80?\x00\x00\x80?\x00\x00\x80?\x00\x00\x80?\x00\x00\x80?\x00\x00\x80?\x00\x00\x80?\x00\x00\x80?\x00\x00\x80?\x00\x00\x80?\x00\x00\x80?\x00\x00\x80?\x00\x00\x80?\x00\x00\x80?\x00\x00\x80?\x00\x00\x80?\x00\x00\x80?\x00\x00\x80?\x00\x00\x80?\x00\x00\x80?\x00\x00\x80?\x00\x00\x80?\x00\x00\x80?\x00\x00\x80?\x00\x00\x80?\x00\x00\x80?\x00\x00\x80?\x00\x00\x80?\x00\x00\x80?\x00\x00\x80?\x00\x00\x80?\x00\x00\x80?\x00\x00\x80?\x00\x00\x80?\x00\x00\x80?\x00\x00\x80?\x00\x00\x80?\x00\x00\x80?\x00\x00\x80?\x00\x00\x80?\x00\x00\x80?\x00\x00\x80?\x00\x00\x80?\x00\x00\x80?\x00\x00\x80?\x00\x00\x80?\x00\x00\x80?\x00\x00\x80?\x00\x00\x80?\x00\x00\x80?\x00\x00\x80?\x00\x00\x80?\x00\x00\x80?\x00\x00\x80?\x00\x00\x80?\x00\x00\x80?\x00\x00\x80?\x00\x00\x80?\x00\x00\x80?\x00\x00\x80?\x00\x00\x80?\x00\x00\x80?\x00\x00\x80?\x00\x00\x80?\x00\x00\x80?\x00\x00\x80?\x00\x00\x80?\x00\x00\x80?\x00\x00\x80?\x00\x00\x80?\x00\x00\x80?\x00\x00\x80?\x00\x00\x80?\x00\x00\x80?\x00\x00\x80?\x00\x00\x80?\x00\x00\x80?\x00\x00\x80?\x00\x00\x80?\x00\x00\x80?\x00\x00\x80?\x00\x00\x80?\x00\x00\x80?\x00\x00\x80?\x00\x00\x80?\x00\x00\x80?\x00\x00\x80?\x00\x00\x80?\x00\x00\x80?\x00\x00\x80?\x00\x00\x80?\x00\x00\x80?\x00\x00\x80?\x00\x00\x80?\x00\x00\x80?\x00\x00\x80?\x00\x00\x80?\x00\x00\x80?\x00\x00\x80?\x00\x00\x80?\x00\x00\x80?\x00\x00\x80?\x00\x00\x80?\x00\x00\x80?\x00\x00\x80?\x00\x00\x80?\x00\x00\x80?\x00\x00\x80?\x00\x00\x80?\x00\x00\x80?\x00\x00\x80?\x00\x00\x80?\x00\x00\x80?\x00\x00\x80?\x00\x00\x80?\x00\x00\x80?\x00\x00\x80?\x00\x00\x80?\x00\x00\x80?\x00\x00\x80?\x00\x00\x80?\x00\x00\x80?\x00\x00\x80?\x00\x00\x80?\x00\x00\x80?\x00\x00\x80?\x00\x00\x80?\x00\x00\x80?\x00\x00\x80?\x00\x00\x80?\x00\x00\x80?\x00\x00\x80?\x00\x00\x80?\x00\x00\x80?\x00\x00\x80?\x00\x00\x80?\x00\x00\x80?\x00\x00\x80?\x00\x00\x80?\x00\x00\x80?\x00\x00\x80?\x00\x00\x80?\x00\x00\x80?\x00\x00\x80?\x00\x00\x80?\x00\x00\x80?\x00\x00\x80?\x00\x00\x80?\x00\x00\x80?\x00\x00\x80?\x00\x00\x80?\x00\x00\x80?\x00\x00\x80?\x00\x00\x80?\x00\x00\x80?\x00\x00\x80?\x00\x00\x80?\x00\x00\x80?\x00\x00\x80?\x00\x00\x80?\x00\x00\x80?\x00\x00\x80?\x00\x00\x80?\x00\x00\x80?\x00\x00\x80?\x00\x00\x80?\x00\x00\x80?\x00\x00\x80?\x00\x00\x80?\x00\x00\x80?\x00\x00\x80?\x00\x00\x80?\x00\x00\x80?\x00\x00\x80?\x00\x00\x80?\x00\x00\x80?\x00\x00\x80?\x00\x00\x80?\x00\x00\x80?\x00\x00\x80?\x00\x00\x80?\x00\x00\x80?\x00\x00\x80?\x00\x00\x80?\x00\x00\x80?\x00\x00\x80?\x00\x00\x80?\x00\x00\x80?\x00\x00\x80?\x00\x00\x80?\x00\x00\x80?\x00\x00\x80?\x00\x00\x80?\x00\x00\x80?\x00\x00\x80?\x00\x00\x80?\x00\x00\x80?\x00\x00\x80?\x00\x00\x80?\x00\x00\x80?\x00\x00\x80?\x00\x00\x80?\x00\x00\x80?\x00\x00\x80?\x00\x00\x80?\x00\x00\x80?\x00\x00\x80?\x00\x00\x80?\x00\x00\x80?\x00\x00\x80?\x00\x00\x80?\x00\x00\x80?\x00\x00\x80?\x00\x00\x80?\x00\x00\x80?\x00\x00\x80?\x00\x00\x80?\x00\x00\x80?\x00\x00\x80?\x00\x00\x80?\x00\x00\x80?\x00\x00\x80?\x00\x00\x80?\x00\x00\x80?\x00\x00\x80?\x00\x00\x80?\x00\x00\x80?\x00\x00\x80?\x00\x00\x80?\x00\x00\x80?\x00\x00\x80?\x00\x00\x80?\x00\x00\x80?\x00\x00\x80?\x00\x00\x80?\x00\x00\x80?\x00\x00\x80?\x00\x00\x80?\x00\x00\x80?\x00\x00\x80?\x00\x00\x80?\x00\x00\x80?\x00\x00\x80?\x00\x00\x80?\x00\x00\x80?\x00\x00\x80?\x00\x00\x80?\x00\x00\x80?\x00\x00\x80?\x00\x00\x80?\x00\x00\x80?\x00\x00\x80?\x00\x00\x80?\x00\x00\x80?\x00\x00\x80?\x00\x00\x80?\x00\x00\x80?\x00\x00\x80?\x00\x00\x80?\x00\x00\x80?\x00\x00\x80?\x00\x00\x80?\x00\x00\x80?\x00\x00\x80?\x00\x00\x80?\x00\x00\x80?\x00\x00\x80?\x00\x00\x80?\x00\x00\x80?\x00\x00\x80?\x00\x00\x80?\x00\x00\x80?\x00\x00\x80?\x00\x00\x80?\x00\x00\x80?\x00\x00\x80?\x00\x00\x80?\x00\x00\x80?\x00\x00\x80?\x00\x00\x80?\x00\x00\x80?\x00\x00\x80?\x00\x00\x80?\x00\x00\x80?\x00\x00\x80?\x00\x00\x80?\x00\x00\x80?\x00\x00\x80?\x00\x00\x80?\x00\x00\x80?\x00\x00\x80?\x00\x00\x80?\x00\x00\x80?\x00\x00\x80?\x00\x00\x80?\x00\x00\x80?\x00\x00\x80?\x00\x00\x80?\x00\x00\x80?\x00\x00\x80?\x00\x00\x80?\x00\x00\x80?\x00\x00\x80?\x00\x00\x80?\x00\x00\x80?\x00\x00\x80?\x00\x00\x80?\x00\x00\x80?'
S'\x00\x00\x00\x00\x00\x00\x00\x00\x00\x00\x00\x00\x00\x00\x00\x00\x00\x00\x00\x00\x00\x00\x00\x00\x00\x00\x00\x00\x00\x00\x00\x00\x00\x00\x00\x00\x00\x00\x00\x00\x00\x00\x00\x00\x00\x00\x00\x00\x00\x00\x00\x00\x00\x00\x00\x00\x00\x00\x00\x00\x00\x00\x00\x00\x00\x00\x00\x00\x00\x00\x00\x00\x00\x00\x00\x00\x00\x00\x00\x00\x00\x00\x00\x00\x00\x00\x00\x00\x00\x00\x00\x00\x00\x00\x00\x00\x00\x00\x00\x00\x00\x00\x00\x00\x00\x00\x00\x00\x00\x00\x00\x00\x00\x00\x00\x00\x00\x00\x00\x00\x00\x00\x00\x00\x00\x00\x00\x00\x00\x00\x00\x00\x00\x00\x00\x00\x00\x00\x00\x00\x00\x00\x00\x00\x00\x00\x00\x00\x00\x00\x00\x00\x00\x00\x00\x00\x00\x00\x00\x00\x00\x00\x00\x00\x00\x00\x00\x00\x00\x00\x00\x00\x00\x00\x00\x00\x00\x00\x00\x00\x00\x00\x00\x00\x00\x00\x00\x00\x00\x00\x00\x00\x00\x00\x00\x00\x00\x00\x00\x00\x00\x00\x00\x00\x00\x00\x00\x00\x00\x00\x00\x00\x00\x00\x00\x00\x00\x00\x00\x00\x00\x00\x00\x00\x00\x00\x00\x00\x00\x00\x00\x00\x00\x00\x00\x00\x00\x00\x00\x00\x00\x00\x00\x00\x00\x00\x00\x00\x00\x00\x00\x00\x00\x00\x00\x00\x00\x00\x00\x00\x00\x00\x00\x00\x00\x00\x00\x00\x00\x00\x00\x00\x00\x00\x00\x00\x00\x00\x00\x00\x00\x00\x00\x00\x00\x00\x00\x00\x00\x00\x00\x00\x00\x00\x00\x00\x00\x00\x00\x00\x00\x00\x00\x00\x00\x00\x00\x00\x00\x00\x00\x00\x00\x00\x00\x00\x00\x00\x00\x00\x00\x00\x00\x00\x00\x00\x00\x00\x00\x00\x00\x00\x00\x00\x00\x00\x00\x00\x00\x00\x00\x00\x00\x00\x00\x00\x00\x00\x00\x00\x00\x00\x00\x00\x00\x00\x00\x00\x00\x00\x00\x00\x00\x00\x00\x00\x00\x00\x00\x00\x00\x00\x00\x00\x00\x00\x00\x00\x00\x00\x00\x00\x00\x00\x00\x00\x00\x00\x00\x00\x00\x00\x00\x00\x00\x00\x00\x00\x00\x00\x00\x00\x00\x00\x00\x00\x00\x00\x00\x00\x00\x00\x00\x00\x00\x00\x00\x00\x00\x00\x00\x00\x00\x00\x00\x00\x00\x00\x00\x00\x00\x00\x00\x00\x00\x00\x00\x00\x00\x00\x00\x00\x00\x00\x00\x00\x00\x00\x00\x00\x00\x00\x00\x00\x00\x00\x00\x00\x00\x00\x00\x00\x00\x00\x00\x00\x00\x00\x00\x00\x00\x00\x00\x00\x00\x00\x00\x00\x00\x00\x00\x00\x00\x00\x00\x00\x00\x00\x00\x00\x00\x00\x00\x00\x00\x00\x00\x00\x00\x00\x00\x00\x00\x00\x00\x00\x00\x00\x00\x00\x00\x00\x00\x00\x00\x00\x00\x00\x00\x00\x00\x00\x00\x00\x00\x00\x00\x00\x00\x00\x00\x00\x00\x00\x00\x00\x00\x00\x00\x00\x00\x00\x00\x00\x00\x00\x00\x00\x00\x00\x00\x00\x00\x00\x00\x00\x00\x00\x00\x00\x00\x00\x00\x00\x00\x00\x00\x00\x00\x00\x00\x00\x00\x00\x00\x00\x00\x00\x00\x00\x00\x00\x00\x00\x00\x00\x00\x00\x00\x00\x00\x00\x00\x00\x00\x00\x00\x00\x00\x00'
NtbsS'order'
p55
g48
(g49
g50
g51
S'b'
tRp56
(I1
(I15
I40
tg54
I00
S'\x00\x00\x80?\x00\x00pA\x00\x00\x88A\x00\x00\xa8A\x00\x00\xe8A\x00\x00\xf0A\x00\x00\x18B\x00\x00@B\x00\x00lB\x00\x00\x9eB\x00\x00\xb4B\x00\x00\xcaB\x00\x00\xe0B\x00\x00\x13C\x00\x00TC\x00\x00ZC\x00\x00\\C\x00\x00lC\x00\x00nC\x00\x00rC\x00\x80\x86C\x00\x00\x98C\x00\x00\xa1C\x00\x80\xa3C\x00\x00\xa6C\x00\x00\xadC\x00\x00\xb7C\x00\x00\xb8C\x00\x80\xc6C\x00\x00\xc8C\x00\x80\xc8C\x00\x00\xceC\x00\x00\xdfC\x00\x80\xe9C\x00\x00\xf4C\x00\x00\xfeC\x00\xc0\x01D\x00@\x04D\x00@\x05D\x00\x00\x14D\x00\x00\x98A\x00\x008B\x00\x00\\B\x00\x00\x92B\x00\x00\xa4B\x00\x00\x19C\x00\x00)C\x00\x00*C\x00\x008C\x00\x00;C\x00\x00|C\x00\x00}C\x00\x00\x87C\x00\x80\x8aC\x00\x00\x8bC\x00\x80\x8dC\x00\x80\x8fC\x00\x80\x95C\x00\x80\x96C\x00\x00\x9bC\x00\x00\xabC\x00\x80\xacC\x00\x00\xafC\x00\x80\xafC\x00\x80\xbaC\x00\x80\xc2C\x00\x00\xc6C\x00\x80\xc7C\x00\x80\xcdC\x00\x00\xd4C\x00\x00\xd5C\x00\x80\xdbC\x00\x80\xe5C\x00\x00\xfcC\x00@\x00D\x00\x80\x05D\x00@\x0cD\x00\xc0\x0eD\x00\x00\x0fD\x00@\x11D\x00\x00DB\x00\x00\x82B\x00\x00\x9aB\x00\x00\xb2B\x00\x00\xbcB\x00\x00\xd0B\x00\x00\xd2B\x00\x00\xf4B\x00\x00\x18C\x00\x00\x1fC\x00\x00/C\x00\x00LC\x00\x00MC\x00\x00bC\x00\x00sC\x00\x00\x83C\x00\x80\x8cC\x00\x00\x92C\x00\x80\x92C\x00\x00\x99C\x00\x80\x9bC\x00\x00\x9dC\x00\x80\xa4C\x00\x00\xa9C\x00\x80\xa9C\x00\x80\xbdC\x00\x80\xbfC\x00\x00\xc0C\x00\x00\xc2C\x00\x00\xefC\x00\x80\xf3C\x00\x00\xf6C\x00\x00\xfbC\x00\x00\x02D\x00\xc0\x07D\x00\xc0\x0bD\x00\x80\x0cD\x00\xc0\x0cD\x00\x80\x0eD\x00\x80\x12D\x00\x00\xc0@\x00\x00\x04B\x00\x00\x08B\x00\x00\x10B\x00\x00XB\x00\x00\x84B\x00\x00\x8cB\x00\x00\xeaB\x00\x00\xfeB\x00\x00\x06C\x00\x00\x16C\x00\x00\x1dC\x00\x00!C\x00\x00#C\x00\x00%C\x00\x002C\x00\x00<C\x00\x00@C\x00\x00DC\x00\x00GC\x00\x00[C\x00\x00fC\x00\x80\x81C\x00\x80\x8eC\x00\x80\x98C\x00\x00\xb2C\x00\x80\xc4C\x00\x00\xd0C\x00\x00\xd1C\x00\x80\xd1C\x00\x80\xd6C\x00\x00\xddC\x00\x00\xe5C\x00\x00\xe6C\x00\xc0\x05D\x00@\x08D\x00\xc0\x08D\x00@\tD\x00\xc0\rD\x00\x00\x15D\x00\x00\xe0@\x00\x00 A\x00\x00\xa0A\x00\x00\xd8A\x00\x00\xaaB\x00\x00\xbeB\x00\x00\xc8B\x00\x00\xeeB\x00\x00\xf8B\x00\x00\rC\x00\x001C\x00\x007C\x00\x00WC\x00\x00mC\x00\x00xC\x00\x00\x7fC\x00\x00\x8aC\x00\x00\xb3C\x00\x00\xb9C\x00\x00\xbcC\x00\x00\xbdC\x00\x80\xbeC\x00\x00\xc5C\x00\x80\xcbC\x00\x80\xd2C\x00\x80\xd5C\x00\x00\xd6C\x00\x80\xd8C\x00\x80\xe3C\x00\x00\xe9C\x00\x80\xf1C\x00\x00\xf2C\x00\x80\x01D\x00\xc0\x02D\x00\x00\x03D\x00\x80\x06D\x00\x00\x0bD\x00\xc0\x11D\x00\x80\x14D\x00@\x15D\x00\x00\x10A\x00\x00\x1cB\x00\x00TB\x00\x00\x88B\x00\x00\x8aB\x00\x00\x94B\x00\x00\xaeB\x00\x00\x07C\x00\x00 C\x00\x009C\x00\x00=C\x00\x00AC\x00\x00IC\x00\x00aC\x00\x00oC\x00\x00tC\x00\x00vC\x00\x00yC\x00\x00\x9aC\x00\x80\x9aC\x00\x00\x9eC\x00\x00\xb0C\x00\x80\xb4C\x00\x00\xcaC\x00\x00\xccC\x00\x00\xcdC\x00\x00\xcfC\x00\x00\xd9C\x00\x00\xdeC\x00\x80\xe0C\x00\x00\xe1C\x00\x00\xe2C\x00\x00\xf1C\x00\x80\x00D\x00\x00\x01D\x00@\x03D\x00@\x07D\x00\x00\tD\x00\x80\x0bD\x00\x00\x10D\x00\x00\x00@\x00\x00(B\x00\x00tB\x00\x00|B\x00\x00\xa6B\x00\x00\xb6B\x00\x00\xd8B\x00\x00\xdcB\x00\x00\xe6B\x00\x00\xf6B\x00\x00\tC\x00\x00\nC\x00\x00\x17C\x00\x00\x1bC\x00\x00\x1cC\x00\x00+C\x00\x00HC\x00\x00\x82C\x00\x80\x83C\x00\x80\x88C\x00\x00\x8fC\x00\x80\xa1C\x00\x00\xa7C\x00\x80\xaaC\x00\x80\xb5C\x00\x80\xbcC\x00\x00\xc4C\x00\x00\xdbC\x00\x80\xdcC\x00\x00\xe0C\x00\x00\xe4C\x00\x80\xecC\x00\x80\xf4C\x00\x80\xf5C\x00\x80\xf7C\x00\x80\x03D\x00\x80\x07D\x00\x80\tD\x00\xc0\nD\x00\xc0\x14D\x00\x00\x80@\x00\x00@A\x00\x00\x0cB\x00\x00,B\x00\x004B\x00\x00\x86B\x00\x00\x90B\x00\x00\xacB\x00\x00\xb8B\x00\x00\xc4B\x00\x00\xecB\x00\x00\xfcB\x00\x00\x1aC\x00\x00$C\x00\x003C\x00\x005C\x00\x00>C\x00\x00RC\x00\x00^C\x00\x00\x84C\x00\x80\x84C\x00\x00\x85C\x00\x80\x85C\x00\x80\x99C\x00\x00\xa3C\x00\x00\xa5C\x00\x00\xbbC\x00\x80\xc0C\x00\x00\xc1C\x00\x80\xc3C\x00\x80\xceC\x00\x00\xdcC\x00\x80\xdfC\x00\x80\xe1C\x00\x80\xf2C\x00@\x0bD\x00@\x0fD\x00\x80\x10D\x00\xc0\x10D\x00@\x13D\x00\x00`A\x00\x00\x90A\x00\x00\x9cB\x00\x00\xa0B\x00\x00\xa8B\x00\x00\xdeB\x00\x00\xe4B\x00\x00\x05C\x00\x00\x0eC\x00\x00\x14C\x00\x00\'C\x00\x00CC\x00\x00OC\x00\x00SC\x00\x00pC\x00\x00uC\x00\x80\x90C\x00\x00\x91C\x00\x00\x94C\x00\x80\x94C\x00\x00\x95C\x00\x00\xacC\x00\x80\xadC\x00\x80\xb2C\x00\x00\xb4C\x00\x80\xb6C\x00\x80\xc1C\x00\x00\xc9C\x00\x80\xcfC\x00\x80\xd0C\x00\x80\xe4C\x00\x00\xe8C\x00\x00\xedC\x00\x00\xf0C\x00\x80\xf0C\x00\x00\xf3C\x00\x00\xf5C\x00\x80\xf6C\x00\x00\xf8C\x00\x80\x13D\x00\x00\xb0A\x00\x00dB\x00\x00hB\x00\x00\xd4B\x00\x00\x02C\x00\x00\x0bC\x00\x00\x0fC\x00\x00\x10C\x00\x00\x1eC\x00\x00"C\x00\x00&C\x00\x006C\x00\x00?C\x00\x00QC\x00\x00XC\x00\x00YC\x00\x00]C\x00\x00hC\x00\x00\x88C\x00\x00\x8cC\x00\x00\x8eC\x00\x80\x9cC\x00\x80\x9dC\x00\x80\xa6C\x00\x80\xaeC\x00\x00\xb1C\x00\x00\xb5C\x00\x00\xbfC\x00\x80\xc9C\x00\x80\xccC\x00\x00\xd3C\x00\x80\xd7C\x00\x00\xeaC\x00\x00\xecC\x00\xc0\x06D\x00\xc0\tD\x00\x00\nD\x00\x80\nD\x00@\x12D\x00\xc0\x15D\x00\x00\x00\x00\x00\x00\x00A\x00\x00\xe0A\x00\x00HB\x00\x00xB\x00\x00\xb0B\x00\x00\x01C\x00\x00\x03C\x00\x00-C\x00\x004C\x00\x00BC\x00\x00PC\x00\x00_C\x00\x00`C\x00\x00\x80C\x00\x80\x87C\x00\x00\x93C\x00\x00\xa0C\x00\x80\xa5C\x00\x80\xabC\x00\x80\xb7C\x00\x80\xbbC\x00\x00\xd2C\x00\x80\xe6C\x00\x80\xe7C\x00\x80\xe8C\x00\x80\xedC\x00\x80\xefC\x00\x00\xf9C\x00\x00\xfaC\x00\x80\xfeC\x00\x00\x00D\x00\x80\x04D\x00\x00\x08D\x00@\nD\x00@\rD\x00\xc0\x0fD\x00\x80\x11D\x00\x00\x12D\x00@\x14D\x00\x00@@\x00\x00\xb8A\x00\x00\xc0A\x00\x00\xc8A\x00\x00\xd0A\x00\x00\x00B\x00\x000B\x00\x00\x98B\x00\x00\xc2B\x00\x00\xc6B\x00\x00\xf2B\x00\x00\xfaB\x00\x00\x00C\x00\x00\x11C\x00\x00,C\x00\x00:C\x00\x00EC\x00\x00KC\x00\x00kC\x00\x80\x82C\x00\x00\x89C\x00\x80\x8bC\x00\x80\x9fC\x00\x00\xa2C\x00\x80\xa2C\x00\x80\xa8C\x00\x00\xaeC\x00\x80\xb8C\x00\x80\xcaC\x00\x00\xd8C\x00\x80\xdaC\x00\x00\xe3C\x00\x80\xf8C\x00\xc0\x03D\x00\x00\x04D\x00\xc0\x04D\x00@\x06D\x00@\x0eD\x00@\x10D\x00\xc0\x12D\x00\x00\xa0@\x00\x000A\x00\x00\x80A\x00\x00\x14B\x00\x00 B\x00\x00$B\x00\x00<B\x00\x00PB\x00\x00`B\x00\x00\x80B\x00\x00\x8eB\x00\x00\xd6B\x00\x00\x12C\x00\x00FC\x00\x00JC\x00\x00UC\x00\x00VC\x00\x00eC\x00\x00qC\x00\x00\x8dC\x00\x80\x93C\x00\x80\x97C\x00\x00\x9fC\x00\x80\xa0C\x00\x00\xa8C\x00\x80\xb1C\x00\x80\xb3C\x00\x00\xb6C\x00\x00\xbaC\x00\x80\xd9C\x00\x00\xdaC\x00\x80\xddC\x00\x00\xe7C\x00\x80\xebC\x00\x00\xfdC\x00\x00\xffC\x00\xc0\x00D\x00@\x02D\x00\x80\x02D\x00\x00\x11D\x00\x00pB\x00\x00\xbaB\x00\x00\xdaB\x00\x00\xe8B\x00\x00\xf0B\x00\x00\x08C\x00\x00\x0cC\x00\x00\x15C\x00\x00(C\x00\x000C\x00\x00NC\x00\x00cC\x00\x00dC\x00\x00jC\x00\x00wC\x00\x00zC\x00\x80\x80C\x00\x80\x89C\x00\x80\x91C\x00\x00\x97C\x00\x00\x9cC\x00\x80\x9eC\x00\x00\xa4C\x00\x00\xaaC\x00\x80\xb9C\x00\x00\xbeC\x00\x00\xcbC\x00\x80\xd4C\x00\x00\xd7C\x00\x00\xebC\x00\x00\xeeC\x00\x80\xeeC\x00@\x01D\x00\x00\x05D\x00\x00\x06D\x00\x80\x08D\x00\x00\x0cD\x00\x00\rD\x00\x00\x0eD\x00\x80\x15D\x00\x00PA\x00\x00\xf8A\x00\x00LB\x00\x00\x96B\x00\x00\xa2B\x00\x00\xc0B\x00\x00\xccB\x00\x00\xceB\x00\x00\xe2B\x00\x00\x04C\x00\x00.C\x00\x00gC\x00\x00iC\x00\x00{C\x00\x00~C\x00\x00\x81C\x00\x00\x86C\x00\x00\x90C\x00\x00\x96C\x00\x80\xa7C\x00\x80\xb0C\x00\x00\xc3C\x00\x80\xc5C\x00\x00\xc7C\x00\x80\xd3C\x00\x80\xdeC\x00\x80\xe2C\x00\x80\xeaC\x00\x00\xf7C\x00\x80\xf9C\x00\x80\xfaC\x00\x80\xfbC\x00\x80\xfcC\x00\x80\xfdC\x00\x80\xffC\x00\x00\x07D\x00\x80\rD\x00\x80\x0fD\x00\x00\x13D\x00\xc0\x13D'
S'\x00\x00\x00\x00\x00\x00\x00\x00\x00\x00\x00\x00\x00\x00\x00\x00\x00\x00\x00\x00\x00\x00\x00\x00\x00\x00\x00\x00\x00\x00\x00\x00\x00\x00\x00\x00\x00\x00\x00\x00\x00\x00\x00\x00\x00\x00\x00\x00\x00\x00\x00\x00\x00\x00\x00\x00\x00\x00\x00\x00\x00\x00\x00\x00\x00\x00\x00\x00\x00\x00\x00\x00\x00\x00\x00\x00\x00\x00\x00\x00\x00\x00\x00\x00\x00\x00\x00\x00\x00\x00\x00\x00\x00\x00\x00\x00\x00\x00\x00\x00\x00\x00\x00\x00\x00\x00\x00\x00\x00\x00\x00\x00\x00\x00\x00\x00\x00\x00\x00\x00\x00\x00\x00\x00\x00\x00\x00\x00\x00\x00\x00\x00\x00\x00\x00\x00\x00\x00\x00\x00\x00\x00\x00\x00\x00\x00\x00\x00\x00\x00\x00\x00\x00\x00\x00\x00\x00\x00\x00\x00\x00\x00\x00\x00\x00\x00\x00\x00\x00\x00\x00\x00\x00\x00\x00\x00\x00\x00\x00\x00\x00\x00\x00\x00\x00\x00\x00\x00\x00\x00\x00\x00\x00\x00\x00\x00\x00\x00\x00\x00\x00\x00\x00\x00\x00\x00\x00\x00\x00\x00\x00\x00\x00\x00\x00\x00\x00\x00\x00\x00\x00\x00\x00\x00\x00\x00\x00\x00\x00\x00\x00\x00\x00\x00\x00\x00\x00\x00\x00\x00\x00\x00\x00\x00\x00\x00\x00\x00\x00\x00\x00\x00\x00\x00\x00\x00\x00\x00\x00\x00\x00\x00\x00\x00\x00\x00\x00\x00\x00\x00\x00\x00\x00\x00\x00\x00\x00\x00\x00\x00\x00\x00\x00\x00\x00\x00\x00\x00\x00\x00\x00\x00\x00\x00\x00\x00\x00\x00\x00\x00\x00\x00\x00\x00\x00\x00\x00\x00\x00\x00\x00\x00\x00\x00\x00\x00\x00\x00\x00\x00\x00\x00\x00\x00\x00\x00\x00\x00\x00\x00\x00\x00\x00\x00\x00\x00\x00\x00\x00\x00\x00\x00\x00\x00\x00\x00\x00\x00\x00\x00\x00\x00\x00\x00\x00\x00\x00\x00\x00\x00\x00\x00\x00\x00\x00\x00\x00\x00\x00\x00\x00\x00\x00\x00\x00\x00\x00\x00\x00\x00\x00\x00\x00\x00\x00\x00\x00\x00\x00\x00\x00\x00\x00\x00\x00\x00\x00\x00\x00\x00\x00\x00\x00\x00\x00\x00\x00\x00\x00\x00\x00\x00\x00\x00\x00\x00\x00\x00\x00\x00\x00\x00\x00\x00\x00\x00\x00\x00\x00\x00\x00\x00\x00\x00\x00\x00\x00\x00\x00\x00\x00\x00\x00\x00\x00\x00\x00\x00\x00\x00\x00\x00\x00\x00\x00\x00\x00\x00\x00\x00\x00\x00\x00\x00\x00\x00\x00\x00\x00\x00\x00\x00\x00\x00\x00\x00\x00\x00\x00\x00\x00\x00\x00\x00\x00\x00\x00\x00\x00\x00\x00\x00\x00\x00\x00\x00\x00\x00\x00\x00\x00\x00\x00\x00\x00\x00\x00\x00\x00\x00\x00\x00\x00\x00\x00\x00\x00\x00\x00\x00\x00\x00\x00\x00\x00\x00\x00\x00\x00\x00\x00\x00\x00\x00\x00\x00\x00\x00\x00\x00\x00\x00\x00\x00\x00\x00\x00\x00\x00\x00\x00\x00\x00\x00\x00\x00\x00\x00\x00\x00\x00\x00\x00\x00\x00\x00\x00\x00\x00\x00\x00\x00\x00\x00\x00\x00\x00\x00\x00\x00\x00\x00\x00\x00\x00\x00\x00\x00\x00\x00\x00\x00\x00\x00\x00\x00\x00\x00\x00\x00'
NtbstRp57
(dp58
S'isNumeric'
p59
(dp60
g47
I01
sg55
I01
ssS'trials'
p61
g36
sS'dataTypes'
p62
(lp63
g47
ag55
asS'dataShape'
p64
(lp65
I15
aI40
asbsS'method'
p66
S'fullRandom'
p67
sS'sequenceIndices'
p68
cnumpy.core.multiarray
_reconstruct
p69
(g50
(I0
tS'b'
tRp70
(I1
(I15
I40
tg53
(S'O4'
I0
I1
tRp71
(I3
S'|'
NNNI-1
I-1
I63
tbI00
(lp72
I10
aI0
aI0
aI7
aI13
aI14
aI0
aI2
aI13
aI5
aI3
aI3
aI10
aI8
aI7
aI5
aI8
aI4
aI1
aI3
aI14
aI9
aI7
aI1
aI8
aI10
aI14
aI11
aI10
aI12
aI5
aI10
aI8
aI6
aI12
aI5
aI14
aI6
aI2
aI9
aI0
aI12
aI14
aI1
aI6
aI11
aI6
aI9
aI11
aI13
aI6
aI9
aI7
aI3
aI8
aI2
aI12
aI10
aI10
aI6
aI1
aI5
aI10
aI0
aI5
aI4
aI7
aI13
aI4
aI12
aI7
aI4
aI8
aI8
aI14
aI6
aI5
aI4
aI1
aI2
aI6
aI0
aI11
aI12
aI10
aI2
aI7
aI12
aI2
aI6
aI2
aI8
aI9
aI11
aI0
aI13
aI0
aI13
aI9
aI1
aI13
aI13
aI0
aI8
aI9
aI6
aI6
aI4
aI9
aI11
aI5
aI0
aI5
aI11
aI10
aI11
aI6
aI7
aI1
aI11
aI11
aI8
aI3
aI0
aI6
aI8
aI13
aI6
aI6
aI6
aI1
aI13
aI4
aI12
aI12
aI13
aI2
aI14
aI6
aI14
aI12
aI12
aI9
aI11
aI6
aI4
aI3
aI5
aI14
aI6
aI14
aI9
aI4
aI10
aI1
aI11
aI2
aI5
aI7
aI14
aI7
aI1
aI3
aI2
aI12
aI0
aI2
aI13
aI4
aI9
aI7
aI1
aI1
aI3
aI12
aI12
aI5
aI3
aI11
aI8
aI0
aI11
aI6
aI9
aI12
aI2
aI4
aI9
aI1
aI1
aI11
aI14
aI4
aI14
aI5
aI0
aI10
aI2
aI14
aI7
aI12
aI4
aI7
aI10
aI2
aI8
aI4
aI6
aI11
aI13
aI6
aI1
aI5
aI6
aI4
aI3
aI8
aI6
aI13
aI8
aI3
aI10
aI14
aI1
aI8
aI13
aI14
aI5
aI13
aI7
aI4
aI13
aI7
aI10
aI12
aI10
aI3
aI13
aI10
aI8
aI3
aI0
aI3
aI14
aI3
aI14
aI14
aI8
aI7
aI4
aI6
aI6
aI11
aI5
aI9
aI14
aI5
aI11
aI4
aI13
aI2
aI12
aI12
aI1
aI0
aI4
aI1
aI1
aI1
aI6
aI6
aI12
aI8
aI14
aI5
aI11
aI13
aI1
aI5
aI14
aI4
aI9
aI12
aI12
aI7
aI1
aI11
aI0
aI3
aI8
aI3
aI11
aI1
aI12
aI9
aI9
aI13
aI2
aI1
aI2
aI7
aI0
aI11
aI5
aI10
aI9
aI0
aI0
aI4
aI3
aI8
aI9
aI2
aI2
aI13
aI13
aI3
aI2
aI11
aI0
aI10
aI11
aI0
aI5
aI5
aI6
aI7
aI14
aI11
aI9
aI9
aI10
aI3
aI11
aI0
aI14
aI4
aI6
aI1
aI2
aI5
aI6
aI2
aI14
aI0
aI2
aI14
aI7
aI4
aI12
aI3
aI6
aI0
aI14
aI4
aI0
aI5
aI2
aI7
aI10
aI5
aI11
aI5
aI3
aI5
aI8
aI11
aI8
aI10
aI9
aI2
aI14
aI5
aI2
aI3
aI13
aI5
aI7
aI11
aI10
aI5
aI11
aI2
aI9
aI11
aI2
aI1
aI5
aI3
aI5
aI1
aI8
aI6
aI1
aI0
aI1
aI3
aI13
aI7
aI4
aI4
aI11
aI12
aI1
aI3
aI4
aI4
aI6
aI9
aI11
aI5
aI2
aI7
aI2
aI0
aI11
aI13
aI7
aI9
aI12
aI1
aI11
aI13
aI12
aI4
aI7
aI0
aI8
aI13
aI14
aI3
aI10
aI8
aI14
aI2
aI3
aI6
aI10
aI12
aI6
aI12
aI11
aI12
aI12
aI12
aI7
aI0
aI13
aI10
aI12
aI3
aI13
aI9
aI13
aI9
aI0
aI14
aI7
aI2
aI8
aI2
aI7
aI6
aI3
aI13
aI7
aI0
aI3
aI9
aI0
aI10
aI13
aI6
aI12
aI12
aI13
aI9
aI14
aI1
aI3
aI7
aI4
aI6
aI9
aI7
aI5
aI14
aI3
aI14
aI0
aI9
aI4
aI3
aI8
aI7
aI4
aI1
aI7
aI12
aI8
aI13
aI0
aI1
aI8
aI12
aI8
aI8
aI8
aI11
aI7
aI12
aI13
aI2
aI14
aI12
aI11
aI9
aI3
aI10
aI4
aI14
aI10
aI7
aI9
aI1
aI10
aI14
aI7
aI8
aI8
aI3
aI3
aI5
aI10
aI10
aI0
aI1
aI14
aI1
aI8
aI9
aI13
aI10
aI4
aI1
aI2
aI9
aI3
aI4
aI6
aI10
aI2
aI8
aI0
aI4
aI4
aI10
aI13
aI4
aI13
aI8
aI0
aI11
aI0
aI5
aI2
aI2
aI4
aI3
aI13
aI7
aI7
aI10
aI9
aI10
aI5
aI14
aI0
aI9
aI1
aI2
aI2
aI8
aI12
aI7
aI1
aI5
aI3
aI5
aI5
aI8
aI10
aI14
aI10
aI4
aI9
aI9
aI11
aI10
aI9
atbsS'finished'
p73
I00
sS'nReps'
p74
I40
sS'nRemaining'
p75
I0
sS'trialList'
p76
(lp77
I0
aI1
aI2
aI3
aI4
aI5
aI6
aI7
aI8
aI9
aI10
aI11
aI12
aI13
aI14
asS'seed'
p78
NsS'thisIndex'
p79
I9
sS'thisN'
p80
I599
sS'thisTrialN'
p81
I14
sS'nTotal'
p82
I600
sS'_warnUseOfNext'
p83
I01
sbasS'saveWideText'
p84
I00
sS'thisEntry'
p85
(dp86
sS'version'
p87
S''
sS'_paramNamesSoFar'
p88
(lp89
sS'entries'
p90
(lp91
(dp92
g16
(lp93
S'k'
asS'.thisTrial'
p94
I10
sS'.thisRepN'
p95
I0
sg30
VM
sg31
g32
sS'.thisTrialN'
p96
I0
sS'.thisN'
p97
I0
sS'.thisIndex'
p98
I10
sg15
(lp99
S'd'
asg17
S'N'
sg14
I1
sa(dp100
g16
(lp101
S'k'
asg94
I0
sS'.thisRepN'
p102
I0
sg30
VM
sg31
g32
sS'.thisTrialN'
p103
I1
sS'.thisN'
p104
I1
sS'.thisIndex'
p105
I0
sg15
(lp106
S'k'
asg17
S'Y'
sg14
I1
sa(dp107
g16
(lp108
S'd'
asg18
S'Y'
sS'.thisRepN'
p109
I0
sg20
S'N'
sg31
g32
sS'.thisTrialN'
p110
I2
sS'.thisN'
p111
I2
sS'.thisIndex'
p112
I6
sg15
(lp113
S'd'
asg30
VM
sg17
S'Y'
sg14
I1
sg19
Nsg94
I6
sa(dp114
g18
S'N'
sS'.thisRepN'
p115
I0
sg20
S'Y'
sg31
g32
sS'.thisTrialN'
p116
I3
sS'.thisN'
p117
I3
sS'.thisIndex'
p118
I11
sg15
Nsg30
VM
sg17
S'Timed out'
p119
sg14
I1
sg19
Nsg94
I11
sa(dp120
g16
(lp121
S'k'
asg18
S'Y'
sS'.thisRepN'
p122
I0
sg20
S'N'
sg31
g32
sS'.thisTrialN'
p123
I4
sS'.thisN'
p124
I4
sS'.thisIndex'
p125
I7
sg15
(lp126
S'd'
asg30
VM
sg17
S'N'
sg14
I1
sg19
Nsg94
I7
sa(dp127
g16
(lp128
S'k'
asg18
S'N'
sS'.thisRepN'
p129
I0
sg20
S'Y'
sg31
g32
sS'.thisTrialN'
p130
I5
sS'.thisN'
p131
I5
sS'.thisIndex'
p132
I12
sg15
(lp133
S'k'
asg30
VM
sg17
S'Y'
sg14
I1
sg19
Nsg94
I12
sa(dp134
g16
(lp135
S'k'
asg18
S'N'
sS'.thisRepN'
p136
I0
sg20
S'Y'
sg31
g32
sS'.thisTrialN'
p137
I6
sS'.thisN'
p138
I6
sS'.thisIndex'
p139
I3
sg15
(lp140
S'k'
asg30
VM
sg17
S'Y'
sg14
I1
sg19
Nsg94
I3
sa(dp141
g16
(lp142
S'd'
asg18
S'N'
sS'.thisRepN'
p143
I0
sg20
S'Y'
sg31
g32
sS'.thisTrialN'
p144
I7
sS'.thisN'
p145
I7
sS'.thisIndex'
p146
I4
sg15
(lp147
S'd'
asg30
VM
sg17
S'Y'
sg14
I1
sg19
Nsg94
I4
sa(dp148
g16
(lp149
S'k'
asg18
S'Y'
sS'.thisRepN'
p150
I0
sg20
S'N'
sg31
g32
sS'.thisTrialN'
p151
I8
sS'.thisN'
p152
I8
sS'.thisIndex'
p153
I10
sg15
(lp154
S'k'
asg30
VM
sg17
S'Y'
sg14
I1
sg19
Nsg94
I10
sa(dp155
g16
(lp156
S'd'
asg18
S'Y'
sS'.thisRepN'
p157
I0
sg20
S'N'
sg31
g32
sS'.thisTrialN'
p158
I9
sS'.thisN'
p159
I9
sS'.thisIndex'
p160
I5
sg15
(lp161
S'd'
asg30
VM
sg17
S'Y'
sg14
I1
sg19
Nsg94
I5
sa(dp162
g16
(lp163
S'k'
asg18
S'N'
sS'.thisRepN'
p164
I0
sg20
S'Y'
sg31
g32
sS'.thisTrialN'
p165
I10
sS'.thisN'
p166
I10
sS'.thisIndex'
p167
I4
sg15
(lp168
S'k'
asg30
VM
sg17
S'Y'
sg14
I1
sg19
Nsg94
I4
sa(dp169
g16
(lp170
S'k'
asg18
S'Y'
sS'.thisRepN'
p171
I0
sg20
S'N'
sg31
g32
sS'.thisTrialN'
p172
I11
sS'.thisN'
p173
I11
sS'.thisIndex'
p174
I12
sg15
(lp175
S'k'
asg30
VM
sg17
S'Y'
sg14
I1
sg19
Nsg94
I12
sa(dp176
g16
(lp177
S'k'
asg18
S'Y'
sS'.thisRepN'
p178
I0
sg20
S'N'
sg31
g32
sS'.thisTrialN'
p179
I12
sS'.thisN'
p180
I12
sS'.thisIndex'
p181
I7
sg15
(lp182
S'd'
asg30
VM
sg17
S'N'
sg14
I1
sg19
Nsg94
I7
sa(dp183
g16
(lp184
S'k'
asg18
S'N'
sS'.thisRepN'
p185
I0
sg20
S'Y'
sg31
g32
sS'.thisTrialN'
p186
I13
sS'.thisN'
p187
I13
sS'.thisIndex'
p188
I14
sg15
(lp189
S'k'
asg30
VM
sg17
S'Y'
sg14
I1
sg19
Nsg94
I14
sa(dp190
g16
(lp191
S'k'
asg18
S'Y'
sS'.thisRepN'
p192
I0
sg20
S'Y'
sg31
g32
sS'.thisTrialN'
p193
I14
sS'.thisN'
p194
I14
sS'.thisIndex'
p195
I8
sg15
(lp196
S'k'
asg30
VM
sg17
S'Y'
sg14
I1
sg19
(lp197
S'space'
p198
asg94
I8
sa(dp199
g16
(lp200
S'k'
asg18
S'N'
sS'.thisRepN'
p201
I1
sg20
S'Y'
sg31
g32
sS'.thisTrialN'
p202
I0
sS'.thisN'
p203
I15
sS'.thisIndex'
p204
I0
sg15
(lp205
S'k'
asg30
VM
sg17
S'Y'
sg14
I1
sg19
Nsg94
I0
sa(dp206
g16
(lp207
S'd'
asg18
S'N'
sS'.thisRepN'
p208
I1
sg20
S'Y'
sg31
g32
sS'.thisTrialN'
p209
I1
sS'.thisN'
p210
I16
sS'.thisIndex'
p211
I12
sg15
(lp212
S'd'
asg30
VM
sg17
S'Y'
sg14
I1
sg19
Nsg94
I12
sa(dp213
g16
(lp214
S'd'
asg18
S'N'
sS'.thisRepN'
p215
I1
sg20
S'Y'
sg31
g32
sS'.thisTrialN'
p216
I2
sS'.thisN'
p217
I17
sS'.thisIndex'
p218
I0
sg15
(lp219
S'd'
asg30
VM
sg17
S'Y'
sg14
I1
sg19
Nsg94
I0
sa(dp220
g16
(lp221
S'k'
asg18
S'Y'
sS'.thisRepN'
p222
I1
sg20
S'N'
sg31
g32
sS'.thisTrialN'
p223
I3
sS'.thisN'
p224
I18
sS'.thisIndex'
p225
I8
sg15
(lp226
S'k'
asg30
VM
sg17
S'Y'
sg14
I1
sg19
Nsg94
I8
sa(dp227
g16
(lp228
S'd'
asg18
S'Y'
sS'.thisRepN'
p229
I1
sg20
S'N'
sg31
g32
sS'.thisTrialN'
p230
I4
sS'.thisN'
p231
I19
sS'.thisIndex'
p232
I1
sg15
(lp233
S'k'
asg30
VM
sg17
S'N'
sg14
I1
sg19
Nsg94
I1
sa(dp234
g16
(lp235
S'k'
asg18
S'Y'
sS'.thisRepN'
p236
I1
sg20
S'N'
sg31
g32
sS'.thisTrialN'
p237
I5
sS'.thisN'
p238
I20
sS'.thisIndex'
p239
I4
sg15
(lp240
S'k'
asg30
VM
sg17
S'Y'
sg14
I1
sg19
Nsg94
I4
sa(dp241
g16
(lp242
S'k'
asg18
S'N'
sS'.thisRepN'
p243
I1
sg20
S'Y'
sg31
g32
sS'.thisTrialN'
p244
I6
sS'.thisN'
p245
I21
sS'.thisIndex'
p246
I0
sg15
(lp247
S'k'
asg30
VM
sg17
S'Y'
sg14
I1
sg19
Nsg94
I0
sa(dp248
g16
(lp249
S'k'
asg18
S'Y'
sS'.thisRepN'
p250
I1
sg20
S'Y'
sg31
g32
sS'.thisTrialN'
p251
I7
sS'.thisN'
p252
I22
sS'.thisIndex'
p253
I9
sg15
(lp254
S'k'
asg30
VM
sg17
S'Y'
sg14
I1
sg19
(lp255
S'space'
p256
asg94
I9
sa(dp257
g16
(lp258
S'k'
asg18
S'N'
sS'.thisRepN'
p259
I1
sg20
S'Y'
sg31
g32
sS'.thisTrialN'
p260
I8
sS'.thisN'
p261
I23
sS'.thisIndex'
p262
I11
sg15
(lp263
S'k'
asg30
VM
sg17
S'Y'
sg14
I1
sg19
Nsg94
I11
sa(dp264
g16
(lp265
S'k'
asg18
S'N'
sS'.thisRepN'
p266
I1
sg20
S'Y'
sg31
g32
sS'.thisTrialN'
p267
I9
sS'.thisN'
p268
I24
sS'.thisIndex'
p269
I11
sg15
(lp270
S'k'
asg30
VM
sg17
S'Y'
sg14
I1
sg19
Nsg94
I11
sa(dp271
g16
(lp272
S'k'
asg18
S'N'
sS'.thisRepN'
p273
I1
sg20
S'Y'
sg31
g32
sS'.thisTrialN'
p274
I10
sS'.thisN'
p275
I25
sS'.thisIndex'
p276
I11
sg15
(lp277
S'k'
asg30
VM
sg17
S'Y'
sg14
I1
sg19
Nsg94
I11
sa(dp278
g16
(lp279
S'd'
asg18
S'Y'
sS'.thisRepN'
p280
I1
sg20
S'N'
sg31
g32
sS'.thisTrialN'
p281
I11
sS'.thisN'
p282
I26
sS'.thisIndex'
p283
I11
sg15
(lp284
S'd'
asg30
VM
sg17
S'Y'
sg14
I1
sg19
Nsg94
I11
sa(dp285
g16
(lp286
S'k'
asg18
S'N'
sS'.thisRepN'
p287
I1
sg20
S'Y'
sg31
g32
sS'.thisTrialN'
p288
I12
sS'.thisN'
p289
I27
sS'.thisIndex'
p290
I4
sg15
(lp291
S'k'
asg30
VM
sg17
S'Y'
sg14
I1
sg19
Nsg94
I4
sa(dp292
g16
(lp293
S'k'
asg18
S'Y'
sS'.thisRepN'
p294
I1
sg20
S'N'
sg31
g32
sS'.thisTrialN'
p295
I13
sS'.thisN'
p296
I28
sS'.thisIndex'
p297
I10
sg15
(lp298
S'k'
asg30
VM
sg17
S'Y'
sg14
I1
sg19
Nsg94
I10
sa(dp299
g16
(lp300
S'd'
asg18
S'Y'
sS'.thisRepN'
p301
I1
sg20
S'Y'
sg31
g32
sS'.thisTrialN'
p302
I14
sS'.thisN'
p303
I29
sS'.thisIndex'
p304
I0
sg15
(lp305
S'd'
asg30
VM
sg17
S'Y'
sg14
I1
sg19
(lp306
S'space'
p307
asg94
I0
sa(dp308
g16
(lp309
S'k'
asg18
S'N'
sS'.thisRepN'
p310
I2
sg20
S'Y'
sg31
g32
sS'.thisTrialN'
p311
I0
sS'.thisN'
p312
I30
sS'.thisIndex'
p313
I0
sg15
(lp314
S'd'
asg30
VM
sg17
S'N'
sg14
I1
sg19
Nsg94
I0
sa(dp315
g16
(lp316
S'k'
asg18
S'Y'
sS'.thisRepN'
p317
I2
sg20
S'N'
sg31
g32
sS'.thisTrialN'
p318
I1
sS'.thisN'
p319
I31
sS'.thisIndex'
p320
I14
sg15
(lp321
S'k'
asg30
VM
sg17
S'Y'
sg14
I1
sg19
Nsg94
I14
sa(dp322
g16
(lp323
S'd'
asg18
S'N'
sS'.thisRepN'
p324
I2
sg20
S'Y'
sg31
g32
sS'.thisTrialN'
p325
I2
sS'.thisN'
p326
I32
sS'.thisIndex'
p327
I11
sg15
(lp328
S'd'
asg30
VM
sg17
S'Y'
sg14
I1
sg19
Nsg94
I11
sa(dp329
g16
(lp330
S'k'
asg18
S'Y'
sS'.thisRepN'
p331
I2
sg20
S'N'
sg31
g32
sS'.thisTrialN'
p332
I3
sS'.thisN'
p333
I33
sS'.thisIndex'
p334
I3
sg15
(lp335
S'k'
asg30
VM
sg17
S'Y'
sg14
I1
sg19
Nsg94
I3
sa(dp336
g16
(lp337
S'd'
asg18
S'Y'
sS'.thisRepN'
p338
I2
sg20
S'N'
sg31
g32
sS'.thisTrialN'
p339
I4
sS'.thisN'
p340
I34
sS'.thisIndex'
p341
I3
sg15
(lp342
S'd'
asg30
VM
sg17
S'Y'
sg14
I1
sg19
Nsg94
I3
sa(dp343
g16
(lp344
S'd'
asg18
S'N'
sS'.thisRepN'
p345
I2
sg20
S'Y'
sg31
g32
sS'.thisTrialN'
p346
I5
sS'.thisN'
p347
I35
sS'.thisIndex'
p348
I7
sg15
(lp349
S'd'
asg30
VM
sg17
S'Y'
sg14
I1
sg19
Nsg94
I7
sa(dp350
g16
(lp351
S'd'
asg18
S'N'
sS'.thisRepN'
p352
I2
sg20
S'Y'
sg31
g32
sS'.thisTrialN'
p353
I6
sS'.thisN'
p354
I36
sS'.thisIndex'
p355
I3
sg15
(lp356
S'd'
asg30
VM
sg17
S'Y'
sg14
I1
sg19
Nsg94
I3
sa(dp357
g16
(lp358
S'k'
asg18
S'Y'
sS'.thisRepN'
p359
I2
sg20
S'Y'
sg31
g32
sS'.thisTrialN'
p360
I7
sS'.thisN'
p361
I37
sS'.thisIndex'
p362
I12
sg15
(lp363
S'k'
asg30
VM
sg17
S'Y'
sg14
I1
sg19
(lp364
S'space'
p365
asg94
I12
sa(dp366
g16
(lp367
S'k'
asg18
S'Y'
sS'.thisRepN'
p368
I2
sg20
S'N'
sg31
g32
sS'.thisTrialN'
p369
I8
sS'.thisN'
p370
I38
sS'.thisIndex'
p371
I0
sg15
(lp372
S'k'
asg30
VM
sg17
S'Y'
sg14
I1
sg19
Nsg94
I0
sa(dp373
g16
(lp374
S'd'
asg18
S'Y'
sS'.thisRepN'
p375
I2
sg20
S'N'
sg31
g32
sS'.thisTrialN'
p376
I9
sS'.thisN'
p377
I39
sS'.thisIndex'
p378
I5
sg15
(lp379
S'd'
asg30
VM
sg17
S'Y'
sg14
I1
sg19
Nsg94
I5
sa(dp380
g16
(lp381
S'k'
asg18
S'N'
sS'.thisRepN'
p382
I2
sg20
S'Y'
sg31
g32
sS'.thisTrialN'
p383
I10
sS'.thisN'
p384
I40
sS'.thisIndex'
p385
I12
sg15
(lp386
S'k'
asg30
VM
sg17
S'Y'
sg14
I1
sg19
Nsg94
I12
sa(dp387
g16
(lp388
S'k'
asg18
S'N'
sS'.thisRepN'
p389
I2
sg20
S'Y'
sg31
g32
sS'.thisTrialN'
p390
I11
sS'.thisN'
p391
I41
sS'.thisIndex'
p392
I12
sg15
(lp393
S'k'
asg30
VM
sg17
S'Y'
sg14
I1
sg19
Nsg94
I12
sa(dp394
g16
(lp395
S'd'
asg18
S'N'
sS'.thisRepN'
p396
I2
sg20
S'Y'
sg31
g32
sS'.thisTrialN'
p397
I12
sS'.thisN'
p398
I42
sS'.thisIndex'
p399
I6
sg15
(lp400
S'd'
asg30
VM
sg17
S'Y'
sg14
I1
sg19
Nsg94
I6
sa(dp401
g16
(lp402
S'd'
asg18
S'Y'
sS'.thisRepN'
p403
I2
sg20
S'N'
sg31
g32
sS'.thisTrialN'
p404
I13
sS'.thisN'
p405
I43
sS'.thisIndex'
p406
I7
sg15
(lp407
S'd'
asg30
VM
sg17
S'Y'
sg14
I1
sg19
Nsg94
I7
sa(dp408
g16
(lp409
S'k'
asg18
S'N'
sS'.thisRepN'
p410
I2
sg20
S'Y'
sg31
g32
sS'.thisTrialN'
p411
I14
sS'.thisN'
p412
I44
sS'.thisIndex'
p413
I11
sg15
(lp414
S'k'
asg30
VM
sg17
S'Y'
sg14
I1
sg19
Nsg94
I11
sa(dp415
g16
(lp416
S'd'
asg18
S'N'
sS'.thisRepN'
p417
I3
sg20
S'Y'
sg31
g32
sS'.thisTrialN'
p418
I0
sS'.thisN'
p419
I45
sS'.thisIndex'
p420
I7
sg15
(lp421
S'k'
asg30
VM
sg17
S'N'
sg14
I1
sg19
Nsg94
I7
sa(dp422
g16
(lp423
S'd'
asg18
S'N'
sS'.thisRepN'
p424
I3
sg20
S'Y'
sg31
g32
sS'.thisTrialN'
p425
I1
sS'.thisN'
p426
I46
sS'.thisIndex'
p427
I1
sg15
(lp428
S'd'
asg30
VM
sg17
S'Y'
sg14
I1
sg19
Nsg94
I1
sa(dp429
g16
(lp430
S'd'
asg18
S'N'
sS'.thisRepN'
p431
I3
sg20
S'Y'
sg31
g32
sS'.thisTrialN'
p432
I2
sS'.thisN'
p433
I47
sS'.thisIndex'
p434
I12
sg15
(lp435
S'd'
asg30
VM
sg17
S'Y'
sg14
I1
sg19
Nsg94
I12
sa(dp436
g16
(lp437
S'k'
asg18
S'Y'
sS'.thisRepN'
p438
I3
sg20
S'Y'
sg31
g32
sS'.thisTrialN'
p439
I3
sS'.thisN'
p440
I48
sS'.thisIndex'
p441
I0
sg15
(lp442
S'k'
asg30
VM
sg17
S'Y'
sg14
I1
sg19
(lp443
S'space'
p444
asg94
I0
sa(dp445
g16
(lp446
S'd'
asg18
S'Y'
sg22
I30
sS'.thisN'
p447
I49
sg20
S'N'
sg31
g32
sS'.thisTrialN'
p448
I4
sS'.thisRepN'
p449
I3
sg21
I43
sS'.thisIndex'
p450
I2
sg23
I23
sg15
(lp451
S'd'
asg30
VM
sg17
S'Y'
sg14
I1
sg19
Nsg94
I2
sa(dp452
g16
(lp453
S'd'
asg94
I10
sS'.thisRepN'
p454
I3
sg30
VM
sg31
g32
sS'.thisTrialN'
p455
I5
sS'.thisN'
p456
I50
sS'.thisIndex'
p457
I10
sg15
(lp458
S'd'
asg17
S'Y'
sg14
I2
sa(dp459
g16
(lp460
S'd'
asg94
I14
sS'.thisRepN'
p461
I3
sg30
VM
sg31
g32
sS'.thisTrialN'
p462
I6
sS'.thisN'
p463
I51
sS'.thisIndex'
p464
I14
sg15
(lp465
S'd'
asg17
S'Y'
sg14
I2
sa(dp466
g16
(lp467
S'd'
asg18
S'N'
sS'.thisRepN'
p468
I3
sg20
S'Y'
sg31
g32
sS'.thisTrialN'
p469
I7
sS'.thisN'
p470
I52
sS'.thisIndex'
p471
I12
sg15
(lp472
S'd'
asg30
VM
sg17
S'Y'
sg14
I2
sg19
Nsg94
I12
sa(dp473
g16
(lp474
S'd'
asg18
S'Y'
sS'.thisRepN'
p475
I3
sg20
S'Y'
sg31
g32
sS'.thisTrialN'
p476
I8
sS'.thisN'
p477
I53
sS'.thisIndex'
p478
I5
sg15
(lp479
S'd'
asg30
VM
sg17
S'Y'
sg14
I2
sg19
(lp480
S'space'
p481
asg94
I5
sa(dp482
g16
(lp483
S'd'
asg18
S'N'
sS'.thisRepN'
p484
I3
sg20
S'Y'
sg31
g32
sS'.thisTrialN'
p485
I9
sS'.thisN'
p486
I54
sS'.thisIndex'
p487
I3
sg15
(lp488
S'd'
asg30
VM
sg17
S'Y'
sg14
I2
sg19
Nsg94
I3
sa(dp489
g16
(lp490
S'k'
asg18
S'N'
sS'.thisRepN'
p491
I3
sg20
S'Y'
sg31
g32
sS'.thisTrialN'
p492
I10
sS'.thisN'
p493
I55
sS'.thisIndex'
p494
I1
sg15
(lp495
S'k'
asg30
VM
sg17
S'Y'
sg14
I2
sg19
Nsg94
I1
sa(dp496
g16
(lp497
S'd'
asg18
S'N'
sS'.thisRepN'
p498
I3
sg20
S'N'
sg31
g32
sS'.thisTrialN'
p499
I11
sS'.thisN'
p500
I56
sS'.thisIndex'
p501
I12
sg15
(lp502
S'k'
asg30
VM
sg17
S'N'
sg14
I2
sg19
(lp503
S'space'
p504
asg94
I12
sa(dp505
g16
(lp506
S'd'
asg18
S'Y'
sS'.thisRepN'
p507
I3
sg20
S'N'
sg31
g32
sS'.thisTrialN'
p508
I12
sS'.thisN'
p509
I57
sS'.thisIndex'
p510
I9
sg15
(lp511
S'd'
asg30
VM
sg17
S'Y'
sg14
I2
sg19
Nsg94
I9
sa(dp512
g16
(lp513
S'k'
asg18
S'N'
sS'.thisRepN'
p514
I3
sg20
S'Y'
sg31
g32
sS'.thisTrialN'
p515
I13
sS'.thisN'
p516
I58
sS'.thisIndex'
p517
I9
sg15
(lp518
S'd'
asg30
VM
sg17
S'N'
sg14
I2
sg19
Nsg94
I9
sa(dp519
g16
(lp520
S'k'
asg18
S'N'
sS'.thisRepN'
p521
I3
sg20
S'Y'
sg31
g32
sS'.thisTrialN'
p522
I14
sS'.thisN'
p523
I59
sS'.thisIndex'
p524
I0
sg15
(lp525
S'k'
asg30
VM
sg17
S'Y'
sg14
I2
sg19
Nsg94
I0
sa(dp526
g16
(lp527
S'k'
asg18
S'N'
sS'.thisRepN'
p528
I4
sg20
S'Y'
sg31
g32
sS'.thisTrialN'
p529
I0
sS'.thisN'
p530
I60
sS'.thisIndex'
p531
I13
sg15
(lp532
S'k'
asg30
VM
sg17
S'Y'
sg14
I2
sg19
Nsg94
I13
sa(dp533
g16
(lp534
S'd'
asg18
S'Y'
sS'.thisRepN'
p535
I4
sg20
S'N'
sg31
g32
sS'.thisTrialN'
p536
I1
sS'.thisN'
p537
I61
sS'.thisIndex'
p538
I6
sg15
(lp539
S'd'
asg30
VM
sg17
S'Y'
sg14
I2
sg19
Nsg94
I6
sa(dp540
g16
(lp541
S'k'
asg18
S'N'
sS'.thisRepN'
p542
I4
sg20
S'Y'
sg31
g32
sS'.thisTrialN'
p543
I2
sS'.thisN'
p544
I62
sS'.thisIndex'
p545
I10
sg15
(lp546
S'k'
asg30
VM
sg17
S'Y'
sg14
I2
sg19
Nsg94
I10
sa(dp547
g16
(lp548
S'd'
asg18
S'N'
sS'.thisRepN'
p549
I4
sg20
S'Y'
sg31
g32
sS'.thisTrialN'
p550
I3
sS'.thisN'
p551
I63
sS'.thisIndex'
p552
I6
sg15
(lp553
S'd'
asg30
VM
sg17
S'Y'
sg14
I2
sg19
Nsg94
I6
sa(dp554
g16
(lp555
S'd'
asg18
S'Y'
sS'.thisRepN'
p556
I4
sg20
S'Y'
sg31
g32
sS'.thisTrialN'
p557
I4
sS'.thisN'
p558
I64
sS'.thisIndex'
p559
I12
sg15
(lp560
S'd'
asg30
VM
sg17
S'Y'
sg14
I2
sg19
(lp561
S'space'
p562
asg94
I12
sa(dp563
g16
(lp564
S'd'
asg18
S'Y'
sS'.thisRepN'
p565
I4
sg20
S'N'
sg31
g32
sS'.thisTrialN'
p566
I5
sS'.thisN'
p567
I65
sS'.thisIndex'
p568
I2
sg15
(lp569
S'd'
asg30
VM
sg17
S'Y'
sg14
I2
sg19
Nsg94
I2
sa(dp570
g16
(lp571
S'k'
asg18
S'Y'
sS'.thisRepN'
p572
I4
sg20
S'N'
sg31
g32
sS'.thisTrialN'
p573
I6
sS'.thisN'
p574
I66
sS'.thisIndex'
p575
I3
sg15
(lp576
S'k'
asg30
VM
sg17
S'Y'
sg14
I2
sg19
Nsg94
I3
sa(dp577
g16
(lp578
S'd'
asg18
S'Y'
sS'.thisRepN'
p579
I4
sg20
S'N'
sg31
g32
sS'.thisTrialN'
p580
I7
sS'.thisN'
p581
I67
sS'.thisIndex'
p582
I7
sg15
(lp583
S'd'
asg30
VM
sg17
S'Y'
sg14
I2
sg19
Nsg94
I7
sa(dp584
g16
(lp585
S'k'
asg18
S'Y'
sS'.thisRepN'
p586
I4
sg20
S'N'
sg31
g32
sS'.thisTrialN'
p587
I8
sS'.thisN'
p588
I68
sS'.thisIndex'
p589
I5
sg15
(lp590
S'k'
asg30
VM
sg17
S'Y'
sg14
I2
sg19
Nsg94
I5
sa(dp591
g16
(lp592
S'k'
asg18
S'Y'
sS'.thisRepN'
p593
I4
sg20
S'Y'
sg31
g32
sS'.thisTrialN'
p594
I9
sS'.thisN'
p595
I69
sS'.thisIndex'
p596
I5
sg15
(lp597
S'k'
asg30
VM
sg17
S'Y'
sg14
I2
sg19
(lp598
S'space'
p599
asg94
I5
sa(dp600
g16
(lp601
S'd'
asg18
S'Y'
sS'.thisRepN'
p602
I4
sg20
S'N'
sg31
g32
sS'.thisTrialN'
p603
I10
sS'.thisN'
p604
I70
sS'.thisIndex'
p605
I3
sg15
(lp606
S'k'
asg30
VM
sg17
S'N'
sg14
I2
sg19
Nsg94
I3
sa(dp607
g16
(lp608
S'k'
asg18
S'Y'
sS'.thisRepN'
p609
I4
sg20
S'Y'
sg31
g32
sS'.thisTrialN'
p610
I11
sS'.thisN'
p611
I71
sS'.thisIndex'
p612
I12
sg15
(lp613
S'd'
asg30
VM
sg17
S'N'
sg14
I2
sg19
(lp614
S'space'
p615
asg94
I12
sa(dp616
g16
(lp617
S'k'
asg18
S'N'
sS'.thisRepN'
p618
I4
sg20
S'Y'
sg31
g32
sS'.thisTrialN'
p619
I12
sS'.thisN'
p620
I72
sS'.thisIndex'
p621
I7
sg15
(lp622
S'k'
asg30
VM
sg17
S'Y'
sg14
I2
sg19
Nsg94
I7
sa(dp623
g16
(lp624
S'k'
asg18
S'Y'
sS'.thisRepN'
p625
I4
sg20
S'N'
sg31
g32
sS'.thisTrialN'
p626
I13
sS'.thisN'
p627
I73
sS'.thisIndex'
p628
I1
sg15
(lp629
S'k'
asg30
VM
sg17
S'Y'
sg14
I2
sg19
Nsg94
I1
sa(dp630
g16
(lp631
S'k'
asg18
S'Y'
sS'.thisRepN'
p632
I4
sg20
S'N'
sg31
g32
sS'.thisTrialN'
p633
I14
sS'.thisN'
p634
I74
sS'.thisIndex'
p635
I5
sg15
(lp636
S'k'
asg30
VM
sg17
S'Y'
sg14
I2
sg19
Nsg94
I5
sa(dp637
g16
(lp638
S'k'
asg18
S'Y'
sS'.thisRepN'
p639
I5
sg20
S'N'
sg31
g32
sS'.thisTrialN'
p640
I0
sS'.thisN'
p641
I75
sS'.thisIndex'
p642
I14
sg15
(lp643
S'd'
asg30
VM
sg17
S'N'
sg14
I2
sg19
Nsg94
I14
sa(dp644
g16
(lp645
S'd'
asg18
S'N'
sS'.thisRepN'
p646
I5
sg20
S'Y'
sg31
g32
sS'.thisTrialN'
p647
I1
sS'.thisN'
p648
I76
sS'.thisIndex'
p649
I11
sg15
(lp650
S'd'
asg30
VM
sg17
S'Y'
sg14
I2
sg19
Nsg94
I11
sa(dp651
g16
(lp652
S'k'
asg18
S'N'
sS'.thisRepN'
p653
I5
sg20
S'Y'
sg31
g32
sS'.thisTrialN'
p654
I2
sS'.thisN'
p655
I77
sS'.thisIndex'
p656
I2
sg15
(lp657
S'd'
asg30
VM
sg17
S'N'
sg14
I2
sg19
Nsg94
I2
sa(dp658
g16
(lp659
S'k'
asg18
S'N'
sS'.thisRepN'
p660
I5
sg20
S'Y'
sg31
g32
sS'.thisTrialN'
p661
I3
sS'.thisN'
p662
I78
sS'.thisIndex'
p663
I8
sg15
(lp664
S'k'
asg30
VM
sg17
S'Y'
sg14
I2
sg19
Nsg94
I8
sa(dp665
g16
(lp666
S'k'
asg18
S'Y'
sS'.thisRepN'
p667
I5
sg20
S'N'
sg31
g32
sS'.thisTrialN'
p668
I4
sS'.thisN'
p669
I79
sS'.thisIndex'
p670
I0
sg15
(lp671
S'k'
asg30
VM
sg17
S'Y'
sg14
I2
sg19
Nsg94
I0
sa(dp672
g16
(lp673
S'k'
asg18
S'Y'
sS'.thisRepN'
p674
I5
sg20
S'Y'
sg31
g32
sS'.thisTrialN'
p675
I5
sS'.thisN'
p676
I80
sS'.thisIndex'
p677
I8
sg15
(lp678
S'd'
asg30
VM
sg17
S'N'
sg14
I2
sg19
(lp679
S'space'
p680
asg94
I8
sa(dp681
g16
(lp682
S'd'
asg18
S'N'
sS'.thisRepN'
p683
I5
sg20
S'Y'
sg31
g32
sS'.thisTrialN'
p684
I6
sS'.thisN'
p685
I81
sS'.thisIndex'
p686
I14
sg15
(lp687
S'd'
asg30
VM
sg17
S'Y'
sg14
I2
sg19
Nsg94
I14
sa(dp688
g16
(lp689
S'd'
asg18
S'Y'
sS'.thisRepN'
p690
I5
sg20
S'N'
sg31
g32
sS'.thisTrialN'
p691
I7
sS'.thisN'
p692
I82
sS'.thisIndex'
p693
I1
sg15
(lp694
S'k'
asg30
VM
sg17
S'N'
sg14
I2
sg19
Nsg94
I1
sa(dp695
g16
(lp696
S'k'
asg18
S'Y'
sS'.thisRepN'
p697
I5
sg20
S'N'
sg31
g32
sS'.thisTrialN'
p698
I8
sS'.thisN'
p699
I83
sS'.thisIndex'
p700
I6
sg15
(lp701
S'k'
asg30
VM
sg17
S'Y'
sg14
I2
sg19
Nsg94
I6
sa(dp702
g16
(lp703
S'd'
asg18
S'Y'
sS'.thisRepN'
p704
I5
sg20
S'N'
sg31
g32
sS'.thisTrialN'
p705
I9
sS'.thisN'
p706
I84
sS'.thisIndex'
p707
I8
sg15
(lp708
S'd'
asg30
VM
sg17
S'Y'
sg14
I2
sg19
Nsg94
I8
sa(dp709
g16
(lp710
S'k'
asg18
S'N'
sS'.thisRepN'
p711
I5
sg20
S'Y'
sg31
g32
sS'.thisTrialN'
p712
I10
sS'.thisN'
p713
I85
sS'.thisIndex'
p714
I4
sg15
(lp715
S'k'
asg30
VM
sg17
S'Y'
sg14
I2
sg19
Nsg94
I4
sa(dp716
g16
(lp717
S'd'
asg18
S'N'
sS'.thisRepN'
p718
I5
sg20
S'Y'
sg31
g32
sS'.thisTrialN'
p719
I11
sS'.thisN'
p720
I86
sS'.thisIndex'
p721
I7
sg15
(lp722
S'd'
asg30
VM
sg17
S'Y'
sg14
I2
sg19
Nsg94
I7
sa(dp723
g16
(lp724
S'k'
asg18
S'Y'
sS'.thisRepN'
p725
I5
sg20
S'N'
sg31
g32
sS'.thisTrialN'
p726
I12
sS'.thisN'
p727
I87
sS'.thisIndex'
p728
I5
sg15
(lp729
S'k'
asg30
VM
sg17
S'Y'
sg14
I2
sg19
Nsg94
I5
sa(dp730
g16
(lp731
S'k'
asg18
S'N'
sS'.thisRepN'
p732
I5
sg20
S'Y'
sg31
g32
sS'.thisTrialN'
p733
I13
sS'.thisN'
p734
I88
sS'.thisIndex'
p735
I10
sg15
(lp736
S'k'
asg30
VM
sg17
S'Y'
sg14
I2
sg19
Nsg94
I10
sa(dp737
g16
(lp738
S'd'
asg18
S'N'
sS'.thisRepN'
p739
I5
sg20
S'Y'
sg31
g32
sS'.thisTrialN'
p740
I14
sS'.thisN'
p741
I89
sS'.thisIndex'
p742
I2
sg15
(lp743
S'k'
asg30
VM
sg17
S'N'
sg14
I2
sg19
Nsg94
I2
sa(dp744
g16
(lp745
S'k'
asg18
S'Y'
sS'.thisRepN'
p746
I6
sg20
S'N'
sg31
g32
sS'.thisTrialN'
p747
I0
sS'.thisN'
p748
I90
sS'.thisIndex'
p749
I0
sg15
(lp750
S'k'
asg30
VM
sg17
S'Y'
sg14
I2
sg19
Nsg94
I0
sa(dp751
g16
(lp752
S'k'
asg18
S'Y'
sS'.thisRepN'
p753
I6
sg20
S'Y'
sg31
g32
sS'.thisTrialN'
p754
I1
sS'.thisN'
p755
I91
sS'.thisIndex'
p756
I6
sg15
(lp757
S'k'
asg30
VM
sg17
S'Y'
sg14
I2
sg19
(lp758
S'space'
p759
asg94
I6
sa(dp760
g16
(lp761
S'k'
asg18
S'Y'
sS'.thisRepN'
p762
I6
sg20
S'N'
sg31
g32
sS'.thisTrialN'
p763
I2
sS'.thisN'
p764
I92
sS'.thisIndex'
p765
I7
sg15
(lp766
S'k'
asg30
VM
sg17
S'Y'
sg14
I2
sg19
Nsg94
I7
sa(dp767
g16
(lp768
S'k'
asg18
S'N'
sS'.thisRepN'
p769
I6
sg20
S'Y'
sg31
g32
sS'.thisTrialN'
p770
I3
sS'.thisN'
p771
I93
sS'.thisIndex'
p772
I13
sg15
(lp773
S'k'
asg30
VM
sg17
S'Y'
sg14
I2
sg19
Nsg94
I13
sa(dp774
g16
(lp775
S'k'
asg18
S'Y'
sS'.thisRepN'
p776
I6
sg20
S'N'
sg31
g32
sS'.thisTrialN'
p777
I4
sS'.thisN'
p778
I94
sS'.thisIndex'
p779
I2
sg15
(lp780
S'k'
asg30
VM
sg17
S'Y'
sg14
I2
sg19
Nsg94
I2
sa(dp781
g16
(lp782
S'd'
asg18
S'N'
sS'.thisRepN'
p783
I6
sg20
S'Y'
sg31
g32
sS'.thisTrialN'
p784
I5
sS'.thisN'
p785
I95
sS'.thisIndex'
p786
I4
sg15
(lp787
S'd'
asg30
VM
sg17
S'Y'
sg14
I2
sg19
Nsg94
I4
sa(dp788
g16
(lp789
S'd'
asg18
S'Y'
sS'.thisRepN'
p790
I6
sg20
S'N'
sg31
g32
sS'.thisTrialN'
p791
I6
sS'.thisN'
p792
I96
sS'.thisIndex'
p793
I14
sg15
(lp794
S'd'
asg30
VM
sg17
S'Y'
sg14
I2
sg19
Nsg94
I14
sa(dp795
g16
(lp796
S'k'
asg18
S'N'
sS'.thisRepN'
p797
I6
sg20
S'Y'
sg31
g32
sS'.thisTrialN'
p798
I7
sS'.thisN'
p799
I97
sS'.thisIndex'
p800
I11
sg15
(lp801
S'k'
asg30
VM
sg17
S'Y'
sg14
I2
sg19
Nsg94
I11
sa(dp802
g16
(lp803
S'k'
asg18
S'N'
sS'.thisRepN'
p804
I6
sg20
S'Y'
sg31
g32
sS'.thisTrialN'
p805
I8
sS'.thisN'
p806
I98
sS'.thisIndex'
p807
I7
sg15
(lp808
S'k'
asg30
VM
sg17
S'Y'
sg14
I2
sg19
Nsg94
I7
sa(dp809
g16
(lp810
S'd'
asg18
S'N'
sg22
I28
sS'.thisN'
p811
I99
sg20
S'Y'
sg31
g32
sS'.thisTrialN'
p812
I9
sS'.thisRepN'
p813
I6
sg21
I41
sS'.thisIndex'
p814
I11
sg23
I25
sg15
(lp815
S'd'
asg30
VM
sg17
S'Y'
sg14
I2
sg19
Nsg94
I11
sa(dp816
g16
(lp817
S'd'
asg94
I4
sS'.thisRepN'
p818
I6
sg30
VM
sg31
g32
sS'.thisTrialN'
p819
I10
sS'.thisN'
p820
I100
sS'.thisIndex'
p821
I4
sg15
(lp822
S'k'
asg17
S'N'
sg14
I3
sa(dp823
g16
(lp824
S'k'
asg94
I0
sS'.thisRepN'
p825
I6
sg30
VM
sg31
g32
sS'.thisTrialN'
p826
I11
sS'.thisN'
p827
I101
sS'.thisIndex'
p828
I0
sg15
(lp829
S'k'
asg17
S'Y'
sg14
I3
sa(dp830
g16
(lp831
S'd'
asg18
S'Y'
sS'.thisRepN'
p832
I6
sg20
S'Y'
sg31
g32
sS'.thisTrialN'
p833
I12
sS'.thisN'
p834
I102
sS'.thisIndex'
p835
I14
sg15
(lp836
S'd'
asg30
VM
sg17
S'Y'
sg14
I3
sg19
(lp837
S'space'
p838
asg94
I14
sa(dp839
g16
(lp840
S'k'
asg18
S'Y'
sS'.thisRepN'
p841
I6
sg20
S'Y'
sg31
g32
sS'.thisTrialN'
p842
I13
sS'.thisN'
p843
I103
sS'.thisIndex'
p844
I14
sg15
(lp845
S'k'
asg30
VM
sg17
S'Y'
sg14
I3
sg19
(lp846
S'space'
p847
asg94
I14
sa(dp848
g16
(lp849
S'k'
asg18
S'N'
sS'.thisRepN'
p850
I6
sg20
S'Y'
sg31
g32
sS'.thisTrialN'
p851
I14
sS'.thisN'
p852
I104
sS'.thisIndex'
p853
I2
sg15
(lp854
S'k'
asg30
VM
sg17
S'Y'
sg14
I3
sg19
Nsg94
I2
sa(dp855
g16
(lp856
S'd'
asg18
S'Y'
sS'.thisRepN'
p857
I7
sg20
S'Y'
sg31
g32
sS'.thisTrialN'
p858
I0
sS'.thisN'
p859
I105
sS'.thisIndex'
p860
I2
sg15
(lp861
S'd'
asg30
VM
sg17
S'Y'
sg14
I3
sg19
(lp862
S'space'
p863
asg94
I2
sa(dp864
g16
(lp865
S'd'
asg18
S'N'
sS'.thisRepN'
p866
I7
sg20
S'Y'
sg31
g32
sS'.thisTrialN'
p867
I1
sS'.thisN'
p868
I106
sS'.thisIndex'
p869
I9
sg15
(lp870
S'd'
asg30
VM
sg17
S'Y'
sg14
I3
sg19
Nsg94
I9
sa(dp871
g16
(lp872
S'k'
asg18
S'N'
sS'.thisRepN'
p873
I7
sg20
S'Y'
sg31
g32
sS'.thisTrialN'
p874
I2
sS'.thisN'
p875
I107
sS'.thisIndex'
p876
I12
sg15
(lp877
S'k'
asg30
VM
sg17
S'Y'
sg14
I3
sg19
Nsg94
I12
sa(dp878
g16
(lp879
S'k'
asg18
S'Y'
sS'.thisRepN'
p880
I7
sg20
S'N'
sg31
g32
sS'.thisTrialN'
p881
I3
sS'.thisN'
p882
I108
sS'.thisIndex'
p883
I6
sg15
(lp884
S'k'
asg30
VM
sg17
S'Y'
sg14
I3
sg19
Nsg94
I6
sa(dp885
g16
(lp886
S'd'
asg18
S'Y'
sS'.thisRepN'
p887
I7
sg20
S'N'
sg31
g32
sS'.thisTrialN'
p888
I4
sS'.thisN'
p889
I109
sS'.thisIndex'
p890
I13
sg15
(lp891
S'd'
asg30
VM
sg17
S'Y'
sg14
I3
sg19
Nsg94
I13
sa(dp892
g16
(lp893
S'k'
asg18
S'Y'
sS'.thisRepN'
p894
I7
sg20
S'N'
sg31
g32
sS'.thisTrialN'
p895
I5
sS'.thisN'
p896
I110
sS'.thisIndex'
p897
I6
sg15
(lp898
S'k'
asg30
VM
sg17
S'Y'
sg14
I3
sg19
Nsg94
I6
sa(dp899
g16
(lp900
S'k'
asg18
S'Y'
sS'.thisRepN'
p901
I7
sg20
S'Y'
sg31
g32
sS'.thisTrialN'
p902
I6
sS'.thisN'
p903
I111
sS'.thisIndex'
p904
I8
sg15
(lp905
S'k'
asg30
VM
sg17
S'Y'
sg14
I3
sg19
(lp906
S'space'
p907
asg94
I8
sa(dp908
g16
(lp909
S'k'
asg18
S'Y'
sS'.thisRepN'
p910
I7
sg20
S'N'
sg31
g32
sS'.thisTrialN'
p911
I7
sS'.thisN'
p912
I112
sS'.thisIndex'
p913
I0
sg15
(lp914
S'k'
asg30
VM
sg17
S'Y'
sg14
I3
sg19
Nsg94
I0
sa(dp915
g16
(lp916
S'd'
asg18
S'N'
sS'.thisRepN'
p917
I7
sg20
S'Y'
sg31
g32
sS'.thisTrialN'
p918
I8
sS'.thisN'
p919
I113
sS'.thisIndex'
p920
I14
sg15
(lp921
S'd'
asg30
VM
sg17
S'Y'
sg14
I3
sg19
Nsg94
I14
sa(dp922
g16
(lp923
S'd'
asg18
S'Y'
sS'.thisRepN'
p924
I7
sg20
S'Y'
sg31
g32
sS'.thisTrialN'
p925
I9
sS'.thisN'
p926
I114
sS'.thisIndex'
p927
I8
sg15
(lp928
S'd'
asg30
VM
sg17
S'Y'
sg14
I3
sg19
(lp929
S'space'
p930
asg94
I8
sa(dp931
g16
(lp932
S'd'
asg18
S'Y'
sS'.thisRepN'
p933
I7
sg20
S'Y'
sg31
g32
sS'.thisTrialN'
p934
I10
sS'.thisN'
p935
I115
sS'.thisIndex'
p936
I6
sg15
(lp937
S'd'
asg30
VM
sg17
S'Y'
sg14
I3
sg19
(lp938
S'space'
p939
asg94
I6
sa(dp940
g16
(lp941
S'k'
asg18
S'N'
sS'.thisRepN'
p942
I7
sg20
S'Y'
sg31
g32
sS'.thisTrialN'
p943
I11
sS'.thisN'
p944
I116
sS'.thisIndex'
p945
I13
sg15
(lp946
S'k'
asg30
VM
sg17
S'Y'
sg14
I3
sg19
Nsg94
I13
sa(dp947
g16
(lp948
S'd'
asg18
S'Y'
sS'.thisRepN'
p949
I7
sg20
S'Y'
sg31
g32
sS'.thisTrialN'
p950
I12
sS'.thisN'
p951
I117
sS'.thisIndex'
p952
I3
sg15
(lp953
S'd'
asg30
VM
sg17
S'Y'
sg14
I3
sg19
(lp954
S'space'
p955
asg94
I3
sa(dp956
g16
(lp957
S'k'
asg18
S'Y'
sS'.thisRepN'
p958
I7
sg20
S'N'
sg31
g32
sS'.thisTrialN'
p959
I13
sS'.thisN'
p960
I118
sS'.thisIndex'
p961
I7
sg15
(lp962
S'k'
asg30
VM
sg17
S'Y'
sg14
I3
sg19
Nsg94
I7
sa(dp963
g16
(lp964
S'd'
asg18
S'N'
sS'.thisRepN'
p965
I7
sg20
S'Y'
sg31
g32
sS'.thisTrialN'
p966
I14
sS'.thisN'
p967
I119
sS'.thisIndex'
p968
I4
sg15
(lp969
S'd'
asg30
VM
sg17
S'Y'
sg14
I3
sg19
Nsg94
I4
sa(dp970
g16
(lp971
S'd'
asg18
S'N'
sS'.thisRepN'
p972
I8
sg20
S'Y'
sg31
g32
sS'.thisTrialN'
p973
I0
sS'.thisN'
p974
I120
sS'.thisIndex'
p975
I13
sg15
(lp976
S'd'
asg30
VM
sg17
S'Y'
sg14
I3
sg19
Nsg94
I13
sa(dp977
g16
(lp978
S'k'
asg18
S'N'
sS'.thisRepN'
p979
I8
sg20
S'Y'
sg31
g32
sS'.thisTrialN'
p980
I1
sS'.thisN'
p981
I121
sS'.thisIndex'
p982
I11
sg15
(lp983
S'd'
asg30
VM
sg17
S'N'
sg14
I3
sg19
Nsg94
I11
sa(dp984
g16
(lp985
S'k'
asg18
S'Y'
sS'.thisRepN'
p986
I8
sg20
S'Y'
sg31
g32
sS'.thisTrialN'
p987
I2
sS'.thisN'
p988
I122
sS'.thisIndex'
p989
I2
sg15
(lp990
S'k'
asg30
VM
sg17
S'Y'
sg14
I3
sg19
(lp991
S'space'
p992
asg94
I2
sa(dp993
g16
(lp994
S'd'
asg18
S'Y'
sS'.thisRepN'
p995
I8
sg20
S'N'
sg31
g32
sS'.thisTrialN'
p996
I3
sS'.thisN'
p997
I123
sS'.thisIndex'
p998
I6
sg15
(lp999
S'd'
asg30
VM
sg17
S'Y'
sg14
I3
sg19
Nsg94
I6
sa(dp1000
g16
(lp1001
S'd'
asg18
S'N'
sS'.thisRepN'
p1002
I8
sg20
S'Y'
sg31
g32
sS'.thisTrialN'
p1003
I4
sS'.thisN'
p1004
I124
sS'.thisIndex'
p1005
I4
sg15
(lp1006
S'k'
asg30
VM
sg17
S'N'
sg14
I3
sg19
Nsg94
I4
sa(dp1007
g16
(lp1008
S'd'
asg18
S'Y'
sS'.thisRepN'
p1009
I8
sg20
S'Y'
sg31
g32
sS'.thisTrialN'
p1010
I5
sS'.thisN'
p1011
I125
sS'.thisIndex'
p1012
I11
sg15
(lp1013
S'd'
asg30
VM
sg17
S'Y'
sg14
I3
sg19
(lp1014
S'space'
p1015
asg94
I11
sa(dp1016
g16
(lp1017
S'k'
asg18
S'Y'
sS'.thisRepN'
p1018
I8
sg20
S'N'
sg31
g32
sS'.thisTrialN'
p1019
I6
sS'.thisN'
p1020
I126
sS'.thisIndex'
p1021
I7
sg15
(lp1022
S'k'
asg30
VM
sg17
S'Y'
sg14
I3
sg19
Nsg94
I7
sa(dp1023
g16
(lp1024
S'd'
asg18
S'N'
sS'.thisRepN'
p1025
I8
sg20
S'Y'
sg31
g32
sS'.thisTrialN'
p1026
I7
sS'.thisN'
p1027
I127
sS'.thisIndex'
p1028
I3
sg15
(lp1029
S'd'
asg30
VM
sg17
S'Y'
sg14
I3
sg19
Nsg94
I3
sa(dp1030
g16
(lp1031
S'k'
asg18
S'N'
sS'.thisRepN'
p1032
I8
sg20
S'N'
sg31
g32
sS'.thisTrialN'
p1033
I8
sS'.thisN'
p1034
I128
sS'.thisIndex'
p1035
I11
sg15
(lp1036
S'k'
asg30
VM
sg17
S'Y'
sg14
I3
sg19
(lp1037
S'space'
p1038
asg94
I11
sa(dp1039
g16
(lp1040
S'k'
asg18
S'N'
sS'.thisRepN'
p1041
I8
sg20
S'Y'
sg31
g32
sS'.thisTrialN'
p1042
I9
sS'.thisN'
p1043
I129
sS'.thisIndex'
p1044
I10
sg15
(lp1045
S'k'
asg30
VM
sg17
S'Y'
sg14
I3
sg19
Nsg94
I10
sa(dp1046
g16
(lp1047
S'k'
asg18
S'Y'
sS'.thisRepN'
p1048
I8
sg20
S'N'
sg31
g32
sS'.thisTrialN'
p1049
I10
sS'.thisN'
p1050
I130
sS'.thisIndex'
p1051
I9
sg15
(lp1052
S'k'
asg30
VM
sg17
S'Y'
sg14
I3
sg19
Nsg94
I9
sa(dp1053
g16
(lp1054
S'k'
asg18
S'N'
sS'.thisRepN'
p1055
I8
sg20
S'Y'
sg31
g32
sS'.thisTrialN'
p1056
I11
sS'.thisN'
p1057
I131
sS'.thisIndex'
p1058
I10
sg15
(lp1059
S'k'
asg30
VM
sg17
S'Y'
sg14
I3
sg19
Nsg94
I10
sa(dp1060
g16
(lp1061
S'k'
asg18
S'N'
sS'.thisRepN'
p1062
I8
sg20
S'Y'
sg31
g32
sS'.thisTrialN'
p1063
I12
sS'.thisN'
p1064
I132
sS'.thisIndex'
p1065
I14
sg15
(lp1066
S'k'
asg30
VM
sg17
S'Y'
sg14
I3
sg19
Nsg94
I14
sa(dp1067
g16
(lp1068
S'k'
asg18
S'N'
sS'.thisRepN'
p1069
I8
sg20
S'Y'
sg31
g32
sS'.thisTrialN'
p1070
I13
sS'.thisN'
p1071
I133
sS'.thisIndex'
p1072
I8
sg15
(lp1073
S'k'
asg30
VM
sg17
S'Y'
sg14
I3
sg19
Nsg94
I8
sa(dp1074
g16
(lp1075
S'k'
asg18
S'Y'
sS'.thisRepN'
p1076
I8
sg20
S'Y'
sg31
g32
sS'.thisTrialN'
p1077
I14
sS'.thisN'
p1078
I134
sS'.thisIndex'
p1079
I3
sg15
(lp1080
S'k'
asg30
VM
sg17
S'Y'
sg14
I3
sg19
(lp1081
S'space'
p1082
asg94
I3
sa(dp1083
g16
(lp1084
S'k'
asg18
S'N'
sS'.thisRepN'
p1085
I9
sg20
S'Y'
sg31
g32
sS'.thisTrialN'
p1086
I0
sS'.thisN'
p1087
I135
sS'.thisIndex'
p1088
I5
sg15
(lp1089
S'k'
asg30
VM
sg17
S'Y'
sg14
I3
sg19
Nsg94
I5
sa(dp1090
g16
(lp1091
S'k'
asg18
S'Y'
sS'.thisRepN'
p1092
I9
sg20
S'Y'
sg31
g32
sS'.thisTrialN'
p1093
I1
sS'.thisN'
p1094
I136
sS'.thisIndex'
p1095
I13
sg15
(lp1096
S'd'
asg30
VM
sg17
S'N'
sg14
I3
sg19
(lp1097
S'space'
p1098
asg94
I13
sa(dp1099
g16
(lp1100
S'd'
asg18
S'N'
sS'.thisRepN'
p1101
I9
sg20
S'Y'
sg31
g32
sS'.thisTrialN'
p1102
I2
sS'.thisN'
p1103
I137
sS'.thisIndex'
p1104
I6
sg15
(lp1105
S'd'
asg30
VM
sg17
S'Y'
sg14
I3
sg19
Nsg94
I6
sa(dp1106
g16
(lp1107
S'd'
asg18
S'Y'
sS'.thisRepN'
p1108
I9
sg20
S'N'
sg31
g32
sS'.thisTrialN'
p1109
I3
sS'.thisN'
p1110
I138
sS'.thisIndex'
p1111
I6
sg15
(lp1112
S'd'
asg30
VM
sg17
S'Y'
sg14
I3
sg19
Nsg94
I6
sa(dp1113
g16
(lp1114
S'k'
asg18
S'N'
sS'.thisRepN'
p1115
I9
sg20
S'Y'
sg31
g32
sS'.thisTrialN'
p1116
I4
sS'.thisN'
p1117
I139
sS'.thisIndex'
p1118
I9
sg15
(lp1119
S'k'
asg30
VM
sg17
S'Y'
sg14
I3
sg19
Nsg94
I9
sa(dp1120
g16
(lp1121
S'k'
asg18
S'N'
sS'.thisRepN'
p1122
I9
sg20
S'Y'
sg31
g32
sS'.thisTrialN'
p1123
I5
sS'.thisN'
p1124
I140
sS'.thisIndex'
p1125
I13
sg15
(lp1126
S'k'
asg30
VM
sg17
S'Y'
sg14
I3
sg19
Nsg94
I13
sa(dp1127
g16
(lp1128
S'k'
asg18
S'N'
sS'.thisRepN'
p1129
I9
sg20
S'Y'
sg31
g32
sS'.thisTrialN'
p1130
I6
sS'.thisN'
p1131
I141
sS'.thisIndex'
p1132
I4
sg15
(lp1133
S'k'
asg30
VM
sg17
S'Y'
sg14
I3
sg19
Nsg94
I4
sa(dp1134
g16
(lp1135
S'k'
asg18
S'Y'
sS'.thisRepN'
p1136
I9
sg20
S'N'
sg31
g32
sS'.thisTrialN'
p1137
I7
sS'.thisN'
p1138
I142
sS'.thisIndex'
p1139
I8
sg15
(lp1140
S'k'
asg30
VM
sg17
S'Y'
sg14
I3
sg19
Nsg94
I8
sa(dp1141
g16
(lp1142
S'd'
asg18
S'N'
sS'.thisRepN'
p1143
I9
sg20
S'Y'
sg31
g32
sS'.thisTrialN'
p1144
I8
sS'.thisN'
p1145
I143
sS'.thisIndex'
p1146
I9
sg15
(lp1147
S'd'
asg30
VM
sg17
S'Y'
sg14
I3
sg19
Nsg94
I9
sa(dp1148
g16
(lp1149
S'k'
asg18
S'Y'
sS'.thisRepN'
p1150
I9
sg20
S'Y'
sg31
g32
sS'.thisTrialN'
p1151
I9
sS'.thisN'
p1152
I144
sS'.thisIndex'
p1153
I9
sg15
(lp1154
S'k'
asg30
VM
sg17
S'Y'
sg14
I3
sg19
(lp1155
S'space'
p1156
asg94
I9
sa(dp1157
g16
(lp1158
S'd'
asg18
S'Y'
sS'.thisRepN'
p1159
I9
sg20
S'N'
sg31
g32
sS'.thisTrialN'
p1160
I10
sS'.thisN'
p1161
I145
sS'.thisIndex'
p1162
I11
sg15
(lp1163
S'd'
asg30
VM
sg17
S'Y'
sg14
I3
sg19
Nsg94
I11
sa(dp1164
g16
(lp1165
S'd'
asg18
S'N'
sS'.thisRepN'
p1166
I9
sg20
S'Y'
sg31
g32
sS'.thisTrialN'
p1167
I11
sS'.thisN'
p1168
I146
sS'.thisIndex'
p1169
I12
sg15
(lp1170
S'd'
asg30
VM
sg17
S'Y'
sg14
I3
sg19
Nsg94
I12
sa(dp1171
g16
(lp1172
S'd'
asg18
S'N'
sS'.thisRepN'
p1173
I9
sg20
S'Y'
sg31
g32
sS'.thisTrialN'
p1174
I12
sS'.thisN'
p1175
I147
sS'.thisIndex'
p1176
I0
sg15
(lp1177
S'd'
asg30
VM
sg17
S'Y'
sg14
I3
sg19
Nsg94
I0
sa(dp1178
g16
(lp1179
S'k'
asg18
S'N'
sS'.thisRepN'
p1180
I9
sg20
S'N'
sg31
g32
sS'.thisTrialN'
p1181
I13
sS'.thisN'
p1182
I148
sS'.thisIndex'
p1183
I8
sg15
(lp1184
S'k'
asg30
VM
sg17
S'Y'
sg14
I3
sg19
(lp1185
S'space'
p1186
asg94
I8
sa(dp1187
g16
(lp1188
S'k'
asg18
S'Y'
sg22
I34
sS'.thisN'
p1189
I149
sg20
S'N'
sg31
g32
sS'.thisTrialN'
p1190
I14
sS'.thisRepN'
p1191
I9
sg21
I46
sS'.thisIndex'
p1192
I13
sg23
I24
sg15
(lp1193
S'k'
asg30
VM
sg17
S'Y'
sg14
I3
sg19
Nsg94
I13
sa(dp1194
g16
(lp1195
S'k'
asg94
I3
sS'.thisRepN'
p1196
I10
sg30
VM
sg31
g32
sS'.thisTrialN'
p1197
I0
sS'.thisN'
p1198
I150
sS'.thisIndex'
p1199
I3
sg15
(lp1200
S'd'
asg17
S'N'
sg14
I4
sa(dp1201
g16
(lp1202
S'k'
asg94
I6
sS'.thisRepN'
p1203
I10
sg30
VM
sg31
g32
sS'.thisTrialN'
p1204
I1
sS'.thisN'
p1205
I151
sS'.thisIndex'
p1206
I6
sg15
(lp1207
S'k'
asg17
S'Y'
sg14
I4
sa(dp1208
g16
(lp1209
S'd'
asg18
S'N'
sS'.thisRepN'
p1210
I10
sg20
S'Y'
sg31
g32
sS'.thisTrialN'
p1211
I2
sS'.thisN'
p1212
I152
sS'.thisIndex'
p1213
I2
sg15
(lp1214
S'd'
asg30
VM
sg17
S'Y'
sg14
I4
sg19
Nsg94
I2
sa(dp1215
g16
(lp1216
S'd'
asg18
S'N'
sS'.thisRepN'
p1217
I10
sg20
S'Y'
sg31
g32
sS'.thisTrialN'
p1218
I3
sS'.thisN'
p1219
I153
sS'.thisIndex'
p1220
I1
sg15
(lp1221
S'd'
asg30
VM
sg17
S'Y'
sg14
I4
sg19
Nsg94
I1
sa(dp1222
g16
(lp1223
S'd'
asg18
S'N'
sS'.thisRepN'
p1224
I10
sg20
S'Y'
sg31
g32
sS'.thisTrialN'
p1225
I4
sS'.thisN'
p1226
I154
sS'.thisIndex'
p1227
I7
sg15
(lp1228
S'd'
asg30
VM
sg17
S'Y'
sg14
I4
sg19
Nsg94
I7
sa(dp1229
g16
(lp1230
S'd'
asg18
S'N'
sS'.thisRepN'
p1231
I10
sg20
S'Y'
sg31
g32
sS'.thisTrialN'
p1232
I5
sS'.thisN'
p1233
I155
sS'.thisIndex'
p1234
I6
sg15
(lp1235
S'd'
asg30
VM
sg17
S'Y'
sg14
I4
sg19
Nsg94
I6
sa(dp1236
g16
(lp1237
S'd'
asg18
S'Y'
sS'.thisRepN'
p1238
I10
sg20
S'Y'
sg31
g32
sS'.thisTrialN'
p1239
I6
sS'.thisN'
p1240
I156
sS'.thisIndex'
p1241
I6
sg15
(lp1242
S'k'
asg30
VM
sg17
S'N'
sg14
I4
sg19
(lp1243
S'space'
p1244
asg94
I6
sa(dp1245
g16
(lp1246
S'd'
asg18
S'Y'
sS'.thisRepN'
p1247
I10
sg20
S'N'
sg31
g32
sS'.thisTrialN'
p1248
I7
sS'.thisN'
p1249
I157
sS'.thisIndex'
p1250
I3
sg15
(lp1251
S'd'
asg30
VM
sg17
S'Y'
sg14
I4
sg19
Nsg94
I3
sa(dp1252
g16
(lp1253
S'd'
asg18
S'N'
sS'.thisRepN'
p1254
I10
sg20
S'Y'
sg31
g32
sS'.thisTrialN'
p1255
I8
sS'.thisN'
p1256
I158
sS'.thisIndex'
p1257
I9
sg15
(lp1258
S'd'
asg30
VM
sg17
S'Y'
sg14
I4
sg19
Nsg94
I9
sa(dp1259
g16
(lp1260
S'k'
asg18
S'Y'
sS'.thisRepN'
p1261
I10
sg20
S'Y'
sg31
g32
sS'.thisTrialN'
p1262
I9
sS'.thisN'
p1263
I159
sS'.thisIndex'
p1264
I2
sg15
(lp1265
S'k'
asg30
VM
sg17
S'Y'
sg14
I4
sg19
(lp1266
S'space'
p1267
asg94
I2
sa(dp1268
g16
(lp1269
S'k'
asg18
S'N'
sS'.thisRepN'
p1270
I10
sg20
S'Y'
sg31
g32
sS'.thisTrialN'
p1271
I10
sS'.thisN'
p1272
I160
sS'.thisIndex'
p1273
I5
sg15
(lp1274
S'k'
asg30
VM
sg17
S'Y'
sg14
I4
sg19
Nsg94
I5
sa(dp1275
g16
(lp1276
S'k'
asg18
S'Y'
sS'.thisRepN'
p1277
I10
sg20
S'Y'
sg31
g32
sS'.thisTrialN'
p1278
I11
sS'.thisN'
p1279
I161
sS'.thisIndex'
p1280
I3
sg15
(lp1281
S'k'
asg30
VM
sg17
S'Y'
sg14
I4
sg19
(lp1282
S'space'
p1283
asg94
I3
sa(dp1284
g16
(lp1285
S'k'
asg18
S'Y'
sS'.thisRepN'
p1286
I10
sg20
S'N'
sg31
g32
sS'.thisTrialN'
p1287
I12
sS'.thisN'
p1288
I162
sS'.thisIndex'
p1289
I9
sg15
(lp1290
S'd'
asg30
VM
sg17
S'N'
sg14
I4
sg19
Nsg94
I9
sa(dp1291
g16
(lp1292
S'd'
asg18
S'Y'
sS'.thisRepN'
p1293
I10
sg20
S'N'
sg31
g32
sS'.thisTrialN'
p1294
I13
sS'.thisN'
p1295
I163
sS'.thisIndex'
p1296
I3
sg15
(lp1297
S'd'
asg30
VM
sg17
S'Y'
sg14
I4
sg19
Nsg94
I3
sa(dp1298
g16
(lp1299
S'k'
asg18
S'Y'
sS'.thisRepN'
p1300
I10
sg20
S'N'
sg31
g32
sS'.thisTrialN'
p1301
I14
sS'.thisN'
p1302
I164
sS'.thisIndex'
p1303
I7
sg15
(lp1304
S'd'
asg30
VM
sg17
S'N'
sg14
I4
sg19
Nsg94
I7
sa(dp1305
g16
(lp1306
S'k'
asg18
S'N'
sS'.thisRepN'
p1307
I11
sg20
S'Y'
sg31
g32
sS'.thisTrialN'
p1308
I0
sS'.thisN'
p1309
I165
sS'.thisIndex'
p1310
I3
sg15
(lp1311
S'k'
asg30
VM
sg17
S'Y'
sg14
I4
sg19
Nsg94
I3
sa(dp1312
g16
(lp1313
S'k'
asg18
S'N'
sS'.thisRepN'
p1314
I11
sg20
S'Y'
sg31
g32
sS'.thisTrialN'
p1315
I1
sS'.thisN'
p1316
I166
sS'.thisIndex'
p1317
I9
sg15
(lp1318
S'k'
asg30
VM
sg17
S'Y'
sg14
I4
sg19
Nsg94
I9
sa(dp1319
g16
(lp1320
S'k'
asg18
S'N'
sS'.thisRepN'
p1321
I11
sg20
S'Y'
sg31
g32
sS'.thisTrialN'
p1322
I2
sS'.thisN'
p1323
I167
sS'.thisIndex'
p1324
I8
sg15
(lp1325
S'k'
asg30
VM
sg17
S'Y'
sg14
I4
sg19
Nsg94
I8
sa(dp1326
g16
(lp1327
S'k'
asg18
S'Y'
sS'.thisRepN'
p1328
I11
sg20
S'Y'
sg31
g32
sS'.thisTrialN'
p1329
I3
sS'.thisN'
p1330
I168
sS'.thisIndex'
p1331
I13
sg15
(lp1332
S'k'
asg30
VM
sg17
S'Y'
sg14
I4
sg19
(lp1333
S'space'
p1334
asg94
I13
sa(dp1335
g16
(lp1336
S'd'
asg18
S'Y'
sS'.thisRepN'
p1337
I11
sg20
S'N'
sg31
g32
sS'.thisTrialN'
p1338
I4
sS'.thisN'
p1339
I169
sS'.thisIndex'
p1340
I1
sg15
(lp1341
S'd'
asg30
VM
sg17
S'Y'
sg14
I4
sg19
Nsg94
I1
sa(dp1342
g16
(lp1343
S'k'
asg18
S'N'
sS'.thisRepN'
p1344
I11
sg20
S'Y'
sg31
g32
sS'.thisTrialN'
p1345
I5
sS'.thisN'
p1346
I170
sS'.thisIndex'
p1347
I1
sg15
(lp1348
S'k'
asg30
VM
sg17
S'Y'
sg14
I4
sg19
Nsg94
I1
sa(dp1349
g16
(lp1350
S'k'
asg18
S'Y'
sS'.thisRepN'
p1351
I11
sg20
S'Y'
sg31
g32
sS'.thisTrialN'
p1352
I6
sS'.thisN'
p1353
I171
sS'.thisIndex'
p1354
I6
sg15
(lp1355
S'k'
asg30
VM
sg17
S'Y'
sg14
I4
sg19
(lp1356
S'space'
p1357
asg94
I6
sa(dp1358
g16
(lp1359
S'd'
asg18
S'N'
sS'.thisRepN'
p1360
I11
sg20
S'Y'
sg31
g32
sS'.thisTrialN'
p1361
I7
sS'.thisN'
p1362
I172
sS'.thisIndex'
p1363
I11
sg15
(lp1364
S'd'
asg30
VM
sg17
S'Y'
sg14
I4
sg19
Nsg94
I11
sa(dp1365
g16
(lp1366
S'd'
asg18
S'N'
sS'.thisRepN'
p1367
I11
sg20
S'Y'
sg31
g32
sS'.thisTrialN'
p1368
I8
sS'.thisN'
p1369
I173
sS'.thisIndex'
p1370
I10
sg15
(lp1371
S'd'
asg30
VM
sg17
S'Y'
sg14
I4
sg19
Nsg94
I10
sa(dp1372
g16
(lp1373
S'd'
asg18
S'Y'
sS'.thisRepN'
p1374
I11
sg20
S'N'
sg31
g32
sS'.thisTrialN'
p1375
I9
sS'.thisN'
p1376
I174
sS'.thisIndex'
p1377
I14
sg15
(lp1378
S'd'
asg30
VM
sg17
S'Y'
sg14
I4
sg19
Nsg94
I14
sa(dp1379
g16
(lp1380
S'k'
asg18
S'Y'
sS'.thisRepN'
p1381
I11
sg20
S'N'
sg31
g32
sS'.thisTrialN'
p1382
I10
sS'.thisN'
p1383
I175
sS'.thisIndex'
p1384
I2
sg15
(lp1385
S'k'
asg30
VM
sg17
S'Y'
sg14
I4
sg19
Nsg94
I2
sa(dp1386
g16
(lp1387
S'd'
asg18
S'N'
sS'.thisRepN'
p1388
I11
sg20
S'Y'
sg31
g32
sS'.thisTrialN'
p1389
I11
sS'.thisN'
p1390
I176
sS'.thisIndex'
p1391
I13
sg15
(lp1392
S'd'
asg30
VM
sg17
S'Y'
sg14
I4
sg19
Nsg94
I13
sa(dp1393
g16
(lp1394
S'k'
asg18
S'N'
sS'.thisRepN'
p1395
I11
sg20
S'Y'
sg31
g32
sS'.thisTrialN'
p1396
I12
sS'.thisN'
p1397
I177
sS'.thisIndex'
p1398
I4
sg15
(lp1399
S'k'
asg30
VM
sg17
S'Y'
sg14
I4
sg19
Nsg94
I4
sa(dp1400
g16
(lp1401
S'k'
asg18
S'N'
sS'.thisRepN'
p1402
I11
sg20
S'Y'
sg31
g32
sS'.thisTrialN'
p1403
I13
sS'.thisN'
p1404
I178
sS'.thisIndex'
p1405
I3
sg15
(lp1406
S'k'
asg30
VM
sg17
S'Y'
sg14
I4
sg19
Nsg94
I3
sa(dp1407
g16
(lp1408
S'k'
asg18
S'Y'
sS'.thisRepN'
p1409
I11
sg20
S'Y'
sg31
g32
sS'.thisTrialN'
p1410
I14
sS'.thisN'
p1411
I179
sS'.thisIndex'
p1412
I7
sg15
(lp1413
S'k'
asg30
VM
sg17
S'Y'
sg14
I4
sg19
(lp1414
S'space'
p1415
asg94
I7
sa(dp1416
g16
(lp1417
S'd'
asg18
S'N'
sS'.thisRepN'
p1418
I12
sg20
S'Y'
sg31
g32
sS'.thisTrialN'
p1419
I0
sS'.thisN'
p1420
I180
sS'.thisIndex'
p1421
I10
sg15
(lp1422
S'k'
asg30
VM
sg17
S'N'
sg14
I4
sg19
Nsg94
I10
sa(dp1423
g16
(lp1424
S'k'
asg18
S'N'
sS'.thisRepN'
p1425
I12
sg20
S'Y'
sg31
g32
sS'.thisTrialN'
p1426
I1
sS'.thisN'
p1427
I181
sS'.thisIndex'
p1428
I7
sg15
(lp1429
S'k'
asg30
VM
sg17
S'Y'
sg14
I4
sg19
Nsg94
I7
sa(dp1430
g16
(lp1431
S'k'
asg18
S'N'
sS'.thisRepN'
p1432
I12
sg20
S'Y'
sg31
g32
sS'.thisTrialN'
p1433
I2
sS'.thisN'
p1434
I182
sS'.thisIndex'
p1435
I9
sg15
(lp1436
S'k'
asg30
VM
sg17
S'Y'
sg14
I4
sg19
Nsg94
I9
sa(dp1437
g16
(lp1438
S'k'
asg18
S'Y'
sS'.thisRepN'
p1439
I12
sg20
S'Y'
sg31
g32
sS'.thisTrialN'
p1440
I3
sS'.thisN'
p1441
I183
sS'.thisIndex'
p1442
I4
sg15
(lp1443
S'k'
asg30
VM
sg17
S'Y'
sg14
I4
sg19
(lp1444
S'space'
p1445
asg94
I4
sa(dp1446
g16
(lp1447
S'k'
asg18
S'N'
sS'.thisRepN'
p1448
I12
sg20
S'Y'
sg31
g32
sS'.thisTrialN'
p1449
I4
sS'.thisN'
p1450
I184
sS'.thisIndex'
p1451
I1
sg15
(lp1452
S'k'
asg30
VM
sg17
S'Y'
sg14
I4
sg19
Nsg94
I1
sa(dp1453
g16
(lp1454
S'd'
asg18
S'N'
sS'.thisRepN'
p1455
I12
sg20
S'Y'
sg31
g32
sS'.thisTrialN'
p1456
I5
sS'.thisN'
p1457
I185
sS'.thisIndex'
p1458
I5
sg15
(lp1459
S'd'
asg30
VM
sg17
S'Y'
sg14
I4
sg19
Nsg94
I5
sa(dp1460
g16
(lp1461
S'k'
asg18
S'N'
sS'.thisRepN'
p1462
I12
sg20
S'Y'
sg31
g32
sS'.thisTrialN'
p1463
I6
sS'.thisN'
p1464
I186
sS'.thisIndex'
p1465
I11
sg15
(lp1466
S'k'
asg30
VM
sg17
S'Y'
sg14
I4
sg19
Nsg94
I11
sa(dp1467
g16
(lp1468
S'd'
asg18
S'Y'
sS'.thisRepN'
p1469
I12
sg20
S'Y'
sg31
g32
sS'.thisTrialN'
p1470
I7
sS'.thisN'
p1471
I187
sS'.thisIndex'
p1472
I1
sg15
(lp1473
S'd'
asg30
VM
sg17
S'Y'
sg14
I4
sg19
(lp1474
S'space'
p1475
asg94
I1
sa(dp1476
g16
(lp1477
S'd'
asg18
S'N'
sS'.thisRepN'
p1478
I12
sg20
S'Y'
sg31
g32
sS'.thisTrialN'
p1479
I8
sS'.thisN'
p1480
I188
sS'.thisIndex'
p1481
I3
sg15
(lp1482
S'd'
asg30
VM
sg17
S'Y'
sg14
I4
sg19
Nsg94
I3
sa(dp1483
g16
(lp1484
S'k'
asg18
S'Y'
sS'.thisRepN'
p1485
I12
sg20
S'N'
sg31
g32
sS'.thisTrialN'
p1486
I9
sS'.thisN'
p1487
I189
sS'.thisIndex'
p1488
I5
sg15
(lp1489
S'd'
asg30
VM
sg17
S'N'
sg14
I4
sg19
Nsg94
I5
sa(dp1490
g16
(lp1491
S'd'
asg18
S'N'
sS'.thisRepN'
p1492
I12
sg20
S'Y'
sg31
g32
sS'.thisTrialN'
p1493
I10
sS'.thisN'
p1494
I190
sS'.thisIndex'
p1495
I7
sg15
(lp1496
S'k'
asg30
VM
sg17
S'N'
sg14
I4
sg19
Nsg94
I7
sa(dp1497
g16
(lp1498
S'k'
asg18
S'N'
sS'.thisRepN'
p1499
I12
sg20
S'Y'
sg31
g32
sS'.thisTrialN'
p1500
I11
sS'.thisN'
p1501
I191
sS'.thisIndex'
p1502
I9
sg15
(lp1503
S'k'
asg30
VM
sg17
S'Y'
sg14
I4
sg19
Nsg94
I9
sa(dp1504
g16
(lp1505
S'k'
asg18
S'N'
sS'.thisRepN'
p1506
I12
sg20
S'Y'
sg31
g32
sS'.thisTrialN'
p1507
I12
sS'.thisN'
p1508
I192
sS'.thisIndex'
p1509
I3
sg15
(lp1510
S'k'
asg30
VM
sg17
S'Y'
sg14
I4
sg19
Nsg94
I3
sa(dp1511
g16
(lp1512
S'd'
asg18
S'N'
sS'.thisRepN'
p1513
I12
sg20
S'Y'
sg31
g32
sS'.thisTrialN'
p1514
I13
sS'.thisN'
p1515
I193
sS'.thisIndex'
p1516
I5
sg15
(lp1517
S'k'
asg30
VM
sg17
S'N'
sg14
I4
sg19
Nsg94
I5
sa(dp1518
g16
(lp1519
S'd'
asg18
S'Y'
sS'.thisRepN'
p1520
I12
sg20
S'Y'
sg31
g32
sS'.thisTrialN'
p1521
I14
sS'.thisN'
p1522
I194
sS'.thisIndex'
p1523
I10
sg15
(lp1524
S'd'
asg30
VM
sg17
S'Y'
sg14
I4
sg19
(lp1525
S'space'
p1526
asg94
I10
sa(dp1527
g16
(lp1528
S'd'
asg18
S'N'
sS'.thisRepN'
p1529
I13
sg20
S'Y'
sg31
g32
sS'.thisTrialN'
p1530
I0
sS'.thisN'
p1531
I195
sS'.thisIndex'
p1532
I8
sg15
(lp1533
S'k'
asg30
VM
sg17
S'N'
sg14
I4
sg19
Nsg94
I8
sa(dp1534
g16
(lp1535
S'd'
asg18
S'N'
sS'.thisRepN'
p1536
I13
sg20
S'Y'
sg31
g32
sS'.thisTrialN'
p1537
I1
sS'.thisN'
p1538
I196
sS'.thisIndex'
p1539
I3
sg15
(lp1540
S'd'
asg30
VM
sg17
S'Y'
sg14
I4
sg19
Nsg94
I3
sa(dp1541
g16
(lp1542
S'k'
asg18
S'N'
sS'.thisRepN'
p1543
I13
sg20
S'Y'
sg31
g32
sS'.thisTrialN'
p1544
I2
sS'.thisN'
p1545
I197
sS'.thisIndex'
p1546
I11
sg15
(lp1547
S'k'
asg30
VM
sg17
S'Y'
sg14
I4
sg19
Nsg94
I11
sa(dp1548
g16
(lp1549
S'k'
asg18
S'N'
sS'.thisRepN'
p1550
I13
sg20
S'Y'
sg31
g32
sS'.thisTrialN'
p1551
I3
sS'.thisN'
p1552
I198
sS'.thisIndex'
p1553
I12
sg15
(lp1554
S'k'
asg30
VM
sg17
S'Y'
sg14
I4
sg19
Nsg94
I12
sa(dp1555
g16
(lp1556
S'd'
asg18
S'Y'
sg22
I40
sS'.thisN'
p1557
I199
sg20
S'Y'
sg31
g32
sS'.thisTrialN'
p1558
I4
sS'.thisRepN'
p1559
I13
sg21
I41
sS'.thisIndex'
p1560
I3
sg23
I18
sg15
(lp1561
S'd'
asg30
VM
sg17
S'Y'
sg14
I4
sg19
(lp1562
S'space'
p1563
asg94
I3
sa(dp1564
g16
(lp1565
S'k'
asg94
I6
sS'.thisRepN'
p1566
I13
sg30
VM
sg31
g32
sS'.thisTrialN'
p1567
I5
sS'.thisN'
p1568
I200
sS'.thisIndex'
p1569
I6
sg15
(lp1570
S'k'
asg17
S'Y'
sg14
I5
sa(dp1571
g16
(lp1572
S'k'
asg94
I5
sS'.thisRepN'
p1573
I13
sg30
VM
sg31
g32
sS'.thisTrialN'
p1574
I6
sS'.thisN'
p1575
I201
sS'.thisIndex'
p1576
I5
sg15
(lp1577
S'k'
asg17
S'Y'
sg14
I5
sa(dp1578
g16
(lp1579
S'k'
asg18
S'N'
sS'.thisRepN'
p1580
I13
sg20
S'Y'
sg31
g32
sS'.thisTrialN'
p1581
I7
sS'.thisN'
p1582
I202
sS'.thisIndex'
p1583
I12
sg15
(lp1584
S'k'
asg30
VM
sg17
S'Y'
sg14
I5
sg19
Nsg94
I12
sa(dp1585
g16
(lp1586
S'k'
asg18
S'N'
sS'.thisRepN'
p1587
I13
sg20
S'N'
sg31
g32
sS'.thisTrialN'
p1588
I8
sS'.thisN'
p1589
I203
sS'.thisIndex'
p1590
I11
sg15
(lp1591
S'k'
asg30
VM
sg17
S'Y'
sg14
I5
sg19
(lp1592
S'space'
p1593
asg94
I11
sa(dp1594
g16
(lp1595
S'd'
asg18
S'N'
sS'.thisRepN'
p1596
I13
sg20
S'Y'
sg31
g32
sS'.thisTrialN'
p1597
I9
sS'.thisN'
p1598
I204
sS'.thisIndex'
p1599
I2
sg15
(lp1600
S'd'
asg30
VM
sg17
S'Y'
sg14
I5
sg19
Nsg94
I2
sa(dp1601
g16
(lp1602
S'd'
asg18
S'N'
sS'.thisRepN'
p1603
I13
sg20
S'Y'
sg31
g32
sS'.thisTrialN'
p1604
I10
sS'.thisN'
p1605
I205
sS'.thisIndex'
p1606
I2
sg15
(lp1607
S'd'
asg30
VM
sg17
S'Y'
sg14
I5
sg19
Nsg94
I2
sa(dp1608
g16
(lp1609
S'k'
asg18
S'N'
sS'.thisRepN'
p1610
I13
sg20
S'Y'
sg31
g32
sS'.thisTrialN'
p1611
I11
sS'.thisN'
p1612
I206
sS'.thisIndex'
p1613
I13
sg15
(lp1614
S'k'
asg30
VM
sg17
S'Y'
sg14
I5
sg19
Nsg94
I13
sa(dp1615
g16
(lp1616
S'k'
asg18
S'N'
sS'.thisRepN'
p1617
I13
sg20
S'Y'
sg31
g32
sS'.thisTrialN'
p1618
I12
sS'.thisN'
p1619
I207
sS'.thisIndex'
p1620
I8
sg15
(lp1621
S'k'
asg30
VM
sg17
S'Y'
sg14
I5
sg19
Nsg94
I8
sa(dp1622
g16
(lp1623
S'k'
asg18
S'N'
sS'.thisRepN'
p1624
I13
sg20
S'Y'
sg31
g32
sS'.thisTrialN'
p1625
I13
sS'.thisN'
p1626
I208
sS'.thisIndex'
p1627
I10
sg15
(lp1628
S'k'
asg30
VM
sg17
S'Y'
sg14
I5
sg19
Nsg94
I10
sa(dp1629
g16
(lp1630
S'd'
asg18
S'N'
sS'.thisRepN'
p1631
I13
sg20
S'Y'
sg31
g32
sS'.thisTrialN'
p1632
I14
sS'.thisN'
p1633
I209
sS'.thisIndex'
p1634
I9
sg15
(lp1635
S'd'
asg30
VM
sg17
S'Y'
sg14
I5
sg19
Nsg94
I9
sa(dp1636
g16
(lp1637
S'k'
asg18
S'Y'
sS'.thisRepN'
p1638
I14
sg20
S'Y'
sg31
g32
sS'.thisTrialN'
p1639
I0
sS'.thisN'
p1640
I210
sS'.thisIndex'
p1641
I7
sg15
(lp1642
S'k'
asg30
VM
sg17
S'Y'
sg14
I5
sg19
(lp1643
S'space'
p1644
asg94
I7
sa(dp1645
g16
(lp1646
S'k'
asg18
S'Y'
sS'.thisRepN'
p1647
I14
sg20
S'Y'
sg31
g32
sS'.thisTrialN'
p1648
I1
sS'.thisN'
p1649
I211
sS'.thisIndex'
p1650
I8
sg15
(lp1651
S'k'
asg30
VM
sg17
S'Y'
sg14
I5
sg19
(lp1652
S'space'
p1653
asg94
I8
sa(dp1654
g16
(lp1655
S'k'
asg18
S'N'
sS'.thisRepN'
p1656
I14
sg20
S'Y'
sg31
g32
sS'.thisTrialN'
p1657
I2
sS'.thisN'
p1658
I212
sS'.thisIndex'
p1659
I0
sg15
(lp1660
S'k'
asg30
VM
sg17
S'Y'
sg14
I5
sg19
Nsg94
I0
sa(dp1661
g16
(lp1662
S'd'
asg18
S'Y'
sS'.thisRepN'
p1663
I14
sg20
S'N'
sg31
g32
sS'.thisTrialN'
p1664
I3
sS'.thisN'
p1665
I213
sS'.thisIndex'
p1666
I12
sg15
(lp1667
S'd'
asg30
VM
sg17
S'Y'
sg14
I5
sg19
Nsg94
I12
sa(dp1668
g16
(lp1669
S'k'
asg18
S'N'
sS'.thisRepN'
p1670
I14
sg20
S'Y'
sg31
g32
sS'.thisTrialN'
p1671
I4
sS'.thisN'
p1672
I214
sS'.thisIndex'
p1673
I12
sg15
(lp1674
S'k'
asg30
VM
sg17
S'Y'
sg14
I5
sg19
Nsg94
I12
sa(dp1675
g16
(lp1676
S'd'
asg18
S'N'
sS'.thisRepN'
p1677
I14
sg20
S'Y'
sg31
g32
sS'.thisTrialN'
p1678
I5
sS'.thisN'
p1679
I215
sS'.thisIndex'
p1680
I4
sg15
(lp1681
S'd'
asg30
VM
sg17
S'Y'
sg14
I5
sg19
Nsg94
I4
sa(dp1682
g16
(lp1683
S'd'
asg18
S'Y'
sS'.thisRepN'
p1684
I14
sg20
S'N'
sg31
g32
sS'.thisTrialN'
p1685
I6
sS'.thisN'
p1686
I216
sS'.thisIndex'
p1687
I9
sg15
(lp1688
S'd'
asg30
VM
sg17
S'Y'
sg14
I5
sg19
Nsg94
I9
sa(dp1689
g16
(lp1690
S'd'
asg18
S'Y'
sS'.thisRepN'
p1691
I14
sg20
S'Y'
sg31
g32
sS'.thisTrialN'
p1692
I7
sS'.thisN'
p1693
I217
sS'.thisIndex'
p1694
I9
sg15
(lp1695
S'd'
asg30
VM
sg17
S'Y'
sg14
I5
sg19
(lp1696
S'space'
p1697
asg94
I9
sa(dp1698
g16
(lp1699
S'd'
asg18
S'N'
sS'.thisRepN'
p1700
I14
sg20
S'Y'
sg31
g32
sS'.thisTrialN'
p1701
I8
sS'.thisN'
p1702
I218
sS'.thisIndex'
p1703
I0
sg15
(lp1704
S'd'
asg30
VM
sg17
S'Y'
sg14
I5
sg19
Nsg94
I0
sa(dp1705
g16
(lp1706
S'd'
asg18
S'N'
sS'.thisRepN'
p1707
I14
sg20
S'Y'
sg31
g32
sS'.thisTrialN'
p1708
I9
sS'.thisN'
p1709
I219
sS'.thisIndex'
p1710
I3
sg15
(lp1711
S'k'
asg30
VM
sg17
S'N'
sg14
I5
sg19
Nsg94
I3
sa(dp1712
g16
(lp1713
S'd'
asg18
S'N'
sS'.thisRepN'
p1714
I14
sg20
S'Y'
sg31
g32
sS'.thisTrialN'
p1715
I10
sS'.thisN'
p1716
I220
sS'.thisIndex'
p1717
I0
sg15
(lp1718
S'd'
asg30
VM
sg17
S'Y'
sg14
I5
sg19
Nsg94
I0
sa(dp1719
g16
(lp1720
S'd'
asg18
S'Y'
sS'.thisRepN'
p1721
I14
sg20
S'Y'
sg31
g32
sS'.thisTrialN'
p1722
I11
sS'.thisN'
p1723
I221
sS'.thisIndex'
p1724
I9
sg15
(lp1725
S'd'
asg30
VM
sg17
S'Y'
sg14
I5
sg19
(lp1726
S'space'
p1727
asg94
I9
sa(dp1728
g16
(lp1729
S'k'
asg18
S'Y'
sS'.thisRepN'
p1730
I14
sg20
S'N'
sg31
g32
sS'.thisTrialN'
p1731
I12
sS'.thisN'
p1732
I222
sS'.thisIndex'
p1733
I7
sg15
(lp1734
S'k'
asg30
VM
sg17
S'Y'
sg14
I5
sg19
Nsg94
I7
sa(dp1735
g16
(lp1736
S'k'
asg18
S'Y'
sS'.thisRepN'
p1737
I14
sg20
S'Y'
sg31
g32
sS'.thisTrialN'
p1738
I13
sS'.thisN'
p1739
I223
sS'.thisIndex'
p1740
I10
sg15
(lp1741
S'k'
asg30
VM
sg17
S'Y'
sg14
I5
sg19
(lp1742
S'space'
p1743
asg94
I10
sa(dp1744
g16
(lp1745
S'd'
asg18
S'Y'
sS'.thisRepN'
p1746
I14
sg20
S'N'
sg31
g32
sS'.thisTrialN'
p1747
I14
sS'.thisN'
p1748
I224
sS'.thisIndex'
p1749
I10
sg15
(lp1750
S'd'
asg30
VM
sg17
S'Y'
sg14
I5
sg19
Nsg94
I10
sa(dp1751
g16
(lp1752
S'k'
asg18
S'Y'
sS'.thisRepN'
p1753
I15
sg20
S'N'
sg31
g32
sS'.thisTrialN'
p1754
I0
sS'.thisN'
p1755
I225
sS'.thisIndex'
p1756
I5
sg15
(lp1757
S'k'
asg30
VM
sg17
S'Y'
sg14
I5
sg19
Nsg94
I5
sa(dp1758
g16
(lp1759
S'k'
asg18
S'N'
sS'.thisRepN'
p1760
I15
sg20
S'Y'
sg31
g32
sS'.thisTrialN'
p1761
I1
sS'.thisN'
p1762
I226
sS'.thisIndex'
p1763
I2
sg15
(lp1764
S'd'
asg30
VM
sg17
S'N'
sg14
I5
sg19
Nsg94
I2
sa(dp1765
g16
(lp1766
S'k'
asg18
S'N'
sS'.thisRepN'
p1767
I15
sg20
S'Y'
sg31
g32
sS'.thisTrialN'
p1768
I2
sS'.thisN'
p1769
I227
sS'.thisIndex'
p1770
I13
sg15
(lp1771
S'k'
asg30
VM
sg17
S'Y'
sg14
I5
sg19
Nsg94
I13
sa(dp1772
g16
(lp1773
S'k'
asg18
S'Y'
sS'.thisRepN'
p1774
I15
sg20
S'Y'
sg31
g32
sS'.thisTrialN'
p1775
I3
sS'.thisN'
p1776
I228
sS'.thisIndex'
p1777
I13
sg15
(lp1778
S'k'
asg30
VM
sg17
S'Y'
sg14
I5
sg19
(lp1779
S'space'
p1780
asg94
I13
sa(dp1781
g16
(lp1782
S'k'
asg18
S'Y'
sS'.thisRepN'
p1783
I15
sg20
S'N'
sg31
g32
sS'.thisTrialN'
p1784
I4
sS'.thisN'
p1785
I229
sS'.thisIndex'
p1786
I12
sg15
(lp1787
S'k'
asg30
VM
sg17
S'Y'
sg14
I5
sg19
Nsg94
I12
sa(dp1788
g16
(lp1789
S'k'
asg18
S'N'
sS'.thisRepN'
p1790
I15
sg20
S'Y'
sg31
g32
sS'.thisTrialN'
p1791
I5
sS'.thisN'
p1792
I230
sS'.thisIndex'
p1793
I3
sg15
(lp1794
S'k'
asg30
VM
sg17
S'Y'
sg14
I5
sg19
Nsg94
I3
sa(dp1795
g16
(lp1796
S'd'
asg18
S'Y'
sS'.thisRepN'
p1797
I15
sg20
S'Y'
sg31
g32
sS'.thisTrialN'
p1798
I6
sS'.thisN'
p1799
I231
sS'.thisIndex'
p1800
I14
sg15
(lp1801
S'k'
asg30
VM
sg17
S'N'
sg14
I5
sg19
(lp1802
S'space'
p1803
asg94
I14
sa(dp1804
g16
(lp1805
S'd'
asg18
S'N'
sS'.thisRepN'
p1806
I15
sg20
S'Y'
sg31
g32
sS'.thisTrialN'
p1807
I7
sS'.thisN'
p1808
I232
sS'.thisIndex'
p1809
I9
sg15
(lp1810
S'd'
asg30
VM
sg17
S'Y'
sg14
I5
sg19
Nsg94
I9
sa(dp1811
g16
(lp1812
S'k'
asg18
S'N'
sS'.thisRepN'
p1813
I15
sg20
S'Y'
sg31
g32
sS'.thisTrialN'
p1814
I8
sS'.thisN'
p1815
I233
sS'.thisIndex'
p1816
I14
sg15
(lp1817
S'k'
asg30
VM
sg17
S'Y'
sg14
I5
sg19
Nsg94
I14
sa(dp1818
g16
(lp1819
S'd'
asg18
S'Y'
sS'.thisRepN'
p1820
I15
sg20
S'Y'
sg31
g32
sS'.thisTrialN'
p1821
I9
sS'.thisN'
p1822
I234
sS'.thisIndex'
p1823
I13
sg15
(lp1824
S'd'
asg30
VM
sg17
S'Y'
sg14
I5
sg19
(lp1825
S'space'
p1826
asg94
I13
sa(dp1827
g16
(lp1828
S'd'
asg18
S'Y'
sS'.thisRepN'
p1829
I15
sg20
S'Y'
sg31
g32
sS'.thisTrialN'
p1830
I10
sS'.thisN'
p1831
I235
sS'.thisIndex'
p1832
I11
sg15
(lp1833
S'd'
asg30
VM
sg17
S'Y'
sg14
I5
sg19
(lp1834
S'space'
p1835
asg94
I11
sa(dp1836
g16
(lp1837
S'd'
asg18
S'Y'
sS'.thisRepN'
p1838
I15
sg20
S'N'
sg31
g32
sS'.thisTrialN'
p1839
I11
sS'.thisN'
p1840
I236
sS'.thisIndex'
p1841
I0
sg15
(lp1842
S'k'
asg30
VM
sg17
S'N'
sg14
I5
sg19
Nsg94
I0
sa(dp1843
g16
(lp1844
S'k'
asg18
S'N'
sS'.thisRepN'
p1845
I15
sg20
S'Y'
sg31
g32
sS'.thisTrialN'
p1846
I12
sS'.thisN'
p1847
I237
sS'.thisIndex'
p1848
I4
sg15
(lp1849
S'k'
asg30
VM
sg17
S'Y'
sg14
I5
sg19
Nsg94
I4
sa(dp1850
g16
(lp1851
S'k'
asg18
S'N'
sS'.thisRepN'
p1852
I15
sg20
S'Y'
sg31
g32
sS'.thisTrialN'
p1853
I13
sS'.thisN'
p1854
I238
sS'.thisIndex'
p1855
I0
sg15
(lp1856
S'k'
asg30
VM
sg17
S'Y'
sg14
I5
sg19
Nsg94
I0
sa(dp1857
g16
(lp1858
S'k'
asg18
S'Y'
sS'.thisRepN'
p1859
I15
sg20
S'Y'
sg31
g32
sS'.thisTrialN'
p1860
I14
sS'.thisN'
p1861
I239
sS'.thisIndex'
p1862
I5
sg15
(lp1863
S'k'
asg30
VM
sg17
S'Y'
sg14
I5
sg19
(lp1864
S'space'
p1865
asg94
I5
sa(dp1866
g16
(lp1867
S'd'
asg18
S'N'
sS'.thisRepN'
p1868
I16
sg20
S'Y'
sg31
g32
sS'.thisTrialN'
p1869
I0
sS'.thisN'
p1870
I240
sS'.thisIndex'
p1871
I8
sg15
(lp1872
S'k'
asg30
VM
sg17
S'N'
sg14
I5
sg19
Nsg94
I8
sa(dp1873
g16
(lp1874
S'd'
asg18
S'Y'
sS'.thisRepN'
p1875
I16
sg20
S'Y'
sg31
g32
sS'.thisTrialN'
p1876
I1
sS'.thisN'
p1877
I241
sS'.thisIndex'
p1878
I12
sg15
(lp1879
S'd'
asg30
VM
sg17
S'Y'
sg14
I5
sg19
(lp1880
S'space'
p1881
asg94
I12
sa(dp1882
g16
(lp1883
S'k'
asg18
S'Y'
sS'.thisRepN'
p1884
I16
sg20
S'Y'
sg31
g32
sS'.thisTrialN'
p1885
I2
sS'.thisN'
p1886
I242
sS'.thisIndex'
p1887
I0
sg15
(lp1888
S'k'
asg30
VM
sg17
S'Y'
sg14
I5
sg19
(lp1889
S'space'
p1890
asg94
I0
sa(dp1891
g16
(lp1892
S'k'
asg18
S'Y'
sS'.thisRepN'
p1893
I16
sg20
S'N'
sg31
g32
sS'.thisTrialN'
p1894
I3
sS'.thisN'
p1895
I243
sS'.thisIndex'
p1896
I2
sg15
(lp1897
S'k'
asg30
VM
sg17
S'Y'
sg14
I5
sg19
Nsg94
I2
sa(dp1898
g16
(lp1899
S'd'
asg18
S'N'
sS'.thisRepN'
p1900
I16
sg20
S'Y'
sg31
g32
sS'.thisTrialN'
p1901
I4
sS'.thisN'
p1902
I244
sS'.thisIndex'
p1903
I5
sg15
(lp1904
S'd'
asg30
VM
sg17
S'Y'
sg14
I5
sg19
Nsg94
I5
sa(dp1905
g16
(lp1906
S'd'
asg18
S'N'
sS'.thisRepN'
p1907
I16
sg20
S'Y'
sg31
g32
sS'.thisTrialN'
p1908
I5
sS'.thisN'
p1909
I245
sS'.thisIndex'
p1910
I8
sg15
(lp1911
S'd'
asg30
VM
sg17
S'Y'
sg14
I5
sg19
Nsg94
I8
sa(dp1912
g16
(lp1913
S'd'
asg18
S'N'
sS'.thisRepN'
p1914
I16
sg20
S'Y'
sg31
g32
sS'.thisTrialN'
p1915
I6
sS'.thisN'
p1916
I246
sS'.thisIndex'
p1917
I5
sg15
(lp1918
S'd'
asg30
VM
sg17
S'Y'
sg14
I5
sg19
Nsg94
I5
sa(dp1919
g16
(lp1920
S'k'
asg18
S'Y'
sS'.thisRepN'
p1921
I16
sg20
S'Y'
sg31
g32
sS'.thisTrialN'
p1922
I7
sS'.thisN'
p1923
I247
sS'.thisIndex'
p1924
I13
sg15
(lp1925
S'k'
asg30
VM
sg17
S'Y'
sg14
I5
sg19
(lp1926
S'space'
p1927
asg94
I13
sa(dp1928
g16
(lp1929
S'k'
asg18
S'N'
sS'.thisRepN'
p1930
I16
sg20
S'Y'
sg31
g32
sS'.thisTrialN'
p1931
I8
sS'.thisN'
p1932
I248
sS'.thisIndex'
p1933
I4
sg15
(lp1934
S'k'
asg30
VM
sg17
S'Y'
sg14
I5
sg19
Nsg94
I4
sa(dp1935
g16
(lp1936
S'k'
asg18
S'Y'
sg22
I39
sS'.thisN'
p1937
I249
sg20
S'Y'
sg31
g32
sS'.thisTrialN'
p1938
I9
sS'.thisRepN'
p1939
I16
sg21
I45
sS'.thisIndex'
p1940
I5
sg23
I22
sg15
(lp1941
S'k'
asg30
VM
sg17
S'Y'
sg14
I5
sg19
(lp1942
S'space'
p1943
asg94
I5
sa(dp1944
g16
(lp1945
S'd'
asg94
I13
sS'.thisRepN'
p1946
I16
sg30
VM
sg31
g32
sS'.thisTrialN'
p1947
I10
sS'.thisN'
p1948
I250
sS'.thisIndex'
p1949
I13
sg15
(lp1950
S'd'
asg17
S'Y'
sg14
I6
sa(dp1951
g16
(lp1952
S'd'
asg94
I14
sS'.thisRepN'
p1953
I16
sg30
VM
sg31
g32
sS'.thisTrialN'
p1954
I11
sS'.thisN'
p1955
I251
sS'.thisIndex'
p1956
I14
sg15
(lp1957
S'd'
asg17
S'Y'
sg14
I6
sa(dp1958
g16
(lp1959
S'k'
asg18
S'Y'
sS'.thisRepN'
p1960
I16
sg20
S'Y'
sg31
g32
sS'.thisTrialN'
p1961
I12
sS'.thisN'
p1962
I252
sS'.thisIndex'
p1963
I1
sg15
(lp1964
S'k'
asg30
VM
sg17
S'Y'
sg14
I6
sg19
(lp1965
S'space'
p1966
asg94
I1
sa(dp1967
g16
(lp1968
S'd'
asg18
S'N'
sS'.thisRepN'
p1969
I16
sg20
S'Y'
sg31
g32
sS'.thisTrialN'
p1970
I13
sS'.thisN'
p1971
I253
sS'.thisIndex'
p1972
I1
sg15
(lp1973
S'd'
asg30
VM
sg17
S'Y'
sg14
I6
sg19
Nsg94
I1
sa(dp1974
g16
(lp1975
S'd'
asg18
S'Y'
sS'.thisRepN'
p1976
I16
sg20
S'N'
sg31
g32
sS'.thisTrialN'
p1977
I14
sS'.thisN'
p1978
I254
sS'.thisIndex'
p1979
I14
sg15
(lp1980
S'd'
asg30
VM
sg17
S'Y'
sg14
I6
sg19
Nsg94
I14
sa(dp1981
g16
(lp1982
S'd'
asg18
S'Y'
sS'.thisRepN'
p1983
I17
sg20
S'Y'
sg31
g32
sS'.thisTrialN'
p1984
I0
sS'.thisN'
p1985
I255
sS'.thisIndex'
p1986
I4
sg15
(lp1987
S'd'
asg30
VM
sg17
S'Y'
sg14
I6
sg19
(lp1988
S'space'
p1989
asg94
I4
sa(dp1990
g16
(lp1991
S'k'
asg18
S'N'
sS'.thisRepN'
p1992
I17
sg20
S'Y'
sg31
g32
sS'.thisTrialN'
p1993
I1
sS'.thisN'
p1994
I256
sS'.thisIndex'
p1995
I10
sg15
(lp1996
S'd'
asg30
VM
sg17
S'N'
sg14
I6
sg19
Nsg94
I10
sa(dp1997
g16
(lp1998
S'd'
asg18
S'Y'
sS'.thisRepN'
p1999
I17
sg20
S'Y'
sg31
g32
sS'.thisTrialN'
p2000
I2
sS'.thisN'
p2001
I257
sS'.thisIndex'
p2002
I13
sg15
(lp2003
S'd'
asg30
VM
sg17
S'Y'
sg14
I6
sg19
(lp2004
S'space'
p2005
asg94
I13
sa(dp2006
g16
(lp2007
S'd'
asg18
S'Y'
sS'.thisRepN'
p2008
I17
sg20
S'N'
sg31
g32
sS'.thisTrialN'
p2009
I3
sS'.thisN'
p2010
I258
sS'.thisIndex'
p2011
I14
sg15
(lp2012
S'd'
asg30
VM
sg17
S'Y'
sg14
I6
sg19
Nsg94
I14
sa(dp2013
g16
(lp2014
S'k'
asg18
S'Y'
sS'.thisRepN'
p2015
I17
sg20
S'Y'
sg31
g32
sS'.thisTrialN'
p2016
I4
sS'.thisN'
p2017
I259
sS'.thisIndex'
p2018
I3
sg15
(lp2019
S'k'
asg30
VM
sg17
S'Y'
sg14
I6
sg19
(lp2020
S'space'
p2021
asg94
I3
sa(dp2022
g16
(lp2023
S'k'
asg18
S'Y'
sS'.thisRepN'
p2024
I17
sg20
S'Y'
sg31
g32
sS'.thisTrialN'
p2025
I5
sS'.thisN'
p2026
I260
sS'.thisIndex'
p2027
I6
sg15
(lp2028
S'k'
asg30
VM
sg17
S'Y'
sg14
I6
sg19
(lp2029
S'space'
p2030
asg94
I6
sa(dp2031
g16
(lp2032
S'd'
asg18
S'N'
sS'.thisRepN'
p2033
I17
sg20
S'Y'
sg31
g32
sS'.thisTrialN'
p2034
I6
sS'.thisN'
p2035
I261
sS'.thisIndex'
p2036
I11
sg15
(lp2037
S'd'
asg30
VM
sg17
S'Y'
sg14
I6
sg19
Nsg94
I11
sa(dp2038
g16
(lp2039
S'd'
asg18
S'N'
sS'.thisRepN'
p2040
I17
sg20
S'Y'
sg31
g32
sS'.thisTrialN'
p2041
I7
sS'.thisN'
p2042
I262
sS'.thisIndex'
p2043
I2
sg15
(lp2044
S'k'
asg30
VM
sg17
S'N'
sg14
I6
sg19
Nsg94
I2
sa(dp2045
g16
(lp2046
S'k'
asg18
S'N'
sS'.thisRepN'
p2047
I17
sg20
S'Y'
sg31
g32
sS'.thisTrialN'
p2048
I8
sS'.thisN'
p2049
I263
sS'.thisIndex'
p2050
I6
sg15
(lp2051
S'k'
asg30
VM
sg17
S'Y'
sg14
I6
sg19
Nsg94
I6
sa(dp2052
g16
(lp2053
S'd'
asg18
S'Y'
sS'.thisRepN'
p2054
I17
sg20
S'Y'
sg31
g32
sS'.thisTrialN'
p2055
I9
sS'.thisN'
p2056
I264
sS'.thisIndex'
p2057
I7
sg15
(lp2058
S'd'
asg30
VM
sg17
S'Y'
sg14
I6
sg19
(lp2059
S'space'
p2060
asg94
I7
sa(dp2061
g16
(lp2062
S'd'
asg18
S'N'
sS'.thisRepN'
p2063
I17
sg20
S'N'
sg31
g32
sS'.thisTrialN'
p2064
I10
sS'.thisN'
p2065
I265
sS'.thisIndex'
p2066
I7
sg15
(lp2067
S'd'
asg30
VM
sg17
S'Y'
sg14
I6
sg19
(lp2068
S'space'
p2069
asg94
I7
sa(dp2070
g16
(lp2071
S'd'
asg18
S'Y'
sS'.thisRepN'
p2072
I17
sg20
S'N'
sg31
g32
sS'.thisTrialN'
p2073
I11
sS'.thisN'
p2074
I266
sS'.thisIndex'
p2075
I7
sg15
(lp2076
S'd'
asg30
VM
sg17
S'Y'
sg14
I6
sg19
Nsg94
I7
sa(dp2077
g16
(lp2078
S'k'
asg18
S'Y'
sS'.thisRepN'
p2079
I17
sg20
S'N'
sg31
g32
sS'.thisTrialN'
p2080
I12
sS'.thisN'
p2081
I267
sS'.thisIndex'
p2082
I7
sg15
(lp2083
S'k'
asg30
VM
sg17
S'Y'
sg14
I6
sg19
Nsg94
I7
sa(dp2084
g16
(lp2085
S'k'
asg18
S'N'
sS'.thisRepN'
p2086
I17
sg20
S'Y'
sg31
g32
sS'.thisTrialN'
p2087
I13
sS'.thisN'
p2088
I268
sS'.thisIndex'
p2089
I14
sg15
(lp2090
S'd'
asg30
VM
sg17
S'N'
sg14
I6
sg19
Nsg94
I14
sa(dp2091
g16
(lp2092
S'd'
asg18
S'Y'
sS'.thisRepN'
p2093
I17
sg20
S'Y'
sg31
g32
sS'.thisTrialN'
p2094
I14
sS'.thisN'
p2095
I269
sS'.thisIndex'
p2096
I0
sg15
(lp2097
S'd'
asg30
VM
sg17
S'Y'
sg14
I6
sg19
(lp2098
S'space'
p2099
asg94
I0
sa(dp2100
g16
(lp2101
S'd'
asg18
S'N'
sS'.thisRepN'
p2102
I18
sg20
S'Y'
sg31
g32
sS'.thisTrialN'
p2103
I0
sS'.thisN'
p2104
I270
sS'.thisIndex'
p2105
I1
sg15
(lp2106
S'd'
asg30
VM
sg17
S'Y'
sg14
I6
sg19
Nsg94
I1
sa(dp2107
g16
(lp2108
S'k'
asg18
S'N'
sS'.thisRepN'
p2109
I18
sg20
S'Y'
sg31
g32
sS'.thisTrialN'
p2110
I1
sS'.thisN'
p2111
I271
sS'.thisIndex'
p2112
I10
sg15
(lp2113
S'k'
asg30
VM
sg17
S'Y'
sg14
I6
sg19
Nsg94
I10
sa(dp2114
g16
(lp2115
S'k'
asg18
S'Y'
sS'.thisRepN'
p2116
I18
sg20
S'N'
sg31
g32
sS'.thisTrialN'
p2117
I2
sS'.thisN'
p2118
I272
sS'.thisIndex'
p2119
I9
sg15
(lp2120
S'k'
asg30
VM
sg17
S'Y'
sg14
I6
sg19
Nsg94
I9
sa(dp2121
g16
(lp2122
S'd'
asg18
S'N'
sS'.thisRepN'
p2123
I18
sg20
S'Y'
sg31
g32
sS'.thisTrialN'
p2124
I3
sS'.thisN'
p2125
I273
sS'.thisIndex'
p2126
I6
sg15
(lp2127
S'd'
asg30
VM
sg17
S'Y'
sg14
I6
sg19
Nsg94
I6
sa(dp2128
g16
(lp2129
S'd'
asg18
S'N'
sS'.thisRepN'
p2130
I18
sg20
S'Y'
sg31
g32
sS'.thisTrialN'
p2131
I4
sS'.thisN'
p2132
I274
sS'.thisIndex'
p2133
I11
sg15
(lp2134
S'd'
asg30
VM
sg17
S'Y'
sg14
I6
sg19
Nsg94
I11
sa(dp2135
g16
(lp2136
S'k'
asg18
S'N'
sS'.thisRepN'
p2137
I18
sg20
S'Y'
sg31
g32
sS'.thisTrialN'
p2138
I5
sS'.thisN'
p2139
I275
sS'.thisIndex'
p2140
I13
sg15
(lp2141
S'k'
asg30
VM
sg17
S'Y'
sg14
I6
sg19
Nsg94
I13
sa(dp2142
g16
(lp2143
S'k'
asg18
S'N'
sS'.thisRepN'
p2144
I18
sg20
S'Y'
sg31
g32
sS'.thisTrialN'
p2145
I6
sS'.thisN'
p2146
I276
sS'.thisIndex'
p2147
I4
sg15
(lp2148
S'k'
asg30
VM
sg17
S'Y'
sg14
I6
sg19
Nsg94
I4
sa(dp2149
g16
(lp2150
S'k'
asg18
S'N'
sS'.thisRepN'
p2151
I18
sg20
S'Y'
sg31
g32
sS'.thisTrialN'
p2152
I7
sS'.thisN'
p2153
I277
sS'.thisIndex'
p2154
I1
sg15
(lp2155
S'k'
asg30
VM
sg17
S'Y'
sg14
I6
sg19
Nsg94
I1
sa(dp2156
g16
(lp2157
S'd'
asg18
S'Y'
sS'.thisRepN'
p2158
I18
sg20
S'Y'
sg31
g32
sS'.thisTrialN'
p2159
I8
sS'.thisN'
p2160
I278
sS'.thisIndex'
p2161
I1
sg15
(lp2162
S'k'
asg30
VM
sg17
S'N'
sg14
I6
sg19
(lp2163
S'space'
p2164
asg94
I1
sa(dp2165
g16
(lp2166
S'd'
asg18
S'Y'
sS'.thisRepN'
p2167
I18
sg20
S'N'
sg31
g32
sS'.thisTrialN'
p2168
I9
sS'.thisN'
p2169
I279
sS'.thisIndex'
p2170
I11
sg15
(lp2171
S'd'
asg30
VM
sg17
S'Y'
sg14
I6
sg19
Nsg94
I11
sa(dp2172
g16
(lp2173
S'd'
asg18
S'Y'
sS'.thisRepN'
p2174
I18
sg20
S'Y'
sg31
g32
sS'.thisTrialN'
p2175
I10
sS'.thisN'
p2176
I280
sS'.thisIndex'
p2177
I9
sg15
(lp2178
S'k'
asg30
VM
sg17
S'N'
sg14
I6
sg19
(lp2179
S'space'
p2180
asg94
I9
sa(dp2181
g16
(lp2182
S'd'
asg18
S'Y'
sS'.thisRepN'
p2183
I18
sg20
S'Y'
sg31
g32
sS'.thisTrialN'
p2184
I11
sS'.thisN'
p2185
I281
sS'.thisIndex'
p2186
I2
sg15
(lp2187
S'd'
asg30
VM
sg17
S'Y'
sg14
I6
sg19
(lp2188
S'space'
p2189
asg94
I2
sa(dp2190
g16
(lp2191
S'd'
asg18
S'N'
sS'.thisRepN'
p2192
I18
sg20
S'Y'
sg31
g32
sS'.thisTrialN'
p2193
I12
sS'.thisN'
p2194
I282
sS'.thisIndex'
p2195
I12
sg15
(lp2196
S'k'
asg30
VM
sg17
S'N'
sg14
I6
sg19
Nsg94
I12
sa(dp2197
g16
(lp2198
S'd'
asg18
S'N'
sS'.thisRepN'
p2199
I18
sg20
S'Y'
sg31
g32
sS'.thisTrialN'
p2200
I13
sS'.thisN'
p2201
I283
sS'.thisIndex'
p2202
I1
sg15
(lp2203
S'd'
asg30
VM
sg17
S'Y'
sg14
I6
sg19
Nsg94
I1
sa(dp2204
g16
(lp2205
S'd'
asg18
S'Y'
sS'.thisRepN'
p2206
I18
sg20
S'N'
sg31
g32
sS'.thisTrialN'
p2207
I14
sS'.thisN'
p2208
I284
sS'.thisIndex'
p2209
I9
sg15
(lp2210
S'd'
asg30
VM
sg17
S'Y'
sg14
I6
sg19
Nsg94
I9
sa(dp2211
g16
(lp2212
S'd'
asg18
S'Y'
sS'.thisRepN'
p2213
I19
sg20
S'Y'
sg31
g32
sS'.thisTrialN'
p2214
I0
sS'.thisN'
p2215
I285
sS'.thisIndex'
p2216
I3
sg15
(lp2217
S'd'
asg30
VM
sg17
S'Y'
sg14
I6
sg19
(lp2218
S'space'
p2219
asg94
I3
sa(dp2220
g16
(lp2221
S'd'
asg18
S'Y'
sS'.thisRepN'
p2222
I19
sg20
S'Y'
sg31
g32
sS'.thisTrialN'
p2223
I1
sS'.thisN'
p2224
I286
sS'.thisIndex'
p2225
I6
sg15
(lp2226
S'd'
asg30
VM
sg17
S'Y'
sg14
I6
sg19
(lp2227
S'space'
p2228
asg94
I6
sa(dp2229
g16
(lp2230
S'k'
asg18
S'Y'
sS'.thisRepN'
p2231
I19
sg20
S'N'
sg31
g32
sS'.thisTrialN'
p2232
I2
sS'.thisN'
p2233
I287
sS'.thisIndex'
p2234
I1
sg15
(lp2235
S'k'
asg30
VM
sg17
S'Y'
sg14
I6
sg19
Nsg94
I1
sa(dp2236
g16
(lp2237
S'd'
asg18
S'Y'
sS'.thisRepN'
p2238
I19
sg20
S'N'
sg31
g32
sS'.thisTrialN'
p2239
I3
sS'.thisN'
p2240
I288
sS'.thisIndex'
p2241
I14
sg15
(lp2242
S'k'
asg30
VM
sg17
S'N'
sg14
I6
sg19
Nsg94
I14
sa(dp2243
g16
(lp2244
S'd'
asg18
S'N'
sS'.thisRepN'
p2245
I19
sg20
S'Y'
sg31
g32
sS'.thisTrialN'
p2246
I4
sS'.thisN'
p2247
I289
sS'.thisIndex'
p2248
I8
sg15
(lp2249
S'd'
asg30
VM
sg17
S'Y'
sg14
I6
sg19
Nsg94
I8
sa(dp2250
g16
(lp2251
S'd'
asg18
S'N'
sS'.thisRepN'
p2252
I19
sg20
S'Y'
sg31
g32
sS'.thisTrialN'
p2253
I5
sS'.thisN'
p2254
I290
sS'.thisIndex'
p2255
I8
sg15
(lp2256
S'd'
asg30
VM
sg17
S'Y'
sg14
I6
sg19
Nsg94
I8
sa(dp2257
g16
(lp2258
S'k'
asg18
S'Y'
sS'.thisRepN'
p2259
I19
sg20
S'Y'
sg31
g32
sS'.thisTrialN'
p2260
I6
sS'.thisN'
p2261
I291
sS'.thisIndex'
p2262
I13
sg15
(lp2263
S'd'
asg30
VM
sg17
S'N'
sg14
I6
sg19
(lp2264
S'space'
p2265
asg94
I13
sa(dp2266
g16
(lp2267
S'd'
asg18
S'Y'
sS'.thisRepN'
p2268
I19
sg20
S'Y'
sg31
g32
sS'.thisTrialN'
p2269
I7
sS'.thisN'
p2270
I292
sS'.thisIndex'
p2271
I2
sg15
(lp2272
S'd'
asg30
VM
sg17
S'Y'
sg14
I6
sg19
(lp2273
S'space'
p2274
asg94
I2
sa(dp2275
g16
(lp2276
S'd'
asg18
S'Y'
sS'.thisRepN'
p2277
I19
sg20
S'Y'
sg31
g32
sS'.thisTrialN'
p2278
I8
sS'.thisN'
p2279
I293
sS'.thisIndex'
p2280
I2
sg15
(lp2281
S'd'
asg30
VM
sg17
S'Y'
sg14
I6
sg19
(lp2282
S'space'
p2283
asg94
I2
sa(dp2284
g16
(lp2285
S'k'
asg18
S'N'
sS'.thisRepN'
p2286
I19
sg20
S'Y'
sg31
g32
sS'.thisTrialN'
p2287
I9
sS'.thisN'
p2288
I294
sS'.thisIndex'
p2289
I10
sg15
(lp2290
S'd'
asg30
VM
sg17
S'N'
sg14
I6
sg19
Nsg94
I10
sa(dp2291
g16
(lp2292
S'd'
asg18
S'N'
sS'.thisRepN'
p2293
I19
sg20
S'Y'
sg31
g32
sS'.thisTrialN'
p2294
I10
sS'.thisN'
p2295
I295
sS'.thisIndex'
p2296
I12
sg15
(lp2297
S'k'
asg30
VM
sg17
S'N'
sg14
I6
sg19
Nsg94
I12
sa(dp2298
g16
(lp2299
S'k'
asg18
S'N'
sS'.thisRepN'
p2300
I19
sg20
S'N'
sg31
g32
sS'.thisTrialN'
p2301
I11
sS'.thisN'
p2302
I296
sS'.thisIndex'
p2303
I8
sg15
(lp2304
S'd'
asg30
VM
sg17
S'N'
sg14
I6
sg19
(lp2305
S'space'
p2306
asg94
I8
sa(dp2307
g16
(lp2308
S'k'
asg18
S'Y'
sS'.thisRepN'
p2309
I19
sg20
S'N'
sg31
g32
sS'.thisTrialN'
p2310
I12
sS'.thisN'
p2311
I297
sS'.thisIndex'
p2312
I8
sg15
(lp2313
S'k'
asg30
VM
sg17
S'Y'
sg14
I6
sg19
Nsg94
I8
sa(dp2314
g16
(lp2315
S'k'
asg18
S'N'
sS'.thisRepN'
p2316
I19
sg20
S'Y'
sg31
g32
sS'.thisTrialN'
p2317
I13
sS'.thisN'
p2318
I298
sS'.thisIndex'
p2319
I8
sg15
(lp2320
S'k'
asg30
VM
sg17
S'Y'
sg14
I6
sg19
Nsg94
I8
sa(dp2321
g16
(lp2322
S'k'
asg18
S'N'
sg22
I36
sS'.thisN'
p2323
I299
sg20
S'Y'
sg31
g32
sS'.thisTrialN'
p2324
I14
sS'.thisRepN'
p2325
I19
sg21
I39
sS'.thisIndex'
p2326
I1
sg23
I25
sg15
(lp2327
S'k'
asg30
VM
sg17
S'Y'
sg14
I6
sg19
Nsg94
I1
sa(dp2328
g16
(lp2329
S'd'
asg94
I14
sS'.thisRepN'
p2330
I20
sg30
VM
sg31
g32
sS'.thisTrialN'
p2331
I0
sS'.thisN'
p2332
I300
sS'.thisIndex'
p2333
I14
sg15
(lp2334
S'd'
asg17
S'Y'
sg14
I7
sa(dp2335
g16
(lp2336
S'k'
asg94
I1
sS'.thisRepN'
p2337
I20
sg30
VM
sg31
g32
sS'.thisTrialN'
p2338
I1
sS'.thisN'
p2339
I301
sS'.thisIndex'
p2340
I1
sg15
(lp2341
S'k'
asg17
S'Y'
sg14
I7
sa(dp2342
g16
(lp2343
S'k'
asg18
S'N'
sS'.thisRepN'
p2344
I20
sg20
S'Y'
sg31
g32
sS'.thisTrialN'
p2345
I2
sS'.thisN'
p2346
I302
sS'.thisIndex'
p2347
I13
sg15
(lp2348
S'k'
asg30
VM
sg17
S'Y'
sg14
I7
sg19
Nsg94
I13
sa(dp2349
g16
(lp2350
S'k'
asg18
S'N'
sS'.thisRepN'
p2351
I20
sg20
S'Y'
sg31
g32
sS'.thisTrialN'
p2352
I3
sS'.thisN'
p2353
I303
sS'.thisIndex'
p2354
I12
sg15
(lp2355
S'k'
asg30
VM
sg17
S'Y'
sg14
I7
sg19
Nsg94
I12
sa(dp2356
g16
(lp2357
S'k'
asg18
S'Y'
sS'.thisRepN'
p2358
I20
sg20
S'N'
sg31
g32
sS'.thisTrialN'
p2359
I4
sS'.thisN'
p2360
I304
sS'.thisIndex'
p2361
I0
sg15
(lp2362
S'k'
asg30
VM
sg17
S'Y'
sg14
I7
sg19
Nsg94
I0
sa(dp2363
g16
(lp2364
S'd'
asg18
S'N'
sS'.thisRepN'
p2365
I20
sg20
S'Y'
sg31
g32
sS'.thisTrialN'
p2366
I5
sS'.thisN'
p2367
I305
sS'.thisIndex'
p2368
I3
sg15
(lp2369
S'd'
asg30
VM
sg17
S'Y'
sg14
I7
sg19
Nsg94
I3
sa(dp2370
g16
(lp2371
S'd'
asg18
S'Y'
sS'.thisRepN'
p2372
I20
sg20
S'N'
sg31
g32
sS'.thisTrialN'
p2373
I6
sS'.thisN'
p2374
I306
sS'.thisIndex'
p2375
I2
sg15
(lp2376
S'd'
asg30
VM
sg17
S'Y'
sg14
I7
sg19
Nsg94
I2
sa(dp2377
g16
(lp2378
S'd'
asg18
S'N'
sS'.thisRepN'
p2379
I20
sg20
S'Y'
sg31
g32
sS'.thisTrialN'
p2380
I7
sS'.thisN'
p2381
I307
sS'.thisIndex'
p2382
I7
sg15
(lp2383
S'd'
asg30
VM
sg17
S'Y'
sg14
I7
sg19
Nsg94
I7
sa(dp2384
g16
(lp2385
S'k'
asg18
S'N'
sS'.thisRepN'
p2386
I20
sg20
S'Y'
sg31
g32
sS'.thisTrialN'
p2387
I8
sS'.thisN'
p2388
I308
sS'.thisIndex'
p2389
I5
sg15
(lp2390
S'k'
asg30
VM
sg17
S'Y'
sg14
I7
sg19
Nsg94
I5
sa(dp2391
g16
(lp2392
S'k'
asg18
S'Y'
sS'.thisRepN'
p2393
I20
sg20
S'Y'
sg31
g32
sS'.thisTrialN'
p2394
I9
sS'.thisN'
p2395
I309
sS'.thisIndex'
p2396
I5
sg15
(lp2397
S'k'
asg30
VM
sg17
S'Y'
sg14
I7
sg19
(lp2398
S'space'
p2399
asg94
I5
sa(dp2400
g16
(lp2401
S'd'
asg18
S'N'
sS'.thisRepN'
p2402
I20
sg20
S'Y'
sg31
g32
sS'.thisTrialN'
p2403
I10
sS'.thisN'
p2404
I310
sS'.thisIndex'
p2405
I1
sg15
(lp2406
S'd'
asg30
VM
sg17
S'Y'
sg14
I7
sg19
Nsg94
I1
sa(dp2407
g16
(lp2408
S'd'
asg18
S'N'
sS'.thisRepN'
p2409
I20
sg20
S'Y'
sg31
g32
sS'.thisTrialN'
p2410
I11
sS'.thisN'
p2411
I311
sS'.thisIndex'
p2412
I2
sg15
(lp2413
S'd'
asg30
VM
sg17
S'Y'
sg14
I7
sg19
Nsg94
I2
sa(dp2414
g16
(lp2415
S'd'
asg18
S'N'
sS'.thisRepN'
p2416
I20
sg20
S'Y'
sg31
g32
sS'.thisTrialN'
p2417
I12
sS'.thisN'
p2418
I312
sS'.thisIndex'
p2419
I13
sg15
(lp2420
S'd'
asg30
VM
sg17
S'Y'
sg14
I7
sg19
Nsg94
I13
sa(dp2421
g16
(lp2422
S'k'
asg18
S'N'
sS'.thisRepN'
p2423
I20
sg20
S'Y'
sg31
g32
sS'.thisTrialN'
p2424
I13
sS'.thisN'
p2425
I313
sS'.thisIndex'
p2426
I9
sg15
(lp2427
S'k'
asg30
VM
sg17
S'Y'
sg14
I7
sg19
Nsg94
I9
sa(dp2428
g16
(lp2429
S'k'
asg18
S'Y'
sS'.thisRepN'
p2430
I20
sg20
S'Y'
sg31
g32
sS'.thisTrialN'
p2431
I14
sS'.thisN'
p2432
I314
sS'.thisIndex'
p2433
I2
sg15
(lp2434
S'k'
asg30
VM
sg17
S'Y'
sg14
I7
sg19
(lp2435
S'space'
p2436
asg94
I2
sa(dp2437
g16
(lp2438
S'k'
asg18
S'N'
sS'.thisRepN'
p2439
I21
sg20
S'Y'
sg31
g32
sS'.thisTrialN'
p2440
I0
sS'.thisN'
p2441
I315
sS'.thisIndex'
p2442
I9
sg15
(lp2443
S'k'
asg30
VM
sg17
S'Y'
sg14
I7
sg19
Nsg94
I9
sa(dp2444
g16
(lp2445
S'k'
asg18
S'Y'
sS'.thisRepN'
p2446
I21
sg20
S'N'
sg31
g32
sS'.thisTrialN'
p2447
I1
sS'.thisN'
p2448
I316
sS'.thisIndex'
p2449
I5
sg15
(lp2450
S'k'
asg30
VM
sg17
S'Y'
sg14
I7
sg19
Nsg94
I5
sa(dp2451
g16
(lp2452
S'd'
asg18
S'Y'
sS'.thisRepN'
p2453
I21
sg20
S'N'
sg31
g32
sS'.thisTrialN'
p2454
I2
sS'.thisN'
p2455
I317
sS'.thisIndex'
p2456
I13
sg15
(lp2457
S'd'
asg30
VM
sg17
S'Y'
sg14
I7
sg19
Nsg94
I13
sa(dp2458
g16
(lp2459
S'k'
asg18
S'Y'
sS'.thisRepN'
p2460
I21
sg20
S'Y'
sg31
g32
sS'.thisTrialN'
p2461
I3
sS'.thisN'
p2462
I318
sS'.thisIndex'
p2463
I12
sg15
(lp2464
S'k'
asg30
VM
sg17
S'Y'
sg14
I7
sg19
(lp2465
S'space'
p2466
asg94
I12
sa(dp2467
g16
(lp2468
S'd'
asg18
S'N'
sS'.thisRepN'
p2469
I21
sg20
S'Y'
sg31
g32
sS'.thisTrialN'
p2470
I4
sS'.thisN'
p2471
I319
sS'.thisIndex'
p2472
I11
sg15
(lp2473
S'k'
asg30
VM
sg17
S'N'
sg14
I7
sg19
Nsg94
I11
sa(dp2474
g16
(lp2475
S'k'
asg18
S'N'
sS'.thisRepN'
p2476
I21
sg20
S'Y'
sg31
g32
sS'.thisTrialN'
p2477
I5
sS'.thisN'
p2478
I320
sS'.thisIndex'
p2479
I10
sg15
(lp2480
S'd'
asg30
VM
sg17
S'N'
sg14
I7
sg19
Nsg94
I10
sa(dp2481
g16
(lp2482
S'd'
asg18
S'N'
sS'.thisRepN'
p2483
I21
sg20
S'Y'
sg31
g32
sS'.thisTrialN'
p2484
I6
sS'.thisN'
p2485
I321
sS'.thisIndex'
p2486
I12
sg15
(lp2487
S'k'
asg30
VM
sg17
S'N'
sg14
I7
sg19
Nsg94
I12
sa(dp2488
g16
(lp2489
S'd'
asg18
S'Y'
sS'.thisRepN'
p2490
I21
sg20
S'N'
sg31
g32
sS'.thisTrialN'
p2491
I7
sS'.thisN'
p2492
I322
sS'.thisIndex'
p2493
I0
sg15
(lp2494
S'd'
asg30
VM
sg17
S'Y'
sg14
I7
sg19
Nsg94
I0
sa(dp2495
g16
(lp2496
S'k'
asg18
S'Y'
sS'.thisRepN'
p2497
I21
sg20
S'Y'
sg31
g32
sS'.thisTrialN'
p2498
I8
sS'.thisN'
p2499
I323
sS'.thisIndex'
p2500
I6
sg15
(lp2501
S'k'
asg30
VM
sg17
S'Y'
sg14
I7
sg19
(lp2502
S'space'
p2503
asg94
I6
sa(dp2504
g16
(lp2505
S'd'
asg18
S'N'
sS'.thisRepN'
p2506
I21
sg20
S'Y'
sg31
g32
sS'.thisTrialN'
p2507
I9
sS'.thisN'
p2508
I324
sS'.thisIndex'
p2509
I11
sg15
(lp2510
S'd'
asg30
VM
sg17
S'Y'
sg14
I7
sg19
Nsg94
I11
sa(dp2511
g16
(lp2512
S'k'
asg18
S'Y'
sS'.thisRepN'
p2513
I21
sg20
S'N'
sg31
g32
sS'.thisTrialN'
p2514
I10
sS'.thisN'
p2515
I325
sS'.thisIndex'
p2516
I11
sg15
(lp2517
S'd'
asg30
VM
sg17
S'N'
sg14
I7
sg19
Nsg94
I11
sa(dp2518
g16
(lp2519
S'k'
asg18
S'Y'
sS'.thisRepN'
p2520
I21
sg20
S'N'
sg31
g32
sS'.thisTrialN'
p2521
I11
sS'.thisN'
p2522
I326
sS'.thisIndex'
p2523
I7
sg15
(lp2524
S'k'
asg30
VM
sg17
S'Y'
sg14
I7
sg19
Nsg94
I7
sa(dp2525
g16
(lp2526
S'd'
asg18
S'N'
sS'.thisRepN'
p2527
I21
sg20
S'Y'
sg31
g32
sS'.thisTrialN'
p2528
I12
sS'.thisN'
p2529
I327
sS'.thisIndex'
p2530
I0
sg15
(lp2531
S'd'
asg30
VM
sg17
S'Y'
sg14
I7
sg19
Nsg94
I0
sa(dp2532
g16
(lp2533
S'k'
asg18
S'Y'
sS'.thisRepN'
p2534
I21
sg20
S'Y'
sg31
g32
sS'.thisTrialN'
p2535
I13
sS'.thisN'
p2536
I328
sS'.thisIndex'
p2537
I13
sg15
(lp2538
S'k'
asg30
VM
sg17
S'Y'
sg14
I7
sg19
(lp2539
S'space'
p2540
asg94
I13
sa(dp2541
g16
(lp2542
S'd'
asg18
S'N'
sS'.thisRepN'
p2543
I21
sg20
S'Y'
sg31
g32
sS'.thisTrialN'
p2544
I14
sS'.thisN'
p2545
I329
sS'.thisIndex'
p2546
I2
sg15
(lp2547
S'd'
asg30
VM
sg17
S'Y'
sg14
I7
sg19
Nsg94
I2
sa(dp2548
g16
(lp2549
S'd'
asg18
S'Y'
sS'.thisRepN'
p2550
I22
sg20
S'N'
sg31
g32
sS'.thisTrialN'
p2551
I0
sS'.thisN'
p2552
I330
sS'.thisIndex'
p2553
I7
sg15
(lp2554
S'd'
asg30
VM
sg17
S'Y'
sg14
I7
sg19
Nsg94
I7
sa(dp2555
g16
(lp2556
S'k'
asg18
S'Y'
sS'.thisRepN'
p2557
I22
sg20
S'Y'
sg31
g32
sS'.thisTrialN'
p2558
I1
sS'.thisN'
p2559
I331
sS'.thisIndex'
p2560
I10
sg15
(lp2561
S'k'
asg30
VM
sg17
S'Y'
sg14
I7
sg19
(lp2562
S'space'
p2563
asg94
I10
sa(dp2564
g16
(lp2565
S'k'
asg18
S'N'
sS'.thisRepN'
p2566
I22
sg20
S'Y'
sg31
g32
sS'.thisTrialN'
p2567
I2
sS'.thisN'
p2568
I332
sS'.thisIndex'
p2569
I0
sg15
(lp2570
S'k'
asg30
VM
sg17
S'Y'
sg14
I7
sg19
Nsg94
I0
sa(dp2571
g16
(lp2572
S'd'
asg18
S'Y'
sS'.thisRepN'
p2573
I22
sg20
S'Y'
sg31
g32
sS'.thisTrialN'
p2574
I3
sS'.thisN'
p2575
I333
sS'.thisIndex'
p2576
I9
sg15
(lp2577
S'd'
asg30
VM
sg17
S'Y'
sg14
I7
sg19
(lp2578
S'space'
p2579
asg94
I9
sa(dp2580
g16
(lp2581
S'k'
asg18
S'N'
sS'.thisRepN'
p2582
I22
sg20
S'Y'
sg31
g32
sS'.thisTrialN'
p2583
I4
sS'.thisN'
p2584
I334
sS'.thisIndex'
p2585
I6
sg15
(lp2586
S'k'
asg30
VM
sg17
S'Y'
sg14
I7
sg19
Nsg94
I6
sa(dp2587
g16
(lp2588
S'd'
asg18
S'N'
sS'.thisRepN'
p2589
I22
sg20
S'Y'
sg31
g32
sS'.thisTrialN'
p2590
I5
sS'.thisN'
p2591
I335
sS'.thisIndex'
p2592
I14
sg15
(lp2593
S'k'
asg30
VM
sg17
S'N'
sg14
I7
sg19
Nsg94
I14
sa(dp2594
g16
(lp2595
S'd'
asg18
S'N'
sS'.thisRepN'
p2596
I22
sg20
S'Y'
sg31
g32
sS'.thisTrialN'
p2597
I6
sS'.thisN'
p2598
I336
sS'.thisIndex'
p2599
I12
sg15
(lp2600
S'k'
asg30
VM
sg17
S'N'
sg14
I7
sg19
Nsg94
I12
sa(dp2601
g16
(lp2602
S'd'
asg18
S'Y'
sS'.thisRepN'
p2603
I22
sg20
S'N'
sg31
g32
sS'.thisTrialN'
p2604
I7
sS'.thisN'
p2605
I337
sS'.thisIndex'
p2606
I11
sg15
(lp2607
S'd'
asg30
VM
sg17
S'Y'
sg14
I7
sg19
Nsg94
I11
sa(dp2608
g16
(lp2609
S'd'
asg18
S'Y'
sS'.thisRepN'
p2610
I22
sg20
S'N'
sg31
g32
sS'.thisTrialN'
p2611
I8
sS'.thisN'
p2612
I338
sS'.thisIndex'
p2613
I2
sg15
(lp2614
S'd'
asg30
VM
sg17
S'Y'
sg14
I7
sg19
Nsg94
I2
sa(dp2615
g16
(lp2616
S'k'
asg18
S'Y'
sS'.thisRepN'
p2617
I22
sg20
S'Y'
sg31
g32
sS'.thisTrialN'
p2618
I9
sS'.thisN'
p2619
I339
sS'.thisIndex'
p2620
I2
sg15
(lp2621
S'k'
asg30
VM
sg17
S'Y'
sg14
I7
sg19
(lp2622
S'space'
p2623
asg94
I2
sa(dp2624
g16
(lp2625
S'd'
asg18
S'N'
sS'.thisRepN'
p2626
I22
sg20
S'Y'
sg31
g32
sS'.thisTrialN'
p2627
I10
sS'.thisN'
p2628
I340
sS'.thisIndex'
p2629
I13
sg15
(lp2630
S'd'
asg30
VM
sg17
S'Y'
sg14
I7
sg19
Nsg94
I13
sa(dp2631
g16
(lp2632
S'd'
asg18
S'Y'
sS'.thisRepN'
p2633
I22
sg20
S'Y'
sg31
g32
sS'.thisTrialN'
p2634
I11
sS'.thisN'
p2635
I341
sS'.thisIndex'
p2636
I6
sg15
(lp2637
S'd'
asg30
VM
sg17
S'Y'
sg14
I7
sg19
(lp2638
S'space'
p2639
asg94
I6
sa(dp2640
g16
(lp2641
S'd'
asg18
S'N'
sS'.thisRepN'
p2642
I22
sg20
S'Y'
sg31
g32
sS'.thisTrialN'
p2643
I12
sS'.thisN'
p2644
I342
sS'.thisIndex'
p2645
I1
sg15
(lp2646
S'k'
asg30
VM
sg17
S'N'
sg14
I7
sg19
Nsg94
I1
sa(dp2647
g16
(lp2648
S'd'
asg18
S'Y'
sS'.thisRepN'
p2649
I22
sg20
S'N'
sg31
g32
sS'.thisTrialN'
p2650
I13
sS'.thisN'
p2651
I343
sS'.thisIndex'
p2652
I10
sg15
(lp2653
S'd'
asg30
VM
sg17
S'Y'
sg14
I7
sg19
Nsg94
I10
sa(dp2654
g16
(lp2655
S'd'
asg18
S'Y'
sS'.thisRepN'
p2656
I22
sg20
S'Y'
sg31
g32
sS'.thisTrialN'
p2657
I14
sS'.thisN'
p2658
I344
sS'.thisIndex'
p2659
I8
sg15
(lp2660
S'd'
asg30
VM
sg17
S'Y'
sg14
I7
sg19
(lp2661
S'space'
p2662
asg94
I8
sa(dp2663
g16
(lp2664
S'd'
asg18
S'N'
sS'.thisRepN'
p2665
I23
sg20
S'Y'
sg31
g32
sS'.thisTrialN'
p2666
I0
sS'.thisN'
p2667
I345
sS'.thisIndex'
p2668
I1
sg15
(lp2669
S'd'
asg30
VM
sg17
S'Y'
sg14
I7
sg19
Nsg94
I1
sa(dp2670
g16
(lp2671
S'd'
asg18
S'N'
sS'.thisRepN'
p2672
I23
sg20
S'Y'
sg31
g32
sS'.thisTrialN'
p2673
I1
sS'.thisN'
p2674
I346
sS'.thisIndex'
p2675
I0
sg15
(lp2676
S'd'
asg30
VM
sg17
S'Y'
sg14
I7
sg19
Nsg94
I0
sa(dp2677
g16
(lp2678
S'd'
asg18
S'Y'
sS'.thisRepN'
p2679
I23
sg20
S'Y'
sg31
g32
sS'.thisTrialN'
p2680
I2
sS'.thisN'
p2681
I347
sS'.thisIndex'
p2682
I8
sg15
(lp2683
S'k'
asg30
VM
sg17
S'N'
sg14
I7
sg19
(lp2684
S'space'
p2685
asg94
I8
sa(dp2686
g16
(lp2687
S'd'
asg18
S'N'
sS'.thisRepN'
p2688
I23
sg20
S'Y'
sg31
g32
sS'.thisTrialN'
p2689
I3
sS'.thisN'
p2690
I348
sS'.thisIndex'
p2691
I11
sg15
(lp2692
S'd'
asg30
VM
sg17
S'Y'
sg14
I7
sg19
Nsg94
I11
sa(dp2693
g16
(lp2694
S'd'
asg18
S'Y'
sg22
I36
sS'.thisN'
p2695
I349
sg20
S'N'
sg31
g32
sS'.thisTrialN'
p2696
I4
sS'.thisRepN'
p2697
I23
sg21
I42
sS'.thisIndex'
p2698
I9
sg23
I23
sg15
(lp2699
S'd'
asg30
VM
sg17
S'Y'
sg14
I7
sg19
Nsg94
I9
sa(dp2700
g16
(lp2701
S'k'
asg94
I1
sS'.thisRepN'
p2702
I23
sg30
VM
sg31
g32
sS'.thisTrialN'
p2703
I5
sS'.thisN'
p2704
I350
sS'.thisIndex'
p2705
I1
sg15
(lp2706
S'k'
asg17
S'Y'
sg14
I8
sa(dp2707
g16
(lp2708
S'k'
asg94
I1
sS'.thisRepN'
p2709
I23
sg30
VM
sg31
g32
sS'.thisTrialN'
p2710
I6
sS'.thisN'
p2711
I351
sS'.thisIndex'
p2712
I1
sg15
(lp2713
S'k'
asg17
S'Y'
sg14
I8
sa(dp2714
g16
(lp2715
S'd'
asg18
S'N'
sS'.thisRepN'
p2716
I23
sg20
S'Y'
sg31
g32
sS'.thisTrialN'
p2717
I7
sS'.thisN'
p2718
I352
sS'.thisIndex'
p2719
I5
sg15
(lp2720
S'd'
asg30
VM
sg17
S'Y'
sg14
I8
sg19
Nsg94
I5
sa(dp2721
g16
(lp2722
S'k'
asg18
S'Y'
sS'.thisRepN'
p2723
I23
sg20
S'Y'
sg31
g32
sS'.thisTrialN'
p2724
I8
sS'.thisN'
p2725
I353
sS'.thisIndex'
p2726
I14
sg15
(lp2727
S'k'
asg30
VM
sg17
S'Y'
sg14
I8
sg19
(lp2728
S'space'
p2729
asg94
I14
sa(dp2730
g16
(lp2731
S'k'
asg18
S'Y'
sS'.thisRepN'
p2732
I23
sg20
S'N'
sg31
g32
sS'.thisTrialN'
p2733
I9
sS'.thisN'
p2734
I354
sS'.thisIndex'
p2735
I9
sg15
(lp2736
S'k'
asg30
VM
sg17
S'Y'
sg14
I8
sg19
Nsg94
I9
sa(dp2737
g16
(lp2738
S'd'
asg18
S'Y'
sS'.thisRepN'
p2739
I23
sg20
S'N'
sg31
g32
sS'.thisTrialN'
p2740
I10
sS'.thisN'
p2741
I355
sS'.thisIndex'
p2742
I12
sg15
(lp2743
S'd'
asg30
VM
sg17
S'Y'
sg14
I8
sg19
Nsg94
I12
sa(dp2744
g16
(lp2745
S'd'
asg18
S'Y'
sS'.thisRepN'
p2746
I23
sg20
S'N'
sg31
g32
sS'.thisTrialN'
p2747
I11
sS'.thisN'
p2748
I356
sS'.thisIndex'
p2749
I3
sg15
(lp2750
S'd'
asg30
VM
sg17
S'Y'
sg14
I8
sg19
Nsg94
I3
sa(dp2751
g16
(lp2752
S'd'
asg18
S'Y'
sS'.thisRepN'
p2753
I23
sg20
S'N'
sg31
g32
sS'.thisTrialN'
p2754
I12
sS'.thisN'
p2755
I357
sS'.thisIndex'
p2756
I8
sg15
(lp2757
S'k'
asg30
VM
sg17
S'N'
sg14
I8
sg19
Nsg94
I8
sa(dp2758
g16
(lp2759
S'k'
asg18
S'Y'
sS'.thisRepN'
p2760
I23
sg20
S'Y'
sg31
g32
sS'.thisTrialN'
p2761
I13
sS'.thisN'
p2762
I358
sS'.thisIndex'
p2763
I4
sg15
(lp2764
S'k'
asg30
VM
sg17
S'Y'
sg14
I8
sg19
(lp2765
S'space'
p2766
asg94
I4
sa(dp2767
g16
(lp2768
S'd'
asg18
S'Y'
sS'.thisRepN'
p2769
I23
sg20
S'Y'
sg31
g32
sS'.thisTrialN'
p2770
I14
sS'.thisN'
p2771
I359
sS'.thisIndex'
p2772
I12
sg15
(lp2773
S'd'
asg30
VM
sg17
S'Y'
sg14
I8
sg19
(lp2774
S'space'
p2775
asg94
I12
sa(dp2776
g16
(lp2777
S'd'
asg18
S'N'
sS'.thisRepN'
p2778
I24
sg20
S'Y'
sg31
g32
sS'.thisTrialN'
p2779
I0
sS'.thisN'
p2780
I360
sS'.thisIndex'
p2781
I8
sg15
(lp2782
S'k'
asg30
VM
sg17
S'N'
sg14
I8
sg19
Nsg94
I8
sa(dp2783
g16
(lp2784
S'd'
asg18
S'Y'
sS'.thisRepN'
p2785
I24
sg20
S'N'
sg31
g32
sS'.thisTrialN'
p2786
I1
sS'.thisN'
p2787
I361
sS'.thisIndex'
p2788
I5
sg15
(lp2789
S'd'
asg30
VM
sg17
S'Y'
sg14
I8
sg19
Nsg94
I5
sa(dp2790
g16
(lp2791
S'k'
asg18
S'Y'
sS'.thisRepN'
p2792
I24
sg20
S'Y'
sg31
g32
sS'.thisTrialN'
p2793
I2
sS'.thisN'
p2794
I362
sS'.thisIndex'
p2795
I9
sg15
(lp2796
S'k'
asg30
VM
sg17
S'Y'
sg14
I8
sg19
(lp2797
S'space'
p2798
asg94
I9
sa(dp2799
g16
(lp2800
S'k'
asg18
S'Y'
sS'.thisRepN'
p2801
I24
sg20
S'Y'
sg31
g32
sS'.thisTrialN'
p2802
I3
sS'.thisN'
p2803
I363
sS'.thisIndex'
p2804
I6
sg15
(lp2805
S'k'
asg30
VM
sg17
S'Y'
sg14
I8
sg19
(lp2806
S'space'
p2807
asg94
I6
sa(dp2808
g16
(lp2809
S'd'
asg18
S'Y'
sS'.thisRepN'
p2810
I24
sg20
S'N'
sg31
g32
sS'.thisTrialN'
p2811
I4
sS'.thisN'
p2812
I364
sS'.thisIndex'
p2813
I12
sg15
(lp2814
S'd'
asg30
VM
sg17
S'Y'
sg14
I8
sg19
Nsg94
I12
sa(dp2815
g16
(lp2816
S'd'
asg18
S'Y'
sS'.thisRepN'
p2817
I24
sg20
S'N'
sg31
g32
sS'.thisTrialN'
p2818
I5
sS'.thisN'
p2819
I365
sS'.thisIndex'
p2820
I8
sg15
(lp2821
S'd'
asg30
VM
sg17
S'Y'
sg14
I8
sg19
Nsg94
I8
sa(dp2822
g16
(lp2823
S'd'
asg18
S'Y'
sS'.thisRepN'
p2824
I24
sg20
S'N'
sg31
g32
sS'.thisTrialN'
p2825
I6
sS'.thisN'
p2826
I366
sS'.thisIndex'
p2827
I0
sg15
(lp2828
S'k'
asg30
VM
sg17
S'N'
sg14
I8
sg19
Nsg94
I0
sa(dp2829
g16
(lp2830
S'd'
asg18
S'Y'
sS'.thisRepN'
p2831
I24
sg20
S'Y'
sg31
g32
sS'.thisTrialN'
p2832
I7
sS'.thisN'
p2833
I367
sS'.thisIndex'
p2834
I10
sg15
(lp2835
S'd'
asg30
VM
sg17
S'Y'
sg14
I8
sg19
(lp2836
S'space'
p2837
asg94
I10
sa(dp2838
g16
(lp2839
S'k'
asg18
S'Y'
sS'.thisRepN'
p2840
I24
sg20
S'Y'
sg31
g32
sS'.thisTrialN'
p2841
I8
sS'.thisN'
p2842
I368
sS'.thisIndex'
p2843
I0
sg15
(lp2844
S'd'
asg30
VM
sg17
S'N'
sg14
I8
sg19
(lp2845
S'space'
p2846
asg94
I0
sa(dp2847
g16
(lp2848
S'd'
asg18
S'N'
sS'.thisRepN'
p2849
I24
sg20
S'Y'
sg31
g32
sS'.thisTrialN'
p2850
I9
sS'.thisN'
p2851
I369
sS'.thisIndex'
p2852
I11
sg15
(lp2853
S'd'
asg30
VM
sg17
S'Y'
sg14
I8
sg19
Nsg94
I11
sa(dp2854
g16
(lp2855
S'k'
asg18
S'N'
sS'.thisRepN'
p2856
I24
sg20
S'Y'
sg31
g32
sS'.thisTrialN'
p2857
I10
sS'.thisN'
p2858
I370
sS'.thisIndex'
p2859
I4
sg15
(lp2860
S'k'
asg30
VM
sg17
S'Y'
sg14
I8
sg19
Nsg94
I4
sa(dp2861
g16
(lp2862
S'k'
asg18
S'N'
sS'.thisRepN'
p2863
I24
sg20
S'Y'
sg31
g32
sS'.thisTrialN'
p2864
I11
sS'.thisN'
p2865
I371
sS'.thisIndex'
p2866
I13
sg15
(lp2867
S'k'
asg30
VM
sg17
S'Y'
sg14
I8
sg19
Nsg94
I13
sa(dp2868
g16
(lp2869
S'k'
asg18
S'N'
sS'.thisRepN'
p2870
I24
sg20
S'Y'
sg31
g32
sS'.thisTrialN'
p2871
I12
sS'.thisN'
p2872
I372
sS'.thisIndex'
p2873
I12
sg15
(lp2874
S'k'
asg30
VM
sg17
S'Y'
sg14
I8
sg19
Nsg94
I12
sa(dp2875
g16
(lp2876
S'd'
asg18
S'Y'
sS'.thisRepN'
p2877
I24
sg20
S'N'
sg31
g32
sS'.thisTrialN'
p2878
I13
sS'.thisN'
p2879
I373
sS'.thisIndex'
p2880
I1
sg15
(lp2881
S'd'
asg30
VM
sg17
S'Y'
sg14
I8
sg19
Nsg94
I1
sa(dp2882
g16
(lp2883
S'k'
asg18
S'N'
sS'.thisRepN'
p2884
I24
sg20
S'Y'
sg31
g32
sS'.thisTrialN'
p2885
I14
sS'.thisN'
p2886
I374
sS'.thisIndex'
p2887
I7
sg15
(lp2888
S'k'
asg30
VM
sg17
S'Y'
sg14
I8
sg19
Nsg94
I7
sa(dp2889
g16
(lp2890
S'k'
asg18
S'N'
sS'.thisRepN'
p2891
I25
sg20
S'Y'
sg31
g32
sS'.thisTrialN'
p2892
I0
sS'.thisN'
p2893
I375
sS'.thisIndex'
p2894
I10
sg15
(lp2895
S'k'
asg30
VM
sg17
S'Y'
sg14
I8
sg19
Nsg94
I10
sa(dp2896
g16
(lp2897
S'k'
asg18
S'N'
sS'.thisRepN'
p2898
I25
sg20
S'Y'
sg31
g32
sS'.thisTrialN'
p2899
I1
sS'.thisN'
p2900
I376
sS'.thisIndex'
p2901
I4
sg15
(lp2902
S'k'
asg30
VM
sg17
S'Y'
sg14
I8
sg19
Nsg94
I4
sa(dp2903
g16
(lp2904
S'k'
asg18
S'Y'
sS'.thisRepN'
p2905
I25
sg20
S'Y'
sg31
g32
sS'.thisTrialN'
p2906
I2
sS'.thisN'
p2907
I377
sS'.thisIndex'
p2908
I6
sg15
(lp2909
S'k'
asg30
VM
sg17
S'Y'
sg14
I8
sg19
(lp2910
S'space'
p2911
asg94
I6
sa(dp2912
g16
(lp2913
S'd'
asg18
S'N'
sS'.thisRepN'
p2914
I25
sg20
S'Y'
sg31
g32
sS'.thisTrialN'
p2915
I3
sS'.thisN'
p2916
I378
sS'.thisIndex'
p2917
I4
sg15
(lp2918
S'd'
asg30
VM
sg17
S'Y'
sg14
I8
sg19
Nsg94
I4
sa(dp2919
g16
(lp2920
S'd'
asg18
S'N'
sS'.thisRepN'
p2921
I25
sg20
S'Y'
sg31
g32
sS'.thisTrialN'
p2922
I4
sS'.thisN'
p2923
I379
sS'.thisIndex'
p2924
I2
sg15
(lp2925
S'd'
asg30
VM
sg17
S'Y'
sg14
I8
sg19
Nsg94
I2
sa(dp2926
g16
(lp2927
S'k'
asg18
S'N'
sS'.thisRepN'
p2928
I25
sg20
S'Y'
sg31
g32
sS'.thisTrialN'
p2929
I5
sS'.thisN'
p2930
I380
sS'.thisIndex'
p2931
I13
sg15
(lp2932
S'k'
asg30
VM
sg17
S'Y'
sg14
I8
sg19
Nsg94
I13
sa(dp2933
g16
(lp2934
S'd'
asg18
S'N'
sS'.thisRepN'
p2935
I25
sg20
S'N'
sg31
g32
sS'.thisTrialN'
p2936
I6
sS'.thisN'
p2937
I381
sS'.thisIndex'
p2938
I4
sg15
(lp2939
S'd'
asg30
VM
sg17
S'Y'
sg14
I8
sg19
(lp2940
S'space'
p2941
asg94
I4
sa(dp2942
g16
(lp2943
S'd'
asg18
S'N'
sS'.thisRepN'
p2944
I25
sg20
S'Y'
sg31
g32
sS'.thisTrialN'
p2945
I7
sS'.thisN'
p2946
I382
sS'.thisIndex'
p2947
I9
sg15
(lp2948
S'd'
asg30
VM
sg17
S'Y'
sg14
I8
sg19
Nsg94
I9
sa(dp2949
g16
(lp2950
S'd'
asg18
S'N'
sS'.thisRepN'
p2951
I25
sg20
S'N'
sg31
g32
sS'.thisTrialN'
p2952
I8
sS'.thisN'
p2953
I383
sS'.thisIndex'
p2954
I2
sg15
(lp2955
S'd'
asg30
VM
sg17
S'Y'
sg14
I8
sg19
(lp2956
S'space'
p2957
asg94
I2
sa(dp2958
g16
(lp2959
S'd'
asg18
S'Y'
sS'.thisRepN'
p2960
I25
sg20
S'Y'
sg31
g32
sS'.thisTrialN'
p2961
I9
sS'.thisN'
p2962
I384
sS'.thisIndex'
p2963
I2
sg15
(lp2964
S'd'
asg30
VM
sg17
S'Y'
sg14
I8
sg19
(lp2965
S'space'
p2966
asg94
I2
sa(dp2967
g16
(lp2968
S'd'
asg18
S'N'
sS'.thisRepN'
p2969
I25
sg20
S'Y'
sg31
g32
sS'.thisTrialN'
p2970
I10
sS'.thisN'
p2971
I385
sS'.thisIndex'
p2972
I7
sg15
(lp2973
S'd'
asg30
VM
sg17
S'Y'
sg14
I8
sg19
Nsg94
I7
sa(dp2974
g16
(lp2975
S'd'
asg18
S'N'
sS'.thisRepN'
p2976
I25
sg20
S'Y'
sg31
g32
sS'.thisTrialN'
p2977
I11
sS'.thisN'
p2978
I386
sS'.thisIndex'
p2979
I7
sg15
(lp2980
S'd'
asg30
VM
sg17
S'Y'
sg14
I8
sg19
Nsg94
I7
sa(dp2981
g16
(lp2982
S'd'
asg18
S'N'
sS'.thisRepN'
p2983
I25
sg20
S'Y'
sg31
g32
sS'.thisTrialN'
p2984
I12
sS'.thisN'
p2985
I387
sS'.thisIndex'
p2986
I8
sg15
(lp2987
S'k'
asg30
VM
sg17
S'N'
sg14
I8
sg19
Nsg94
I8
sa(dp2988
g16
(lp2989
S'd'
asg18
S'Y'
sS'.thisRepN'
p2990
I25
sg20
S'N'
sg31
g32
sS'.thisTrialN'
p2991
I13
sS'.thisN'
p2992
I388
sS'.thisIndex'
p2993
I2
sg15
(lp2994
S'd'
asg30
VM
sg17
S'Y'
sg14
I8
sg19
Nsg94
I2
sa(dp2995
g16
(lp2996
S'k'
asg18
S'Y'
sS'.thisRepN'
p2997
I25
sg20
S'Y'
sg31
g32
sS'.thisTrialN'
p2998
I14
sS'.thisN'
p2999
I389
sS'.thisIndex'
p3000
I1
sg15
(lp3001
S'k'
asg30
VM
sg17
S'Y'
sg14
I8
sg19
(lp3002
S'space'
p3003
asg94
I1
sa(dp3004
g16
(lp3005
S'd'
asg18
S'Y'
sS'.thisRepN'
p3006
I26
sg20
S'N'
sg31
g32
sS'.thisTrialN'
p3007
I0
sS'.thisN'
p3008
I390
sS'.thisIndex'
p3009
I14
sg15
(lp3010
S'd'
asg30
VM
sg17
S'Y'
sg14
I8
sg19
Nsg94
I14
sa(dp3011
g16
(lp3012
S'd'
asg18
S'N'
sS'.thisRepN'
p3013
I26
sg20
S'Y'
sg31
g32
sS'.thisTrialN'
p3014
I1
sS'.thisN'
p3015
I391
sS'.thisIndex'
p3016
I7
sg15
(lp3017
S'd'
asg30
VM
sg17
S'Y'
sg14
I8
sg19
Nsg94
I7
sa(dp3018
g16
(lp3019
S'k'
asg18
S'Y'
sS'.thisRepN'
p3020
I26
sg20
S'Y'
sg31
g32
sS'.thisTrialN'
p3021
I2
sS'.thisN'
p3022
I392
sS'.thisIndex'
p3023
I6
sg15
(lp3024
S'k'
asg30
VM
sg17
S'Y'
sg14
I8
sg19
(lp3025
S'space'
p3026
asg94
I6
sa(dp3027
g16
(lp3028
S'd'
asg18
S'Y'
sS'.thisRepN'
p3029
I26
sg20
S'Y'
sg31
g32
sS'.thisTrialN'
p3030
I3
sS'.thisN'
p3031
I393
sS'.thisIndex'
p3032
I3
sg15
(lp3033
S'd'
asg30
VM
sg17
S'Y'
sg14
I8
sg19
(lp3034
S'space'
p3035
asg94
I3
sa(dp3036
g16
(lp3037
S'k'
asg18
S'Y'
sS'.thisRepN'
p3038
I26
sg20
S'Y'
sg31
g32
sS'.thisTrialN'
p3039
I4
sS'.thisN'
p3040
I394
sS'.thisIndex'
p3041
I4
sg15
(lp3042
S'k'
asg30
VM
sg17
S'Y'
sg14
I8
sg19
(lp3043
S'space'
p3044
asg94
I4
sa(dp3045
g16
(lp3046
S'd'
asg18
S'N'
sS'.thisRepN'
p3047
I26
sg20
S'Y'
sg31
g32
sS'.thisTrialN'
p3048
I5
sS'.thisN'
p3049
I395
sS'.thisIndex'
p3050
I14
sg15
(lp3051
S'd'
asg30
VM
sg17
S'Y'
sg14
I8
sg19
Nsg94
I14
sa(dp3052
g16
(lp3053
S'd'
asg18
S'N'
sS'.thisRepN'
p3054
I26
sg20
S'Y'
sg31
g32
sS'.thisTrialN'
p3055
I6
sS'.thisN'
p3056
I396
sS'.thisIndex'
p3057
I1
sg15
(lp3058
S'd'
asg30
VM
sg17
S'Y'
sg14
I8
sg19
Nsg94
I1
sa(dp3059
g16
(lp3060
S'd'
asg18
S'N'
sS'.thisRepN'
p3061
I26
sg20
S'Y'
sg31
g32
sS'.thisTrialN'
p3062
I7
sS'.thisN'
p3063
I397
sS'.thisIndex'
p3064
I0
sg15
(lp3065
S'd'
asg30
VM
sg17
S'Y'
sg14
I8
sg19
Nsg94
I0
sa(dp3066
g16
(lp3067
S'k'
asg18
S'N'
sS'.thisRepN'
p3068
I26
sg20
S'Y'
sg31
g32
sS'.thisTrialN'
p3069
I8
sS'.thisN'
p3070
I398
sS'.thisIndex'
p3071
I14
sg15
(lp3072
S'k'
asg30
VM
sg17
S'Y'
sg14
I8
sg19
Nsg94
I14
sa(dp3073
g16
(lp3074
S'd'
asg18
S'N'
sg22
I34
sS'.thisN'
p3075
I399
sg20
S'N'
sg31
g32
sS'.thisTrialN'
p3076
I9
sS'.thisRepN'
p3077
I26
sg21
I45
sS'.thisIndex'
p3078
I1
sg23
I24
sg15
(lp3079
S'd'
asg30
VM
sg17
S'Y'
sg14
I8
sg19
(lp3080
S'space'
p3081
asg94
I1
sa(dp3082
g16
(lp3083
S'd'
asg94
I0
sS'.thisRepN'
p3084
I26
sg30
VM
sg31
g32
sS'.thisTrialN'
p3085
I10
sS'.thisN'
p3086
I400
sS'.thisIndex'
p3087
I0
sg15
(lp3088
S'd'
asg17
S'Y'
sg14
I9
sa(dp3089
g16
(lp3090
S'd'
asg94
I0
sS'.thisRepN'
p3091
I26
sg30
VM
sg31
g32
sS'.thisTrialN'
p3092
I11
sS'.thisN'
p3093
I401
sS'.thisIndex'
p3094
I0
sg15
(lp3095
S'k'
asg17
S'N'
sg14
I9
sa(dp3096
g16
(lp3097
S'k'
asg18
S'Y'
sS'.thisRepN'
p3098
I26
sg20
S'Y'
sg31
g32
sS'.thisTrialN'
p3099
I12
sS'.thisN'
p3100
I402
sS'.thisIndex'
p3101
I8
sg15
(lp3102
S'k'
asg30
VM
sg17
S'Y'
sg14
I9
sg19
(lp3103
S'space'
p3104
asg94
I8
sa(dp3105
g16
(lp3106
S'd'
asg18
S'N'
sS'.thisRepN'
p3107
I26
sg20
S'Y'
sg31
g32
sS'.thisTrialN'
p3108
I13
sS'.thisN'
p3109
I403
sS'.thisIndex'
p3110
I9
sg15
(lp3111
S'k'
asg30
VM
sg17
S'N'
sg14
I9
sg19
Nsg94
I9
sa(dp3112
g16
(lp3113
S'd'
asg18
S'N'
sS'.thisRepN'
p3114
I26
sg20
S'Y'
sg31
g32
sS'.thisTrialN'
p3115
I14
sS'.thisN'
p3116
I404
sS'.thisIndex'
p3117
I5
sg15
(lp3118
S'k'
asg30
VM
sg17
S'N'
sg14
I9
sg19
Nsg94
I5
sa(dp3119
g16
(lp3120
S'k'
asg18
S'N'
sS'.thisRepN'
p3121
I27
sg20
S'Y'
sg31
g32
sS'.thisTrialN'
p3122
I0
sS'.thisN'
p3123
I405
sS'.thisIndex'
p3124
I11
sg15
(lp3125
S'k'
asg30
VM
sg17
S'Y'
sg14
I9
sg19
Nsg94
I11
sa(dp3126
g16
(lp3127
S'd'
asg18
S'N'
sS'.thisRepN'
p3128
I27
sg20
S'Y'
sg31
g32
sS'.thisTrialN'
p3129
I1
sS'.thisN'
p3130
I406
sS'.thisIndex'
p3131
I13
sg15
(lp3132
S'k'
asg30
VM
sg17
S'N'
sg14
I9
sg19
Nsg94
I13
sa(dp3133
g16
(lp3134
S'k'
asg18
S'Y'
sS'.thisRepN'
p3135
I27
sg20
S'N'
sg31
g32
sS'.thisTrialN'
p3136
I2
sS'.thisN'
p3137
I407
sS'.thisIndex'
p3138
I4
sg15
(lp3139
S'k'
asg30
VM
sg17
S'Y'
sg14
I9
sg19
Nsg94
I4
sa(dp3140
g16
(lp3141
S'd'
asg18
S'N'
sS'.thisRepN'
p3142
I27
sg20
S'Y'
sg31
g32
sS'.thisTrialN'
p3143
I3
sS'.thisN'
p3144
I408
sS'.thisIndex'
p3145
I5
sg15
(lp3146
S'd'
asg30
VM
sg17
S'Y'
sg14
I9
sg19
Nsg94
I5
sa(dp3147
g16
(lp3148
S'k'
asg18
S'N'
sS'.thisRepN'
p3149
I27
sg20
S'Y'
sg31
g32
sS'.thisTrialN'
p3150
I4
sS'.thisN'
p3151
I409
sS'.thisIndex'
p3152
I9
sg15
(lp3153
S'd'
asg30
VM
sg17
S'N'
sg14
I9
sg19
Nsg94
I9
sa(dp3154
g16
(lp3155
S'k'
asg18
S'Y'
sS'.thisRepN'
p3156
I27
sg20
S'N'
sg31
g32
sS'.thisTrialN'
p3157
I5
sS'.thisN'
p3158
I410
sS'.thisIndex'
p3159
I5
sg15
(lp3160
S'd'
asg30
VM
sg17
S'N'
sg14
I9
sg19
Nsg94
I5
sa(dp3161
g16
(lp3162
S'k'
asg18
S'N'
sS'.thisRepN'
p3163
I27
sg20
S'Y'
sg31
g32
sS'.thisTrialN'
p3164
I6
sS'.thisN'
p3165
I411
sS'.thisIndex'
p3166
I1
sg15
(lp3167
S'k'
asg30
VM
sg17
S'Y'
sg14
I9
sg19
Nsg94
I1
sa(dp3168
g16
(lp3169
S'k'
asg18
S'N'
sS'.thisRepN'
p3170
I27
sg20
S'Y'
sg31
g32
sS'.thisTrialN'
p3171
I7
sS'.thisN'
p3172
I412
sS'.thisIndex'
p3173
I0
sg15
(lp3174
S'k'
asg30
VM
sg17
S'Y'
sg14
I9
sg19
Nsg94
I0
sa(dp3175
g16
(lp3176
S'd'
asg18
S'Y'
sS'.thisRepN'
p3177
I27
sg20
S'Y'
sg31
g32
sS'.thisTrialN'
p3178
I8
sS'.thisN'
p3179
I413
sS'.thisIndex'
p3180
I7
sg15
(lp3181
S'd'
asg30
VM
sg17
S'Y'
sg14
I9
sg19
(lp3182
S'space'
p3183
asg94
I7
sa(dp3184
g16
(lp3185
S'k'
asg18
S'Y'
sS'.thisRepN'
p3186
I27
sg20
S'Y'
sg31
g32
sS'.thisTrialN'
p3187
I9
sS'.thisN'
p3188
I414
sS'.thisIndex'
p3189
I5
sg15
(lp3190
S'k'
asg30
VM
sg17
S'Y'
sg14
I9
sg19
(lp3191
S'space'
p3192
asg94
I5
sa(dp3193
g16
(lp3194
S'k'
asg18
S'N'
sS'.thisRepN'
p3195
I27
sg20
S'Y'
sg31
g32
sS'.thisTrialN'
p3196
I10
sS'.thisN'
p3197
I415
sS'.thisIndex'
p3198
I8
sg15
(lp3199
S'k'
asg30
VM
sg17
S'Y'
sg14
I9
sg19
Nsg94
I8
sa(dp3200
g16
(lp3201
S'd'
asg18
S'N'
sS'.thisRepN'
p3202
I27
sg20
S'Y'
sg31
g32
sS'.thisTrialN'
p3203
I11
sS'.thisN'
p3204
I416
sS'.thisIndex'
p3205
I3
sg15
(lp3206
S'd'
asg30
VM
sg17
S'Y'
sg14
I9
sg19
Nsg94
I3
sa(dp3207
g16
(lp3208
S'k'
asg18
S'Y'
sS'.thisRepN'
p3209
I27
sg20
S'Y'
sg31
g32
sS'.thisTrialN'
p3210
I12
sS'.thisN'
p3211
I417
sS'.thisIndex'
p3212
I8
sg15
(lp3213
S'k'
asg30
VM
sg17
S'Y'
sg14
I9
sg19
(lp3214
S'space'
p3215
asg94
I8
sa(dp3216
g16
(lp3217
S'd'
asg18
S'N'
sS'.thisRepN'
p3218
I27
sg20
S'Y'
sg31
g32
sS'.thisTrialN'
p3219
I13
sS'.thisN'
p3220
I418
sS'.thisIndex'
p3221
I3
sg15
(lp3222
S'd'
asg30
VM
sg17
S'Y'
sg14
I9
sg19
Nsg94
I3
sa(dp3223
g16
(lp3224
S'd'
asg18
S'Y'
sS'.thisRepN'
p3225
I27
sg20
S'N'
sg31
g32
sS'.thisTrialN'
p3226
I14
sS'.thisN'
p3227
I419
sS'.thisIndex'
p3228
I3
sg15
(lp3229
S'd'
asg30
VM
sg17
S'Y'
sg14
I9
sg19
Nsg94
I3
sa(dp3230
g16
(lp3231
S'k'
asg18
S'Y'
sS'.thisRepN'
p3232
I28
sg20
S'Y'
sg31
g32
sS'.thisTrialN'
p3233
I0
sS'.thisN'
p3234
I420
sS'.thisIndex'
p3235
I10
sg15
(lp3236
S'd'
asg30
VM
sg17
S'N'
sg14
I9
sg19
(lp3237
S'space'
p3238
asg94
I10
sa(dp3239
g16
(lp3240
S'd'
asg18
S'N'
sS'.thisRepN'
p3241
I28
sg20
S'Y'
sg31
g32
sS'.thisTrialN'
p3242
I1
sS'.thisN'
p3243
I421
sS'.thisIndex'
p3244
I4
sg15
(lp3245
S'd'
asg30
VM
sg17
S'Y'
sg14
I9
sg19
Nsg94
I4
sa(dp3246
g16
(lp3247
S'd'
asg18
S'Y'
sS'.thisRepN'
p3248
I28
sg20
S'Y'
sg31
g32
sS'.thisTrialN'
p3249
I2
sS'.thisN'
p3250
I422
sS'.thisIndex'
p3251
I9
sg15
(lp3252
S'd'
asg30
VM
sg17
S'Y'
sg14
I9
sg19
(lp3253
S'space'
p3254
asg94
I9
sa(dp3255
g16
(lp3256
S'd'
asg18
S'N'
sS'.thisRepN'
p3257
I28
sg20
S'Y'
sg31
g32
sS'.thisTrialN'
p3258
I3
sS'.thisN'
p3259
I423
sS'.thisIndex'
p3260
I14
sg15
(lp3261
S'k'
asg30
VM
sg17
S'N'
sg14
I9
sg19
Nsg94
I14
sa(dp3262
g16
(lp3263
S'k'
asg18
S'N'
sS'.thisRepN'
p3264
I28
sg20
S'Y'
sg31
g32
sS'.thisTrialN'
p3265
I4
sS'.thisN'
p3266
I424
sS'.thisIndex'
p3267
I1
sg15
(lp3268
S'k'
asg30
VM
sg17
S'Y'
sg14
I9
sg19
Nsg94
I1
sa(dp3269
g16
(lp3270
S'd'
asg18
S'N'
sS'.thisRepN'
p3271
I28
sg20
S'Y'
sg31
g32
sS'.thisTrialN'
p3272
I5
sS'.thisN'
p3273
I425
sS'.thisIndex'
p3274
I13
sg15
(lp3275
S'd'
asg30
VM
sg17
S'Y'
sg14
I9
sg19
Nsg94
I13
sa(dp3276
g16
(lp3277
S'd'
asg18
S'N'
sS'.thisRepN'
p3278
I28
sg20
S'Y'
sg31
g32
sS'.thisTrialN'
p3279
I6
sS'.thisN'
p3280
I426
sS'.thisIndex'
p3281
I1
sg15
(lp3282
S'd'
asg30
VM
sg17
S'Y'
sg14
I9
sg19
Nsg94
I1
sa(dp3283
g16
(lp3284
S'k'
asg18
S'Y'
sS'.thisRepN'
p3285
I28
sg20
S'Y'
sg31
g32
sS'.thisTrialN'
p3286
I7
sS'.thisN'
p3287
I427
sS'.thisIndex'
p3288
I4
sg15
(lp3289
S'k'
asg30
VM
sg17
S'Y'
sg14
I9
sg19
(lp3290
S'space'
p3291
asg94
I4
sa(dp3292
g16
(lp3293
S'd'
asg18
S'Y'
sS'.thisRepN'
p3294
I28
sg20
S'N'
sg31
g32
sS'.thisTrialN'
p3295
I8
sS'.thisN'
p3296
I428
sS'.thisIndex'
p3297
I4
sg15
(lp3298
S'd'
asg30
VM
sg17
S'Y'
sg14
I9
sg19
Nsg94
I4
sa(dp3299
g16
(lp3300
S'd'
asg18
S'Y'
sS'.thisRepN'
p3301
I28
sg20
S'Y'
sg31
g32
sS'.thisTrialN'
p3302
I9
sS'.thisN'
p3303
I429
sS'.thisIndex'
p3304
I3
sg15
(lp3305
S'd'
asg30
VM
sg17
S'Y'
sg14
I9
sg19
(lp3306
S'space'
p3307
asg94
I3
sa(dp3308
g16
(lp3309
S'd'
asg18
S'Y'
sS'.thisRepN'
p3310
I28
sg20
S'N'
sg31
g32
sS'.thisTrialN'
p3311
I10
sS'.thisN'
p3312
I430
sS'.thisIndex'
p3313
I13
sg15
(lp3314
S'd'
asg30
VM
sg17
S'Y'
sg14
I9
sg19
Nsg94
I13
sa(dp3315
g16
(lp3316
S'k'
asg18
S'Y'
sS'.thisRepN'
p3317
I28
sg20
S'N'
sg31
g32
sS'.thisTrialN'
p3318
I11
sS'.thisN'
p3319
I431
sS'.thisIndex'
p3320
I9
sg15
(lp3321
S'k'
asg30
VM
sg17
S'Y'
sg14
I9
sg19
Nsg94
I9
sa(dp3322
g16
(lp3323
S'k'
asg18
S'N'
sS'.thisRepN'
p3324
I28
sg20
S'Y'
sg31
g32
sS'.thisTrialN'
p3325
I12
sS'.thisN'
p3326
I432
sS'.thisIndex'
p3327
I11
sg15
(lp3328
S'd'
asg30
VM
sg17
S'N'
sg14
I9
sg19
Nsg94
I11
sa(dp3329
g16
(lp3330
S'k'
asg18
S'N'
sS'.thisRepN'
p3331
I28
sg20
S'Y'
sg31
g32
sS'.thisTrialN'
p3332
I13
sS'.thisN'
p3333
I433
sS'.thisIndex'
p3334
I4
sg15
(lp3335
S'k'
asg30
VM
sg17
S'Y'
sg14
I9
sg19
Nsg94
I4
sa(dp3336
g16
(lp3337
S'k'
asg18
S'Y'
sS'.thisRepN'
p3338
I28
sg20
S'N'
sg31
g32
sS'.thisTrialN'
p3339
I14
sS'.thisN'
p3340
I434
sS'.thisIndex'
p3341
I5
sg15
(lp3342
S'd'
asg30
VM
sg17
S'N'
sg14
I9
sg19
Nsg94
I5
sa(dp3343
g16
(lp3344
S'd'
asg18
S'Y'
sS'.thisRepN'
p3345
I29
sg20
S'Y'
sg31
g32
sS'.thisTrialN'
p3346
I0
sS'.thisN'
p3347
I435
sS'.thisIndex'
p3348
I12
sg15
(lp3349
S'k'
asg30
VM
sg17
S'N'
sg14
I9
sg19
(lp3350
S'space'
p3351
asg94
I12
sa(dp3352
g16
(lp3353
S'k'
asg18
S'N'
sS'.thisRepN'
p3354
I29
sg20
S'Y'
sg31
g32
sS'.thisTrialN'
p3355
I1
sS'.thisN'
p3356
I436
sS'.thisIndex'
p3357
I12
sg15
(lp3358
S'k'
asg30
VM
sg17
S'Y'
sg14
I9
sg19
Nsg94
I12
sa(dp3359
g16
(lp3360
S'd'
asg18
S'Y'
sS'.thisRepN'
p3361
I29
sg20
S'Y'
sg31
g32
sS'.thisTrialN'
p3362
I2
sS'.thisN'
p3363
I437
sS'.thisIndex'
p3364
I11
sg15
(lp3365
S'd'
asg30
VM
sg17
S'Y'
sg14
I9
sg19
(lp3366
S'space'
p3367
asg94
I11
sa(dp3368
g16
(lp3369
S'k'
asg18
S'N'
sS'.thisRepN'
p3370
I29
sg20
S'Y'
sg31
g32
sS'.thisTrialN'
p3371
I3
sS'.thisN'
p3372
I438
sS'.thisIndex'
p3373
I6
sg15
(lp3374
S'k'
asg30
VM
sg17
S'Y'
sg14
I9
sg19
Nsg94
I6
sa(dp3375
g16
(lp3376
S'k'
asg18
S'Y'
sS'.thisRepN'
p3377
I29
sg20
S'N'
sg31
g32
sS'.thisTrialN'
p3378
I4
sS'.thisN'
p3379
I439
sS'.thisIndex'
p3380
I1
sg15
(lp3381
S'k'
asg30
VM
sg17
S'Y'
sg14
I9
sg19
Nsg94
I1
sa(dp3382
g16
(lp3383
S'k'
asg18
S'N'
sS'.thisRepN'
p3384
I29
sg20
S'Y'
sg31
g32
sS'.thisTrialN'
p3385
I5
sS'.thisN'
p3386
I440
sS'.thisIndex'
p3387
I7
sg15
(lp3388
S'k'
asg30
VM
sg17
S'Y'
sg14
I9
sg19
Nsg94
I7
sa(dp3389
g16
(lp3390
S'd'
asg18
S'N'
sS'.thisRepN'
p3391
I29
sg20
S'Y'
sg31
g32
sS'.thisTrialN'
p3392
I6
sS'.thisN'
p3393
I441
sS'.thisIndex'
p3394
I6
sg15
(lp3395
S'd'
asg30
VM
sg17
S'Y'
sg14
I9
sg19
Nsg94
I6
sa(dp3396
g16
(lp3397
S'd'
asg18
S'Y'
sS'.thisRepN'
p3398
I29
sg20
S'N'
sg31
g32
sS'.thisTrialN'
p3399
I7
sS'.thisN'
p3400
I442
sS'.thisIndex'
p3401
I3
sg15
(lp3402
S'd'
asg30
VM
sg17
S'Y'
sg14
I9
sg19
Nsg94
I3
sa(dp3403
g16
(lp3404
S'd'
asg18
S'N'
sS'.thisRepN'
p3405
I29
sg20
S'Y'
sg31
g32
sS'.thisTrialN'
p3406
I8
sS'.thisN'
p3407
I443
sS'.thisIndex'
p3408
I12
sg15
(lp3409
S'd'
asg30
VM
sg17
S'Y'
sg14
I9
sg19
Nsg94
I12
sa(dp3410
g16
(lp3411
S'k'
asg18
S'N'
sS'.thisRepN'
p3412
I29
sg20
S'Y'
sg31
g32
sS'.thisTrialN'
p3413
I9
sS'.thisN'
p3414
I444
sS'.thisIndex'
p3415
I5
sg15
(lp3416
S'd'
asg30
VM
sg17
S'N'
sg14
I9
sg19
Nsg94
I5
sa(dp3417
g16
(lp3418
S'k'
asg18
S'Y'
sS'.thisRepN'
p3419
I29
sg20
S'Y'
sg31
g32
sS'.thisTrialN'
p3420
I10
sS'.thisN'
p3421
I445
sS'.thisIndex'
p3422
I14
sg15
(lp3423
S'k'
asg30
VM
sg17
S'Y'
sg14
I9
sg19
(lp3424
S'space'
p3425
asg94
I14
sa(dp3426
g16
(lp3427
S'k'
asg18
S'Y'
sS'.thisRepN'
p3428
I29
sg20
S'N'
sg31
g32
sS'.thisTrialN'
p3429
I11
sS'.thisN'
p3430
I446
sS'.thisIndex'
p3431
I0
sg15
(lp3432
S'k'
asg30
VM
sg17
S'Y'
sg14
I9
sg19
Nsg94
I0
sa(dp3433
g16
(lp3434
S'd'
asg18
S'N'
sS'.thisRepN'
p3435
I29
sg20
S'Y'
sg31
g32
sS'.thisTrialN'
p3436
I12
sS'.thisN'
p3437
I447
sS'.thisIndex'
p3438
I7
sg15
(lp3439
S'k'
asg30
VM
sg17
S'N'
sg14
I9
sg19
Nsg94
I7
sa(dp3440
g16
(lp3441
S'd'
asg18
S'Y'
sS'.thisRepN'
p3442
I29
sg20
S'N'
sg31
g32
sS'.thisTrialN'
p3443
I13
sS'.thisN'
p3444
I448
sS'.thisIndex'
p3445
I6
sg15
(lp3446
S'k'
asg30
VM
sg17
S'N'
sg14
I9
sg19
Nsg94
I6
sa(dp3447
g16
(lp3448
S'k'
asg18
S'Y'
sg22
I36
sS'.thisN'
p3449
I449
sg20
S'N'
sg31
g32
sS'.thisTrialN'
p3450
I14
sS'.thisRepN'
p3451
I29
sg21
I36
sS'.thisIndex'
p3452
I5
sg23
I23
sg15
(lp3453
S'k'
asg30
VM
sg17
S'Y'
sg14
I9
sg19
Nsg94
I5
sa(dp3454
g16
(lp3455
S'k'
asg94
I5
sS'.thisRepN'
p3456
I30
sg30
VM
sg31
g32
sS'.thisTrialN'
p3457
I0
sS'.thisN'
p3458
I450
sS'.thisIndex'
p3459
I5
sg15
(lp3460
S'd'
asg17
S'N'
sg14
I10
sa(dp3461
g16
(lp3462
S'd'
asg94
I7
sS'.thisRepN'
p3463
I30
sg30
VM
sg31
g32
sS'.thisTrialN'
p3464
I1
sS'.thisN'
p3465
I451
sS'.thisIndex'
p3466
I7
sg15
(lp3467
S'd'
asg17
S'Y'
sg14
I10
sa(dp3468
g16
(lp3469
S'k'
asg18
S'N'
sS'.thisRepN'
p3470
I30
sg20
S'Y'
sg31
g32
sS'.thisTrialN'
p3471
I2
sS'.thisN'
p3472
I452
sS'.thisIndex'
p3473
I5
sg15
(lp3474
S'k'
asg30
VM
sg17
S'Y'
sg14
I10
sg19
Nsg94
I5
sa(dp3475
g16
(lp3476
S'd'
asg18
S'Y'
sS'.thisRepN'
p3477
I30
sg20
S'Y'
sg31
g32
sS'.thisTrialN'
p3478
I3
sS'.thisN'
p3479
I453
sS'.thisIndex'
p3480
I14
sg15
(lp3481
S'd'
asg30
VM
sg17
S'Y'
sg14
I10
sg19
(lp3482
S'space'
p3483
asg94
I14
sa(dp3484
g16
(lp3485
S'd'
asg18
S'Y'
sS'.thisRepN'
p3486
I30
sg20
S'Y'
sg31
g32
sS'.thisTrialN'
p3487
I4
sS'.thisN'
p3488
I454
sS'.thisIndex'
p3489
I11
sg15
(lp3490
S'd'
asg30
VM
sg17
S'Y'
sg14
I10
sg19
(lp3491
S'space'
p3492
asg94
I11
sa(dp3493
g16
(lp3494
S'k'
asg18
S'Y'
sS'.thisRepN'
p3495
I30
sg20
S'Y'
sg31
g32
sS'.thisTrialN'
p3496
I5
sS'.thisN'
p3497
I455
sS'.thisIndex'
p3498
I4
sg15
(lp3499
S'k'
asg30
VM
sg17
S'Y'
sg14
I10
sg19
(lp3500
S'space'
p3501
asg94
I4
sa(dp3502
g16
(lp3503
S'k'
asg18
S'Y'
sS'.thisRepN'
p3504
I30
sg20
S'N'
sg31
g32
sS'.thisTrialN'
p3505
I6
sS'.thisN'
p3506
I456
sS'.thisIndex'
p3507
I6
sg15
(lp3508
S'k'
asg30
VM
sg17
S'Y'
sg14
I10
sg19
Nsg94
I6
sa(dp3509
g16
(lp3510
S'k'
asg18
S'Y'
sS'.thisRepN'
p3511
I30
sg20
S'Y'
sg31
g32
sS'.thisTrialN'
p3512
I7
sS'.thisN'
p3513
I457
sS'.thisIndex'
p3514
I8
sg15
(lp3515
S'k'
asg30
VM
sg17
S'Y'
sg14
I10
sg19
(lp3516
S'space'
p3517
asg94
I8
sa(dp3518
g16
(lp3519
S'd'
asg18
S'N'
sS'.thisRepN'
p3520
I30
sg20
S'Y'
sg31
g32
sS'.thisTrialN'
p3521
I8
sS'.thisN'
p3522
I458
sS'.thisIndex'
p3523
I3
sg15
(lp3524
S'd'
asg30
VM
sg17
S'Y'
sg14
I10
sg19
Nsg94
I3
sa(dp3525
g16
(lp3526
S'd'
asg18
S'Y'
sS'.thisRepN'
p3527
I30
sg20
S'Y'
sg31
g32
sS'.thisTrialN'
p3528
I9
sS'.thisN'
p3529
I459
sS'.thisIndex'
p3530
I1
sg15
(lp3531
S'd'
asg30
VM
sg17
S'Y'
sg14
I10
sg19
(lp3532
S'space'
p3533
asg94
I1
sa(dp3534
g16
(lp3535
S'd'
asg18
S'N'
sS'.thisRepN'
p3536
I30
sg20
S'Y'
sg31
g32
sS'.thisTrialN'
p3537
I10
sS'.thisN'
p3538
I460
sS'.thisIndex'
p3539
I3
sg15
(lp3540
S'd'
asg30
VM
sg17
S'Y'
sg14
I10
sg19
Nsg94
I3
sa(dp3541
g16
(lp3542
S'd'
asg18
S'N'
sS'.thisRepN'
p3543
I30
sg20
S'Y'
sg31
g32
sS'.thisTrialN'
p3544
I11
sS'.thisN'
p3545
I461
sS'.thisIndex'
p3546
I10
sg15
(lp3547
S'd'
asg30
VM
sg17
S'Y'
sg14
I10
sg19
Nsg94
I10
sa(dp3548
g16
(lp3549
S'k'
asg18
S'Y'
sS'.thisRepN'
p3550
I30
sg20
S'N'
sg31
g32
sS'.thisTrialN'
p3551
I12
sS'.thisN'
p3552
I462
sS'.thisIndex'
p3553
I12
sg15
(lp3554
S'k'
asg30
VM
sg17
S'Y'
sg14
I10
sg19
Nsg94
I12
sa(dp3555
g16
(lp3556
S'k'
asg18
S'N'
sS'.thisRepN'
p3557
I30
sg20
S'Y'
sg31
g32
sS'.thisTrialN'
p3558
I13
sS'.thisN'
p3559
I463
sS'.thisIndex'
p3560
I10
sg15
(lp3561
S'd'
asg30
VM
sg17
S'N'
sg14
I10
sg19
Nsg94
I10
sa(dp3562
g16
(lp3563
S'd'
asg18
S'Y'
sS'.thisRepN'
p3564
I30
sg20
S'Y'
sg31
g32
sS'.thisTrialN'
p3565
I14
sS'.thisN'
p3566
I464
sS'.thisIndex'
p3567
I8
sg15
(lp3568
S'd'
asg30
VM
sg17
S'Y'
sg14
I10
sg19
(lp3569
S'space'
p3570
asg94
I8
sa(dp3571
g16
(lp3572
S'k'
asg18
S'Y'
sS'.thisRepN'
p3573
I31
sg20
S'N'
sg31
g32
sS'.thisTrialN'
p3574
I0
sS'.thisN'
p3575
I465
sS'.thisIndex'
p3576
I10
sg15
(lp3577
S'k'
asg30
VM
sg17
S'Y'
sg14
I10
sg19
Nsg94
I10
sa(dp3578
g16
(lp3579
S'k'
asg18
S'Y'
sS'.thisRepN'
p3580
I31
sg20
S'Y'
sg31
g32
sS'.thisTrialN'
p3581
I1
sS'.thisN'
p3582
I466
sS'.thisIndex'
p3583
I4
sg15
(lp3584
S'k'
asg30
VM
sg17
S'Y'
sg14
I10
sg19
(lp3585
S'space'
p3586
asg94
I4
sa(dp3587
g16
(lp3588
S'k'
asg18
S'Y'
sS'.thisRepN'
p3589
I31
sg20
S'N'
sg31
g32
sS'.thisTrialN'
p3590
I2
sS'.thisN'
p3591
I467
sS'.thisIndex'
p3592
I0
sg15
(lp3593
S'd'
asg30
VM
sg17
S'N'
sg14
I10
sg19
Nsg94
I0
sa(dp3594
g16
(lp3595
S'd'
asg18
S'Y'
sS'.thisRepN'
p3596
I31
sg20
S'N'
sg31
g32
sS'.thisTrialN'
p3597
I3
sS'.thisN'
p3598
I468
sS'.thisIndex'
p3599
I9
sg15
(lp3600
S'd'
asg30
VM
sg17
S'Y'
sg14
I10
sg19
Nsg94
I9
sa(dp3601
g16
(lp3602
S'k'
asg18
S'Y'
sS'.thisRepN'
p3603
I31
sg20
S'N'
sg31
g32
sS'.thisTrialN'
p3604
I4
sS'.thisN'
p3605
I469
sS'.thisIndex'
p3606
I14
sg15
(lp3607
S'd'
asg30
VM
sg17
S'N'
sg14
I10
sg19
Nsg94
I14
sa(dp3608
g16
(lp3609
S'd'
asg18
S'Y'
sS'.thisRepN'
p3610
I31
sg20
S'Y'
sg31
g32
sS'.thisTrialN'
p3611
I5
sS'.thisN'
p3612
I470
sS'.thisIndex'
p3613
I13
sg15
(lp3614
S'k'
asg30
VM
sg17
S'N'
sg14
I10
sg19
(lp3615
S'space'
p3616
asg94
I13
sa(dp3617
g16
(lp3618
S'd'
asg18
S'N'
sS'.thisRepN'
p3619
I31
sg20
S'Y'
sg31
g32
sS'.thisTrialN'
p3620
I6
sS'.thisN'
p3621
I471
sS'.thisIndex'
p3622
I12
sg15
(lp3623
S'k'
asg30
VM
sg17
S'N'
sg14
I10
sg19
Nsg94
I12
sa(dp3624
g16
(lp3625
S'd'
asg18
S'Y'
sS'.thisRepN'
p3626
I31
sg20
S'N'
sg31
g32
sS'.thisTrialN'
p3627
I7
sS'.thisN'
p3628
I472
sS'.thisIndex'
p3629
I9
sg15
(lp3630
S'd'
asg30
VM
sg17
S'Y'
sg14
I10
sg19
Nsg94
I9
sa(dp3631
g16
(lp3632
S'k'
asg18
S'Y'
sS'.thisRepN'
p3633
I31
sg20
S'N'
sg31
g32
sS'.thisTrialN'
p3634
I8
sS'.thisN'
p3635
I473
sS'.thisIndex'
p3636
I6
sg15
(lp3637
S'k'
asg30
VM
sg17
S'Y'
sg14
I10
sg19
Nsg94
I6
sa(dp3638
g16
(lp3639
S'd'
asg18
S'N'
sS'.thisRepN'
p3640
I31
sg20
S'Y'
sg31
g32
sS'.thisTrialN'
p3641
I9
sS'.thisN'
p3642
I474
sS'.thisIndex'
p3643
I8
sg15
(lp3644
S'd'
asg30
VM
sg17
S'Y'
sg14
I10
sg19
Nsg94
I8
sa(dp3645
g16
(lp3646
S'd'
asg18
S'N'
sS'.thisRepN'
p3647
I31
sg20
S'Y'
sg31
g32
sS'.thisTrialN'
p3648
I10
sS'.thisN'
p3649
I475
sS'.thisIndex'
p3650
I10
sg15
(lp3651
S'd'
asg30
VM
sg17
S'Y'
sg14
I10
sg19
Nsg94
I10
sa(dp3652
g16
(lp3653
S'k'
asg18
S'Y'
sS'.thisRepN'
p3654
I31
sg20
S'N'
sg31
g32
sS'.thisTrialN'
p3655
I11
sS'.thisN'
p3656
I476
sS'.thisIndex'
p3657
I13
sg15
(lp3658
S'd'
asg30
VM
sg17
S'N'
sg14
I10
sg19
Nsg94
I13
sa(dp3659
g16
(lp3660
S'k'
asg18
S'N'
sS'.thisRepN'
p3661
I31
sg20
S'Y'
sg31
g32
sS'.thisTrialN'
p3662
I12
sS'.thisN'
p3663
I477
sS'.thisIndex'
p3664
I13
sg15
(lp3665
S'd'
asg30
VM
sg17
S'N'
sg14
I10
sg19
Nsg94
I13
sa(dp3666
g16
(lp3667
S'k'
asg18
S'Y'
sS'.thisRepN'
p3668
I31
sg20
S'Y'
sg31
g32
sS'.thisTrialN'
p3669
I13
sS'.thisN'
p3670
I478
sS'.thisIndex'
p3671
I2
sg15
(lp3672
S'k'
asg30
VM
sg17
S'Y'
sg14
I10
sg19
(lp3673
S'space'
p3674
asg94
I2
sa(dp3675
g16
(lp3676
S'd'
asg18
S'N'
sS'.thisRepN'
p3677
I31
sg20
S'Y'
sg31
g32
sS'.thisTrialN'
p3678
I14
sS'.thisN'
p3679
I479
sS'.thisIndex'
p3680
I10
sg15
(lp3681
S'd'
asg30
VM
sg17
S'Y'
sg14
I10
sg19
Nsg94
I10
sa(dp3682
g16
(lp3683
S'd'
asg18
S'N'
sS'.thisRepN'
p3684
I32
sg20
S'N'
sg31
g32
sS'.thisTrialN'
p3685
I0
sS'.thisN'
p3686
I480
sS'.thisIndex'
p3687
I8
sg15
(lp3688
S'd'
asg30
VM
sg17
S'Y'
sg14
I10
sg19
(lp3689
S'space'
p3690
asg94
I8
sa(dp3691
g16
(lp3692
S'd'
asg18
S'Y'
sS'.thisRepN'
p3693
I32
sg20
S'N'
sg31
g32
sS'.thisTrialN'
p3694
I1
sS'.thisN'
p3695
I481
sS'.thisIndex'
p3696
I8
sg15
(lp3697
S'k'
asg30
VM
sg17
S'N'
sg14
I10
sg19
Nsg94
I8
sa(dp3698
g16
(lp3699
S'k'
asg18
S'Y'
sS'.thisRepN'
p3700
I32
sg20
S'Y'
sg31
g32
sS'.thisTrialN'
p3701
I2
sS'.thisN'
p3702
I482
sS'.thisIndex'
p3703
I5
sg15
(lp3704
S'k'
asg30
VM
sg17
S'Y'
sg14
I10
sg19
(lp3705
S'space'
p3706
asg94
I5
sa(dp3707
g16
(lp3708
S'k'
asg18
S'Y'
sS'.thisRepN'
p3709
I32
sg20
S'N'
sg31
g32
sS'.thisTrialN'
p3710
I3
sS'.thisN'
p3711
I483
sS'.thisIndex'
p3712
I4
sg15
(lp3713
S'k'
asg30
VM
sg17
S'Y'
sg14
I10
sg19
Nsg94
I4
sa(dp3714
g16
(lp3715
S'd'
asg18
S'N'
sS'.thisRepN'
p3716
I32
sg20
S'Y'
sg31
g32
sS'.thisTrialN'
p3717
I4
sS'.thisN'
p3718
I484
sS'.thisIndex'
p3719
I4
sg15
(lp3720
S'k'
asg30
VM
sg17
S'N'
sg14
I10
sg19
Nsg94
I4
sa(dp3721
g16
(lp3722
S'd'
asg18
S'Y'
sS'.thisRepN'
p3723
I32
sg20
S'Y'
sg31
g32
sS'.thisTrialN'
p3724
I5
sS'.thisN'
p3725
I485
sS'.thisIndex'
p3726
I7
sg15
(lp3727
S'd'
asg30
VM
sg17
S'Y'
sg14
I10
sg19
(lp3728
S'space'
p3729
asg94
I7
sa(dp3730
g16
(lp3731
S'k'
asg18
S'N'
sS'.thisRepN'
p3732
I32
sg20
S'Y'
sg31
g32
sS'.thisTrialN'
p3733
I6
sS'.thisN'
p3734
I486
sS'.thisIndex'
p3735
I8
sg15
(lp3736
S'k'
asg30
VM
sg17
S'Y'
sg14
I10
sg19
Nsg94
I8
sa(dp3737
g16
(lp3738
S'k'
asg18
S'Y'
sS'.thisRepN'
p3739
I32
sg20
S'N'
sg31
g32
sS'.thisTrialN'
p3740
I7
sS'.thisN'
p3741
I487
sS'.thisIndex'
p3742
I2
sg15
(lp3743
S'k'
asg30
VM
sg17
S'Y'
sg14
I10
sg19
Nsg94
I2
sa(dp3744
g16
(lp3745
S'd'
asg18
S'N'
sS'.thisRepN'
p3746
I32
sg20
S'Y'
sg31
g32
sS'.thisTrialN'
p3747
I8
sS'.thisN'
p3748
I488
sS'.thisIndex'
p3749
I0
sg15
(lp3750
S'd'
asg30
VM
sg17
S'Y'
sg14
I10
sg19
Nsg94
I0
sa(dp3751
g16
(lp3752
S'k'
asg18
S'Y'
sS'.thisRepN'
p3753
I32
sg20
S'Y'
sg31
g32
sS'.thisTrialN'
p3754
I9
sS'.thisN'
p3755
I489
sS'.thisIndex'
p3756
I6
sg15
(lp3757
S'd'
asg30
VM
sg17
S'N'
sg14
I10
sg19
(lp3758
S'space'
p3759
asg94
I6
sa(dp3760
g16
(lp3761
S'k'
asg18
S'Y'
sS'.thisRepN'
p3762
I32
sg20
S'Y'
sg31
g32
sS'.thisTrialN'
p3763
I10
sS'.thisN'
p3764
I490
sS'.thisIndex'
p3765
I8
sg15
(lp3766
S'k'
asg30
VM
sg17
S'Y'
sg14
I10
sg19
(lp3767
S'space'
p3768
asg94
I8
sa(dp3769
g16
(lp3770
S'd'
asg18
S'N'
sS'.thisRepN'
p3771
I32
sg20
S'Y'
sg31
g32
sS'.thisTrialN'
p3772
I11
sS'.thisN'
p3773
I491
sS'.thisIndex'
p3774
I6
sg15
(lp3775
S'd'
asg30
VM
sg17
S'Y'
sg14
I10
sg19
Nsg94
I6
sa(dp3776
g16
(lp3777
S'd'
asg18
S'N'
sS'.thisRepN'
p3778
I32
sg20
S'Y'
sg31
g32
sS'.thisTrialN'
p3779
I12
sS'.thisN'
p3780
I492
sS'.thisIndex'
p3781
I2
sg15
(lp3782
S'd'
asg30
VM
sg17
S'Y'
sg14
I10
sg19
Nsg94
I2
sa(dp3783
g16
(lp3784
S'k'
asg18
S'N'
sS'.thisRepN'
p3785
I32
sg20
S'Y'
sg31
g32
sS'.thisTrialN'
p3786
I13
sS'.thisN'
p3787
I493
sS'.thisIndex'
p3788
I8
sg15
(lp3789
S'k'
asg30
VM
sg17
S'Y'
sg14
I10
sg19
Nsg94
I8
sa(dp3790
g16
(lp3791
S'd'
asg18
S'N'
sS'.thisRepN'
p3792
I32
sg20
S'Y'
sg31
g32
sS'.thisTrialN'
p3793
I14
sS'.thisN'
p3794
I494
sS'.thisIndex'
p3795
I14
sg15
(lp3796
S'd'
asg30
VM
sg17
S'Y'
sg14
I10
sg19
Nsg94
I14
sa(dp3797
g16
(lp3798
S'k'
asg18
S'N'
sS'.thisRepN'
p3799
I33
sg20
S'Y'
sg31
g32
sS'.thisTrialN'
p3800
I0
sS'.thisN'
p3801
I495
sS'.thisIndex'
p3802
I6
sg15
(lp3803
S'k'
asg30
VM
sg17
S'Y'
sg14
I10
sg19
Nsg94
I6
sa(dp3804
g16
(lp3805
S'k'
asg18
S'N'
sS'.thisRepN'
p3806
I33
sg20
S'Y'
sg31
g32
sS'.thisTrialN'
p3807
I1
sS'.thisN'
p3808
I496
sS'.thisIndex'
p3809
I8
sg15
(lp3810
S'k'
asg30
VM
sg17
S'Y'
sg14
I10
sg19
Nsg94
I8
sa(dp3811
g16
(lp3812
S'd'
asg18
S'N'
sS'.thisRepN'
p3813
I33
sg20
S'Y'
sg31
g32
sS'.thisTrialN'
p3814
I2
sS'.thisN'
p3815
I497
sS'.thisIndex'
p3816
I11
sg15
(lp3817
S'd'
asg30
VM
sg17
S'Y'
sg14
I10
sg19
Nsg94
I11
sa(dp3818
g16
(lp3819
S'k'
asg18
S'N'
sS'.thisRepN'
p3820
I33
sg20
S'Y'
sg31
g32
sS'.thisTrialN'
p3821
I3
sS'.thisN'
p3822
I498
sS'.thisIndex'
p3823
I10
sg15
(lp3824
S'k'
asg30
VM
sg17
S'Y'
sg14
I10
sg19
Nsg94
I10
sa(dp3825
g16
(lp3826
S'd'
asg18
S'N'
sg22
I34
sS'.thisN'
p3827
I499
sg20
S'N'
sg31
g32
sS'.thisTrialN'
p3828
I4
sS'.thisRepN'
p3829
I33
sg21
I39
sS'.thisIndex'
p3830
I14
sg23
I25
sg15
(lp3831
S'd'
asg30
VM
sg17
S'Y'
sg14
I10
sg19
(lp3832
S'space'
p3833
asg94
I14
sa(dp3834
S'.thisIndex'
p3835
I10
sS'.thisRepN'
p3836
I33
sg26
S'Y'
sg30
VM
sg31
g32
sS'.thisTrialN'
p3837
I5
sS'.thisN'
p3838
I500
sg25
S'Y'
sg24
S'Y'
sg15
Nsg17
g119
sg14
I11
sg94
I10
sa(dp3839
g16
(lp3840
S'd'
asS'.thisIndex'
p3841
I14
sS'.thisRepN'
p3842
I33
sg26
S'Y'
sg30
VM
sg31
g32
sS'.thisTrialN'
p3843
I6
sS'.thisN'
p3844
I501
sg25
S'Y'
sg15
(lp3845
S'k'
asg17
S'Y'
sg14
I11
sg94
I14
sa(dp3846
g16
(lp3847
S'k'
asg18
S'N'
sS'.thisRepN'
p3848
I33
sg26
S'Y'
sg20
S'Y'
sg31
g32
sS'.thisTrialN'
p3849
I7
sS'.thisN'
p3850
I502
sg25
S'Y'
sg15
(lp3851
S'd'
asg30
VM
sg17
S'Y'
sg14
I11
sg19
Nsg94
I2
sS'.thisIndex'
p3852
I2
sa(dp3853
g18
S'Y'
sS'.thisRepN'
p3854
I33
sg26
S'Y'
sg20
S'Y'
sg31
g32
sS'.thisTrialN'
p3855
I8
sS'.thisN'
p3856
I503
sg25
S'Y'
sg15
Nsg30
VM
sg17
g119
sg14
I11
sg19
(lp3857
S'space'
p3858
asg94
I14
sS'.thisIndex'
p3859
I14
sa(dp3860
g16
(lp3861
S'k'
asg18
S'Y'
sS'.thisRepN'
p3862
I33
sg26
S'Y'
sg20
S'Y'
sg31
g32
sS'.thisTrialN'
p3863
I9
sS'.thisN'
p3864
I504
sg25
S'Y'
sg15
(lp3865
S'd'
asg30
VM
sg17
S'Y'
sg14
I11
sg19
(lp3866
S'space'
p3867
asg94
I1
sS'.thisIndex'
p3868
I1
sa(dp3869
g16
(lp3870
S'd'
asg18
S'Y'
sS'.thisRepN'
p3871
I33
sg26
S'Y'
sg20
S'N'
sg31
g32
sS'.thisTrialN'
p3872
I10
sS'.thisN'
p3873
I505
sg25
S'Y'
sg15
(lp3874
S'k'
asg30
VM
sg17
S'Y'
sg14
I11
sg19
Nsg94
I14
sS'.thisIndex'
p3875
I14
sa(dp3876
g16
(lp3877
S'k'
asg18
S'Y'
sS'.thisRepN'
p3878
I33
sg26
S'Y'
sg20
S'Y'
sg31
g32
sS'.thisTrialN'
p3879
I11
sS'.thisN'
p3880
I506
sg25
S'Y'
sg15
(lp3881
S'd'
asg30
VM
sg17
S'Y'
sg14
I11
sg19
(lp3882
S'space'
p3883
asg94
I12
sS'.thisIndex'
p3884
I12
sa(dp3885
g16
(lp3886
S'd'
asg18
S'Y'
sS'.thisRepN'
p3887
I33
sg26
S'Y'
sg20
S'Y'
sg31
g32
sS'.thisTrialN'
p3888
I12
sS'.thisN'
p3889
I507
sg25
S'Y'
sg15
(lp3890
S'k'
asg30
VM
sg17
S'Y'
sg14
I11
sg19
(lp3891
S'space'
p3892
asg94
I14
sS'.thisIndex'
p3893
I14
sa(dp3894
g16
(lp3895
S'k'
asg18
S'Y'
sS'.thisRepN'
p3896
I33
sg26
S'Y'
sg20
S'Y'
sg31
g32
sS'.thisTrialN'
p3897
I13
sS'.thisN'
p3898
I508
sg25
S'Y'
sg15
(lp3899
S'd'
asg30
VM
sg17
S'Y'
sg14
I11
sg19
(lp3900
S'space'
p3901
asg94
I0
sS'.thisIndex'
p3902
I0
sa(dp3903
g16
(lp3904
S'd'
asg18
S'Y'
sS'.thisRepN'
p3905
I33
sg26
S'Y'
sg20
S'N'
sg31
g32
sS'.thisTrialN'
p3906
I14
sS'.thisN'
p3907
I509
sg25
S'Y'
sg15
(lp3908
S'k'
asg30
VM
sg17
S'Y'
sg14
I11
sg19
Nsg94
I10
sS'.thisIndex'
p3909
I10
sa(dp3910
g16
(lp3911
S'd'
asg18
S'Y'
sS'.thisRepN'
p3912
I34
sg26
S'Y'
sg20
S'Y'
sg31
g32
sS'.thisTrialN'
p3913
I0
sS'.thisN'
p3914
I510
sg25
S'Y'
sg15
(lp3915
S'k'
asg30
VM
sg17
S'Y'
sg14
I11
sg19
(lp3916
S'space'
p3917
asg94
I12
sS'.thisIndex'
p3918
I12
sa(dp3919
g16
(lp3920
S'd'
asg18
S'N'
sS'.thisRepN'
p3921
I34
sg26
S'Y'
sg20
S'Y'
sg31
g32
sS'.thisTrialN'
p3922
I1
sS'.thisN'
p3923
I511
sg25
S'Y'
sg15
(lp3924
S'd'
asg30
VM
sg17
S'N'
sg14
I11
sg19
Nsg94
I14
sS'.thisIndex'
p3925
I14
sa(dp3926
g16
(lp3927
S'd'
asg18
S'N'
sS'.thisRepN'
p3928
I34
sg26
S'Y'
sg20
S'Y'
sg31
g32
sS'.thisTrialN'
p3929
I2
sS'.thisN'
p3930
I512
sg25
S'Y'
sg15
(lp3931
S'k'
asg30
VM
sg17
S'Y'
sg14
I11
sg19
Nsg94
I10
sS'.thisIndex'
p3932
I10
sa(dp3933
g18
S'N'
sS'.thisRepN'
p3934
I34
sg26
S'Y'
sg20
S'Y'
sg31
g32
sS'.thisTrialN'
p3935
I3
sS'.thisN'
p3936
I513
sg25
S'Y'
sg15
Nsg30
VM
sg17
g119
sg14
I11
sg19
Nsg94
I1
sS'.thisIndex'
p3937
I1
sa(dp3938
g16
(lp3939
S'd'
asg18
S'N'
sS'.thisRepN'
p3940
I34
sg26
S'Y'
sg20
S'Y'
sg31
g32
sS'.thisTrialN'
p3941
I4
sS'.thisN'
p3942
I514
sg25
S'Y'
sg15
(lp3943
S'k'
asg30
VM
sg17
S'Y'
sg14
I11
sg19
Nsg94
I5
sS'.thisIndex'
p3944
I5
sa(dp3945
g16
(lp3946
S'd'
asg18
S'Y'
sS'.thisRepN'
p3947
I34
sg26
S'Y'
sg20
S'Y'
sg31
g32
sS'.thisTrialN'
p3948
I5
sS'.thisN'
p3949
I515
sg25
S'Y'
sg15
(lp3950
S'k'
asg30
VM
sg17
S'Y'
sg14
I11
sg19
(lp3951
S'space'
p3952
asg94
I12
sS'.thisIndex'
p3953
I12
sa(dp3954
g16
(lp3955
S'k'
asg18
S'Y'
sS'.thisRepN'
p3956
I34
sg26
S'Y'
sg20
S'Y'
sg31
g32
sS'.thisTrialN'
p3957
I6
sS'.thisN'
p3958
I516
sg25
S'Y'
sg15
(lp3959
S'd'
asg30
VM
sg17
S'Y'
sg14
I11
sg19
(lp3960
S'space'
p3961
asg94
I5
sS'.thisIndex'
p3962
I5
sa(dp3963
g16
(lp3964
S'd'
asg18
S'N'
sS'.thisRepN'
p3965
I34
sg26
S'Y'
sg20
S'Y'
sg31
g32
sS'.thisTrialN'
p3966
I7
sS'.thisN'
p3967
I517
sg25
S'Y'
sg15
(lp3968
S'k'
asg30
VM
sg17
S'Y'
sg14
I11
sg19
Nsg94
I13
sS'.thisIndex'
p3969
I13
sa(dp3970
g16
(lp3971
S'd'
asg18
S'N'
sS'.thisRepN'
p3972
I34
sg26
S'Y'
sg20
S'Y'
sg31
g32
sS'.thisTrialN'
p3973
I8
sS'.thisN'
p3974
I518
sg25
S'Y'
sg15
(lp3975
S'k'
asg30
VM
sg17
S'Y'
sg14
I11
sg19
Nsg94
I4
sS'.thisIndex'
p3976
I4
sa(dp3977
g16
(lp3978
S'd'
asg18
S'N'
sS'.thisRepN'
p3979
I34
sg26
S'Y'
sg20
S'Y'
sg31
g32
sS'.thisTrialN'
p3980
I9
sS'.thisN'
p3981
I519
sg25
S'Y'
sg15
(lp3982
S'k'
asg30
VM
sg17
S'Y'
sg14
I11
sg19
Nsg94
I0
sS'.thisIndex'
p3983
I0
sa(dp3984
g16
(lp3985
S'k'
asg18
S'Y'
sS'.thisRepN'
p3986
I34
sg26
S'Y'
sg20
S'Y'
sg31
g32
sS'.thisTrialN'
p3987
I10
sS'.thisN'
p3988
I520
sg25
S'Y'
sg15
(lp3989
S'd'
asg30
VM
sg17
S'Y'
sg14
I11
sg19
(lp3990
S'space'
p3991
asg94
I2
sS'.thisIndex'
p3992
I2
sa(dp3993
g16
(lp3994
S'd'
asg18
S'Y'
sS'.thisRepN'
p3995
I34
sg26
S'Y'
sg20
S'Y'
sg31
g32
sS'.thisTrialN'
p3996
I11
sS'.thisN'
p3997
I521
sg25
S'Y'
sg15
(lp3998
S'k'
asg30
VM
sg17
S'Y'
sg14
I11
sg19
(lp3999
S'space'
p4000
asg94
I12
sS'.thisIndex'
p4001
I12
sa(dp4002
g16
(lp4003
S'd'
asg18
S'N'
sS'.thisRepN'
p4004
I34
sg26
S'Y'
sg20
S'Y'
sg31
g32
sS'.thisTrialN'
p4005
I12
sS'.thisN'
p4006
I522
sg25
S'Y'
sg15
(lp4007
S'k'
asg30
VM
sg17
S'Y'
sg14
I11
sg19
Nsg94
I12
sS'.thisIndex'
p4008
I12
sa(dp4009
g16
(lp4010
S'k'
asg18
S'N'
sS'.thisRepN'
p4011
I34
sg26
S'Y'
sg20
S'N'
sg31
g32
sS'.thisTrialN'
p4012
I13
sS'.thisN'
p4013
I523
sg25
S'Y'
sg15
(lp4014
S'd'
asg30
VM
sg17
S'Y'
sg14
I11
sg19
(lp4015
S'space'
p4016
asg94
I4
sS'.thisIndex'
p4017
I4
sa(dp4018
g16
(lp4019
S'k'
asg18
S'N'
sS'.thisRepN'
p4020
I34
sg26
S'Y'
sg20
S'Y'
sg31
g32
sS'.thisTrialN'
p4021
I14
sS'.thisN'
p4022
I524
sg25
S'Y'
sg15
(lp4023
S'd'
asg30
VM
sg17
S'Y'
sg14
I11
sg19
Nsg94
I4
sS'.thisIndex'
p4024
I4
sa(dp4025
g16
(lp4026
S'k'
asg18
S'Y'
sS'.thisRepN'
p4027
I35
sg26
S'Y'
sg20
S'Y'
sg31
g32
sS'.thisTrialN'
p4028
I0
sS'.thisN'
p4029
I525
sg25
S'Y'
sg15
(lp4030
S'd'
asg30
VM
sg17
S'Y'
sg14
I11
sg19
(lp4031
S'space'
p4032
asg94
I5
sS'.thisIndex'
p4033
I5
sa(dp4034
g16
(lp4035
S'd'
asg18
S'Y'
sS'.thisRepN'
p4036
I35
sg26
S'Y'
sg20
S'Y'
sg31
g32
sS'.thisTrialN'
p4037
I1
sS'.thisN'
p4038
I526
sg25
S'Y'
sg15
(lp4039
S'k'
asg30
VM
sg17
S'Y'
sg14
I11
sg19
(lp4040
S'space'
p4041
asg94
I6
sS'.thisIndex'
p4042
I6
sa(dp4043
g16
(lp4044
S'd'
asg18
S'Y'
sS'.thisRepN'
p4045
I35
sg26
S'Y'
sg20
S'Y'
sg31
g32
sS'.thisTrialN'
p4046
I2
sS'.thisN'
p4047
I527
sg25
S'Y'
sg15
(lp4048
S'k'
asg30
VM
sg17
S'Y'
sg14
I11
sg19
(lp4049
S'space'
p4050
asg94
I11
sS'.thisIndex'
p4051
I11
sa(dp4052
g16
(lp4053
S'd'
asg18
S'Y'
sS'.thisRepN'
p4054
I35
sg26
S'Y'
sg20
S'Y'
sg31
g32
sS'.thisTrialN'
p4055
I3
sS'.thisN'
p4056
I528
sg25
S'Y'
sg15
(lp4057
S'k'
asg30
VM
sg17
S'Y'
sg14
I11
sg19
(lp4058
S'space'
p4059
asg94
I11
sS'.thisIndex'
p4060
I11
sa(dp4061
g18
S'N'
sS'.thisRepN'
p4062
I35
sg26
S'Y'
sg20
S'Y'
sg31
g32
sS'.thisTrialN'
p4063
I4
sS'.thisN'
p4064
I529
sg25
S'Y'
sg15
Nsg30
VM
sg17
g119
sg14
I11
sg19
Nsg94
I0
sS'.thisIndex'
p4065
I0
sa(dp4066
g16
(lp4067
S'k'
asg18
S'N'
sS'.thisRepN'
p4068
I35
sg26
S'Y'
sg20
S'Y'
sg31
g32
sS'.thisTrialN'
p4069
I5
sS'.thisN'
p4070
I530
sg25
S'Y'
sg15
(lp4071
S'd'
asg30
VM
sg17
S'Y'
sg14
I11
sg19
Nsg94
I10
sS'.thisIndex'
p4072
I10
sa(dp4073
g16
(lp4074
S'k'
asg18
S'Y'
sS'.thisRepN'
p4075
I35
sg26
S'Y'
sg20
S'Y'
sg31
g32
sS'.thisTrialN'
p4076
I6
sS'.thisN'
p4077
I531
sg25
S'Y'
sg15
(lp4078
S'd'
asg30
VM
sg17
S'Y'
sg14
I11
sg19
(lp4079
S'space'
p4080
asg94
I11
sS'.thisIndex'
p4081
I11
sa(dp4082
g16
(lp4083
S'k'
asg18
S'N'
sS'.thisRepN'
p4084
I35
sg26
S'Y'
sg20
S'Y'
sg31
g32
sS'.thisTrialN'
p4085
I7
sS'.thisN'
p4086
I532
sg25
S'Y'
sg15
(lp4087
S'd'
asg30
VM
sg17
S'Y'
sg14
I11
sg19
Nsg94
I13
sS'.thisIndex'
p4088
I13
sa(dp4089
g16
(lp4090
S'd'
asg18
S'Y'
sS'.thisRepN'
p4091
I35
sg26
S'Y'
sg20
S'N'
sg31
g32
sS'.thisTrialN'
p4092
I8
sS'.thisN'
p4093
I533
sg25
S'Y'
sg15
(lp4094
S'k'
asg30
VM
sg17
S'Y'
sg14
I11
sg19
Nsg94
I0
sS'.thisIndex'
p4095
I0
sa(dp4096
g16
(lp4097
S'k'
asg18
S'N'
sS'.thisRepN'
p4098
I35
sg26
S'Y'
sg20
S'Y'
sg31
g32
sS'.thisTrialN'
p4099
I9
sS'.thisN'
p4100
I534
sg25
S'Y'
sg15
(lp4101
S'k'
asg30
VM
sg17
S'N'
sg14
I11
sg19
Nsg94
I1
sS'.thisIndex'
p4102
I1
sa(dp4103
g16
(lp4104
S'd'
asg18
S'N'
sS'.thisRepN'
p4105
I35
sg26
S'Y'
sg20
S'N'
sg31
g32
sS'.thisTrialN'
p4106
I10
sS'.thisN'
p4107
I535
sg25
S'Y'
sg15
(lp4108
S'k'
asg30
VM
sg17
S'Y'
sg14
I11
sg19
(lp4109
S'space'
p4110
asg94
I3
sS'.thisIndex'
p4111
I3
sa(dp4112
g16
(lp4113
S'd'
asg18
S'N'
sS'.thisRepN'
p4114
I35
sg26
S'Y'
sg20
S'N'
sg31
g32
sS'.thisTrialN'
p4115
I11
sS'.thisN'
p4116
I536
sg25
S'Y'
sg15
(lp4117
S'k'
asg30
VM
sg17
S'Y'
sg14
I11
sg19
(lp4118
S'space'
p4119
asg94
I13
sS'.thisIndex'
p4120
I13
sa(dp4121
g16
(lp4122
S'k'
asg18
S'Y'
sS'.thisRepN'
p4123
I35
sg26
S'Y'
sg20
S'Y'
sg31
g32
sS'.thisTrialN'
p4124
I12
sS'.thisN'
p4125
I537
sg25
S'Y'
sg15
(lp4126
S'd'
asg30
VM
sg17
S'Y'
sg14
I11
sg19
(lp4127
S'space'
p4128
asg94
I11
sS'.thisIndex'
p4129
I11
sa(dp4130
g16
(lp4131
S'k'
asg18
S'N'
sS'.thisRepN'
p4132
I35
sg26
S'Y'
sg20
S'Y'
sg31
g32
sS'.thisTrialN'
p4133
I13
sS'.thisN'
p4134
I538
sg25
S'Y'
sg15
(lp4135
S'd'
asg30
VM
sg17
S'Y'
sg14
I11
sg19
Nsg94
I4
sS'.thisIndex'
p4136
I4
sa(dp4137
g16
(lp4138
S'd'
asg18
S'N'
sS'.thisRepN'
p4139
I35
sg26
S'Y'
sg20
S'Y'
sg31
g32
sS'.thisTrialN'
p4140
I14
sS'.thisN'
p4141
I539
sg25
S'Y'
sg15
(lp4142
S'k'
asg30
VM
sg17
S'Y'
sg14
I11
sg19
Nsg94
I9
sS'.thisIndex'
p4143
I9
sa(dp4144
g16
(lp4145
S'k'
asg18
S'N'
sS'.thisRepN'
p4146
I36
sg26
S'Y'
sg20
S'Y'
sg31
g32
sS'.thisTrialN'
p4147
I0
sS'.thisN'
p4148
I540
sg25
S'Y'
sg15
(lp4149
S'd'
asg30
VM
sg17
S'Y'
sg14
I11
sg19
Nsg94
I14
sS'.thisIndex'
p4150
I14
sa(dp4151
g16
(lp4152
S'd'
asg18
S'N'
sS'.thisRepN'
p4153
I36
sg26
S'Y'
sg20
S'Y'
sg31
g32
sS'.thisTrialN'
p4154
I1
sS'.thisN'
p4155
I541
sg25
S'Y'
sg15
(lp4156
S'k'
asg30
VM
sg17
S'Y'
sg14
I11
sg19
Nsg94
I5
sS'.thisIndex'
p4157
I5
sa(dp4158
g16
(lp4159
S'd'
asg18
S'Y'
sS'.thisRepN'
p4160
I36
sg26
S'Y'
sg20
S'Y'
sg31
g32
sS'.thisTrialN'
p4161
I2
sS'.thisN'
p4162
I542
sg25
S'Y'
sg15
(lp4163
S'k'
asg30
VM
sg17
S'Y'
sg14
I11
sg19
(lp4164
S'space'
p4165
asg94
I6
sS'.thisIndex'
p4166
I6
sa(dp4167
g16
(lp4168
S'd'
asg18
S'Y'
sS'.thisRepN'
p4169
I36
sg26
S'Y'
sg20
S'Y'
sg31
g32
sS'.thisTrialN'
p4170
I3
sS'.thisN'
p4171
I543
sg25
S'Y'
sg15
(lp4172
S'd'
asg30
VM
sg17
S'N'
sg14
I11
sg19
(lp4173
S'space'
p4174
asg94
I2
sS'.thisIndex'
p4175
I2
sa(dp4176
g16
(lp4177
S'd'
asg18
S'Y'
sS'.thisRepN'
p4178
I36
sg26
S'Y'
sg20
S'N'
sg31
g32
sS'.thisTrialN'
p4179
I4
sS'.thisN'
p4180
I544
sg25
S'Y'
sg15
(lp4181
S'd'
asg30
VM
sg17
S'N'
sg14
I11
sg19
Nsg94
I10
sS'.thisIndex'
p4182
I10
sa(dp4183
g16
(lp4184
S'k'
asg18
S'Y'
sS'.thisRepN'
p4185
I36
sg26
S'Y'
sg20
S'N'
sg31
g32
sS'.thisTrialN'
p4186
I5
sS'.thisN'
p4187
I545
sg25
S'Y'
sg15
(lp4188
S'd'
asg30
VM
sg17
S'Y'
sg14
I11
sg19
Nsg94
I3
sS'.thisIndex'
p4189
I3
sa(dp4190
g16
(lp4191
S'd'
asg18
S'Y'
sS'.thisRepN'
p4192
I36
sg26
S'Y'
sg20
S'Y'
sg31
g32
sS'.thisTrialN'
p4193
I6
sS'.thisN'
p4194
I546
sg25
S'Y'
sg15
(lp4195
S'k'
asg30
VM
sg17
S'Y'
sg14
I11
sg19
(lp4196
S'space'
p4197
asg94
I13
sS'.thisIndex'
p4198
I13
sa(dp4199
g16
(lp4200
S'k'
asg18
S'Y'
sS'.thisRepN'
p4201
I36
sg26
S'Y'
sg20
S'Y'
sg31
g32
sS'.thisTrialN'
p4202
I7
sS'.thisN'
p4203
I547
sg25
S'Y'
sg15
(lp4204
S'd'
asg30
VM
sg17
S'Y'
sg14
I11
sg19
(lp4205
S'space'
p4206
asg94
I3
sS'.thisIndex'
p4207
I3
sa(dp4208
g16
(lp4209
S'k'
asg18
S'N'
sS'.thisRepN'
p4210
I36
sg26
S'Y'
sg20
S'Y'
sg31
g32
sS'.thisTrialN'
p4211
I8
sS'.thisN'
p4212
I548
sg25
S'Y'
sg15
(lp4213
S'd'
asg30
VM
sg17
S'Y'
sg14
I11
sg19
Nsg94
I5
sS'.thisIndex'
p4214
I5
sa(dp4215
g16
(lp4216
S'd'
asg18
S'N'
sg22
I40
sg26
S'Y'
sS'.thisN'
p4217
I549
sg20
S'Y'
sg31
g32
sS'.thisTrialN'
p4218
I9
sS'.thisRepN'
p4219
I36
sg21
I42
sg25
S'Y'
sg23
I25
sg15
(lp4220
S'k'
asg30
VM
sg17
S'Y'
sg14
I11
sg19
Nsg94
I3
sS'.thisIndex'
p4221
I3
sa(dp4222
g16
(lp4223
S'd'
asS'.thisIndex'
p4224
I6
sS'.thisRepN'
p4225
I36
sg26
S'Y'
sg30
VM
sg31
g32
sS'.thisTrialN'
p4226
I10
sS'.thisN'
p4227
I550
sg25
S'Y'
sg15
(lp4228
S'k'
asg17
S'Y'
sg14
I12
sg94
I6
sa(dp4229
g16
(lp4230
S'k'
asS'.thisIndex'
p4231
I9
sS'.thisRepN'
p4232
I36
sg26
S'Y'
sg30
VM
sg31
g32
sS'.thisTrialN'
p4233
I11
sS'.thisN'
p4234
I551
sg25
S'Y'
sg15
(lp4235
S'd'
asg17
S'Y'
sg14
I12
sg94
I9
sa(dp4236
g16
(lp4237
S'd'
asg18
S'N'
sS'.thisRepN'
p4238
I36
sg26
S'Y'
sg20
S'Y'
sg31
g32
sS'.thisTrialN'
p4239
I12
sS'.thisN'
p4240
I552
sg25
S'Y'
sg15
(lp4241
S'k'
asg30
VM
sg17
S'Y'
sg14
I12
sg19
Nsg94
I9
sS'.thisIndex'
p4242
I9
sa(dp4243
g16
(lp4244
S'k'
asg18
S'N'
sS'.thisRepN'
p4245
I36
sg26
S'Y'
sg20
S'Y'
sg31
g32
sS'.thisTrialN'
p4246
I13
sS'.thisN'
p4247
I553
sg25
S'Y'
sg15
(lp4248
S'd'
asg30
VM
sg17
S'Y'
sg14
I12
sg19
Nsg94
I10
sS'.thisIndex'
p4249
I10
sa(dp4250
g16
(lp4251
S'd'
asg18
S'Y'
sS'.thisRepN'
p4252
I36
sg26
S'Y'
sg20
S'Y'
sg31
g32
sS'.thisTrialN'
p4253
I14
sS'.thisN'
p4254
I554
sg25
S'Y'
sg15
(lp4255
S'k'
asg30
VM
sg17
S'Y'
sg14
I12
sg19
(lp4256
S'space'
p4257
asg94
I9
sS'.thisIndex'
p4258
I9
sa(dp4259
g16
(lp4260
S'k'
asg18
S'N'
sS'.thisRepN'
p4261
I37
sg26
S'Y'
sg20
S'Y'
sg31
g32
sS'.thisTrialN'
p4262
I0
sS'.thisN'
p4263
I555
sg25
S'Y'
sg15
(lp4264
S'd'
asg30
VM
sg17
S'Y'
sg14
I12
sg19
Nsg94
I6
sS'.thisIndex'
p4265
I6
sa(dp4266
g18
S'Y'
sS'.thisRepN'
p4267
I37
sg26
S'Y'
sg20
S'Y'
sg31
g32
sS'.thisTrialN'
p4268
I1
sS'.thisN'
p4269
I556
sg25
S'Y'
sg15
Nsg30
VM
sg17
g119
sg14
I12
sg19
(lp4270
S'space'
p4271
asg94
I4
sS'.thisIndex'
p4272
I4
sa(dp4273
g16
(lp4274
S'k'
asg18
S'N'
sS'.thisRepN'
p4275
I37
sg26
S'Y'
sg20
S'Y'
sg31
g32
sS'.thisTrialN'
p4276
I2
sS'.thisN'
p4277
I557
sg25
S'Y'
sg15
(lp4278
S'k'
asg30
VM
sg17
S'N'
sg14
I12
sg19
Nsg94
I7
sS'.thisIndex'
p4279
I7
sa(dp4280
g16
(lp4281
S'd'
asg18
S'Y'
sS'.thisRepN'
p4282
I37
sg26
S'Y'
sg20
S'Y'
sg31
g32
sS'.thisTrialN'
p4283
I3
sS'.thisN'
p4284
I558
sg25
S'Y'
sg15
(lp4285
S'k'
asg30
VM
sg17
S'Y'
sg14
I12
sg19
(lp4286
S'space'
p4287
asg94
I5
sS'.thisIndex'
p4288
I5
sa(dp4289
g16
(lp4290
S'd'
asg18
S'Y'
sS'.thisRepN'
p4291
I37
sg26
S'Y'
sg20
S'Y'
sg31
g32
sS'.thisTrialN'
p4292
I4
sS'.thisN'
p4293
I559
sg25
S'Y'
sg15
(lp4294
S'd'
asg30
VM
sg17
S'N'
sg14
I12
sg19
(lp4295
S'space'
p4296
asg94
I2
sS'.thisIndex'
p4297
I2
sa(dp4298
g16
(lp4299
S'd'
asg18
S'N'
sS'.thisRepN'
p4300
I37
sg26
S'Y'
sg20
S'Y'
sg31
g32
sS'.thisTrialN'
p4301
I5
sS'.thisN'
p4302
I560
sg25
S'Y'
sg15
(lp4303
S'k'
asg30
VM
sg17
S'Y'
sg14
I12
sg19
Nsg94
I13
sS'.thisIndex'
p4304
I13
sa(dp4305
g16
(lp4306
S'k'
asg18
S'Y'
sS'.thisRepN'
p4307
I37
sg26
S'Y'
sg20
S'Y'
sg31
g32
sS'.thisTrialN'
p4308
I6
sS'.thisN'
p4309
I561
sg25
S'Y'
sg15
(lp4310
S'd'
asg30
VM
sg17
S'Y'
sg14
I12
sg19
(lp4311
S'space'
p4312
asg94
I1
sS'.thisIndex'
p4313
I1
sa(dp4314
g18
S'Y'
sS'.thisRepN'
p4315
I37
sg26
S'Y'
sg20
S'N'
sg31
g32
sS'.thisTrialN'
p4316
I7
sS'.thisN'
p4317
I562
sg25
S'Y'
sg15
Nsg30
VM
sg17
g119
sg14
I12
sg19
Nsg94
I2
sS'.thisIndex'
p4318
I2
sa(dp4319
g16
(lp4320
S'k'
asg18
S'Y'
sS'.thisRepN'
p4321
I37
sg26
S'Y'
sg20
S'Y'
sg31
g32
sS'.thisTrialN'
p4322
I8
sS'.thisN'
p4323
I563
sg25
S'Y'
sg15
(lp4324
S'k'
asg30
VM
sg17
S'N'
sg14
I12
sg19
(lp4325
S'space'
p4326
asg94
I2
sS'.thisIndex'
p4327
I2
sa(dp4328
g16
(lp4329
S'd'
asg18
S'N'
sS'.thisRepN'
p4330
I37
sg26
S'Y'
sg20
S'Y'
sg31
g32
sS'.thisTrialN'
p4331
I9
sS'.thisN'
p4332
I564
sg25
S'Y'
sg15
(lp4333
S'k'
asg30
VM
sg17
S'Y'
sg14
I12
sg19
Nsg94
I13
sS'.thisIndex'
p4334
I13
sa(dp4335
g16
(lp4336
S'k'
asg18
S'Y'
sS'.thisRepN'
p4337
I37
sg26
S'Y'
sg20
S'Y'
sg31
g32
sS'.thisTrialN'
p4338
I10
sS'.thisN'
p4339
I565
sg25
S'Y'
sg15
(lp4340
S'd'
asg30
VM
sg17
S'Y'
sg14
I12
sg19
(lp4341
S'space'
p4342
asg94
I10
sS'.thisIndex'
p4343
I10
sa(dp4344
g18
S'N'
sS'.thisRepN'
p4345
I37
sg26
S'Y'
sg20
S'Y'
sg31
g32
sS'.thisTrialN'
p4346
I11
sS'.thisN'
p4347
I566
sg25
S'Y'
sg15
Nsg30
VM
sg17
g119
sg14
I12
sg19
Nsg94
I14
sS'.thisIndex'
p4348
I14
sa(dp4349
g16
(lp4350
S'd'
asg18
S'N'
sS'.thisRepN'
p4351
I37
sg26
S'Y'
sg20
S'N'
sg31
g32
sS'.thisTrialN'
p4352
I12
sS'.thisN'
p4353
I567
sg25
S'Y'
sg15
(lp4354
S'k'
asg30
VM
sg17
S'Y'
sg14
I12
sg19
(lp4355
S'space'
p4356
asg94
I3
sS'.thisIndex'
p4357
I3
sa(dp4358
g16
(lp4359
S'k'
asg18
S'N'
sS'.thisRepN'
p4360
I37
sg26
S'Y'
sg20
S'Y'
sg31
g32
sS'.thisTrialN'
p4361
I13
sS'.thisN'
p4362
I568
sg25
S'Y'
sg15
(lp4363
S'd'
asg30
VM
sg17
S'Y'
sg14
I12
sg19
Nsg94
I13
sS'.thisIndex'
p4364
I13
sa(dp4365
g16
(lp4366
S'k'
asg18
S'Y'
sS'.thisRepN'
p4367
I37
sg26
S'Y'
sg20
S'Y'
sg31
g32
sS'.thisTrialN'
p4368
I14
sS'.thisN'
p4369
I569
sg25
S'Y'
sg15
(lp4370
S'd'
asg30
VM
sg17
S'Y'
sg14
I12
sg19
(lp4371
S'space'
p4372
asg94
I11
sS'.thisIndex'
p4373
I11
sa(dp4374
g16
(lp4375
S'k'
asg18
S'N'
sS'.thisRepN'
p4376
I38
sg26
S'Y'
sg20
S'Y'
sg31
g32
sS'.thisTrialN'
p4377
I0
sS'.thisN'
p4378
I570
sg25
S'Y'
sg15
(lp4379
S'd'
asg30
VM
sg17
S'Y'
sg14
I12
sg19
Nsg94
I2
sS'.thisIndex'
p4380
I2
sa(dp4381
g16
(lp4382
S'd'
asg18
S'Y'
sS'.thisRepN'
p4383
I38
sg26
S'Y'
sg20
S'N'
sg31
g32
sS'.thisTrialN'
p4384
I1
sS'.thisN'
p4385
I571
sg25
S'Y'
sg15
(lp4386
S'k'
asg30
VM
sg17
S'Y'
sg14
I12
sg19
Nsg94
I1
sS'.thisIndex'
p4387
I1
sa(dp4388
g16
(lp4389
S'd'
asg18
S'Y'
sS'.thisRepN'
p4390
I38
sg26
S'Y'
sg20
S'Y'
sg31
g32
sS'.thisTrialN'
p4391
I2
sS'.thisN'
p4392
I572
sg25
S'Y'
sg15
(lp4393
S'k'
asg30
VM
sg17
S'Y'
sg14
I12
sg19
(lp4394
S'space'
p4395
asg94
I1
sS'.thisIndex'
p4396
I1
sa(dp4397
g16
(lp4398
S'd'
asg18
S'N'
sS'.thisRepN'
p4399
I38
sg26
S'Y'
sg20
S'Y'
sg31
g32
sS'.thisTrialN'
p4400
I3
sS'.thisN'
p4401
I573
sg25
S'Y'
sg15
(lp4402
S'k'
asg30
VM
sg17
S'Y'
sg14
I12
sg19
Nsg94
I7
sS'.thisIndex'
p4403
I7
sa(dp4404
g16
(lp4405
S'k'
asg18
S'N'
sS'.thisRepN'
p4406
I38
sg26
S'Y'
sg20
S'Y'
sg31
g32
sS'.thisTrialN'
p4407
I4
sS'.thisN'
p4408
I574
sg25
S'Y'
sg15
(lp4409
S'd'
asg30
VM
sg17
S'Y'
sg14
I12
sg19
Nsg94
I14
sS'.thisIndex'
p4410
I14
sa(dp4411
g16
(lp4412
S'd'
asg18
S'N'
sS'.thisRepN'
p4413
I38
sg26
S'Y'
sg20
S'N'
sg31
g32
sS'.thisTrialN'
p4414
I5
sS'.thisN'
p4415
I575
sg25
S'Y'
sg15
(lp4416
S'd'
asg30
VM
sg17
S'N'
sg14
I12
sg19
(lp4417
S'space'
p4418
asg94
I10
sS'.thisIndex'
p4419
I10
sa(dp4420
g16
(lp4421
S'k'
asg18
S'N'
sS'.thisRepN'
p4422
I38
sg26
S'Y'
sg20
S'Y'
sg31
g32
sS'.thisTrialN'
p4423
I6
sS'.thisN'
p4424
I576
sg25
S'Y'
sg15
(lp4425
S'd'
asg30
VM
sg17
S'Y'
sg14
I12
sg19
Nsg94
I5
sS'.thisIndex'
p4426
I5
sa(dp4427
g16
(lp4428
S'd'
asg18
S'N'
sS'.thisRepN'
p4429
I38
sg26
S'Y'
sg20
S'Y'
sg31
g32
sS'.thisTrialN'
p4430
I7
sS'.thisN'
p4431
I577
sg25
S'Y'
sg15
(lp4432
S'd'
asg30
VM
sg17
S'N'
sg14
I12
sg19
Nsg94
I11
sS'.thisIndex'
p4433
I11
sa(dp4434
g16
(lp4435
S'k'
asg18
S'Y'
sS'.thisRepN'
p4436
I38
sg26
S'Y'
sg20
S'Y'
sg31
g32
sS'.thisTrialN'
p4437
I8
sS'.thisN'
p4438
I578
sg25
S'Y'
sg15
(lp4439
S'd'
asg30
VM
sg17
S'Y'
sg14
I12
sg19
(lp4440
S'space'
p4441
asg94
I7
sS'.thisIndex'
p4442
I7
sa(dp4443
g16
(lp4444
S'd'
asg18
S'Y'
sS'.thisRepN'
p4445
I38
sg26
S'Y'
sg20
S'Y'
sg31
g32
sS'.thisTrialN'
p4446
I9
sS'.thisN'
p4447
I579
sg25
S'Y'
sg15
(lp4448
S'k'
asg30
VM
sg17
S'Y'
sg14
I12
sg19
(lp4449
S'space'
p4450
asg94
I7
sS'.thisIndex'
p4451
I7
sa(dp4452
g16
(lp4453
S'k'
asg18
S'N'
sS'.thisRepN'
p4454
I38
sg26
S'Y'
sg20
S'Y'
sg31
g32
sS'.thisTrialN'
p4455
I10
sS'.thisN'
p4456
I580
sg25
S'Y'
sg15
(lp4457
S'd'
asg30
VM
sg17
S'Y'
sg14
I12
sg19
Nsg94
I12
sS'.thisIndex'
p4458
I12
sa(dp4459
g16
(lp4460
S'k'
asg18
S'N'
sS'.thisRepN'
p4461
I38
sg26
S'Y'
sg20
S'Y'
sg31
g32
sS'.thisTrialN'
p4462
I11
sS'.thisN'
p4463
I581
sg25
S'Y'
sg15
(lp4464
S'd'
asg30
VM
sg17
S'Y'
sg14
I12
sg19
Nsg94
I1
sS'.thisIndex'
p4465
I1
sa(dp4466
g16
(lp4467
S'd'
asg18
S'Y'
sS'.thisRepN'
p4468
I38
sg26
S'Y'
sg20
S'N'
sg31
g32
sS'.thisTrialN'
p4469
I12
sS'.thisN'
p4470
I582
sg25
S'Y'
sg15
(lp4471
S'k'
asg30
VM
sg17
S'Y'
sg14
I12
sg19
Nsg94
I10
sS'.thisIndex'
p4472
I10
sa(dp4473
g16
(lp4474
S'd'
asg18
S'N'
sS'.thisRepN'
p4475
I38
sg26
S'Y'
sg20
S'Y'
sg31
g32
sS'.thisTrialN'
p4476
I13
sS'.thisN'
p4477
I583
sg25
S'Y'
sg15
(lp4478
S'k'
asg30
VM
sg17
S'Y'
sg14
I12
sg19
Nsg94
I4
sS'.thisIndex'
p4479
I4
sa(dp4480
g16
(lp4481
S'k'
asg18
S'N'
sS'.thisRepN'
p4482
I38
sg26
S'Y'
sg20
S'Y'
sg31
g32
sS'.thisTrialN'
p4483
I14
sS'.thisN'
p4484
I584
sg25
S'Y'
sg15
(lp4485
S'd'
asg30
VM
sg17
S'Y'
sg14
I12
sg19
Nsg94
I10
sS'.thisIndex'
p4486
I10
sa(dp4487
g16
(lp4488
S'd'
asg18
S'N'
sS'.thisRepN'
p4489
I39
sg26
S'Y'
sg20
S'Y'
sg31
g32
sS'.thisTrialN'
p4490
I0
sS'.thisN'
p4491
I585
sg25
S'Y'
sg15
(lp4492
S'd'
asg30
VM
sg17
S'N'
sg14
I12
sg19
Nsg94
I9
sS'.thisIndex'
p4493
I9
sa(dp4494
g16
(lp4495
S'k'
asg18
S'N'
sS'.thisRepN'
p4496
I39
sg26
S'Y'
sg20
S'N'
sg31
g32
sS'.thisTrialN'
p4497
I1
sS'.thisN'
p4498
I586
sg25
S'Y'
sg15
(lp4499
S'd'
asg30
VM
sg17
S'Y'
sg14
I12
sg19
(lp4500
S'space'
p4501
asg94
I2
sS'.thisIndex'
p4502
I2
sa(dp4503
g16
(lp4504
S'd'
asg18
S'N'
sS'.thisRepN'
p4505
I39
sg26
S'Y'
sg20
S'Y'
sg31
g32
sS'.thisTrialN'
p4506
I2
sS'.thisN'
p4507
I587
sg25
S'Y'
sg15
(lp4508
S'k'
asg30
VM
sg17
S'Y'
sg14
I12
sg19
Nsg94
I11
sS'.thisIndex'
p4509
I11
sa(dp4510
g16
(lp4511
S'k'
asg18
S'Y'
sS'.thisRepN'
p4512
I39
sg26
S'Y'
sg20
S'N'
sg31
g32
sS'.thisTrialN'
p4513
I3
sS'.thisN'
p4514
I588
sg25
S'Y'
sg15
(lp4515
S'd'
asg30
VM
sg17
S'Y'
sg14
I12
sg19
Nsg94
I14
sS'.thisIndex'
p4516
I14
sa(dp4517
g16
(lp4518
S'k'
asg18
S'Y'
sS'.thisRepN'
p4519
I39
sg26
S'Y'
sg20
S'Y'
sg31
g32
sS'.thisTrialN'
p4520
I4
sS'.thisN'
p4521
I589
sg25
S'Y'
sg15
(lp4522
S'd'
asg30
VM
sg17
S'Y'
sg14
I12
sg19
(lp4523
S'space'
p4524
asg94
I7
sS'.thisIndex'
p4525
I7
sa(dp4526
g16
(lp4527
S'd'
asg18
S'Y'
sS'.thisRepN'
p4528
I39
sg26
S'Y'
sg20
S'Y'
sg31
g32
sS'.thisTrialN'
p4529
I5
sS'.thisN'
p4530
I590
sg25
S'Y'
sg15
(lp4531
S'k'
asg30
VM
sg17
S'Y'
sg14
I12
sg19
(lp4532
S'space'
p4533
asg94
I8
sS'.thisIndex'
p4534
I8
sa(dp4535
g16
(lp4536
S'k'
asg18
S'N'
sS'.thisRepN'
p4537
I39
sg26
S'Y'
sg20
S'Y'
sg31
g32
sS'.thisTrialN'
p4538
I6
sS'.thisN'
p4539
I591
sg25
S'Y'
sg15
(lp4540
S'd'
asg30
VM
sg17
S'Y'
sg14
I12
sg19
Nsg94
I14
sS'.thisIndex'
p4541
I14
sa(dp4542
g18
S'N'
sS'.thisRepN'
p4543
I39
sg26
S'Y'
sg20
S'Y'
sg31
g32
sS'.thisTrialN'
p4544
I7
sS'.thisN'
p4545
I592
sg25
S'Y'
sg15
Nsg30
VM
sg17
g119
sg14
I12
sg19
Nsg94
I0
sS'.thisIndex'
p4546
I0
sa(dp4547
g16
(lp4548
S'k'
asg18
S'Y'
sS'.thisRepN'
p4549
I39
sg26
S'Y'
sg20
S'Y'
sg31
g32
sS'.thisTrialN'
p4550
I8
sS'.thisN'
p4551
I593
sg25
S'Y'
sg15
(lp4552
S'd'
asg30
VM
sg17
S'Y'
sg14
I12
sg19
(lp4553
S'space'
p4554
asg94
I10
sS'.thisIndex'
p4555
I10
sa(dp4556
g16
(lp4557
S'd'
asg18
S'Y'
sS'.thisRepN'
p4558
I39
sg26
S'Y'
sg20
S'Y'
sg31
g32
sS'.thisTrialN'
p4559
I9
sS'.thisN'
p4560
I594
sg25
S'Y'
sg15
(lp4561
S'k'
asg30
VM
sg17
S'Y'
sg14
I12
sg19
(lp4562
S'space'
p4563
asg94
I4
sS'.thisIndex'
p4564
I4
sa(dp4565
g16
(lp4566
S'k'
asg18
S'Y'
sS'.thisRepN'
p4567
I39
sg26
S'Y'
sg20
S'Y'
sg31
g32
sS'.thisTrialN'
p4568
I10
sS'.thisN'
p4569
I595
sg25
S'Y'
sg15
(lp4570
S'd'
asg30
VM
sg17
S'Y'
sg14
I12
sg19
(lp4571
S'space'
p4572
asg94
I6
sS'.thisIndex'
p4573
I6
sa(dp4574
g16
(lp4575
S'k'
asg18
S'Y'
sS'.thisRepN'
p4576
I39
sg26
S'Y'
sg20
S'Y'
sg31
g32
sS'.thisTrialN'
p4577
I11
sS'.thisN'
p4578
I596
sg25
S'Y'
sg15
(lp4579
S'd'
asg30
VM
sg17
S'Y'
sg14
I12
sg19
(lp4580
S'space'
p4581
asg94
I3
sS'.thisIndex'
p4582
I3
sa(dp4583
g16
(lp4584
S'k'
asg18
S'Y'
sS'.thisRepN'
p4585
I39
sg26
S'Y'
sg20
S'N'
sg31
g32
sS'.thisTrialN'
p4586
I12
sS'.thisN'
p4587
I597
sg25
S'Y'
sg15
(lp4588
S'd'
asg30
VM
sg17
S'Y'
sg14
I12
sg19
Nsg94
I4
sS'.thisIndex'
p4589
I4
sa(dp4590
g16
(lp4591
S'k'
asg18
S'Y'
sS'.thisRepN'
p4592
I39
sg26
S'Y'
sg20
S'Y'
sg31
g32
sS'.thisTrialN'
p4593
I13
sS'.thisN'
p4594
I598
sg25
S'Y'
sg15
(lp4595
S'd'
asg30
VM
sg17
S'Y'
sg14
I12
sg19
(lp4596
S'space'
p4597
asg94
I13
sS'.thisIndex'
p4598
I13
sa(dp4599
g16
(lp4600
S'k'
asg18
S'N'
sg22
I40
sg26
S'Y'
sS'.thisN'
p4601
I599
sg20
S'Y'
sg31
g32
sS'.thisTrialN'
p4602
I14
sS'.thisRepN'
p4603
I39
sg21
I40
sg25
S'Y'
sg23
I23
sg15
(lp4604
S'd'
asg30
VM
sg17
S'Y'
sg14
I12
sg19
Nsg94
I9
sS'.thisIndex'
p4605
I9
sasS'loops'
p4606
(lp4607
g1
(g35
g3
NtRp4608
(dp4609
g38
Nsg39
(lp4610
sg40
I79823856
sg10
S''
sg6
g41
sg42
I1
sg27
I01
sg28
Nsg43
g1
(g44
g45
(dp4611
g47
g48
(g49
g50
g51
S'b'
tRp4612
(I1
(I600
I1
tg54
I00
S'\x00\x00\x80?\x00\x00\x80?\x00\x00\x80?\x00\x00\x80?\x00\x00\x80?\x00\x00\x80?\x00\x00\x80?\x00\x00\x80?\x00\x00\x80?\x00\x00\x80?\x00\x00\x80?\x00\x00\x80?\x00\x00\x80?\x00\x00\x80?\x00\x00\x80?\x00\x00\x80?\x00\x00\x80?\x00\x00\x80?\x00\x00\x80?\x00\x00\x80?\x00\x00\x80?\x00\x00\x80?\x00\x00\x80?\x00\x00\x80?\x00\x00\x80?\x00\x00\x80?\x00\x00\x80?\x00\x00\x80?\x00\x00\x80?\x00\x00\x80?\x00\x00\x80?\x00\x00\x80?\x00\x00\x80?\x00\x00\x80?\x00\x00\x80?\x00\x00\x80?\x00\x00\x80?\x00\x00\x80?\x00\x00\x80?\x00\x00\x80?\x00\x00\x80?\x00\x00\x80?\x00\x00\x80?\x00\x00\x80?\x00\x00\x80?\x00\x00\x80?\x00\x00\x80?\x00\x00\x80?\x00\x00\x80?\x00\x00\x80?\x00\x00\x80?\x00\x00\x80?\x00\x00\x80?\x00\x00\x80?\x00\x00\x80?\x00\x00\x80?\x00\x00\x80?\x00\x00\x80?\x00\x00\x80?\x00\x00\x80?\x00\x00\x80?\x00\x00\x80?\x00\x00\x80?\x00\x00\x80?\x00\x00\x80?\x00\x00\x80?\x00\x00\x80?\x00\x00\x80?\x00\x00\x80?\x00\x00\x80?\x00\x00\x80?\x00\x00\x80?\x00\x00\x80?\x00\x00\x80?\x00\x00\x80?\x00\x00\x80?\x00\x00\x80?\x00\x00\x80?\x00\x00\x80?\x00\x00\x80?\x00\x00\x80?\x00\x00\x80?\x00\x00\x80?\x00\x00\x80?\x00\x00\x80?\x00\x00\x80?\x00\x00\x80?\x00\x00\x80?\x00\x00\x80?\x00\x00\x80?\x00\x00\x80?\x00\x00\x80?\x00\x00\x80?\x00\x00\x80?\x00\x00\x80?\x00\x00\x80?\x00\x00\x80?\x00\x00\x80?\x00\x00\x80?\x00\x00\x80?\x00\x00\x80?\x00\x00\x80?\x00\x00\x80?\x00\x00\x80?\x00\x00\x80?\x00\x00\x80?\x00\x00\x80?\x00\x00\x80?\x00\x00\x80?\x00\x00\x80?\x00\x00\x80?\x00\x00\x80?\x00\x00\x80?\x00\x00\x80?\x00\x00\x80?\x00\x00\x80?\x00\x00\x80?\x00\x00\x80?\x00\x00\x80?\x00\x00\x80?\x00\x00\x80?\x00\x00\x80?\x00\x00\x80?\x00\x00\x80?\x00\x00\x80?\x00\x00\x80?\x00\x00\x80?\x00\x00\x80?\x00\x00\x80?\x00\x00\x80?\x00\x00\x80?\x00\x00\x80?\x00\x00\x80?\x00\x00\x80?\x00\x00\x80?\x00\x00\x80?\x00\x00\x80?\x00\x00\x80?\x00\x00\x80?\x00\x00\x80?\x00\x00\x80?\x00\x00\x80?\x00\x00\x80?\x00\x00\x80?\x00\x00\x80?\x00\x00\x80?\x00\x00\x80?\x00\x00\x80?\x00\x00\x80?\x00\x00\x80?\x00\x00\x80?\x00\x00\x80?\x00\x00\x80?\x00\x00\x80?\x00\x00\x80?\x00\x00\x80?\x00\x00\x80?\x00\x00\x80?\x00\x00\x80?\x00\x00\x80?\x00\x00\x80?\x00\x00\x80?\x00\x00\x80?\x00\x00\x80?\x00\x00\x80?\x00\x00\x80?\x00\x00\x80?\x00\x00\x80?\x00\x00\x80?\x00\x00\x80?\x00\x00\x80?\x00\x00\x80?\x00\x00\x80?\x00\x00\x80?\x00\x00\x80?\x00\x00\x80?\x00\x00\x80?\x00\x00\x80?\x00\x00\x80?\x00\x00\x80?\x00\x00\x80?\x00\x00\x80?\x00\x00\x80?\x00\x00\x80?\x00\x00\x80?\x00\x00\x80?\x00\x00\x80?\x00\x00\x80?\x00\x00\x80?\x00\x00\x80?\x00\x00\x80?\x00\x00\x80?\x00\x00\x80?\x00\x00\x80?\x00\x00\x80?\x00\x00\x80?\x00\x00\x80?\x00\x00\x80?\x00\x00\x80?\x00\x00\x80?\x00\x00\x80?\x00\x00\x80?\x00\x00\x80?\x00\x00\x80?\x00\x00\x80?\x00\x00\x80?\x00\x00\x80?\x00\x00\x80?\x00\x00\x80?\x00\x00\x80?\x00\x00\x80?\x00\x00\x80?\x00\x00\x80?\x00\x00\x80?\x00\x00\x80?\x00\x00\x80?\x00\x00\x80?\x00\x00\x80?\x00\x00\x80?\x00\x00\x80?\x00\x00\x80?\x00\x00\x80?\x00\x00\x80?\x00\x00\x80?\x00\x00\x80?\x00\x00\x80?\x00\x00\x80?\x00\x00\x80?\x00\x00\x80?\x00\x00\x80?\x00\x00\x80?\x00\x00\x80?\x00\x00\x80?\x00\x00\x80?\x00\x00\x80?\x00\x00\x80?\x00\x00\x80?\x00\x00\x80?\x00\x00\x80?\x00\x00\x80?\x00\x00\x80?\x00\x00\x80?\x00\x00\x80?\x00\x00\x80?\x00\x00\x80?\x00\x00\x80?\x00\x00\x80?\x00\x00\x80?\x00\x00\x80?\x00\x00\x80?\x00\x00\x80?\x00\x00\x80?\x00\x00\x80?\x00\x00\x80?\x00\x00\x80?\x00\x00\x80?\x00\x00\x80?\x00\x00\x80?\x00\x00\x80?\x00\x00\x80?\x00\x00\x80?\x00\x00\x80?\x00\x00\x80?\x00\x00\x80?\x00\x00\x80?\x00\x00\x80?\x00\x00\x80?\x00\x00\x80?\x00\x00\x80?\x00\x00\x80?\x00\x00\x80?\x00\x00\x80?\x00\x00\x80?\x00\x00\x80?\x00\x00\x80?\x00\x00\x80?\x00\x00\x80?\x00\x00\x80?\x00\x00\x80?\x00\x00\x80?\x00\x00\x80?\x00\x00\x80?\x00\x00\x80?\x00\x00\x80?\x00\x00\x80?\x00\x00\x80?\x00\x00\x80?\x00\x00\x80?\x00\x00\x80?\x00\x00\x80?\x00\x00\x80?\x00\x00\x80?\x00\x00\x80?\x00\x00\x80?\x00\x00\x80?\x00\x00\x80?\x00\x00\x80?\x00\x00\x80?\x00\x00\x80?\x00\x00\x80?\x00\x00\x80?\x00\x00\x80?\x00\x00\x80?\x00\x00\x80?\x00\x00\x80?\x00\x00\x80?\x00\x00\x80?\x00\x00\x80?\x00\x00\x80?\x00\x00\x80?\x00\x00\x80?\x00\x00\x80?\x00\x00\x80?\x00\x00\x80?\x00\x00\x80?\x00\x00\x80?\x00\x00\x80?\x00\x00\x80?\x00\x00\x80?\x00\x00\x80?\x00\x00\x80?\x00\x00\x80?\x00\x00\x80?\x00\x00\x80?\x00\x00\x80?\x00\x00\x80?\x00\x00\x80?\x00\x00\x80?\x00\x00\x80?\x00\x00\x80?\x00\x00\x80?\x00\x00\x80?\x00\x00\x80?\x00\x00\x80?\x00\x00\x80?\x00\x00\x80?\x00\x00\x80?\x00\x00\x80?\x00\x00\x80?\x00\x00\x80?\x00\x00\x80?\x00\x00\x80?\x00\x00\x80?\x00\x00\x80?\x00\x00\x80?\x00\x00\x80?\x00\x00\x80?\x00\x00\x80?\x00\x00\x80?\x00\x00\x80?\x00\x00\x80?\x00\x00\x80?\x00\x00\x80?\x00\x00\x80?\x00\x00\x80?\x00\x00\x80?\x00\x00\x80?\x00\x00\x80?\x00\x00\x80?\x00\x00\x80?\x00\x00\x80?\x00\x00\x80?\x00\x00\x80?\x00\x00\x80?\x00\x00\x80?\x00\x00\x80?\x00\x00\x80?\x00\x00\x80?\x00\x00\x80?\x00\x00\x80?\x00\x00\x80?\x00\x00\x80?\x00\x00\x80?\x00\x00\x80?\x00\x00\x80?\x00\x00\x80?\x00\x00\x80?\x00\x00\x80?\x00\x00\x80?\x00\x00\x80?\x00\x00\x80?\x00\x00\x80?\x00\x00\x80?\x00\x00\x80?\x00\x00\x80?\x00\x00\x80?\x00\x00\x80?\x00\x00\x80?\x00\x00\x80?\x00\x00\x80?\x00\x00\x80?\x00\x00\x80?\x00\x00\x80?\x00\x00\x80?\x00\x00\x80?\x00\x00\x80?\x00\x00\x80?\x00\x00\x80?\x00\x00\x80?\x00\x00\x80?\x00\x00\x80?\x00\x00\x80?\x00\x00\x80?\x00\x00\x80?\x00\x00\x80?\x00\x00\x80?\x00\x00\x80?\x00\x00\x80?\x00\x00\x80?\x00\x00\x80?\x00\x00\x80?\x00\x00\x80?\x00\x00\x80?\x00\x00\x80?\x00\x00\x80?\x00\x00\x80?\x00\x00\x80?\x00\x00\x80?\x00\x00\x80?\x00\x00\x80?\x00\x00\x80?\x00\x00\x80?\x00\x00\x80?\x00\x00\x80?\x00\x00\x80?\x00\x00\x80?\x00\x00\x80?\x00\x00\x80?\x00\x00\x80?\x00\x00\x80?\x00\x00\x80?\x00\x00\x80?\x00\x00\x80?\x00\x00\x80?\x00\x00\x80?\x00\x00\x80?\x00\x00\x80?\x00\x00\x80?\x00\x00\x80?\x00\x00\x80?\x00\x00\x80?\x00\x00\x80?\x00\x00\x80?\x00\x00\x80?\x00\x00\x80?\x00\x00\x80?\x00\x00\x80?\x00\x00\x80?\x00\x00\x80?\x00\x00\x80?\x00\x00\x80?\x00\x00\x80?\x00\x00\x80?\x00\x00\x80?\x00\x00\x80?\x00\x00\x80?\x00\x00\x80?\x00\x00\x80?\x00\x00\x80?\x00\x00\x80?\x00\x00\x80?\x00\x00\x80?\x00\x00\x80?\x00\x00\x80?\x00\x00\x80?\x00\x00\x80?\x00\x00\x80?\x00\x00\x80?\x00\x00\x80?\x00\x00\x80?\x00\x00\x80?\x00\x00\x80?\x00\x00\x80?\x00\x00\x80?\x00\x00\x80?\x00\x00\x80?\x00\x00\x80?\x00\x00\x80?\x00\x00\x80?\x00\x00\x80?\x00\x00\x80?\x00\x00\x80?\x00\x00\x80?\x00\x00\x80?\x00\x00\x80?\x00\x00\x80?\x00\x00\x80?\x00\x00\x80?\x00\x00\x80?\x00\x00\x80?\x00\x00\x80?\x00\x00\x80?\x00\x00\x80?\x00\x00\x80?\x00\x00\x80?\x00\x00\x80?\x00\x00\x80?\x00\x00\x80?\x00\x00\x80?\x00\x00\x80?\x00\x00\x80?\x00\x00\x80?\x00\x00\x80?\x00\x00\x80?\x00\x00\x80?\x00\x00\x80?\x00\x00\x80?\x00\x00\x80?\x00\x00\x80?\x00\x00\x80?\x00\x00\x80?\x00\x00\x80?\x00\x00\x80?\x00\x00\x80?\x00\x00\x80?\x00\x00\x80?\x00\x00\x80?\x00\x00\x80?\x00\x00\x80?\x00\x00\x80?\x00\x00\x80?\x00\x00\x80?\x00\x00\x80?\x00\x00\x80?\x00\x00\x80?\x00\x00\x80?\x00\x00\x80?\x00\x00\x80?\x00\x00\x80?\x00\x00\x80?\x00\x00\x80?\x00\x00\x80?\x00\x00\x80?\x00\x00\x80?\x00\x00\x80?\x00\x00\x80?\x00\x00\x80?\x00\x00\x80?\x00\x00\x80?\x00\x00\x80?\x00\x00\x80?\x00\x00\x80?\x00\x00\x80?\x00\x00\x80?\x00\x00\x80?\x00\x00\x80?\x00\x00\x80?\x00\x00\x80?\x00\x00\x80?\x00\x00\x80?\x00\x00\x80?\x00\x00\x80?\x00\x00\x80?\x00\x00\x80?\x00\x00\x80?\x00\x00\x80?\x00\x00\x80?\x00\x00\x80?\x00\x00\x80?\x00\x00\x80?\x00\x00\x80?\x00\x00\x80?\x00\x00\x80?\x00\x00\x80?\x00\x00\x80?\x00\x00\x80?\x00\x00\x80?\x00\x00\x80?\x00\x00\x80?\x00\x00\x80?\x00\x00\x80?\x00\x00\x80?\x00\x00\x80?\x00\x00\x80?\x00\x00\x80?\x00\x00\x80?\x00\x00\x80?\x00\x00\x80?\x00\x00\x80?\x00\x00\x80?\x00\x00\x80?\x00\x00\x80?\x00\x00\x80?\x00\x00\x80?\x00\x00\x80?\x00\x00\x80?\x00\x00\x80?\x00\x00\x80?\x00\x00\x80?\x00\x00\x80?\x00\x00\x80?\x00\x00\x80?\x00\x00\x80?\x00\x00\x80?\x00\x00\x80?\x00\x00\x80?\x00\x00\x80?\x00\x00\x80?\x00\x00\x80?\x00\x00\x80?'
S'\x00\x00\x00\x00\x00\x00\x00\x00\x00\x00\x00\x00\x00\x00\x00\x00\x00\x00\x00\x00\x00\x00\x00\x00\x00\x00\x00\x00\x00\x00\x00\x00\x00\x00\x00\x00\x00\x00\x00\x00\x00\x00\x00\x00\x00\x00\x00\x00\x00\x00\x00\x00\x00\x00\x00\x00\x00\x00\x00\x00\x00\x00\x00\x00\x00\x00\x00\x00\x00\x00\x00\x00\x00\x00\x00\x00\x00\x00\x00\x00\x00\x00\x00\x00\x00\x00\x00\x00\x00\x00\x00\x00\x00\x00\x00\x00\x00\x00\x00\x00\x00\x00\x00\x00\x00\x00\x00\x00\x00\x00\x00\x00\x00\x00\x00\x00\x00\x00\x00\x00\x00\x00\x00\x00\x00\x00\x00\x00\x00\x00\x00\x00\x00\x00\x00\x00\x00\x00\x00\x00\x00\x00\x00\x00\x00\x00\x00\x00\x00\x00\x00\x00\x00\x00\x00\x00\x00\x00\x00\x00\x00\x00\x00\x00\x00\x00\x00\x00\x00\x00\x00\x00\x00\x00\x00\x00\x00\x00\x00\x00\x00\x00\x00\x00\x00\x00\x00\x00\x00\x00\x00\x00\x00\x00\x00\x00\x00\x00\x00\x00\x00\x00\x00\x00\x00\x00\x00\x00\x00\x00\x00\x00\x00\x00\x00\x00\x00\x00\x00\x00\x00\x00\x00\x00\x00\x00\x00\x00\x00\x00\x00\x00\x00\x00\x00\x00\x00\x00\x00\x00\x00\x00\x00\x00\x00\x00\x00\x00\x00\x00\x00\x00\x00\x00\x00\x00\x00\x00\x00\x00\x00\x00\x00\x00\x00\x00\x00\x00\x00\x00\x00\x00\x00\x00\x00\x00\x00\x00\x00\x00\x00\x00\x00\x00\x00\x00\x00\x00\x00\x00\x00\x00\x00\x00\x00\x00\x00\x00\x00\x00\x00\x00\x00\x00\x00\x00\x00\x00\x00\x00\x00\x00\x00\x00\x00\x00\x00\x00\x00\x00\x00\x00\x00\x00\x00\x00\x00\x00\x00\x00\x00\x00\x00\x00\x00\x00\x00\x00\x00\x00\x00\x00\x00\x00\x00\x00\x00\x00\x00\x00\x00\x00\x00\x00\x00\x00\x00\x00\x00\x00\x00\x00\x00\x00\x00\x00\x00\x00\x00\x00\x00\x00\x00\x00\x00\x00\x00\x00\x00\x00\x00\x00\x00\x00\x00\x00\x00\x00\x00\x00\x00\x00\x00\x00\x00\x00\x00\x00\x00\x00\x00\x00\x00\x00\x00\x00\x00\x00\x00\x00\x00\x00\x00\x00\x00\x00\x00\x00\x00\x00\x00\x00\x00\x00\x00\x00\x00\x00\x00\x00\x00\x00\x00\x00\x00\x00\x00\x00\x00\x00\x00\x00\x00\x00\x00\x00\x00\x00\x00\x00\x00\x00\x00\x00\x00\x00\x00\x00\x00\x00\x00\x00\x00\x00\x00\x00\x00\x00\x00\x00\x00\x00\x00\x00\x00\x00\x00\x00\x00\x00\x00\x00\x00\x00\x00\x00\x00\x00\x00\x00\x00\x00\x00\x00\x00\x00\x00\x00\x00\x00\x00\x00\x00\x00\x00\x00\x00\x00\x00\x00\x00\x00\x00\x00\x00\x00\x00\x00\x00\x00\x00\x00\x00\x00\x00\x00\x00\x00\x00\x00\x00\x00\x00\x00\x00\x00\x00\x00\x00\x00\x00\x00\x00\x00\x00\x00\x00\x00\x00\x00\x00\x00\x00\x00\x00\x00\x00\x00\x00\x00\x00\x00\x00\x00\x00\x00\x00\x00\x00\x00\x00\x00\x00\x00\x00\x00\x00\x00\x00\x00\x00\x00\x00\x00\x00\x00\x00\x00\x00\x00\x00\x00\x00\x00\x00\x00\x00\x00\x00\x00'
Ntbsg55
g48
(g49
g50
g51
S'b'
tRp4613
(I1
(I600
I1
tg54
I00
S'\x00\x00\x88A\x00\x00\x04D\x00\x00>C\x00\x80\xa3C\x00\x00dB\x00\x00\x96C\x00\x00\xa8B\x00\x00\xa2B\x00\x00\rD\x00\x80\xa8C\x00\x00\nD\x00\x00\xbeB\x00\x009C\x00\x80\xd1C\x00\x80\x84C\x00\x00\xadC\x00\x00vC\x00\xc0\x05D\x00\x00\xe3C\x00\x00\x92C\x00\x00QC\x00\x80\xa4C\x00\x00\x0bD\x00\x80\x0bD\x00\x00\xb2B\x00\x80\xa6C\x00\x80\xdfC\x00\x80\xc5C\x00\x00\x10B\x00\x00\xa5C\x00\x00\x08B\x00\x00\x81C\x00\x00\xb2C\x00\x00\xf0C\x00\x00pC\x00\x80\xfcC\x00\x00UC\x00\x00\x1cB\x00\x80\xc7C\x00\x80\xa7C\x00\x80\xadC\x00\x00;C\x00\x00\xaaC\x00\x80\xffC\x00\x80\x8eC\x00\x00,B\x00\x80\x82C\x00\x00\xd7C\x00\x80\xe5C\x00\x00\x08D\x00\x00WC\x00\x80\xc4C\x00\x00\xbfC\x00\x00LB\x00\x80\xf8C\x00\x00\x9cC\x00\x00\xf7C\x00\x00\xacB\x00\x00`B\x00\x00\x82B\x00\x80\xb1C\x00\x00\xc6C\x00\x00\x1aC\x00\x00\x10A\x00\x00\x11C\x00\x80\x13D\x00\x00\xccB\x00\x00\xf4C\x00\x00BC\x00\x00\x1dC\x00\x80\xc8C\x00\x00\xd2B\x00\x80\x02D\x00\x00CC\x00\x00\x00B\x00\x00jC\x00\x00\x0cD\x00\x00\x13C\x00\x00\xcaC\x00\xc0\x0eD\x00\x00\xe8A\x00\x00\xcbC\x00\x00\xc2C\x00\x00\xabC\x00\x80\xb7C\x00\x80\xf0C\x00\x00\xb4C\x00\x80\xaaC\x00\x80\x92C\x00\x00\x8dC\x00\x00\x8cC\x00\x00\xfeB\x00\x00\xe6B\x00\x00qC\x00\x00\xc3C\x00\x80\xb8C\x00\x00\x87C\x00\x80\xf2C\x00\x80\xe6C\x00\x00uC\x00\x00\xeeB\x00\x00\x91C\x00\x80\x9eC\x00\x00TB\x00@\x05D\x00\x00tC\x00\xc0\x12D\x00\x00DB\x00\x80\xd6C\x00\x00\xfaB\x00\x00\xa1C\x00\x80\xedC\x00\x00<C\x00\x00\xb6C\x00\x80\tD\x00\x00\x06D\x00\x00\xddC\x00\x00\xe0@\x00\x80\xacC\x00\x00\\C\x00\x80\xb6C\x00\x00\xf6B\x00\x00\xc8B\x00\x80\nD\x00\x00\xf6C\x00\x80\xdcC\x00\x80\xd2C\x00\x80\x98C\x00\x80\xe1C\x00\xc0\x0fD\x00@\x12D\x00\x00\xaeC\x00\x00XC\x00\x00tB\x00\x00\xa9C\x00\x00{C\x00\x00#C\x00\x00AC\x00\xc0\x06D\x00\xc0\x03D\x00\x00\xd0A\x00\x80\x90C\x00\x80\x01D\x00\x80\xb4C\x00\x80\rD\x00\x008B\x00\x00\xe6C\x00\x00\xeaC\x00\x00XB\x00\x80\xb2C\x00\x00\xa2C\x00\x80\x11D\x00\x80\xa0C\x00\x00\xfaC\x00\x00PB\x00\x00)C\x00\x00(B\x00\x00\xe2B\x00\x80\xfdC\x00\x00\x0fD\x00\x80\xd4C\x00\x00,C\x00\x00]C\x00\x00\x8fC\x00\xc0\x11D\x00\x00\x80B\x00\x00\x98B\x00\x80\x88C\x00\x80\xfbC\x00\x00\nC\x00\x00DC\x00\x80\xaeC\x00\x80\x8dC\x00\x00\xf8B\x00\x80\x03D\x00\x80\xc6C\x00\x00\xccC\x00\x00\xc1C\x00\x80\xddC\x00\x00\x98A\x00\x00\xd3C\x00\x80\xc1C\x00\x00HB\x00\x80\xbfC\x00\x80\xdaC\x00\x00`C\x00\x80\xabC\x00\x00\x84C\x00\xc0\x10D\x00\x80\xc9C\x00\xc0\x07D\x00\x80\xbdC\x00\x80\x08D\x00\x00\xedC\x00\x00\x90C\x00\x000C\x00\x00[C\x00\x00zC\x00\x00LC\x00\x80\x14D\x00\x00\x8eC\x00\x004B\x00\x80\x86C\x00\x80\xefC\x00\x00\xb0C\x00@\tD\x00\x00\x0fC\x00\x00\x83C\x00\x80\x93C\x00\x00\tC\x00\x80\x99C\x00\x80\xbaC\x00\x00\x99C\x00\x80\xc0C\x00\x00\xd1C\x00\x80\x9bC\x00\x80\xd3C\x00\x00\x8cB\x00@\x07D\x00\x00\xc0C\x00@\x10D\x00\x80\x07D\x00\x00\xebC\x00\x00-C\x00\x00\x00@\x00\x00\x1eC\x00\x00\xffC\x00\x00\x1bC\x00\x00\xe0C\x00\x80\xe2C\x00\x00hC\x00\x00\xe4B\x00\xc0\x00D\x00\x00\x8bC\x00\x80\xc3C\x00@\x02D\x00\x80\xfaC\x00\x80\xceC\x00\x00\xa8C\x00\x00\xdaB\x00\x00\xd5C\x00\x00\xc8C\x00\x00\xf2C\x00\x80\xb3C\x00\x00\xc6B\x00\x00MC\x00\x00YC\x00\x80\xf5C\x00\x00\x85C\x00\x80\x0cD\x00\x00\x19C\x00\xc0\rD\x00\x00\x7fC\x00\x00lC\x00\x00\x89C\x00\xc0\x0bD\x00\x80\xfeC\x00\x00\xd4B\x00\x00\xd6C\x00\x00\xb7C\x00\x80\x8cC\x00\x00\xe8C\x00\x00\x86B\x00\x00\x12C\x00\x80\xf9C\x00\x00\x18C\x00\x00\x80A\x00\x00|B\x00\x00}C\x00\x00\xacC\x00\x80\x8bC\x00\x80\x00D\x00\x00\x1cC\x00\x80\xd9C\x00\x80\x80C\x00\x00\xa4B\x00\x00ZC\x00\xc0\x01D\x00\x80\xbeC\x00\x00GC\x00\x00.C\x00@\x01D\x00\x00\x0cB\x00\x004C\x00\x00\xd0C\x00\x00\xeaB\x00\x00\xe5C\x00\x00\xecC\x00\x80\x9fC\x00\x00\xf0B\x00\x00\xc0B\x00\x00\xbdC\x00\x80\xebC\x00\x00~C\x00\x00\x00D\x00\x00<B\x00\x00\x9bC\x00@\x0fD\x00\x00gC\x00\x00kC\x00\x80\x04D\x00\x80\x81C\x00\x00eC\x00\x00`A\x00\x00*C\x00\x00\xf8A\x00\x80\xf4C\x00@\x03D\x00\x00\xe0A\x00\x00\xa0A\x00\x00\xa7C\x00\x00@A\x00\x00wC\x00\x00fC\x00\x00\x14C\x00\x80\xa9C\x00\x00\xfeC\x00\x00\xfdC\x00\x00\xefC\x00\x00\xb0B\x00\x00\x92B\x00\x00+C\x00@\rD\x00\x00\xcdC\x00@\x04D\x00\x00\x01D\x00\x00hB\x00\x00 B\x00\x00$B\x00\x00EC\x00\x00\x9eC\x00\x00PA\x00\x80\xf1C\x00\x80\x94C\x00\x00\xaaB\x00\x00rC\x00\x00\\B\x00\x00PC\x00\x80\xb0C\x00\x00\xf1C\x00\x00\xb3C\x00\x00\xdeC\x00@\x0cD\x00\x80\x0eD\x00\x00\xc0A\x00\x80\xbbC\x00\x80\x91C\x00\xc0\x14D\x00\x00TC\x00\x00@@\x00\x00\x15D\x00\x00\x02C\x00\x80\xa5C\x00\xc0\tD\x00\x00\x94B\x00\x00\xdbC\x00\x00\xbcB\x00\x00\x94C\x00@\x11D\x00\x00\x93C\x00\x00\x00C\x00@\nD\x00\x00\x84B\x00\x00\xe2C\x00\x00:C\x00\x00\xa0@\x00\x00%C\x00\x80\xdeC\x00\xc0\x08D\x00\x00dC\x00\x00\x90B\x00\x00\xb4B\x00\x00pA\x00\x80\xccC\x00\x80\xe7C\x00\x00\xa4C\x00\x00\x80?\x00\x00\xd8A\x00\xc0\x15D\x00\x00$C\x00\x00pB\x00\x00(C\x00\x00\'C\x00\x00\xdaC\x00\x00\xc5C\x00\x00|C\x00\x00\xf4B\x00\x80\xdbC\x00\x00 A\x00\x00\xf5C\x00\x00aC\x00\x00\x03C\x00\x00\xc4C\x00\x80\xcfC\x00\x00\x10C\x00\x80\xf7C\x00\x00\x03D\x00\x80\xeaC\x00\x00mC\x00\x00\xc0@\x00\x80\xf3C\x00\x80\xd8C\x00\xc0\x13D\x00\x00\x96B\x00\x00\xa0C\x00\x00\x15C\x00\x80\x89C\x00@\x14D\x00\x00\xeeC\x00\x80\x83C\x00\x00\tD\x00\x00oC\x00\x80\xbcC\x00\x00\xc9C\x00\x80\xb5C\x00\x00@C\x00\x00\xe7C\x00\x00\x8eB\x00\x000A\x00\x00\x07D\x00\x00\x82C\x00\x00\x14B\x00\x00\xbaC\x00\x00\xcfC\x00\x00\x06C\x00\x00JC\x00\x80\x85C\x00\x00\x88B\x00\x80\x8fC\x00\x00\x97C\x00\x00OC\x00\xc0\x02D\x00\x00\x0eD\x00\x00\x08C\x00\x00?C\x00@\x00D\x00\x00"C\x00@\x15D\x00\x00\x0cC\x00\x80\xeeC\x00\x00iC\x00\x80\xe3C\x00@\x08D\x00\x00\xd9C\x00\x00\xb0A\x00\x80\x87C\x00\x00\x05C\x00@\x0eD\x00\x00\x04B\x00\x00SC\x00\x00\x9aB\x00\x00\xb8C\x00\x00\xbbC\x00\x00\xf8C\x00\x00\xb5C\x00\x00\x13D\x00\x00nC\x00\x00\xfcB\x00\x00yC\x00\x00\xe8B\x00\xc0\nD\x00\x00\xfcC\x00\x00=C\x00\x80\x12D\x00\x00\xb9C\x00\x80\xd5C\x00\x00FC\x00\x00\xceB\x00\x00\xbcC\x00\x00\xbaB\x00\x00\x9eB\x00\x00\xf0A\x00\x00\x04C\x00\x00\xe0B\x00\x00\xb6B\x00@\x0bD\x00\x00cC\x00@\x13D\x00\x00\xc8A\x00\x00\x10D\x00\x00\x8aC\x00\x00\xe4C\x00\x002C\x00\x00\x86C\x00\x00\xd8B\x00\x80\x06D\x00\x00\x90A\x00\x00\xdfC\x00\x00\x0bC\x00\xc0\x0cD\x00\x00\x00A\x00\x00\x05D\x00\x80\xa1C\x00\x00\xe9C\x00\x80\xcdC\x00\x00\xd2C\x00\x00\x9aC\x00\x00HC\x00\x80\x96C\x00\x00\xa3C\x00\x00\xa0B\x00\x80\x0fD\x00\x80\xd7C\x00\x00\xa6C\x00\x80\x15D\x00\x00\x80C\x00\x00\xdcB\x00\x00NC\x00\x80\xd0C\x00\x00\xecB\x00\x00\x95C\x00\x00\xb8B\x00\x80\xecC\x00\x00\xdcC\x00\x80\xf6C\x00\x00sC\x00\x80\xe8C\x00\x00\x01C\x00\x00\xceC\x00\x00\rC\x00\x00/C\x00\x00\xdeB\x00\x00\xe1C\x00\x00\xaeB\x00\x00\xd0B\x00\x00\xbeC\x00\x00\x02D\x00\x00\xc7C\x00\x80\x10D\x00\x80\xcaC\x00\x80\x8aC\x00\x00\x00\x00\x00\x80\xafC\x00@\x06D\x00\x00\xa8A\x00\x00RC\x00\x007C\x00\x80\x9cC\x00\x00bC\x00\x00\xd4C\x00\x00\x0eC\x00\xc0\x04D\x00\x00\x9fC\x00\x000B\x00\x00\x9dC\x00\x00!C\x00\x00\xfbC\x00\x00\xb1C\x00\x00\x98C\x00\x00xB\x00\x80\x95C\x00\x00^C\x00\x80\xb9C\x00\x00\x8aB\x00\x00IC\x00\x00\x17C\x00\x008C\x00\x00\xa6B\x00\x00\xcaB\x00\x80\xc2C\x00\x005C\x00\x00\x88C\x00\x00_C\x00\x00@B\x00\x80\xe9C\x00\x00&C\x00\x003C\x00\x80\x05D\x00\x00\xd8C\x00\x80\xe0C\x00\x00 C\x00\x00\xc4B\x00\x00\x9cB\x00\x80\xcbC\x00\x00\xafC\x00\x00\x12D\x00\x80\x9dC\x00\x80\xe4C\x00\x00xC\x00\x00\x16C\x00\x80\x9aC\x00\x00\xf3C\x00\x001C\x00\x00\x07C\x00\x80\xa2C\x00\x00lB\x00\x00\xb8A\x00\x00\x11D\x00\x00\xd6B\x00\x00\xf2B\x00\x00KC\x00\x00\x18B\x00\x00\x14D\x00\x00\x1fC\x00\x00\xf9C\x00\x006C\x00\x80\x97C\x00\x00\xc2B\x00\x00\x80@\x00\x00VC'
S'\x00\x00\x00\x00\x00\x00\x00\x00\x00\x00\x00\x00\x00\x00\x00\x00\x00\x00\x00\x00\x00\x00\x00\x00\x00\x00\x00\x00\x00\x00\x00\x00\x00\x00\x00\x00\x00\x00\x00\x00\x00\x00\x00\x00\x00\x00\x00\x00\x00\x00\x00\x00\x00\x00\x00\x00\x00\x00\x00\x00\x00\x00\x00\x00\x00\x00\x00\x00\x00\x00\x00\x00\x00\x00\x00\x00\x00\x00\x00\x00\x00\x00\x00\x00\x00\x00\x00\x00\x00\x00\x00\x00\x00\x00\x00\x00\x00\x00\x00\x00\x00\x00\x00\x00\x00\x00\x00\x00\x00\x00\x00\x00\x00\x00\x00\x00\x00\x00\x00\x00\x00\x00\x00\x00\x00\x00\x00\x00\x00\x00\x00\x00\x00\x00\x00\x00\x00\x00\x00\x00\x00\x00\x00\x00\x00\x00\x00\x00\x00\x00\x00\x00\x00\x00\x00\x00\x00\x00\x00\x00\x00\x00\x00\x00\x00\x00\x00\x00\x00\x00\x00\x00\x00\x00\x00\x00\x00\x00\x00\x00\x00\x00\x00\x00\x00\x00\x00\x00\x00\x00\x00\x00\x00\x00\x00\x00\x00\x00\x00\x00\x00\x00\x00\x00\x00\x00\x00\x00\x00\x00\x00\x00\x00\x00\x00\x00\x00\x00\x00\x00\x00\x00\x00\x00\x00\x00\x00\x00\x00\x00\x00\x00\x00\x00\x00\x00\x00\x00\x00\x00\x00\x00\x00\x00\x00\x00\x00\x00\x00\x00\x00\x00\x00\x00\x00\x00\x00\x00\x00\x00\x00\x00\x00\x00\x00\x00\x00\x00\x00\x00\x00\x00\x00\x00\x00\x00\x00\x00\x00\x00\x00\x00\x00\x00\x00\x00\x00\x00\x00\x00\x00\x00\x00\x00\x00\x00\x00\x00\x00\x00\x00\x00\x00\x00\x00\x00\x00\x00\x00\x00\x00\x00\x00\x00\x00\x00\x00\x00\x00\x00\x00\x00\x00\x00\x00\x00\x00\x00\x00\x00\x00\x00\x00\x00\x00\x00\x00\x00\x00\x00\x00\x00\x00\x00\x00\x00\x00\x00\x00\x00\x00\x00\x00\x00\x00\x00\x00\x00\x00\x00\x00\x00\x00\x00\x00\x00\x00\x00\x00\x00\x00\x00\x00\x00\x00\x00\x00\x00\x00\x00\x00\x00\x00\x00\x00\x00\x00\x00\x00\x00\x00\x00\x00\x00\x00\x00\x00\x00\x00\x00\x00\x00\x00\x00\x00\x00\x00\x00\x00\x00\x00\x00\x00\x00\x00\x00\x00\x00\x00\x00\x00\x00\x00\x00\x00\x00\x00\x00\x00\x00\x00\x00\x00\x00\x00\x00\x00\x00\x00\x00\x00\x00\x00\x00\x00\x00\x00\x00\x00\x00\x00\x00\x00\x00\x00\x00\x00\x00\x00\x00\x00\x00\x00\x00\x00\x00\x00\x00\x00\x00\x00\x00\x00\x00\x00\x00\x00\x00\x00\x00\x00\x00\x00\x00\x00\x00\x00\x00\x00\x00\x00\x00\x00\x00\x00\x00\x00\x00\x00\x00\x00\x00\x00\x00\x00\x00\x00\x00\x00\x00\x00\x00\x00\x00\x00\x00\x00\x00\x00\x00\x00\x00\x00\x00\x00\x00\x00\x00\x00\x00\x00\x00\x00\x00\x00\x00\x00\x00\x00\x00\x00\x00\x00\x00\x00\x00\x00\x00\x00\x00\x00\x00\x00\x00\x00\x00\x00\x00\x00\x00\x00\x00\x00\x00\x00\x00\x00\x00\x00\x00\x00\x00\x00\x00\x00\x00\x00\x00\x00\x00\x00\x00\x00\x00\x00\x00\x00\x00\x00\x00\x00\x00\x00\x00\x00\x00\x00\x00\x00\x00'
NtbstRp4614
(dp4615
g59
(dp4616
g47
I01
sg55
I01
ssg61
g4608
sg62
(lp4617
g47
ag55
asg64
(lp4618
I600
aI1
asbsg66
S'random'
p4619
sg68
g69
(g50
(I0
tS'b'
tRp4620
(I1
(I600
I1
tg53
(S'i4'
I0
I1
tRp4621
(I3
S'<'
NNNI-1
I-1
I0
tbI01
S'\x13\x02\x00\x00x\x01\x00\x00\xe0\x00\x00\x00]\x01\x00\x00V\x02\x00\x00m\x01\x00\x00\x8f\x01\x00\x00u\x00\x00\x00\xea\x01\x00\x00?\x00\x00\x00\x84\x01\x00\x00\xa2\x01\x00\x007\x01\x00\x00K\x01\x00\x00/\x01\x00\x00t\x01\x00\x00\n\x01\x00\x00\x00\x00\x00\x00\xe6\x01\x00\x00\xb3\x00\x00\x005\x01\x00\x00\x16\x02\x00\x00\xbc\x01\x00\x00J\x02\x00\x00X\x01\x00\x00\xde\x01\x00\x00\x8c\x00\x00\x00y\x01\x00\x004\x01\x00\x00P\x00\x00\x00\xd7\x01\x00\x001\x01\x00\x00J\x00\x00\x00\xc0\x01\x00\x00\x1e\x00\x00\x00\x1a\x01\x00\x00\x1c\x00\x00\x00\xa5\x01\x00\x00O\x02\x00\x00%\x00\x00\x00G\x01\x00\x00H\x01\x00\x00\x9c\x00\x00\x00-\x00\x00\x00\x1f\x02\x00\x00\xc9\x00\x00\x00\x91\x00\x00\x00\'\x01\x00\x003\x02\x00\x00k\x00\x00\x00\xb6\x00\x00\x005\x00\x00\x00\x9a\x00\x00\x00g\x00\x00\x00\x94\x00\x00\x00P\x01\x00\x00:\x00\x00\x00\x04\x00\x00\x00F\x01\x00\x00I\x02\x00\x00|\x01\x00\x00\x85\x00\x00\x00%\x02\x00\x00\x0b\x01\x00\x00\xa5\x00\x00\x00;\x00\x00\x00j\x01\x00\x00\x06\x01\x00\x00\xab\x01\x00\x00)\x02\x00\x00\xd9\x00\x00\x00\xa1\x01\x00\x00r\x01\x00\x00@\x01\x00\x00b\x01\x00\x00\x93\x01\x00\x00\xa6\x00\x00\x00\xc2\x01\x00\x00<\x02\x00\x00\xd6\x01\x00\x00\xf4\x01\x00\x00\x07\x00\x00\x00\x13\x01\x00\x00-\x02\x00\x00\x06\x00\x00\x00N\x01\x00\x009\x00\x00\x00\x0b\x02\x00\x00?\x01\x00\x00\x18\x00\x00\x00s\x01\x00\x00\xda\x01\x00\x00\xff\x01\x00\x00\xd5\x01\x00\x00d\x01\x00\x00\x0b\x00\x00\x00"\x01\x00\x00U\x02\x00\x00;\x02\x00\x00\xf4\x00\x00\x00z\x00\x00\x00.\x02\x00\x00B\x00\x00\x00\xd3\x01\x00\x00\x0c\x02\x00\x00G\x00\x00\x00\x01\x01\x00\x00L\x02\x00\x00\xe4\x01\x00\x00\xef\x00\x00\x00\xfa\x01\x00\x00\t\x02\x00\x00\xd9\x01\x00\x00\x9d\x00\x00\x00\xe7\x00\x00\x00\\\x00\x00\x00\xcb\x01\x00\x00\x1d\x01\x00\x00\xfd\x01\x00\x00d\x00\x00\x00!\x01\x00\x00M\x02\x00\x00\x82\x01\x00\x00y\x00\x00\x00\xad\x00\x00\x00m\x00\x00\x00\xc9\x01\x00\x00[\x00\x00\x00h\x01\x00\x00\x05\x02\x00\x00_\x01\x00\x00\x87\x01\x00\x00\xd8\x01\x00\x00\xbe\x01\x00\x00\xa8\x01\x00\x00G\x02\x00\x00\xb1\x01\x00\x00\xd1\x00\x00\x00\xa9\x00\x00\x00\xe8\x01\x00\x00\xb6\x01\x00\x00\x07\x02\x00\x00\x1c\x02\x00\x00\xce\x00\x00\x00\x8a\x01\x00\x00@\x00\x00\x00\x07\x01\x00\x00M\x00\x00\x00:\x01\x00\x00\x95\x01\x00\x00C\x02\x00\x00+\x02\x00\x00\t\x01\x00\x00\xfa\x00\x00\x00>\x00\x00\x00\xe3\x00\x00\x00\x10\x01\x00\x00E\x00\x00\x00\xe1\x00\x00\x00Q\x02\x00\x00:\x02\x00\x00!\x02\x00\x00\xb4\x01\x00\x00\x88\x00\x00\x00{\x01\x00\x00n\x01\x00\x005\x02\x00\x00~\x01\x00\x00}\x01\x00\x00\x9b\x00\x00\x000\x01\x00\x00A\x01\x00\x00\xa1\x00\x00\x00\xdf\x00\x00\x00\x18\x01\x00\x00\x08\x02\x00\x00\xc3\x00\x00\x00F\x02\x00\x00\xe2\x01\x00\x006\x02\x00\x00\x1b\x01\x00\x000\x02\x00\x00S\x02\x00\x00\x18\x02\x00\x00,\x02\x00\x00\x0c\x00\x00\x00l\x01\x00\x00)\x00\x00\x00p\x00\x00\x00\xce\x01\x00\x00\x02\x00\x00\x00\xb2\x01\x00\x00\x9f\x01\x00\x00\x89\x00\x00\x00D\x00\x00\x00I\x00\x00\x00\xaa\x00\x00\x00I\x01\x00\x00\xd2\x01\x00\x00\x17\x01\x00\x00\xf1\x01\x00\x00*\x02\x00\x00\xa9\x01\x00\x00N\x02\x00\x00\xc6\x00\x00\x00\xf5\x00\x00\x00\xfb\x01\x00\x00\xae\x01\x00\x00Q\x01\x00\x00\x14\x00\x00\x00\x17\x02\x00\x00\xc1\x01\x00\x00\\\x01\x00\x00$\x00\x00\x00W\x02\x00\x002\x00\x00\x00\x84\x00\x00\x00\xf6\x00\x00\x00\x14\x01\x00\x00\xc4\x00\x00\x00w\x00\x00\x00\xa2\x00\x00\x00\'\x02\x00\x002\x02\x00\x00\xb9\x00\x00\x00\x86\x01\x00\x00\x1a\x02\x00\x00\xdc\x01\x00\x00q\x01\x00\x00.\x01\x00\x009\x01\x00\x00*\x01\x00\x00\xe6\x00\x00\x00\xb8\x01\x00\x00K\x00\x00\x00+\x01\x00\x00\xfd\x00\x00\x00\x8e\x01\x00\x00\xc8\x01\x00\x00\x9b\x01\x00\x00"\x00\x00\x00]\x00\x00\x00O\x01\x00\x00\x03\x02\x00\x00i\x00\x00\x00c\x00\x00\x00\x10\x00\x00\x008\x01\x00\x00B\x02\x00\x00\xca\x01\x00\x00\xc5\x00\x00\x00\x87\x00\x00\x00\x81\x01\x00\x00\x0c\x01\x00\x00%\x01\x00\x00\xfc\x00\x00\x00\xf9\x01\x00\x00\x12\x01\x00\x00\x1f\x00\x00\x00-\x01\x00\x00\xa4\x01\x00\x00.\x00\x00\x00\xcf\x00\x00\x00\x99\x01\x00\x00\xbb\x00\x00\x00\x0e\x00\x00\x00\xf8\x00\x00\x00\xaa\x01\x00\x00\xe3\x01\x00\x00\xca\x00\x00\x00`\x00\x00\x00\xbd\x01\x00\x001\x02\x00\x00\xa7\x00\x00\x00\xfe\x00\x00\x00\x96\x01\x00\x00\xe0\x01\x00\x00\x12\x02\x00\x00\xe9\x00\x00\x00\x0e\x01\x00\x00Z\x00\x00\x00\x04\x01\x00\x00Y\x00\x00\x00\xac\x00\x00\x00\xc8\x00\x00\x00,\x00\x00\x00\xa3\x00\x00\x00\xac\x01\x00\x00\xc2\x00\x00\x00\x8d\x00\x00\x00e\x00\x00\x00Z\x01\x00\x00\x13\x00\x00\x00X\x00\x00\x00g\x01\x00\x00\xd0\x00\x00\x00e\x01\x00\x00M\x01\x00\x00\xfe\x01\x00\x00&\x02\x00\x00\x05\x00\x00\x00\xf2\x01\x00\x00\xad\x01\x00\x00T\x02\x00\x00$\x02\x00\x00\x7f\x00\x00\x00\xd4\x00\x00\x00\xd2\x00\x00\x00\xf0\x01\x00\x00D\x02\x00\x00(\x01\x00\x00\xd7\x00\x00\x007\x00\x00\x00\x19\x02\x00\x00 \x02\x00\x00@\x02\x00\x00J\x01\x00\x00f\x00\x00\x00\x1e\x02\x00\x00 \x01\x00\x00\x94\x01\x00\x00\x98\x00\x00\x00n\x00\x00\x00\xec\x01\x00\x00\x96\x00\x00\x00H\x02\x00\x00\xf3\x01\x00\x00\x03\x00\x00\x00w\x01\x00\x00\x15\x00\x00\x00\x1d\x00\x00\x00`\x01\x00\x00\xf7\x01\x00\x00\x19\x00\x00\x006\x01\x00\x00\'\x00\x00\x00\xee\x00\x00\x00\t\x00\x00\x00\x86\x00\x00\x00;\x01\x00\x00*\x00\x00\x00W\x00\x00\x00S\x00\x00\x00\xba\x00\x00\x00\r\x01\x00\x00v\x00\x00\x00\x0f\x00\x00\x00(\x00\x00\x00\x83\x00\x00\x00\xab\x00\x00\x00>\x02\x00\x00\x14\x02\x00\x00\xcc\x00\x00\x00R\x01\x00\x00#\x02\x00\x00<\x00\x00\x00 \x00\x00\x00\x95\x00\x00\x00T\x01\x00\x00\xf3\x00\x00\x00V\x00\x00\x00\x8f\x00\x00\x00\xc6\x01\x00\x00\x9e\x01\x00\x00q\x00\x00\x00x\x00\x00\x00\x03\x01\x00\x00T\x00\x00\x00\xc3\x01\x00\x00_\x00\x00\x00\xd0\x01\x00\x00(\x02\x00\x00\xa6\x01\x00\x00\xd3\x00\x00\x00\xc4\x01\x00\x00Y\x01\x00\x00\xd4\x01\x00\x00\x9c\x01\x00\x00#\x01\x00\x00\xbf\x00\x00\x00\r\x02\x00\x00\x16\x01\x00\x004\x00\x00\x00\xb7\x00\x00\x00\xdb\x00\x00\x00\xd5\x00\x00\x00\xb1\x00\x00\x00\xb5\x00\x00\x00R\x00\x00\x00/\x02\x00\x00^\x00\x00\x00\xea\x00\x00\x00\x88\x01\x00\x003\x00\x00\x00\x80\x01\x00\x00\x1b\x00\x00\x00=\x00\x00\x00\xaf\x00\x00\x00\x0f\x02\x00\x00&\x00\x00\x00\xf1\x00\x00\x00F\x00\x00\x00\x9d\x01\x00\x00\xbd\x00\x00\x00N\x00\x00\x00\x11\x02\x00\x00Q\x00\x00\x00=\x02\x00\x00\xb0\x00\x00\x00u\x01\x00\x00C\x01\x00\x00\xee\x01\x00\x00\x06\x02\x00\x00\xed\x00\x00\x00\xa7\x01\x00\x00\x89\x01\x00\x00\x1c\x01\x00\x00\xfc\x01\x00\x00\xd6\x00\x00\x00\r\x00\x00\x00\xef\x01\x00\x00~\x00\x00\x00\xb4\x00\x00\x00\xd8\x00\x00\x00\x1b\x02\x00\x00\xa0\x00\x00\x00\xf0\x00\x00\x00\xd1\x01\x00\x00\x02\x01\x00\x00l\x00\x00\x00/\x00\x00\x00\xf6\x01\x00\x008\x02\x00\x00\x91\x01\x00\x00\xbb\x01\x00\x00\x11\x01\x00\x00\x7f\x01\x00\x00\xb8\x00\x00\x00c\x01\x00\x00\x83\x01\x00\x00\x01\x02\x00\x00}\x00\x00\x00t\x00\x00\x00\xb2\x00\x00\x00U\x01\x00\x00o\x01\x00\x00\xe7\x01\x00\x00\x1a\x00\x00\x00\xe4\x00\x00\x009\x02\x00\x00\n\x02\x00\x00\x80\x00\x00\x00k\x01\x00\x00\xe5\x00\x00\x00\x12\x00\x00\x00\xb9\x01\x00\x00\xe1\x01\x00\x00A\x02\x00\x00\x1e\x01\x00\x000\x00\x00\x00\x92\x00\x00\x00b\x00\x00\x00\xa0\x01\x00\x00v\x01\x00\x00\x05\x01\x00\x00\x04\x02\x00\x00\xed\x01\x00\x004\x02\x00\x00\x93\x00\x00\x00\x8d\x01\x00\x00\xde\x00\x00\x00$\x01\x00\x00\x1f\x01\x00\x00\x00\x02\x00\x00\xc1\x00\x00\x00o\x00\x00\x00\x98\x01\x00\x00\xb7\x01\x00\x00>\x01\x00\x00\xcb\x00\x00\x00!\x00\x00\x00U\x00\x00\x00S\x01\x00\x00L\x01\x00\x00\xf2\x00\x00\x00a\x00\x00\x00E\x02\x00\x00\x90\x01\x00\x00C\x00\x00\x002\x01\x00\x00\x85\x01\x00\x00\xf7\x00\x00\x00|\x00\x00\x00\x02\x02\x00\x008\x00\x00\x00\x8b\x01\x00\x00\xc5\x01\x00\x006\x00\x00\x00R\x02\x00\x00\x08\x01\x00\x00\x99\x00\x00\x00\xec\x00\x00\x00"\x02\x00\x00\xa8\x00\x00\x00\xcd\x01\x00\x00#\x00\x00\x00=\x01\x00\x00\x9e\x00\x00\x00<\x01\x00\x00\x00\x01\x00\x00\xe2\x00\x00\x00+\x00\x00\x00&\x01\x00\x00\xb3\x01\x00\x00\x0f\x01\x00\x00\xe8\x00\x00\x00E\x01\x00\x00\x19\x01\x00\x00\x8e\x00\x00\x00\x15\x01\x00\x00\x0e\x02\x00\x00\xeb\x00\x00\x00H\x00\x00\x00\xaf\x01\x00\x00\x8c\x01\x00\x003\x01\x00\x00\xae\x00\x00\x00\x8b\x00\x00\x00\x01\x00\x00\x00D\x01\x00\x00,\x01\x00\x00\x1d\x02\x00\x00\xeb\x01\x00\x00h\x00\x00\x007\x02\x00\x00\x11\x00\x00\x00s\x00\x00\x00\x15\x02\x00\x00\xe5\x01\x00\x00\x8a\x00\x00\x00\xa3\x01\x00\x00\xda\x00\x00\x00\xdd\x00\x00\x00\xbe\x00\x00\x001\x00\x00\x00\xba\x01\x00\x00\xc0\x00\x00\x00p\x01\x00\x00\x9a\x01\x00\x00\xcd\x00\x00\x00r\x00\x00\x00a\x01\x00\x00\n\x00\x00\x00i\x01\x00\x00{\x00\x00\x00\xcc\x01\x00\x00\x16\x00\x00\x00\xdb\x01\x00\x00\x17\x00\x00\x00\xff\x00\x00\x00L\x00\x00\x00V\x01\x00\x00\xf9\x00\x00\x00\xe9\x01\x00\x00\x08\x00\x00\x00B\x01\x00\x00\x90\x00\x00\x00\xfb\x00\x00\x00\xb0\x01\x00\x00\xbf\x01\x00\x00W\x01\x00\x00O\x00\x00\x00\x9f\x00\x00\x00)\x01\x00\x00\xf5\x01\x00\x00\x81\x00\x00\x00\xdf\x01\x00\x00\xdc\x00\x00\x00\x10\x02\x00\x00\xbc\x00\x00\x00K\x02\x00\x00f\x01\x00\x00\x97\x00\x00\x00\xa4\x00\x00\x00?\x02\x00\x00\x82\x00\x00\x00\xcf\x01\x00\x00j\x00\x00\x00\xc7\x01\x00\x00\xdd\x01\x00\x00A\x00\x00\x00\x92\x01\x00\x00P\x02\x00\x00\x97\x01\x00\x00\xc7\x00\x00\x00[\x01\x00\x00^\x01\x00\x00\xb5\x01\x00\x00\xf8\x01\x00\x00z\x01\x00\x00'
tbsg73
I01
sg74
I1
sg75
I-1
sg76
(lp4622
I0
aI1
aI2
aI3
aI4
aI5
aI6
aI7
aI8
aI9
aI10
aI11
aI12
aI13
aI14
aI15
aI16
aI17
aI18
aI19
aI20
aI21
aI22
aI23
aI24
aI25
aI26
aI27
aI28
aI29
aI30
aI31
aI32
aI33
aI34
aI35
aI36
aI37
aI38
aI39
aI40
aI41
aI42
aI43
aI44
aI45
aI46
aI47
aI48
aI49
aI50
aI51
aI52
aI53
aI54
aI55
aI56
aI57
aI58
aI59
aI60
aI61
aI62
aI63
aI64
aI65
aI66
aI67
aI68
aI69
aI70
aI71
aI72
aI73
aI74
aI75
aI76
aI77
aI78
aI79
aI80
aI81
aI82
aI83
aI84
aI85
aI86
aI87
aI88
aI89
aI90
aI91
aI92
aI93
aI94
aI95
aI96
aI97
aI98
aI99
aI100
aI101
aI102
aI103
aI104
aI105
aI106
aI107
aI108
aI109
aI110
aI111
aI112
aI113
aI114
aI115
aI116
aI117
aI118
aI119
aI120
aI121
aI122
aI123
aI124
aI125
aI126
aI127
aI128
aI129
aI130
aI131
aI132
aI133
aI134
aI135
aI136
aI137
aI138
aI139
aI140
aI141
aI142
aI143
aI144
aI145
aI146
aI147
aI148
aI149
aI150
aI151
aI152
aI153
aI154
aI155
aI156
aI157
aI158
aI159
aI160
aI161
aI162
aI163
aI164
aI165
aI166
aI167
aI168
aI169
aI170
aI171
aI172
aI173
aI174
aI175
aI176
aI177
aI178
aI179
aI180
aI181
aI182
aI183
aI184
aI185
aI186
aI187
aI188
aI189
aI190
aI191
aI192
aI193
aI194
aI195
aI196
aI197
aI198
aI199
aI200
aI201
aI202
aI203
aI204
aI205
aI206
aI207
aI208
aI209
aI210
aI211
aI212
aI213
aI214
aI215
aI216
aI217
aI218
aI219
aI220
aI221
aI222
aI223
aI224
aI225
aI226
aI227
aI228
aI229
aI230
aI231
aI232
aI233
aI234
aI235
aI236
aI237
aI238
aI239
aI240
aI241
aI242
aI243
aI244
aI245
aI246
aI247
aI248
aI249
aI250
aI251
aI252
aI253
aI254
aI255
aI256
aI257
aI258
aI259
aI260
aI261
aI262
aI263
aI264
aI265
aI266
aI267
aI268
aI269
aI270
aI271
aI272
aI273
aI274
aI275
aI276
aI277
aI278
aI279
aI280
aI281
aI282
aI283
aI284
aI285
aI286
aI287
aI288
aI289
aI290
aI291
aI292
aI293
aI294
aI295
aI296
aI297
aI298
aI299
aI300
aI301
aI302
aI303
aI304
aI305
aI306
aI307
aI308
aI309
aI310
aI311
aI312
aI313
aI314
aI315
aI316
aI317
aI318
aI319
aI320
aI321
aI322
aI323
aI324
aI325
aI326
aI327
aI328
aI329
aI330
aI331
aI332
aI333
aI334
aI335
aI336
aI337
aI338
aI339
aI340
aI341
aI342
aI343
aI344
aI345
aI346
aI347
aI348
aI349
aI350
aI351
aI352
aI353
aI354
aI355
aI356
aI357
aI358
aI359
aI360
aI361
aI362
aI363
aI364
aI365
aI366
aI367
aI368
aI369
aI370
aI371
aI372
aI373
aI374
aI375
aI376
aI377
aI378
aI379
aI380
aI381
aI382
aI383
aI384
aI385
aI386
aI387
aI388
aI389
aI390
aI391
aI392
aI393
aI394
aI395
aI396
aI397
aI398
aI399
aI400
aI401
aI402
aI403
aI404
aI405
aI406
aI407
aI408
aI409
aI410
aI411
aI412
aI413
aI414
aI415
aI416
aI417
aI418
aI419
aI420
aI421
aI422
aI423
aI424
aI425
aI426
aI427
aI428
aI429
aI430
aI431
aI432
aI433
aI434
aI435
aI436
aI437
aI438
aI439
aI440
aI441
aI442
aI443
aI444
aI445
aI446
aI447
aI448
aI449
aI450
aI451
aI452
aI453
aI454
aI455
aI456
aI457
aI458
aI459
aI460
aI461
aI462
aI463
aI464
aI465
aI466
aI467
aI468
aI469
aI470
aI471
aI472
aI473
aI474
aI475
aI476
aI477
aI478
aI479
aI480
aI481
aI482
aI483
aI484
aI485
aI486
aI487
aI488
aI489
aI490
aI491
aI492
aI493
aI494
aI495
aI496
aI497
aI498
aI499
aI500
aI501
aI502
aI503
aI504
aI505
aI506
aI507
aI508
aI509
aI510
aI511
aI512
aI513
aI514
aI515
aI516
aI517
aI518
aI519
aI520
aI521
aI522
aI523
aI524
aI525
aI526
aI527
aI528
aI529
aI530
aI531
aI532
aI533
aI534
aI535
aI536
aI537
aI538
aI539
aI540
aI541
aI542
aI543
aI544
aI545
aI546
aI547
aI548
aI549
aI550
aI551
aI552
aI553
aI554
aI555
aI556
aI557
aI558
aI559
aI560
aI561
aI562
aI563
aI564
aI565
aI566
aI567
aI568
aI569
aI570
aI571
aI572
aI573
aI574
aI575
aI576
aI577
aI578
aI579
aI580
aI581
aI582
aI583
aI584
aI585
aI586
aI587
aI588
aI589
aI590
aI591
aI592
aI593
aI594
aI595
aI596
aI597
aI598
aI599
asg78
Nsg79
cnumpy.core.multiarray
scalar
p4623
(g4621
S'z\x01\x00\x00'
tRp4624
sg80
I600
sg81
I0
sg82
I600
sg83
I01
sbag36
asS'savePickle'
p4625
I00
sb.