ccopy_reg
_reconstructor
p1
(cpsychopy.data
ExperimentHandler
p2
c__builtin__
object
p3
NtRp4
(dp5
S'originPath'
p6
NsS'dataFileName'
p7
Vsubject710
p8
sS'runtimeInfo'
p9
NsS'name'
p10
VVERBALRBsubject 710
p11
sS'dataNames'
p12
(lp13
S'Block Number'
p14
aS'Key pressed'
p15
aS'Category'
p16
aS'Correct?'
p17
aS'Int Match?'
p18
aS'Int Response'
p19
aS'Int Correct?'
p20
aS'Line Accuracy'
p21
aS'Interference Accuracy'
p22
aS'Matching Interferences'
p23
aS'New instruction shown?'
p24
aS'Buttons switched?'
p25
aS'Fast?'
p26
asS'autoLog'
p27
I01
sS'extraInfo'
p28
(dp29
S'gender'
p30
VF
sS'age'
p31
V23
p32
ssS'loopsUnfinished'
p33
(lp34
g1
(cpsychopy.data
TrialHandler
p35
g3
NtRp36
(dp37
S'origin'
p38
NsS'thisTrial'
p39
I10
sS'_exp'
p40
I61846512
sg10
S''
sg6
S'C:\\Users\\Mike\\Desktop\\Dual2\\NEWSpatialii.py'
p41
sS'thisRepN'
p42
I39
sg27
I01
sg28
NsS'data'
p43
g1
(cpsychopy.data
DataHandler
p44
c__builtin__
dict
p45
(dp46
S'ran'
p47
cnumpy.ma.core
_mareconstruct
p48
(cnumpy.ma.core
MaskedArray
p49
cnumpy
ndarray
p50
(I0
tp51
S'b'
tRp52
(I1
(I15
I40
tcnumpy
dtype
p53
(S'f4'
I0
I1
tRp54
(I3
S'<'
NNNI-1
I-1
I0
tbI00
S'\x00\x00\x80?\x00\x00\x80?\x00\x00\x80?\x00\x00\x80?\x00\x00\x80?\x00\x00\x80?\x00\x00\x80?\x00\x00\x80?\x00\x00\x80?\x00\x00\x80?\x00\x00\x80?\x00\x00\x80?\x00\x00\x80?\x00\x00\x80?\x00\x00\x80?\x00\x00\x80?\x00\x00\x80?\x00\x00\x80?\x00\x00\x80?\x00\x00\x80?\x00\x00\x80?\x00\x00\x80?\x00\x00\x80?\x00\x00\x80?\x00\x00\x80?\x00\x00\x80?\x00\x00\x80?\x00\x00\x80?\x00\x00\x80?\x00\x00\x80?\x00\x00\x80?\x00\x00\x80?\x00\x00\x80?\x00\x00\x80?\x00\x00\x80?\x00\x00\x80?\x00\x00\x80?\x00\x00\x80?\x00\x00\x80?\x00\x00\x80?\x00\x00\x80?\x00\x00\x80?\x00\x00\x80?\x00\x00\x80?\x00\x00\x80?\x00\x00\x80?\x00\x00\x80?\x00\x00\x80?\x00\x00\x80?\x00\x00\x80?\x00\x00\x80?\x00\x00\x80?\x00\x00\x80?\x00\x00\x80?\x00\x00\x80?\x00\x00\x80?\x00\x00\x80?\x00\x00\x80?\x00\x00\x80?\x00\x00\x80?\x00\x00\x80?\x00\x00\x80?\x00\x00\x80?\x00\x00\x80?\x00\x00\x80?\x00\x00\x80?\x00\x00\x80?\x00\x00\x80?\x00\x00\x80?\x00\x00\x80?\x00\x00\x80?\x00\x00\x80?\x00\x00\x80?\x00\x00\x80?\x00\x00\x80?\x00\x00\x80?\x00\x00\x80?\x00\x00\x80?\x00\x00\x80?\x00\x00\x80?\x00\x00\x80?\x00\x00\x80?\x00\x00\x80?\x00\x00\x80?\x00\x00\x80?\x00\x00\x80?\x00\x00\x80?\x00\x00\x80?\x00\x00\x80?\x00\x00\x80?\x00\x00\x80?\x00\x00\x80?\x00\x00\x80?\x00\x00\x80?\x00\x00\x80?\x00\x00\x80?\x00\x00\x80?\x00\x00\x80?\x00\x00\x80?\x00\x00\x80?\x00\x00\x80?\x00\x00\x80?\x00\x00\x80?\x00\x00\x80?\x00\x00\x80?\x00\x00\x80?\x00\x00\x80?\x00\x00\x80?\x00\x00\x80?\x00\x00\x80?\x00\x00\x80?\x00\x00\x80?\x00\x00\x80?\x00\x00\x80?\x00\x00\x80?\x00\x00\x80?\x00\x00\x80?\x00\x00\x80?\x00\x00\x80?\x00\x00\x80?\x00\x00\x80?\x00\x00\x80?\x00\x00\x80?\x00\x00\x80?\x00\x00\x80?\x00\x00\x80?\x00\x00\x80?\x00\x00\x80?\x00\x00\x80?\x00\x00\x80?\x00\x00\x80?\x00\x00\x80?\x00\x00\x80?\x00\x00\x80?\x00\x00\x80?\x00\x00\x80?\x00\x00\x80?\x00\x00\x80?\x00\x00\x80?\x00\x00\x80?\x00\x00\x80?\x00\x00\x80?\x00\x00\x80?\x00\x00\x80?\x00\x00\x80?\x00\x00\x80?\x00\x00\x80?\x00\x00\x80?\x00\x00\x80?\x00\x00\x80?\x00\x00\x80?\x00\x00\x80?\x00\x00\x80?\x00\x00\x80?\x00\x00\x80?\x00\x00\x80?\x00\x00\x80?\x00\x00\x80?\x00\x00\x80?\x00\x00\x80?\x00\x00\x80?\x00\x00\x80?\x00\x00\x80?\x00\x00\x80?\x00\x00\x80?\x00\x00\x80?\x00\x00\x80?\x00\x00\x80?\x00\x00\x80?\x00\x00\x80?\x00\x00\x80?\x00\x00\x80?\x00\x00\x80?\x00\x00\x80?\x00\x00\x80?\x00\x00\x80?\x00\x00\x80?\x00\x00\x80?\x00\x00\x80?\x00\x00\x80?\x00\x00\x80?\x00\x00\x80?\x00\x00\x80?\x00\x00\x80?\x00\x00\x80?\x00\x00\x80?\x00\x00\x80?\x00\x00\x80?\x00\x00\x80?\x00\x00\x80?\x00\x00\x80?\x00\x00\x80?\x00\x00\x80?\x00\x00\x80?\x00\x00\x80?\x00\x00\x80?\x00\x00\x80?\x00\x00\x80?\x00\x00\x80?\x00\x00\x80?\x00\x00\x80?\x00\x00\x80?\x00\x00\x80?\x00\x00\x80?\x00\x00\x80?\x00\x00\x80?\x00\x00\x80?\x00\x00\x80?\x00\x00\x80?\x00\x00\x80?\x00\x00\x80?\x00\x00\x80?\x00\x00\x80?\x00\x00\x80?\x00\x00\x80?\x00\x00\x80?\x00\x00\x80?\x00\x00\x80?\x00\x00\x80?\x00\x00\x80?\x00\x00\x80?\x00\x00\x80?\x00\x00\x80?\x00\x00\x80?\x00\x00\x80?\x00\x00\x80?\x00\x00\x80?\x00\x00\x80?\x00\x00\x80?\x00\x00\x80?\x00\x00\x80?\x00\x00\x80?\x00\x00\x80?\x00\x00\x80?\x00\x00\x80?\x00\x00\x80?\x00\x00\x80?\x00\x00\x80?\x00\x00\x80?\x00\x00\x80?\x00\x00\x80?\x00\x00\x80?\x00\x00\x80?\x00\x00\x80?\x00\x00\x80?\x00\x00\x80?\x00\x00\x80?\x00\x00\x80?\x00\x00\x80?\x00\x00\x80?\x00\x00\x80?\x00\x00\x80?\x00\x00\x80?\x00\x00\x80?\x00\x00\x80?\x00\x00\x80?\x00\x00\x80?\x00\x00\x80?\x00\x00\x80?\x00\x00\x80?\x00\x00\x80?\x00\x00\x80?\x00\x00\x80?\x00\x00\x80?\x00\x00\x80?\x00\x00\x80?\x00\x00\x80?\x00\x00\x80?\x00\x00\x80?\x00\x00\x80?\x00\x00\x80?\x00\x00\x80?\x00\x00\x80?\x00\x00\x80?\x00\x00\x80?\x00\x00\x80?\x00\x00\x80?\x00\x00\x80?\x00\x00\x80?\x00\x00\x80?\x00\x00\x80?\x00\x00\x80?\x00\x00\x80?\x00\x00\x80?\x00\x00\x80?\x00\x00\x80?\x00\x00\x80?\x00\x00\x80?\x00\x00\x80?\x00\x00\x80?\x00\x00\x80?\x00\x00\x80?\x00\x00\x80?\x00\x00\x80?\x00\x00\x80?\x00\x00\x80?\x00\x00\x80?\x00\x00\x80?\x00\x00\x80?\x00\x00\x80?\x00\x00\x80?\x00\x00\x80?\x00\x00\x80?\x00\x00\x80?\x00\x00\x80?\x00\x00\x80?\x00\x00\x80?\x00\x00\x80?\x00\x00\x80?\x00\x00\x80?\x00\x00\x80?\x00\x00\x80?\x00\x00\x80?\x00\x00\x80?\x00\x00\x80?\x00\x00\x80?\x00\x00\x80?\x00\x00\x80?\x00\x00\x80?\x00\x00\x80?\x00\x00\x80?\x00\x00\x80?\x00\x00\x80?\x00\x00\x80?\x00\x00\x80?\x00\x00\x80?\x00\x00\x80?\x00\x00\x80?\x00\x00\x80?\x00\x00\x80?\x00\x00\x80?\x00\x00\x80?\x00\x00\x80?\x00\x00\x80?\x00\x00\x80?\x00\x00\x80?\x00\x00\x80?\x00\x00\x80?\x00\x00\x80?\x00\x00\x80?\x00\x00\x80?\x00\x00\x80?\x00\x00\x80?\x00\x00\x80?\x00\x00\x80?\x00\x00\x80?\x00\x00\x80?\x00\x00\x80?\x00\x00\x80?\x00\x00\x80?\x00\x00\x80?\x00\x00\x80?\x00\x00\x80?\x00\x00\x80?\x00\x00\x80?\x00\x00\x80?\x00\x00\x80?\x00\x00\x80?\x00\x00\x80?\x00\x00\x80?\x00\x00\x80?\x00\x00\x80?\x00\x00\x80?\x00\x00\x80?\x00\x00\x80?\x00\x00\x80?\x00\x00\x80?\x00\x00\x80?\x00\x00\x80?\x00\x00\x80?\x00\x00\x80?\x00\x00\x80?\x00\x00\x80?\x00\x00\x80?\x00\x00\x80?\x00\x00\x80?\x00\x00\x80?\x00\x00\x80?\x00\x00\x80?\x00\x00\x80?\x00\x00\x80?\x00\x00\x80?\x00\x00\x80?\x00\x00\x80?\x00\x00\x80?\x00\x00\x80?\x00\x00\x80?\x00\x00\x80?\x00\x00\x80?\x00\x00\x80?\x00\x00\x80?\x00\x00\x80?\x00\x00\x80?\x00\x00\x80?\x00\x00\x80?\x00\x00\x80?\x00\x00\x80?\x00\x00\x80?\x00\x00\x80?\x00\x00\x80?\x00\x00\x80?\x00\x00\x80?\x00\x00\x80?\x00\x00\x80?\x00\x00\x80?\x00\x00\x80?\x00\x00\x80?\x00\x00\x80?\x00\x00\x80?\x00\x00\x80?\x00\x00\x80?\x00\x00\x80?\x00\x00\x80?\x00\x00\x80?\x00\x00\x80?\x00\x00\x80?\x00\x00\x80?\x00\x00\x80?\x00\x00\x80?\x00\x00\x80?\x00\x00\x80?\x00\x00\x80?\x00\x00\x80?\x00\x00\x80?\x00\x00\x80?\x00\x00\x80?\x00\x00\x80?\x00\x00\x80?\x00\x00\x80?\x00\x00\x80?\x00\x00\x80?\x00\x00\x80?\x00\x00\x80?\x00\x00\x80?\x00\x00\x80?\x00\x00\x80?\x00\x00\x80?\x00\x00\x80?\x00\x00\x80?\x00\x00\x80?\x00\x00\x80?\x00\x00\x80?\x00\x00\x80?\x00\x00\x80?\x00\x00\x80?\x00\x00\x80?\x00\x00\x80?\x00\x00\x80?\x00\x00\x80?\x00\x00\x80?\x00\x00\x80?\x00\x00\x80?\x00\x00\x80?\x00\x00\x80?\x00\x00\x80?\x00\x00\x80?\x00\x00\x80?\x00\x00\x80?\x00\x00\x80?\x00\x00\x80?\x00\x00\x80?\x00\x00\x80?\x00\x00\x80?\x00\x00\x80?\x00\x00\x80?\x00\x00\x80?\x00\x00\x80?\x00\x00\x80?\x00\x00\x80?\x00\x00\x80?\x00\x00\x80?\x00\x00\x80?\x00\x00\x80?\x00\x00\x80?\x00\x00\x80?\x00\x00\x80?\x00\x00\x80?\x00\x00\x80?\x00\x00\x80?\x00\x00\x80?\x00\x00\x80?\x00\x00\x80?\x00\x00\x80?\x00\x00\x80?\x00\x00\x80?\x00\x00\x80?\x00\x00\x80?\x00\x00\x80?\x00\x00\x80?\x00\x00\x80?\x00\x00\x80?\x00\x00\x80?\x00\x00\x80?\x00\x00\x80?\x00\x00\x80?\x00\x00\x80?\x00\x00\x80?\x00\x00\x80?\x00\x00\x80?\x00\x00\x80?\x00\x00\x80?\x00\x00\x80?\x00\x00\x80?\x00\x00\x80?\x00\x00\x80?\x00\x00\x80?\x00\x00\x80?\x00\x00\x80?\x00\x00\x80?\x00\x00\x80?\x00\x00\x80?\x00\x00\x80?\x00\x00\x80?\x00\x00\x80?\x00\x00\x80?\x00\x00\x80?\x00\x00\x80?\x00\x00\x80?\x00\x00\x80?\x00\x00\x80?\x00\x00\x80?\x00\x00\x80?\x00\x00\x80?\x00\x00\x80?\x00\x00\x80?\x00\x00\x80?\x00\x00\x80?\x00\x00\x80?\x00\x00\x80?\x00\x00\x80?\x00\x00\x80?\x00\x00\x80?\x00\x00\x80?\x00\x00\x80?\x00\x00\x80?\x00\x00\x80?\x00\x00\x80?\x00\x00\x80?\x00\x00\x80?\x00\x00\x80?\x00\x00\x80?\x00\x00\x80?\x00\x00\x80?\x00\x00\x80?\x00\x00\x80?\x00\x00\x80?\x00\x00\x80?\x00\x00\x80?\x00\x00\x80?\x00\x00\x80?\x00\x00\x80?\x00\x00\x80?\x00\x00\x80?\x00\x00\x80?\x00\x00\x80?\x00\x00\x80?\x00\x00\x80?\x00\x00\x80?\x00\x00\x80?\x00\x00\x80?\x00\x00\x80?\x00\x00\x80?\x00\x00\x80?\x00\x00\x80?\x00\x00\x80?\x00\x00\x80?\x00\x00\x80?\x00\x00\x80?\x00\x00\x80?\x00\x00\x80?\x00\x00\x80?\x00\x00\x80?\x00\x00\x80?\x00\x00\x80?\x00\x00\x80?\x00\x00\x80?\x00\x00\x80?\x00\x00\x80?\x00\x00\x80?\x00\x00\x80?\x00\x00\x80?\x00\x00\x80?\x00\x00\x80?\x00\x00\x80?\x00\x00\x80?\x00\x00\x80?\x00\x00\x80?\x00\x00\x80?\x00\x00\x80?\x00\x00\x80?\x00\x00\x80?\x00\x00\x80?\x00\x00\x80?\x00\x00\x80?\x00\x00\x80?\x00\x00\x80?\x00\x00\x80?\x00\x00\x80?\x00\x00\x80?\x00\x00\x80?'
S'\x00\x00\x00\x00\x00\x00\x00\x00\x00\x00\x00\x00\x00\x00\x00\x00\x00\x00\x00\x00\x00\x00\x00\x00\x00\x00\x00\x00\x00\x00\x00\x00\x00\x00\x00\x00\x00\x00\x00\x00\x00\x00\x00\x00\x00\x00\x00\x00\x00\x00\x00\x00\x00\x00\x00\x00\x00\x00\x00\x00\x00\x00\x00\x00\x00\x00\x00\x00\x00\x00\x00\x00\x00\x00\x00\x00\x00\x00\x00\x00\x00\x00\x00\x00\x00\x00\x00\x00\x00\x00\x00\x00\x00\x00\x00\x00\x00\x00\x00\x00\x00\x00\x00\x00\x00\x00\x00\x00\x00\x00\x00\x00\x00\x00\x00\x00\x00\x00\x00\x00\x00\x00\x00\x00\x00\x00\x00\x00\x00\x00\x00\x00\x00\x00\x00\x00\x00\x00\x00\x00\x00\x00\x00\x00\x00\x00\x00\x00\x00\x00\x00\x00\x00\x00\x00\x00\x00\x00\x00\x00\x00\x00\x00\x00\x00\x00\x00\x00\x00\x00\x00\x00\x00\x00\x00\x00\x00\x00\x00\x00\x00\x00\x00\x00\x00\x00\x00\x00\x00\x00\x00\x00\x00\x00\x00\x00\x00\x00\x00\x00\x00\x00\x00\x00\x00\x00\x00\x00\x00\x00\x00\x00\x00\x00\x00\x00\x00\x00\x00\x00\x00\x00\x00\x00\x00\x00\x00\x00\x00\x00\x00\x00\x00\x00\x00\x00\x00\x00\x00\x00\x00\x00\x00\x00\x00\x00\x00\x00\x00\x00\x00\x00\x00\x00\x00\x00\x00\x00\x00\x00\x00\x00\x00\x00\x00\x00\x00\x00\x00\x00\x00\x00\x00\x00\x00\x00\x00\x00\x00\x00\x00\x00\x00\x00\x00\x00\x00\x00\x00\x00\x00\x00\x00\x00\x00\x00\x00\x00\x00\x00\x00\x00\x00\x00\x00\x00\x00\x00\x00\x00\x00\x00\x00\x00\x00\x00\x00\x00\x00\x00\x00\x00\x00\x00\x00\x00\x00\x00\x00\x00\x00\x00\x00\x00\x00\x00\x00\x00\x00\x00\x00\x00\x00\x00\x00\x00\x00\x00\x00\x00\x00\x00\x00\x00\x00\x00\x00\x00\x00\x00\x00\x00\x00\x00\x00\x00\x00\x00\x00\x00\x00\x00\x00\x00\x00\x00\x00\x00\x00\x00\x00\x00\x00\x00\x00\x00\x00\x00\x00\x00\x00\x00\x00\x00\x00\x00\x00\x00\x00\x00\x00\x00\x00\x00\x00\x00\x00\x00\x00\x00\x00\x00\x00\x00\x00\x00\x00\x00\x00\x00\x00\x00\x00\x00\x00\x00\x00\x00\x00\x00\x00\x00\x00\x00\x00\x00\x00\x00\x00\x00\x00\x00\x00\x00\x00\x00\x00\x00\x00\x00\x00\x00\x00\x00\x00\x00\x00\x00\x00\x00\x00\x00\x00\x00\x00\x00\x00\x00\x00\x00\x00\x00\x00\x00\x00\x00\x00\x00\x00\x00\x00\x00\x00\x00\x00\x00\x00\x00\x00\x00\x00\x00\x00\x00\x00\x00\x00\x00\x00\x00\x00\x00\x00\x00\x00\x00\x00\x00\x00\x00\x00\x00\x00\x00\x00\x00\x00\x00\x00\x00\x00\x00\x00\x00\x00\x00\x00\x00\x00\x00\x00\x00\x00\x00\x00\x00\x00\x00\x00\x00\x00\x00\x00\x00\x00\x00\x00\x00\x00\x00\x00\x00\x00\x00\x00\x00\x00\x00\x00\x00\x00\x00\x00\x00\x00\x00\x00\x00\x00\x00\x00\x00\x00\x00\x00\x00\x00\x00\x00\x00\x00\x00\x00\x00\x00\x00\x00\x00\x00\x00\x00\x00\x00\x00\x00\x00\x00\x00\x00\x00'
NtbsS'order'
p55
g48
(g49
g50
g51
S'b'
tRp56
(I1
(I15
I40
tg54
I00
S'\x00\x00\x18B\x00\x00\x1cB\x00\x000B\x00\x00\xa6B\x00\x00\xaaB\x00\x00\xdcB\x00\x00\xf0B\x00\x00\x16C\x00\x00\x1dC\x00\x00\x1fC\x00\x00#C\x00\x001C\x00\x00HC\x00\x00LC\x00\x00VC\x00\x00eC\x00\x00hC\x00\x00{C\x00\x80\x87C\x00\x80\x88C\x00\x00\x94C\x00\x80\x97C\x00\x80\x9cC\x00\x00\xa4C\x00\x80\xa8C\x00\x00\xb8C\x00\x00\xc0C\x00\x80\xc3C\x00\x00\xccC\x00\x80\xcfC\x00\x80\xd1C\x00\x80\xd3C\x00\x00\xd8C\x00\x80\xdfC\x00\x80\xf4C\x00\x80\xf9C\x00\x80\xfbC\x00\x00\x00D\x00\xc0\x02D\x00@\nD\x00\x00 A\x00\x00@A\x00\x00PA\x00\x00\xe0A\x00\x00HB\x00\x00hB\x00\x00\xb6B\x00\x00\xd0B\x00\x00\xfcB\x00\x00\rC\x00\x00\x11C\x00\x00"C\x00\x00&C\x00\x005C\x00\x009C\x00\x00GC\x00\x00JC\x00\x00OC\x00\x00PC\x00\x00QC\x00\x00bC\x00\x00\x85C\x00\x00\x86C\x00\x00\x95C\x00\x80\xaeC\x00\x00\xb5C\x00\x00\xc5C\x00\x80\xc7C\x00\x00\xcfC\x00\x00\xd1C\x00\x80\xd8C\x00\x80\xdbC\x00\x00\xdeC\x00\x00\xe0C\x00\x00\xefC\x00\x80\xfcC\x00\x00\xfeC\x00@\x0cD\x00\xc0\x0cD\x00\xc0\x0fD\x00\x00\x80A\x00\x00\xa0A\x00\x00\x14B\x00\x00 B\x00\x00dB\x00\x00|B\x00\x00\x9aB\x00\x00\x9eB\x00\x00\xa4B\x00\x00\xb2B\x00\x00\xcaB\x00\x00\nC\x00\x00>C\x00\x00UC\x00\x00ZC\x00\x00^C\x00\x00gC\x00\x00wC\x00\x00~C\x00\x00\x7fC\x00\x80\x80C\x00\x80\x82C\x00\x00\x92C\x00\x00\x9bC\x00\x80\x9bC\x00\x00\xadC\x00\x00\xb4C\x00\x80\xb5C\x00\x00\xbcC\x00\x80\xceC\x00\x00\xd5C\x00\x00\xe7C\x00\x80\xeeC\x00\x00\x04D\x00\xc0\x04D\x00@\x06D\x00@\x08D\x00\x80\rD\x00@\x0eD\x00\x00\x13D\x00\x00\x00@\x00\x00\x98A\x00\x00\xb0A\x00\x00\xb8A\x00\x00\xe6B\x00\x00\xeeB\x00\x00\x04C\x00\x00\x05C\x00\x00\x1bC\x00\x00=C\x00\x00sC\x00\x00\x83C\x00\x00\x89C\x00\x80\x8bC\x00\x00\x8eC\x00\x00\x90C\x00\x00\x96C\x00\x00\xa8C\x00\x80\xb1C\x00\x80\xbcC\x00\x00\xc6C\x00\x80\xc8C\x00\x00\xcbC\x00\x80\xd0C\x00\x00\xd7C\x00\x00\xe8C\x00\x80\xf1C\x00\x00\xf3C\x00\x00\xf6C\x00\x00\xfaC\x00\x80\xfaC\x00\x80\xfeC\x00\xc0\x05D\x00\x80\x06D\x00\x00\x0bD\x00\xc0\x0bD\x00@\rD\x00\x80\x0eD\x00\xc0\x11D\x00\x80\x12D\x00\x00\x80@\x00\x00\xa8A\x00\x00\x00B\x00\x00\x04B\x00\x00xB\x00\x00\x96B\x00\x00\xb4B\x00\x00\xceB\x00\x00\xd4B\x00\x00\xe2B\x00\x00\xf2B\x00\x00\xfeB\x00\x00\x08C\x00\x00\x15C\x00\x00BC\x00\x00CC\x00\x00IC\x00\x00WC\x00\x00aC\x00\x00kC\x00\x00\x8aC\x00\x00\x8cC\x00\x80\x8dC\x00\x00\xa5C\x00\x00\xa7C\x00\x80\xb4C\x00\x00\xbfC\x00\x80\xbfC\x00\x00\xc8C\x00\x00\xc9C\x00\x80\xe1C\x00\x80\xeaC\x00\x80\xf3C\x00\x80\xffC\x00@\x02D\x00\x80\x04D\x00\x00\x07D\x00\x00\x08D\x00\x80\x08D\x00\x00\nD\x00\x00\x00\x00\x00\x00pA\x00\x00\xf0A\x00\x00\\B\x00\x00\x80B\x00\x00\xc2B\x00\x00\xc8B\x00\x00\xd2B\x00\x00\xf8B\x00\x00\x00C\x00\x00\x06C\x00\x00\x0bC\x00\x00$C\x00\x00KC\x00\x00]C\x00\x00fC\x00\x00iC\x00\x00mC\x00\x00qC\x00\x80\x8aC\x00\x80\x95C\x00\x80\x96C\x00\x80\xa7C\x00\x00\xacC\x00\x00\xb2C\x00\x00\xb6C\x00\x00\xb7C\x00\x00\xc3C\x00\x00\xc4C\x00\x80\xe0C\x00\x00\xe3C\x00\x00\xe5C\x00\x00\xebC\x00\x00\xecC\x00\x00\xedC\x00\x00\xeeC\x00\x00\xf4C\x00\x80\x05D\x00\x80\tD\x00\x00\x0cD\x00\x00\x80?\x00\x00\x10A\x00\x00\xf8A\x00\x00\x08B\x00\x00\xd8B\x00\x00\xdaB\x00\x00\xe8B\x00\x00\xf6B\x00\x00,C\x00\x00:C\x00\x00<C\x00\x00@C\x00\x00FC\x00\x00rC\x00\x00vC\x00\x00\x84C\x00\x80\x85C\x00\x80\x90C\x00\x80\x91C\x00\x80\xaaC\x00\x80\xb0C\x00\x80\xbaC\x00\x80\xc1C\x00\x00\xc7C\x00\x80\xc9C\x00\x00\xcaC\x00\x00\xcdC\x00\x00\xd0C\x00\x00\xd6C\x00\x80\xd6C\x00\x00\xddC\x00\x00\xdfC\x00\x80\xe6C\x00\x80\xe8C\x00\x00\xf0C\x00\x00\x01D\x00\x00\x03D\x00\xc0\nD\x00@\x0fD\x00\x80\x14D\x00\x00\x00A\x00\x00\xc0A\x00\x00(B\x00\x00LB\x00\x00XB\x00\x00`B\x00\x00tB\x00\x00\x88B\x00\x00\x94B\x00\x00\xb8B\x00\x00\xbcB\x00\x00\xfaB\x00\x00\x1aC\x00\x00\x1cC\x00\x006C\x00\x008C\x00\x00DC\x00\x00xC\x00\x80\x84C\x00\x80\x8cC\x00\x80\x8eC\x00\x00\xa6C\x00\x80\xafC\x00\x00\xb3C\x00\x80\xb9C\x00\x80\xc5C\x00\x80\xc6C\x00\x80\xd9C\x00\x80\xddC\x00\x00\xe1C\x00\x80\xe2C\x00\x00\xe4C\x00\x00\xfcC\x00\x80\xfdC\x00@\x01D\x00\xc0\x01D\x00\xc0\tD\x00\x00\x0fD\x00\xc0\x10D\x00\xc0\x14D\x00\x00\xe8A\x00\x00\x0cB\x00\x00\x10B\x00\x00@B\x00\x00\x82B\x00\x00\x98B\x00\x00\xa0B\x00\x00\xacB\x00\x00\xf4B\x00\x00\x0eC\x00\x00)C\x00\x004C\x00\x00?C\x00\x00EC\x00\x00NC\x00\x00_C\x00\x00oC\x00\x80\x86C\x00\x00\x88C\x00\x00\x97C\x00\x00\x99C\x00\x00\xa0C\x00\x00\xaeC\x00\x80\xb7C\x00\x00\xbaC\x00\x80\xbbC\x00\x80\xcaC\x00\x80\xccC\x00\x00\xdcC\x00\x00\xe2C\x00\x00\xf1C\x00\x80\xf5C\x00\x00\xf7C\x00\x00\xfbC\x00\x80\x00D\x00\xc0\x08D\x00@\tD\x00\x80\x0cD\x00\x80\x0fD\x00@\x14D\x00\x00\xa0@\x00\x00\xe0@\x00\x00\xd0A\x00\x00\x8cB\x00\x00\x92B\x00\x00\xa8B\x00\x00\xbaB\x00\x00\x02C\x00\x00\x07C\x00\x00(C\x00\x00*C\x00\x00/C\x00\x00AC\x00\x00YC\x00\x00tC\x00\x00\x87C\x00\x00\x8dC\x00\x80\x92C\x00\x00\x93C\x00\x80\xa1C\x00\x80\xa6C\x00\x00\xabC\x00\x80\xadC\x00\x80\xb2C\x00\x00\xbbC\x00\x80\xbdC\x00\x00\xbeC\x00\x80\xc4C\x00\x80\xd2C\x00\x80\xdeC\x00\x80\xe4C\x00\x80\xf7C\x00\x80\xf8C\x00@\x00D\x00\x80\x03D\x00\xc0\x07D\x00\x80\x0bD\x00\xc0\rD\x00\x80\x11D\x00\xc0\x13D\x00\x00@@\x00\x00`A\x00\x00\xc8A\x00\x008B\x00\x00TB\x00\x00pB\x00\x00\x9cB\x00\x00\xc4B\x00\x00\xc6B\x00\x00\xccB\x00\x00\x01C\x00\x00\x17C\x00\x007C\x00\x00TC\x00\x00[C\x00\x00`C\x00\x00cC\x00\x80\x83C\x00\x00\x8fC\x00\x80\x9dC\x00\x00\x9fC\x00\x00\xaaC\x00\x00\xb0C\x00\x80\xb3C\x00\x80\xb6C\x00\x80\xbeC\x00\x80\xc2C\x00\x00\xd4C\x00\x80\xd5C\x00\x80\xdaC\x00\x80\xe5C\x00\x80\xefC\x00\x00\xf9C\x00\x80\nD\x00@\x0bD\x00\x00\x0eD\x00\x00\x11D\x00\x00\x14D\x00\x80\x15D\x00\xc0\x15D\x00\x00\xc0@\x00\x00\xd8A\x00\x00,B\x00\x00lB\x00\x00\x86B\x00\x00\x8aB\x00\x00\xb0B\x00\x00\xecB\x00\x00\x03C\x00\x00\tC\x00\x00\x19C\x00\x00\x1eC\x00\x00-C\x00\x00;C\x00\x00dC\x00\x00nC\x00\x00pC\x00\x00\x81C\x00\x80\x81C\x00\x00\x82C\x00\x80\x8fC\x00\x00\x9cC\x00\x00\xa1C\x00\x00\xa2C\x00\x80\xa2C\x00\x80\xa3C\x00\x80\xabC\x00\x80\xacC\x00\x00\xb9C\x00\x80\xc0C\x00\x00\xc2C\x00\x80\xcbC\x00\x00\xd9C\x00\x80\xe7C\x00\x00\xf8C\x00\xc0\x03D\x00@\x04D\x00@\x05D\x00\xc0\x06D\x00@\x13D\x00\x00DB\x00\x00PB\x00\x00\x84B\x00\x00\x8eB\x00\x00\xbeB\x00\x00\xd6B\x00\x00\xdeB\x00\x00\x0cC\x00\x00\x0fC\x00\x00\x12C\x00\x00\x14C\x00\x00\x18C\x00\x00\'C\x00\x002C\x00\x003C\x00\x00RC\x00\x00\\C\x00\x00zC\x00\x00}C\x00\x80\x99C\x00\x80\xa0C\x00\x00\xa3C\x00\x00\xa9C\x00\x00\xafC\x00\x00\xbdC\x00\x00\xceC\x00\x00\xd2C\x00\x80\xe3C\x00\x00\xe9C\x00\x80\xe9C\x00\x80\xf0C\x00\x00\xf5C\x00\x80\xf6C\x00\xc0\x00D\x00\x80\x01D\x00\x00\x06D\x00\x00\tD\x00@\x10D\x00\x80\x10D\x00@\x12D\x00\x00\x88A\x00\x00$B\x00\x004B\x00\x00<B\x00\x00\x90B\x00\x00\xa2B\x00\x00\xaeB\x00\x00\xc0B\x00\x00\x10C\x00\x00\x13C\x00\x00+C\x00\x00SC\x00\x00XC\x00\x00yC\x00\x00|C\x00\x80\x89C\x00\x00\x91C\x00\x80\x93C\x00\x00\x98C\x00\x00\x9aC\x00\x80\x9aC\x00\x00\x9dC\x00\x80\x9eC\x00\x80\x9fC\x00\x00\xb1C\x00\x80\xd4C\x00\x00\xdaC\x00\x80\xdcC\x00\x00\xe6C\x00\x80\xedC\x00\x00\xf2C\x00\x00\xffC\x00@\x03D\x00@\x07D\x00\x80\x07D\x00\x00\rD\x00\xc0\x0eD\x00@\x11D\x00\x00\x12D\x00\xc0\x12D\x00\x000A\x00\x00\x90A\x00\x00\xe0B\x00\x00\xe4B\x00\x00\xeaB\x00\x00 C\x00\x00!C\x00\x00%C\x00\x00.C\x00\x000C\x00\x00MC\x00\x00jC\x00\x00lC\x00\x00uC\x00\x00\x80C\x00\x00\x8bC\x00\x80\x94C\x00\x80\x98C\x00\x00\x9eC\x00\x80\xa4C\x00\x80\xa5C\x00\x80\xa9C\x00\x80\xb8C\x00\x00\xc1C\x00\x80\xcdC\x00\x00\xd3C\x00\x80\xd7C\x00\x00\xdbC\x00\x00\xeaC\x00\x80\xebC\x00\x80\xecC\x00\x80\xf2C\x00\x00\xfdC\x00\x00\x02D\x00\x80\x02D\x00\x00\x05D\x00\x00\x10D\x00\x80\x13D\x00\x00\x15D\x00@\x15D'
S'\x00\x00\x00\x00\x00\x00\x00\x00\x00\x00\x00\x00\x00\x00\x00\x00\x00\x00\x00\x00\x00\x00\x00\x00\x00\x00\x00\x00\x00\x00\x00\x00\x00\x00\x00\x00\x00\x00\x00\x00\x00\x00\x00\x00\x00\x00\x00\x00\x00\x00\x00\x00\x00\x00\x00\x00\x00\x00\x00\x00\x00\x00\x00\x00\x00\x00\x00\x00\x00\x00\x00\x00\x00\x00\x00\x00\x00\x00\x00\x00\x00\x00\x00\x00\x00\x00\x00\x00\x00\x00\x00\x00\x00\x00\x00\x00\x00\x00\x00\x00\x00\x00\x00\x00\x00\x00\x00\x00\x00\x00\x00\x00\x00\x00\x00\x00\x00\x00\x00\x00\x00\x00\x00\x00\x00\x00\x00\x00\x00\x00\x00\x00\x00\x00\x00\x00\x00\x00\x00\x00\x00\x00\x00\x00\x00\x00\x00\x00\x00\x00\x00\x00\x00\x00\x00\x00\x00\x00\x00\x00\x00\x00\x00\x00\x00\x00\x00\x00\x00\x00\x00\x00\x00\x00\x00\x00\x00\x00\x00\x00\x00\x00\x00\x00\x00\x00\x00\x00\x00\x00\x00\x00\x00\x00\x00\x00\x00\x00\x00\x00\x00\x00\x00\x00\x00\x00\x00\x00\x00\x00\x00\x00\x00\x00\x00\x00\x00\x00\x00\x00\x00\x00\x00\x00\x00\x00\x00\x00\x00\x00\x00\x00\x00\x00\x00\x00\x00\x00\x00\x00\x00\x00\x00\x00\x00\x00\x00\x00\x00\x00\x00\x00\x00\x00\x00\x00\x00\x00\x00\x00\x00\x00\x00\x00\x00\x00\x00\x00\x00\x00\x00\x00\x00\x00\x00\x00\x00\x00\x00\x00\x00\x00\x00\x00\x00\x00\x00\x00\x00\x00\x00\x00\x00\x00\x00\x00\x00\x00\x00\x00\x00\x00\x00\x00\x00\x00\x00\x00\x00\x00\x00\x00\x00\x00\x00\x00\x00\x00\x00\x00\x00\x00\x00\x00\x00\x00\x00\x00\x00\x00\x00\x00\x00\x00\x00\x00\x00\x00\x00\x00\x00\x00\x00\x00\x00\x00\x00\x00\x00\x00\x00\x00\x00\x00\x00\x00\x00\x00\x00\x00\x00\x00\x00\x00\x00\x00\x00\x00\x00\x00\x00\x00\x00\x00\x00\x00\x00\x00\x00\x00\x00\x00\x00\x00\x00\x00\x00\x00\x00\x00\x00\x00\x00\x00\x00\x00\x00\x00\x00\x00\x00\x00\x00\x00\x00\x00\x00\x00\x00\x00\x00\x00\x00\x00\x00\x00\x00\x00\x00\x00\x00\x00\x00\x00\x00\x00\x00\x00\x00\x00\x00\x00\x00\x00\x00\x00\x00\x00\x00\x00\x00\x00\x00\x00\x00\x00\x00\x00\x00\x00\x00\x00\x00\x00\x00\x00\x00\x00\x00\x00\x00\x00\x00\x00\x00\x00\x00\x00\x00\x00\x00\x00\x00\x00\x00\x00\x00\x00\x00\x00\x00\x00\x00\x00\x00\x00\x00\x00\x00\x00\x00\x00\x00\x00\x00\x00\x00\x00\x00\x00\x00\x00\x00\x00\x00\x00\x00\x00\x00\x00\x00\x00\x00\x00\x00\x00\x00\x00\x00\x00\x00\x00\x00\x00\x00\x00\x00\x00\x00\x00\x00\x00\x00\x00\x00\x00\x00\x00\x00\x00\x00\x00\x00\x00\x00\x00\x00\x00\x00\x00\x00\x00\x00\x00\x00\x00\x00\x00\x00\x00\x00\x00\x00\x00\x00\x00\x00\x00\x00\x00\x00\x00\x00\x00\x00\x00\x00\x00\x00\x00\x00\x00\x00\x00\x00\x00\x00\x00\x00\x00\x00\x00\x00\x00\x00\x00\x00\x00\x00\x00'
NtbstRp57
(dp58
S'isNumeric'
p59
(dp60
g47
I01
sg55
I01
ssS'trials'
p61
g36
sS'dataTypes'
p62
(lp63
g47
ag55
asS'dataShape'
p64
(lp65
I15
aI40
asbsS'method'
p66
S'fullRandom'
p67
sS'sequenceIndices'
p68
cnumpy.core.multiarray
_reconstruct
p69
(g50
(I0
tS'b'
tRp70
(I1
(I15
I40
tg53
(S'O4'
I0
I1
tRp71
(I3
S'|'
NNNI-1
I-1
I63
tbI00
(lp72
I5
aI5
aI5
aI13
aI10
aI4
aI4
aI5
aI0
aI9
aI0
aI14
aI8
aI4
aI12
aI4
aI11
aI2
aI9
aI7
aI3
aI10
aI4
aI11
aI2
aI8
aI5
aI8
aI12
aI7
aI7
aI6
aI6
aI9
aI13
aI13
aI4
aI6
aI3
aI12
aI6
aI2
aI6
aI10
aI7
aI8
aI1
aI4
aI4
aI4
aI10
aI1
aI1
aI7
aI13
aI1
aI5
aI14
aI0
aI10
aI5
aI14
aI14
aI2
aI4
aI2
aI0
aI3
aI9
aI13
aI4
aI12
aI12
aI11
aI4
aI9
aI13
aI3
aI13
aI3
aI3
aI13
aI4
aI13
aI4
aI2
aI7
aI12
aI8
aI11
aI12
aI12
aI7
aI8
aI10
aI10
aI6
aI2
aI8
aI11
aI8
aI13
aI7
aI9
aI1
aI3
aI5
aI11
aI14
aI10
aI8
aI12
aI8
aI9
aI0
aI11
aI13
aI10
aI7
aI13
aI10
aI14
aI4
aI8
aI2
aI10
aI9
aI6
aI6
aI2
aI11
aI9
aI10
aI6
aI2
aI11
aI3
aI11
aI0
aI3
aI0
aI10
aI9
aI8
aI2
aI12
aI9
aI0
aI0
aI14
aI7
aI14
aI3
aI10
aI9
aI2
aI9
aI9
aI6
aI2
aI4
aI3
aI6
aI12
aI5
aI2
aI7
aI6
aI5
aI5
aI7
aI8
aI7
aI1
aI0
aI0
aI9
aI11
aI3
aI6
aI13
aI13
aI4
aI1
aI5
aI9
aI1
aI8
aI10
aI1
aI5
aI4
aI13
aI0
aI8
aI11
aI4
aI3
aI8
aI11
aI9
aI2
aI8
aI1
aI8
aI8
aI12
aI0
aI7
aI12
aI3
aI9
aI1
aI0
aI4
aI5
aI14
aI11
aI13
aI13
aI14
aI8
aI5
aI12
aI10
aI9
aI7
aI6
aI13
aI8
aI12
aI5
aI14
aI3
aI12
aI4
aI2
aI5
aI1
aI14
aI11
aI4
aI8
aI7
aI12
aI13
aI13
aI12
aI1
aI1
aI7
aI13
aI6
aI4
aI13
aI2
aI6
aI2
aI4
aI6
aI8
aI12
aI3
aI7
aI5
aI10
aI3
aI14
aI2
aI13
aI7
aI14
aI3
aI3
aI6
aI2
aI4
aI1
aI14
aI9
aI9
aI3
aI2
aI12
aI11
aI2
aI5
aI14
aI4
aI8
aI0
aI6
aI11
aI1
aI9
aI0
aI2
aI3
aI5
aI2
aI12
aI11
aI0
aI10
aI8
aI4
aI7
aI12
aI10
aI6
aI9
aI5
aI4
aI8
aI7
aI14
aI8
aI8
aI12
aI10
aI7
aI3
aI0
aI10
aI7
aI0
aI10
aI4
aI5
aI12
aI11
aI11
aI6
aI5
aI2
aI5
aI7
aI10
aI14
aI9
aI13
aI9
aI12
aI6
aI0
aI4
aI6
aI2
aI6
aI7
aI5
aI14
aI5
aI0
aI12
aI11
aI12
aI1
aI12
aI8
aI6
aI7
aI0
aI7
aI11
aI9
aI10
aI14
aI10
aI13
aI0
aI14
aI3
aI0
aI10
aI14
aI13
aI6
aI3
aI9
aI13
aI11
aI14
aI13
aI14
aI0
aI1
aI1
aI6
aI1
aI10
aI5
aI0
aI7
aI7
aI5
aI8
aI13
aI7
aI6
aI1
aI10
aI2
aI5
aI9
aI0
aI5
aI3
aI9
aI1
aI14
aI9
aI2
aI14
aI12
aI4
aI12
aI7
aI4
aI13
aI2
aI11
aI10
aI3
aI11
aI11
aI4
aI0
aI3
aI9
aI13
aI13
aI12
aI1
aI14
aI3
aI5
aI3
aI10
aI7
aI14
aI9
aI13
aI7
aI12
aI8
aI2
aI6
aI11
aI12
aI14
aI14
aI8
aI8
aI5
aI14
aI0
aI1
aI7
aI0
aI2
aI12
aI6
aI5
aI7
aI14
aI3
aI6
aI14
aI6
aI6
aI5
aI8
aI14
aI4
aI12
aI7
aI2
aI13
aI14
aI1
aI11
aI7
aI2
aI13
aI13
aI10
aI14
aI3
aI13
aI1
aI0
aI6
aI1
aI2
aI5
aI13
aI6
aI9
aI14
aI11
aI11
aI9
aI9
aI8
aI6
aI4
aI3
aI0
aI0
aI2
aI2
aI3
aI7
aI14
aI2
aI4
aI9
aI9
aI14
aI1
aI1
aI11
aI1
aI9
aI11
aI4
aI11
aI3
aI12
aI0
aI12
aI9
aI1
aI8
aI11
aI12
aI1
aI4
aI1
aI0
aI0
aI11
aI7
aI6
aI11
aI6
aI1
aI1
aI1
aI11
aI1
aI12
aI1
aI0
aI3
aI0
aI10
aI3
aI10
aI10
aI8
aI0
aI11
aI7
aI2
aI1
aI3
aI5
aI4
aI5
aI12
aI4
aI1
aI10
aI8
aI2
aI8
aI3
aI5
aI13
aI14
aI5
aI10
aI9
aI10
aI6
aI0
aI11
aI5
aI3
aI10
aI8
aI3
aI6
aI11
aI10
aI2
aI13
aI10
atbsS'finished'
p73
I00
sS'nReps'
p74
I40
sS'nRemaining'
p75
I0
sS'trialList'
p76
(lp77
I0
aI1
aI2
aI3
aI4
aI5
aI6
aI7
aI8
aI9
aI10
aI11
aI12
aI13
aI14
asS'seed'
p78
NsS'thisIndex'
p79
I10
sS'thisN'
p80
I599
sS'thisTrialN'
p81
I14
sS'nTotal'
p82
I600
sS'_warnUseOfNext'
p83
I01
sbasS'saveWideText'
p84
I00
sS'thisEntry'
p85
(dp86
sS'version'
p87
S''
sS'_paramNamesSoFar'
p88
(lp89
sS'entries'
p90
(lp91
(dp92
g16
(lp93
S'd'
asS'.thisTrial'
p94
I5
sS'.thisRepN'
p95
I0
sg30
VF
sg31
g32
sS'.thisTrialN'
p96
I0
sS'.thisN'
p97
I0
sS'.thisIndex'
p98
I5
sg15
(lp99
S'k'
asg17
S'N'
sg14
I1
sa(dp100
g16
(lp101
S'd'
asg94
I6
sS'.thisRepN'
p102
I0
sg30
VF
sg31
g32
sS'.thisTrialN'
p103
I1
sS'.thisN'
p104
I1
sS'.thisIndex'
p105
I6
sg15
(lp106
S'd'
asg17
S'Y'
sg14
I1
sa(dp107
g16
(lp108
S'd'
asg18
S'N'
sS'.thisRepN'
p109
I0
sg20
S'Y'
sg31
g32
sS'.thisTrialN'
p110
I2
sS'.thisN'
p111
I2
sS'.thisIndex'
p112
I3
sg15
(lp113
S'd'
asg30
VF
sg17
S'Y'
sg14
I1
sg19
Nsg94
I3
sa(dp114
g16
(lp115
S'd'
asg18
S'Y'
sS'.thisRepN'
p116
I0
sg20
S'Y'
sg31
g32
sS'.thisTrialN'
p117
I3
sS'.thisN'
p118
I3
sS'.thisIndex'
p119
I10
sg15
(lp120
S'd'
asg30
VF
sg17
S'Y'
sg14
I1
sg19
(lp121
S'space'
p122
asg94
I10
sa(dp123
g16
(lp124
S'k'
asg18
S'Y'
sS'.thisRepN'
p125
I0
sg20
S'N'
sg31
g32
sS'.thisTrialN'
p126
I4
sS'.thisN'
p127
I4
sS'.thisIndex'
p128
I4
sg15
(lp129
S'd'
asg30
VF
sg17
S'N'
sg14
I1
sg19
Nsg94
I4
sa(dp130
g16
(lp131
S'k'
asg18
S'N'
sS'.thisRepN'
p132
I0
sg20
S'Y'
sg31
g32
sS'.thisTrialN'
p133
I5
sS'.thisN'
p134
I5
sS'.thisIndex'
p135
I9
sg15
(lp136
S'k'
asg30
VF
sg17
S'Y'
sg14
I1
sg19
Nsg94
I9
sa(dp137
g16
(lp138
S'd'
asg18
S'Y'
sS'.thisRepN'
p139
I0
sg20
S'N'
sg31
g32
sS'.thisTrialN'
p140
I6
sS'.thisN'
p141
I6
sS'.thisIndex'
p142
I11
sg15
(lp143
S'd'
asg30
VF
sg17
S'Y'
sg14
I1
sg19
Nsg94
I11
sa(dp144
g16
(lp145
S'd'
asg18
S'N'
sS'.thisRepN'
p146
I0
sg20
S'Y'
sg31
g32
sS'.thisTrialN'
p147
I7
sS'.thisN'
p148
I7
sS'.thisIndex'
p149
I9
sg15
(lp150
S'd'
asg30
VF
sg17
S'Y'
sg14
I1
sg19
Nsg94
I9
sa(dp151
g16
(lp152
S'd'
asg18
S'Y'
sS'.thisRepN'
p153
I0
sg20
S'N'
sg31
g32
sS'.thisTrialN'
p154
I8
sS'.thisN'
p155
I8
sS'.thisIndex'
p156
I7
sg15
(lp157
S'd'
asg30
VF
sg17
S'Y'
sg14
I1
sg19
Nsg94
I7
sa(dp158
g16
(lp159
S'd'
asg18
S'N'
sS'.thisRepN'
p160
I0
sg20
S'Y'
sg31
g32
sS'.thisTrialN'
p161
I9
sS'.thisN'
p162
I9
sS'.thisIndex'
p163
I6
sg15
(lp164
S'k'
asg30
VF
sg17
S'N'
sg14
I1
sg19
Nsg94
I6
sa(dp165
g16
(lp166
S'd'
asg18
S'N'
sS'.thisRepN'
p167
I0
sg20
S'Y'
sg31
g32
sS'.thisTrialN'
p168
I10
sS'.thisN'
p169
I10
sS'.thisIndex'
p170
I1
sg15
(lp171
S'd'
asg30
VF
sg17
S'Y'
sg14
I1
sg19
Nsg94
I1
sa(dp172
g16
(lp173
S'd'
asg18
S'N'
sS'.thisRepN'
p174
I0
sg20
S'Y'
sg31
g32
sS'.thisTrialN'
p175
I11
sS'.thisN'
p176
I11
sS'.thisIndex'
p177
I14
sg15
(lp178
S'd'
asg30
VF
sg17
S'Y'
sg14
I1
sg19
Nsg94
I14
sa(dp179
g16
(lp180
S'k'
asg18
S'Y'
sS'.thisRepN'
p181
I0
sg20
S'N'
sg31
g32
sS'.thisTrialN'
p182
I12
sS'.thisN'
p183
I12
sS'.thisIndex'
p184
I1
sg15
(lp185
S'k'
asg30
VF
sg17
S'Y'
sg14
I1
sg19
Nsg94
I1
sa(dp186
g16
(lp187
S'd'
asg18
S'Y'
sS'.thisRepN'
p188
I0
sg20
S'N'
sg31
g32
sS'.thisTrialN'
p189
I13
sS'.thisN'
p190
I13
sS'.thisIndex'
p191
I1
sg15
(lp192
S'd'
asg30
VF
sg17
S'Y'
sg14
I1
sg19
Nsg94
I1
sa(dp193
g16
(lp194
S'k'
asg18
S'Y'
sS'.thisRepN'
p195
I0
sg20
S'Y'
sg31
g32
sS'.thisTrialN'
p196
I14
sS'.thisN'
p197
I14
sS'.thisIndex'
p198
I10
sg15
(lp199
S'k'
asg30
VF
sg17
S'Y'
sg14
I1
sg19
(lp200
S'space'
p201
asg94
I10
sa(dp202
g16
(lp203
S'd'
asg18
S'Y'
sS'.thisRepN'
p204
I1
sg20
S'N'
sg31
g32
sS'.thisTrialN'
p205
I0
sS'.thisN'
p206
I15
sS'.thisIndex'
p207
I5
sg15
(lp208
S'd'
asg30
VF
sg17
S'Y'
sg14
I1
sg19
Nsg94
I5
sa(dp209
g16
(lp210
S'k'
asg18
S'N'
sS'.thisRepN'
p211
I1
sg20
S'Y'
sg31
g32
sS'.thisTrialN'
p212
I1
sS'.thisN'
p213
I16
sS'.thisIndex'
p214
I2
sg15
(lp215
S'k'
asg30
VF
sg17
S'Y'
sg14
I1
sg19
Nsg94
I2
sa(dp216
g16
(lp217
S'd'
asg18
S'Y'
sS'.thisRepN'
p218
I1
sg20
S'Y'
sg31
g32
sS'.thisTrialN'
p219
I2
sS'.thisN'
p220
I17
sS'.thisIndex'
p221
I13
sg15
(lp222
S'd'
asg30
VF
sg17
S'Y'
sg14
I1
sg19
(lp223
S'space'
p224
asg94
I13
sa(dp225
g16
(lp226
S'd'
asg18
S'N'
sS'.thisRepN'
p227
I1
sg20
S'N'
sg31
g32
sS'.thisTrialN'
p228
I3
sS'.thisN'
p229
I18
sS'.thisIndex'
p230
I14
sg15
(lp231
S'd'
asg30
VF
sg17
S'Y'
sg14
I1
sg19
(lp232
S'space'
p233
asg94
I14
sa(dp234
g16
(lp235
S'd'
asg18
S'N'
sS'.thisRepN'
p236
I1
sg20
S'N'
sg31
g32
sS'.thisTrialN'
p237
I4
sS'.thisN'
p238
I19
sS'.thisIndex'
p239
I3
sg15
(lp240
S'd'
asg30
VF
sg17
S'Y'
sg14
I1
sg19
(lp241
S'space'
p242
asg94
I3
sa(dp243
g16
(lp244
S'k'
asg18
S'N'
sS'.thisRepN'
p245
I1
sg20
S'Y'
sg31
g32
sS'.thisTrialN'
p246
I5
sS'.thisN'
p247
I20
sS'.thisIndex'
p248
I2
sg15
(lp249
S'k'
asg30
VF
sg17
S'Y'
sg14
I1
sg19
Nsg94
I2
sa(dp250
g16
(lp251
S'k'
asg18
S'N'
sS'.thisRepN'
p252
I1
sg20
S'Y'
sg31
g32
sS'.thisTrialN'
p253
I6
sS'.thisN'
p254
I21
sS'.thisIndex'
p255
I4
sg15
(lp256
S'd'
asg30
VF
sg17
S'N'
sg14
I1
sg19
Nsg94
I4
sa(dp257
g16
(lp258
S'd'
asg18
S'Y'
sS'.thisRepN'
p259
I1
sg20
S'Y'
sg31
g32
sS'.thisTrialN'
p260
I7
sS'.thisN'
p261
I22
sS'.thisIndex'
p262
I3
sg15
(lp263
S'd'
asg30
VF
sg17
S'Y'
sg14
I1
sg19
(lp264
S'space'
p265
asg94
I3
sa(dp266
g16
(lp267
S'd'
asg18
S'N'
sS'.thisRepN'
p268
I1
sg20
S'Y'
sg31
g32
sS'.thisTrialN'
p269
I8
sS'.thisN'
p270
I23
sS'.thisIndex'
p271
I3
sg15
(lp272
S'd'
asg30
VF
sg17
S'Y'
sg14
I1
sg19
Nsg94
I3
sa(dp273
g16
(lp274
S'k'
asg18
S'N'
sS'.thisRepN'
p275
I1
sg20
S'Y'
sg31
g32
sS'.thisTrialN'
p276
I9
sS'.thisN'
p277
I24
sS'.thisIndex'
p278
I7
sg15
(lp279
S'k'
asg30
VF
sg17
S'Y'
sg14
I1
sg19
Nsg94
I7
sa(dp280
g16
(lp281
S'd'
asg18
S'N'
sS'.thisRepN'
p282
I1
sg20
S'Y'
sg31
g32
sS'.thisTrialN'
p283
I10
sS'.thisN'
p284
I25
sS'.thisIndex'
p285
I10
sg15
(lp286
S'd'
asg30
VF
sg17
S'Y'
sg14
I1
sg19
Nsg94
I10
sa(dp287
g16
(lp288
S'k'
asg18
S'N'
sS'.thisRepN'
p289
I1
sg20
S'Y'
sg31
g32
sS'.thisTrialN'
p290
I11
sS'.thisN'
p291
I26
sS'.thisIndex'
p292
I9
sg15
(lp293
S'k'
asg30
VF
sg17
S'Y'
sg14
I1
sg19
Nsg94
I9
sa(dp294
g16
(lp295
S'd'
asg18
S'Y'
sS'.thisRepN'
p296
I1
sg20
S'Y'
sg31
g32
sS'.thisTrialN'
p297
I12
sS'.thisN'
p298
I27
sS'.thisIndex'
p299
I11
sg15
(lp300
S'd'
asg30
VF
sg17
S'Y'
sg14
I1
sg19
(lp301
S'space'
p302
asg94
I11
sa(dp303
g16
(lp304
S'k'
asg18
S'N'
sS'.thisRepN'
p305
I1
sg20
S'N'
sg31
g32
sS'.thisTrialN'
p306
I13
sS'.thisN'
p307
I28
sS'.thisIndex'
p308
I1
sg15
(lp309
S'k'
asg30
VF
sg17
S'Y'
sg14
I1
sg19
(lp310
S'space'
p311
asg94
I1
sa(dp312
g16
(lp313
S'd'
asg18
S'N'
sS'.thisRepN'
p314
I1
sg20
S'Y'
sg31
g32
sS'.thisTrialN'
p315
I14
sS'.thisN'
p316
I29
sS'.thisIndex'
p317
I8
sg15
(lp318
S'k'
asg30
VF
sg17
S'N'
sg14
I1
sg19
Nsg94
I8
sa(dp319
g16
(lp320
S'k'
asg18
S'Y'
sS'.thisRepN'
p321
I2
sg20
S'Y'
sg31
g32
sS'.thisTrialN'
p322
I0
sS'.thisN'
p323
I30
sS'.thisIndex'
p324
I5
sg15
(lp325
S'k'
asg30
VF
sg17
S'Y'
sg14
I1
sg19
(lp326
S'space'
p327
asg94
I5
sa(dp328
g16
(lp329
S'k'
asg18
S'N'
sS'.thisRepN'
p330
I2
sg20
S'Y'
sg31
g32
sS'.thisTrialN'
p331
I1
sS'.thisN'
p332
I31
sS'.thisIndex'
p333
I6
sg15
(lp334
S'k'
asg30
VF
sg17
S'Y'
sg14
I1
sg19
Nsg94
I6
sa(dp335
g16
(lp336
S'd'
asg18
S'N'
sS'.thisRepN'
p337
I2
sg20
S'Y'
sg31
g32
sS'.thisTrialN'
p338
I2
sS'.thisN'
p339
I32
sS'.thisIndex'
p340
I4
sg15
(lp341
S'd'
asg30
VF
sg17
S'Y'
sg14
I1
sg19
Nsg94
I4
sa(dp342
g16
(lp343
S'k'
asg18
S'N'
sS'.thisRepN'
p344
I2
sg20
S'Y'
sg31
g32
sS'.thisTrialN'
p345
I3
sS'.thisN'
p346
I33
sS'.thisIndex'
p347
I4
sg15
(lp348
S'k'
asg30
VF
sg17
S'Y'
sg14
I1
sg19
Nsg94
I4
sa(dp349
g16
(lp350
S'k'
asg18
S'Y'
sS'.thisRepN'
p351
I2
sg20
S'Y'
sg31
g32
sS'.thisTrialN'
p352
I4
sS'.thisN'
p353
I34
sS'.thisIndex'
p354
I6
sg15
(lp355
S'k'
asg30
VF
sg17
S'Y'
sg14
I1
sg19
(lp356
S'space'
p357
asg94
I6
sa(dp358
g16
(lp359
S'k'
asg18
S'N'
sS'.thisRepN'
p360
I2
sg20
S'Y'
sg31
g32
sS'.thisTrialN'
p361
I5
sS'.thisN'
p362
I35
sS'.thisIndex'
p363
I8
sg15
(lp364
S'k'
asg30
VF
sg17
S'Y'
sg14
I1
sg19
Nsg94
I8
sa(dp365
g16
(lp366
S'd'
asg18
S'N'
sS'.thisRepN'
p367
I2
sg20
S'Y'
sg31
g32
sS'.thisTrialN'
p368
I6
sS'.thisN'
p369
I36
sS'.thisIndex'
p370
I8
sg15
(lp371
S'd'
asg30
VF
sg17
S'Y'
sg14
I1
sg19
Nsg94
I8
sa(dp372
g16
(lp373
S'd'
asg18
S'N'
sS'.thisRepN'
p374
I2
sg20
S'Y'
sg31
g32
sS'.thisTrialN'
p375
I7
sS'.thisN'
p376
I37
sS'.thisIndex'
p377
I2
sg15
(lp378
S'k'
asg30
VF
sg17
S'N'
sg14
I1
sg19
Nsg94
I2
sa(dp379
g16
(lp380
S'k'
asg18
S'N'
sS'.thisRepN'
p381
I2
sg20
S'Y'
sg31
g32
sS'.thisTrialN'
p382
I8
sS'.thisN'
p383
I38
sS'.thisIndex'
p384
I0
sg15
(lp385
S'k'
asg30
VF
sg17
S'Y'
sg14
I1
sg19
Nsg94
I0
sa(dp386
g16
(lp387
S'k'
asg18
S'N'
sS'.thisRepN'
p388
I2
sg20
S'Y'
sg31
g32
sS'.thisTrialN'
p389
I9
sS'.thisN'
p390
I39
sS'.thisIndex'
p391
I0
sg15
(lp392
S'k'
asg30
VF
sg17
S'Y'
sg14
I1
sg19
Nsg94
I0
sa(dp393
g16
(lp394
S'd'
asg18
S'N'
sS'.thisRepN'
p395
I2
sg20
S'N'
sg31
g32
sS'.thisTrialN'
p396
I10
sS'.thisN'
p397
I40
sS'.thisIndex'
p398
I2
sg15
(lp399
S'd'
asg30
VF
sg17
S'Y'
sg14
I1
sg19
(lp400
S'space'
p401
asg94
I2
sa(dp402
g16
(lp403
S'd'
asg18
S'N'
sS'.thisRepN'
p404
I2
sg20
S'Y'
sg31
g32
sS'.thisTrialN'
p405
I11
sS'.thisN'
p406
I41
sS'.thisIndex'
p407
I13
sg15
(lp408
S'd'
asg30
VF
sg17
S'Y'
sg14
I1
sg19
Nsg94
I13
sa(dp409
g16
(lp410
S'k'
asg18
S'N'
sS'.thisRepN'
p411
I2
sg20
S'Y'
sg31
g32
sS'.thisTrialN'
p412
I12
sS'.thisN'
p413
I42
sS'.thisIndex'
p414
I7
sg15
(lp415
S'k'
asg30
VF
sg17
S'Y'
sg14
I1
sg19
Nsg94
I7
sa(dp416
g16
(lp417
S'd'
asg18
S'N'
sS'.thisRepN'
p418
I2
sg20
S'Y'
sg31
g32
sS'.thisTrialN'
p419
I13
sS'.thisN'
p420
I43
sS'.thisIndex'
p421
I11
sg15
(lp422
S'd'
asg30
VF
sg17
S'Y'
sg14
I1
sg19
Nsg94
I11
sa(dp423
g16
(lp424
S'k'
asg18
S'N'
sS'.thisRepN'
p425
I2
sg20
S'Y'
sg31
g32
sS'.thisTrialN'
p426
I14
sS'.thisN'
p427
I44
sS'.thisIndex'
p428
I0
sg15
(lp429
S'k'
asg30
VF
sg17
S'Y'
sg14
I1
sg19
Nsg94
I0
sa(dp430
g16
(lp431
S'd'
asg18
S'Y'
sS'.thisRepN'
p432
I3
sg20
S'Y'
sg31
g32
sS'.thisTrialN'
p433
I0
sS'.thisN'
p434
I45
sS'.thisIndex'
p435
I13
sg15
(lp436
S'k'
asg30
VF
sg17
S'N'
sg14
I1
sg19
(lp437
S'space'
p438
asg94
I13
sa(dp439
g16
(lp440
S'd'
asg18
S'Y'
sS'.thisRepN'
p441
I3
sg20
S'N'
sg31
g32
sS'.thisTrialN'
p442
I1
sS'.thisN'
p443
I46
sS'.thisIndex'
p444
I10
sg15
(lp445
S'k'
asg30
VF
sg17
S'N'
sg14
I1
sg19
Nsg94
I10
sa(dp446
g16
(lp447
S'k'
asg18
S'N'
sS'.thisRepN'
p448
I3
sg20
S'Y'
sg31
g32
sS'.thisTrialN'
p449
I2
sS'.thisN'
p450
I47
sS'.thisIndex'
p451
I13
sg15
(lp452
S'k'
asg30
VF
sg17
S'Y'
sg14
I1
sg19
Nsg94
I13
sa(dp453
g16
(lp454
S'k'
asg18
S'N'
sS'.thisRepN'
p455
I3
sg20
S'N'
sg31
g32
sS'.thisTrialN'
p456
I3
sS'.thisN'
p457
I48
sS'.thisIndex'
p458
I8
sg15
(lp459
S'k'
asg30
VF
sg17
S'Y'
sg14
I1
sg19
(lp460
S'space'
p461
asg94
I8
sa(dp462
g16
(lp463
S'k'
asg18
S'N'
sg22
I36
sS'.thisN'
p464
I49
sg20
S'Y'
sg31
g32
sS'.thisTrialN'
p465
I4
sS'.thisRepN'
p466
I3
sg21
I42
sS'.thisIndex'
p467
I12
sg23
I15
sg15
(lp468
S'k'
asg30
VF
sg17
S'Y'
sg14
I1
sg19
Nsg94
I12
sa(dp469
g16
(lp470
S'd'
asg94
I1
sS'.thisRepN'
p471
I3
sg30
VF
sg31
g32
sS'.thisTrialN'
p472
I5
sS'.thisN'
p473
I50
sS'.thisIndex'
p474
I1
sg15
(lp475
S'd'
asg17
S'Y'
sg14
I2
sa(dp476
g16
(lp477
S'd'
asg94
I7
sS'.thisRepN'
p478
I3
sg30
VF
sg31
g32
sS'.thisTrialN'
p479
I6
sS'.thisN'
p480
I51
sS'.thisIndex'
p481
I7
sg15
(lp482
S'k'
asg17
S'N'
sg14
I2
sa(dp483
g16
(lp484
S'k'
asg18
S'Y'
sS'.thisRepN'
p485
I3
sg20
S'Y'
sg31
g32
sS'.thisTrialN'
p486
I7
sS'.thisN'
p487
I52
sS'.thisIndex'
p488
I12
sg15
(lp489
S'k'
asg30
VF
sg17
S'Y'
sg14
I2
sg19
(lp490
S'space'
p491
asg94
I12
sa(dp492
g16
(lp493
S'k'
asg18
S'Y'
sS'.thisRepN'
p494
I3
sg20
S'Y'
sg31
g32
sS'.thisTrialN'
p495
I8
sS'.thisN'
p496
I53
sS'.thisIndex'
p497
I10
sg15
(lp498
S'd'
asg30
VF
sg17
S'N'
sg14
I2
sg19
(lp499
S'space'
p500
asg94
I10
sa(dp501
g16
(lp502
S'd'
asg18
S'Y'
sS'.thisRepN'
p503
I3
sg20
S'Y'
sg31
g32
sS'.thisTrialN'
p504
I9
sS'.thisN'
p505
I54
sS'.thisIndex'
p506
I7
sg15
(lp507
S'd'
asg30
VF
sg17
S'Y'
sg14
I2
sg19
(lp508
S'space'
p509
asg94
I7
sa(dp510
g16
(lp511
S'k'
asg18
S'Y'
sS'.thisRepN'
p512
I3
sg20
S'N'
sg31
g32
sS'.thisTrialN'
p513
I10
sS'.thisN'
p514
I55
sS'.thisIndex'
p515
I5
sg15
(lp516
S'k'
asg30
VF
sg17
S'Y'
sg14
I2
sg19
Nsg94
I5
sa(dp517
g16
(lp518
S'k'
asg18
S'Y'
sS'.thisRepN'
p519
I3
sg20
S'Y'
sg31
g32
sS'.thisTrialN'
p520
I11
sS'.thisN'
p521
I56
sS'.thisIndex'
p522
I7
sg15
(lp523
S'd'
asg30
VF
sg17
S'N'
sg14
I2
sg19
(lp524
S'space'
p525
asg94
I7
sa(dp526
g16
(lp527
S'd'
asg18
S'N'
sS'.thisRepN'
p528
I3
sg20
S'Y'
sg31
g32
sS'.thisTrialN'
p529
I12
sS'.thisN'
p530
I57
sS'.thisIndex'
p531
I2
sg15
(lp532
S'k'
asg30
VF
sg17
S'N'
sg14
I2
sg19
Nsg94
I2
sa(dp533
g16
(lp534
S'd'
asg18
S'N'
sS'.thisRepN'
p535
I3
sg20
S'Y'
sg31
g32
sS'.thisTrialN'
p536
I13
sS'.thisN'
p537
I58
sS'.thisIndex'
p538
I1
sg15
(lp539
S'd'
asg30
VF
sg17
S'Y'
sg14
I2
sg19
Nsg94
I1
sa(dp540
g16
(lp541
S'd'
asg18
S'N'
sS'.thisRepN'
p542
I3
sg20
S'Y'
sg31
g32
sS'.thisTrialN'
p543
I14
sS'.thisN'
p544
I59
sS'.thisIndex'
p545
I11
sg15
(lp546
S'd'
asg30
VF
sg17
S'Y'
sg14
I2
sg19
Nsg94
I11
sa(dp547
g16
(lp548
S'k'
asg18
S'Y'
sS'.thisRepN'
p549
I4
sg20
S'N'
sg31
g32
sS'.thisTrialN'
p550
I0
sS'.thisN'
p551
I60
sS'.thisIndex'
p552
I10
sg15
(lp553
S'k'
asg30
VF
sg17
S'Y'
sg14
I2
sg19
Nsg94
I10
sa(dp554
g16
(lp555
S'k'
asg18
S'Y'
sS'.thisRepN'
p556
I4
sg20
S'N'
sg31
g32
sS'.thisTrialN'
p557
I1
sS'.thisN'
p558
I61
sS'.thisIndex'
p559
I7
sg15
(lp560
S'k'
asg30
VF
sg17
S'Y'
sg14
I2
sg19
Nsg94
I7
sa(dp561
g16
(lp562
S'k'
asg18
S'N'
sS'.thisRepN'
p563
I4
sg20
S'Y'
sg31
g32
sS'.thisTrialN'
p564
I2
sS'.thisN'
p565
I62
sS'.thisIndex'
p566
I4
sg15
(lp567
S'd'
asg30
VF
sg17
S'N'
sg14
I2
sg19
Nsg94
I4
sa(dp568
g16
(lp569
S'd'
asg18
S'N'
sS'.thisRepN'
p570
I4
sg20
S'Y'
sg31
g32
sS'.thisTrialN'
p571
I3
sS'.thisN'
p572
I63
sS'.thisIndex'
p573
I2
sg15
(lp574
S'd'
asg30
VF
sg17
S'Y'
sg14
I2
sg19
Nsg94
I2
sa(dp575
g16
(lp576
S'd'
asg18
S'Y'
sS'.thisRepN'
p577
I4
sg20
S'N'
sg31
g32
sS'.thisTrialN'
p578
I4
sS'.thisN'
p579
I64
sS'.thisIndex'
p580
I5
sg15
(lp581
S'd'
asg30
VF
sg17
S'Y'
sg14
I2
sg19
Nsg94
I5
sa(dp582
g16
(lp583
S'k'
asg18
S'Y'
sS'.thisRepN'
p584
I4
sg20
S'N'
sg31
g32
sS'.thisTrialN'
p585
I5
sS'.thisN'
p586
I65
sS'.thisIndex'
p587
I8
sg15
(lp588
S'k'
asg30
VF
sg17
S'Y'
sg14
I2
sg19
Nsg94
I8
sa(dp589
g16
(lp590
S'k'
asg18
S'Y'
sS'.thisRepN'
p591
I4
sg20
S'Y'
sg31
g32
sS'.thisTrialN'
p592
I6
sS'.thisN'
p593
I66
sS'.thisIndex'
p594
I12
sg15
(lp595
S'k'
asg30
VF
sg17
S'Y'
sg14
I2
sg19
(lp596
S'space'
p597
asg94
I12
sa(dp598
g16
(lp599
S'd'
asg18
S'Y'
sS'.thisRepN'
p600
I4
sg20
S'Y'
sg31
g32
sS'.thisTrialN'
p601
I7
sS'.thisN'
p602
I67
sS'.thisIndex'
p603
I11
sg15
(lp604
S'd'
asg30
VF
sg17
S'Y'
sg14
I2
sg19
(lp605
S'space'
p606
asg94
I11
sa(dp607
g16
(lp608
S'd'
asg18
S'Y'
sS'.thisRepN'
p609
I4
sg20
S'Y'
sg31
g32
sS'.thisTrialN'
p610
I8
sS'.thisN'
p611
I68
sS'.thisIndex'
p612
I7
sg15
(lp613
S'd'
asg30
VF
sg17
S'Y'
sg14
I2
sg19
(lp614
S'space'
p615
asg94
I7
sa(dp616
g16
(lp617
S'k'
asg18
S'N'
sS'.thisRepN'
p618
I4
sg20
S'Y'
sg31
g32
sS'.thisTrialN'
p619
I9
sS'.thisN'
p620
I69
sS'.thisIndex'
p621
I11
sg15
(lp622
S'k'
asg30
VF
sg17
S'Y'
sg14
I2
sg19
Nsg94
I11
sa(dp623
g16
(lp624
S'd'
asg18
S'Y'
sS'.thisRepN'
p625
I4
sg20
S'N'
sg31
g32
sS'.thisTrialN'
p626
I10
sS'.thisN'
p627
I70
sS'.thisIndex'
p628
I9
sg15
(lp629
S'd'
asg30
VF
sg17
S'Y'
sg14
I2
sg19
Nsg94
I9
sa(dp630
g16
(lp631
S'd'
asg18
S'N'
sS'.thisRepN'
p632
I4
sg20
S'Y'
sg31
g32
sS'.thisTrialN'
p633
I11
sS'.thisN'
p634
I71
sS'.thisIndex'
p635
I12
sg15
(lp636
S'd'
asg30
VF
sg17
S'Y'
sg14
I2
sg19
Nsg94
I12
sa(dp637
g16
(lp638
S'd'
asg18
S'N'
sS'.thisRepN'
p639
I4
sg20
S'Y'
sg31
g32
sS'.thisTrialN'
p640
I12
sS'.thisN'
p641
I72
sS'.thisIndex'
p642
I13
sg15
(lp643
S'd'
asg30
VF
sg17
S'Y'
sg14
I2
sg19
Nsg94
I13
sa(dp644
g16
(lp645
S'd'
asg18
S'Y'
sS'.thisRepN'
p646
I4
sg20
S'Y'
sg31
g32
sS'.thisTrialN'
p647
I13
sS'.thisN'
p648
I73
sS'.thisIndex'
p649
I9
sg15
(lp650
S'd'
asg30
VF
sg17
S'Y'
sg14
I2
sg19
(lp651
S'space'
p652
asg94
I9
sa(dp653
g16
(lp654
S'k'
asg18
S'N'
sS'.thisRepN'
p655
I4
sg20
S'Y'
sg31
g32
sS'.thisTrialN'
p656
I14
sS'.thisN'
p657
I74
sS'.thisIndex'
p658
I7
sg15
(lp659
S'd'
asg30
VF
sg17
S'N'
sg14
I2
sg19
Nsg94
I7
sa(dp660
g16
(lp661
S'd'
asg18
S'N'
sS'.thisRepN'
p662
I5
sg20
S'Y'
sg31
g32
sS'.thisTrialN'
p663
I0
sS'.thisN'
p664
I75
sS'.thisIndex'
p665
I4
sg15
(lp666
S'k'
asg30
VF
sg17
S'N'
sg14
I2
sg19
Nsg94
I4
sa(dp667
g16
(lp668
S'd'
asg18
S'Y'
sS'.thisRepN'
p669
I5
sg20
S'Y'
sg31
g32
sS'.thisTrialN'
p670
I1
sS'.thisN'
p671
I76
sS'.thisIndex'
p672
I8
sg15
(lp673
S'd'
asg30
VF
sg17
S'Y'
sg14
I2
sg19
(lp674
S'space'
p675
asg94
I8
sa(dp676
g16
(lp677
S'k'
asg18
S'N'
sS'.thisRepN'
p678
I5
sg20
S'Y'
sg31
g32
sS'.thisTrialN'
p679
I2
sS'.thisN'
p680
I77
sS'.thisIndex'
p681
I2
sg15
(lp682
S'k'
asg30
VF
sg17
S'Y'
sg14
I2
sg19
Nsg94
I2
sa(dp683
g16
(lp684
S'k'
asg18
S'Y'
sS'.thisRepN'
p685
I5
sg20
S'Y'
sg31
g32
sS'.thisTrialN'
p686
I3
sS'.thisN'
p687
I78
sS'.thisIndex'
p688
I10
sg15
(lp689
S'k'
asg30
VF
sg17
S'Y'
sg14
I2
sg19
(lp690
S'space'
p691
asg94
I10
sa(dp692
g16
(lp693
S'd'
asg18
S'Y'
sS'.thisRepN'
p694
I5
sg20
S'Y'
sg31
g32
sS'.thisTrialN'
p695
I4
sS'.thisN'
p696
I79
sS'.thisIndex'
p697
I2
sg15
(lp698
S'd'
asg30
VF
sg17
S'Y'
sg14
I2
sg19
(lp699
S'space'
p700
asg94
I2
sa(dp701
g16
(lp702
S'k'
asg18
S'N'
sS'.thisRepN'
p703
I5
sg20
S'Y'
sg31
g32
sS'.thisTrialN'
p704
I5
sS'.thisN'
p705
I80
sS'.thisIndex'
p706
I8
sg15
(lp707
S'k'
asg30
VF
sg17
S'Y'
sg14
I2
sg19
Nsg94
I8
sa(dp708
g16
(lp709
S'k'
asg18
S'Y'
sS'.thisRepN'
p710
I5
sg20
S'Y'
sg31
g32
sS'.thisTrialN'
p711
I6
sS'.thisN'
p712
I81
sS'.thisIndex'
p713
I13
sg15
(lp714
S'k'
asg30
VF
sg17
S'Y'
sg14
I2
sg19
(lp715
S'space'
p716
asg94
I13
sa(dp717
g16
(lp718
S'k'
asg18
S'Y'
sS'.thisRepN'
p719
I5
sg20
S'Y'
sg31
g32
sS'.thisTrialN'
p720
I7
sS'.thisN'
p721
I82
sS'.thisIndex'
p722
I2
sg15
(lp723
S'k'
asg30
VF
sg17
S'Y'
sg14
I2
sg19
(lp724
S'space'
p725
asg94
I2
sa(dp726
g16
(lp727
S'k'
asg18
S'Y'
sS'.thisRepN'
p728
I5
sg20
S'Y'
sg31
g32
sS'.thisTrialN'
p729
I8
sS'.thisN'
p730
I83
sS'.thisIndex'
p731
I0
sg15
(lp732
S'k'
asg30
VF
sg17
S'Y'
sg14
I2
sg19
(lp733
S'space'
p734
asg94
I0
sa(dp735
g16
(lp736
S'k'
asg18
S'N'
sS'.thisRepN'
p737
I5
sg20
S'Y'
sg31
g32
sS'.thisTrialN'
p738
I9
sS'.thisN'
p739
I84
sS'.thisIndex'
p740
I9
sg15
(lp741
S'd'
asg30
VF
sg17
S'N'
sg14
I2
sg19
Nsg94
I9
sa(dp742
g16
(lp743
S'd'
asg18
S'N'
sS'.thisRepN'
p744
I5
sg20
S'Y'
sg31
g32
sS'.thisTrialN'
p745
I10
sS'.thisN'
p746
I85
sS'.thisIndex'
p747
I0
sg15
(lp748
S'd'
asg30
VF
sg17
S'Y'
sg14
I2
sg19
Nsg94
I0
sa(dp749
g16
(lp750
S'k'
asg18
S'Y'
sS'.thisRepN'
p751
I5
sg20
S'Y'
sg31
g32
sS'.thisTrialN'
p752
I11
sS'.thisN'
p753
I86
sS'.thisIndex'
p754
I8
sg15
(lp755
S'k'
asg30
VF
sg17
S'Y'
sg14
I2
sg19
(lp756
S'space'
p757
asg94
I8
sa(dp758
g16
(lp759
S'd'
asg18
S'Y'
sS'.thisRepN'
p760
I5
sg20
S'Y'
sg31
g32
sS'.thisTrialN'
p761
I12
sS'.thisN'
p762
I87
sS'.thisIndex'
p763
I13
sg15
(lp764
S'k'
asg30
VF
sg17
S'N'
sg14
I2
sg19
(lp765
S'space'
p766
asg94
I13
sa(dp767
g16
(lp768
S'd'
asg18
S'Y'
sS'.thisRepN'
p769
I5
sg20
S'N'
sg31
g32
sS'.thisTrialN'
p770
I13
sS'.thisN'
p771
I88
sS'.thisIndex'
p772
I11
sg15
(lp773
S'd'
asg30
VF
sg17
S'Y'
sg14
I2
sg19
Nsg94
I11
sa(dp774
g16
(lp775
S'k'
asg18
S'Y'
sS'.thisRepN'
p776
I5
sg20
S'Y'
sg31
g32
sS'.thisTrialN'
p777
I14
sS'.thisN'
p778
I89
sS'.thisIndex'
p779
I2
sg15
(lp780
S'k'
asg30
VF
sg17
S'Y'
sg14
I2
sg19
(lp781
S'space'
p782
asg94
I2
sa(dp783
g16
(lp784
S'd'
asg18
S'N'
sS'.thisRepN'
p785
I6
sg20
S'Y'
sg31
g32
sS'.thisTrialN'
p786
I0
sS'.thisN'
p787
I90
sS'.thisIndex'
p788
I4
sg15
(lp789
S'd'
asg30
VF
sg17
S'Y'
sg14
I2
sg19
Nsg94
I4
sa(dp790
g16
(lp791
S'd'
asg18
S'N'
sS'.thisRepN'
p792
I6
sg20
S'Y'
sg31
g32
sS'.thisTrialN'
p793
I1
sS'.thisN'
p794
I91
sS'.thisIndex'
p795
I1
sg15
(lp796
S'k'
asg30
VF
sg17
S'N'
sg14
I2
sg19
Nsg94
I1
sa(dp797
g16
(lp798
S'k'
asg18
S'N'
sS'.thisRepN'
p799
I6
sg20
S'Y'
sg31
g32
sS'.thisTrialN'
p800
I2
sS'.thisN'
p801
I92
sS'.thisIndex'
p802
I7
sg15
(lp803
S'k'
asg30
VF
sg17
S'Y'
sg14
I2
sg19
Nsg94
I7
sa(dp804
g16
(lp805
S'k'
asg18
S'Y'
sS'.thisRepN'
p806
I6
sg20
S'N'
sg31
g32
sS'.thisTrialN'
p807
I3
sS'.thisN'
p808
I93
sS'.thisIndex'
p809
I9
sg15
(lp810
S'k'
asg30
VF
sg17
S'Y'
sg14
I2
sg19
Nsg94
I9
sa(dp811
g16
(lp812
S'k'
asg18
S'N'
sS'.thisRepN'
p813
I6
sg20
S'Y'
sg31
g32
sS'.thisTrialN'
p814
I4
sS'.thisN'
p815
I94
sS'.thisIndex'
p816
I7
sg15
(lp817
S'k'
asg30
VF
sg17
S'Y'
sg14
I2
sg19
Nsg94
I7
sa(dp818
g16
(lp819
S'k'
asg18
S'N'
sS'.thisRepN'
p820
I6
sg20
S'Y'
sg31
g32
sS'.thisTrialN'
p821
I5
sS'.thisN'
p822
I95
sS'.thisIndex'
p823
I12
sg15
(lp824
S'k'
asg30
VF
sg17
S'Y'
sg14
I2
sg19
Nsg94
I12
sa(dp825
g16
(lp826
S'k'
asg18
S'N'
sS'.thisRepN'
p827
I6
sg20
S'Y'
sg31
g32
sS'.thisTrialN'
p828
I6
sS'.thisN'
p829
I96
sS'.thisIndex'
p830
I13
sg15
(lp831
S'k'
asg30
VF
sg17
S'Y'
sg14
I2
sg19
Nsg94
I13
sa(dp832
g16
(lp833
S'k'
asg18
S'N'
sS'.thisRepN'
p834
I6
sg20
S'Y'
sg31
g32
sS'.thisTrialN'
p835
I7
sS'.thisN'
p836
I97
sS'.thisIndex'
p837
I5
sg15
(lp838
S'k'
asg30
VF
sg17
S'Y'
sg14
I2
sg19
Nsg94
I5
sa(dp839
g16
(lp840
S'd'
asg18
S'N'
sS'.thisRepN'
p841
I6
sg20
S'Y'
sg31
g32
sS'.thisTrialN'
p842
I8
sS'.thisN'
p843
I98
sS'.thisIndex'
p844
I10
sg15
(lp845
S'k'
asg30
VF
sg17
S'N'
sg14
I2
sg19
Nsg94
I10
sa(dp846
g16
(lp847
S'k'
asg18
S'N'
sg22
I40
sS'.thisN'
p848
I99
sg20
S'Y'
sg31
g32
sS'.thisTrialN'
p849
I9
sS'.thisRepN'
p850
I6
sg21
I39
sS'.thisIndex'
p851
I10
sg23
I25
sg15
(lp852
S'k'
asg30
VF
sg17
S'Y'
sg14
I2
sg19
Nsg94
I10
sa(dp853
g16
(lp854
S'k'
asg94
I5
sS'.thisRepN'
p855
I6
sg30
VF
sg31
g32
sS'.thisTrialN'
p856
I10
sS'.thisN'
p857
I100
sS'.thisIndex'
p858
I5
sg15
(lp859
S'k'
asg17
S'Y'
sg14
I3
sa(dp860
g16
(lp861
S'k'
asg94
I2
sS'.thisRepN'
p862
I6
sg30
VF
sg31
g32
sS'.thisTrialN'
p863
I11
sS'.thisN'
p864
I101
sS'.thisIndex'
p865
I2
sg15
(lp866
S'k'
asg17
S'Y'
sg14
I3
sa(dp867
g16
(lp868
S'k'
asg18
S'N'
sS'.thisRepN'
p869
I6
sg20
S'Y'
sg31
g32
sS'.thisTrialN'
p870
I12
sS'.thisN'
p871
I102
sS'.thisIndex'
p872
I10
sg15
(lp873
S'k'
asg30
VF
sg17
S'Y'
sg14
I3
sg19
Nsg94
I10
sa(dp874
g16
(lp875
S'd'
asg18
S'Y'
sS'.thisRepN'
p876
I6
sg20
S'Y'
sg31
g32
sS'.thisTrialN'
p877
I13
sS'.thisN'
p878
I103
sS'.thisIndex'
p879
I4
sg15
(lp880
S'k'
asg30
VF
sg17
S'N'
sg14
I3
sg19
(lp881
S'space'
p882
asg94
I4
sa(dp883
g16
(lp884
S'k'
asg18
S'N'
sS'.thisRepN'
p885
I6
sg20
S'Y'
sg31
g32
sS'.thisTrialN'
p886
I14
sS'.thisN'
p887
I104
sS'.thisIndex'
p888
I1
sg15
(lp889
S'k'
asg30
VF
sg17
S'Y'
sg14
I3
sg19
Nsg94
I1
sa(dp890
g16
(lp891
S'd'
asg18
S'Y'
sS'.thisRepN'
p892
I7
sg20
S'N'
sg31
g32
sS'.thisTrialN'
p893
I0
sS'.thisN'
p894
I105
sS'.thisIndex'
p895
I5
sg15
(lp896
S'd'
asg30
VF
sg17
S'Y'
sg14
I3
sg19
Nsg94
I5
sa(dp897
g16
(lp898
S'k'
asg18
S'N'
sS'.thisRepN'
p899
I7
sg20
S'Y'
sg31
g32
sS'.thisTrialN'
p900
I1
sS'.thisN'
p901
I106
sS'.thisIndex'
p902
I4
sg15
(lp903
S'k'
asg30
VF
sg17
S'Y'
sg14
I3
sg19
Nsg94
I4
sa(dp904
g16
(lp905
S'k'
asg18
S'N'
sS'.thisRepN'
p906
I7
sg20
S'Y'
sg31
g32
sS'.thisTrialN'
p907
I2
sS'.thisN'
p908
I107
sS'.thisIndex'
p909
I12
sg15
(lp910
S'k'
asg30
VF
sg17
S'Y'
sg14
I3
sg19
Nsg94
I12
sa(dp911
g16
(lp912
S'd'
asg18
S'N'
sS'.thisRepN'
p913
I7
sg20
S'Y'
sg31
g32
sS'.thisTrialN'
p914
I3
sS'.thisN'
p915
I108
sS'.thisIndex'
p916
I6
sg15
(lp917
S'd'
asg30
VF
sg17
S'Y'
sg14
I3
sg19
Nsg94
I6
sa(dp918
g16
(lp919
S'k'
asg18
S'N'
sS'.thisRepN'
p920
I7
sg20
S'Y'
sg31
g32
sS'.thisTrialN'
p921
I4
sS'.thisN'
p922
I109
sS'.thisIndex'
p923
I6
sg15
(lp924
S'k'
asg30
VF
sg17
S'Y'
sg14
I3
sg19
Nsg94
I6
sa(dp925
g16
(lp926
S'k'
asg18
S'Y'
sS'.thisRepN'
p927
I7
sg20
S'Y'
sg31
g32
sS'.thisTrialN'
p928
I5
sS'.thisN'
p929
I110
sS'.thisIndex'
p930
I0
sg15
(lp931
S'k'
asg30
VF
sg17
S'Y'
sg14
I3
sg19
(lp932
S'space'
p933
asg94
I0
sa(dp934
g16
(lp935
S'k'
asg18
S'Y'
sS'.thisRepN'
p936
I7
sg20
S'Y'
sg31
g32
sS'.thisTrialN'
p937
I6
sS'.thisN'
p938
I111
sS'.thisIndex'
p939
I12
sg15
(lp940
S'd'
asg30
VF
sg17
S'N'
sg14
I3
sg19
(lp941
S'space'
p942
asg94
I12
sa(dp943
g16
(lp944
S'k'
asg18
S'Y'
sS'.thisRepN'
p945
I7
sg20
S'Y'
sg31
g32
sS'.thisTrialN'
p946
I7
sS'.thisN'
p947
I112
sS'.thisIndex'
p948
I14
sg15
(lp949
S'k'
asg30
VF
sg17
S'Y'
sg14
I3
sg19
(lp950
S'space'
p951
asg94
I14
sa(dp952
g16
(lp953
S'd'
asg18
S'Y'
sS'.thisRepN'
p954
I7
sg20
S'Y'
sg31
g32
sS'.thisTrialN'
p955
I8
sS'.thisN'
p956
I113
sS'.thisIndex'
p957
I4
sg15
(lp958
S'd'
asg30
VF
sg17
S'Y'
sg14
I3
sg19
(lp959
S'space'
p960
asg94
I4
sa(dp961
g16
(lp962
S'd'
asg18
S'N'
sS'.thisRepN'
p963
I7
sg20
S'Y'
sg31
g32
sS'.thisTrialN'
p964
I9
sS'.thisN'
p965
I114
sS'.thisIndex'
p966
I14
sg15
(lp967
S'd'
asg30
VF
sg17
S'Y'
sg14
I3
sg19
Nsg94
I14
sa(dp968
g16
(lp969
S'd'
asg18
S'Y'
sS'.thisRepN'
p970
I7
sg20
S'N'
sg31
g32
sS'.thisTrialN'
p971
I10
sS'.thisN'
p972
I115
sS'.thisIndex'
p973
I3
sg15
(lp974
S'k'
asg30
VF
sg17
S'N'
sg14
I3
sg19
Nsg94
I3
sa(dp975
g16
(lp976
S'd'
asg18
S'N'
sS'.thisRepN'
p977
I7
sg20
S'N'
sg31
g32
sS'.thisTrialN'
p978
I11
sS'.thisN'
p979
I116
sS'.thisIndex'
p980
I6
sg15
(lp981
S'd'
asg30
VF
sg17
S'Y'
sg14
I3
sg19
(lp982
S'space'
p983
asg94
I6
sa(dp984
g16
(lp985
S'k'
asg18
S'N'
sS'.thisRepN'
p986
I7
sg20
S'Y'
sg31
g32
sS'.thisTrialN'
p987
I12
sS'.thisN'
p988
I117
sS'.thisIndex'
p989
I14
sg15
(lp990
S'k'
asg30
VF
sg17
S'Y'
sg14
I3
sg19
Nsg94
I14
sa(dp991
g16
(lp992
S'd'
asg18
S'Y'
sS'.thisRepN'
p993
I7
sg20
S'Y'
sg31
g32
sS'.thisTrialN'
p994
I13
sS'.thisN'
p995
I118
sS'.thisIndex'
p996
I11
sg15
(lp997
S'd'
asg30
VF
sg17
S'Y'
sg14
I3
sg19
(lp998
S'space'
p999
asg94
I11
sa(dp1000
g16
(lp1001
S'd'
asg18
S'N'
sS'.thisRepN'
p1002
I7
sg20
S'Y'
sg31
g32
sS'.thisTrialN'
p1003
I14
sS'.thisN'
p1004
I119
sS'.thisIndex'
p1005
I3
sg15
(lp1006
S'd'
asg30
VF
sg17
S'Y'
sg14
I3
sg19
Nsg94
I3
sa(dp1007
g16
(lp1008
S'd'
asg18
S'Y'
sS'.thisRepN'
p1009
I8
sg20
S'Y'
sg31
g32
sS'.thisTrialN'
p1010
I0
sS'.thisN'
p1011
I120
sS'.thisIndex'
p1012
I0
sg15
(lp1013
S'k'
asg30
VF
sg17
S'N'
sg14
I3
sg19
(lp1014
S'space'
p1015
asg94
I0
sa(dp1016
g16
(lp1017
S'd'
asg18
S'Y'
sS'.thisRepN'
p1018
I8
sg20
S'Y'
sg31
g32
sS'.thisTrialN'
p1019
I1
sS'.thisN'
p1020
I121
sS'.thisIndex'
p1021
I4
sg15
(lp1022
S'd'
asg30
VF
sg17
S'Y'
sg14
I3
sg19
(lp1023
S'space'
p1024
asg94
I4
sa(dp1025
g16
(lp1026
S'd'
asg18
S'Y'
sS'.thisRepN'
p1027
I8
sg20
S'Y'
sg31
g32
sS'.thisTrialN'
p1028
I2
sS'.thisN'
p1029
I122
sS'.thisIndex'
p1030
I8
sg15
(lp1031
S'd'
asg30
VF
sg17
S'Y'
sg14
I3
sg19
(lp1032
S'space'
p1033
asg94
I8
sa(dp1034
g16
(lp1035
S'd'
asg18
S'Y'
sS'.thisRepN'
p1036
I8
sg20
S'Y'
sg31
g32
sS'.thisTrialN'
p1037
I3
sS'.thisN'
p1038
I123
sS'.thisIndex'
p1039
I6
sg15
(lp1040
S'd'
asg30
VF
sg17
S'Y'
sg14
I3
sg19
(lp1041
S'space'
p1042
asg94
I6
sa(dp1043
g16
(lp1044
S'k'
asg18
S'N'
sS'.thisRepN'
p1045
I8
sg20
S'Y'
sg31
g32
sS'.thisTrialN'
p1046
I4
sS'.thisN'
p1047
I124
sS'.thisIndex'
p1048
I5
sg15
(lp1049
S'k'
asg30
VF
sg17
S'Y'
sg14
I3
sg19
Nsg94
I5
sa(dp1050
g16
(lp1051
S'k'
asg18
S'N'
sS'.thisRepN'
p1052
I8
sg20
S'Y'
sg31
g32
sS'.thisTrialN'
p1053
I5
sS'.thisN'
p1054
I125
sS'.thisIndex'
p1055
I7
sg15
(lp1056
S'k'
asg30
VF
sg17
S'Y'
sg14
I3
sg19
Nsg94
I7
sa(dp1057
g16
(lp1058
S'k'
asg18
S'Y'
sS'.thisRepN'
p1059
I8
sg20
S'Y'
sg31
g32
sS'.thisTrialN'
p1060
I6
sS'.thisN'
p1061
I126
sS'.thisIndex'
p1062
I1
sg15
(lp1063
S'k'
asg30
VF
sg17
S'Y'
sg14
I3
sg19
(lp1064
S'space'
p1065
asg94
I1
sa(dp1066
g16
(lp1067
S'k'
asg18
S'N'
sS'.thisRepN'
p1068
I8
sg20
S'Y'
sg31
g32
sS'.thisTrialN'
p1069
I7
sS'.thisN'
p1070
I127
sS'.thisIndex'
p1071
I4
sg15
(lp1072
S'k'
asg30
VF
sg17
S'Y'
sg14
I3
sg19
Nsg94
I4
sa(dp1073
g16
(lp1074
S'k'
asg18
S'Y'
sS'.thisRepN'
p1075
I8
sg20
S'N'
sg31
g32
sS'.thisTrialN'
p1076
I8
sS'.thisN'
p1077
I128
sS'.thisIndex'
p1078
I5
sg15
(lp1079
S'k'
asg30
VF
sg17
S'Y'
sg14
I3
sg19
Nsg94
I5
sa(dp1080
g16
(lp1081
S'd'
asg18
S'N'
sS'.thisRepN'
p1082
I8
sg20
S'Y'
sg31
g32
sS'.thisTrialN'
p1083
I9
sS'.thisN'
p1084
I129
sS'.thisIndex'
p1085
I10
sg15
(lp1086
S'd'
asg30
VF
sg17
S'Y'
sg14
I3
sg19
Nsg94
I10
sa(dp1087
g16
(lp1088
S'k'
asg18
S'N'
sS'.thisRepN'
p1089
I8
sg20
S'Y'
sg31
g32
sS'.thisTrialN'
p1090
I10
sS'.thisN'
p1091
I130
sS'.thisIndex'
p1092
I9
sg15
(lp1093
S'k'
asg30
VF
sg17
S'Y'
sg14
I3
sg19
Nsg94
I9
sa(dp1094
g16
(lp1095
S'd'
asg18
S'N'
sS'.thisRepN'
p1096
I8
sg20
S'Y'
sg31
g32
sS'.thisTrialN'
p1097
I11
sS'.thisN'
p1098
I131
sS'.thisIndex'
p1099
I11
sg15
(lp1100
S'd'
asg30
VF
sg17
S'Y'
sg14
I3
sg19
Nsg94
I11
sa(dp1101
g16
(lp1102
S'k'
asg18
S'N'
sS'.thisRepN'
p1103
I8
sg20
S'Y'
sg31
g32
sS'.thisTrialN'
p1104
I12
sS'.thisN'
p1105
I132
sS'.thisIndex'
p1106
I3
sg15
(lp1107
S'k'
asg30
VF
sg17
S'Y'
sg14
I3
sg19
Nsg94
I3
sa(dp1108
g16
(lp1109
S'd'
asg18
S'Y'
sS'.thisRepN'
p1110
I8
sg20
S'N'
sg31
g32
sS'.thisTrialN'
p1111
I13
sS'.thisN'
p1112
I133
sS'.thisIndex'
p1113
I3
sg15
(lp1114
S'd'
asg30
VF
sg17
S'Y'
sg14
I3
sg19
Nsg94
I3
sa(dp1115
g16
(lp1116
S'k'
asg18
S'N'
sS'.thisRepN'
p1117
I8
sg20
S'Y'
sg31
g32
sS'.thisTrialN'
p1118
I14
sS'.thisN'
p1119
I134
sS'.thisIndex'
p1120
I5
sg15
(lp1121
S'd'
asg30
VF
sg17
S'N'
sg14
I3
sg19
Nsg94
I5
sa(dp1122
g16
(lp1123
S'k'
asg18
S'N'
sS'.thisRepN'
p1124
I9
sg20
S'N'
sg31
g32
sS'.thisTrialN'
p1125
I0
sS'.thisN'
p1126
I135
sS'.thisIndex'
p1127
I9
sg15
(lp1128
S'd'
asg30
VF
sg17
S'N'
sg14
I3
sg19
(lp1129
S'space'
p1130
asg94
I9
sa(dp1131
g16
(lp1132
S'k'
asg18
S'N'
sS'.thisRepN'
p1133
I9
sg20
S'Y'
sg31
g32
sS'.thisTrialN'
p1134
I1
sS'.thisN'
p1135
I136
sS'.thisIndex'
p1136
I4
sg15
(lp1137
S'k'
asg30
VF
sg17
S'Y'
sg14
I3
sg19
Nsg94
I4
sa(dp1138
g16
(lp1139
S'd'
asg18
S'Y'
sS'.thisRepN'
p1140
I9
sg20
S'N'
sg31
g32
sS'.thisTrialN'
p1141
I2
sS'.thisN'
p1142
I137
sS'.thisIndex'
p1143
I11
sg15
(lp1144
S'd'
asg30
VF
sg17
S'Y'
sg14
I3
sg19
Nsg94
I11
sa(dp1145
g16
(lp1146
S'k'
asg18
S'N'
sS'.thisRepN'
p1147
I9
sg20
S'Y'
sg31
g32
sS'.thisTrialN'
p1148
I3
sS'.thisN'
p1149
I138
sS'.thisIndex'
p1150
I2
sg15
(lp1151
S'k'
asg30
VF
sg17
S'Y'
sg14
I3
sg19
Nsg94
I2
sa(dp1152
g16
(lp1153
S'd'
asg18
S'N'
sS'.thisRepN'
p1154
I9
sg20
S'Y'
sg31
g32
sS'.thisTrialN'
p1155
I4
sS'.thisN'
p1156
I139
sS'.thisIndex'
p1157
I5
sg15
(lp1158
S'k'
asg30
VF
sg17
S'N'
sg14
I3
sg19
Nsg94
I5
sa(dp1159
g16
(lp1160
S'd'
asg18
S'N'
sS'.thisRepN'
p1161
I9
sg20
S'Y'
sg31
g32
sS'.thisTrialN'
p1162
I5
sS'.thisN'
p1163
I140
sS'.thisIndex'
p1164
I12
sg15
(lp1165
S'd'
asg30
VF
sg17
S'Y'
sg14
I3
sg19
Nsg94
I12
sa(dp1166
g16
(lp1167
S'd'
asg18
S'Y'
sS'.thisRepN'
p1168
I9
sg20
S'Y'
sg31
g32
sS'.thisTrialN'
p1169
I6
sS'.thisN'
p1170
I141
sS'.thisIndex'
p1171
I1
sg15
(lp1172
S'd'
asg30
VF
sg17
S'Y'
sg14
I3
sg19
(lp1173
S'space'
p1174
asg94
I1
sa(dp1175
g16
(lp1176
S'k'
asg18
S'N'
sS'.thisRepN'
p1177
I9
sg20
S'Y'
sg31
g32
sS'.thisTrialN'
p1178
I7
sS'.thisN'
p1179
I142
sS'.thisIndex'
p1180
I8
sg15
(lp1181
S'k'
asg30
VF
sg17
S'Y'
sg14
I3
sg19
Nsg94
I8
sa(dp1182
g16
(lp1183
S'k'
asg18
S'N'
sS'.thisRepN'
p1184
I9
sg20
S'Y'
sg31
g32
sS'.thisTrialN'
p1185
I8
sS'.thisN'
p1186
I143
sS'.thisIndex'
p1187
I12
sg15
(lp1188
S'k'
asg30
VF
sg17
S'Y'
sg14
I3
sg19
Nsg94
I12
sa(dp1189
g16
(lp1190
S'd'
asg18
S'Y'
sS'.thisRepN'
p1191
I9
sg20
S'Y'
sg31
g32
sS'.thisTrialN'
p1192
I9
sS'.thisN'
p1193
I144
sS'.thisIndex'
p1194
I13
sg15
(lp1195
S'd'
asg30
VF
sg17
S'Y'
sg14
I3
sg19
(lp1196
S'space'
p1197
asg94
I13
sa(dp1198
g16
(lp1199
S'k'
asg18
S'Y'
sS'.thisRepN'
p1200
I9
sg20
S'Y'
sg31
g32
sS'.thisTrialN'
p1201
I10
sS'.thisN'
p1202
I145
sS'.thisIndex'
p1203
I1
sg15
(lp1204
S'k'
asg30
VF
sg17
S'Y'
sg14
I3
sg19
(lp1205
S'space'
p1206
asg94
I1
sa(dp1207
g16
(lp1208
S'k'
asg18
S'N'
sS'.thisRepN'
p1209
I9
sg20
S'N'
sg31
g32
sS'.thisTrialN'
p1210
I11
sS'.thisN'
p1211
I146
sS'.thisIndex'
p1212
I12
sg15
(lp1213
S'k'
asg30
VF
sg17
S'Y'
sg14
I3
sg19
(lp1214
S'space'
p1215
asg94
I12
sa(dp1216
g16
(lp1217
S'd'
asg18
S'Y'
sS'.thisRepN'
p1218
I9
sg20
S'Y'
sg31
g32
sS'.thisTrialN'
p1219
I12
sS'.thisN'
p1220
I147
sS'.thisIndex'
p1221
I13
sg15
(lp1222
S'd'
asg30
VF
sg17
S'Y'
sg14
I3
sg19
(lp1223
S'space'
p1224
asg94
I13
sa(dp1225
g16
(lp1226
S'k'
asg18
S'Y'
sS'.thisRepN'
p1227
I9
sg20
S'Y'
sg31
g32
sS'.thisTrialN'
p1228
I13
sS'.thisN'
p1229
I148
sS'.thisIndex'
p1230
I12
sg15
(lp1231
S'k'
asg30
VF
sg17
S'Y'
sg14
I3
sg19
(lp1232
S'space'
p1233
asg94
I12
sa(dp1234
g16
(lp1235
S'd'
asg18
S'Y'
sg22
I40
sS'.thisN'
p1236
I149
sg20
S'Y'
sg31
g32
sS'.thisTrialN'
p1237
I14
sS'.thisRepN'
p1238
I9
sg21
I43
sS'.thisIndex'
p1239
I4
sg23
I22
sg15
(lp1240
S'd'
asg30
VF
sg17
S'Y'
sg14
I3
sg19
(lp1241
S'space'
p1242
asg94
I4
sa(dp1243
g16
(lp1244
S'd'
asg94
I0
sS'.thisRepN'
p1245
I10
sg30
VF
sg31
g32
sS'.thisTrialN'
p1246
I0
sS'.thisN'
p1247
I150
sS'.thisIndex'
p1248
I0
sg15
(lp1249
S'd'
asg17
S'Y'
sg14
I4
sa(dp1250
g16
(lp1251
S'k'
asg94
I10
sS'.thisRepN'
p1252
I10
sg30
VF
sg31
g32
sS'.thisTrialN'
p1253
I1
sS'.thisN'
p1254
I151
sS'.thisIndex'
p1255
I10
sg15
(lp1256
S'k'
asg17
S'Y'
sg14
I4
sa(dp1257
g16
(lp1258
S'k'
asg18
S'Y'
sS'.thisRepN'
p1259
I10
sg20
S'Y'
sg31
g32
sS'.thisTrialN'
p1260
I2
sS'.thisN'
p1261
I152
sS'.thisIndex'
p1262
I12
sg15
(lp1263
S'k'
asg30
VF
sg17
S'Y'
sg14
I4
sg19
(lp1264
S'space'
p1265
asg94
I12
sa(dp1266
g16
(lp1267
S'k'
asg18
S'Y'
sS'.thisRepN'
p1268
I10
sg20
S'Y'
sg31
g32
sS'.thisTrialN'
p1269
I3
sS'.thisN'
p1270
I153
sS'.thisIndex'
p1271
I11
sg15
(lp1272
S'k'
asg30
VF
sg17
S'Y'
sg14
I4
sg19
(lp1273
S'space'
p1274
asg94
I11
sa(dp1275
g16
(lp1276
S'd'
asg18
S'Y'
sS'.thisRepN'
p1277
I10
sg20
S'Y'
sg31
g32
sS'.thisTrialN'
p1278
I4
sS'.thisN'
p1279
I154
sS'.thisIndex'
p1280
I7
sg15
(lp1281
S'd'
asg30
VF
sg17
S'Y'
sg14
I4
sg19
(lp1282
S'space'
p1283
asg94
I7
sa(dp1284
g16
(lp1285
S'k'
asg18
S'N'
sS'.thisRepN'
p1286
I10
sg20
S'Y'
sg31
g32
sS'.thisTrialN'
p1287
I5
sS'.thisN'
p1288
I155
sS'.thisIndex'
p1289
I3
sg15
(lp1290
S'd'
asg30
VF
sg17
S'N'
sg14
I4
sg19
Nsg94
I3
sa(dp1291
g16
(lp1292
S'd'
asg18
S'Y'
sS'.thisRepN'
p1293
I10
sg20
S'Y'
sg31
g32
sS'.thisTrialN'
p1294
I6
sS'.thisN'
p1295
I156
sS'.thisIndex'
p1296
I7
sg15
(lp1297
S'd'
asg30
VF
sg17
S'Y'
sg14
I4
sg19
(lp1298
S'space'
p1299
asg94
I7
sa(dp1300
g16
(lp1301
S'k'
asg18
S'N'
sS'.thisRepN'
p1302
I10
sg20
S'Y'
sg31
g32
sS'.thisTrialN'
p1303
I7
sS'.thisN'
p1304
I157
sS'.thisIndex'
p1305
I0
sg15
(lp1306
S'k'
asg30
VF
sg17
S'Y'
sg14
I4
sg19
Nsg94
I0
sa(dp1307
g16
(lp1308
S'd'
asg18
S'N'
sS'.thisRepN'
p1309
I10
sg20
S'Y'
sg31
g32
sS'.thisTrialN'
p1310
I8
sS'.thisN'
p1311
I158
sS'.thisIndex'
p1312
I11
sg15
(lp1313
S'k'
asg30
VF
sg17
S'N'
sg14
I4
sg19
Nsg94
I11
sa(dp1314
g16
(lp1315
S'k'
asg18
S'Y'
sS'.thisRepN'
p1316
I10
sg20
S'N'
sg31
g32
sS'.thisTrialN'
p1317
I9
sS'.thisN'
p1318
I159
sS'.thisIndex'
p1319
I0
sg15
(lp1320
S'k'
asg30
VF
sg17
S'Y'
sg14
I4
sg19
Nsg94
I0
sa(dp1321
g16
(lp1322
S'k'
asg18
S'Y'
sS'.thisRepN'
p1323
I10
sg20
S'Y'
sg31
g32
sS'.thisTrialN'
p1324
I10
sS'.thisN'
p1325
I160
sS'.thisIndex'
p1326
I14
sg15
(lp1327
S'k'
asg30
VF
sg17
S'Y'
sg14
I4
sg19
(lp1328
S'space'
p1329
asg94
I14
sa(dp1330
g16
(lp1331
S'd'
asg18
S'N'
sS'.thisRepN'
p1332
I10
sg20
S'Y'
sg31
g32
sS'.thisTrialN'
p1333
I11
sS'.thisN'
p1334
I161
sS'.thisIndex'
p1335
I14
sg15
(lp1336
S'd'
asg30
VF
sg17
S'Y'
sg14
I4
sg19
Nsg94
I14
sa(dp1337
g16
(lp1338
S'd'
asg18
S'Y'
sS'.thisRepN'
p1339
I10
sg20
S'N'
sg31
g32
sS'.thisTrialN'
p1340
I12
sS'.thisN'
p1341
I162
sS'.thisIndex'
p1342
I1
sg15
(lp1343
S'd'
asg30
VF
sg17
S'Y'
sg14
I4
sg19
Nsg94
I1
sa(dp1344
g16
(lp1345
S'k'
asg18
S'Y'
sS'.thisRepN'
p1346
I10
sg20
S'Y'
sg31
g32
sS'.thisTrialN'
p1347
I13
sS'.thisN'
p1348
I163
sS'.thisIndex'
p1349
I0
sg15
(lp1350
S'k'
asg30
VF
sg17
S'Y'
sg14
I4
sg19
(lp1351
S'space'
p1352
asg94
I0
sa(dp1353
g16
(lp1354
S'k'
asg18
S'Y'
sS'.thisRepN'
p1355
I10
sg20
S'Y'
sg31
g32
sS'.thisTrialN'
p1356
I14
sS'.thisN'
p1357
I164
sS'.thisIndex'
p1358
I5
sg15
(lp1359
S'k'
asg30
VF
sg17
S'Y'
sg14
I4
sg19
(lp1360
S'space'
p1361
asg94
I5
sa(dp1362
g16
(lp1363
S'd'
asg18
S'Y'
sS'.thisRepN'
p1364
I11
sg20
S'Y'
sg31
g32
sS'.thisTrialN'
p1365
I0
sS'.thisN'
p1366
I165
sS'.thisIndex'
p1367
I14
sg15
(lp1368
S'd'
asg30
VF
sg17
S'Y'
sg14
I4
sg19
(lp1369
S'space'
p1370
asg94
I14
sa(dp1371
g16
(lp1372
S'd'
asg18
S'N'
sS'.thisRepN'
p1373
I11
sg20
S'Y'
sg31
g32
sS'.thisTrialN'
p1374
I1
sS'.thisN'
p1375
I166
sS'.thisIndex'
p1376
I1
sg15
(lp1377
S'd'
asg30
VF
sg17
S'Y'
sg14
I4
sg19
Nsg94
I1
sa(dp1378
g16
(lp1379
S'd'
asg18
S'Y'
sS'.thisRepN'
p1380
I11
sg20
S'Y'
sg31
g32
sS'.thisTrialN'
p1381
I2
sS'.thisN'
p1382
I167
sS'.thisIndex'
p1383
I12
sg15
(lp1384
S'd'
asg30
VF
sg17
S'Y'
sg14
I4
sg19
(lp1385
S'space'
p1386
asg94
I12
sa(dp1387
g16
(lp1388
S'k'
asg18
S'N'
sS'.thisRepN'
p1389
I11
sg20
S'Y'
sg31
g32
sS'.thisTrialN'
p1390
I3
sS'.thisN'
p1391
I168
sS'.thisIndex'
p1392
I9
sg15
(lp1393
S'k'
asg30
VF
sg17
S'Y'
sg14
I4
sg19
Nsg94
I9
sa(dp1394
g16
(lp1395
S'd'
asg18
S'Y'
sS'.thisRepN'
p1396
I11
sg20
S'Y'
sg31
g32
sS'.thisTrialN'
p1397
I4
sS'.thisN'
p1398
I169
sS'.thisIndex'
p1399
I8
sg15
(lp1400
S'd'
asg30
VF
sg17
S'Y'
sg14
I4
sg19
(lp1401
S'space'
p1402
asg94
I8
sa(dp1403
g16
(lp1404
S'k'
asg18
S'N'
sS'.thisRepN'
p1405
I11
sg20
S'Y'
sg31
g32
sS'.thisTrialN'
p1406
I5
sS'.thisN'
p1407
I170
sS'.thisIndex'
p1408
I9
sg15
(lp1409
S'k'
asg30
VF
sg17
S'Y'
sg14
I4
sg19
Nsg94
I9
sa(dp1410
g16
(lp1411
S'd'
asg18
S'Y'
sS'.thisRepN'
p1412
I11
sg20
S'Y'
sg31
g32
sS'.thisTrialN'
p1413
I6
sS'.thisN'
p1414
I171
sS'.thisIndex'
p1415
I13
sg15
(lp1416
S'd'
asg30
VF
sg17
S'Y'
sg14
I4
sg19
(lp1417
S'space'
p1418
asg94
I13
sa(dp1419
g16
(lp1420
S'k'
asg18
S'Y'
sS'.thisRepN'
p1421
I11
sg20
S'Y'
sg31
g32
sS'.thisTrialN'
p1422
I7
sS'.thisN'
p1423
I172
sS'.thisIndex'
p1424
I6
sg15
(lp1425
S'k'
asg30
VF
sg17
S'Y'
sg14
I4
sg19
(lp1426
S'space'
p1427
asg94
I6
sa(dp1428
g16
(lp1429
S'd'
asg18
S'Y'
sS'.thisRepN'
p1430
I11
sg20
S'Y'
sg31
g32
sS'.thisTrialN'
p1431
I8
sS'.thisN'
p1432
I173
sS'.thisIndex'
p1433
I11
sg15
(lp1434
S'd'
asg30
VF
sg17
S'Y'
sg14
I4
sg19
(lp1435
S'space'
p1436
asg94
I11
sa(dp1437
g16
(lp1438
S'k'
asg18
S'N'
sS'.thisRepN'
p1439
I11
sg20
S'Y'
sg31
g32
sS'.thisTrialN'
p1440
I9
sS'.thisN'
p1441
I174
sS'.thisIndex'
p1442
I14
sg15
(lp1443
S'd'
asg30
VF
sg17
S'N'
sg14
I4
sg19
Nsg94
I14
sa(dp1444
g16
(lp1445
S'k'
asg18
S'Y'
sS'.thisRepN'
p1446
I11
sg20
S'Y'
sg31
g32
sS'.thisTrialN'
p1447
I10
sS'.thisN'
p1448
I175
sS'.thisIndex'
p1449
I9
sg15
(lp1450
S'k'
asg30
VF
sg17
S'Y'
sg14
I4
sg19
(lp1451
S'space'
p1452
asg94
I9
sa(dp1453
g16
(lp1454
S'd'
asg18
S'N'
sS'.thisRepN'
p1455
I11
sg20
S'Y'
sg31
g32
sS'.thisTrialN'
p1456
I11
sS'.thisN'
p1457
I176
sS'.thisIndex'
p1458
I14
sg15
(lp1459
S'd'
asg30
VF
sg17
S'Y'
sg14
I4
sg19
Nsg94
I14
sa(dp1460
g16
(lp1461
S'k'
asg18
S'Y'
sS'.thisRepN'
p1462
I11
sg20
S'Y'
sg31
g32
sS'.thisTrialN'
p1463
I12
sS'.thisN'
p1464
I177
sS'.thisIndex'
p1465
I0
sg15
(lp1466
S'd'
asg30
VF
sg17
S'N'
sg14
I4
sg19
(lp1467
S'space'
p1468
asg94
I0
sa(dp1469
g16
(lp1470
S'd'
asg18
S'Y'
sS'.thisRepN'
p1471
I11
sg20
S'Y'
sg31
g32
sS'.thisTrialN'
p1472
I13
sS'.thisN'
p1473
I178
sS'.thisIndex'
p1474
I12
sg15
(lp1475
S'd'
asg30
VF
sg17
S'Y'
sg14
I4
sg19
(lp1476
S'space'
p1477
asg94
I12
sa(dp1478
g16
(lp1479
S'd'
asg18
S'Y'
sS'.thisRepN'
p1480
I11
sg20
S'Y'
sg31
g32
sS'.thisTrialN'
p1481
I14
sS'.thisN'
p1482
I179
sS'.thisIndex'
p1483
I12
sg15
(lp1484
S'd'
asg30
VF
sg17
S'Y'
sg14
I4
sg19
(lp1485
S'space'
p1486
asg94
I12
sa(dp1487
g16
(lp1488
S'k'
asg18
S'N'
sS'.thisRepN'
p1489
I12
sg20
S'Y'
sg31
g32
sS'.thisTrialN'
p1490
I0
sS'.thisN'
p1491
I180
sS'.thisIndex'
p1492
I8
sg15
(lp1493
S'k'
asg30
VF
sg17
S'Y'
sg14
I4
sg19
Nsg94
I8
sa(dp1494
g16
(lp1495
S'k'
asg18
S'Y'
sS'.thisRepN'
p1496
I12
sg20
S'N'
sg31
g32
sS'.thisTrialN'
p1497
I1
sS'.thisN'
p1498
I181
sS'.thisIndex'
p1499
I1
sg15
(lp1500
S'k'
asg30
VF
sg17
S'Y'
sg14
I4
sg19
Nsg94
I1
sa(dp1501
g16
(lp1502
S'd'
asg18
S'N'
sS'.thisRepN'
p1503
I12
sg20
S'Y'
sg31
g32
sS'.thisTrialN'
p1504
I2
sS'.thisN'
p1505
I182
sS'.thisIndex'
p1506
I7
sg15
(lp1507
S'd'
asg30
VF
sg17
S'Y'
sg14
I4
sg19
Nsg94
I7
sa(dp1508
g16
(lp1509
S'd'
asg18
S'Y'
sS'.thisRepN'
p1510
I12
sg20
S'N'
sg31
g32
sS'.thisTrialN'
p1511
I3
sS'.thisN'
p1512
I183
sS'.thisIndex'
p1513
I10
sg15
(lp1514
S'd'
asg30
VF
sg17
S'Y'
sg14
I4
sg19
Nsg94
I10
sa(dp1515
g16
(lp1516
S'd'
asg18
S'N'
sS'.thisRepN'
p1517
I12
sg20
S'Y'
sg31
g32
sS'.thisTrialN'
p1518
I4
sS'.thisN'
p1519
I184
sS'.thisIndex'
p1520
I7
sg15
(lp1521
S'd'
asg30
VF
sg17
S'Y'
sg14
I4
sg19
Nsg94
I7
sa(dp1522
g16
(lp1523
S'k'
asg18
S'Y'
sS'.thisRepN'
p1524
I12
sg20
S'Y'
sg31
g32
sS'.thisTrialN'
p1525
I5
sS'.thisN'
p1526
I185
sS'.thisIndex'
p1527
I1
sg15
(lp1528
S'k'
asg30
VF
sg17
S'Y'
sg14
I4
sg19
(lp1529
S'space'
p1530
asg94
I1
sa(dp1531
g16
(lp1532
S'k'
asg18
S'Y'
sS'.thisRepN'
p1533
I12
sg20
S'N'
sg31
g32
sS'.thisTrialN'
p1534
I6
sS'.thisN'
p1535
I186
sS'.thisIndex'
p1536
I6
sg15
(lp1537
S'k'
asg30
VF
sg17
S'Y'
sg14
I4
sg19
(lp1538
S'k'
asg94
I6
sa(dp1539
g16
(lp1540
S'd'
asg18
S'N'
sS'.thisRepN'
p1541
I12
sg20
S'Y'
sg31
g32
sS'.thisTrialN'
p1542
I7
sS'.thisN'
p1543
I187
sS'.thisIndex'
p1544
I11
sg15
(lp1545
S'd'
asg30
VF
sg17
S'Y'
sg14
I4
sg19
Nsg94
I11
sa(dp1546
g16
(lp1547
S'd'
asg18
S'Y'
sS'.thisRepN'
p1548
I12
sg20
S'N'
sg31
g32
sS'.thisTrialN'
p1549
I8
sS'.thisN'
p1550
I188
sS'.thisIndex'
p1551
I6
sg15
(lp1552
S'k'
asg30
VF
sg17
S'N'
sg14
I4
sg19
Nsg94
I6
sa(dp1553
g16
(lp1554
S'd'
asg18
S'N'
sS'.thisRepN'
p1555
I12
sg20
S'Y'
sg31
g32
sS'.thisTrialN'
p1556
I9
sS'.thisN'
p1557
I189
sS'.thisIndex'
p1558
I3
sg15
(lp1559
S'd'
asg30
VF
sg17
S'Y'
sg14
I4
sg19
Nsg94
I3
sa(dp1560
g16
(lp1561
S'd'
asg18
S'N'
sS'.thisRepN'
p1562
I12
sg20
S'Y'
sg31
g32
sS'.thisTrialN'
p1563
I10
sS'.thisN'
p1564
I190
sS'.thisIndex'
p1565
I2
sg15
(lp1566
S'd'
asg30
VF
sg17
S'Y'
sg14
I4
sg19
Nsg94
I2
sa(dp1567
g16
(lp1568
S'd'
asg18
S'Y'
sS'.thisRepN'
p1569
I12
sg20
S'Y'
sg31
g32
sS'.thisTrialN'
p1570
I11
sS'.thisN'
p1571
I191
sS'.thisIndex'
p1572
I8
sg15
(lp1573
S'k'
asg30
VF
sg17
S'N'
sg14
I4
sg19
(lp1574
S'space'
p1575
asg94
I8
sa(dp1576
g16
(lp1577
S'd'
asg18
S'N'
sS'.thisRepN'
p1578
I12
sg20
S'Y'
sg31
g32
sS'.thisTrialN'
p1579
I12
sS'.thisN'
p1580
I192
sS'.thisIndex'
p1581
I6
sg15
(lp1582
S'd'
asg30
VF
sg17
S'Y'
sg14
I4
sg19
Nsg94
I6
sa(dp1583
g16
(lp1584
S'k'
asg18
S'N'
sS'.thisRepN'
p1585
I12
sg20
S'Y'
sg31
g32
sS'.thisTrialN'
p1586
I13
sS'.thisN'
p1587
I193
sS'.thisIndex'
p1588
I9
sg15
(lp1589
S'k'
asg30
VF
sg17
S'Y'
sg14
I4
sg19
Nsg94
I9
sa(dp1590
g16
(lp1591
S'd'
asg18
S'N'
sS'.thisRepN'
p1592
I12
sg20
S'Y'
sg31
g32
sS'.thisTrialN'
p1593
I14
sS'.thisN'
p1594
I194
sS'.thisIndex'
p1595
I4
sg15
(lp1596
S'd'
asg30
VF
sg17
S'Y'
sg14
I4
sg19
Nsg94
I4
sa(dp1597
g16
(lp1598
S'd'
asg18
S'N'
sS'.thisRepN'
p1599
I13
sg20
S'Y'
sg31
g32
sS'.thisTrialN'
p1600
I0
sS'.thisN'
p1601
I195
sS'.thisIndex'
p1602
I4
sg15
(lp1603
S'd'
asg30
VF
sg17
S'Y'
sg14
I4
sg19
Nsg94
I4
sa(dp1604
g16
(lp1605
S'k'
asg18
S'N'
sS'.thisRepN'
p1606
I13
sg20
S'N'
sg31
g32
sS'.thisTrialN'
p1607
I1
sS'.thisN'
p1608
I196
sS'.thisIndex'
p1609
I7
sg15
(lp1610
S'k'
asg30
VF
sg17
S'Y'
sg14
I4
sg19
(lp1611
S'space'
p1612
asg94
I7
sa(dp1613
g16
(lp1614
S'd'
asg18
S'N'
sS'.thisRepN'
p1615
I13
sg20
S'Y'
sg31
g32
sS'.thisTrialN'
p1616
I2
sS'.thisN'
p1617
I197
sS'.thisIndex'
p1618
I8
sg15
(lp1619
S'k'
asg30
VF
sg17
S'N'
sg14
I4
sg19
Nsg94
I8
sa(dp1620
g16
(lp1621
S'k'
asg18
S'N'
sS'.thisRepN'
p1622
I13
sg20
S'Y'
sg31
g32
sS'.thisTrialN'
p1623
I3
sS'.thisN'
p1624
I198
sS'.thisIndex'
p1625
I6
sg15
(lp1626
S'k'
asg30
VF
sg17
S'Y'
sg14
I4
sg19
Nsg94
I6
sa(dp1627
g16
(lp1628
S'd'
asg18
S'N'
sg22
I41
sS'.thisN'
p1629
I199
sg20
S'Y'
sg31
g32
sS'.thisTrialN'
p1630
I4
sS'.thisRepN'
p1631
I13
sg21
I42
sS'.thisIndex'
p1632
I1
sg23
I25
sg15
(lp1633
S'k'
asg30
VF
sg17
S'N'
sg14
I4
sg19
Nsg94
I1
sa(dp1634
g16
(lp1635
S'd'
asg94
I0
sS'.thisRepN'
p1636
I13
sg30
VF
sg31
g32
sS'.thisTrialN'
p1637
I5
sS'.thisN'
p1638
I200
sS'.thisIndex'
p1639
I0
sg15
(lp1640
S'd'
asg17
S'Y'
sg14
I5
sa(dp1641
g16
(lp1642
S'k'
asg94
I4
sS'.thisRepN'
p1643
I13
sg30
VF
sg31
g32
sS'.thisTrialN'
p1644
I6
sS'.thisN'
p1645
I201
sS'.thisIndex'
p1646
I4
sg15
(lp1647
S'd'
asg17
S'N'
sg14
I5
sa(dp1648
g16
(lp1649
S'd'
asg18
S'Y'
sS'.thisRepN'
p1650
I13
sg20
S'Y'
sg31
g32
sS'.thisTrialN'
p1651
I7
sS'.thisN'
p1652
I202
sS'.thisIndex'
p1653
I1
sg15
(lp1654
S'd'
asg30
VF
sg17
S'Y'
sg14
I5
sg19
(lp1655
S'space'
p1656
asg94
I1
sa(dp1657
g16
(lp1658
S'k'
asg18
S'N'
sS'.thisRepN'
p1659
I13
sg20
S'Y'
sg31
g32
sS'.thisTrialN'
p1660
I8
sS'.thisN'
p1661
I203
sS'.thisIndex'
p1662
I5
sg15
(lp1663
S'k'
asg30
VF
sg17
S'Y'
sg14
I5
sg19
Nsg94
I5
sa(dp1664
g16
(lp1665
S'd'
asg18
S'N'
sS'.thisRepN'
p1666
I13
sg20
S'Y'
sg31
g32
sS'.thisTrialN'
p1667
I9
sS'.thisN'
p1668
I204
sS'.thisIndex'
p1669
I0
sg15
(lp1670
S'd'
asg30
VF
sg17
S'Y'
sg14
I5
sg19
Nsg94
I0
sa(dp1671
g16
(lp1672
S'k'
asg18
S'Y'
sS'.thisRepN'
p1673
I13
sg20
S'Y'
sg31
g32
sS'.thisTrialN'
p1674
I10
sS'.thisN'
p1675
I205
sS'.thisIndex'
p1676
I14
sg15
(lp1677
S'k'
asg30
VF
sg17
S'Y'
sg14
I5
sg19
(lp1678
S'space'
p1679
asg94
I14
sa(dp1680
g16
(lp1681
S'k'
asg18
S'N'
sS'.thisRepN'
p1682
I13
sg20
S'Y'
sg31
g32
sS'.thisTrialN'
p1683
I11
sS'.thisN'
p1684
I206
sS'.thisIndex'
p1685
I8
sg15
(lp1686
S'k'
asg30
VF
sg17
S'Y'
sg14
I5
sg19
Nsg94
I8
sa(dp1687
g16
(lp1688
S'k'
asg18
S'N'
sS'.thisRepN'
p1689
I13
sg20
S'Y'
sg31
g32
sS'.thisTrialN'
p1690
I12
sS'.thisN'
p1691
I207
sS'.thisIndex'
p1692
I1
sg15
(lp1693
S'k'
asg30
VF
sg17
S'Y'
sg14
I5
sg19
Nsg94
I1
sa(dp1694
g16
(lp1695
S'd'
asg18
S'Y'
sS'.thisRepN'
p1696
I13
sg20
S'Y'
sg31
g32
sS'.thisTrialN'
p1697
I13
sS'.thisN'
p1698
I208
sS'.thisIndex'
p1699
I1
sg15
(lp1700
S'd'
asg30
VF
sg17
S'Y'
sg14
I5
sg19
(lp1701
S'space'
p1702
asg94
I1
sa(dp1703
g16
(lp1704
S'k'
asg18
S'N'
sS'.thisRepN'
p1705
I13
sg20
S'N'
sg31
g32
sS'.thisTrialN'
p1706
I14
sS'.thisN'
p1707
I209
sS'.thisIndex'
p1708
I1
sg15
(lp1709
S'k'
asg30
VF
sg17
S'Y'
sg14
I5
sg19
(lp1710
S'space'
p1711
asg94
I1
sa(dp1712
g16
(lp1713
S'k'
asg18
S'Y'
sS'.thisRepN'
p1714
I14
sg20
S'Y'
sg31
g32
sS'.thisTrialN'
p1715
I0
sS'.thisN'
p1716
I210
sS'.thisIndex'
p1717
I12
sg15
(lp1718
S'k'
asg30
VF
sg17
S'Y'
sg14
I5
sg19
(lp1719
S'space'
p1720
asg94
I12
sa(dp1721
g16
(lp1722
S'd'
asg18
S'N'
sS'.thisRepN'
p1723
I14
sg20
S'Y'
sg31
g32
sS'.thisTrialN'
p1724
I1
sS'.thisN'
p1725
I211
sS'.thisIndex'
p1726
I13
sg15
(lp1727
S'k'
asg30
VF
sg17
S'N'
sg14
I5
sg19
Nsg94
I13
sa(dp1728
g16
(lp1729
S'd'
asg18
S'Y'
sS'.thisRepN'
p1730
I14
sg20
S'N'
sg31
g32
sS'.thisTrialN'
p1731
I2
sS'.thisN'
p1732
I212
sS'.thisIndex'
p1733
I10
sg15
(lp1734
S'd'
asg30
VF
sg17
S'Y'
sg14
I5
sg19
Nsg94
I10
sa(dp1735
g16
(lp1736
S'k'
asg18
S'N'
sS'.thisRepN'
p1737
I14
sg20
S'Y'
sg31
g32
sS'.thisTrialN'
p1738
I3
sS'.thisN'
p1739
I213
sS'.thisIndex'
p1740
I2
sg15
(lp1741
S'k'
asg30
VF
sg17
S'Y'
sg14
I5
sg19
Nsg94
I2
sa(dp1742
g16
(lp1743
S'd'
asg18
S'N'
sS'.thisRepN'
p1744
I14
sg20
S'Y'
sg31
g32
sS'.thisTrialN'
p1745
I4
sS'.thisN'
p1746
I214
sS'.thisIndex'
p1747
I0
sg15
(lp1748
S'd'
asg30
VF
sg17
S'Y'
sg14
I5
sg19
Nsg94
I0
sa(dp1749
g16
(lp1750
S'k'
asg18
S'Y'
sS'.thisRepN'
p1751
I14
sg20
S'Y'
sg31
g32
sS'.thisTrialN'
p1752
I5
sS'.thisN'
p1753
I215
sS'.thisIndex'
p1754
I4
sg15
(lp1755
S'k'
asg30
VF
sg17
S'Y'
sg14
I5
sg19
(lp1756
S'space'
p1757
asg94
I4
sa(dp1758
g16
(lp1759
S'k'
asg18
S'Y'
sS'.thisRepN'
p1760
I14
sg20
S'Y'
sg31
g32
sS'.thisTrialN'
p1761
I6
sS'.thisN'
p1762
I216
sS'.thisIndex'
p1763
I13
sg15
(lp1764
S'k'
asg30
VF
sg17
S'Y'
sg14
I5
sg19
(lp1765
S'space'
p1766
asg94
I13
sa(dp1767
g16
(lp1768
S'd'
asg18
S'Y'
sS'.thisRepN'
p1769
I14
sg20
S'Y'
sg31
g32
sS'.thisTrialN'
p1770
I7
sS'.thisN'
p1771
I217
sS'.thisIndex'
p1772
I9
sg15
(lp1773
S'd'
asg30
VF
sg17
S'Y'
sg14
I5
sg19
(lp1774
S'space'
p1775
asg94
I9
sa(dp1776
g16
(lp1777
S'd'
asg18
S'Y'
sS'.thisRepN'
p1778
I14
sg20
S'Y'
sg31
g32
sS'.thisTrialN'
p1779
I8
sS'.thisN'
p1780
I218
sS'.thisIndex'
p1781
I2
sg15
(lp1782
S'd'
asg30
VF
sg17
S'Y'
sg14
I5
sg19
(lp1783
S'space'
p1784
asg94
I2
sa(dp1785
g16
(lp1786
S'd'
asg18
S'N'
sS'.thisRepN'
p1787
I14
sg20
S'Y'
sg31
g32
sS'.thisTrialN'
p1788
I9
sS'.thisN'
p1789
I219
sS'.thisIndex'
p1790
I10
sg15
(lp1791
S'd'
asg30
VF
sg17
S'Y'
sg14
I5
sg19
Nsg94
I10
sa(dp1792
g16
(lp1793
S'd'
asg18
S'N'
sS'.thisRepN'
p1794
I14
sg20
S'Y'
sg31
g32
sS'.thisTrialN'
p1795
I10
sS'.thisN'
p1796
I220
sS'.thisIndex'
p1797
I12
sg15
(lp1798
S'd'
asg30
VF
sg17
S'Y'
sg14
I5
sg19
Nsg94
I12
sa(dp1799
g16
(lp1800
S'k'
asg18
S'N'
sS'.thisRepN'
p1801
I14
sg20
S'Y'
sg31
g32
sS'.thisTrialN'
p1802
I11
sS'.thisN'
p1803
I221
sS'.thisIndex'
p1804
I5
sg15
(lp1805
S'k'
asg30
VF
sg17
S'Y'
sg14
I5
sg19
Nsg94
I5
sa(dp1806
g16
(lp1807
S'd'
asg18
S'N'
sS'.thisRepN'
p1808
I14
sg20
S'Y'
sg31
g32
sS'.thisTrialN'
p1809
I12
sS'.thisN'
p1810
I222
sS'.thisIndex'
p1811
I2
sg15
(lp1812
S'd'
asg30
VF
sg17
S'Y'
sg14
I5
sg19
Nsg94
I2
sa(dp1813
g16
(lp1814
S'k'
asg18
S'Y'
sS'.thisRepN'
p1815
I14
sg20
S'Y'
sg31
g32
sS'.thisTrialN'
p1816
I13
sS'.thisN'
p1817
I223
sS'.thisIndex'
p1818
I8
sg15
(lp1819
S'k'
asg30
VF
sg17
S'Y'
sg14
I5
sg19
(lp1820
S'space'
p1821
asg94
I8
sa(dp1822
g16
(lp1823
S'd'
asg18
S'Y'
sS'.thisRepN'
p1824
I14
sg20
S'Y'
sg31
g32
sS'.thisTrialN'
p1825
I14
sS'.thisN'
p1826
I224
sS'.thisIndex'
p1827
I10
sg15
(lp1828
S'd'
asg30
VF
sg17
S'Y'
sg14
I5
sg19
(lp1829
S'space'
p1830
asg94
I10
sa(dp1831
g16
(lp1832
S'd'
asg18
S'Y'
sS'.thisRepN'
p1833
I15
sg20
S'Y'
sg31
g32
sS'.thisTrialN'
p1834
I0
sS'.thisN'
p1835
I225
sS'.thisIndex'
p1836
I4
sg15
(lp1837
S'd'
asg30
VF
sg17
S'Y'
sg14
I5
sg19
(lp1838
S'space'
p1839
asg94
I4
sa(dp1840
g16
(lp1841
S'd'
asg18
S'N'
sS'.thisRepN'
p1842
I15
sg20
S'Y'
sg31
g32
sS'.thisTrialN'
p1843
I1
sS'.thisN'
p1844
I226
sS'.thisIndex'
p1845
I1
sg15
(lp1846
S'd'
asg30
VF
sg17
S'Y'
sg14
I5
sg19
Nsg94
I1
sa(dp1847
g16
(lp1848
S'd'
asg18
S'Y'
sS'.thisRepN'
p1849
I15
sg20
S'N'
sg31
g32
sS'.thisTrialN'
p1850
I2
sS'.thisN'
p1851
I227
sS'.thisIndex'
p1852
I10
sg15
(lp1853
S'k'
asg30
VF
sg17
S'N'
sg14
I5
sg19
Nsg94
I10
sa(dp1854
g16
(lp1855
S'd'
asg18
S'Y'
sS'.thisRepN'
p1856
I15
sg20
S'Y'
sg31
g32
sS'.thisTrialN'
p1857
I3
sS'.thisN'
p1858
I228
sS'.thisIndex'
p1859
I11
sg15
(lp1860
S'd'
asg30
VF
sg17
S'Y'
sg14
I5
sg19
(lp1861
S'space'
p1862
asg94
I11
sa(dp1863
g16
(lp1864
S'k'
asg18
S'N'
sS'.thisRepN'
p1865
I15
sg20
S'Y'
sg31
g32
sS'.thisTrialN'
p1866
I4
sS'.thisN'
p1867
I229
sS'.thisIndex'
p1868
I0
sg15
(lp1869
S'k'
asg30
VF
sg17
S'Y'
sg14
I5
sg19
Nsg94
I0
sa(dp1870
g16
(lp1871
S'k'
asg18
S'Y'
sS'.thisRepN'
p1872
I15
sg20
S'Y'
sg31
g32
sS'.thisTrialN'
p1873
I5
sS'.thisN'
p1874
I230
sS'.thisIndex'
p1875
I5
sg15
(lp1876
S'k'
asg30
VF
sg17
S'Y'
sg14
I5
sg19
(lp1877
S'space'
p1878
asg94
I5
sa(dp1879
g16
(lp1880
S'd'
asg18
S'Y'
sS'.thisRepN'
p1881
I15
sg20
S'Y'
sg31
g32
sS'.thisTrialN'
p1882
I6
sS'.thisN'
p1883
I231
sS'.thisIndex'
p1884
I2
sg15
(lp1885
S'd'
asg30
VF
sg17
S'Y'
sg14
I5
sg19
(lp1886
S'space'
p1887
asg94
I2
sa(dp1888
g16
(lp1889
S'd'
asg18
S'Y'
sS'.thisRepN'
p1890
I15
sg20
S'Y'
sg31
g32
sS'.thisTrialN'
p1891
I7
sS'.thisN'
p1892
I232
sS'.thisIndex'
p1893
I0
sg15
(lp1894
S'd'
asg30
VF
sg17
S'Y'
sg14
I5
sg19
(lp1895
S'space'
p1896
asg94
I0
sa(dp1897
g16
(lp1898
S'd'
asg18
S'N'
sS'.thisRepN'
p1899
I15
sg20
S'Y'
sg31
g32
sS'.thisTrialN'
p1900
I8
sS'.thisN'
p1901
I233
sS'.thisIndex'
p1902
I5
sg15
(lp1903
S'k'
asg30
VF
sg17
S'N'
sg14
I5
sg19
Nsg94
I5
sa(dp1904
g16
(lp1905
S'k'
asg18
S'N'
sS'.thisRepN'
p1906
I15
sg20
S'Y'
sg31
g32
sS'.thisTrialN'
p1907
I9
sS'.thisN'
p1908
I234
sS'.thisIndex'
p1909
I14
sg15
(lp1910
S'k'
asg30
VF
sg17
S'Y'
sg14
I5
sg19
Nsg94
I14
sa(dp1911
g16
(lp1912
S'd'
asg18
S'Y'
sS'.thisRepN'
p1913
I15
sg20
S'Y'
sg31
g32
sS'.thisTrialN'
p1914
I10
sS'.thisN'
p1915
I235
sS'.thisIndex'
p1916
I4
sg15
(lp1917
S'd'
asg30
VF
sg17
S'Y'
sg14
I5
sg19
(lp1918
S'space'
p1919
asg94
I4
sa(dp1920
g16
(lp1921
S'k'
asg18
S'Y'
sS'.thisRepN'
p1922
I15
sg20
S'Y'
sg31
g32
sS'.thisTrialN'
p1923
I11
sS'.thisN'
p1924
I236
sS'.thisIndex'
p1925
I14
sg15
(lp1926
S'k'
asg30
VF
sg17
S'Y'
sg14
I5
sg19
(lp1927
S'space'
p1928
asg94
I14
sa(dp1929
g16
(lp1930
S'k'
asg18
S'Y'
sS'.thisRepN'
p1931
I15
sg20
S'Y'
sg31
g32
sS'.thisTrialN'
p1932
I12
sS'.thisN'
p1933
I237
sS'.thisIndex'
p1934
I5
sg15
(lp1935
S'k'
asg30
VF
sg17
S'Y'
sg14
I5
sg19
(lp1936
S'space'
p1937
asg94
I5
sa(dp1938
g16
(lp1939
S'k'
asg18
S'N'
sS'.thisRepN'
p1940
I15
sg20
S'Y'
sg31
g32
sS'.thisTrialN'
p1941
I13
sS'.thisN'
p1942
I238
sS'.thisIndex'
p1943
I11
sg15
(lp1944
S'd'
asg30
VF
sg17
S'N'
sg14
I5
sg19
Nsg94
I11
sa(dp1945
g16
(lp1946
S'k'
asg18
S'N'
sS'.thisRepN'
p1947
I15
sg20
S'Y'
sg31
g32
sS'.thisTrialN'
p1948
I14
sS'.thisN'
p1949
I239
sS'.thisIndex'
p1950
I8
sg15
(lp1951
S'k'
asg30
VF
sg17
S'Y'
sg14
I5
sg19
Nsg94
I8
sa(dp1952
g16
(lp1953
S'k'
asg18
S'N'
sS'.thisRepN'
p1954
I16
sg20
S'Y'
sg31
g32
sS'.thisTrialN'
p1955
I0
sS'.thisN'
p1956
I240
sS'.thisIndex'
p1957
I11
sg15
(lp1958
S'k'
asg30
VF
sg17
S'Y'
sg14
I5
sg19
Nsg94
I11
sa(dp1959
g16
(lp1960
S'd'
asg18
S'Y'
sS'.thisRepN'
p1961
I16
sg20
S'Y'
sg31
g32
sS'.thisTrialN'
p1962
I1
sS'.thisN'
p1963
I241
sS'.thisIndex'
p1964
I5
sg15
(lp1965
S'k'
asg30
VF
sg17
S'N'
sg14
I5
sg19
(lp1966
S'space'
p1967
asg94
I5
sa(dp1968
g16
(lp1969
S'd'
asg18
S'N'
sS'.thisRepN'
p1970
I16
sg20
S'Y'
sg31
g32
sS'.thisTrialN'
p1971
I2
sS'.thisN'
p1972
I242
sS'.thisIndex'
p1973
I6
sg15
(lp1974
S'k'
asg30
VF
sg17
S'N'
sg14
I5
sg19
Nsg94
I6
sa(dp1975
g16
(lp1976
S'd'
asg18
S'Y'
sS'.thisRepN'
p1977
I16
sg20
S'Y'
sg31
g32
sS'.thisTrialN'
p1978
I3
sS'.thisN'
p1979
I243
sS'.thisIndex'
p1980
I3
sg15
(lp1981
S'd'
asg30
VF
sg17
S'Y'
sg14
I5
sg19
(lp1982
S'space'
p1983
asg94
I3
sa(dp1984
g16
(lp1985
S'd'
asg18
S'N'
sS'.thisRepN'
p1986
I16
sg20
S'Y'
sg31
g32
sS'.thisTrialN'
p1987
I4
sS'.thisN'
p1988
I244
sS'.thisIndex'
p1989
I9
sg15
(lp1990
S'k'
asg30
VF
sg17
S'N'
sg14
I5
sg19
Nsg94
I9
sa(dp1991
g16
(lp1992
S'k'
asg18
S'Y'
sS'.thisRepN'
p1993
I16
sg20
S'Y'
sg31
g32
sS'.thisTrialN'
p1994
I5
sS'.thisN'
p1995
I245
sS'.thisIndex'
p1996
I14
sg15
(lp1997
S'd'
asg30
VF
sg17
S'N'
sg14
I5
sg19
(lp1998
S'space'
p1999
asg94
I14
sa(dp2000
g16
(lp2001
S'k'
asg18
S'N'
sS'.thisRepN'
p2002
I16
sg20
S'Y'
sg31
g32
sS'.thisTrialN'
p2003
I6
sS'.thisN'
p2004
I246
sS'.thisIndex'
p2005
I6
sg15
(lp2006
S'k'
asg30
VF
sg17
S'Y'
sg14
I5
sg19
Nsg94
I6
sa(dp2007
g16
(lp2008
S'k'
asg18
S'Y'
sS'.thisRepN'
p2009
I16
sg20
S'N'
sg31
g32
sS'.thisTrialN'
p2010
I7
sS'.thisN'
p2011
I247
sS'.thisIndex'
p2012
I2
sg15
(lp2013
S'k'
asg30
VF
sg17
S'Y'
sg14
I5
sg19
Nsg94
I2
sa(dp2014
g16
(lp2015
S'd'
asg18
S'Y'
sS'.thisRepN'
p2016
I16
sg20
S'Y'
sg31
g32
sS'.thisTrialN'
p2017
I8
sS'.thisN'
p2018
I248
sS'.thisIndex'
p2019
I7
sg15
(lp2020
S'd'
asg30
VF
sg17
S'Y'
sg14
I5
sg19
(lp2021
S'space'
p2022
asg94
I7
sa(dp2023
g16
(lp2024
S'd'
asg18
S'N'
sg22
I44
sS'.thisN'
p2025
I249
sg20
S'Y'
sg31
g32
sS'.thisTrialN'
p2026
I9
sS'.thisRepN'
p2027
I16
sg21
I40
sS'.thisIndex'
p2028
I13
sg23
I25
sg15
(lp2029
S'k'
asg30
VF
sg17
S'N'
sg14
I5
sg19
Nsg94
I13
sa(dp2030
g16
(lp2031
S'k'
asg94
I12
sS'.thisRepN'
p2032
I16
sg30
VF
sg31
g32
sS'.thisTrialN'
p2033
I10
sS'.thisN'
p2034
I250
sS'.thisIndex'
p2035
I12
sg15
(lp2036
S'k'
asg17
S'Y'
sg14
I6
sa(dp2037
g16
(lp2038
S'd'
asg94
I0
sS'.thisRepN'
p2039
I16
sg30
VF
sg31
g32
sS'.thisTrialN'
p2040
I11
sS'.thisN'
p2041
I251
sS'.thisIndex'
p2042
I0
sg15
(lp2043
S'd'
asg17
S'Y'
sg14
I6
sa(dp2044
g16
(lp2045
S'k'
asg18
S'N'
sS'.thisRepN'
p2046
I16
sg20
S'Y'
sg31
g32
sS'.thisTrialN'
p2047
I12
sS'.thisN'
p2048
I252
sS'.thisIndex'
p2049
I13
sg15
(lp2050
S'k'
asg30
VF
sg17
S'Y'
sg14
I6
sg19
Nsg94
I13
sa(dp2051
g16
(lp2052
S'd'
asg18
S'Y'
sS'.thisRepN'
p2053
I16
sg20
S'Y'
sg31
g32
sS'.thisTrialN'
p2054
I13
sS'.thisN'
p2055
I253
sS'.thisIndex'
p2056
I12
sg15
(lp2057
S'd'
asg30
VF
sg17
S'Y'
sg14
I6
sg19
(lp2058
S'space'
p2059
asg94
I12
sa(dp2060
g16
(lp2061
S'k'
asg18
S'Y'
sS'.thisRepN'
p2062
I16
sg20
S'Y'
sg31
g32
sS'.thisTrialN'
p2063
I14
sS'.thisN'
p2064
I254
sS'.thisIndex'
p2065
I2
sg15
(lp2066
S'k'
asg30
VF
sg17
S'Y'
sg14
I6
sg19
(lp2067
S'space'
p2068
asg94
I2
sa(dp2069
g16
(lp2070
S'd'
asg18
S'N'
sS'.thisRepN'
p2071
I17
sg20
S'Y'
sg31
g32
sS'.thisTrialN'
p2072
I0
sS'.thisN'
p2073
I255
sS'.thisIndex'
p2074
I2
sg15
(lp2075
S'd'
asg30
VF
sg17
S'Y'
sg14
I6
sg19
Nsg94
I2
sa(dp2076
g16
(lp2077
S'd'
asg18
S'N'
sS'.thisRepN'
p2078
I17
sg20
S'Y'
sg31
g32
sS'.thisTrialN'
p2079
I1
sS'.thisN'
p2080
I256
sS'.thisIndex'
p2081
I14
sg15
(lp2082
S'd'
asg30
VF
sg17
S'Y'
sg14
I6
sg19
Nsg94
I14
sa(dp2083
g16
(lp2084
S'k'
asg18
S'N'
sS'.thisRepN'
p2085
I17
sg20
S'Y'
sg31
g32
sS'.thisTrialN'
p2086
I2
sS'.thisN'
p2087
I257
sS'.thisIndex'
p2088
I2
sg15
(lp2089
S'k'
asg30
VF
sg17
S'Y'
sg14
I6
sg19
Nsg94
I2
sa(dp2090
g16
(lp2091
S'd'
asg18
S'N'
sS'.thisRepN'
p2092
I17
sg20
S'Y'
sg31
g32
sS'.thisTrialN'
p2093
I3
sS'.thisN'
p2094
I258
sS'.thisIndex'
p2095
I11
sg15
(lp2096
S'd'
asg30
VF
sg17
S'Y'
sg14
I6
sg19
Nsg94
I11
sa(dp2097
g16
(lp2098
S'k'
asg18
S'N'
sS'.thisRepN'
p2099
I17
sg20
S'Y'
sg31
g32
sS'.thisTrialN'
p2100
I4
sS'.thisN'
p2101
I259
sS'.thisIndex'
p2102
I11
sg15
(lp2103
S'k'
asg30
VF
sg17
S'Y'
sg14
I6
sg19
Nsg94
I11
sa(dp2104
g16
(lp2105
S'd'
asg18
S'N'
sS'.thisRepN'
p2106
I17
sg20
S'Y'
sg31
g32
sS'.thisTrialN'
p2107
I5
sS'.thisN'
p2108
I260
sS'.thisIndex'
p2109
I11
sg15
(lp2110
S'k'
asg30
VF
sg17
S'N'
sg14
I6
sg19
Nsg94
I11
sa(dp2111
g16
(lp2112
S'k'
asg18
S'N'
sS'.thisRepN'
p2113
I17
sg20
S'Y'
sg31
g32
sS'.thisTrialN'
p2114
I6
sS'.thisN'
p2115
I261
sS'.thisIndex'
p2116
I2
sg15
(lp2117
S'd'
asg30
VF
sg17
S'N'
sg14
I6
sg19
Nsg94
I2
sa(dp2118
g16
(lp2119
S'd'
asg18
S'N'
sS'.thisRepN'
p2120
I17
sg20
S'Y'
sg31
g32
sS'.thisTrialN'
p2121
I7
sS'.thisN'
p2122
I262
sS'.thisIndex'
p2123
I3
sg15
(lp2124
S'd'
asg30
VF
sg17
S'Y'
sg14
I6
sg19
Nsg94
I3
sa(dp2125
g16
(lp2126
S'k'
asg18
S'Y'
sS'.thisRepN'
p2127
I17
sg20
S'Y'
sg31
g32
sS'.thisTrialN'
p2128
I8
sS'.thisN'
p2129
I263
sS'.thisIndex'
p2130
I10
sg15
(lp2131
S'k'
asg30
VF
sg17
S'Y'
sg14
I6
sg19
(lp2132
S'space'
p2133
asg94
I10
sa(dp2134
g16
(lp2135
S'k'
asg18
S'N'
sS'.thisRepN'
p2136
I17
sg20
S'Y'
sg31
g32
sS'.thisTrialN'
p2137
I9
sS'.thisN'
p2138
I264
sS'.thisIndex'
p2139
I6
sg15
(lp2140
S'k'
asg30
VF
sg17
S'Y'
sg14
I6
sg19
Nsg94
I6
sa(dp2141
g16
(lp2142
S'd'
asg18
S'Y'
sS'.thisRepN'
p2143
I17
sg20
S'Y'
sg31
g32
sS'.thisTrialN'
p2144
I10
sS'.thisN'
p2145
I265
sS'.thisIndex'
p2146
I7
sg15
(lp2147
S'k'
asg30
VF
sg17
S'N'
sg14
I6
sg19
(lp2148
S'space'
p2149
asg94
I7
sa(dp2150
g16
(lp2151
S'd'
asg18
S'Y'
sS'.thisRepN'
p2152
I17
sg20
S'Y'
sg31
g32
sS'.thisTrialN'
p2153
I11
sS'.thisN'
p2154
I266
sS'.thisIndex'
p2155
I1
sg15
(lp2156
S'k'
asg30
VF
sg17
S'N'
sg14
I6
sg19
(lp2157
S'space'
p2158
asg94
I1
sa(dp2159
g16
(lp2160
S'k'
asg18
S'N'
sS'.thisRepN'
p2161
I17
sg20
S'N'
sg31
g32
sS'.thisTrialN'
p2162
I12
sS'.thisN'
p2163
I267
sS'.thisIndex'
p2164
I6
sg15
(lp2165
S'k'
asg30
VF
sg17
S'Y'
sg14
I6
sg19
(lp2166
S'space'
p2167
asg94
I6
sa(dp2168
g16
(lp2169
S'd'
asg18
S'Y'
sS'.thisRepN'
p2170
I17
sg20
S'Y'
sg31
g32
sS'.thisTrialN'
p2171
I13
sS'.thisN'
p2172
I268
sS'.thisIndex'
p2173
I1
sg15
(lp2174
S'k'
asg30
VF
sg17
S'N'
sg14
I6
sg19
(lp2175
S'space'
p2176
asg94
I1
sa(dp2177
g16
(lp2178
S'd'
asg18
S'Y'
sS'.thisRepN'
p2179
I17
sg20
S'Y'
sg31
g32
sS'.thisTrialN'
p2180
I14
sS'.thisN'
p2181
I269
sS'.thisIndex'
p2182
I8
sg15
(lp2183
S'k'
asg30
VF
sg17
S'N'
sg14
I6
sg19
(lp2184
S'space'
p2185
asg94
I8
sa(dp2186
g16
(lp2187
S'k'
asg18
S'Y'
sS'.thisRepN'
p2188
I18
sg20
S'Y'
sg31
g32
sS'.thisTrialN'
p2189
I0
sS'.thisN'
p2190
I270
sS'.thisIndex'
p2191
I9
sg15
(lp2192
S'k'
asg30
VF
sg17
S'Y'
sg14
I6
sg19
(lp2193
S'space'
p2194
asg94
I9
sa(dp2195
g16
(lp2196
S'k'
asg18
S'N'
sS'.thisRepN'
p2197
I18
sg20
S'Y'
sg31
g32
sS'.thisTrialN'
p2198
I1
sS'.thisN'
p2199
I271
sS'.thisIndex'
p2200
I0
sg15
(lp2201
S'k'
asg30
VF
sg17
S'Y'
sg14
I6
sg19
Nsg94
I0
sa(dp2202
g16
(lp2203
S'k'
asg18
S'Y'
sS'.thisRepN'
p2204
I18
sg20
S'Y'
sg31
g32
sS'.thisTrialN'
p2205
I2
sS'.thisN'
p2206
I272
sS'.thisIndex'
p2207
I8
sg15
(lp2208
S'k'
asg30
VF
sg17
S'Y'
sg14
I6
sg19
(lp2209
S'space'
p2210
asg94
I8
sa(dp2211
g16
(lp2212
S'd'
asg18
S'Y'
sS'.thisRepN'
p2213
I18
sg20
S'Y'
sg31
g32
sS'.thisTrialN'
p2214
I3
sS'.thisN'
p2215
I273
sS'.thisIndex'
p2216
I0
sg15
(lp2217
S'd'
asg30
VF
sg17
S'Y'
sg14
I6
sg19
(lp2218
S'space'
p2219
asg94
I0
sa(dp2220
g16
(lp2221
S'k'
asg18
S'N'
sS'.thisRepN'
p2222
I18
sg20
S'Y'
sg31
g32
sS'.thisTrialN'
p2223
I4
sS'.thisN'
p2224
I274
sS'.thisIndex'
p2225
I3
sg15
(lp2226
S'd'
asg30
VF
sg17
S'N'
sg14
I6
sg19
Nsg94
I3
sa(dp2227
g16
(lp2228
S'd'
asg18
S'Y'
sS'.thisRepN'
p2229
I18
sg20
S'Y'
sg31
g32
sS'.thisTrialN'
p2230
I5
sS'.thisN'
p2231
I275
sS'.thisIndex'
p2232
I13
sg15
(lp2233
S'k'
asg30
VF
sg17
S'N'
sg14
I6
sg19
(lp2234
S'space'
p2235
asg94
I13
sa(dp2236
g16
(lp2237
S'k'
asg18
S'N'
sS'.thisRepN'
p2238
I18
sg20
S'Y'
sg31
g32
sS'.thisTrialN'
p2239
I6
sS'.thisN'
p2240
I276
sS'.thisIndex'
p2241
I4
sg15
(lp2242
S'k'
asg30
VF
sg17
S'Y'
sg14
I6
sg19
Nsg94
I4
sa(dp2243
g16
(lp2244
S'k'
asg18
S'N'
sS'.thisRepN'
p2245
I18
sg20
S'Y'
sg31
g32
sS'.thisTrialN'
p2246
I7
sS'.thisN'
p2247
I277
sS'.thisIndex'
p2248
I5
sg15
(lp2249
S'k'
asg30
VF
sg17
S'Y'
sg14
I6
sg19
Nsg94
I5
sa(dp2250
g16
(lp2251
S'k'
asg18
S'Y'
sS'.thisRepN'
p2252
I18
sg20
S'Y'
sg31
g32
sS'.thisTrialN'
p2253
I8
sS'.thisN'
p2254
I278
sS'.thisIndex'
p2255
I14
sg15
(lp2256
S'k'
asg30
VF
sg17
S'Y'
sg14
I6
sg19
(lp2257
S'space'
p2258
asg94
I14
sa(dp2259
g16
(lp2260
S'k'
asg18
S'N'
sS'.thisRepN'
p2261
I18
sg20
S'Y'
sg31
g32
sS'.thisTrialN'
p2262
I9
sS'.thisN'
p2263
I279
sS'.thisIndex'
p2264
I3
sg15
(lp2265
S'k'
asg30
VF
sg17
S'Y'
sg14
I6
sg19
Nsg94
I3
sa(dp2266
g16
(lp2267
S'k'
asg18
S'Y'
sS'.thisRepN'
p2268
I18
sg20
S'Y'
sg31
g32
sS'.thisTrialN'
p2269
I10
sS'.thisN'
p2270
I280
sS'.thisIndex'
p2271
I4
sg15
(lp2272
S'k'
asg30
VF
sg17
S'Y'
sg14
I6
sg19
(lp2273
S'space'
p2274
asg94
I4
sa(dp2275
g16
(lp2276
S'd'
asg18
S'Y'
sS'.thisRepN'
p2277
I18
sg20
S'N'
sg31
g32
sS'.thisTrialN'
p2278
I11
sS'.thisN'
p2279
I281
sS'.thisIndex'
p2280
I7
sg15
(lp2281
S'd'
asg30
VF
sg17
S'Y'
sg14
I6
sg19
(lp2282
S'k'
asg94
I7
sa(dp2283
g16
(lp2284
S'k'
asg18
S'N'
sS'.thisRepN'
p2285
I18
sg20
S'Y'
sg31
g32
sS'.thisTrialN'
p2286
I12
sS'.thisN'
p2287
I282
sS'.thisIndex'
p2288
I9
sg15
(lp2289
S'k'
asg30
VF
sg17
S'Y'
sg14
I6
sg19
Nsg94
I9
sa(dp2290
g16
(lp2291
S'd'
asg18
S'N'
sS'.thisRepN'
p2292
I18
sg20
S'Y'
sg31
g32
sS'.thisTrialN'
p2293
I13
sS'.thisN'
p2294
I283
sS'.thisIndex'
p2295
I4
sg15
(lp2296
S'd'
asg30
VF
sg17
S'Y'
sg14
I6
sg19
Nsg94
I4
sa(dp2297
g16
(lp2298
S'k'
asg18
S'N'
sS'.thisRepN'
p2299
I18
sg20
S'Y'
sg31
g32
sS'.thisTrialN'
p2300
I14
sS'.thisN'
p2301
I284
sS'.thisIndex'
p2302
I3
sg15
(lp2303
S'k'
asg30
VF
sg17
S'Y'
sg14
I6
sg19
Nsg94
I3
sa(dp2304
g16
(lp2305
S'd'
asg18
S'Y'
sS'.thisRepN'
p2306
I19
sg20
S'Y'
sg31
g32
sS'.thisTrialN'
p2307
I0
sS'.thisN'
p2308
I285
sS'.thisIndex'
p2309
I7
sg15
(lp2310
S'd'
asg30
VF
sg17
S'Y'
sg14
I6
sg19
(lp2311
S'space'
p2312
asg94
I7
sa(dp2313
g16
(lp2314
S'd'
asg18
S'N'
sS'.thisRepN'
p2315
I19
sg20
S'Y'
sg31
g32
sS'.thisTrialN'
p2316
I1
sS'.thisN'
p2317
I286
sS'.thisIndex'
p2318
I10
sg15
(lp2319
S'd'
asg30
VF
sg17
S'Y'
sg14
I6
sg19
Nsg94
I10
sa(dp2320
g16
(lp2321
S'k'
asg18
S'N'
sS'.thisRepN'
p2322
I19
sg20
S'Y'
sg31
g32
sS'.thisTrialN'
p2323
I2
sS'.thisN'
p2324
I287
sS'.thisIndex'
p2325
I11
sg15
(lp2326
S'k'
asg30
VF
sg17
S'Y'
sg14
I6
sg19
Nsg94
I11
sa(dp2327
g16
(lp2328
S'k'
asg18
S'N'
sS'.thisRepN'
p2329
I19
sg20
S'Y'
sg31
g32
sS'.thisTrialN'
p2330
I3
sS'.thisN'
p2331
I288
sS'.thisIndex'
p2332
I3
sg15
(lp2333
S'k'
asg30
VF
sg17
S'Y'
sg14
I6
sg19
Nsg94
I3
sa(dp2334
g16
(lp2335
S'd'
asg18
S'N'
sS'.thisRepN'
p2336
I19
sg20
S'Y'
sg31
g32
sS'.thisTrialN'
p2337
I4
sS'.thisN'
p2338
I289
sS'.thisIndex'
p2339
I6
sg15
(lp2340
S'k'
asg30
VF
sg17
S'N'
sg14
I6
sg19
Nsg94
I6
sa(dp2341
g16
(lp2342
S'd'
asg18
S'Y'
sS'.thisRepN'
p2343
I19
sg20
S'Y'
sg31
g32
sS'.thisTrialN'
p2344
I5
sS'.thisN'
p2345
I290
sS'.thisIndex'
p2346
I13
sg15
(lp2347
S'd'
asg30
VF
sg17
S'Y'
sg14
I6
sg19
(lp2348
S'space'
p2349
asg94
I13
sa(dp2350
g16
(lp2351
S'd'
asg18
S'Y'
sS'.thisRepN'
p2352
I19
sg20
S'Y'
sg31
g32
sS'.thisTrialN'
p2353
I6
sS'.thisN'
p2354
I291
sS'.thisIndex'
p2355
I6
sg15
(lp2356
S'd'
asg30
VF
sg17
S'Y'
sg14
I6
sg19
(lp2357
S'space'
p2358
asg94
I6
sa(dp2359
g16
(lp2360
S'd'
asg18
S'Y'
sS'.thisRepN'
p2361
I19
sg20
S'Y'
sg31
g32
sS'.thisTrialN'
p2362
I7
sS'.thisN'
p2363
I292
sS'.thisIndex'
p2364
I2
sg15
(lp2365
S'd'
asg30
VF
sg17
S'Y'
sg14
I6
sg19
(lp2366
S'space'
p2367
asg94
I2
sa(dp2368
g16
(lp2369
S'd'
asg18
S'Y'
sS'.thisRepN'
p2370
I19
sg20
S'Y'
sg31
g32
sS'.thisTrialN'
p2371
I8
sS'.thisN'
p2372
I293
sS'.thisIndex'
p2373
I9
sg15
(lp2374
S'd'
asg30
VF
sg17
S'Y'
sg14
I6
sg19
(lp2375
S'space'
p2376
asg94
I9
sa(dp2377
g16
(lp2378
S'd'
asg18
S'N'
sS'.thisRepN'
p2379
I19
sg20
S'Y'
sg31
g32
sS'.thisTrialN'
p2380
I9
sS'.thisN'
p2381
I294
sS'.thisIndex'
p2382
I9
sg15
(lp2383
S'd'
asg30
VF
sg17
S'Y'
sg14
I6
sg19
Nsg94
I9
sa(dp2384
g16
(lp2385
S'k'
asg18
S'Y'
sS'.thisRepN'
p2386
I19
sg20
S'Y'
sg31
g32
sS'.thisTrialN'
p2387
I10
sS'.thisN'
p2388
I295
sS'.thisIndex'
p2389
I13
sg15
(lp2390
S'k'
asg30
VF
sg17
S'Y'
sg14
I6
sg19
(lp2391
S'space'
p2392
asg94
I13
sa(dp2393
g16
(lp2394
S'd'
asg18
S'Y'
sS'.thisRepN'
p2395
I19
sg20
S'Y'
sg31
g32
sS'.thisTrialN'
p2396
I11
sS'.thisN'
p2397
I296
sS'.thisIndex'
p2398
I0
sg15
(lp2399
S'd'
asg30
VF
sg17
S'Y'
sg14
I6
sg19
(lp2400
S'space'
p2401
asg94
I0
sa(dp2402
g16
(lp2403
S'k'
asg18
S'Y'
sS'.thisRepN'
p2404
I19
sg20
S'Y'
sg31
g32
sS'.thisTrialN'
p2405
I12
sS'.thisN'
p2406
I297
sS'.thisIndex'
p2407
I14
sg15
(lp2408
S'k'
asg30
VF
sg17
S'Y'
sg14
I6
sg19
(lp2409
S'space'
p2410
asg94
I14
sa(dp2411
g16
(lp2412
S'k'
asg18
S'Y'
sS'.thisRepN'
p2413
I19
sg20
S'Y'
sg31
g32
sS'.thisTrialN'
p2414
I13
sS'.thisN'
p2415
I298
sS'.thisIndex'
p2416
I1
sg15
(lp2417
S'k'
asg30
VF
sg17
S'Y'
sg14
I6
sg19
(lp2418
S'space'
p2419
asg94
I1
sa(dp2420
g16
(lp2421
S'k'
asg18
S'Y'
sg22
I46
sS'.thisN'
p2422
I299
sg20
S'Y'
sg31
g32
sS'.thisTrialN'
p2423
I14
sS'.thisRepN'
p2424
I19
sg21
I40
sS'.thisIndex'
p2425
I5
sg23
I24
sg15
(lp2426
S'd'
asg30
VF
sg17
S'N'
sg14
I6
sg19
(lp2427
S'space'
p2428
asg94
I5
sa(dp2429
g16
(lp2430
S'd'
asg94
I3
sS'.thisRepN'
p2431
I20
sg30
VF
sg31
g32
sS'.thisTrialN'
p2432
I0
sS'.thisN'
p2433
I300
sS'.thisIndex'
p2434
I3
sg15
(lp2435
S'k'
asg17
S'N'
sg14
I7
sa(dp2436
g16
(lp2437
S'd'
asg94
I5
sS'.thisRepN'
p2438
I20
sg30
VF
sg31
g32
sS'.thisTrialN'
p2439
I1
sS'.thisN'
p2440
I301
sS'.thisIndex'
p2441
I5
sg15
(lp2442
S'd'
asg17
S'Y'
sg14
I7
sa(dp2443
g16
(lp2444
S'k'
asg18
S'Y'
sS'.thisRepN'
p2445
I20
sg20
S'Y'
sg31
g32
sS'.thisTrialN'
p2446
I2
sS'.thisN'
p2447
I302
sS'.thisIndex'
p2448
I8
sg15
(lp2449
S'k'
asg30
VF
sg17
S'Y'
sg14
I7
sg19
(lp2450
S'space'
p2451
asg94
I8
sa(dp2452
g16
(lp2453
S'd'
asg18
S'Y'
sS'.thisRepN'
p2454
I20
sg20
S'Y'
sg31
g32
sS'.thisTrialN'
p2455
I3
sS'.thisN'
p2456
I303
sS'.thisIndex'
p2457
I0
sg15
(lp2458
S'k'
asg30
VF
sg17
S'N'
sg14
I7
sg19
(lp2459
S'space'
p2460
asg94
I0
sa(dp2461
g16
(lp2462
S'k'
asg18
S'N'
sS'.thisRepN'
p2463
I20
sg20
S'Y'
sg31
g32
sS'.thisTrialN'
p2464
I4
sS'.thisN'
p2465
I304
sS'.thisIndex'
p2466
I13
sg15
(lp2467
S'k'
asg30
VF
sg17
S'Y'
sg14
I7
sg19
Nsg94
I13
sa(dp2468
g16
(lp2469
S'd'
asg18
S'Y'
sS'.thisRepN'
p2470
I20
sg20
S'Y'
sg31
g32
sS'.thisTrialN'
p2471
I5
sS'.thisN'
p2472
I305
sS'.thisIndex'
p2473
I14
sg15
(lp2474
S'd'
asg30
VF
sg17
S'Y'
sg14
I7
sg19
(lp2475
S'space'
p2476
asg94
I14
sa(dp2477
g16
(lp2478
S'k'
asg18
S'N'
sS'.thisRepN'
p2479
I20
sg20
S'Y'
sg31
g32
sS'.thisTrialN'
p2480
I6
sS'.thisN'
p2481
I306
sS'.thisIndex'
p2482
I8
sg15
(lp2483
S'k'
asg30
VF
sg17
S'Y'
sg14
I7
sg19
Nsg94
I8
sa(dp2484
g16
(lp2485
S'k'
asg18
S'Y'
sS'.thisRepN'
p2486
I20
sg20
S'Y'
sg31
g32
sS'.thisTrialN'
p2487
I7
sS'.thisN'
p2488
I307
sS'.thisIndex'
p2489
I12
sg15
(lp2490
S'k'
asg30
VF
sg17
S'Y'
sg14
I7
sg19
(lp2491
S'space'
p2492
asg94
I12
sa(dp2493
g16
(lp2494
S'd'
asg18
S'N'
sS'.thisRepN'
p2495
I20
sg20
S'N'
sg31
g32
sS'.thisTrialN'
p2496
I8
sS'.thisN'
p2497
I308
sS'.thisIndex'
p2498
I13
sg15
(lp2499
S'd'
asg30
VF
sg17
S'Y'
sg14
I7
sg19
(lp2500
S'space'
p2501
asg94
I13
sa(dp2502
g16
(lp2503
S'd'
asg18
S'Y'
sS'.thisRepN'
p2504
I20
sg20
S'Y'
sg31
g32
sS'.thisTrialN'
p2505
I9
sS'.thisN'
p2506
I309
sS'.thisIndex'
p2507
I13
sg15
(lp2508
S'd'
asg30
VF
sg17
S'Y'
sg14
I7
sg19
(lp2509
S'space'
p2510
asg94
I13
sa(dp2511
g16
(lp2512
S'k'
asg18
S'N'
sS'.thisRepN'
p2513
I20
sg20
S'Y'
sg31
g32
sS'.thisTrialN'
p2514
I10
sS'.thisN'
p2515
I310
sS'.thisIndex'
p2516
I2
sg15
(lp2517
S'k'
asg30
VF
sg17
S'Y'
sg14
I7
sg19
Nsg94
I2
sa(dp2518
g16
(lp2519
S'd'
asg18
S'Y'
sS'.thisRepN'
p2520
I20
sg20
S'N'
sg31
g32
sS'.thisTrialN'
p2521
I11
sS'.thisN'
p2522
I311
sS'.thisIndex'
p2523
I2
sg15
(lp2524
S'd'
asg30
VF
sg17
S'Y'
sg14
I7
sg19
Nsg94
I2
sa(dp2525
g16
(lp2526
S'd'
asg18
S'N'
sS'.thisRepN'
p2527
I20
sg20
S'Y'
sg31
g32
sS'.thisTrialN'
p2528
I12
sS'.thisN'
p2529
I312
sS'.thisIndex'
p2530
I11
sg15
(lp2531
S'k'
asg30
VF
sg17
S'N'
sg14
I7
sg19
Nsg94
I11
sa(dp2532
g16
(lp2533
S'd'
asg18
S'Y'
sS'.thisRepN'
p2534
I20
sg20
S'Y'
sg31
g32
sS'.thisTrialN'
p2535
I13
sS'.thisN'
p2536
I313
sS'.thisIndex'
p2537
I0
sg15
(lp2538
S'd'
asg30
VF
sg17
S'Y'
sg14
I7
sg19
(lp2539
S'space'
p2540
asg94
I0
sa(dp2541
g16
(lp2542
S'k'
asg18
S'N'
sS'.thisRepN'
p2543
I20
sg20
S'Y'
sg31
g32
sS'.thisTrialN'
p2544
I14
sS'.thisN'
p2545
I314
sS'.thisIndex'
p2546
I13
sg15
(lp2547
S'k'
asg30
VF
sg17
S'Y'
sg14
I7
sg19
Nsg94
I13
sa(dp2548
g16
(lp2549
S'd'
asg18
S'N'
sS'.thisRepN'
p2550
I21
sg20
S'Y'
sg31
g32
sS'.thisTrialN'
p2551
I0
sS'.thisN'
p2552
I315
sS'.thisIndex'
p2553
I10
sg15
(lp2554
S'd'
asg30
VF
sg17
S'Y'
sg14
I7
sg19
Nsg94
I10
sa(dp2555
g16
(lp2556
S'k'
asg18
S'Y'
sS'.thisRepN'
p2557
I21
sg20
S'Y'
sg31
g32
sS'.thisTrialN'
p2558
I1
sS'.thisN'
p2559
I316
sS'.thisIndex'
p2560
I14
sg15
(lp2561
S'k'
asg30
VF
sg17
S'Y'
sg14
I7
sg19
(lp2562
S'space'
p2563
asg94
I14
sa(dp2564
g16
(lp2565
S'd'
asg18
S'Y'
sS'.thisRepN'
p2566
I21
sg20
S'Y'
sg31
g32
sS'.thisTrialN'
p2567
I2
sS'.thisN'
p2568
I317
sS'.thisIndex'
p2569
I13
sg15
(lp2570
S'd'
asg30
VF
sg17
S'Y'
sg14
I7
sg19
(lp2571
S'space'
p2572
asg94
I13
sa(dp2573
g16
(lp2574
S'k'
asg18
S'N'
sS'.thisRepN'
p2575
I21
sg20
S'Y'
sg31
g32
sS'.thisTrialN'
p2576
I3
sS'.thisN'
p2577
I318
sS'.thisIndex'
p2578
I10
sg15
(lp2579
S'k'
asg30
VF
sg17
S'Y'
sg14
I7
sg19
Nsg94
I10
sa(dp2580
g16
(lp2581
S'k'
asg18
S'Y'
sS'.thisRepN'
p2582
I21
sg20
S'Y'
sg31
g32
sS'.thisTrialN'
p2583
I4
sS'.thisN'
p2584
I319
sS'.thisIndex'
p2585
I13
sg15
(lp2586
S'k'
asg30
VF
sg17
S'Y'
sg14
I7
sg19
(lp2587
S'space'
p2588
asg94
I13
sa(dp2589
g16
(lp2590
S'k'
asg18
S'N'
sS'.thisRepN'
p2591
I21
sg20
S'Y'
sg31
g32
sS'.thisTrialN'
p2592
I5
sS'.thisN'
p2593
I320
sS'.thisIndex'
p2594
I8
sg15
(lp2595
S'k'
asg30
VF
sg17
S'Y'
sg14
I7
sg19
Nsg94
I8
sa(dp2596
g16
(lp2597
S'd'
asg18
S'Y'
sS'.thisRepN'
p2598
I21
sg20
S'Y'
sg31
g32
sS'.thisTrialN'
p2599
I6
sS'.thisN'
p2600
I321
sS'.thisIndex'
p2601
I12
sg15
(lp2602
S'd'
asg30
VF
sg17
S'Y'
sg14
I7
sg19
(lp2603
S'space'
p2604
asg94
I12
sa(dp2605
g16
(lp2606
S'k'
asg18
S'N'
sS'.thisRepN'
p2607
I21
sg20
S'Y'
sg31
g32
sS'.thisTrialN'
p2608
I7
sS'.thisN'
p2609
I322
sS'.thisIndex'
p2610
I11
sg15
(lp2611
S'k'
asg30
VF
sg17
S'Y'
sg14
I7
sg19
Nsg94
I11
sa(dp2612
g16
(lp2613
S'k'
asg18
S'Y'
sS'.thisRepN'
p2614
I21
sg20
S'Y'
sg31
g32
sS'.thisTrialN'
p2615
I8
sS'.thisN'
p2616
I323
sS'.thisIndex'
p2617
I9
sg15
(lp2618
S'k'
asg30
VF
sg17
S'Y'
sg14
I7
sg19
(lp2619
S'space'
p2620
asg94
I9
sa(dp2621
g16
(lp2622
S'd'
asg18
S'Y'
sS'.thisRepN'
p2623
I21
sg20
S'Y'
sg31
g32
sS'.thisTrialN'
p2624
I9
sS'.thisN'
p2625
I324
sS'.thisIndex'
p2626
I11
sg15
(lp2627
S'k'
asg30
VF
sg17
S'N'
sg14
I7
sg19
(lp2628
S'space'
p2629
asg94
I11
sa(dp2630
g16
(lp2631
S'k'
asg18
S'Y'
sS'.thisRepN'
p2632
I21
sg20
S'Y'
sg31
g32
sS'.thisTrialN'
p2633
I10
sS'.thisN'
p2634
I325
sS'.thisIndex'
p2635
I11
sg15
(lp2636
S'k'
asg30
VF
sg17
S'Y'
sg14
I7
sg19
(lp2637
S'space'
p2638
asg94
I11
sa(dp2639
g16
(lp2640
S'd'
asg18
S'Y'
sS'.thisRepN'
p2641
I21
sg20
S'Y'
sg31
g32
sS'.thisTrialN'
p2642
I11
sS'.thisN'
p2643
I326
sS'.thisIndex'
p2644
I12
sg15
(lp2645
S'k'
asg30
VF
sg17
S'N'
sg14
I7
sg19
(lp2646
S'space'
p2647
asg94
I12
sa(dp2648
g16
(lp2649
S'd'
asg18
S'N'
sS'.thisRepN'
p2650
I21
sg20
S'Y'
sg31
g32
sS'.thisTrialN'
p2651
I12
sS'.thisN'
p2652
I327
sS'.thisIndex'
p2653
I11
sg15
(lp2654
S'd'
asg30
VF
sg17
S'Y'
sg14
I7
sg19
Nsg94
I11
sa(dp2655
g16
(lp2656
S'd'
asg18
S'N'
sS'.thisRepN'
p2657
I21
sg20
S'Y'
sg31
g32
sS'.thisTrialN'
p2658
I13
sS'.thisN'
p2659
I328
sS'.thisIndex'
p2660
I0
sg15
(lp2661
S'd'
asg30
VF
sg17
S'Y'
sg14
I7
sg19
Nsg94
I0
sa(dp2662
g16
(lp2663
S'd'
asg18
S'Y'
sS'.thisRepN'
p2664
I21
sg20
S'Y'
sg31
g32
sS'.thisTrialN'
p2665
I14
sS'.thisN'
p2666
I329
sS'.thisIndex'
p2667
I14
sg15
(lp2668
S'd'
asg30
VF
sg17
S'Y'
sg14
I7
sg19
(lp2669
S'space'
p2670
asg94
I14
sa(dp2671
g16
(lp2672
S'k'
asg18
S'Y'
sS'.thisRepN'
p2673
I22
sg20
S'Y'
sg31
g32
sS'.thisTrialN'
p2674
I0
sS'.thisN'
p2675
I330
sS'.thisIndex'
p2676
I4
sg15
(lp2677
S'k'
asg30
VF
sg17
S'Y'
sg14
I7
sg19
(lp2678
S'space'
p2679
asg94
I4
sa(dp2680
g16
(lp2681
S'k'
asg18
S'Y'
sS'.thisRepN'
p2682
I22
sg20
S'Y'
sg31
g32
sS'.thisTrialN'
p2683
I1
sS'.thisN'
p2684
I331
sS'.thisIndex'
p2685
I14
sg15
(lp2686
S'k'
asg30
VF
sg17
S'Y'
sg14
I7
sg19
(lp2687
S'space'
p2688
asg94
I14
sa(dp2689
g16
(lp2690
S'k'
asg18
S'N'
sS'.thisRepN'
p2691
I22
sg20
S'Y'
sg31
g32
sS'.thisTrialN'
p2692
I2
sS'.thisN'
p2693
I332
sS'.thisIndex'
p2694
I7
sg15
(lp2695
S'k'
asg30
VF
sg17
S'Y'
sg14
I7
sg19
Nsg94
I7
sa(dp2696
g16
(lp2697
S'k'
asg18
S'Y'
sS'.thisRepN'
p2698
I22
sg20
S'Y'
sg31
g32
sS'.thisTrialN'
p2699
I3
sS'.thisN'
p2700
I333
sS'.thisIndex'
p2701
I9
sg15
(lp2702
S'k'
asg30
VF
sg17
S'Y'
sg14
I7
sg19
(lp2703
S'space'
p2704
asg94
I9
sa(dp2705
g16
(lp2706
S'k'
asg18
S'Y'
sS'.thisRepN'
p2707
I22
sg20
S'Y'
sg31
g32
sS'.thisTrialN'
p2708
I4
sS'.thisN'
p2709
I334
sS'.thisIndex'
p2710
I4
sg15
(lp2711
S'k'
asg30
VF
sg17
S'Y'
sg14
I7
sg19
(lp2712
S'space'
p2713
asg94
I4
sa(dp2714
g16
(lp2715
S'k'
asg18
S'Y'
sS'.thisRepN'
p2716
I22
sg20
S'Y'
sg31
g32
sS'.thisTrialN'
p2717
I5
sS'.thisN'
p2718
I335
sS'.thisIndex'
p2719
I5
sg15
(lp2720
S'k'
asg30
VF
sg17
S'Y'
sg14
I7
sg19
(lp2721
S'space'
p2722
asg94
I5
sa(dp2723
g16
(lp2724
S'd'
asg18
S'Y'
sS'.thisRepN'
p2725
I22
sg20
S'Y'
sg31
g32
sS'.thisTrialN'
p2726
I6
sS'.thisN'
p2727
I336
sS'.thisIndex'
p2728
I3
sg15
(lp2729
S'k'
asg30
VF
sg17
S'N'
sg14
I7
sg19
(lp2730
S'space'
p2731
asg94
I3
sa(dp2732
g16
(lp2733
S'k'
asg18
S'Y'
sS'.thisRepN'
p2734
I22
sg20
S'Y'
sg31
g32
sS'.thisTrialN'
p2735
I7
sS'.thisN'
p2736
I337
sS'.thisIndex'
p2737
I0
sg15
(lp2738
S'k'
asg30
VF
sg17
S'Y'
sg14
I7
sg19
(lp2739
S'space'
p2740
asg94
I0
sa(dp2741
g16
(lp2742
S'd'
asg18
S'Y'
sS'.thisRepN'
p2743
I22
sg20
S'Y'
sg31
g32
sS'.thisTrialN'
p2744
I8
sS'.thisN'
p2745
I338
sS'.thisIndex'
p2746
I12
sg15
(lp2747
S'd'
asg30
VF
sg17
S'Y'
sg14
I7
sg19
(lp2748
S'space'
p2749
asg94
I12
sa(dp2750
g16
(lp2751
S'd'
asg18
S'N'
sS'.thisRepN'
p2752
I22
sg20
S'Y'
sg31
g32
sS'.thisTrialN'
p2753
I9
sS'.thisN'
p2754
I339
sS'.thisIndex'
p2755
I14
sg15
(lp2756
S'k'
asg30
VF
sg17
S'N'
sg14
I7
sg19
Nsg94
I14
sa(dp2757
g16
(lp2758
S'd'
asg18
S'Y'
sS'.thisRepN'
p2759
I22
sg20
S'Y'
sg31
g32
sS'.thisTrialN'
p2760
I10
sS'.thisN'
p2761
I340
sS'.thisIndex'
p2762
I10
sg15
(lp2763
S'd'
asg30
VF
sg17
S'Y'
sg14
I7
sg19
(lp2764
S'space'
p2765
asg94
I10
sa(dp2766
g16
(lp2767
S'k'
asg18
S'N'
sS'.thisRepN'
p2768
I22
sg20
S'Y'
sg31
g32
sS'.thisTrialN'
p2769
I11
sS'.thisN'
p2770
I341
sS'.thisIndex'
p2771
I6
sg15
(lp2772
S'k'
asg30
VF
sg17
S'Y'
sg14
I7
sg19
Nsg94
I6
sa(dp2773
g16
(lp2774
S'k'
asg18
S'N'
sS'.thisRepN'
p2775
I22
sg20
S'Y'
sg31
g32
sS'.thisTrialN'
p2776
I12
sS'.thisN'
p2777
I342
sS'.thisIndex'
p2778
I9
sg15
(lp2779
S'k'
asg30
VF
sg17
S'Y'
sg14
I7
sg19
Nsg94
I9
sa(dp2780
g16
(lp2781
S'd'
asg18
S'N'
sS'.thisRepN'
p2782
I22
sg20
S'Y'
sg31
g32
sS'.thisTrialN'
p2783
I13
sS'.thisN'
p2784
I343
sS'.thisIndex'
p2785
I11
sg15
(lp2786
S'd'
asg30
VF
sg17
S'Y'
sg14
I7
sg19
Nsg94
I11
sa(dp2787
g16
(lp2788
S'k'
asg18
S'N'
sS'.thisRepN'
p2789
I22
sg20
S'Y'
sg31
g32
sS'.thisTrialN'
p2790
I14
sS'.thisN'
p2791
I344
sS'.thisIndex'
p2792
I5
sg15
(lp2793
S'k'
asg30
VF
sg17
S'Y'
sg14
I7
sg19
Nsg94
I5
sa(dp2794
g16
(lp2795
S'k'
asg18
S'N'
sS'.thisRepN'
p2796
I23
sg20
S'Y'
sg31
g32
sS'.thisTrialN'
p2797
I0
sS'.thisN'
p2798
I345
sS'.thisIndex'
p2799
I11
sg15
(lp2800
S'k'
asg30
VF
sg17
S'Y'
sg14
I7
sg19
Nsg94
I11
sa(dp2801
g16
(lp2802
S'k'
asg18
S'N'
sS'.thisRepN'
p2803
I23
sg20
S'Y'
sg31
g32
sS'.thisTrialN'
p2804
I1
sS'.thisN'
p2805
I346
sS'.thisIndex'
p2806
I2
sg15
(lp2807
S'k'
asg30
VF
sg17
S'Y'
sg14
I7
sg19
Nsg94
I2
sa(dp2808
g16
(lp2809
S'd'
asg18
S'N'
sS'.thisRepN'
p2810
I23
sg20
S'Y'
sg31
g32
sS'.thisTrialN'
p2811
I2
sS'.thisN'
p2812
I347
sS'.thisIndex'
p2813
I9
sg15
(lp2814
S'd'
asg30
VF
sg17
S'Y'
sg14
I7
sg19
Nsg94
I9
sa(dp2815
g16
(lp2816
S'd'
asg18
S'N'
sS'.thisRepN'
p2817
I23
sg20
S'Y'
sg31
g32
sS'.thisTrialN'
p2818
I3
sS'.thisN'
p2819
I348
sS'.thisIndex'
p2820
I8
sg15
(lp2821
S'd'
asg30
VF
sg17
S'Y'
sg14
I7
sg19
Nsg94
I8
sa(dp2822
g16
(lp2823
S'k'
asg18
S'N'
sg22
I46
sS'.thisN'
p2824
I349
sg20
S'Y'
sg31
g32
sS'.thisTrialN'
p2825
I4
sS'.thisRepN'
p2826
I23
sg21
I42
sS'.thisIndex'
p2827
I1
sg23
I25
sg15
(lp2828
S'd'
asg30
VF
sg17
S'N'
sg14
I7
sg19
Nsg94
I1
sa(dp2829
g16
(lp2830
S'd'
asg94
I12
sS'.thisRepN'
p2831
I23
sg30
VF
sg31
g32
sS'.thisTrialN'
p2832
I5
sS'.thisN'
p2833
I350
sS'.thisIndex'
p2834
I12
sg15
(lp2835
S'd'
asg17
S'Y'
sg14
I8
sa(dp2836
g16
(lp2837
S'd'
asg94
I7
sS'.thisRepN'
p2838
I23
sg30
VF
sg31
g32
sS'.thisTrialN'
p2839
I6
sS'.thisN'
p2840
I351
sS'.thisIndex'
p2841
I7
sg15
(lp2842
S'd'
asg17
S'Y'
sg14
I8
sa(dp2843
g16
(lp2844
S'k'
asg18
S'N'
sS'.thisRepN'
p2845
I23
sg20
S'Y'
sg31
g32
sS'.thisTrialN'
p2846
I7
sS'.thisN'
p2847
I352
sS'.thisIndex'
p2848
I10
sg15
(lp2849
S'k'
asg30
VF
sg17
S'Y'
sg14
I8
sg19
Nsg94
I10
sa(dp2850
g16
(lp2851
S'k'
asg18
S'Y'
sS'.thisRepN'
p2852
I23
sg20
S'Y'
sg31
g32
sS'.thisTrialN'
p2853
I8
sS'.thisN'
p2854
I353
sS'.thisIndex'
p2855
I6
sg15
(lp2856
S'k'
asg30
VF
sg17
S'Y'
sg14
I8
sg19
(lp2857
S'space'
p2858
asg94
I6
sa(dp2859
g16
(lp2860
S'd'
asg18
S'N'
sS'.thisRepN'
p2861
I23
sg20
S'Y'
sg31
g32
sS'.thisTrialN'
p2862
I9
sS'.thisN'
p2863
I354
sS'.thisIndex'
p2864
I13
sg15
(lp2865
S'd'
asg30
VF
sg17
S'Y'
sg14
I8
sg19
Nsg94
I13
sa(dp2866
g16
(lp2867
S'd'
asg18
S'Y'
sS'.thisRepN'
p2868
I23
sg20
S'Y'
sg31
g32
sS'.thisTrialN'
p2869
I10
sS'.thisN'
p2870
I355
sS'.thisIndex'
p2871
I3
sg15
(lp2872
S'd'
asg30
VF
sg17
S'Y'
sg14
I8
sg19
(lp2873
S'space'
p2874
asg94
I3
sa(dp2875
g16
(lp2876
S'k'
asg18
S'N'
sS'.thisRepN'
p2877
I23
sg20
S'Y'
sg31
g32
sS'.thisTrialN'
p2878
I11
sS'.thisN'
p2879
I356
sS'.thisIndex'
p2880
I5
sg15
(lp2881
S'k'
asg30
VF
sg17
S'Y'
sg14
I8
sg19
Nsg94
I5
sa(dp2882
g16
(lp2883
S'k'
asg18
S'N'
sS'.thisRepN'
p2884
I23
sg20
S'Y'
sg31
g32
sS'.thisTrialN'
p2885
I12
sS'.thisN'
p2886
I357
sS'.thisIndex'
p2887
I9
sg15
(lp2888
S'k'
asg30
VF
sg17
S'Y'
sg14
I8
sg19
Nsg94
I9
sa(dp2889
g16
(lp2890
S'k'
asg18
S'N'
sS'.thisRepN'
p2891
I23
sg20
S'Y'
sg31
g32
sS'.thisTrialN'
p2892
I13
sS'.thisN'
p2893
I358
sS'.thisIndex'
p2894
I7
sg15
(lp2895
S'k'
asg30
VF
sg17
S'Y'
sg14
I8
sg19
Nsg94
I7
sa(dp2896
g16
(lp2897
S'k'
asg18
S'Y'
sS'.thisRepN'
p2898
I23
sg20
S'Y'
sg31
g32
sS'.thisTrialN'
p2899
I14
sS'.thisN'
p2900
I359
sS'.thisIndex'
p2901
I10
sg15
(lp2902
S'k'
asg30
VF
sg17
S'Y'
sg14
I8
sg19
(lp2903
S'space'
p2904
asg94
I10
sa(dp2905
g16
(lp2906
S'k'
asg18
S'N'
sS'.thisRepN'
p2907
I24
sg20
S'Y'
sg31
g32
sS'.thisTrialN'
p2908
I0
sS'.thisN'
p2909
I360
sS'.thisIndex'
p2910
I2
sg15
(lp2911
S'k'
asg30
VF
sg17
S'Y'
sg14
I8
sg19
Nsg94
I2
sa(dp2912
g16
(lp2913
S'd'
asg18
S'Y'
sS'.thisRepN'
p2914
I24
sg20
S'Y'
sg31
g32
sS'.thisTrialN'
p2915
I1
sS'.thisN'
p2916
I361
sS'.thisIndex'
p2917
I4
sg15
(lp2918
S'd'
asg30
VF
sg17
S'Y'
sg14
I8
sg19
(lp2919
S'space'
p2920
asg94
I4
sa(dp2921
g16
(lp2922
S'k'
asg18
S'Y'
sS'.thisRepN'
p2923
I24
sg20
S'Y'
sg31
g32
sS'.thisTrialN'
p2924
I2
sS'.thisN'
p2925
I362
sS'.thisIndex'
p2926
I1
sg15
(lp2927
S'd'
asg30
VF
sg17
S'N'
sg14
I8
sg19
(lp2928
S'space'
p2929
asg94
I1
sa(dp2930
g16
(lp2931
S'k'
asg18
S'Y'
sS'.thisRepN'
p2932
I24
sg20
S'Y'
sg31
g32
sS'.thisTrialN'
p2933
I3
sS'.thisN'
p2934
I363
sS'.thisIndex'
p2935
I2
sg15
(lp2936
S'k'
asg30
VF
sg17
S'Y'
sg14
I8
sg19
(lp2937
S'space'
p2938
asg94
I2
sa(dp2939
g16
(lp2940
S'k'
asg18
S'N'
sS'.thisRepN'
p2941
I24
sg20
S'Y'
sg31
g32
sS'.thisTrialN'
p2942
I4
sS'.thisN'
p2943
I364
sS'.thisIndex'
p2944
I5
sg15
(lp2945
S'k'
asg30
VF
sg17
S'Y'
sg14
I8
sg19
Nsg94
I5
sa(dp2946
g16
(lp2947
S'k'
asg18
S'Y'
sS'.thisRepN'
p2948
I24
sg20
S'Y'
sg31
g32
sS'.thisTrialN'
p2949
I5
sS'.thisN'
p2950
I365
sS'.thisIndex'
p2951
I10
sg15
(lp2952
S'k'
asg30
VF
sg17
S'Y'
sg14
I8
sg19
(lp2953
S'space'
p2954
asg94
I10
sa(dp2955
g16
(lp2956
S'k'
asg18
S'Y'
sS'.thisRepN'
p2957
I24
sg20
S'Y'
sg31
g32
sS'.thisTrialN'
p2958
I6
sS'.thisN'
p2959
I366
sS'.thisIndex'
p2960
I5
sg15
(lp2961
S'k'
asg30
VF
sg17
S'Y'
sg14
I8
sg19
(lp2962
S'space'
p2963
asg94
I5
sa(dp2964
g16
(lp2965
S'k'
asg18
S'Y'
sS'.thisRepN'
p2966
I24
sg20
S'Y'
sg31
g32
sS'.thisTrialN'
p2967
I7
sS'.thisN'
p2968
I367
sS'.thisIndex'
p2969
I8
sg15
(lp2970
S'd'
asg30
VF
sg17
S'N'
sg14
I8
sg19
(lp2971
S'space'
p2972
asg94
I8
sa(dp2973
g16
(lp2974
S'd'
asg18
S'N'
sS'.thisRepN'
p2975
I24
sg20
S'Y'
sg31
g32
sS'.thisTrialN'
p2976
I8
sS'.thisN'
p2977
I368
sS'.thisIndex'
p2978
I0
sg15
(lp2979
S'd'
asg30
VF
sg17
S'Y'
sg14
I8
sg19
Nsg94
I0
sa(dp2980
g16
(lp2981
S'd'
asg18
S'N'
sS'.thisRepN'
p2982
I24
sg20
S'Y'
sg31
g32
sS'.thisTrialN'
p2983
I9
sS'.thisN'
p2984
I369
sS'.thisIndex'
p2985
I14
sg15
(lp2986
S'd'
asg30
VF
sg17
S'Y'
sg14
I8
sg19
Nsg94
I14
sa(dp2987
g16
(lp2988
S'd'
asg18
S'N'
sS'.thisRepN'
p2989
I24
sg20
S'Y'
sg31
g32
sS'.thisTrialN'
p2990
I10
sS'.thisN'
p2991
I370
sS'.thisIndex'
p2992
I11
sg15
(lp2993
S'd'
asg30
VF
sg17
S'Y'
sg14
I8
sg19
Nsg94
I11
sa(dp2994
g16
(lp2995
S'd'
asg18
S'Y'
sS'.thisRepN'
p2996
I24
sg20
S'Y'
sg31
g32
sS'.thisTrialN'
p2997
I11
sS'.thisN'
p2998
I371
sS'.thisIndex'
p2999
I7
sg15
(lp3000
S'k'
asg30
VF
sg17
S'N'
sg14
I8
sg19
(lp3001
S'space'
p3002
asg94
I7
sa(dp3003
g16
(lp3004
S'd'
asg18
S'N'
sS'.thisRepN'
p3005
I24
sg20
S'Y'
sg31
g32
sS'.thisTrialN'
p3006
I12
sS'.thisN'
p3007
I372
sS'.thisIndex'
p3008
I8
sg15
(lp3009
S'd'
asg30
VF
sg17
S'Y'
sg14
I8
sg19
Nsg94
I8
sa(dp3010
g16
(lp3011
S'k'
asg18
S'Y'
sS'.thisRepN'
p3012
I24
sg20
S'N'
sg31
g32
sS'.thisTrialN'
p3013
I13
sS'.thisN'
p3014
I373
sS'.thisIndex'
p3015
I6
sg15
(lp3016
S'k'
asg30
VF
sg17
S'Y'
sg14
I8
sg19
Nsg94
I6
sa(dp3017
g16
(lp3018
S'k'
asg18
S'Y'
sS'.thisRepN'
p3019
I24
sg20
S'Y'
sg31
g32
sS'.thisTrialN'
p3020
I14
sS'.thisN'
p3021
I374
sS'.thisIndex'
p3022
I9
sg15
(lp3023
S'k'
asg30
VF
sg17
S'Y'
sg14
I8
sg19
(lp3024
S'space'
p3025
asg94
I9
sa(dp3026
g16
(lp3027
S'k'
asg18
S'N'
sS'.thisRepN'
p3028
I25
sg20
S'Y'
sg31
g32
sS'.thisTrialN'
p3029
I0
sS'.thisN'
p3030
I375
sS'.thisIndex'
p3031
I8
sg15
(lp3032
S'k'
asg30
VF
sg17
S'Y'
sg14
I8
sg19
Nsg94
I8
sa(dp3033
g16
(lp3034
S'd'
asg18
S'Y'
sS'.thisRepN'
p3035
I25
sg20
S'Y'
sg31
g32
sS'.thisTrialN'
p3036
I1
sS'.thisN'
p3037
I376
sS'.thisIndex'
p3038
I2
sg15
(lp3039
S'd'
asg30
VF
sg17
S'Y'
sg14
I8
sg19
(lp3040
S'space'
p3041
asg94
I2
sa(dp3042
g16
(lp3043
S'k'
asg18
S'Y'
sS'.thisRepN'
p3044
I25
sg20
S'Y'
sg31
g32
sS'.thisTrialN'
p3045
I2
sS'.thisN'
p3046
I377
sS'.thisIndex'
p3047
I3
sg15
(lp3048
S'k'
asg30
VF
sg17
S'Y'
sg14
I8
sg19
(lp3049
S'space'
p3050
asg94
I3
sa(dp3051
g16
(lp3052
S'k'
asg18
S'Y'
sS'.thisRepN'
p3053
I25
sg20
S'Y'
sg31
g32
sS'.thisTrialN'
p3054
I3
sS'.thisN'
p3055
I378
sS'.thisIndex'
p3056
I12
sg15
(lp3057
S'k'
asg30
VF
sg17
S'Y'
sg14
I8
sg19
(lp3058
S'space'
p3059
asg94
I12
sa(dp3060
g16
(lp3061
S'k'
asg18
S'N'
sS'.thisRepN'
p3062
I25
sg20
S'Y'
sg31
g32
sS'.thisTrialN'
p3063
I4
sS'.thisN'
p3064
I379
sS'.thisIndex'
p3065
I9
sg15
(lp3066
S'k'
asg30
VF
sg17
S'Y'
sg14
I8
sg19
Nsg94
I9
sa(dp3067
g16
(lp3068
S'k'
asg18
S'Y'
sS'.thisRepN'
p3069
I25
sg20
S'Y'
sg31
g32
sS'.thisTrialN'
p3070
I5
sS'.thisN'
p3071
I380
sS'.thisIndex'
p3072
I9
sg15
(lp3073
S'k'
asg30
VF
sg17
S'Y'
sg14
I8
sg19
(lp3074
S'space'
p3075
asg94
I9
sa(dp3076
g16
(lp3077
S'k'
asg18
S'Y'
sS'.thisRepN'
p3078
I25
sg20
S'Y'
sg31
g32
sS'.thisTrialN'
p3079
I6
sS'.thisN'
p3080
I381
sS'.thisIndex'
p3081
I10
sg15
(lp3082
S'k'
asg30
VF
sg17
S'Y'
sg14
I8
sg19
(lp3083
S'space'
p3084
asg94
I10
sa(dp3085
g16
(lp3086
S'd'
asg18
S'Y'
sS'.thisRepN'
p3087
I25
sg20
S'Y'
sg31
g32
sS'.thisTrialN'
p3088
I7
sS'.thisN'
p3089
I382
sS'.thisIndex'
p3090
I4
sg15
(lp3091
S'k'
asg30
VF
sg17
S'N'
sg14
I8
sg19
(lp3092
S'space'
p3093
asg94
I4
sa(dp3094
g16
(lp3095
S'k'
asg18
S'N'
sS'.thisRepN'
p3096
I25
sg20
S'Y'
sg31
g32
sS'.thisTrialN'
p3097
I8
sS'.thisN'
p3098
I383
sS'.thisIndex'
p3099
I4
sg15
(lp3100
S'k'
asg30
VF
sg17
S'Y'
sg14
I8
sg19
Nsg94
I4
sa(dp3101
g16
(lp3102
S'd'
asg18
S'N'
sS'.thisRepN'
p3103
I25
sg20
S'Y'
sg31
g32
sS'.thisTrialN'
p3104
I9
sS'.thisN'
p3105
I384
sS'.thisIndex'
p3106
I0
sg15
(lp3107
S'd'
asg30
VF
sg17
S'Y'
sg14
I8
sg19
Nsg94
I0
sa(dp3108
g16
(lp3109
S'd'
asg18
S'Y'
sS'.thisRepN'
p3110
I25
sg20
S'Y'
sg31
g32
sS'.thisTrialN'
p3111
I10
sS'.thisN'
p3112
I385
sS'.thisIndex'
p3113
I11
sg15
(lp3114
S'k'
asg30
VF
sg17
S'N'
sg14
I8
sg19
(lp3115
S'space'
p3116
asg94
I11
sa(dp3117
g16
(lp3118
S'k'
asg18
S'N'
sS'.thisRepN'
p3119
I25
sg20
S'Y'
sg31
g32
sS'.thisTrialN'
p3120
I11
sS'.thisN'
p3121
I386
sS'.thisIndex'
p3122
I14
sg15
(lp3123
S'd'
asg30
VF
sg17
S'N'
sg14
I8
sg19
Nsg94
I14
sa(dp3124
g16
(lp3125
S'k'
asg18
S'N'
sS'.thisRepN'
p3126
I25
sg20
S'Y'
sg31
g32
sS'.thisTrialN'
p3127
I12
sS'.thisN'
p3128
I387
sS'.thisIndex'
p3129
I6
sg15
(lp3130
S'k'
asg30
VF
sg17
S'Y'
sg14
I8
sg19
Nsg94
I6
sa(dp3131
g16
(lp3132
S'd'
asg18
S'Y'
sS'.thisRepN'
p3133
I25
sg20
S'Y'
sg31
g32
sS'.thisTrialN'
p3134
I13
sS'.thisN'
p3135
I388
sS'.thisIndex'
p3136
I11
sg15
(lp3137
S'k'
asg30
VF
sg17
S'N'
sg14
I8
sg19
(lp3138
S'space'
p3139
asg94
I11
sa(dp3140
g16
(lp3141
S'k'
asg18
S'Y'
sS'.thisRepN'
p3142
I25
sg20
S'N'
sg31
g32
sS'.thisTrialN'
p3143
I14
sS'.thisN'
p3144
I389
sS'.thisIndex'
p3145
I10
sg15
(lp3146
S'k'
asg30
VF
sg17
S'Y'
sg14
I8
sg19
(lp3147
S'k'
asg94
I10
sa(dp3148
g16
(lp3149
S'k'
asg18
S'N'
sS'.thisRepN'
p3150
I26
sg20
S'Y'
sg31
g32
sS'.thisTrialN'
p3151
I0
sS'.thisN'
p3152
I390
sS'.thisIndex'
p3153
I5
sg15
(lp3154
S'k'
asg30
VF
sg17
S'Y'
sg14
I8
sg19
Nsg94
I5
sa(dp3155
g16
(lp3156
S'k'
asg18
S'N'
sS'.thisRepN'
p3157
I26
sg20
S'Y'
sg31
g32
sS'.thisTrialN'
p3158
I1
sS'.thisN'
p3159
I391
sS'.thisIndex'
p3160
I0
sg15
(lp3161
S'k'
asg30
VF
sg17
S'Y'
sg14
I8
sg19
Nsg94
I0
sa(dp3162
g16
(lp3163
S'k'
asg18
S'Y'
sS'.thisRepN'
p3164
I26
sg20
S'Y'
sg31
g32
sS'.thisTrialN'
p3165
I2
sS'.thisN'
p3166
I392
sS'.thisIndex'
p3167
I5
sg15
(lp3168
S'k'
asg30
VF
sg17
S'Y'
sg14
I8
sg19
(lp3169
S'space'
p3170
asg94
I5
sa(dp3171
g16
(lp3172
S'd'
asg18
S'N'
sS'.thisRepN'
p3173
I26
sg20
S'Y'
sg31
g32
sS'.thisTrialN'
p3174
I3
sS'.thisN'
p3175
I393
sS'.thisIndex'
p3176
I9
sg15
(lp3177
S'd'
asg30
VF
sg17
S'Y'
sg14
I8
sg19
Nsg94
I9
sa(dp3178
g16
(lp3179
S'k'
asg18
S'Y'
sS'.thisRepN'
p3180
I26
sg20
S'Y'
sg31
g32
sS'.thisTrialN'
p3181
I4
sS'.thisN'
p3182
I394
sS'.thisIndex'
p3183
I1
sg15
(lp3184
S'k'
asg30
VF
sg17
S'Y'
sg14
I8
sg19
(lp3185
S'space'
p3186
asg94
I1
sa(dp3187
g16
(lp3188
S'd'
asg18
S'N'
sS'.thisRepN'
p3189
I26
sg20
S'Y'
sg31
g32
sS'.thisTrialN'
p3190
I5
sS'.thisN'
p3191
I395
sS'.thisIndex'
p3192
I7
sg15
(lp3193
S'd'
asg30
VF
sg17
S'Y'
sg14
I8
sg19
Nsg94
I7
sa(dp3194
g16
(lp3195
S'k'
asg18
S'Y'
sS'.thisRepN'
p3196
I26
sg20
S'Y'
sg31
g32
sS'.thisTrialN'
p3197
I6
sS'.thisN'
p3198
I396
sS'.thisIndex'
p3199
I3
sg15
(lp3200
S'k'
asg30
VF
sg17
S'Y'
sg14
I8
sg19
(lp3201
S'space'
p3202
asg94
I3
sa(dp3203
g16
(lp3204
S'd'
asg18
S'N'
sS'.thisRepN'
p3205
I26
sg20
S'Y'
sg31
g32
sS'.thisTrialN'
p3206
I7
sS'.thisN'
p3207
I397
sS'.thisIndex'
p3208
I7
sg15
(lp3209
S'd'
asg30
VF
sg17
S'Y'
sg14
I8
sg19
Nsg94
I7
sa(dp3210
g16
(lp3211
S'k'
asg18
S'Y'
sS'.thisRepN'
p3212
I26
sg20
S'Y'
sg31
g32
sS'.thisTrialN'
p3213
I8
sS'.thisN'
p3214
I398
sS'.thisIndex'
p3215
I6
sg15
(lp3216
S'k'
asg30
VF
sg17
S'Y'
sg14
I8
sg19
(lp3217
S'space'
p3218
asg94
I6
sa(dp3219
g16
(lp3220
S'k'
asg18
S'N'
sg22
I46
sS'.thisN'
p3221
I399
sg20
S'Y'
sg31
g32
sS'.thisTrialN'
p3222
I9
sS'.thisRepN'
p3223
I26
sg21
I42
sS'.thisIndex'
p3224
I1
sg23
I25
sg15
(lp3225
S'd'
asg30
VF
sg17
S'N'
sg14
I8
sg19
Nsg94
I1
sa(dp3226
g16
(lp3227
S'd'
asg94
I4
sS'.thisRepN'
p3228
I26
sg30
VF
sg31
g32
sS'.thisTrialN'
p3229
I10
sS'.thisN'
p3230
I400
sS'.thisIndex'
p3231
I4
sg15
(lp3232
S'k'
asg17
S'N'
sg14
I9
sa(dp3233
g16
(lp3234
S'd'
asg94
I3
sS'.thisRepN'
p3235
I26
sg30
VF
sg31
g32
sS'.thisTrialN'
p3236
I11
sS'.thisN'
p3237
I401
sS'.thisIndex'
p3238
I3
sg15
(lp3239
S'd'
asg17
S'Y'
sg14
I9
sa(dp3240
g16
(lp3241
S'd'
asg18
S'N'
sS'.thisRepN'
p3242
I26
sg20
S'Y'
sg31
g32
sS'.thisTrialN'
p3243
I12
sS'.thisN'
p3244
I402
sS'.thisIndex'
p3245
I4
sg15
(lp3246
S'd'
asg30
VF
sg17
S'Y'
sg14
I9
sg19
Nsg94
I4
sa(dp3247
g16
(lp3248
S'd'
asg18
S'Y'
sS'.thisRepN'
p3249
I26
sg20
S'Y'
sg31
g32
sS'.thisTrialN'
p3250
I13
sS'.thisN'
p3251
I403
sS'.thisIndex'
p3252
I6
sg15
(lp3253
S'd'
asg30
VF
sg17
S'Y'
sg14
I9
sg19
(lp3254
S'space'
p3255
asg94
I6
sa(dp3256
g16
(lp3257
S'd'
asg18
S'N'
sS'.thisRepN'
p3258
I26
sg20
S'Y'
sg31
g32
sS'.thisTrialN'
p3259
I14
sS'.thisN'
p3260
I404
sS'.thisIndex'
p3261
I6
sg15
(lp3262
S'd'
asg30
VF
sg17
S'Y'
sg14
I9
sg19
Nsg94
I6
sa(dp3263
g16
(lp3264
S'k'
asg18
S'Y'
sS'.thisRepN'
p3265
I27
sg20
S'Y'
sg31
g32
sS'.thisTrialN'
p3266
I0
sS'.thisN'
p3267
I405
sS'.thisIndex'
p3268
I8
sg15
(lp3269
S'k'
asg30
VF
sg17
S'Y'
sg14
I9
sg19
(lp3270
S'space'
p3271
asg94
I8
sa(dp3272
g16
(lp3273
S'k'
asg18
S'N'
sS'.thisRepN'
p3274
I27
sg20
S'Y'
sg31
g32
sS'.thisTrialN'
p3275
I1
sS'.thisN'
p3276
I406
sS'.thisIndex'
p3277
I3
sg15
(lp3278
S'k'
asg30
VF
sg17
S'Y'
sg14
I9
sg19
Nsg94
I3
sa(dp3279
g16
(lp3280
S'd'
asg18
S'Y'
sS'.thisRepN'
p3281
I27
sg20
S'Y'
sg31
g32
sS'.thisTrialN'
p3282
I2
sS'.thisN'
p3283
I407
sS'.thisIndex'
p3284
I11
sg15
(lp3285
S'k'
asg30
VF
sg17
S'N'
sg14
I9
sg19
(lp3286
S'space'
p3287
asg94
I11
sa(dp3288
g16
(lp3289
S'k'
asg18
S'N'
sS'.thisRepN'
p3290
I27
sg20
S'Y'
sg31
g32
sS'.thisTrialN'
p3291
I3
sS'.thisN'
p3292
I408
sS'.thisIndex'
p3293
I0
sg15
(lp3294
S'k'
asg30
VF
sg17
S'Y'
sg14
I9
sg19
Nsg94
I0
sa(dp3295
g16
(lp3296
S'k'
asg18
S'N'
sS'.thisRepN'
p3297
I27
sg20
S'N'
sg31
g32
sS'.thisTrialN'
p3298
I4
sS'.thisN'
p3299
I409
sS'.thisIndex'
p3300
I8
sg15
(lp3301
S'k'
asg30
VF
sg17
S'Y'
sg14
I9
sg19
(lp3302
S'space'
p3303
asg94
I8
sa(dp3304
g16
(lp3305
S'd'
asg18
S'Y'
sS'.thisRepN'
p3306
I27
sg20
S'Y'
sg31
g32
sS'.thisTrialN'
p3307
I5
sS'.thisN'
p3308
I410
sS'.thisIndex'
p3309
I6
sg15
(lp3310
S'd'
asg30
VF
sg17
S'Y'
sg14
I9
sg19
(lp3311
S'space'
p3312
asg94
I6
sa(dp3313
g16
(lp3314
S'k'
asg18
S'Y'
sS'.thisRepN'
p3315
I27
sg20
S'Y'
sg31
g32
sS'.thisTrialN'
p3316
I6
sS'.thisN'
p3317
I411
sS'.thisIndex'
p3318
I14
sg15
(lp3319
S'k'
asg30
VF
sg17
S'Y'
sg14
I9
sg19
(lp3320
S'space'
p3321
asg94
I14
sa(dp3322
g16
(lp3323
S'k'
asg18
S'N'
sS'.thisRepN'
p3324
I27
sg20
S'Y'
sg31
g32
sS'.thisTrialN'
p3325
I7
sS'.thisN'
p3326
I412
sS'.thisIndex'
p3327
I12
sg15
(lp3328
S'd'
asg30
VF
sg17
S'N'
sg14
I9
sg19
Nsg94
I12
sa(dp3329
g16
(lp3330
S'k'
asg18
S'N'
sS'.thisRepN'
p3331
I27
sg20
S'Y'
sg31
g32
sS'.thisTrialN'
p3332
I8
sS'.thisN'
p3333
I413
sS'.thisIndex'
p3334
I2
sg15
(lp3335
S'k'
asg30
VF
sg17
S'Y'
sg14
I9
sg19
Nsg94
I2
sa(dp3336
g16
(lp3337
S'k'
asg18
S'N'
sS'.thisRepN'
p3338
I27
sg20
S'Y'
sg31
g32
sS'.thisTrialN'
p3339
I9
sS'.thisN'
p3340
I414
sS'.thisIndex'
p3341
I1
sg15
(lp3342
S'k'
asg30
VF
sg17
S'Y'
sg14
I9
sg19
Nsg94
I1
sa(dp3343
g16
(lp3344
S'd'
asg18
S'Y'
sS'.thisRepN'
p3345
I27
sg20
S'Y'
sg31
g32
sS'.thisTrialN'
p3346
I10
sS'.thisN'
p3347
I415
sS'.thisIndex'
p3348
I0
sg15
(lp3349
S'd'
asg30
VF
sg17
S'Y'
sg14
I9
sg19
(lp3350
S'space'
p3351
asg94
I0
sa(dp3352
g16
(lp3353
S'k'
asg18
S'N'
sS'.thisRepN'
p3354
I27
sg20
S'Y'
sg31
g32
sS'.thisTrialN'
p3355
I11
sS'.thisN'
p3356
I416
sS'.thisIndex'
p3357
I6
sg15
(lp3358
S'k'
asg30
VF
sg17
S'Y'
sg14
I9
sg19
Nsg94
I6
sa(dp3359
g16
(lp3360
S'd'
asg18
S'N'
sS'.thisRepN'
p3361
I27
sg20
S'Y'
sg31
g32
sS'.thisTrialN'
p3362
I12
sS'.thisN'
p3363
I417
sS'.thisIndex'
p3364
I3
sg15
(lp3365
S'd'
asg30
VF
sg17
S'Y'
sg14
I9
sg19
Nsg94
I3
sa(dp3366
g16
(lp3367
S'd'
asg18
S'Y'
sS'.thisRepN'
p3368
I27
sg20
S'Y'
sg31
g32
sS'.thisTrialN'
p3369
I13
sS'.thisN'
p3370
I418
sS'.thisIndex'
p3371
I1
sg15
(lp3372
S'd'
asg30
VF
sg17
S'Y'
sg14
I9
sg19
(lp3373
S'space'
p3374
asg94
I1
sa(dp3375
g16
(lp3376
S'k'
asg18
S'Y'
sS'.thisRepN'
p3377
I27
sg20
S'Y'
sg31
g32
sS'.thisTrialN'
p3378
I14
sS'.thisN'
p3379
I419
sS'.thisIndex'
p3380
I0
sg15
(lp3381
S'k'
asg30
VF
sg17
S'Y'
sg14
I9
sg19
(lp3382
S'space'
p3383
asg94
I0
sa(dp3384
g16
(lp3385
S'd'
asg18
S'Y'
sS'.thisRepN'
p3386
I28
sg20
S'N'
sg31
g32
sS'.thisTrialN'
p3387
I0
sS'.thisN'
p3388
I420
sS'.thisIndex'
p3389
I12
sg15
(lp3390
S'k'
asg30
VF
sg17
S'N'
sg14
I9
sg19
Nsg94
I12
sa(dp3391
g16
(lp3392
S'd'
asg18
S'N'
sS'.thisRepN'
p3393
I28
sg20
S'Y'
sg31
g32
sS'.thisTrialN'
p3394
I1
sS'.thisN'
p3395
I421
sS'.thisIndex'
p3396
I9
sg15
(lp3397
S'd'
asg30
VF
sg17
S'Y'
sg14
I9
sg19
Nsg94
I9
sa(dp3398
g16
(lp3399
S'k'
asg18
S'N'
sS'.thisRepN'
p3400
I28
sg20
S'Y'
sg31
g32
sS'.thisTrialN'
p3401
I2
sS'.thisN'
p3402
I422
sS'.thisIndex'
p3403
I14
sg15
(lp3404
S'k'
asg30
VF
sg17
S'Y'
sg14
I9
sg19
Nsg94
I14
sa(dp3405
g16
(lp3406
S'k'
asg18
S'N'
sS'.thisRepN'
p3407
I28
sg20
S'Y'
sg31
g32
sS'.thisTrialN'
p3408
I3
sS'.thisN'
p3409
I423
sS'.thisIndex'
p3410
I0
sg15
(lp3411
S'k'
asg30
VF
sg17
S'Y'
sg14
I9
sg19
Nsg94
I0
sa(dp3412
g16
(lp3413
S'k'
asg18
S'N'
sS'.thisRepN'
p3414
I28
sg20
S'N'
sg31
g32
sS'.thisTrialN'
p3415
I4
sS'.thisN'
p3416
I424
sS'.thisIndex'
p3417
I10
sg15
(lp3418
S'k'
asg30
VF
sg17
S'Y'
sg14
I9
sg19
(lp3419
S'space'
p3420
asg94
I10
sa(dp3421
g16
(lp3422
S'k'
asg18
S'Y'
sS'.thisRepN'
p3423
I28
sg20
S'Y'
sg31
g32
sS'.thisTrialN'
p3424
I5
sS'.thisN'
p3425
I425
sS'.thisIndex'
p3426
I13
sg15
(lp3427
S'k'
asg30
VF
sg17
S'Y'
sg14
I9
sg19
(lp3428
S'space'
p3429
asg94
I13
sa(dp3430
g16
(lp3431
S'k'
asg18
S'Y'
sS'.thisRepN'
p3432
I28
sg20
S'Y'
sg31
g32
sS'.thisTrialN'
p3433
I6
sS'.thisN'
p3434
I426
sS'.thisIndex'
p3435
I2
sg15
(lp3436
S'd'
asg30
VF
sg17
S'N'
sg14
I9
sg19
(lp3437
S'space'
p3438
asg94
I2
sa(dp3439
g16
(lp3440
S'k'
asg18
S'Y'
sS'.thisRepN'
p3441
I28
sg20
S'Y'
sg31
g32
sS'.thisTrialN'
p3442
I7
sS'.thisN'
p3443
I427
sS'.thisIndex'
p3444
I10
sg15
(lp3445
S'k'
asg30
VF
sg17
S'Y'
sg14
I9
sg19
(lp3446
S'space'
p3447
asg94
I10
sa(dp3448
g16
(lp3449
S'd'
asg18
S'N'
sS'.thisRepN'
p3450
I28
sg20
S'Y'
sg31
g32
sS'.thisTrialN'
p3451
I8
sS'.thisN'
p3452
I428
sS'.thisIndex'
p3453
I6
sg15
(lp3454
S'd'
asg30
VF
sg17
S'Y'
sg14
I9
sg19
Nsg94
I6
sa(dp3455
g16
(lp3456
S'd'
asg18
S'Y'
sS'.thisRepN'
p3457
I28
sg20
S'Y'
sg31
g32
sS'.thisTrialN'
p3458
I9
sS'.thisN'
p3459
I429
sS'.thisIndex'
p3460
I6
sg15
(lp3461
S'd'
asg30
VF
sg17
S'Y'
sg14
I9
sg19
(lp3462
S'space'
p3463
asg94
I6
sa(dp3464
g16
(lp3465
S'd'
asg18
S'Y'
sS'.thisRepN'
p3466
I28
sg20
S'Y'
sg31
g32
sS'.thisTrialN'
p3467
I10
sS'.thisN'
p3468
I430
sS'.thisIndex'
p3469
I3
sg15
(lp3470
S'd'
asg30
VF
sg17
S'Y'
sg14
I9
sg19
(lp3471
S'space'
p3472
asg94
I3
sa(dp3473
g16
(lp3474
S'd'
asg18
S'Y'
sS'.thisRepN'
p3475
I28
sg20
S'Y'
sg31
g32
sS'.thisTrialN'
p3476
I11
sS'.thisN'
p3477
I431
sS'.thisIndex'
p3478
I14
sg15
(lp3479
S'k'
asg30
VF
sg17
S'N'
sg14
I9
sg19
(lp3480
S'space'
p3481
asg94
I14
sa(dp3482
g16
(lp3483
S'd'
asg18
S'Y'
sS'.thisRepN'
p3484
I28
sg20
S'Y'
sg31
g32
sS'.thisTrialN'
p3485
I12
sS'.thisN'
p3486
I432
sS'.thisIndex'
p3487
I0
sg15
(lp3488
S'd'
asg30
VF
sg17
S'Y'
sg14
I9
sg19
(lp3489
S'space'
p3490
asg94
I0
sa(dp3491
g16
(lp3492
S'k'
asg18
S'Y'
sS'.thisRepN'
p3493
I28
sg20
S'Y'
sg31
g32
sS'.thisTrialN'
p3494
I13
sS'.thisN'
p3495
I433
sS'.thisIndex'
p3496
I1
sg15
(lp3497
S'd'
asg30
VF
sg17
S'N'
sg14
I9
sg19
(lp3498
S'space'
p3499
asg94
I1
sa(dp3500
g16
(lp3501
S'd'
asg18
S'N'
sS'.thisRepN'
p3502
I28
sg20
S'Y'
sg31
g32
sS'.thisTrialN'
p3503
I14
sS'.thisN'
p3504
I434
sS'.thisIndex'
p3505
I11
sg15
(lp3506
S'd'
asg30
VF
sg17
S'Y'
sg14
I9
sg19
Nsg94
I11
sa(dp3507
g16
(lp3508
S'k'
asg18
S'N'
sS'.thisRepN'
p3509
I29
sg20
S'Y'
sg31
g32
sS'.thisTrialN'
p3510
I0
sS'.thisN'
p3511
I435
sS'.thisIndex'
p3512
I7
sg15
(lp3513
S'd'
asg30
VF
sg17
S'N'
sg14
I9
sg19
Nsg94
I7
sa(dp3514
g16
(lp3515
S'd'
asg18
S'N'
sS'.thisRepN'
p3516
I29
sg20
S'Y'
sg31
g32
sS'.thisTrialN'
p3517
I1
sS'.thisN'
p3518
I436
sS'.thisIndex'
p3519
I13
sg15
(lp3520
S'd'
asg30
VF
sg17
S'Y'
sg14
I9
sg19
Nsg94
I13
sa(dp3521
g16
(lp3522
S'k'
asg18
S'Y'
sS'.thisRepN'
p3523
I29
sg20
S'Y'
sg31
g32
sS'.thisTrialN'
p3524
I2
sS'.thisN'
p3525
I437
sS'.thisIndex'
p3526
I10
sg15
(lp3527
S'k'
asg30
VF
sg17
S'Y'
sg14
I9
sg19
(lp3528
S'space'
p3529
asg94
I10
sa(dp3530
g16
(lp3531
S'k'
asg18
S'N'
sS'.thisRepN'
p3532
I29
sg20
S'Y'
sg31
g32
sS'.thisTrialN'
p3533
I3
sS'.thisN'
p3534
I438
sS'.thisIndex'
p3535
I14
sg15
(lp3536
S'k'
asg30
VF
sg17
S'Y'
sg14
I9
sg19
Nsg94
I14
sa(dp3537
g16
(lp3538
S'k'
asg18
S'N'
sS'.thisRepN'
p3539
I29
sg20
S'Y'
sg31
g32
sS'.thisTrialN'
p3540
I4
sS'.thisN'
p3541
I439
sS'.thisIndex'
p3542
I1
sg15
(lp3543
S'k'
asg30
VF
sg17
S'Y'
sg14
I9
sg19
Nsg94
I1
sa(dp3544
g16
(lp3545
S'k'
asg18
S'N'
sS'.thisRepN'
p3546
I29
sg20
S'Y'
sg31
g32
sS'.thisTrialN'
p3547
I5
sS'.thisN'
p3548
I440
sS'.thisIndex'
p3549
I8
sg15
(lp3550
S'k'
asg30
VF
sg17
S'Y'
sg14
I9
sg19
Nsg94
I8
sa(dp3551
g16
(lp3552
S'k'
asg18
S'Y'
sS'.thisRepN'
p3553
I29
sg20
S'Y'
sg31
g32
sS'.thisTrialN'
p3554
I6
sS'.thisN'
p3555
I441
sS'.thisIndex'
p3556
I13
sg15
(lp3557
S'k'
asg30
VF
sg17
S'Y'
sg14
I9
sg19
(lp3558
S'space'
p3559
asg94
I13
sa(dp3560
g16
(lp3561
S'k'
asg18
S'Y'
sS'.thisRepN'
p3562
I29
sg20
S'Y'
sg31
g32
sS'.thisTrialN'
p3563
I7
sS'.thisN'
p3564
I442
sS'.thisIndex'
p3565
I6
sg15
(lp3566
S'd'
asg30
VF
sg17
S'N'
sg14
I9
sg19
(lp3567
S'space'
p3568
asg94
I6
sa(dp3569
g16
(lp3570
S'k'
asg18
S'Y'
sS'.thisRepN'
p3571
I29
sg20
S'Y'
sg31
g32
sS'.thisTrialN'
p3572
I8
sS'.thisN'
p3573
I443
sS'.thisIndex'
p3574
I7
sg15
(lp3575
S'k'
asg30
VF
sg17
S'Y'
sg14
I9
sg19
(lp3576
S'space'
p3577
asg94
I7
sa(dp3578
g16
(lp3579
S'd'
asg18
S'N'
sS'.thisRepN'
p3580
I29
sg20
S'Y'
sg31
g32
sS'.thisTrialN'
p3581
I9
sS'.thisN'
p3582
I444
sS'.thisIndex'
p3583
I1
sg15
(lp3584
S'd'
asg30
VF
sg17
S'Y'
sg14
I9
sg19
Nsg94
I1
sa(dp3585
g16
(lp3586
S'd'
asg18
S'N'
sS'.thisRepN'
p3587
I29
sg20
S'Y'
sg31
g32
sS'.thisTrialN'
p3588
I10
sS'.thisN'
p3589
I445
sS'.thisIndex'
p3590
I9
sg15
(lp3591
S'd'
asg30
VF
sg17
S'Y'
sg14
I9
sg19
Nsg94
I9
sa(dp3592
g16
(lp3593
S'd'
asg18
S'Y'
sS'.thisRepN'
p3594
I29
sg20
S'Y'
sg31
g32
sS'.thisTrialN'
p3595
I11
sS'.thisN'
p3596
I446
sS'.thisIndex'
p3597
I6
sg15
(lp3598
S'd'
asg30
VF
sg17
S'Y'
sg14
I9
sg19
(lp3599
S'space'
p3600
asg94
I6
sa(dp3601
g16
(lp3602
S'd'
asg18
S'Y'
sS'.thisRepN'
p3603
I29
sg20
S'Y'
sg31
g32
sS'.thisTrialN'
p3604
I12
sS'.thisN'
p3605
I447
sS'.thisIndex'
p3606
I0
sg15
(lp3607
S'd'
asg30
VF
sg17
S'Y'
sg14
I9
sg19
(lp3608
S'space'
p3609
asg94
I0
sa(dp3610
g16
(lp3611
S'd'
asg18
S'Y'
sS'.thisRepN'
p3612
I29
sg20
S'Y'
sg31
g32
sS'.thisTrialN'
p3613
I13
sS'.thisN'
p3614
I448
sS'.thisIndex'
p3615
I1
sg15
(lp3616
S'd'
asg30
VF
sg17
S'Y'
sg14
I9
sg19
(lp3617
S'space'
p3618
asg94
I1
sa(dp3619
g16
(lp3620
S'k'
asg18
S'Y'
sg22
I45
sS'.thisN'
p3621
I449
sg20
S'Y'
sg31
g32
sS'.thisTrialN'
p3622
I14
sS'.thisRepN'
p3623
I29
sg21
I40
sS'.thisIndex'
p3624
I5
sg23
I25
sg15
(lp3625
S'd'
asg30
VF
sg17
S'N'
sg14
I9
sg19
(lp3626
S'space'
p3627
asg94
I5
sa(dp3628
g16
(lp3629
S'k'
asg94
I7
sS'.thisRepN'
p3630
I30
sg30
VF
sg31
g32
sS'.thisTrialN'
p3631
I0
sS'.thisN'
p3632
I450
sS'.thisIndex'
p3633
I7
sg15
(lp3634
S'k'
asg17
S'Y'
sg14
I10
sa(dp3635
g16
(lp3636
S'k'
asg94
I4
sS'.thisRepN'
p3637
I30
sg30
VF
sg31
g32
sS'.thisTrialN'
p3638
I1
sS'.thisN'
p3639
I451
sS'.thisIndex'
p3640
I4
sg15
(lp3641
S'k'
asg17
S'Y'
sg14
I10
sa(dp3642
g16
(lp3643
S'k'
asg18
S'Y'
sS'.thisRepN'
p3644
I30
sg20
S'Y'
sg31
g32
sS'.thisTrialN'
p3645
I2
sS'.thisN'
p3646
I452
sS'.thisIndex'
p3647
I8
sg15
(lp3648
S'k'
asg30
VF
sg17
S'Y'
sg14
I10
sg19
(lp3649
S'space'
p3650
asg94
I8
sa(dp3651
g16
(lp3652
S'd'
asg18
S'N'
sS'.thisRepN'
p3653
I30
sg20
S'Y'
sg31
g32
sS'.thisTrialN'
p3654
I3
sS'.thisN'
p3655
I453
sS'.thisIndex'
p3656
I7
sg15
(lp3657
S'd'
asg30
VF
sg17
S'Y'
sg14
I10
sg19
Nsg94
I7
sa(dp3658
g16
(lp3659
S'k'
asg18
S'Y'
sS'.thisRepN'
p3660
I30
sg20
S'Y'
sg31
g32
sS'.thisTrialN'
p3661
I4
sS'.thisN'
p3662
I454
sS'.thisIndex'
p3663
I5
sg15
(lp3664
S'k'
asg30
VF
sg17
S'Y'
sg14
I10
sg19
(lp3665
S'space'
p3666
asg94
I5
sa(dp3667
g16
(lp3668
S'd'
asg18
S'Y'
sS'.thisRepN'
p3669
I30
sg20
S'Y'
sg31
g32
sS'.thisTrialN'
p3670
I5
sS'.thisN'
p3671
I455
sS'.thisIndex'
p3672
I12
sg15
(lp3673
S'd'
asg30
VF
sg17
S'Y'
sg14
I10
sg19
(lp3674
S'space'
p3675
asg94
I12
sa(dp3676
g16
(lp3677
S'k'
asg18
S'N'
sS'.thisRepN'
p3678
I30
sg20
S'Y'
sg31
g32
sS'.thisTrialN'
p3679
I6
sS'.thisN'
p3680
I456
sS'.thisIndex'
p3681
I7
sg15
(lp3682
S'k'
asg30
VF
sg17
S'Y'
sg14
I10
sg19
Nsg94
I7
sa(dp3683
g16
(lp3684
S'k'
asg18
S'Y'
sS'.thisRepN'
p3685
I30
sg20
S'Y'
sg31
g32
sS'.thisTrialN'
p3686
I7
sS'.thisN'
p3687
I457
sS'.thisIndex'
p3688
I9
sg15
(lp3689
S'k'
asg30
VF
sg17
S'Y'
sg14
I10
sg19
(lp3690
S'space'
p3691
asg94
I9
sa(dp3692
g16
(lp3693
S'k'
asg18
S'Y'
sS'.thisRepN'
p3694
I30
sg20
S'Y'
sg31
g32
sS'.thisTrialN'
p3695
I8
sS'.thisN'
p3696
I458
sS'.thisIndex'
p3697
I5
sg15
(lp3698
S'k'
asg30
VF
sg17
S'Y'
sg14
I10
sg19
(lp3699
S'space'
p3700
asg94
I5
sa(dp3701
g16
(lp3702
S'd'
asg18
S'N'
sS'.thisRepN'
p3703
I30
sg20
S'N'
sg31
g32
sS'.thisTrialN'
p3704
I9
sS'.thisN'
p3705
I459
sS'.thisIndex'
p3706
I10
sg15
(lp3707
S'd'
asg30
VF
sg17
S'Y'
sg14
I10
sg19
(lp3708
S'space'
p3709
asg94
I10
sa(dp3710
g16
(lp3711
S'd'
asg18
S'N'
sS'.thisRepN'
p3712
I30
sg20
S'Y'
sg31
g32
sS'.thisTrialN'
p3713
I10
sS'.thisN'
p3714
I460
sS'.thisIndex'
p3715
I13
sg15
(lp3716
S'd'
asg30
VF
sg17
S'Y'
sg14
I10
sg19
Nsg94
I13
sa(dp3717
g16
(lp3718
S'd'
asg18
S'Y'
sS'.thisRepN'
p3719
I30
sg20
S'N'
sg31
g32
sS'.thisTrialN'
p3720
I11
sS'.thisN'
p3721
I461
sS'.thisIndex'
p3722
I6
sg15
(lp3723
S'd'
asg30
VF
sg17
S'Y'
sg14
I10
sg19
Nsg94
I6
sa(dp3724
g16
(lp3725
S'k'
asg18
S'Y'
sS'.thisRepN'
p3726
I30
sg20
S'Y'
sg31
g32
sS'.thisTrialN'
p3727
I12
sS'.thisN'
p3728
I462
sS'.thisIndex'
p3729
I2
sg15
(lp3730
S'k'
asg30
VF
sg17
S'Y'
sg14
I10
sg19
(lp3731
S'space'
p3732
asg94
I2
sa(dp3733
g16
(lp3734
S'k'
asg18
S'N'
sS'.thisRepN'
p3735
I30
sg20
S'Y'
sg31
g32
sS'.thisTrialN'
p3736
I13
sS'.thisN'
p3737
I463
sS'.thisIndex'
p3738
I11
sg15
(lp3739
S'd'
asg30
VF
sg17
S'N'
sg14
I10
sg19
Nsg94
I11
sa(dp3740
g16
(lp3741
S'd'
asg18
S'N'
sS'.thisRepN'
p3742
I30
sg20
S'Y'
sg31
g32
sS'.thisTrialN'
p3743
I14
sS'.thisN'
p3744
I464
sS'.thisIndex'
p3745
I3
sg15
(lp3746
S'd'
asg30
VF
sg17
S'Y'
sg14
I10
sg19
Nsg94
I3
sa(dp3747
g16
(lp3748
S'd'
asg18
S'N'
sS'.thisRepN'
p3749
I31
sg20
S'Y'
sg31
g32
sS'.thisTrialN'
p3750
I0
sS'.thisN'
p3751
I465
sS'.thisIndex'
p3752
I6
sg15
(lp3753
S'd'
asg30
VF
sg17
S'Y'
sg14
I10
sg19
Nsg94
I6
sa(dp3754
g16
(lp3755
S'k'
asg18
S'Y'
sS'.thisRepN'
p3756
I31
sg20
S'Y'
sg31
g32
sS'.thisTrialN'
p3757
I1
sS'.thisN'
p3758
I466
sS'.thisIndex'
p3759
I12
sg15
(lp3760
S'k'
asg30
VF
sg17
S'Y'
sg14
I10
sg19
(lp3761
S'space'
p3762
asg94
I12
sa(dp3763
g16
(lp3764
S'd'
asg18
S'N'
sS'.thisRepN'
p3765
I31
sg20
S'Y'
sg31
g32
sS'.thisTrialN'
p3766
I2
sS'.thisN'
p3767
I467
sS'.thisIndex'
p3768
I12
sg15
(lp3769
S'd'
asg30
VF
sg17
S'Y'
sg14
I10
sg19
Nsg94
I12
sa(dp3770
g16
(lp3771
S'k'
asg18
S'Y'
sS'.thisRepN'
p3772
I31
sg20
S'N'
sg31
g32
sS'.thisTrialN'
p3773
I3
sS'.thisN'
p3774
I468
sS'.thisIndex'
p3775
I14
sg15
(lp3776
S'k'
asg30
VF
sg17
S'Y'
sg14
I10
sg19
Nsg94
I14
sa(dp3777
g16
(lp3778
S'd'
asg18
S'N'
sS'.thisRepN'
p3779
I31
sg20
S'N'
sg31
g32
sS'.thisTrialN'
p3780
I4
sS'.thisN'
p3781
I469
sS'.thisIndex'
p3782
I4
sg15
(lp3783
S'd'
asg30
VF
sg17
S'Y'
sg14
I10
sg19
(lp3784
S'k'
asg94
I4
sa(dp3785
g16
(lp3786
S'd'
asg18
S'N'
sS'.thisRepN'
p3787
I31
sg20
S'Y'
sg31
g32
sS'.thisTrialN'
p3788
I5
sS'.thisN'
p3789
I470
sS'.thisIndex'
p3790
I5
sg15
(lp3791
S'd'
asg30
VF
sg17
S'Y'
sg14
I10
sg19
Nsg94
I5
sa(dp3792
g16
(lp3793
S'd'
asg18
S'Y'
sS'.thisRepN'
p3794
I31
sg20
S'N'
sg31
g32
sS'.thisTrialN'
p3795
I6
sS'.thisN'
p3796
I471
sS'.thisIndex'
p3797
I14
sg15
(lp3798
S'd'
asg30
VF
sg17
S'Y'
sg14
I10
sg19
Nsg94
I14
sa(dp3799
g16
(lp3800
S'd'
asg18
S'Y'
sS'.thisRepN'
p3801
I31
sg20
S'Y'
sg31
g32
sS'.thisTrialN'
p3802
I7
sS'.thisN'
p3803
I472
sS'.thisIndex'
p3804
I5
sg15
(lp3805
S'd'
asg30
VF
sg17
S'Y'
sg14
I10
sg19
(lp3806
S'space'
p3807
asg94
I5
sa(dp3808
g16
(lp3809
S'k'
asg18
S'N'
sS'.thisRepN'
p3810
I31
sg20
S'Y'
sg31
g32
sS'.thisTrialN'
p3811
I8
sS'.thisN'
p3812
I473
sS'.thisIndex'
p3813
I14
sg15
(lp3814
S'k'
asg30
VF
sg17
S'Y'
sg14
I10
sg19
Nsg94
I14
sa(dp3815
g16
(lp3816
S'k'
asg18
S'N'
sS'.thisRepN'
p3817
I31
sg20
S'Y'
sg31
g32
sS'.thisTrialN'
p3818
I9
sS'.thisN'
p3819
I474
sS'.thisIndex'
p3820
I5
sg15
(lp3821
S'k'
asg30
VF
sg17
S'Y'
sg14
I10
sg19
Nsg94
I5
sa(dp3822
g16
(lp3823
S'k'
asg18
S'Y'
sS'.thisRepN'
p3824
I31
sg20
S'Y'
sg31
g32
sS'.thisTrialN'
p3825
I10
sS'.thisN'
p3826
I475
sS'.thisIndex'
p3827
I13
sg15
(lp3828
S'k'
asg30
VF
sg17
S'Y'
sg14
I10
sg19
(lp3829
S'space'
p3830
asg94
I13
sa(dp3831
g16
(lp3832
S'd'
asg18
S'Y'
sS'.thisRepN'
p3833
I31
sg20
S'N'
sg31
g32
sS'.thisTrialN'
p3834
I11
sS'.thisN'
p3835
I476
sS'.thisIndex'
p3836
I5
sg15
(lp3837
S'k'
asg30
VF
sg17
S'N'
sg14
I10
sg19
(lp3838
S'k'
asg94
I5
sa(dp3839
g16
(lp3840
S'd'
asg18
S'N'
sS'.thisRepN'
p3841
I31
sg20
S'Y'
sg31
g32
sS'.thisTrialN'
p3842
I12
sS'.thisN'
p3843
I477
sS'.thisIndex'
p3844
I2
sg15
(lp3845
S'k'
asg30
VF
sg17
S'N'
sg14
I10
sg19
Nsg94
I2
sa(dp3846
g16
(lp3847
S'd'
asg18
S'N'
sS'.thisRepN'
p3848
I31
sg20
S'Y'
sg31
g32
sS'.thisTrialN'
p3849
I13
sS'.thisN'
p3850
I478
sS'.thisIndex'
p3851
I1
sg15
(lp3852
S'k'
asg30
VF
sg17
S'N'
sg14
I10
sg19
Nsg94
I1
sa(dp3853
g16
(lp3854
S'd'
asg18
S'Y'
sS'.thisRepN'
p3855
I31
sg20
S'Y'
sg31
g32
sS'.thisTrialN'
p3856
I14
sS'.thisN'
p3857
I479
sS'.thisIndex'
p3858
I10
sg15
(lp3859
S'd'
asg30
VF
sg17
S'Y'
sg14
I10
sg19
(lp3860
S'space'
p3861
asg94
I10
sa(dp3862
g16
(lp3863
S'k'
asg18
S'Y'
sS'.thisRepN'
p3864
I32
sg20
S'Y'
sg31
g32
sS'.thisTrialN'
p3865
I0
sS'.thisN'
p3866
I480
sS'.thisIndex'
p3867
I6
sg15
(lp3868
S'k'
asg30
VF
sg17
S'Y'
sg14
I10
sg19
(lp3869
S'space'
p3870
asg94
I6
sa(dp3871
g16
(lp3872
S'd'
asg18
S'N'
sS'.thisRepN'
p3873
I32
sg20
S'Y'
sg31
g32
sS'.thisTrialN'
p3874
I1
sS'.thisN'
p3875
I481
sS'.thisIndex'
p3876
I12
sg15
(lp3877
S'd'
asg30
VF
sg17
S'Y'
sg14
I10
sg19
Nsg94
I12
sa(dp3878
g16
(lp3879
S'k'
asg18
S'Y'
sS'.thisRepN'
p3880
I32
sg20
S'N'
sg31
g32
sS'.thisTrialN'
p3881
I2
sS'.thisN'
p3882
I482
sS'.thisIndex'
p3883
I8
sg15
(lp3884
S'k'
asg30
VF
sg17
S'Y'
sg14
I10
sg19
Nsg94
I8
sa(dp3885
g16
(lp3886
S'k'
asg18
S'Y'
sS'.thisRepN'
p3887
I32
sg20
S'Y'
sg31
g32
sS'.thisTrialN'
p3888
I3
sS'.thisN'
p3889
I483
sS'.thisIndex'
p3890
I3
sg15
(lp3891
S'k'
asg30
VF
sg17
S'Y'
sg14
I10
sg19
(lp3892
S'space'
p3893
asg94
I3
sa(dp3894
g16
(lp3895
S'd'
asg18
S'Y'
sS'.thisRepN'
p3896
I32
sg20
S'Y'
sg31
g32
sS'.thisTrialN'
p3897
I4
sS'.thisN'
p3898
I484
sS'.thisIndex'
p3899
I13
sg15
(lp3900
S'd'
asg30
VF
sg17
S'Y'
sg14
I10
sg19
(lp3901
S'space'
p3902
asg94
I13
sa(dp3903
g16
(lp3904
S'k'
asg18
S'Y'
sS'.thisRepN'
p3905
I32
sg20
S'Y'
sg31
g32
sS'.thisTrialN'
p3906
I5
sS'.thisN'
p3907
I485
sS'.thisIndex'
p3908
I14
sg15
(lp3909
S'k'
asg30
VF
sg17
S'Y'
sg14
I10
sg19
(lp3910
S'space'
p3911
asg94
I14
sa(dp3912
g16
(lp3913
S'd'
asg18
S'Y'
sS'.thisRepN'
p3914
I32
sg20
S'Y'
sg31
g32
sS'.thisTrialN'
p3915
I6
sS'.thisN'
p3916
I486
sS'.thisIndex'
p3917
I3
sg15
(lp3918
S'd'
asg30
VF
sg17
S'Y'
sg14
I10
sg19
(lp3919
S'space'
p3920
asg94
I3
sa(dp3921
g16
(lp3922
S'd'
asg18
S'N'
sS'.thisRepN'
p3923
I32
sg20
S'Y'
sg31
g32
sS'.thisTrialN'
p3924
I7
sS'.thisN'
p3925
I487
sS'.thisIndex'
p3926
I4
sg15
(lp3927
S'd'
asg30
VF
sg17
S'Y'
sg14
I10
sg19
Nsg94
I4
sa(dp3928
g16
(lp3929
S'k'
asg18
S'N'
sS'.thisRepN'
p3930
I32
sg20
S'Y'
sg31
g32
sS'.thisTrialN'
p3931
I8
sS'.thisN'
p3932
I488
sS'.thisIndex'
p3933
I5
sg15
(lp3934
S'd'
asg30
VF
sg17
S'N'
sg14
I10
sg19
Nsg94
I5
sa(dp3935
g16
(lp3936
S'k'
asg18
S'N'
sS'.thisRepN'
p3937
I32
sg20
S'Y'
sg31
g32
sS'.thisTrialN'
p3938
I9
sS'.thisN'
p3939
I489
sS'.thisIndex'
p3940
I0
sg15
(lp3941
S'k'
asg30
VF
sg17
S'Y'
sg14
I10
sg19
Nsg94
I0
sa(dp3942
g16
(lp3943
S'd'
asg18
S'Y'
sS'.thisRepN'
p3944
I32
sg20
S'Y'
sg31
g32
sS'.thisTrialN'
p3945
I10
sS'.thisN'
p3946
I490
sS'.thisIndex'
p3947
I12
sg15
(lp3948
S'k'
asg30
VF
sg17
S'N'
sg14
I10
sg19
(lp3949
S'space'
p3950
asg94
I12
sa(dp3951
g16
(lp3952
S'd'
asg18
S'Y'
sS'.thisRepN'
p3953
I32
sg20
S'Y'
sg31
g32
sS'.thisTrialN'
p3954
I11
sS'.thisN'
p3955
I491
sS'.thisIndex'
p3956
I8
sg15
(lp3957
S'd'
asg30
VF
sg17
S'Y'
sg14
I10
sg19
(lp3958
S'space'
p3959
asg94
I8
sa(dp3960
g16
(lp3961
S'k'
asg18
S'N'
sS'.thisRepN'
p3962
I32
sg20
S'Y'
sg31
g32
sS'.thisTrialN'
p3963
I12
sS'.thisN'
p3964
I492
sS'.thisIndex'
p3965
I3
sg15
(lp3966
S'k'
asg30
VF
sg17
S'Y'
sg14
I10
sg19
Nsg94
I3
sa(dp3967
g16
(lp3968
S'd'
asg18
S'Y'
sS'.thisRepN'
p3969
I32
sg20
S'Y'
sg31
g32
sS'.thisTrialN'
p3970
I13
sS'.thisN'
p3971
I493
sS'.thisIndex'
p3972
I12
sg15
(lp3973
S'k'
asg30
VF
sg17
S'N'
sg14
I10
sg19
(lp3974
S'space'
p3975
asg94
I12
sa(dp3976
g16
(lp3977
S'k'
asg18
S'Y'
sS'.thisRepN'
p3978
I32
sg20
S'Y'
sg31
g32
sS'.thisTrialN'
p3979
I14
sS'.thisN'
p3980
I494
sS'.thisIndex'
p3981
I8
sg15
(lp3982
S'k'
asg30
VF
sg17
S'Y'
sg14
I10
sg19
(lp3983
S'space'
p3984
asg94
I8
sa(dp3985
g16
(lp3986
S'd'
asg18
S'N'
sS'.thisRepN'
p3987
I33
sg20
S'Y'
sg31
g32
sS'.thisTrialN'
p3988
I0
sS'.thisN'
p3989
I495
sS'.thisIndex'
p3990
I9
sg15
(lp3991
S'd'
asg30
VF
sg17
S'Y'
sg14
I10
sg19
Nsg94
I9
sa(dp3992
g16
(lp3993
S'd'
asg18
S'N'
sS'.thisRepN'
p3994
I33
sg20
S'Y'
sg31
g32
sS'.thisTrialN'
p3995
I1
sS'.thisN'
p3996
I496
sS'.thisIndex'
p3997
I11
sg15
(lp3998
S'k'
asg30
VF
sg17
S'N'
sg14
I10
sg19
Nsg94
I11
sa(dp3999
g16
(lp4000
S'k'
asg18
S'N'
sS'.thisRepN'
p4001
I33
sg20
S'Y'
sg31
g32
sS'.thisTrialN'
p4002
I2
sS'.thisN'
p4003
I497
sS'.thisIndex'
p4004
I9
sg15
(lp4005
S'k'
asg30
VF
sg17
S'Y'
sg14
I10
sg19
Nsg94
I9
sa(dp4006
g16
(lp4007
S'k'
asg18
S'N'
sS'.thisRepN'
p4008
I33
sg20
S'Y'
sg31
g32
sS'.thisTrialN'
p4009
I3
sS'.thisN'
p4010
I498
sS'.thisIndex'
p4011
I10
sg15
(lp4012
S'k'
asg30
VF
sg17
S'Y'
sg14
I10
sg19
Nsg94
I10
sa(dp4013
g16
(lp4014
S'd'
asg18
S'N'
sg22
I41
sS'.thisN'
p4015
I499
sg20
S'Y'
sg31
g32
sS'.thisTrialN'
p4016
I4
sS'.thisRepN'
p4017
I33
sg21
I42
sS'.thisIndex'
p4018
I0
sg23
I24
sg15
(lp4019
S'd'
asg30
VF
sg17
S'Y'
sg14
I10
sg19
Nsg94
I0
sa(dp4020
g16
(lp4021
S'k'
asS'.thisIndex'
p4022
I3
sS'.thisRepN'
p4023
I33
sg26
S'Y'
sg30
VF
sg31
g32
sS'.thisTrialN'
p4024
I5
sS'.thisN'
p4025
I500
sg25
S'Y'
sg24
S'Y'
sg15
(lp4026
S'k'
asg17
S'N'
sg14
I11
sg94
I3
sa(dp4027
g16
(lp4028
S'k'
asS'.thisIndex'
p4029
I3
sS'.thisRepN'
p4030
I33
sg26
S'Y'
sg30
VF
sg31
g32
sS'.thisTrialN'
p4031
I6
sS'.thisN'
p4032
I501
sg25
S'Y'
sg15
(lp4033
S'k'
asg17
S'N'
sg14
I11
sg94
I3
sa(dp4034
g16
(lp4035
S'k'
asg18
S'Y'
sS'.thisRepN'
p4036
I33
sg26
S'Y'
sg20
S'Y'
sg31
g32
sS'.thisTrialN'
p4037
I7
sS'.thisN'
p4038
I502
sg25
S'Y'
sg15
(lp4039
S'd'
asg30
VF
sg17
S'Y'
sg14
I11
sg19
(lp4040
S'space'
p4041
asg94
I8
sS'.thisIndex'
p4042
I8
sa(dp4043
g16
(lp4044
S'k'
asg18
S'Y'
sS'.thisRepN'
p4045
I33
sg26
S'Y'
sg20
S'N'
sg31
g32
sS'.thisTrialN'
p4046
I8
sS'.thisN'
p4047
I503
sg25
S'Y'
sg15
(lp4048
S'k'
asg30
VF
sg17
S'N'
sg14
I11
sg19
(lp4049
S'd'
asg94
I0
sS'.thisIndex'
p4050
I0
sa(dp4051
g16
(lp4052
S'k'
asg18
S'Y'
sS'.thisRepN'
p4053
I33
sg26
S'Y'
sg20
S'Y'
sg31
g32
sS'.thisTrialN'
p4054
I9
sS'.thisN'
p4055
I504
sg25
S'Y'
sg15
(lp4056
S'd'
asg30
VF
sg17
S'Y'
sg14
I11
sg19
(lp4057
S'space'
p4058
asg94
I7
sS'.thisIndex'
p4059
I7
sa(dp4060
g16
(lp4061
S'd'
asg18
S'N'
sS'.thisRepN'
p4062
I33
sg26
S'Y'
sg20
S'Y'
sg31
g32
sS'.thisTrialN'
p4063
I10
sS'.thisN'
p4064
I505
sg25
S'Y'
sg15
(lp4065
S'k'
asg30
VF
sg17
S'Y'
sg14
I11
sg19
Nsg94
I1
sS'.thisIndex'
p4066
I1
sa(dp4067
g16
(lp4068
S'd'
asg18
S'N'
sS'.thisRepN'
p4069
I33
sg26
S'Y'
sg20
S'Y'
sg31
g32
sS'.thisTrialN'
p4070
I11
sS'.thisN'
p4071
I506
sg25
S'Y'
sg15
(lp4072
S'k'
asg30
VF
sg17
S'Y'
sg14
I11
sg19
Nsg94
I14
sS'.thisIndex'
p4073
I14
sa(dp4074
g16
(lp4075
S'd'
asg18
S'N'
sS'.thisRepN'
p4076
I33
sg26
S'Y'
sg20
S'Y'
sg31
g32
sS'.thisTrialN'
p4077
I12
sS'.thisN'
p4078
I507
sg25
S'Y'
sg15
(lp4079
S'k'
asg30
VF
sg17
S'Y'
sg14
I11
sg19
Nsg94
I7
sS'.thisIndex'
p4080
I7
sa(dp4081
g16
(lp4082
S'k'
asg18
S'Y'
sS'.thisRepN'
p4083
I33
sg26
S'Y'
sg20
S'Y'
sg31
g32
sS'.thisTrialN'
p4084
I13
sS'.thisN'
p4085
I508
sg25
S'Y'
sg15
(lp4086
S'd'
asg30
VF
sg17
S'Y'
sg14
I11
sg19
(lp4087
S'space'
p4088
asg94
I1
sS'.thisIndex'
p4089
I1
sa(dp4090
g16
(lp4091
S'k'
asg18
S'N'
sS'.thisRepN'
p4092
I33
sg26
S'Y'
sg20
S'Y'
sg31
g32
sS'.thisTrialN'
p4093
I14
sS'.thisN'
p4094
I509
sg25
S'Y'
sg15
(lp4095
S'd'
asg30
VF
sg17
S'Y'
sg14
I11
sg19
Nsg94
I3
sS'.thisIndex'
p4096
I3
sa(dp4097
g16
(lp4098
S'd'
asg18
S'Y'
sS'.thisRepN'
p4099
I34
sg26
S'Y'
sg20
S'Y'
sg31
g32
sS'.thisTrialN'
p4100
I0
sS'.thisN'
p4101
I510
sg25
S'Y'
sg15
(lp4102
S'k'
asg30
VF
sg17
S'Y'
sg14
I11
sg19
(lp4103
S'space'
p4104
asg94
I13
sS'.thisIndex'
p4105
I13
sa(dp4106
g16
(lp4107
S'k'
asg18
S'Y'
sS'.thisRepN'
p4108
I34
sg26
S'Y'
sg20
S'Y'
sg31
g32
sS'.thisTrialN'
p4109
I1
sS'.thisN'
p4110
I511
sg25
S'Y'
sg15
(lp4111
S'd'
asg30
VF
sg17
S'Y'
sg14
I11
sg19
(lp4112
S'space'
p4113
asg94
I4
sS'.thisIndex'
p4114
I4
sa(dp4115
g16
(lp4116
S'k'
asg18
S'Y'
sS'.thisRepN'
p4117
I34
sg26
S'Y'
sg20
S'Y'
sg31
g32
sS'.thisTrialN'
p4118
I2
sS'.thisN'
p4119
I512
sg25
S'Y'
sg15
(lp4120
S'd'
asg30
VF
sg17
S'Y'
sg14
I11
sg19
(lp4121
S'space'
p4122
asg94
I0
sS'.thisIndex'
p4123
I0
sa(dp4124
g16
(lp4125
S'd'
asg18
S'Y'
sS'.thisRepN'
p4126
I34
sg26
S'Y'
sg20
S'Y'
sg31
g32
sS'.thisTrialN'
p4127
I3
sS'.thisN'
p4128
I513
sg25
S'Y'
sg15
(lp4129
S'd'
asg30
VF
sg17
S'N'
sg14
I11
sg19
(lp4130
S'space'
p4131
asg94
I9
sS'.thisIndex'
p4132
I9
sa(dp4133
g16
(lp4134
S'k'
asg18
S'Y'
sS'.thisRepN'
p4135
I34
sg26
S'Y'
sg20
S'Y'
sg31
g32
sS'.thisTrialN'
p4136
I4
sS'.thisN'
p4137
I514
sg25
S'Y'
sg15
(lp4138
S'd'
asg30
VF
sg17
S'Y'
sg14
I11
sg19
(lp4139
S'space'
p4140
asg94
I8
sS'.thisIndex'
p4141
I8
sa(dp4142
g16
(lp4143
S'd'
asg18
S'N'
sS'.thisRepN'
p4144
I34
sg26
S'Y'
sg20
S'Y'
sg31
g32
sS'.thisTrialN'
p4145
I5
sS'.thisN'
p4146
I515
sg25
S'Y'
sg15
(lp4147
S'k'
asg30
VF
sg17
S'Y'
sg14
I11
sg19
Nsg94
I12
sS'.thisIndex'
p4148
I12
sa(dp4149
g16
(lp4150
S'k'
asg18
S'N'
sS'.thisRepN'
p4151
I34
sg26
S'Y'
sg20
S'Y'
sg31
g32
sS'.thisTrialN'
p4152
I6
sS'.thisN'
p4153
I516
sg25
S'Y'
sg15
(lp4154
S'd'
asg30
VF
sg17
S'Y'
sg14
I11
sg19
Nsg94
I6
sS'.thisIndex'
p4155
I6
sa(dp4156
g16
(lp4157
S'd'
asg18
S'N'
sS'.thisRepN'
p4158
I34
sg26
S'Y'
sg20
S'Y'
sg31
g32
sS'.thisTrialN'
p4159
I7
sS'.thisN'
p4160
I517
sg25
S'Y'
sg15
(lp4161
S'k'
asg30
VF
sg17
S'Y'
sg14
I11
sg19
Nsg94
I7
sS'.thisIndex'
p4162
I7
sa(dp4163
g16
(lp4164
S'k'
asg18
S'N'
sS'.thisRepN'
p4165
I34
sg26
S'Y'
sg20
S'Y'
sg31
g32
sS'.thisTrialN'
p4166
I8
sS'.thisN'
p4167
I518
sg25
S'Y'
sg15
(lp4168
S'd'
asg30
VF
sg17
S'Y'
sg14
I11
sg19
Nsg94
I12
sS'.thisIndex'
p4169
I12
sa(dp4170
g16
(lp4171
S'k'
asg18
S'N'
sS'.thisRepN'
p4172
I34
sg26
S'Y'
sg20
S'Y'
sg31
g32
sS'.thisTrialN'
p4173
I9
sS'.thisN'
p4174
I519
sg25
S'Y'
sg15
(lp4175
S'd'
asg30
VF
sg17
S'Y'
sg14
I11
sg19
Nsg94
I7
sS'.thisIndex'
p4176
I7
sa(dp4177
g16
(lp4178
S'k'
asg18
S'Y'
sS'.thisRepN'
p4179
I34
sg26
S'Y'
sg20
S'Y'
sg31
g32
sS'.thisTrialN'
p4180
I10
sS'.thisN'
p4181
I520
sg25
S'Y'
sg15
(lp4182
S'd'
asg30
VF
sg17
S'Y'
sg14
I11
sg19
(lp4183
S'space'
p4184
asg94
I14
sS'.thisIndex'
p4185
I14
sa(dp4186
g16
(lp4187
S'd'
asg18
S'N'
sS'.thisRepN'
p4188
I34
sg26
S'Y'
sg20
S'Y'
sg31
g32
sS'.thisTrialN'
p4189
I11
sS'.thisN'
p4190
I521
sg25
S'Y'
sg15
(lp4191
S'd'
asg30
VF
sg17
S'N'
sg14
I11
sg19
Nsg94
I4
sS'.thisIndex'
p4192
I4
sa(dp4193
g16
(lp4194
S'd'
asg18
S'N'
sS'.thisRepN'
p4195
I34
sg26
S'Y'
sg20
S'Y'
sg31
g32
sS'.thisTrialN'
p4196
I12
sS'.thisN'
p4197
I522
sg25
S'Y'
sg15
(lp4198
S'k'
asg30
VF
sg17
S'Y'
sg14
I11
sg19
Nsg94
I14
sS'.thisIndex'
p4199
I14
sa(dp4200
g18
S'Y'
sS'.thisRepN'
p4201
I34
sg26
S'Y'
sg20
S'N'
sg31
g32
sS'.thisTrialN'
p4202
I13
sS'.thisN'
p4203
I523
sg25
S'Y'
sg15
Nsg30
VF
sg17
S'Timed out'
p4204
sg14
I11
sg19
Nsg94
I0
sS'.thisIndex'
p4205
I0
sa(dp4206
g16
(lp4207
S'k'
asg18
S'Y'
sS'.thisRepN'
p4208
I34
sg26
S'Y'
sg20
S'N'
sg31
g32
sS'.thisTrialN'
p4209
I14
sS'.thisN'
p4210
I524
sg25
S'Y'
sg15
(lp4211
S'd'
asg30
VF
sg17
S'Y'
sg14
I11
sg19
(lp4212
S'd'
asg94
I6
sS'.thisIndex'
p4213
I6
sa(dp4214
g16
(lp4215
S'd'
asg18
S'N'
sS'.thisRepN'
p4216
I35
sg26
S'Y'
sg20
S'Y'
sg31
g32
sS'.thisTrialN'
p4217
I0
sS'.thisN'
p4218
I525
sg25
S'Y'
sg15
(lp4219
S'k'
asg30
VF
sg17
S'Y'
sg14
I11
sg19
Nsg94
I13
sS'.thisIndex'
p4220
I13
sa(dp4221
g16
(lp4222
S'd'
asg18
S'N'
sS'.thisRepN'
p4223
I35
sg26
S'Y'
sg20
S'Y'
sg31
g32
sS'.thisTrialN'
p4224
I1
sS'.thisN'
p4225
I526
sg25
S'Y'
sg15
(lp4226
S'k'
asg30
VF
sg17
S'Y'
sg14
I11
sg19
Nsg94
I9
sS'.thisIndex'
p4227
I9
sa(dp4228
g16
(lp4229
S'd'
asg18
S'N'
sS'.thisRepN'
p4230
I35
sg26
S'Y'
sg20
S'Y'
sg31
g32
sS'.thisTrialN'
p4231
I2
sS'.thisN'
p4232
I527
sg25
S'Y'
sg15
(lp4233
S'k'
asg30
VF
sg17
S'Y'
sg14
I11
sg19
Nsg94
I11
sS'.thisIndex'
p4234
I11
sa(dp4235
g16
(lp4236
S'd'
asg18
S'Y'
sS'.thisRepN'
p4237
I35
sg26
S'Y'
sg20
S'Y'
sg31
g32
sS'.thisTrialN'
p4238
I3
sS'.thisN'
p4239
I528
sg25
S'Y'
sg15
(lp4240
S'k'
asg30
VF
sg17
S'Y'
sg14
I11
sg19
(lp4241
S'space'
p4242
asg94
I2
sS'.thisIndex'
p4243
I2
sa(dp4244
g16
(lp4245
S'd'
asg18
S'Y'
sS'.thisRepN'
p4246
I35
sg26
S'Y'
sg20
S'Y'
sg31
g32
sS'.thisTrialN'
p4247
I4
sS'.thisN'
p4248
I529
sg25
S'Y'
sg15
(lp4249
S'd'
asg30
VF
sg17
S'N'
sg14
I11
sg19
(lp4250
S'space'
p4251
asg94
I11
sS'.thisIndex'
p4252
I11
sa(dp4253
g16
(lp4254
S'k'
asg18
S'Y'
sS'.thisRepN'
p4255
I35
sg26
S'Y'
sg20
S'Y'
sg31
g32
sS'.thisTrialN'
p4256
I5
sS'.thisN'
p4257
I530
sg25
S'Y'
sg15
(lp4258
S'k'
asg30
VF
sg17
S'N'
sg14
I11
sg19
(lp4259
S'space'
p4260
asg94
I4
sS'.thisIndex'
p4261
I4
sa(dp4262
g16
(lp4263
S'k'
asg18
S'Y'
sS'.thisRepN'
p4264
I35
sg26
S'Y'
sg20
S'Y'
sg31
g32
sS'.thisTrialN'
p4265
I6
sS'.thisN'
p4266
I531
sg25
S'Y'
sg15
(lp4267
S'd'
asg30
VF
sg17
S'Y'
sg14
I11
sg19
(lp4268
S'space'
p4269
asg94
I2
sS'.thisIndex'
p4270
I2
sa(dp4271
g16
(lp4272
S'k'
asg18
S'Y'
sS'.thisRepN'
p4273
I35
sg26
S'Y'
sg20
S'Y'
sg31
g32
sS'.thisTrialN'
p4274
I7
sS'.thisN'
p4275
I532
sg25
S'Y'
sg15
(lp4276
S'd'
asg30
VF
sg17
S'Y'
sg14
I11
sg19
(lp4277
S'space'
p4278
asg94
I14
sS'.thisIndex'
p4279
I14
sa(dp4280
g16
(lp4281
S'k'
asg18
S'Y'
sS'.thisRepN'
p4282
I35
sg26
S'Y'
sg20
S'Y'
sg31
g32
sS'.thisTrialN'
p4283
I8
sS'.thisN'
p4284
I533
sg25
S'Y'
sg15
(lp4285
S'k'
asg30
VF
sg17
S'N'
sg14
I11
sg19
(lp4286
S'space'
p4287
asg94
I11
sS'.thisIndex'
p4288
I11
sa(dp4289
g16
(lp4290
S'd'
asg18
S'N'
sS'.thisRepN'
p4291
I35
sg26
S'Y'
sg20
S'Y'
sg31
g32
sS'.thisTrialN'
p4292
I9
sS'.thisN'
p4293
I534
sg25
S'Y'
sg15
(lp4294
S'k'
asg30
VF
sg17
S'Y'
sg14
I11
sg19
Nsg94
I5
sS'.thisIndex'
p4295
I5
sa(dp4296
g16
(lp4297
S'k'
asg18
S'N'
sS'.thisRepN'
p4298
I35
sg26
S'Y'
sg20
S'Y'
sg31
g32
sS'.thisTrialN'
p4299
I10
sS'.thisN'
p4300
I535
sg25
S'Y'
sg15
(lp4301
S'd'
asg30
VF
sg17
S'Y'
sg14
I11
sg19
Nsg94
I3
sS'.thisIndex'
p4302
I3
sa(dp4303
g16
(lp4304
S'k'
asg18
S'N'
sS'.thisRepN'
p4305
I35
sg26
S'Y'
sg20
S'Y'
sg31
g32
sS'.thisTrialN'
p4306
I11
sS'.thisN'
p4307
I536
sg25
S'Y'
sg15
(lp4308
S'd'
asg30
VF
sg17
S'Y'
sg14
I11
sg19
Nsg94
I12
sS'.thisIndex'
p4309
I12
sa(dp4310
g16
(lp4311
S'd'
asg18
S'N'
sS'.thisRepN'
p4312
I35
sg26
S'Y'
sg20
S'Y'
sg31
g32
sS'.thisTrialN'
p4313
I12
sS'.thisN'
p4314
I537
sg25
S'Y'
sg15
(lp4315
S'k'
asg30
VF
sg17
S'Y'
sg14
I11
sg19
Nsg94
I2
sS'.thisIndex'
p4316
I2
sa(dp4317
g16
(lp4318
S'd'
asg18
S'N'
sS'.thisRepN'
p4319
I35
sg26
S'Y'
sg20
S'Y'
sg31
g32
sS'.thisTrialN'
p4320
I13
sS'.thisN'
p4321
I538
sg25
S'Y'
sg15
(lp4322
S'k'
asg30
VF
sg17
S'Y'
sg14
I11
sg19
Nsg94
I3
sS'.thisIndex'
p4323
I3
sa(dp4324
g16
(lp4325
S'd'
asg18
S'Y'
sS'.thisRepN'
p4326
I35
sg26
S'Y'
sg20
S'Y'
sg31
g32
sS'.thisTrialN'
p4327
I14
sS'.thisN'
p4328
I539
sg25
S'Y'
sg15
(lp4329
S'k'
asg30
VF
sg17
S'Y'
sg14
I11
sg19
(lp4330
S'space'
p4331
asg94
I11
sS'.thisIndex'
p4332
I11
sa(dp4333
g16
(lp4334
S'd'
asg18
S'Y'
sS'.thisRepN'
p4335
I36
sg26
S'Y'
sg20
S'Y'
sg31
g32
sS'.thisTrialN'
p4336
I0
sS'.thisN'
p4337
I540
sg25
S'Y'
sg15
(lp4338
S'k'
asg30
VF
sg17
S'Y'
sg14
I11
sg19
(lp4339
S'space'
p4340
asg94
I4
sS'.thisIndex'
p4341
I4
sa(dp4342
g16
(lp4343
S'k'
asg18
S'N'
sS'.thisRepN'
p4344
I36
sg26
S'Y'
sg20
S'Y'
sg31
g32
sS'.thisTrialN'
p4345
I1
sS'.thisN'
p4346
I541
sg25
S'Y'
sg15
(lp4347
S'k'
asg30
VF
sg17
S'N'
sg14
I11
sg19
Nsg94
I13
sS'.thisIndex'
p4348
I13
sa(dp4349
g16
(lp4350
S'k'
asg18
S'N'
sS'.thisRepN'
p4351
I36
sg26
S'Y'
sg20
S'Y'
sg31
g32
sS'.thisTrialN'
p4352
I2
sS'.thisN'
p4353
I542
sg25
S'Y'
sg15
(lp4354
S'd'
asg30
VF
sg17
S'Y'
sg14
I11
sg19
Nsg94
I13
sS'.thisIndex'
p4355
I13
sa(dp4356
g16
(lp4357
S'd'
asg18
S'N'
sS'.thisRepN'
p4358
I36
sg26
S'Y'
sg20
S'Y'
sg31
g32
sS'.thisTrialN'
p4359
I3
sS'.thisN'
p4360
I543
sg25
S'Y'
sg15
(lp4361
S'k'
asg30
VF
sg17
S'Y'
sg14
I11
sg19
Nsg94
I9
sS'.thisIndex'
p4362
I9
sa(dp4363
g16
(lp4364
S'd'
asg18
S'N'
sS'.thisRepN'
p4365
I36
sg26
S'Y'
sg20
S'Y'
sg31
g32
sS'.thisTrialN'
p4366
I4
sS'.thisN'
p4367
I544
sg25
S'Y'
sg15
(lp4368
S'k'
asg30
VF
sg17
S'Y'
sg14
I11
sg19
Nsg94
I4
sS'.thisIndex'
p4369
I4
sa(dp4370
g16
(lp4371
S'd'
asg18
S'Y'
sS'.thisRepN'
p4372
I36
sg26
S'Y'
sg20
S'Y'
sg31
g32
sS'.thisTrialN'
p4373
I5
sS'.thisN'
p4374
I545
sg25
S'Y'
sg15
(lp4375
S'k'
asg30
VF
sg17
S'Y'
sg14
I11
sg19
(lp4376
S'space'
p4377
asg94
I2
sS'.thisIndex'
p4378
I2
sa(dp4379
g16
(lp4380
S'k'
asg18
S'Y'
sS'.thisRepN'
p4381
I36
sg26
S'Y'
sg20
S'Y'
sg31
g32
sS'.thisTrialN'
p4382
I6
sS'.thisN'
p4383
I546
sg25
S'Y'
sg15
(lp4384
S'd'
asg30
VF
sg17
S'Y'
sg14
I11
sg19
(lp4385
S'space'
p4386
asg94
I4
sS'.thisIndex'
p4387
I4
sa(dp4388
g16
(lp4389
S'd'
asg18
S'N'
sS'.thisRepN'
p4390
I36
sg26
S'Y'
sg20
S'Y'
sg31
g32
sS'.thisTrialN'
p4391
I7
sS'.thisN'
p4392
I547
sg25
S'Y'
sg15
(lp4393
S'k'
asg30
VF
sg17
S'Y'
sg14
I11
sg19
Nsg94
I8
sS'.thisIndex'
p4394
I8
sa(dp4395
g16
(lp4396
S'd'
asg18
S'Y'
sS'.thisRepN'
p4397
I36
sg26
S'Y'
sg20
S'Y'
sg31
g32
sS'.thisTrialN'
p4398
I8
sS'.thisN'
p4399
I548
sg25
S'Y'
sg15
(lp4400
S'k'
asg30
VF
sg17
S'Y'
sg14
I11
sg19
(lp4401
S'space'
p4402
asg94
I12
sS'.thisIndex'
p4403
I12
sa(dp4404
g16
(lp4405
S'k'
asg18
S'Y'
sg22
I45
sg26
S'Y'
sS'.thisN'
p4406
I549
sg20
S'Y'
sg31
g32
sS'.thisTrialN'
p4407
I9
sS'.thisRepN'
p4408
I36
sg21
I40
sg25
S'Y'
sg23
I24
sg15
(lp4409
S'd'
asg30
VF
sg17
S'Y'
sg14
I11
sg19
(lp4410
S'space'
p4411
asg94
I8
sS'.thisIndex'
p4412
I8
sa(dp4413
g16
(lp4414
S'd'
asS'.thisIndex'
p4415
I5
sS'.thisRepN'
p4416
I36
sg26
S'Y'
sg30
VF
sg31
g32
sS'.thisTrialN'
p4417
I10
sS'.thisN'
p4418
I550
sg25
S'Y'
sg15
(lp4419
S'd'
asg17
S'N'
sg14
I12
sg94
I5
sa(dp4420
g16
(lp4421
S'k'
asS'.thisIndex'
p4422
I7
sS'.thisRepN'
p4423
I36
sg26
S'Y'
sg30
VF
sg31
g32
sS'.thisTrialN'
p4424
I11
sS'.thisN'
p4425
I551
sg25
S'Y'
sg15
(lp4426
S'd'
asg17
S'Y'
sg14
I12
sg94
I7
sa(dp4427
g16
(lp4428
S'k'
asg18
S'Y'
sS'.thisRepN'
p4429
I36
sg26
S'Y'
sg20
S'Y'
sg31
g32
sS'.thisTrialN'
p4430
I12
sS'.thisN'
p4431
I552
sg25
S'Y'
sg15
(lp4432
S'd'
asg30
VF
sg17
S'Y'
sg14
I12
sg19
(lp4433
S'space'
p4434
asg94
I4
sS'.thisIndex'
p4435
I4
sa(dp4436
g16
(lp4437
S'd'
asg18
S'Y'
sS'.thisRepN'
p4438
I36
sg26
S'Y'
sg20
S'N'
sg31
g32
sS'.thisTrialN'
p4439
I13
sS'.thisN'
p4440
I553
sg25
S'Y'
sg15
(lp4441
S'k'
asg30
VF
sg17
S'Y'
sg14
I12
sg19
Nsg94
I0
sS'.thisIndex'
p4442
I0
sa(dp4443
g16
(lp4444
S'k'
asg18
S'N'
sS'.thisRepN'
p4445
I36
sg26
S'Y'
sg20
S'Y'
sg31
g32
sS'.thisTrialN'
p4446
I14
sS'.thisN'
p4447
I554
sg25
S'Y'
sg15
(lp4448
S'd'
asg30
VF
sg17
S'Y'
sg14
I12
sg19
Nsg94
I10
sS'.thisIndex'
p4449
I10
sa(dp4450
g16
(lp4451
S'd'
asg18
S'Y'
sS'.thisRepN'
p4452
I37
sg26
S'Y'
sg20
S'N'
sg31
g32
sS'.thisTrialN'
p4453
I0
sS'.thisN'
p4454
I555
sg25
S'Y'
sg15
(lp4455
S'd'
asg30
VF
sg17
S'N'
sg14
I12
sg19
Nsg94
I6
sS'.thisIndex'
p4456
I6
sa(dp4457
g16
(lp4458
S'd'
asg18
S'Y'
sS'.thisRepN'
p4459
I37
sg26
S'Y'
sg20
S'Y'
sg31
g32
sS'.thisTrialN'
p4460
I1
sS'.thisN'
p4461
I556
sg25
S'Y'
sg15
(lp4462
S'd'
asg30
VF
sg17
S'N'
sg14
I12
sg19
(lp4463
S'space'
p4464
asg94
I3
sS'.thisIndex'
p4465
I3
sa(dp4466
g16
(lp4467
S'k'
asg18
S'Y'
sS'.thisRepN'
p4468
I37
sg26
S'Y'
sg20
S'N'
sg31
g32
sS'.thisTrialN'
p4469
I2
sS'.thisN'
p4470
I557
sg25
S'Y'
sg15
(lp4471
S'd'
asg30
VF
sg17
S'Y'
sg14
I12
sg19
Nsg94
I10
sS'.thisIndex'
p4472
I10
sa(dp4473
g16
(lp4474
S'd'
asg18
S'N'
sS'.thisRepN'
p4475
I37
sg26
S'Y'
sg20
S'Y'
sg31
g32
sS'.thisTrialN'
p4476
I3
sS'.thisN'
p4477
I558
sg25
S'Y'
sg15
(lp4478
S'k'
asg30
VF
sg17
S'Y'
sg14
I12
sg19
Nsg94
I9
sS'.thisIndex'
p4479
I9
sa(dp4480
g16
(lp4481
S'k'
asg18
S'Y'
sS'.thisRepN'
p4482
I37
sg26
S'Y'
sg20
S'Y'
sg31
g32
sS'.thisTrialN'
p4483
I4
sS'.thisN'
p4484
I559
sg25
S'Y'
sg15
(lp4485
S'd'
asg30
VF
sg17
S'Y'
sg14
I12
sg19
(lp4486
S'space'
p4487
asg94
I3
sS'.thisIndex'
p4488
I3
sa(dp4489
g16
(lp4490
S'd'
asg18
S'Y'
sS'.thisRepN'
p4491
I37
sg26
S'Y'
sg20
S'Y'
sg31
g32
sS'.thisTrialN'
p4492
I5
sS'.thisN'
p4493
I560
sg25
S'Y'
sg15
(lp4494
S'k'
asg30
VF
sg17
S'Y'
sg14
I12
sg19
(lp4495
S'space'
p4496
asg94
I5
sS'.thisIndex'
p4497
I5
sa(dp4498
g16
(lp4499
S'd'
asg18
S'Y'
sS'.thisRepN'
p4500
I37
sg26
S'Y'
sg20
S'Y'
sg31
g32
sS'.thisTrialN'
p4501
I6
sS'.thisN'
p4502
I561
sg25
S'Y'
sg15
(lp4503
S'k'
asg30
VF
sg17
S'Y'
sg14
I12
sg19
(lp4504
S'space'
p4505
asg94
I1
sS'.thisIndex'
p4506
I1
sa(dp4507
g16
(lp4508
S'k'
asg18
S'N'
sS'.thisRepN'
p4509
I37
sg26
S'Y'
sg20
S'Y'
sg31
g32
sS'.thisTrialN'
p4510
I7
sS'.thisN'
p4511
I562
sg25
S'Y'
sg15
(lp4512
S'd'
asg30
VF
sg17
S'Y'
sg14
I12
sg19
Nsg94
I8
sS'.thisIndex'
p4513
I8
sa(dp4514
g16
(lp4515
S'd'
asg18
S'Y'
sS'.thisRepN'
p4516
I37
sg26
S'Y'
sg20
S'Y'
sg31
g32
sS'.thisTrialN'
p4517
I8
sS'.thisN'
p4518
I563
sg25
S'Y'
sg15
(lp4519
S'k'
asg30
VF
sg17
S'Y'
sg14
I12
sg19
(lp4520
S'space'
p4521
asg94
I1
sS'.thisIndex'
p4522
I1
sa(dp4523
g16
(lp4524
S'd'
asg18
S'N'
sS'.thisRepN'
p4525
I37
sg26
S'Y'
sg20
S'Y'
sg31
g32
sS'.thisTrialN'
p4526
I9
sS'.thisN'
p4527
I564
sg25
S'Y'
sg15
(lp4528
S'k'
asg30
VF
sg17
S'Y'
sg14
I12
sg19
Nsg94
I13
sS'.thisIndex'
p4529
I13
sa(dp4530
g16
(lp4531
S'k'
asg18
S'Y'
sS'.thisRepN'
p4532
I37
sg26
S'Y'
sg20
S'Y'
sg31
g32
sS'.thisTrialN'
p4533
I10
sS'.thisN'
p4534
I565
sg25
S'Y'
sg15
(lp4535
S'k'
asg30
VF
sg17
S'N'
sg14
I12
sg19
(lp4536
S'space'
p4537
asg94
I3
sS'.thisIndex'
p4538
I3
sa(dp4539
g16
(lp4540
S'k'
asg18
S'Y'
sS'.thisRepN'
p4541
I37
sg26
S'Y'
sg20
S'Y'
sg31
g32
sS'.thisTrialN'
p4542
I11
sS'.thisN'
p4543
I566
sg25
S'Y'
sg15
(lp4544
S'd'
asg30
VF
sg17
S'Y'
sg14
I12
sg19
(lp4545
S'space'
p4546
asg94
I2
sS'.thisIndex'
p4547
I2
sa(dp4548
g16
(lp4549
S'k'
asg18
S'N'
sS'.thisRepN'
p4550
I37
sg26
S'Y'
sg20
S'Y'
sg31
g32
sS'.thisTrialN'
p4551
I12
sS'.thisN'
p4552
I567
sg25
S'Y'
sg15
(lp4553
S'd'
asg30
VF
sg17
S'Y'
sg14
I12
sg19
Nsg94
I9
sS'.thisIndex'
p4554
I9
sa(dp4555
g16
(lp4556
S'd'
asg18
S'Y'
sS'.thisRepN'
p4557
I37
sg26
S'Y'
sg20
S'Y'
sg31
g32
sS'.thisTrialN'
p4558
I13
sS'.thisN'
p4559
I568
sg25
S'Y'
sg15
(lp4560
S'k'
asg30
VF
sg17
S'Y'
sg14
I12
sg19
(lp4561
S'space'
p4562
asg94
I10
sS'.thisIndex'
p4563
I10
sa(dp4564
g16
(lp4565
S'k'
asg18
S'Y'
sS'.thisRepN'
p4566
I37
sg26
S'Y'
sg20
S'Y'
sg31
g32
sS'.thisTrialN'
p4567
I14
sS'.thisN'
p4568
I569
sg25
S'Y'
sg15
(lp4569
S'k'
asg30
VF
sg17
S'N'
sg14
I12
sg19
(lp4570
S'space'
p4571
asg94
I2
sS'.thisIndex'
p4572
I2
sa(dp4573
g16
(lp4574
S'd'
asg18
S'N'
sS'.thisRepN'
p4575
I38
sg26
S'Y'
sg20
S'Y'
sg31
g32
sS'.thisTrialN'
p4576
I0
sS'.thisN'
p4577
I570
sg25
S'Y'
sg15
(lp4578
S'k'
asg30
VF
sg17
S'Y'
sg14
I12
sg19
Nsg94
I3
sS'.thisIndex'
p4579
I3
sa(dp4580
g16
(lp4581
S'k'
asg18
S'Y'
sS'.thisRepN'
p4582
I38
sg26
S'Y'
sg20
S'Y'
sg31
g32
sS'.thisTrialN'
p4583
I1
sS'.thisN'
p4584
I571
sg25
S'Y'
sg15
(lp4585
S'd'
asg30
VF
sg17
S'Y'
sg14
I12
sg19
(lp4586
S'space'
p4587
asg94
I13
sS'.thisIndex'
p4588
I13
sa(dp4589
g16
(lp4590
S'd'
asg18
S'N'
sS'.thisRepN'
p4591
I38
sg26
S'Y'
sg20
S'Y'
sg31
g32
sS'.thisTrialN'
p4592
I2
sS'.thisN'
p4593
I572
sg25
S'Y'
sg15
(lp4594
S'k'
asg30
VF
sg17
S'Y'
sg14
I12
sg19
Nsg94
I7
sS'.thisIndex'
p4595
I7
sa(dp4596
g16
(lp4597
S'd'
asg18
S'Y'
sS'.thisRepN'
p4598
I38
sg26
S'Y'
sg20
S'Y'
sg31
g32
sS'.thisTrialN'
p4599
I3
sS'.thisN'
p4600
I573
sg25
S'Y'
sg15
(lp4601
S'k'
asg30
VF
sg17
S'Y'
sg14
I12
sg19
(lp4602
S'space'
p4603
asg94
I6
sS'.thisIndex'
p4604
I6
sa(dp4605
g16
(lp4606
S'k'
asg18
S'Y'
sS'.thisRepN'
p4607
I38
sg26
S'Y'
sg20
S'Y'
sg31
g32
sS'.thisTrialN'
p4608
I4
sS'.thisN'
p4609
I574
sg25
S'Y'
sg15
(lp4610
S'd'
asg30
VF
sg17
S'Y'
sg14
I12
sg19
(lp4611
S'space'
p4612
asg94
I8
sS'.thisIndex'
p4613
I8
sa(dp4614
g16
(lp4615
S'd'
asg18
S'Y'
sS'.thisRepN'
p4616
I38
sg26
S'Y'
sg20
S'Y'
sg31
g32
sS'.thisTrialN'
p4617
I5
sS'.thisN'
p4618
I575
sg25
S'Y'
sg15
(lp4619
S'k'
asg30
VF
sg17
S'Y'
sg14
I12
sg19
(lp4620
S'space'
p4621
asg94
I1
sS'.thisIndex'
p4622
I1
sa(dp4623
g16
(lp4624
S'k'
asg18
S'N'
sS'.thisRepN'
p4625
I38
sg26
S'Y'
sg20
S'Y'
sg31
g32
sS'.thisTrialN'
p4626
I6
sS'.thisN'
p4627
I576
sg25
S'Y'
sg15
(lp4628
S'd'
asg30
VF
sg17
S'Y'
sg14
I12
sg19
Nsg94
I14
sS'.thisIndex'
p4629
I14
sa(dp4630
g16
(lp4631
S'd'
asg18
S'Y'
sS'.thisRepN'
p4632
I38
sg26
S'Y'
sg20
S'Y'
sg31
g32
sS'.thisTrialN'
p4633
I7
sS'.thisN'
p4634
I577
sg25
S'Y'
sg15
(lp4635
S'k'
asg30
VF
sg17
S'Y'
sg14
I12
sg19
(lp4636
S'space'
p4637
asg94
I12
sS'.thisIndex'
p4638
I12
sa(dp4639
g16
(lp4640
S'k'
asg18
S'Y'
sS'.thisRepN'
p4641
I38
sg26
S'Y'
sg20
S'Y'
sg31
g32
sS'.thisTrialN'
p4642
I8
sS'.thisN'
p4643
I578
sg25
S'Y'
sg15
(lp4644
S'k'
asg30
VF
sg17
S'N'
sg14
I12
sg19
(lp4645
S'space'
p4646
asg94
I12
sS'.thisIndex'
p4647
I12
sa(dp4648
g16
(lp4649
S'd'
asg18
S'N'
sS'.thisRepN'
p4650
I38
sg26
S'Y'
sg20
S'Y'
sg31
g32
sS'.thisTrialN'
p4651
I9
sS'.thisN'
p4652
I579
sg25
S'Y'
sg15
(lp4653
S'k'
asg30
VF
sg17
S'Y'
sg14
I12
sg19
Nsg94
I7
sS'.thisIndex'
p4654
I7
sa(dp4655
g16
(lp4656
S'd'
asg18
S'Y'
sS'.thisRepN'
p4657
I38
sg26
S'Y'
sg20
S'Y'
sg31
g32
sS'.thisTrialN'
p4658
I10
sS'.thisN'
p4659
I580
sg25
S'Y'
sg15
(lp4660
S'd'
asg30
VF
sg17
S'N'
sg14
I12
sg19
(lp4661
S'space'
p4662
asg94
I10
sS'.thisIndex'
p4663
I10
sa(dp4664
g16
(lp4665
S'd'
asg18
S'N'
sS'.thisRepN'
p4666
I38
sg26
S'Y'
sg20
S'Y'
sg31
g32
sS'.thisTrialN'
p4667
I11
sS'.thisN'
p4668
I581
sg25
S'Y'
sg15
(lp4669
S'k'
asg30
VF
sg17
S'Y'
sg14
I12
sg19
Nsg94
I13
sS'.thisIndex'
p4670
I13
sa(dp4671
g16
(lp4672
S'k'
asg18
S'N'
sS'.thisRepN'
p4673
I38
sg26
S'Y'
sg20
S'Y'
sg31
g32
sS'.thisTrialN'
p4674
I12
sS'.thisN'
p4675
I582
sg25
S'Y'
sg15
(lp4676
S'd'
asg30
VF
sg17
S'Y'
sg14
I12
sg19
Nsg94
I9
sS'.thisIndex'
p4677
I9
sa(dp4678
g16
(lp4679
S'd'
asg18
S'Y'
sS'.thisRepN'
p4680
I38
sg26
S'Y'
sg20
S'Y'
sg31
g32
sS'.thisTrialN'
p4681
I13
sS'.thisN'
p4682
I583
sg25
S'Y'
sg15
(lp4683
S'd'
asg30
VF
sg17
S'N'
sg14
I12
sg19
(lp4684
S'space'
p4685
asg94
I3
sS'.thisIndex'
p4686
I3
sa(dp4687
g16
(lp4688
S'd'
asg18
S'N'
sS'.thisRepN'
p4689
I38
sg26
S'Y'
sg20
S'N'
sg31
g32
sS'.thisTrialN'
p4690
I14
sS'.thisN'
p4691
I584
sg25
S'Y'
sg15
(lp4692
S'k'
asg30
VF
sg17
S'Y'
sg14
I12
sg19
(lp4693
S'space'
p4694
asg94
I13
sS'.thisIndex'
p4695
I13
sa(dp4696
g16
(lp4697
S'k'
asg18
S'Y'
sS'.thisRepN'
p4698
I39
sg26
S'Y'
sg20
S'N'
sg31
g32
sS'.thisTrialN'
p4699
I0
sS'.thisN'
p4700
I585
sg25
S'Y'
sg15
(lp4701
S'd'
asg30
VF
sg17
S'Y'
sg14
I12
sg19
Nsg94
I12
sS'.thisIndex'
p4702
I12
sa(dp4703
g16
(lp4704
S'd'
asg18
S'Y'
sS'.thisRepN'
p4705
I39
sg26
S'Y'
sg20
S'Y'
sg31
g32
sS'.thisTrialN'
p4706
I1
sS'.thisN'
p4707
I586
sg25
S'Y'
sg15
(lp4708
S'k'
asg30
VF
sg17
S'Y'
sg14
I12
sg19
(lp4709
S'space'
p4710
asg94
I3
sS'.thisIndex'
p4711
I3
sa(dp4712
g16
(lp4713
S'k'
asg18
S'N'
sS'.thisRepN'
p4714
I39
sg26
S'Y'
sg20
S'Y'
sg31
g32
sS'.thisTrialN'
p4715
I2
sS'.thisN'
p4716
I587
sg25
S'Y'
sg15
(lp4717
S'd'
asg30
VF
sg17
S'Y'
sg14
I12
sg19
Nsg94
I13
sS'.thisIndex'
p4718
I13
sa(dp4719
g16
(lp4720
S'k'
asg18
S'N'
sS'.thisRepN'
p4721
I39
sg26
S'Y'
sg20
S'Y'
sg31
g32
sS'.thisTrialN'
p4722
I3
sS'.thisN'
p4723
I588
sg25
S'Y'
sg15
(lp4724
S'd'
asg30
VF
sg17
S'Y'
sg14
I12
sg19
Nsg94
I2
sS'.thisIndex'
p4725
I2
sa(dp4726
g16
(lp4727
S'k'
asg18
S'Y'
sS'.thisRepN'
p4728
I39
sg26
S'Y'
sg20
S'Y'
sg31
g32
sS'.thisTrialN'
p4729
I4
sS'.thisN'
p4730
I589
sg25
S'Y'
sg15
(lp4731
S'd'
asg30
VF
sg17
S'Y'
sg14
I12
sg19
(lp4732
S'space'
p4733
asg94
I11
sS'.thisIndex'
p4734
I11
sa(dp4735
g16
(lp4736
S'd'
asg18
S'N'
sS'.thisRepN'
p4737
I39
sg26
S'Y'
sg20
S'Y'
sg31
g32
sS'.thisTrialN'
p4738
I5
sS'.thisN'
p4739
I590
sg25
S'Y'
sg15
(lp4740
S'd'
asg30
VF
sg17
S'N'
sg14
I12
sg19
Nsg94
I14
sS'.thisIndex'
p4741
I14
sa(dp4742
g16
(lp4743
S'd'
asg18
S'Y'
sS'.thisRepN'
p4744
I39
sg26
S'Y'
sg20
S'Y'
sg31
g32
sS'.thisTrialN'
p4745
I6
sS'.thisN'
p4746
I591
sg25
S'Y'
sg15
(lp4747
S'k'
asg30
VF
sg17
S'Y'
sg14
I12
sg19
(lp4748
S'space'
p4749
asg94
I9
sS'.thisIndex'
p4750
I9
sa(dp4751
g16
(lp4752
S'd'
asg18
S'N'
sS'.thisRepN'
p4753
I39
sg26
S'Y'
sg20
S'N'
sg31
g32
sS'.thisTrialN'
p4754
I7
sS'.thisN'
p4755
I592
sg25
S'Y'
sg15
(lp4756
S'k'
asg30
VF
sg17
S'Y'
sg14
I12
sg19
(lp4757
S'space'
p4758
asg94
I10
sS'.thisIndex'
p4759
I10
sa(dp4760
g16
(lp4761
S'd'
asg18
S'N'
sS'.thisRepN'
p4762
I39
sg26
S'Y'
sg20
S'Y'
sg31
g32
sS'.thisTrialN'
p4763
I8
sS'.thisN'
p4764
I593
sg25
S'Y'
sg15
(lp4765
S'k'
asg30
VF
sg17
S'Y'
sg14
I12
sg19
Nsg94
I8
sS'.thisIndex'
p4766
I8
sa(dp4767
g16
(lp4768
S'd'
asg18
S'N'
sS'.thisRepN'
p4769
I39
sg26
S'Y'
sg20
S'Y'
sg31
g32
sS'.thisTrialN'
p4770
I9
sS'.thisN'
p4771
I594
sg25
S'Y'
sg15
(lp4772
S'd'
asg30
VF
sg17
S'N'
sg14
I12
sg19
Nsg94
I6
sS'.thisIndex'
p4773
I6
sa(dp4774
g16
(lp4775
S'd'
asg18
S'N'
sS'.thisRepN'
p4776
I39
sg26
S'Y'
sg20
S'Y'
sg31
g32
sS'.thisTrialN'
p4777
I10
sS'.thisN'
p4778
I595
sg25
S'Y'
sg15
(lp4779
S'k'
asg30
VF
sg17
S'Y'
sg14
I12
sg19
Nsg94
I7
sS'.thisIndex'
p4780
I7
sa(dp4781
g16
(lp4782
S'd'
asg18
S'N'
sS'.thisRepN'
p4783
I39
sg26
S'Y'
sg20
S'Y'
sg31
g32
sS'.thisTrialN'
p4784
I11
sS'.thisN'
p4785
I596
sg25
S'Y'
sg15
(lp4786
S'k'
asg30
VF
sg17
S'Y'
sg14
I12
sg19
Nsg94
I14
sS'.thisIndex'
p4787
I14
sa(dp4788
g16
(lp4789
S'd'
asg18
S'N'
sS'.thisRepN'
p4790
I39
sg26
S'Y'
sg20
S'Y'
sg31
g32
sS'.thisTrialN'
p4791
I12
sS'.thisN'
p4792
I597
sg25
S'Y'
sg15
(lp4793
S'k'
asg30
VF
sg17
S'Y'
sg14
I12
sg19
Nsg94
I14
sS'.thisIndex'
p4794
I14
sa(dp4795
g16
(lp4796
S'd'
asg18
S'N'
sS'.thisRepN'
p4797
I39
sg26
S'Y'
sg20
S'N'
sg31
g32
sS'.thisTrialN'
p4798
I13
sS'.thisN'
p4799
I598
sg25
S'Y'
sg15
(lp4800
S'k'
asg30
VF
sg17
S'Y'
sg14
I12
sg19
(lp4801
S'space'
p4802
asg94
I10
sS'.thisIndex'
p4803
I10
sa(dp4804
g16
(lp4805
S'k'
asg18
S'N'
sg22
I40
sg26
S'Y'
sS'.thisN'
p4806
I599
sg20
S'N'
sg31
g32
sS'.thisTrialN'
p4807
I14
sS'.thisRepN'
p4808
I39
sg21
I40
sg25
S'Y'
sg23
I25
sg15
(lp4809
S'd'
asg30
VF
sg17
S'Y'
sg14
I12
sg19
(lp4810
S'd'
asg94
I10
sS'.thisIndex'
p4811
I10
sasS'loops'
p4812
(lp4813
g1
(g35
g3
NtRp4814
(dp4815
g38
Nsg39
(lp4816
sg40
I61846512
sg10
S''
sg6
g41
sg42
I1
sg27
I01
sg28
Nsg43
g1
(g44
g45
(dp4817
g47
g48
(g49
g50
g51
S'b'
tRp4818
(I1
(I600
I1
tg54
I00
S'\x00\x00\x80?\x00\x00\x80?\x00\x00\x80?\x00\x00\x80?\x00\x00\x80?\x00\x00\x80?\x00\x00\x80?\x00\x00\x80?\x00\x00\x80?\x00\x00\x80?\x00\x00\x80?\x00\x00\x80?\x00\x00\x80?\x00\x00\x80?\x00\x00\x80?\x00\x00\x80?\x00\x00\x80?\x00\x00\x80?\x00\x00\x80?\x00\x00\x80?\x00\x00\x80?\x00\x00\x80?\x00\x00\x80?\x00\x00\x80?\x00\x00\x80?\x00\x00\x80?\x00\x00\x80?\x00\x00\x80?\x00\x00\x80?\x00\x00\x80?\x00\x00\x80?\x00\x00\x80?\x00\x00\x80?\x00\x00\x80?\x00\x00\x80?\x00\x00\x80?\x00\x00\x80?\x00\x00\x80?\x00\x00\x80?\x00\x00\x80?\x00\x00\x80?\x00\x00\x80?\x00\x00\x80?\x00\x00\x80?\x00\x00\x80?\x00\x00\x80?\x00\x00\x80?\x00\x00\x80?\x00\x00\x80?\x00\x00\x80?\x00\x00\x80?\x00\x00\x80?\x00\x00\x80?\x00\x00\x80?\x00\x00\x80?\x00\x00\x80?\x00\x00\x80?\x00\x00\x80?\x00\x00\x80?\x00\x00\x80?\x00\x00\x80?\x00\x00\x80?\x00\x00\x80?\x00\x00\x80?\x00\x00\x80?\x00\x00\x80?\x00\x00\x80?\x00\x00\x80?\x00\x00\x80?\x00\x00\x80?\x00\x00\x80?\x00\x00\x80?\x00\x00\x80?\x00\x00\x80?\x00\x00\x80?\x00\x00\x80?\x00\x00\x80?\x00\x00\x80?\x00\x00\x80?\x00\x00\x80?\x00\x00\x80?\x00\x00\x80?\x00\x00\x80?\x00\x00\x80?\x00\x00\x80?\x00\x00\x80?\x00\x00\x80?\x00\x00\x80?\x00\x00\x80?\x00\x00\x80?\x00\x00\x80?\x00\x00\x80?\x00\x00\x80?\x00\x00\x80?\x00\x00\x80?\x00\x00\x80?\x00\x00\x80?\x00\x00\x80?\x00\x00\x80?\x00\x00\x80?\x00\x00\x80?\x00\x00\x80?\x00\x00\x80?\x00\x00\x80?\x00\x00\x80?\x00\x00\x80?\x00\x00\x80?\x00\x00\x80?\x00\x00\x80?\x00\x00\x80?\x00\x00\x80?\x00\x00\x80?\x00\x00\x80?\x00\x00\x80?\x00\x00\x80?\x00\x00\x80?\x00\x00\x80?\x00\x00\x80?\x00\x00\x80?\x00\x00\x80?\x00\x00\x80?\x00\x00\x80?\x00\x00\x80?\x00\x00\x80?\x00\x00\x80?\x00\x00\x80?\x00\x00\x80?\x00\x00\x80?\x00\x00\x80?\x00\x00\x80?\x00\x00\x80?\x00\x00\x80?\x00\x00\x80?\x00\x00\x80?\x00\x00\x80?\x00\x00\x80?\x00\x00\x80?\x00\x00\x80?\x00\x00\x80?\x00\x00\x80?\x00\x00\x80?\x00\x00\x80?\x00\x00\x80?\x00\x00\x80?\x00\x00\x80?\x00\x00\x80?\x00\x00\x80?\x00\x00\x80?\x00\x00\x80?\x00\x00\x80?\x00\x00\x80?\x00\x00\x80?\x00\x00\x80?\x00\x00\x80?\x00\x00\x80?\x00\x00\x80?\x00\x00\x80?\x00\x00\x80?\x00\x00\x80?\x00\x00\x80?\x00\x00\x80?\x00\x00\x80?\x00\x00\x80?\x00\x00\x80?\x00\x00\x80?\x00\x00\x80?\x00\x00\x80?\x00\x00\x80?\x00\x00\x80?\x00\x00\x80?\x00\x00\x80?\x00\x00\x80?\x00\x00\x80?\x00\x00\x80?\x00\x00\x80?\x00\x00\x80?\x00\x00\x80?\x00\x00\x80?\x00\x00\x80?\x00\x00\x80?\x00\x00\x80?\x00\x00\x80?\x00\x00\x80?\x00\x00\x80?\x00\x00\x80?\x00\x00\x80?\x00\x00\x80?\x00\x00\x80?\x00\x00\x80?\x00\x00\x80?\x00\x00\x80?\x00\x00\x80?\x00\x00\x80?\x00\x00\x80?\x00\x00\x80?\x00\x00\x80?\x00\x00\x80?\x00\x00\x80?\x00\x00\x80?\x00\x00\x80?\x00\x00\x80?\x00\x00\x80?\x00\x00\x80?\x00\x00\x80?\x00\x00\x80?\x00\x00\x80?\x00\x00\x80?\x00\x00\x80?\x00\x00\x80?\x00\x00\x80?\x00\x00\x80?\x00\x00\x80?\x00\x00\x80?\x00\x00\x80?\x00\x00\x80?\x00\x00\x80?\x00\x00\x80?\x00\x00\x80?\x00\x00\x80?\x00\x00\x80?\x00\x00\x80?\x00\x00\x80?\x00\x00\x80?\x00\x00\x80?\x00\x00\x80?\x00\x00\x80?\x00\x00\x80?\x00\x00\x80?\x00\x00\x80?\x00\x00\x80?\x00\x00\x80?\x00\x00\x80?\x00\x00\x80?\x00\x00\x80?\x00\x00\x80?\x00\x00\x80?\x00\x00\x80?\x00\x00\x80?\x00\x00\x80?\x00\x00\x80?\x00\x00\x80?\x00\x00\x80?\x00\x00\x80?\x00\x00\x80?\x00\x00\x80?\x00\x00\x80?\x00\x00\x80?\x00\x00\x80?\x00\x00\x80?\x00\x00\x80?\x00\x00\x80?\x00\x00\x80?\x00\x00\x80?\x00\x00\x80?\x00\x00\x80?\x00\x00\x80?\x00\x00\x80?\x00\x00\x80?\x00\x00\x80?\x00\x00\x80?\x00\x00\x80?\x00\x00\x80?\x00\x00\x80?\x00\x00\x80?\x00\x00\x80?\x00\x00\x80?\x00\x00\x80?\x00\x00\x80?\x00\x00\x80?\x00\x00\x80?\x00\x00\x80?\x00\x00\x80?\x00\x00\x80?\x00\x00\x80?\x00\x00\x80?\x00\x00\x80?\x00\x00\x80?\x00\x00\x80?\x00\x00\x80?\x00\x00\x80?\x00\x00\x80?\x00\x00\x80?\x00\x00\x80?\x00\x00\x80?\x00\x00\x80?\x00\x00\x80?\x00\x00\x80?\x00\x00\x80?\x00\x00\x80?\x00\x00\x80?\x00\x00\x80?\x00\x00\x80?\x00\x00\x80?\x00\x00\x80?\x00\x00\x80?\x00\x00\x80?\x00\x00\x80?\x00\x00\x80?\x00\x00\x80?\x00\x00\x80?\x00\x00\x80?\x00\x00\x80?\x00\x00\x80?\x00\x00\x80?\x00\x00\x80?\x00\x00\x80?\x00\x00\x80?\x00\x00\x80?\x00\x00\x80?\x00\x00\x80?\x00\x00\x80?\x00\x00\x80?\x00\x00\x80?\x00\x00\x80?\x00\x00\x80?\x00\x00\x80?\x00\x00\x80?\x00\x00\x80?\x00\x00\x80?\x00\x00\x80?\x00\x00\x80?\x00\x00\x80?\x00\x00\x80?\x00\x00\x80?\x00\x00\x80?\x00\x00\x80?\x00\x00\x80?\x00\x00\x80?\x00\x00\x80?\x00\x00\x80?\x00\x00\x80?\x00\x00\x80?\x00\x00\x80?\x00\x00\x80?\x00\x00\x80?\x00\x00\x80?\x00\x00\x80?\x00\x00\x80?\x00\x00\x80?\x00\x00\x80?\x00\x00\x80?\x00\x00\x80?\x00\x00\x80?\x00\x00\x80?\x00\x00\x80?\x00\x00\x80?\x00\x00\x80?\x00\x00\x80?\x00\x00\x80?\x00\x00\x80?\x00\x00\x80?\x00\x00\x80?\x00\x00\x80?\x00\x00\x80?\x00\x00\x80?\x00\x00\x80?\x00\x00\x80?\x00\x00\x80?\x00\x00\x80?\x00\x00\x80?\x00\x00\x80?\x00\x00\x80?\x00\x00\x80?\x00\x00\x80?\x00\x00\x80?\x00\x00\x80?\x00\x00\x80?\x00\x00\x80?\x00\x00\x80?\x00\x00\x80?\x00\x00\x80?\x00\x00\x80?\x00\x00\x80?\x00\x00\x80?\x00\x00\x80?\x00\x00\x80?\x00\x00\x80?\x00\x00\x80?\x00\x00\x80?\x00\x00\x80?\x00\x00\x80?\x00\x00\x80?\x00\x00\x80?\x00\x00\x80?\x00\x00\x80?\x00\x00\x80?\x00\x00\x80?\x00\x00\x80?\x00\x00\x80?\x00\x00\x80?\x00\x00\x80?\x00\x00\x80?\x00\x00\x80?\x00\x00\x80?\x00\x00\x80?\x00\x00\x80?\x00\x00\x80?\x00\x00\x80?\x00\x00\x80?\x00\x00\x80?\x00\x00\x80?\x00\x00\x80?\x00\x00\x80?\x00\x00\x80?\x00\x00\x80?\x00\x00\x80?\x00\x00\x80?\x00\x00\x80?\x00\x00\x80?\x00\x00\x80?\x00\x00\x80?\x00\x00\x80?\x00\x00\x80?\x00\x00\x80?\x00\x00\x80?\x00\x00\x80?\x00\x00\x80?\x00\x00\x80?\x00\x00\x80?\x00\x00\x80?\x00\x00\x80?\x00\x00\x80?\x00\x00\x80?\x00\x00\x80?\x00\x00\x80?\x00\x00\x80?\x00\x00\x80?\x00\x00\x80?\x00\x00\x80?\x00\x00\x80?\x00\x00\x80?\x00\x00\x80?\x00\x00\x80?\x00\x00\x80?\x00\x00\x80?\x00\x00\x80?\x00\x00\x80?\x00\x00\x80?\x00\x00\x80?\x00\x00\x80?\x00\x00\x80?\x00\x00\x80?\x00\x00\x80?\x00\x00\x80?\x00\x00\x80?\x00\x00\x80?\x00\x00\x80?\x00\x00\x80?\x00\x00\x80?\x00\x00\x80?\x00\x00\x80?\x00\x00\x80?\x00\x00\x80?\x00\x00\x80?\x00\x00\x80?\x00\x00\x80?\x00\x00\x80?\x00\x00\x80?\x00\x00\x80?\x00\x00\x80?\x00\x00\x80?\x00\x00\x80?\x00\x00\x80?\x00\x00\x80?\x00\x00\x80?\x00\x00\x80?\x00\x00\x80?\x00\x00\x80?\x00\x00\x80?\x00\x00\x80?\x00\x00\x80?\x00\x00\x80?\x00\x00\x80?\x00\x00\x80?\x00\x00\x80?\x00\x00\x80?\x00\x00\x80?\x00\x00\x80?\x00\x00\x80?\x00\x00\x80?\x00\x00\x80?\x00\x00\x80?\x00\x00\x80?\x00\x00\x80?\x00\x00\x80?\x00\x00\x80?\x00\x00\x80?\x00\x00\x80?\x00\x00\x80?\x00\x00\x80?\x00\x00\x80?\x00\x00\x80?\x00\x00\x80?\x00\x00\x80?\x00\x00\x80?\x00\x00\x80?\x00\x00\x80?\x00\x00\x80?\x00\x00\x80?\x00\x00\x80?\x00\x00\x80?\x00\x00\x80?\x00\x00\x80?\x00\x00\x80?\x00\x00\x80?\x00\x00\x80?\x00\x00\x80?\x00\x00\x80?\x00\x00\x80?\x00\x00\x80?\x00\x00\x80?\x00\x00\x80?\x00\x00\x80?\x00\x00\x80?\x00\x00\x80?\x00\x00\x80?\x00\x00\x80?\x00\x00\x80?\x00\x00\x80?\x00\x00\x80?\x00\x00\x80?\x00\x00\x80?\x00\x00\x80?\x00\x00\x80?\x00\x00\x80?\x00\x00\x80?\x00\x00\x80?\x00\x00\x80?\x00\x00\x80?\x00\x00\x80?\x00\x00\x80?\x00\x00\x80?\x00\x00\x80?\x00\x00\x80?\x00\x00\x80?\x00\x00\x80?\x00\x00\x80?\x00\x00\x80?\x00\x00\x80?\x00\x00\x80?\x00\x00\x80?\x00\x00\x80?\x00\x00\x80?\x00\x00\x80?\x00\x00\x80?\x00\x00\x80?\x00\x00\x80?\x00\x00\x80?\x00\x00\x80?\x00\x00\x80?\x00\x00\x80?\x00\x00\x80?\x00\x00\x80?\x00\x00\x80?\x00\x00\x80?\x00\x00\x80?\x00\x00\x80?\x00\x00\x80?\x00\x00\x80?\x00\x00\x80?\x00\x00\x80?\x00\x00\x80?\x00\x00\x80?\x00\x00\x80?\x00\x00\x80?\x00\x00\x80?\x00\x00\x80?\x00\x00\x80?\x00\x00\x80?\x00\x00\x80?\x00\x00\x80?\x00\x00\x80?\x00\x00\x80?\x00\x00\x80?\x00\x00\x80?\x00\x00\x80?\x00\x00\x80?\x00\x00\x80?\x00\x00\x80?\x00\x00\x80?\x00\x00\x80?\x00\x00\x80?\x00\x00\x80?\x00\x00\x80?\x00\x00\x80?\x00\x00\x80?\x00\x00\x80?\x00\x00\x80?\x00\x00\x80?\x00\x00\x80?\x00\x00\x80?\x00\x00\x80?\x00\x00\x80?\x00\x00\x80?\x00\x00\x80?\x00\x00\x80?\x00\x00\x80?\x00\x00\x80?\x00\x00\x80?\x00\x00\x80?'
S'\x00\x00\x00\x00\x00\x00\x00\x00\x00\x00\x00\x00\x00\x00\x00\x00\x00\x00\x00\x00\x00\x00\x00\x00\x00\x00\x00\x00\x00\x00\x00\x00\x00\x00\x00\x00\x00\x00\x00\x00\x00\x00\x00\x00\x00\x00\x00\x00\x00\x00\x00\x00\x00\x00\x00\x00\x00\x00\x00\x00\x00\x00\x00\x00\x00\x00\x00\x00\x00\x00\x00\x00\x00\x00\x00\x00\x00\x00\x00\x00\x00\x00\x00\x00\x00\x00\x00\x00\x00\x00\x00\x00\x00\x00\x00\x00\x00\x00\x00\x00\x00\x00\x00\x00\x00\x00\x00\x00\x00\x00\x00\x00\x00\x00\x00\x00\x00\x00\x00\x00\x00\x00\x00\x00\x00\x00\x00\x00\x00\x00\x00\x00\x00\x00\x00\x00\x00\x00\x00\x00\x00\x00\x00\x00\x00\x00\x00\x00\x00\x00\x00\x00\x00\x00\x00\x00\x00\x00\x00\x00\x00\x00\x00\x00\x00\x00\x00\x00\x00\x00\x00\x00\x00\x00\x00\x00\x00\x00\x00\x00\x00\x00\x00\x00\x00\x00\x00\x00\x00\x00\x00\x00\x00\x00\x00\x00\x00\x00\x00\x00\x00\x00\x00\x00\x00\x00\x00\x00\x00\x00\x00\x00\x00\x00\x00\x00\x00\x00\x00\x00\x00\x00\x00\x00\x00\x00\x00\x00\x00\x00\x00\x00\x00\x00\x00\x00\x00\x00\x00\x00\x00\x00\x00\x00\x00\x00\x00\x00\x00\x00\x00\x00\x00\x00\x00\x00\x00\x00\x00\x00\x00\x00\x00\x00\x00\x00\x00\x00\x00\x00\x00\x00\x00\x00\x00\x00\x00\x00\x00\x00\x00\x00\x00\x00\x00\x00\x00\x00\x00\x00\x00\x00\x00\x00\x00\x00\x00\x00\x00\x00\x00\x00\x00\x00\x00\x00\x00\x00\x00\x00\x00\x00\x00\x00\x00\x00\x00\x00\x00\x00\x00\x00\x00\x00\x00\x00\x00\x00\x00\x00\x00\x00\x00\x00\x00\x00\x00\x00\x00\x00\x00\x00\x00\x00\x00\x00\x00\x00\x00\x00\x00\x00\x00\x00\x00\x00\x00\x00\x00\x00\x00\x00\x00\x00\x00\x00\x00\x00\x00\x00\x00\x00\x00\x00\x00\x00\x00\x00\x00\x00\x00\x00\x00\x00\x00\x00\x00\x00\x00\x00\x00\x00\x00\x00\x00\x00\x00\x00\x00\x00\x00\x00\x00\x00\x00\x00\x00\x00\x00\x00\x00\x00\x00\x00\x00\x00\x00\x00\x00\x00\x00\x00\x00\x00\x00\x00\x00\x00\x00\x00\x00\x00\x00\x00\x00\x00\x00\x00\x00\x00\x00\x00\x00\x00\x00\x00\x00\x00\x00\x00\x00\x00\x00\x00\x00\x00\x00\x00\x00\x00\x00\x00\x00\x00\x00\x00\x00\x00\x00\x00\x00\x00\x00\x00\x00\x00\x00\x00\x00\x00\x00\x00\x00\x00\x00\x00\x00\x00\x00\x00\x00\x00\x00\x00\x00\x00\x00\x00\x00\x00\x00\x00\x00\x00\x00\x00\x00\x00\x00\x00\x00\x00\x00\x00\x00\x00\x00\x00\x00\x00\x00\x00\x00\x00\x00\x00\x00\x00\x00\x00\x00\x00\x00\x00\x00\x00\x00\x00\x00\x00\x00\x00\x00\x00\x00\x00\x00\x00\x00\x00\x00\x00\x00\x00\x00\x00\x00\x00\x00\x00\x00\x00\x00\x00\x00\x00\x00\x00\x00\x00\x00\x00\x00\x00\x00\x00\x00\x00\x00\x00\x00\x00\x00\x00\x00\x00\x00\x00\x00\x00\x00\x00\x00\x00\x00\x00\x00\x00\x00\x00'
Ntbsg55
g48
(g49
g50
g51
S'b'
tRp4819
(I1
(I600
I1
tg54
I00
S'\x00@\x06D\x00\x00\xdfC\x00\x00rC\x00\x00hB\x00\x003C\x00\x00\tD\x00\x00\x00\x00\x00\x00\xd7C\x00\x00\xf8C\x00@\x08D\x00\x80\x91C\x00\x00\xb8C\x00\x00\x01C\x00\x80\x06D\x00\x00\xecC\x00\x00lB\x00\x00\xe8B\x00\x00GC\x00\x00\rD\x00\x80\xeaC\x00\x80\x9eC\x00\x00{C\x00@\nD\x00@\x02D\x00\x80\x97C\x00\x00\x92B\x00\x00\x0bD\x00\x00dB\x00\x00\xc0@\x00\xc0\x14D\x00\x80\x0eD\x00\x00\xa9C\x00\x00aC\x00\x80\xf9C\x00\x00\xd2C\x00\x00\xb0B\x00\x00VC\x00\x80\xfcC\x00\x00\x9eB\x00\x80\xcbC\x00\x80\xe3C\x00\x00\xd1C\x00\x00HC\x00\x00\xf5C\x00\x00\'C\x00\x00\xd8A\x00\x00\x85C\x00\x00;C\x00\x00\x83C\x00\x80\xb9C\x00\x80\x8cC\x00\x80\xb8C\x00\x00%C\x00\x80\xf7C\x00\x00\xdeC\x00\x00\x80C\x00\x80\x02D\x00\x80\xa3C\x00\x80\xeeC\x00\x00\xe6B\x00\x00\xe8C\x00\x00"C\x00\x00\xa4C\x00\x008C\x00\x00XB\x00\x00@C\x00\x80\xdeC\x00\x00dC\x00\x00\x91C\x00\x00\xb4B\x00\x00cC\x00\x00\x04D\x00\x00\x08D\x00\x80\x13D\x00\x00HB\x00\x00\xfdC\x00\x00\xc8A\x00\x80\xa4C\x00\x80\tD\x00\x80\xafC\x00\x80\xefC\x00\x00EC\x00\x00\x94C\x00\x00\x96B\x00\x80\x8eC\x00\x00\xa3C\x00\x00\x14B\x00\x00}C\x00\x00\xebC\x00\xc0\x11D\x00\x00\xaeB\x00\x00\x10A\x00\x00[C\x00@\x03D\x00\x00sC\x00\x00\x1cC\x00\x00LC\x00\x00^C\x00\xc0\x0cD\x00\x00\xcdC\x00\x00\x7fC\x00\x80\xe8C\x00\x80\xd6C\x00\x00!C\x00\x00\xb6B\x00\x00\x92C\x00\x00\x86C\x00\x00\x88B\x00\x00\xe0@\x00\x00\xb8A\x00\x00\x88A\x00\x00\x14D\x00@\x14D\x00\x80\xebC\x00\x00\xe0C\x00\x00\x80B\x00\x00\rC\x00\x00CC\x00\x80\xb4C\x00\x00\xf2B\x00\x80\xc9C\x00\x00\x07D\x00\x80\x90C\x00\x00\xd2B\x00\x00\x8cB\x00\x00\xaaB\x00\x00\x9aC\x00\x00`C\x00\x00+C\x00\x00iC\x00\x00\x1eC\x00\x00\x16C\x00\x00\xb9C\x00\x00\xecB\x00\x80\xa9C\x00\x00&C\x00\x00\xc0C\x00\x00tC\x00@\x10D\x00@\x00D\x00\x80\x9cC\x00\x80\xcfC\x00\x00hC\x00\x00$B\x00\xc0\x07D\x00\x00\x15C\x00\x80\xf0C\x00\x00\x10C\x00\x00\xf3C\x00\x00\x96C\x00\x80\x9dC\x00\x00)C\x00\x00 A\x00\x00\x00A\x00\x00\x0cC\x00\x00\x05C\x00\x00PA\x00\x80\x0bD\x00\x00\xcaC\x00\x00=C\x00\x80\x92C\x00\x80\xc5C\x00\x00bC\x00\x00\xd8C\x00@\x0fD\x00\x80\x86C\x00\x00,B\x00\x00\xe6C\x00\x80\xe6C\x00\x00\xb1C\x00\x00\tC\x00\x00\x00B\x00\x00\x98B\x00\x00\xc4B\x00\x000A\x00\x80\xe5C\x00\x00\xf6B\x00\x00\xbcC\x00\x008B\x00\x00\xa8C\x00\x00\x93C\x00\x00\xefC\x00\x00BC\x00\x00-C\x00\x00\x82C\x00\x00\xdaC\x00\x007C\x00\x00\x81C\x00\x00pA\x00\x004B\x00\xc0\nD\x00@\x01D\x00\x80\xdfC\x00\x00\xeeB\x00\x00\xf0B\x00\x00\x0eD\x00\x00LB\x00\xc0\x08D\x00\x00\xd9C\x00\x00\xf2C\x00\x00\xeeC\x00\x00<C\x00\x80\xd2C\x00\x80\xf5C\x00\x00TC\x00@\x04D\x00\x00\xe4B\x00\x00\x90A\x00\x00SC\x00\x00 B\x00\xc0\x13D\x00\x00\x0fD\x00\x00@@\x00\x00\xf4B\x00\x00\x10B\x00\xc0\x00D\x00\xc0\x02D\x00\x80\xf6C\x00\x80\x05D\x00\x00\x13C\x00\x80\x88C\x00\x80\x98C\x00\x80\xd7C\x00\x80\xe9C\x00\x00\x90B\x00\x80\x03D\x00\x00\xafC\x00\x00\x8eB\x00\x80\xc0C\x00\x00xC\x00\x00\xaeC\x00\x00YC\x00\x00\x8fC\x00\x00\x11D\x00\x00PC\x00\x00\xaaC\x00@\x0cD\x00\x00\xbaC\x00\x80\x84C\x00\x80\xe2C\x00\x00\x15D\x00\x00\xd6C\x00\x00\xc8C\x00\x00\xa2C\x00\x80\xabC\x00\x00\x86B\x00\x00ZC\x00\x00\xceB\x00\x00\xb0A\x00\xc0\x10D\x00\x002C\x00\x00\x03C\x00\x00>C\x00\x00qC\x00\x80\xc6C\x00\x00\x00@\x00\x80\xa0C\x00\x00\xe2B\x00\x00|B\x00\x00\x9cC\x00\x006C\x00\x80\x12D\x00\x80\xc8C\x00@\x15D\x00\x80\x96C\x00\x80\x9bC\x00\x00\xbfC\x00\x80\x8dC\x00\x80\xf3C\x00\x00kC\x00\x00\xc9C\x00\x00JC\x00\x00yC\x00\x00\x0bC\x00\x00\x98A\x00\x00\x12D\x00\xc0\x03D\x00\x00gC\x00\x80\xfdC\x00\x00\\C\x00\x00\xd8B\x00\x80\xd0C\x00\x80\x15D\x00\x80\x89C\x00\xc0\x06D\x00@\x11D\x00\x00\x1aC\x00\x80\xb1C\x00\x00\x80?\x00\x00\xe8A\x00\x00\x0cD\x00\x00?C\x00\x00\xc2C\x00\x80\xc4C\x00\x80\x9aC\x00\x80\xadC\x00\x000C\x00\x00\xffC\x00\x80\x14D\x00\xc0\x0fD\x00\x00\nD\x00\x00\x98C\x00\x80\xbcC\x00\x80\x83C\x00\x00\xc4C\x00\x80\x93C\x00\x00IC\x00\x00\xfeC\x00\xc0\x05D\x00\x00\xf1C\x00\x000B\x00\x00`B\x00\x80\nD\x00\x00\x9aB\x00\x80\xbaC\x00\x00\x0cB\x00\x00\x8aC\x00\x80\rD\x00\x00\xa6B\x00\x80\x99C\x00\x00<B\x00\xc0\x01D\x00\x00\xbcB\x00\x80\x82C\x00\x80\x87C\x00\x00UC\x00\x80\x85C\x00\x00\x13D\x00\x80\xcdC\x00\x00\x9dC\x00@\x13D\x00\x00@A\x00@\tD\x00\x80\xa5C\x00\x00eC\x00\x00OC\x00\x80\xc3C\x00\x80\x11D\x00\x80\xb5C\x00\x00\x1dC\x00\x00\xfbC\x00\x00.C\x00\xc0\x15D\x00\x80\xdbC\x00\x80\xfeC\x00\x00 C\x00\x80\xb7C\x00\x00\xe0B\x00\x00\xf7C\x00\x00\x94B\x00\x80\xb3C\x00\x00\xfcC\x00\x00\xc0B\x00\x00jC\x00\x00pB\x00\x80\xaaC\x00\x00:C\x00\x00\x80@\x00\x00\xeaC\x00\x001C\x00\x80\xa8C\x00\x00\xcfC\x00\xc0\x0bD\x00\x00lC\x00\x00/C\x00\x00\x1fC\x00\x00\xc0A\x00\x00\xd4B\x00\x80\xa7C\x00\x80\xe0C\x00\x80\xb6C\x00\x00\xdcC\x00\x00\xc3C\x00\x80\xd8C\x00\x00\xddC\x00\x00]C\x00\x00\xdcB\x00\x80\xd5C\x00\x00\x10D\x00\x80\xd9C\x00\x00\xacC\x00\x80\x08D\x00\x00\xf0C\x00\x80\xa1C\x00\x00\x08C\x00\x00\x1cB\x00\x00\xa0C\x00\x00MC\x00\x00\xa5C\x00\x00DC\x00\x00\xa1C\x00\x00\xe1C\x00\x00@B\x00\x00\xe5C\x00\x00\xf0A\x00\x00,C\x00\x80\x0cD\x00@\x0eD\x00\x80\xd3C\x00\x00\xb0C\x00\x00\x84B\x00\x00\xc7C\x00\x00\xfcB\x00\x00\x89C\x00\x80\xe7C\x00\x00QC\x00\x00\x9bC\x00\x00\x03D\x00\x80\xb2C\x00\x80\xfaC\x00\x00\x82B\x00\x00\xf8B\x00\x00\xe2C\x00\x00\xc6B\x00\x00pC\x00\x00#C\x00\x00$C\x00@\x05D\x00\x80\xd4C\x00\x00DB\x00\x00\xacB\x00\x80\x00D\x00\x00\xbdC\x00\x80\xc1C\x00\x00\xf8A\x00\x00\xa0B\x00\x00~C\x00\x00\x88C\x00\x80\xbfC\x00\x00\xbeC\x00\xc0\x12D\x00\x00\x99C\x00\x00\x06D\x00\x00\xceC\x00\x00\x14C\x00\x00\xfeB\x00\x00TB\x00\x00\x8dC\x00\x00vC\x00\x80\x95C\x00\x00\xd0B\x00\x00\xeaB\x00\x00\xa0@\x00\x00\xc1C\x00\x80\x01D\x00\x00\x8bC\x00\x80\x8bC\x00\x00\xd4C\x00\x00\x8eC\x00\x00\x19C\x00@\x07D\x00\x80\xe1C\x00\x00\xe3C\x00\x80\xffC\x00\x00\x05D\x00\xc0\x0eD\x00\x00XC\x00\x00\xe0A\x00\x00\xadC\x00\x00\xfaC\x00\x00AC\x00\x80\xddC\x00\x80\x04D\x00\x00\x84C\x00\x00\xd0C\x00\x00\xc5C\x00\x80\xd1C\x00\x00wC\x00\x00\x17C\x00\x00\x87C\x00\x00\xc2B\x00\x00\xa8A\x00\x004C\x00\x00\xcaB\x00\x00\xa4B\x00@\rD\x00\x80\xa2C\x00\x80\x94C\x00@\x0bD\x00\x80\xccC\x00\x00\xbeB\x00\x00zC\x00\x00KC\x00\x00\xdeB\x00\x00\xa6C\x00\x00mC\x00\x00\x04C\x00\x80\xc2C\x00\x00\xb4C\x00\x00\x1bC\x00\xc0\rD\x00\x80\xb0C\x00\x80\xacC\x00\x00PB\x00\x00\xb2B\x00\x80\x10D\x00\x009C\x00\x00FC\x00\x00\xd6B\x00\x80\x0fD\x00\x00\x06C\x00\x00\x01D\x00\x00\xa7C\x00\x00\xcbC\x00\x00\xf6C\x00\x80\xc7C\x00\x00\x00D\x00\x00\xb7C\x00\x80\x81C\x00\x00\x00C\x00\x80\xfbC\x00\x00fC\x00\x00(C\x00\x80\x8fC\x00\x00\xe9C\x00\x005C\x00\x00(B\x00\x00\x0eC\x00\x00\xbbC\x00\x00tB\x00\x00\xa0A\x00\x00\x90C\x00\x00\xa8B\x00\x80\xf2C\x00\x00\xc6C\x00\x00\xa2B\x00\x00\xccC\x00\x80\x80C\x00\x00\xb3C\x00\x80\xecC\x00\x00\x8cC\x00\x80\xf4C\x00\x00\x08B\x00\x00\x02D\x00\x00\nC\x00\x00\x18C\x00\x00_C\x00@\x12D\x00\x00\xb6C\x00\x00\x8aB\x00\x00\xccB\x00\xc0\x04D\x00\x00\x97C\x00\x00\x80A\x00\x00NC\x00\x80\xbdC\x00\x00\xb8B\x00\x00\xfaB\x00\x00\xf9C\x00\x00*C\x00\x80\xdaC\x00\x80\xf1C\x00\x00\x0fC\x00\x00nC\x00\x00\x9cB\x00\x00\xe4C\x00\x00\xb2C\x00\x80\x9fC\x00\x80\xf8C\x00\x00\x11C\x00\x00\x07C\x00\x80\xa6C\x00\x00\\B\x00\x00\x9fC\x00\x00xB\x00\x80\xedC\x00\x80\xdcC\x00\x80\xaeC\x00\x00uC\x00\x80\xceC\x00\x00\x9eC\x00\x00\xc8B\x00\x00\xedC\x00\x00\xdbC\x00\x00\x95C\x00\x00|C\x00\x00\xd0A\x00\xc0\tD\x00\x00\xe7C\x00\x00\xf4C\x00\x00\xdaB\x00\x80\xbbC\x00\x00\xabC\x00\x00\xd3C\x00\x00\xb5C\x00\x80\xe4C\x00\x00WC\x00\x80\xcaC\x00\x80\x8aC\x00\x00\xd5C\x00\x00\x12C\x00\x00RC\x00\x00\x18B\x00\x00oC\x00\x80\xbeC\x00\x00`A\x00\x80\x07D\x00\x00\x04B\x00\x00\x02C\x00\x00\xbaB'
S'\x00\x00\x00\x00\x00\x00\x00\x00\x00\x00\x00\x00\x00\x00\x00\x00\x00\x00\x00\x00\x00\x00\x00\x00\x00\x00\x00\x00\x00\x00\x00\x00\x00\x00\x00\x00\x00\x00\x00\x00\x00\x00\x00\x00\x00\x00\x00\x00\x00\x00\x00\x00\x00\x00\x00\x00\x00\x00\x00\x00\x00\x00\x00\x00\x00\x00\x00\x00\x00\x00\x00\x00\x00\x00\x00\x00\x00\x00\x00\x00\x00\x00\x00\x00\x00\x00\x00\x00\x00\x00\x00\x00\x00\x00\x00\x00\x00\x00\x00\x00\x00\x00\x00\x00\x00\x00\x00\x00\x00\x00\x00\x00\x00\x00\x00\x00\x00\x00\x00\x00\x00\x00\x00\x00\x00\x00\x00\x00\x00\x00\x00\x00\x00\x00\x00\x00\x00\x00\x00\x00\x00\x00\x00\x00\x00\x00\x00\x00\x00\x00\x00\x00\x00\x00\x00\x00\x00\x00\x00\x00\x00\x00\x00\x00\x00\x00\x00\x00\x00\x00\x00\x00\x00\x00\x00\x00\x00\x00\x00\x00\x00\x00\x00\x00\x00\x00\x00\x00\x00\x00\x00\x00\x00\x00\x00\x00\x00\x00\x00\x00\x00\x00\x00\x00\x00\x00\x00\x00\x00\x00\x00\x00\x00\x00\x00\x00\x00\x00\x00\x00\x00\x00\x00\x00\x00\x00\x00\x00\x00\x00\x00\x00\x00\x00\x00\x00\x00\x00\x00\x00\x00\x00\x00\x00\x00\x00\x00\x00\x00\x00\x00\x00\x00\x00\x00\x00\x00\x00\x00\x00\x00\x00\x00\x00\x00\x00\x00\x00\x00\x00\x00\x00\x00\x00\x00\x00\x00\x00\x00\x00\x00\x00\x00\x00\x00\x00\x00\x00\x00\x00\x00\x00\x00\x00\x00\x00\x00\x00\x00\x00\x00\x00\x00\x00\x00\x00\x00\x00\x00\x00\x00\x00\x00\x00\x00\x00\x00\x00\x00\x00\x00\x00\x00\x00\x00\x00\x00\x00\x00\x00\x00\x00\x00\x00\x00\x00\x00\x00\x00\x00\x00\x00\x00\x00\x00\x00\x00\x00\x00\x00\x00\x00\x00\x00\x00\x00\x00\x00\x00\x00\x00\x00\x00\x00\x00\x00\x00\x00\x00\x00\x00\x00\x00\x00\x00\x00\x00\x00\x00\x00\x00\x00\x00\x00\x00\x00\x00\x00\x00\x00\x00\x00\x00\x00\x00\x00\x00\x00\x00\x00\x00\x00\x00\x00\x00\x00\x00\x00\x00\x00\x00\x00\x00\x00\x00\x00\x00\x00\x00\x00\x00\x00\x00\x00\x00\x00\x00\x00\x00\x00\x00\x00\x00\x00\x00\x00\x00\x00\x00\x00\x00\x00\x00\x00\x00\x00\x00\x00\x00\x00\x00\x00\x00\x00\x00\x00\x00\x00\x00\x00\x00\x00\x00\x00\x00\x00\x00\x00\x00\x00\x00\x00\x00\x00\x00\x00\x00\x00\x00\x00\x00\x00\x00\x00\x00\x00\x00\x00\x00\x00\x00\x00\x00\x00\x00\x00\x00\x00\x00\x00\x00\x00\x00\x00\x00\x00\x00\x00\x00\x00\x00\x00\x00\x00\x00\x00\x00\x00\x00\x00\x00\x00\x00\x00\x00\x00\x00\x00\x00\x00\x00\x00\x00\x00\x00\x00\x00\x00\x00\x00\x00\x00\x00\x00\x00\x00\x00\x00\x00\x00\x00\x00\x00\x00\x00\x00\x00\x00\x00\x00\x00\x00\x00\x00\x00\x00\x00\x00\x00\x00\x00\x00\x00\x00\x00\x00\x00\x00\x00\x00\x00\x00\x00\x00\x00\x00\x00\x00\x00\x00\x00\x00\x00\x00\x00\x00\x00\x00\x00\x00'
NtbstRp4820
(dp4821
g59
(dp4822
g47
I01
sg55
I01
ssg61
g4814
sg62
(lp4823
g47
ag55
asg64
(lp4824
I600
aI1
asbsg66
S'random'
p4825
sg68
g69
(g50
(I0
tS'b'
tRp4826
(I1
(I600
I1
tg53
(S'i4'
I0
I1
tRp4827
(I3
S'<'
NNNI-1
I-1
I0
tbI01
S'\x06\x00\x00\x00 \x01\x00\x00\xff\x00\x00\x00\xd4\x00\x00\x00e\x01\x00\x00\xba\x01\x00\x00\x1c\x00\x00\x00l\x00\x00\x00\x99\x00\x00\x00[\x00\x00\x00\x98\x00\x00\x00\xae\x00\x00\x00K\x01\x00\x00\x9c\x00\x00\x00S\x02\x00\x00\xbc\x00\x00\x00\x1f\x02\x00\x00n\x00\x00\x00\xcf\x00\x00\x00\x12\x01\x00\x00\x08\x02\x00\x00\xd7\x01\x00\x00\xf8\x00\x00\x00m\x00\x00\x00n\x01\x00\x00L\x00\x00\x00@\x02\x00\x00-\x00\x00\x00\xc9\x01\x00\x00!\x01\x00\x00\x8a\x01\x00\x00\xa8\x01\x00\x00\xab\x00\x00\x00U\x02\x00\x00\x14\x02\x00\x00;\x01\x00\x00\xd6\x00\x00\x00V\x00\x00\x00P\x02\x00\x00\x81\x01\x00\x00\xd1\x00\x00\x00\x8f\x00\x00\x00\x04\x02\x00\x00\xa6\x00\x00\x006\x01\x00\x00\xbd\x00\x00\x00\xb2\x00\x00\x00@\x01\x00\x00\x88\x01\x00\x00\xa3\x01\x00\x00J\x00\x00\x00\xc4\x00\x00\x00\xed\x01\x00\x00\xb4\x01\x00\x00@\x00\x00\x002\x02\x00\x007\x01\x00\x00\x1b\x00\x00\x00\x03\x00\x00\x00\x0f\x00\x00\x00b\x01\x00\x00\x07\x02\x00\x004\x02\x00\x00\x02\x01\x00\x00s\x00\x00\x00\x9a\x01\x00\x00\x90\x01\x00\x00\xf5\x00\x00\x00k\x00\x00\x00\x1b\x02\x00\x00|\x00\x00\x00\xe3\x00\x00\x00\xe0\x00\x00\x00\x19\x00\x00\x00]\x01\x00\x00S\x00\x00\x00\xac\x00\x00\x009\x01\x00\x00*\x02\x00\x00&\x00\x00\x00\xa9\x01\x00\x00\r\x02\x00\x00\xda\x01\x00\x00>\x01\x00\x00\n\x02\x00\x00}\x00\x00\x00\xa4\x01\x00\x00Z\x00\x00\x00#\x00\x00\x00\xee\x01\x00\x00E\x00\x00\x00h\x00\x00\x00"\x02\x00\x00W\x02\x00\x00B\x01\x00\x00\xe0\x01\x00\x00`\x01\x00\x00\xd6\x01\x00\x00\xad\x00\x00\x00\x9d\x01\x00\x00;\x02\x00\x00\xd9\x01\x00\x00\x1c\x02\x00\x00\xf7\x00\x00\x00\xb8\x01\x00\x00{\x00\x00\x00o\x01\x00\x00\xf2\x01\x00\x00\x18\x01\x00\x00D\x02\x00\x00x\x01\x00\x00\xe3\x01\x00\x00[\x01\x00\x00\x01\x01\x00\x00\xce\x00\x00\x00;\x00\x00\x00\x10\x00\x00\x00\xb9\x01\x00\x00\x85\x00\x00\x00\xc1\x00\x00\x00\xc2\x00\x00\x00w\x00\x00\x00\xd5\x00\x00\x00\xb0\x00\x00\x00\x9b\x01\x00\x00#\x02\x00\x00\x92\x01\x00\x00\xb3\x01\x00\x00\xfd\x01\x00\x00\x0c\x00\x00\x00V\x02\x00\x00\xfb\x00\x00\x00\xe6\x01\x00\x00\x9b\x00\x00\x00\xf4\x01\x00\x000\x02\x00\x00\x80\x01\x00\x00\xaa\x00\x00\x00\x16\x02\x00\x00\x11\x01\x00\x00\x9a\x00\x00\x00t\x00\x00\x00\x05\x02\x00\x00(\x02\x00\x00\x93\x00\x00\x00/\x02\x00\x00N\x02\x00\x00\xdb\x00\x00\x00\xb2\x01\x00\x00\x91\x00\x00\x00\x83\x00\x00\x00\xd4\x01\x00\x00\x17\x02\x00\x00\xc1\x01\x00\x00\x1e\x01\x00\x00\xe9\x01\x00\x00_\x00\x00\x00S\x01\x00\x00\x82\x00\x00\x00m\x01\x00\x00Y\x01\x00\x00g\x00\x00\x00=\x00\x00\x00\x9f\x01\x00\x00\xa0\x01\x00\x004\x00\x00\x00\x87\x00\x00\x00,\x00\x00\x00\x00\x02\x00\x00\x97\x00\x00\x00%\x02\x00\x00\x80\x00\x00\x00\x8b\x01\x00\x00\xb7\x00\x00\x00U\x01\x00\x00l\x01\x00\x00(\x01\x00\x00g\x01\x00\x00\xfa\x00\x00\x00\x04\x00\x00\x00\xd8\x01\x00\x00\x03\x02\x00\x00\x04\x01\x00\x00\xba\x00\x00\x00?\x00\x00\x00\xf0\x01\x00\x00d\x01\x00\x00/\x00\x00\x00\xc9\x00\x00\x00\x9f\x00\x00\x00\xfc\x00\x00\x00#\x01\x00\x00A\x00\x00\x00\xcc\x01\x00\x00\xb6\x00\x00\x00u\x00\x00\x00\x85\x01\x00\x00Q\x00\x00\x00\xf1\x01\x00\x00\x11\x00\x00\x00*\x00\x00\x002\x01\x00\x00\x0f\x01\x00\x00\xe2\x01\x00\x00`\x00\x00\x00\x83\x01\x00\x00 \x02\x00\x00O\x01\x00\x00\xea\x00\x00\x00\x95\x01\x00\x00O\x02\x00\x00\xd0\x00\x00\x00\xcc\x00\x00\x00E\x01\x00\x00$\x00\x00\x00J\x02\x00\x00\xc8\x01\x00\x00\xe7\x00\x00\x00\xf6\x00\x00\x00\\\x00\x00\x00\x17\x01\x00\x00w\x01\x00\x00a\x00\x00\x00\x18\x02\x00\x00\x7f\x00\x00\x00 \x00\x00\x00\xa2\x00\x00\x00F\x00\x00\x00C\x00\x00\x00N\x01\x00\x00\xff\x01\x00\x00\x15\x01\x00\x00\x8e\x00\x00\x00\x81\x00\x00\x00a\x01\x00\x00\r\x01\x00\x00k\x01\x00\x00\xe5\x01\x00\x00)\x02\x00\x00Q\x02\x00\x00\x9e\x01\x00\x00\xfd\x00\x00\x00\x02\x00\x00\x00^\x00\x00\x00\x89\x00\x00\x008\x02\x00\x00\xb6\x01\x00\x00\xd3\x01\x00\x00\xe5\x00\x00\x00\x10\x01\x00\x00\xe1\x01\x00\x00\x15\x00\x00\x00?\x02\x00\x00W\x00\x00\x00\xaa\x01\x00\x00d\x00\x00\x007\x00\x00\x00\x0f\x02\x00\x00\xbb\x00\x00\x00\xfc\x01\x00\x00\xb8\x00\x00\x00C\x01\x00\x000\x00\x00\x00/\x01\x00\x00\xcf\x01\x00\x00\xee\x00\x00\x00.\x00\x00\x00F\x01\x00\x00j\x00\x00\x00\xa5\x00\x00\x00\xd5\x01\x00\x00D\x01\x00\x00\xab\x01\x00\x00\xdc\x00\x00\x00\x93\x01\x00\x00\x1b\x01\x00\x00<\x01\x00\x00L\x02\x00\x00\xbd\x01\x00\x00\xbe\x01\x00\x00\x12\x02\x00\x002\x00\x00\x00\xb5\x01\x00\x00\x0b\x01\x00\x00\xc0\x01\x00\x00T\x00\x00\x00\xe8\x00\x00\x00\x01\x02\x00\x00\t\x02\x00\x00z\x00\x00\x00D\x00\x00\x00\n\x00\x00\x00i\x00\x00\x00\xa0\x00\x00\x00\xb4\x00\x00\x001\x01\x00\x00R\x00\x00\x00\xdd\x01\x00\x00>\x02\x00\x00\xb7\x01\x00\x00\x95\x00\x00\x00\x08\x01\x00\x00\x1e\x02\x00\x00\x18\x00\x00\x00-\x01\x00\x00\xdd\x00\x00\x00\xaf\x01\x00\x00?\x01\x00\x00~\x00\x00\x00&\x01\x00\x00\x96\x01\x00\x00\t\x01\x00\x00\x03\x01\x00\x00\x8c\x00\x00\x00I\x01\x00\x00\x96\x00\x00\x00:\x02\x00\x00\x14\x00\x00\x003\x02\x00\x00-\x02\x00\x00\x82\x01\x00\x00\x00\x01\x00\x00\x86\x01\x00\x00\x7f\x01\x00\x00\xf3\x00\x00\x00\xdc\x01\x00\x00U\x00\x00\x009\x00\x00\x00>\x00\x00\x00M\x00\x00\x00\x84\x01\x00\x00M\x01\x00\x00\xe4\x01\x00\x001\x02\x00\x00\xf6\x01\x00\x00p\x01\x00\x00\xb3\x00\x00\x00h\x01\x00\x00\x1f\x00\x00\x00\x86\x00\x00\x00\xeb\x00\x00\x00c\x01\x00\x00F\x02\x00\x00\xf4\x00\x00\x00|\x01\x00\x00\xec\x01\x00\x00\xca\x01\x00\x00\'\x01\x00\x00\xe6\x00\x00\x007\x02\x00\x00\xe2\x00\x00\x00O\x00\x00\x00\x8f\x01\x00\x00\xeb\x01\x00\x00\xa9\x00\x00\x00\x1f\x01\x00\x00,\x02\x00\x00\x98\x01\x00\x00\x10\x02\x00\x00^\x01\x00\x00\xe8\x01\x00\x00v\x00\x00\x00H\x02\x00\x00R\x01\x00\x00\x1a\x02\x00\x00r\x01\x00\x00\xfb\x01\x00\x00Z\x01\x00\x00\x0b\x00\x00\x003\x00\x00\x00\x84\x00\x00\x001\x00\x00\x00\xed\x00\x00\x00:\x01\x00\x00\x06\x02\x00\x00E\x02\x00\x00\xb1\x00\x00\x00.\x01\x00\x00\xa6\x01\x00\x00!\x02\x00\x00\xad\x01\x00\x00R\x02\x00\x00\n\x01\x00\x00\xac\x01\x00\x00\x88\x00\x00\x00\xe4\x00\x00\x00\xbb\x01\x00\x00\xa7\x01\x00\x00$\x01\x00\x00\xe7\x01\x00\x00t\x01\x00\x00P\x01\x00\x000\x01\x00\x00%\x01\x00\x00\xd1\x01\x00\x00\xa1\x00\x00\x00\x0c\x02\x00\x00\xfe\x00\x00\x00\x91\x01\x00\x00\xf9\x01\x00\x00\xf2\x00\x00\x00\x06\x01\x00\x00\x0e\x01\x00\x00x\x00\x00\x00\x9e\x00\x00\x00K\x02\x00\x00\xf7\x01\x00\x00\'\x00\x00\x00\x0e\x02\x00\x00\xdf\x01\x00\x00c\x00\x00\x00H\x01\x00\x00\xb1\x01\x00\x009\x02\x00\x00i\x01\x00\x00\x8d\x00\x00\x00\xd0\x01\x00\x00\x19\x01\x00\x00)\x00\x00\x00\xd2\x01\x00\x00"\x00\x00\x00\xca\x00\x00\x00G\x02\x00\x00\x8e\x01\x00\x00\xbf\x01\x00\x00\xa2\x01\x00\x00M\x02\x00\x00y\x01\x00\x00\xf1\x00\x00\x00f\x00\x00\x00\x07\x00\x00\x00\xde\x00\x00\x00\xa3\x00\x00\x00u\x01\x00\x00\xc6\x00\x00\x00{\x01\x00\x00\xb9\x00\x00\x00&\x02\x00\x00=\x02\x00\x00W\x01\x00\x00s\x01\x00\x006\x02\x00\x00v\x01\x00\x00\xcd\x01\x00\x006\x00\x00\x00B\x00\x00\x00\x01\x00\x00\x00\xc0\x00\x00\x00r\x00\x00\x00q\x01\x00\x00\x87\x01\x00\x00\xc3\x01\x00\x00\x9c\x01\x00\x00\xef\x00\x00\x00\xc4\x01\x00\x00(\x00\x00\x00+\x02\x00\x00I\x02\x00\x00\x89\x01\x00\x00\xaf\x00\x00\x00\xa7\x00\x00\x00\xa8\x00\x00\x00B\x02\x00\x00\x94\x01\x00\x00<\x00\x00\x00e\x00\x00\x00\x02\x02\x00\x00\xdf\x00\x00\x00f\x01\x00\x00\x13\x00\x00\x00X\x00\x00\x00q\x00\x00\x00\x0e\x00\x00\x00\x11\x02\x00\x00<\x02\x00\x005\x02\x00\x00\xc8\x00\x00\x00:\x00\x00\x00\xb5\x00\x00\x00P\x00\x00\x00~\x01\x00\x00\x92\x00\x00\x005\x01\x00\x00\'\x02\x00\x00\xc7\x00\x00\x00\x0b\x02\x00\x00\x94\x00\x00\x00\x0c\x01\x00\x00C\x02\x00\x00\x13\x02\x00\x00+\x00\x00\x00\xcb\x00\x00\x00\xf8\x01\x00\x00\xd9\x00\x00\x00\\\x01\x00\x005\x00\x00\x00\x08\x00\x00\x00.\x02\x00\x00$\x02\x00\x00!\x00\x00\x00\xcb\x01\x00\x00\x99\x01\x00\x00T\x01\x00\x00\xfe\x01\x00\x00_\x01\x00\x00%\x00\x00\x00K\x00\x00\x00\x16\x01\x00\x003\x01\x00\x00X\x01\x00\x00)\x01\x00\x00\xc5\x01\x00\x00\xfa\x01\x00\x00\x8b\x00\x00\x00\xa5\x01\x00\x00\xd7\x00\x00\x00\xf5\x01\x00\x00\xbf\x00\x00\x00\xbc\x01\x00\x00A\x01\x00\x00\x15\x02\x00\x00\x17\x00\x00\x008\x00\x00\x00\xd8\x00\x00\x00\x97\x01\x00\x00]\x00\x00\x00\xe1\x00\x00\x00\x14\x01\x00\x00G\x00\x00\x00\xcd\x00\x00\x00\xce\x01\x00\x00\x1d\x02\x00\x00\xc6\x01\x00\x00\xa1\x01\x00\x00\xda\x00\x00\x004\x01\x00\x00\xb0\x01\x00\x00\x00\x00\x00\x00\r\x00\x00\x00\x1c\x01\x00\x00y\x00\x00\x00\xc2\x01\x00\x00T\x02\x00\x00\x90\x00\x00\x00H\x00\x00\x00\t\x00\x00\x00}\x01\x00\x00\xc5\x00\x00\x00\x05\x00\x00\x00L\x01\x00\x00N\x00\x00\x00A\x02\x00\x00,\x01\x00\x00\x16\x00\x00\x008\x01\x00\x00\xbe\x00\x00\x00\x1a\x00\x00\x00\xde\x01\x00\x00\x9d\x00\x00\x00j\x01\x00\x00"\x01\x00\x00\xec\x00\x00\x00\x8c\x01\x00\x00b\x00\x00\x00\x12\x00\x00\x00\xdb\x01\x00\x00=\x01\x00\x00\xea\x01\x00\x00\xc3\x00\x00\x00\x8d\x01\x00\x00\x1e\x00\x00\x00\xc7\x01\x00\x00\xd3\x00\x00\x00\xa4\x00\x00\x00\xf3\x01\x00\x00+\x01\x00\x00z\x01\x00\x00\x8a\x00\x00\x00\xef\x01\x00\x00\xf9\x00\x00\x00\xe9\x00\x00\x00\x1d\x01\x00\x00Q\x01\x00\x00Y\x00\x00\x00\x13\x01\x00\x00\x19\x02\x00\x00\x05\x01\x00\x00\xae\x01\x00\x00G\x01\x00\x00J\x01\x00\x00I\x00\x00\x00\xd2\x00\x00\x00o\x00\x00\x00p\x00\x00\x00*\x01\x00\x00\x1d\x00\x00\x00\xf0\x00\x00\x00\x07\x01\x00\x00\x1a\x01\x00\x00V\x01\x00\x00'
tbsg73
I01
sg74
I1
sg75
I-1
sg76
(lp4828
I0
aI1
aI2
aI3
aI4
aI5
aI6
aI7
aI8
aI9
aI10
aI11
aI12
aI13
aI14
aI15
aI16
aI17
aI18
aI19
aI20
aI21
aI22
aI23
aI24
aI25
aI26
aI27
aI28
aI29
aI30
aI31
aI32
aI33
aI34
aI35
aI36
aI37
aI38
aI39
aI40
aI41
aI42
aI43
aI44
aI45
aI46
aI47
aI48
aI49
aI50
aI51
aI52
aI53
aI54
aI55
aI56
aI57
aI58
aI59
aI60
aI61
aI62
aI63
aI64
aI65
aI66
aI67
aI68
aI69
aI70
aI71
aI72
aI73
aI74
aI75
aI76
aI77
aI78
aI79
aI80
aI81
aI82
aI83
aI84
aI85
aI86
aI87
aI88
aI89
aI90
aI91
aI92
aI93
aI94
aI95
aI96
aI97
aI98
aI99
aI100
aI101
aI102
aI103
aI104
aI105
aI106
aI107
aI108
aI109
aI110
aI111
aI112
aI113
aI114
aI115
aI116
aI117
aI118
aI119
aI120
aI121
aI122
aI123
aI124
aI125
aI126
aI127
aI128
aI129
aI130
aI131
aI132
aI133
aI134
aI135
aI136
aI137
aI138
aI139
aI140
aI141
aI142
aI143
aI144
aI145
aI146
aI147
aI148
aI149
aI150
aI151
aI152
aI153
aI154
aI155
aI156
aI157
aI158
aI159
aI160
aI161
aI162
aI163
aI164
aI165
aI166
aI167
aI168
aI169
aI170
aI171
aI172
aI173
aI174
aI175
aI176
aI177
aI178
aI179
aI180
aI181
aI182
aI183
aI184
aI185
aI186
aI187
aI188
aI189
aI190
aI191
aI192
aI193
aI194
aI195
aI196
aI197
aI198
aI199
aI200
aI201
aI202
aI203
aI204
aI205
aI206
aI207
aI208
aI209
aI210
aI211
aI212
aI213
aI214
aI215
aI216
aI217
aI218
aI219
aI220
aI221
aI222
aI223
aI224
aI225
aI226
aI227
aI228
aI229
aI230
aI231
aI232
aI233
aI234
aI235
aI236
aI237
aI238
aI239
aI240
aI241
aI242
aI243
aI244
aI245
aI246
aI247
aI248
aI249
aI250
aI251
aI252
aI253
aI254
aI255
aI256
aI257
aI258
aI259
aI260
aI261
aI262
aI263
aI264
aI265
aI266
aI267
aI268
aI269
aI270
aI271
aI272
aI273
aI274
aI275
aI276
aI277
aI278
aI279
aI280
aI281
aI282
aI283
aI284
aI285
aI286
aI287
aI288
aI289
aI290
aI291
aI292
aI293
aI294
aI295
aI296
aI297
aI298
aI299
aI300
aI301
aI302
aI303
aI304
aI305
aI306
aI307
aI308
aI309
aI310
aI311
aI312
aI313
aI314
aI315
aI316
aI317
aI318
aI319
aI320
aI321
aI322
aI323
aI324
aI325
aI326
aI327
aI328
aI329
aI330
aI331
aI332
aI333
aI334
aI335
aI336
aI337
aI338
aI339
aI340
aI341
aI342
aI343
aI344
aI345
aI346
aI347
aI348
aI349
aI350
aI351
aI352
aI353
aI354
aI355
aI356
aI357
aI358
aI359
aI360
aI361
aI362
aI363
aI364
aI365
aI366
aI367
aI368
aI369
aI370
aI371
aI372
aI373
aI374
aI375
aI376
aI377
aI378
aI379
aI380
aI381
aI382
aI383
aI384
aI385
aI386
aI387
aI388
aI389
aI390
aI391
aI392
aI393
aI394
aI395
aI396
aI397
aI398
aI399
aI400
aI401
aI402
aI403
aI404
aI405
aI406
aI407
aI408
aI409
aI410
aI411
aI412
aI413
aI414
aI415
aI416
aI417
aI418
aI419
aI420
aI421
aI422
aI423
aI424
aI425
aI426
aI427
aI428
aI429
aI430
aI431
aI432
aI433
aI434
aI435
aI436
aI437
aI438
aI439
aI440
aI441
aI442
aI443
aI444
aI445
aI446
aI447
aI448
aI449
aI450
aI451
aI452
aI453
aI454
aI455
aI456
aI457
aI458
aI459
aI460
aI461
aI462
aI463
aI464
aI465
aI466
aI467
aI468
aI469
aI470
aI471
aI472
aI473
aI474
aI475
aI476
aI477
aI478
aI479
aI480
aI481
aI482
aI483
aI484
aI485
aI486
aI487
aI488
aI489
aI490
aI491
aI492
aI493
aI494
aI495
aI496
aI497
aI498
aI499
aI500
aI501
aI502
aI503
aI504
aI505
aI506
aI507
aI508
aI509
aI510
aI511
aI512
aI513
aI514
aI515
aI516
aI517
aI518
aI519
aI520
aI521
aI522
aI523
aI524
aI525
aI526
aI527
aI528
aI529
aI530
aI531
aI532
aI533
aI534
aI535
aI536
aI537
aI538
aI539
aI540
aI541
aI542
aI543
aI544
aI545
aI546
aI547
aI548
aI549
aI550
aI551
aI552
aI553
aI554
aI555
aI556
aI557
aI558
aI559
aI560
aI561
aI562
aI563
aI564
aI565
aI566
aI567
aI568
aI569
aI570
aI571
aI572
aI573
aI574
aI575
aI576
aI577
aI578
aI579
aI580
aI581
aI582
aI583
aI584
aI585
aI586
aI587
aI588
aI589
aI590
aI591
aI592
aI593
aI594
aI595
aI596
aI597
aI598
aI599
asg78
Nsg79
cnumpy.core.multiarray
scalar
p4829
(g4827
S'V\x01\x00\x00'
tRp4830
sg80
I600
sg81
I0
sg82
I600
sg83
I01
sbag36
asS'savePickle'
p4831
I00
sb.