ccopy_reg
_reconstructor
p1
(cpsychopy.data
ExperimentHandler
p2
c__builtin__
object
p3
NtRp4
(dp5
S'originPath'
p6
NsS'dataFileName'
p7
Vsubject707
p8
sS'runtimeInfo'
p9
NsS'name'
p10
VVERBALRBsubject 707
p11
sS'dataNames'
p12
(lp13
S'Block Number'
p14
aS'Key pressed'
p15
aS'Category'
p16
aS'Correct?'
p17
aS'Int Match?'
p18
aS'Int Response'
p19
aS'Int Correct?'
p20
aS'Line Accuracy'
p21
aS'Interference Accuracy'
p22
aS'Matching Interferences'
p23
aS'New instruction shown?'
p24
aS'Buttons switched?'
p25
aS'Fast?'
p26
asS'autoLog'
p27
I01
sS'extraInfo'
p28
(dp29
S'gender'
p30
Vm
sS'age'
p31
V19
p32
ssS'loopsUnfinished'
p33
(lp34
g1
(cpsychopy.data
TrialHandler
p35
g3
NtRp36
(dp37
S'origin'
p38
NsS'thisTrial'
p39
I13
sS'_exp'
p40
I83153904
sg10
S''
sg6
S'C:\\Users\\Mike\\Desktop\\Dual2\\NEWSpatialii.py'
p41
sS'thisRepN'
p42
I39
sg27
I01
sg28
NsS'data'
p43
g1
(cpsychopy.data
DataHandler
p44
c__builtin__
dict
p45
(dp46
S'ran'
p47
cnumpy.ma.core
_mareconstruct
p48
(cnumpy.ma.core
MaskedArray
p49
cnumpy
ndarray
p50
(I0
tp51
S'b'
tRp52
(I1
(I15
I40
tcnumpy
dtype
p53
(S'f4'
I0
I1
tRp54
(I3
S'<'
NNNI-1
I-1
I0
tbI00
S'\x00\x00\x80?\x00\x00\x80?\x00\x00\x80?\x00\x00\x80?\x00\x00\x80?\x00\x00\x80?\x00\x00\x80?\x00\x00\x80?\x00\x00\x80?\x00\x00\x80?\x00\x00\x80?\x00\x00\x80?\x00\x00\x80?\x00\x00\x80?\x00\x00\x80?\x00\x00\x80?\x00\x00\x80?\x00\x00\x80?\x00\x00\x80?\x00\x00\x80?\x00\x00\x80?\x00\x00\x80?\x00\x00\x80?\x00\x00\x80?\x00\x00\x80?\x00\x00\x80?\x00\x00\x80?\x00\x00\x80?\x00\x00\x80?\x00\x00\x80?\x00\x00\x80?\x00\x00\x80?\x00\x00\x80?\x00\x00\x80?\x00\x00\x80?\x00\x00\x80?\x00\x00\x80?\x00\x00\x80?\x00\x00\x80?\x00\x00\x80?\x00\x00\x80?\x00\x00\x80?\x00\x00\x80?\x00\x00\x80?\x00\x00\x80?\x00\x00\x80?\x00\x00\x80?\x00\x00\x80?\x00\x00\x80?\x00\x00\x80?\x00\x00\x80?\x00\x00\x80?\x00\x00\x80?\x00\x00\x80?\x00\x00\x80?\x00\x00\x80?\x00\x00\x80?\x00\x00\x80?\x00\x00\x80?\x00\x00\x80?\x00\x00\x80?\x00\x00\x80?\x00\x00\x80?\x00\x00\x80?\x00\x00\x80?\x00\x00\x80?\x00\x00\x80?\x00\x00\x80?\x00\x00\x80?\x00\x00\x80?\x00\x00\x80?\x00\x00\x80?\x00\x00\x80?\x00\x00\x80?\x00\x00\x80?\x00\x00\x80?\x00\x00\x80?\x00\x00\x80?\x00\x00\x80?\x00\x00\x80?\x00\x00\x80?\x00\x00\x80?\x00\x00\x80?\x00\x00\x80?\x00\x00\x80?\x00\x00\x80?\x00\x00\x80?\x00\x00\x80?\x00\x00\x80?\x00\x00\x80?\x00\x00\x80?\x00\x00\x80?\x00\x00\x80?\x00\x00\x80?\x00\x00\x80?\x00\x00\x80?\x00\x00\x80?\x00\x00\x80?\x00\x00\x80?\x00\x00\x80?\x00\x00\x80?\x00\x00\x80?\x00\x00\x80?\x00\x00\x80?\x00\x00\x80?\x00\x00\x80?\x00\x00\x80?\x00\x00\x80?\x00\x00\x80?\x00\x00\x80?\x00\x00\x80?\x00\x00\x80?\x00\x00\x80?\x00\x00\x80?\x00\x00\x80?\x00\x00\x80?\x00\x00\x80?\x00\x00\x80?\x00\x00\x80?\x00\x00\x80?\x00\x00\x80?\x00\x00\x80?\x00\x00\x80?\x00\x00\x80?\x00\x00\x80?\x00\x00\x80?\x00\x00\x80?\x00\x00\x80?\x00\x00\x80?\x00\x00\x80?\x00\x00\x80?\x00\x00\x80?\x00\x00\x80?\x00\x00\x80?\x00\x00\x80?\x00\x00\x80?\x00\x00\x80?\x00\x00\x80?\x00\x00\x80?\x00\x00\x80?\x00\x00\x80?\x00\x00\x80?\x00\x00\x80?\x00\x00\x80?\x00\x00\x80?\x00\x00\x80?\x00\x00\x80?\x00\x00\x80?\x00\x00\x80?\x00\x00\x80?\x00\x00\x80?\x00\x00\x80?\x00\x00\x80?\x00\x00\x80?\x00\x00\x80?\x00\x00\x80?\x00\x00\x80?\x00\x00\x80?\x00\x00\x80?\x00\x00\x80?\x00\x00\x80?\x00\x00\x80?\x00\x00\x80?\x00\x00\x80?\x00\x00\x80?\x00\x00\x80?\x00\x00\x80?\x00\x00\x80?\x00\x00\x80?\x00\x00\x80?\x00\x00\x80?\x00\x00\x80?\x00\x00\x80?\x00\x00\x80?\x00\x00\x80?\x00\x00\x80?\x00\x00\x80?\x00\x00\x80?\x00\x00\x80?\x00\x00\x80?\x00\x00\x80?\x00\x00\x80?\x00\x00\x80?\x00\x00\x80?\x00\x00\x80?\x00\x00\x80?\x00\x00\x80?\x00\x00\x80?\x00\x00\x80?\x00\x00\x80?\x00\x00\x80?\x00\x00\x80?\x00\x00\x80?\x00\x00\x80?\x00\x00\x80?\x00\x00\x80?\x00\x00\x80?\x00\x00\x80?\x00\x00\x80?\x00\x00\x80?\x00\x00\x80?\x00\x00\x80?\x00\x00\x80?\x00\x00\x80?\x00\x00\x80?\x00\x00\x80?\x00\x00\x80?\x00\x00\x80?\x00\x00\x80?\x00\x00\x80?\x00\x00\x80?\x00\x00\x80?\x00\x00\x80?\x00\x00\x80?\x00\x00\x80?\x00\x00\x80?\x00\x00\x80?\x00\x00\x80?\x00\x00\x80?\x00\x00\x80?\x00\x00\x80?\x00\x00\x80?\x00\x00\x80?\x00\x00\x80?\x00\x00\x80?\x00\x00\x80?\x00\x00\x80?\x00\x00\x80?\x00\x00\x80?\x00\x00\x80?\x00\x00\x80?\x00\x00\x80?\x00\x00\x80?\x00\x00\x80?\x00\x00\x80?\x00\x00\x80?\x00\x00\x80?\x00\x00\x80?\x00\x00\x80?\x00\x00\x80?\x00\x00\x80?\x00\x00\x80?\x00\x00\x80?\x00\x00\x80?\x00\x00\x80?\x00\x00\x80?\x00\x00\x80?\x00\x00\x80?\x00\x00\x80?\x00\x00\x80?\x00\x00\x80?\x00\x00\x80?\x00\x00\x80?\x00\x00\x80?\x00\x00\x80?\x00\x00\x80?\x00\x00\x80?\x00\x00\x80?\x00\x00\x80?\x00\x00\x80?\x00\x00\x80?\x00\x00\x80?\x00\x00\x80?\x00\x00\x80?\x00\x00\x80?\x00\x00\x80?\x00\x00\x80?\x00\x00\x80?\x00\x00\x80?\x00\x00\x80?\x00\x00\x80?\x00\x00\x80?\x00\x00\x80?\x00\x00\x80?\x00\x00\x80?\x00\x00\x80?\x00\x00\x80?\x00\x00\x80?\x00\x00\x80?\x00\x00\x80?\x00\x00\x80?\x00\x00\x80?\x00\x00\x80?\x00\x00\x80?\x00\x00\x80?\x00\x00\x80?\x00\x00\x80?\x00\x00\x80?\x00\x00\x80?\x00\x00\x80?\x00\x00\x80?\x00\x00\x80?\x00\x00\x80?\x00\x00\x80?\x00\x00\x80?\x00\x00\x80?\x00\x00\x80?\x00\x00\x80?\x00\x00\x80?\x00\x00\x80?\x00\x00\x80?\x00\x00\x80?\x00\x00\x80?\x00\x00\x80?\x00\x00\x80?\x00\x00\x80?\x00\x00\x80?\x00\x00\x80?\x00\x00\x80?\x00\x00\x80?\x00\x00\x80?\x00\x00\x80?\x00\x00\x80?\x00\x00\x80?\x00\x00\x80?\x00\x00\x80?\x00\x00\x80?\x00\x00\x80?\x00\x00\x80?\x00\x00\x80?\x00\x00\x80?\x00\x00\x80?\x00\x00\x80?\x00\x00\x80?\x00\x00\x80?\x00\x00\x80?\x00\x00\x80?\x00\x00\x80?\x00\x00\x80?\x00\x00\x80?\x00\x00\x80?\x00\x00\x80?\x00\x00\x80?\x00\x00\x80?\x00\x00\x80?\x00\x00\x80?\x00\x00\x80?\x00\x00\x80?\x00\x00\x80?\x00\x00\x80?\x00\x00\x80?\x00\x00\x80?\x00\x00\x80?\x00\x00\x80?\x00\x00\x80?\x00\x00\x80?\x00\x00\x80?\x00\x00\x80?\x00\x00\x80?\x00\x00\x80?\x00\x00\x80?\x00\x00\x80?\x00\x00\x80?\x00\x00\x80?\x00\x00\x80?\x00\x00\x80?\x00\x00\x80?\x00\x00\x80?\x00\x00\x80?\x00\x00\x80?\x00\x00\x80?\x00\x00\x80?\x00\x00\x80?\x00\x00\x80?\x00\x00\x80?\x00\x00\x80?\x00\x00\x80?\x00\x00\x80?\x00\x00\x80?\x00\x00\x80?\x00\x00\x80?\x00\x00\x80?\x00\x00\x80?\x00\x00\x80?\x00\x00\x80?\x00\x00\x80?\x00\x00\x80?\x00\x00\x80?\x00\x00\x80?\x00\x00\x80?\x00\x00\x80?\x00\x00\x80?\x00\x00\x80?\x00\x00\x80?\x00\x00\x80?\x00\x00\x80?\x00\x00\x80?\x00\x00\x80?\x00\x00\x80?\x00\x00\x80?\x00\x00\x80?\x00\x00\x80?\x00\x00\x80?\x00\x00\x80?\x00\x00\x80?\x00\x00\x80?\x00\x00\x80?\x00\x00\x80?\x00\x00\x80?\x00\x00\x80?\x00\x00\x80?\x00\x00\x80?\x00\x00\x80?\x00\x00\x80?\x00\x00\x80?\x00\x00\x80?\x00\x00\x80?\x00\x00\x80?\x00\x00\x80?\x00\x00\x80?\x00\x00\x80?\x00\x00\x80?\x00\x00\x80?\x00\x00\x80?\x00\x00\x80?\x00\x00\x80?\x00\x00\x80?\x00\x00\x80?\x00\x00\x80?\x00\x00\x80?\x00\x00\x80?\x00\x00\x80?\x00\x00\x80?\x00\x00\x80?\x00\x00\x80?\x00\x00\x80?\x00\x00\x80?\x00\x00\x80?\x00\x00\x80?\x00\x00\x80?\x00\x00\x80?\x00\x00\x80?\x00\x00\x80?\x00\x00\x80?\x00\x00\x80?\x00\x00\x80?\x00\x00\x80?\x00\x00\x80?\x00\x00\x80?\x00\x00\x80?\x00\x00\x80?\x00\x00\x80?\x00\x00\x80?\x00\x00\x80?\x00\x00\x80?\x00\x00\x80?\x00\x00\x80?\x00\x00\x80?\x00\x00\x80?\x00\x00\x80?\x00\x00\x80?\x00\x00\x80?\x00\x00\x80?\x00\x00\x80?\x00\x00\x80?\x00\x00\x80?\x00\x00\x80?\x00\x00\x80?\x00\x00\x80?\x00\x00\x80?\x00\x00\x80?\x00\x00\x80?\x00\x00\x80?\x00\x00\x80?\x00\x00\x80?\x00\x00\x80?\x00\x00\x80?\x00\x00\x80?\x00\x00\x80?\x00\x00\x80?\x00\x00\x80?\x00\x00\x80?\x00\x00\x80?\x00\x00\x80?\x00\x00\x80?\x00\x00\x80?\x00\x00\x80?\x00\x00\x80?\x00\x00\x80?\x00\x00\x80?\x00\x00\x80?\x00\x00\x80?\x00\x00\x80?\x00\x00\x80?\x00\x00\x80?\x00\x00\x80?\x00\x00\x80?\x00\x00\x80?\x00\x00\x80?\x00\x00\x80?\x00\x00\x80?\x00\x00\x80?\x00\x00\x80?\x00\x00\x80?\x00\x00\x80?\x00\x00\x80?\x00\x00\x80?\x00\x00\x80?\x00\x00\x80?\x00\x00\x80?\x00\x00\x80?\x00\x00\x80?\x00\x00\x80?\x00\x00\x80?\x00\x00\x80?\x00\x00\x80?\x00\x00\x80?\x00\x00\x80?\x00\x00\x80?\x00\x00\x80?\x00\x00\x80?\x00\x00\x80?\x00\x00\x80?\x00\x00\x80?\x00\x00\x80?\x00\x00\x80?\x00\x00\x80?\x00\x00\x80?\x00\x00\x80?\x00\x00\x80?\x00\x00\x80?\x00\x00\x80?\x00\x00\x80?\x00\x00\x80?\x00\x00\x80?\x00\x00\x80?\x00\x00\x80?\x00\x00\x80?\x00\x00\x80?\x00\x00\x80?\x00\x00\x80?\x00\x00\x80?\x00\x00\x80?\x00\x00\x80?\x00\x00\x80?\x00\x00\x80?\x00\x00\x80?\x00\x00\x80?\x00\x00\x80?\x00\x00\x80?\x00\x00\x80?\x00\x00\x80?\x00\x00\x80?\x00\x00\x80?\x00\x00\x80?\x00\x00\x80?\x00\x00\x80?\x00\x00\x80?\x00\x00\x80?\x00\x00\x80?\x00\x00\x80?\x00\x00\x80?\x00\x00\x80?\x00\x00\x80?\x00\x00\x80?\x00\x00\x80?\x00\x00\x80?\x00\x00\x80?\x00\x00\x80?\x00\x00\x80?\x00\x00\x80?\x00\x00\x80?\x00\x00\x80?\x00\x00\x80?\x00\x00\x80?\x00\x00\x80?\x00\x00\x80?\x00\x00\x80?\x00\x00\x80?\x00\x00\x80?\x00\x00\x80?\x00\x00\x80?\x00\x00\x80?\x00\x00\x80?\x00\x00\x80?\x00\x00\x80?\x00\x00\x80?\x00\x00\x80?\x00\x00\x80?\x00\x00\x80?\x00\x00\x80?\x00\x00\x80?\x00\x00\x80?\x00\x00\x80?\x00\x00\x80?\x00\x00\x80?\x00\x00\x80?\x00\x00\x80?\x00\x00\x80?\x00\x00\x80?\x00\x00\x80?\x00\x00\x80?\x00\x00\x80?\x00\x00\x80?\x00\x00\x80?\x00\x00\x80?\x00\x00\x80?\x00\x00\x80?\x00\x00\x80?\x00\x00\x80?'
S'\x00\x00\x00\x00\x00\x00\x00\x00\x00\x00\x00\x00\x00\x00\x00\x00\x00\x00\x00\x00\x00\x00\x00\x00\x00\x00\x00\x00\x00\x00\x00\x00\x00\x00\x00\x00\x00\x00\x00\x00\x00\x00\x00\x00\x00\x00\x00\x00\x00\x00\x00\x00\x00\x00\x00\x00\x00\x00\x00\x00\x00\x00\x00\x00\x00\x00\x00\x00\x00\x00\x00\x00\x00\x00\x00\x00\x00\x00\x00\x00\x00\x00\x00\x00\x00\x00\x00\x00\x00\x00\x00\x00\x00\x00\x00\x00\x00\x00\x00\x00\x00\x00\x00\x00\x00\x00\x00\x00\x00\x00\x00\x00\x00\x00\x00\x00\x00\x00\x00\x00\x00\x00\x00\x00\x00\x00\x00\x00\x00\x00\x00\x00\x00\x00\x00\x00\x00\x00\x00\x00\x00\x00\x00\x00\x00\x00\x00\x00\x00\x00\x00\x00\x00\x00\x00\x00\x00\x00\x00\x00\x00\x00\x00\x00\x00\x00\x00\x00\x00\x00\x00\x00\x00\x00\x00\x00\x00\x00\x00\x00\x00\x00\x00\x00\x00\x00\x00\x00\x00\x00\x00\x00\x00\x00\x00\x00\x00\x00\x00\x00\x00\x00\x00\x00\x00\x00\x00\x00\x00\x00\x00\x00\x00\x00\x00\x00\x00\x00\x00\x00\x00\x00\x00\x00\x00\x00\x00\x00\x00\x00\x00\x00\x00\x00\x00\x00\x00\x00\x00\x00\x00\x00\x00\x00\x00\x00\x00\x00\x00\x00\x00\x00\x00\x00\x00\x00\x00\x00\x00\x00\x00\x00\x00\x00\x00\x00\x00\x00\x00\x00\x00\x00\x00\x00\x00\x00\x00\x00\x00\x00\x00\x00\x00\x00\x00\x00\x00\x00\x00\x00\x00\x00\x00\x00\x00\x00\x00\x00\x00\x00\x00\x00\x00\x00\x00\x00\x00\x00\x00\x00\x00\x00\x00\x00\x00\x00\x00\x00\x00\x00\x00\x00\x00\x00\x00\x00\x00\x00\x00\x00\x00\x00\x00\x00\x00\x00\x00\x00\x00\x00\x00\x00\x00\x00\x00\x00\x00\x00\x00\x00\x00\x00\x00\x00\x00\x00\x00\x00\x00\x00\x00\x00\x00\x00\x00\x00\x00\x00\x00\x00\x00\x00\x00\x00\x00\x00\x00\x00\x00\x00\x00\x00\x00\x00\x00\x00\x00\x00\x00\x00\x00\x00\x00\x00\x00\x00\x00\x00\x00\x00\x00\x00\x00\x00\x00\x00\x00\x00\x00\x00\x00\x00\x00\x00\x00\x00\x00\x00\x00\x00\x00\x00\x00\x00\x00\x00\x00\x00\x00\x00\x00\x00\x00\x00\x00\x00\x00\x00\x00\x00\x00\x00\x00\x00\x00\x00\x00\x00\x00\x00\x00\x00\x00\x00\x00\x00\x00\x00\x00\x00\x00\x00\x00\x00\x00\x00\x00\x00\x00\x00\x00\x00\x00\x00\x00\x00\x00\x00\x00\x00\x00\x00\x00\x00\x00\x00\x00\x00\x00\x00\x00\x00\x00\x00\x00\x00\x00\x00\x00\x00\x00\x00\x00\x00\x00\x00\x00\x00\x00\x00\x00\x00\x00\x00\x00\x00\x00\x00\x00\x00\x00\x00\x00\x00\x00\x00\x00\x00\x00\x00\x00\x00\x00\x00\x00\x00\x00\x00\x00\x00\x00\x00\x00\x00\x00\x00\x00\x00\x00\x00\x00\x00\x00\x00\x00\x00\x00\x00\x00\x00\x00\x00\x00\x00\x00\x00\x00\x00\x00\x00\x00\x00\x00\x00\x00\x00\x00\x00\x00\x00\x00\x00\x00\x00\x00\x00\x00\x00\x00\x00\x00\x00\x00\x00\x00\x00\x00\x00\x00\x00'
NtbsS'order'
p55
g48
(g49
g50
g51
S'b'
tRp56
(I1
(I15
I40
tg54
I00
S'\x00\x00\x80?\x00\x00\xc0@\x00\x000A\x00\x00\xa8A\x00\x00\x04B\x00\x00\xd2B\x00\x00\xe6B\x00\x00\x02C\x00\x00\x1fC\x00\x00&C\x00\x00@C\x00\x00EC\x00\x00HC\x00\x00JC\x00\x00`C\x00\x00tC\x00\x00}C\x00\x00\x93C\x00\x00\x95C\x00\x00\x9cC\x00\x80\xb0C\x00\x00\xb5C\x00\x80\xb5C\x00\x80\xd2C\x00\x00\xd7C\x00\x00\xddC\x00\x00\xe3C\x00\x00\xe6C\x00\x00\xeeC\x00\x00\xf0C\x00\x80\xfcC\x00@\x00D\x00\x00\x01D\x00\x00\x02D\x00\x80\x05D\x00\x00\x07D\x00\xc0\tD\x00\x80\x0bD\x00\xc0\x0cD\x00\xc0\x11D\x00\x00\x98A\x00\x00\xd8A\x00\x00\x1cB\x00\x004B\x00\x00\xa0B\x00\x00\xc0B\x00\x00\xc8B\x00\x00\xceB\x00\x00\xdcB\x00\x00\x04C\x00\x00\x07C\x00\x00\tC\x00\x00\x0cC\x00\x00\rC\x00\x00\x1aC\x00\x00\x1cC\x00\x00#C\x00\x002C\x00\x00RC\x00\x00vC\x00\x00~C\x00\x00\x81C\x00\x00\x84C\x00\x80\x89C\x00\x00\x8aC\x00\x00\xb3C\x00\x00\xc1C\x00\x80\xc1C\x00\x00\xcaC\x00\x00\xd6C\x00\x80\nD\x00\xc0\nD\x00\x00\rD\x00@\x0fD\x00\x80\x0fD\x00\xc0\x10D\x00\x00\x11D\x00\x00\x12D\x00\x00\x13D\x00@\x13D\x00\x00\xc8A\x00\x00\xe8A\x00\x00TB\x00\x00\x86B\x00\x00\x8eB\x00\x00\x94B\x00\x00\xbaB\x00\x00\xbeB\x00\x00\xc4B\x00\x00\x13C\x00\x00)C\x00\x009C\x00\x00QC\x00\x00\\C\x00\x00^C\x00\x00lC\x00\x00\x88C\x00\x00\x8fC\x00\x00\x92C\x00\x80\x96C\x00\x80\x9eC\x00\x80\xa1C\x00\x80\xa6C\x00\x00\xa7C\x00\x00\xc0C\x00\x80\xceC\x00\x00\xd3C\x00\x80\xe3C\x00\x00\xe5C\x00\x00\xe7C\x00\x80\xe7C\x00\x00\xf6C\x00\x80\xfaC\x00\x00\xfdC\x00\x00\x00D\x00\x80\x00D\x00\xc0\x00D\x00@\tD\x00\x00\x0bD\x00@\x11D\x00\x00\x00\x00\x00\x00pA\x00\x00$B\x00\x00lB\x00\x00\x92B\x00\x00\x96B\x00\x00\xb8B\x00\x00\xf2B\x00\x00\xfcB\x00\x00\x08C\x00\x00\x1bC\x00\x00$C\x00\x00,C\x00\x00:C\x00\x00VC\x00\x00ZC\x00\x00hC\x00\x00nC\x00\x80\x8aC\x00\x00\x8eC\x00\x80\x8eC\x00\x00\x90C\x00\x80\x91C\x00\x80\x94C\x00\x00\x99C\x00\x00\x9eC\x00\x80\xc7C\x00\x80\xc8C\x00\x80\xd0C\x00\x80\xe5C\x00\x00\xe8C\x00\x80\xefC\x00\x80\xf0C\x00\x00\xf4C\x00\x00\xfaC\x00\x80\x02D\x00\xc0\x02D\x00\x00\nD\x00\xc0\x0bD\x00\xc0\rD\x00\x00`A\x00\x00 B\x00\x000B\x00\x00\xa2B\x00\x00\xd0B\x00\x00\xf8B\x00\x00!C\x00\x005C\x00\x00CC\x00\x00SC\x00\x00TC\x00\x00[C\x00\x00dC\x00\x00iC\x00\x00qC\x00\x00\x80C\x00\x00\x86C\x00\x00\x89C\x00\x00\x94C\x00\x00\x96C\x00\x80\x99C\x00\x00\xa4C\x00\x80\xabC\x00\x80\xadC\x00\x00\xbfC\x00\x80\xcbC\x00\x00\xceC\x00\x80\xcfC\x00\x80\xd7C\x00\x80\xd8C\x00\x80\xdeC\x00\x80\xe4C\x00\x00\xebC\x00\x00\xf8C\x00@\x04D\x00\xc0\x06D\x00\x00\x08D\x00@\nD\x00@\x0cD\x00@\x14D\x00\x00\xb8A\x00\x00(B\x00\x00@B\x00\x00dB\x00\x00\x80B\x00\x00\x9aB\x00\x00\xaaB\x00\x00\xcaB\x00\x00\x12C\x00\x00\x14C\x00\x00(C\x00\x00>C\x00\x00IC\x00\x00]C\x00\x00uC\x00\x80\x81C\x00\x00\x82C\x00\x00\x83C\x00\x80\x85C\x00\x80\x87C\x00\x00\x8bC\x00\x80\xa0C\x00\x00\xa9C\x00\x00\xb6C\x00\x80\xbdC\x00\x00\xc2C\x00\x00\xcdC\x00\x80\xd5C\x00\x80\xe0C\x00\x00\xe9C\x00\x80\xfdC\x00\xc0\x03D\x00\xc0\x04D\x00@\x08D\x00@\x0bD\x00\x00\x10D\x00\x80\x12D\x00\xc0\x13D\x00\x00\x14D\x00\xc0\x14D\x00\x00\xe0@\x00\x00\x00A\x00\x00\x90A\x00\x00PB\x00\x00hB\x00\x00xB\x00\x00|B\x00\x00\x82B\x00\x00\xecB\x00\x00\xeeB\x00\x00\xfaB\x00\x00\x10C\x00\x00*C\x00\x00+C\x00\x00-C\x00\x00DC\x00\x00GC\x00\x00rC\x00\x00zC\x00\x80\x8bC\x00\x00\x97C\x00\x80\xa7C\x00\x80\xacC\x00\x80\xb1C\x00\x00\xb7C\x00\x80\xbaC\x00\x00\xd1C\x00\x00\xd2C\x00\x00\xdcC\x00\x80\xddC\x00\x80\xe8C\x00\x00\xeaC\x00\x80\xf2C\x00\x80\xf3C\x00\x00\xf5C\x00\x80\xf7C\x00\xc0\x07D\x00\x80\tD\x00\x00\x0eD\x00@\x15D\x00\x00@@\x00\x00@A\x00\x00\xb0A\x00\x00\x08B\x00\x00\x84B\x00\x00\x88B\x00\x00\xa6B\x00\x00\xbcB\x00\x00\xd6B\x00\x00\xe4B\x00\x00\xf4B\x00\x00\xfeB\x00\x00\x0eC\x00\x00\x1dC\x00\x00=C\x00\x00FC\x00\x00PC\x00\x00gC\x00\x00kC\x00\x80\x83C\x00\x80\x98C\x00\x00\xa8C\x00\x80\xafC\x00\x00\xb4C\x00\x80\xb8C\x00\x00\xb9C\x00\x80\xbcC\x00\x00\xc3C\x00\x00\xc5C\x00\x00\xc7C\x00\x80\xc9C\x00\x00\xccC\x00\x80\xcdC\x00\x00\xedC\x00\x00\xf1C\x00\x80\xfbC\x00\x80\xfeC\x00\x00\x06D\x00\x80\x0cD\x00@\x10D\x00\x00 A\x00\x00\x80A\x00\x00\xc0A\x00\x00`B\x00\x00tB\x00\x00\x90B\x00\x00\x9cB\x00\x00\x9eB\x00\x00\xa4B\x00\x00\x00C\x00\x00\x05C\x00\x00\x1eC\x00\x00 C\x00\x000C\x00\x001C\x00\x00<C\x00\x00KC\x00\x00_C\x00\x80\x8fC\x00\x80\x92C\x00\x80\x9fC\x00\x00\xa0C\x00\x00\xa6C\x00\x00\xacC\x00\x00\xafC\x00\x80\xb4C\x00\x80\xbfC\x00\x00\xcbC\x00\x00\xd4C\x00\x00\xd5C\x00\x80\xd9C\x00\x00\xdeC\x00\x00\xe2C\x00\x80\xebC\x00\x00\xefC\x00\x00\xfcC\x00@\x03D\x00@\x06D\x00\x80\x10D\x00\x80\x11D\x00\x00\x80@\x00\x00\x14B\x00\x00\x18B\x00\x008B\x00\x00HB\x00\x00\xacB\x00\x00\xc6B\x00\x00\xdaB\x00\x00YC\x00\x00eC\x00\x00fC\x00\x00oC\x00\x00pC\x00\x00yC\x00\x80\x95C\x00\x00\x9aC\x00\x80\x9aC\x00\x80\x9dC\x00\x00\x9fC\x00\x00\xa3C\x00\x80\xa3C\x00\x00\xa5C\x00\x00\xadC\x00\x00\xaeC\x00\x00\xbcC\x00\x80\xccC\x00\x80\xd4C\x00\x00\xd9C\x00\x80\xedC\x00\x80\xf1C\x00\x80\xf5C\x00\x00\xf7C\x00\x00\xfeC\x00\x80\xffC\x00@\x01D\x00\x80\x03D\x00@\x07D\x00@\x0eD\x00\x80\x0eD\x00\x00\x0fD\x00\x00\x00@\x00\x00PA\x00\x00\xf0A\x00\x00<B\x00\x00LB\x00\x00\xaeB\x00\x00\xb2B\x00\x00\xb6B\x00\x00\xdeB\x00\x00\xe2B\x00\x00\xeaB\x00\x00\x06C\x00\x00%C\x00\x00UC\x00\x00WC\x00\x00XC\x00\x00aC\x00\x80\x82C\x00\x80\x8cC\x00\x00\x9bC\x00\x80\xa8C\x00\x00\xaaC\x00\x00\xbeC\x00\x80\xc0C\x00\x00\xc6C\x00\x80\xcaC\x00\x80\xd1C\x00\x80\xdaC\x00\x80\xdfC\x00\x00\xe0C\x00\x80\xe1C\x00\x80\xe9C\x00\x80\xeeC\x00\x80\xf9C\x00\x00\xffC\x00@\x05D\x00\x80\x07D\x00\xc0\x08D\x00\x00\tD\x00\x80\rD\x00\x00\x10A\x00\x00\x88A\x00\x00\xe0A\x00\x00\x8aB\x00\x00\xb4B\x00\x00\xccB\x00\x00\xd4B\x00\x00\xe0B\x00\x00\x16C\x00\x00\x17C\x00\x003C\x00\x008C\x00\x00AC\x00\x00mC\x00\x00xC\x00\x80\x88C\x00\x00\x8cC\x00\x00\x8dC\x00\x80\x93C\x00\x00\x98C\x00\x80\x9cC\x00\x80\xa4C\x00\x80\xa5C\x00\x00\xabC\x00\x00\xb2C\x00\x80\xb2C\x00\x80\xb7C\x00\x80\xbeC\x00\x80\xc3C\x00\x00\xcfC\x00\x00\xd8C\x00\x00\xdaC\x00\x00\xe4C\x00\x80\xe6C\x00\x00\xf3C\x00\x00\xf9C\x00\x00\x03D\x00\x80\x04D\x00@\x12D\x00\x80\x15D\x00\x00\xa0@\x00\x00\xd0A\x00\x00\xf8A\x00\x00\x0cB\x00\x00,B\x00\x00DB\x00\x00\xb0B\x00\x00\xd8B\x00\x00\xe8B\x00\x00\xf6B\x00\x00\x0bC\x00\x00\x19C\x00\x00"C\x00\x00/C\x00\x00?C\x00\x00OC\x00\x00jC\x00\x00{C\x00\x80\x8dC\x00\x00\x9dC\x00\x00\xa2C\x00\x80\xa2C\x00\x80\xaaC\x00\x80\xb6C\x00\x00\xbaC\x00\x00\xbbC\x00\x80\xbbC\x00\x00\xbdC\x00\x80\xc2C\x00\x80\xc4C\x00\x00\xc9C\x00\x80\xd6C\x00\x80\xeaC\x00\x00\xecC\x00\x80\xf4C\x00\xc0\x01D\x00\x00\x04D\x00\x80\x06D\x00\xc0\x0eD\x00\x80\x13D\x00\x00\x00B\x00\x00\x10B\x00\x00\x98B\x00\x00\xf0B\x00\x00\nC\x00\x00\x11C\x00\x00\x15C\x00\x00\'C\x00\x00.C\x00\x004C\x00\x006C\x00\x00BC\x00\x00LC\x00\x00MC\x00\x00NC\x00\x00bC\x00\x00sC\x00\x00wC\x00\x00|C\x00\x80\x80C\x00\x80\x86C\x00\x80\x90C\x00\x00\xa1C\x00\x80\xaeC\x00\x80\xb3C\x00\x80\xc6C\x00\x00\xdbC\x00\x80\xdbC\x00\x80\xe2C\x00\x00\xf2C\x00\x80\xf8C\x00\x00\xfbC\x00\x80\x01D\x00@\x02D\x00\x00\x05D\x00\x00\x0cD\x00@\rD\x00\xc0\x0fD\x00\x00\x15D\x00\xc0\x15D\x00\x00\xa0A\x00\x00XB\x00\x00\\B\x00\x00pB\x00\x00\x8cB\x00\x00\xa8B\x00\x00\xc2B\x00\x00\x01C\x00\x00\x03C\x00\x00\x0fC\x00\x00\x18C\x00\x007C\x00\x00;C\x00\x00cC\x00\x00\x7fC\x00\x80\x84C\x00\x00\x85C\x00\x00\x87C\x00\x00\x91C\x00\x80\x97C\x00\x80\x9bC\x00\x80\xa9C\x00\x00\xb0C\x00\x00\xb1C\x00\x00\xb8C\x00\x80\xb9C\x00\x00\xc4C\x00\x80\xc5C\x00\x00\xc8C\x00\x00\xd0C\x00\x80\xd3C\x00\x80\xdcC\x00\x00\xdfC\x00\x00\xe1C\x00\x80\xecC\x00\x80\xf6C\x00\xc0\x05D\x00\x80\x08D\x00\xc0\x12D\x00\x80\x14D'
S'\x00\x00\x00\x00\x00\x00\x00\x00\x00\x00\x00\x00\x00\x00\x00\x00\x00\x00\x00\x00\x00\x00\x00\x00\x00\x00\x00\x00\x00\x00\x00\x00\x00\x00\x00\x00\x00\x00\x00\x00\x00\x00\x00\x00\x00\x00\x00\x00\x00\x00\x00\x00\x00\x00\x00\x00\x00\x00\x00\x00\x00\x00\x00\x00\x00\x00\x00\x00\x00\x00\x00\x00\x00\x00\x00\x00\x00\x00\x00\x00\x00\x00\x00\x00\x00\x00\x00\x00\x00\x00\x00\x00\x00\x00\x00\x00\x00\x00\x00\x00\x00\x00\x00\x00\x00\x00\x00\x00\x00\x00\x00\x00\x00\x00\x00\x00\x00\x00\x00\x00\x00\x00\x00\x00\x00\x00\x00\x00\x00\x00\x00\x00\x00\x00\x00\x00\x00\x00\x00\x00\x00\x00\x00\x00\x00\x00\x00\x00\x00\x00\x00\x00\x00\x00\x00\x00\x00\x00\x00\x00\x00\x00\x00\x00\x00\x00\x00\x00\x00\x00\x00\x00\x00\x00\x00\x00\x00\x00\x00\x00\x00\x00\x00\x00\x00\x00\x00\x00\x00\x00\x00\x00\x00\x00\x00\x00\x00\x00\x00\x00\x00\x00\x00\x00\x00\x00\x00\x00\x00\x00\x00\x00\x00\x00\x00\x00\x00\x00\x00\x00\x00\x00\x00\x00\x00\x00\x00\x00\x00\x00\x00\x00\x00\x00\x00\x00\x00\x00\x00\x00\x00\x00\x00\x00\x00\x00\x00\x00\x00\x00\x00\x00\x00\x00\x00\x00\x00\x00\x00\x00\x00\x00\x00\x00\x00\x00\x00\x00\x00\x00\x00\x00\x00\x00\x00\x00\x00\x00\x00\x00\x00\x00\x00\x00\x00\x00\x00\x00\x00\x00\x00\x00\x00\x00\x00\x00\x00\x00\x00\x00\x00\x00\x00\x00\x00\x00\x00\x00\x00\x00\x00\x00\x00\x00\x00\x00\x00\x00\x00\x00\x00\x00\x00\x00\x00\x00\x00\x00\x00\x00\x00\x00\x00\x00\x00\x00\x00\x00\x00\x00\x00\x00\x00\x00\x00\x00\x00\x00\x00\x00\x00\x00\x00\x00\x00\x00\x00\x00\x00\x00\x00\x00\x00\x00\x00\x00\x00\x00\x00\x00\x00\x00\x00\x00\x00\x00\x00\x00\x00\x00\x00\x00\x00\x00\x00\x00\x00\x00\x00\x00\x00\x00\x00\x00\x00\x00\x00\x00\x00\x00\x00\x00\x00\x00\x00\x00\x00\x00\x00\x00\x00\x00\x00\x00\x00\x00\x00\x00\x00\x00\x00\x00\x00\x00\x00\x00\x00\x00\x00\x00\x00\x00\x00\x00\x00\x00\x00\x00\x00\x00\x00\x00\x00\x00\x00\x00\x00\x00\x00\x00\x00\x00\x00\x00\x00\x00\x00\x00\x00\x00\x00\x00\x00\x00\x00\x00\x00\x00\x00\x00\x00\x00\x00\x00\x00\x00\x00\x00\x00\x00\x00\x00\x00\x00\x00\x00\x00\x00\x00\x00\x00\x00\x00\x00\x00\x00\x00\x00\x00\x00\x00\x00\x00\x00\x00\x00\x00\x00\x00\x00\x00\x00\x00\x00\x00\x00\x00\x00\x00\x00\x00\x00\x00\x00\x00\x00\x00\x00\x00\x00\x00\x00\x00\x00\x00\x00\x00\x00\x00\x00\x00\x00\x00\x00\x00\x00\x00\x00\x00\x00\x00\x00\x00\x00\x00\x00\x00\x00\x00\x00\x00\x00\x00\x00\x00\x00\x00\x00\x00\x00\x00\x00\x00\x00\x00\x00\x00\x00\x00\x00\x00\x00\x00\x00\x00\x00\x00\x00\x00\x00\x00\x00\x00\x00\x00\x00\x00\x00\x00\x00'
NtbstRp57
(dp58
S'isNumeric'
p59
(dp60
g47
I01
sg55
I01
ssS'trials'
p61
g36
sS'dataTypes'
p62
(lp63
g47
ag55
asS'dataShape'
p64
(lp65
I15
aI40
asbsS'method'
p66
S'fullRandom'
p67
sS'sequenceIndices'
p68
cnumpy.core.multiarray
_reconstruct
p69
(g50
(I0
tS'b'
tRp70
(I1
(I15
I40
tg53
(S'O4'
I0
I1
tRp71
(I3
S'|'
NNNI-1
I-1
I63
tbI00
(lp72
I3
aI3
aI10
aI1
aI14
aI3
aI11
aI0
aI13
aI1
aI11
aI10
aI13
aI4
aI1
aI10
aI9
aI14
aI14
aI3
aI4
aI9
aI9
aI6
aI7
aI12
aI7
aI10
aI6
aI8
aI14
aI6
aI0
aI6
aI10
aI8
aI0
aI1
aI9
aI11
aI0
aI8
aI12
aI9
aI8
aI13
aI10
aI11
aI3
aI3
aI11
aI0
aI4
aI6
aI4
aI13
aI4
aI4
aI5
aI2
aI2
aI3
aI11
aI9
aI8
aI9
aI11
aI8
aI0
aI11
aI10
aI5
aI3
aI4
aI9
aI9
aI9
aI2
aI12
aI5
aI10
aI11
aI13
aI10
aI6
aI5
aI3
aI7
aI7
aI1
aI14
aI13
aI13
aI0
aI4
aI14
aI6
aI13
aI2
aI8
aI6
aI2
aI8
aI4
aI0
aI7
aI14
aI4
aI2
aI10
aI8
aI10
aI7
aI13
aI2
aI5
aI10
aI5
aI9
aI14
aI7
aI6
aI0
aI5
aI6
aI8
aI2
aI12
aI12
aI13
aI12
aI5
aI14
aI7
aI10
aI4
aI13
aI1
aI11
aI3
aI14
aI9
aI2
aI9
aI0
aI12
aI12
aI7
aI14
aI13
aI13
aI6
aI9
aI11
aI0
aI12
aI6
aI0
aI1
aI1
aI9
aI1
aI7
aI12
aI5
aI8
aI7
aI9
aI4
aI12
aI1
aI2
aI11
aI6
aI3
aI9
aI0
aI5
aI4
aI13
aI11
aI8
aI2
aI13
aI5
aI5
aI7
aI9
aI8
aI13
aI0
aI12
aI13
aI10
aI2
aI4
aI4
aI3
aI1
aI1
aI12
aI14
aI12
aI9
aI6
aI1
aI2
aI1
aI6
aI1
aI3
aI6
aI2
aI0
aI10
aI9
aI5
aI5
aI1
aI14
aI7
aI8
aI6
aI8
aI12
aI10
aI14
aI5
aI9
aI6
aI2
aI4
aI6
aI3
aI2
aI11
aI5
aI13
aI13
aI12
aI0
aI0
aI13
aI10
aI7
aI4
aI1
aI10
aI3
aI1
aI1
aI6
aI3
aI5
aI10
aI7
aI1
aI10
aI1
aI3
aI3
aI5
aI7
aI7
aI6
aI11
aI10
aI7
aI8
aI14
aI11
aI8
aI11
aI2
aI0
aI5
aI14
aI4
aI5
aI5
aI6
aI7
aI9
aI6
aI2
aI8
aI14
aI11
aI7
aI7
aI7
aI3
aI14
aI0
aI9
aI3
aI13
aI5
aI3
aI2
aI4
aI13
aI10
aI14
aI11
aI4
aI13
aI4
aI5
aI0
aI4
aI12
aI6
aI13
aI9
aI13
aI10
aI7
aI7
aI5
aI6
aI5
aI9
aI2
aI7
aI7
aI2
aI10
aI8
aI14
aI8
aI6
aI8
aI8
aI3
aI4
aI11
aI7
aI5
aI8
aI9
aI2
aI5
aI0
aI14
aI8
aI7
aI2
aI1
aI6
aI2
aI14
aI3
aI7
aI13
aI10
aI10
aI0
aI8
aI4
aI11
aI8
aI1
aI14
aI11
aI14
aI9
aI7
aI14
aI6
aI0
aI13
aI7
aI13
aI4
aI12
aI9
aI1
aI6
aI0
aI9
aI12
aI14
aI14
aI7
aI2
aI3
aI11
aI12
aI8
aI3
aI7
aI12
aI8
aI12
aI0
aI2
aI1
aI1
aI14
aI8
aI2
aI4
aI14
aI14
aI5
aI1
aI0
aI0
aI13
aI8
aI12
aI5
aI13
aI2
aI7
aI6
aI14
aI11
aI11
aI10
aI12
aI10
aI6
aI7
aI10
aI14
aI4
aI0
aI4
aI0
aI9
aI6
aI0
aI0
aI14
aI6
aI13
aI1
aI5
aI0
aI12
aI3
aI8
aI2
aI9
aI5
aI12
aI14
aI5
aI4
aI8
aI12
aI13
aI5
aI2
aI12
aI14
aI10
aI4
aI14
aI9
aI12
aI11
aI14
aI1
aI3
aI14
aI4
aI14
aI11
aI0
aI9
aI2
aI13
aI7
aI0
aI10
aI2
aI13
aI7
aI1
aI5
aI5
aI8
aI10
aI11
aI10
aI1
aI2
aI12
aI8
aI0
aI12
aI2
aI11
aI13
aI5
aI11
aI3
aI0
aI9
aI11
aI11
aI12
aI1
aI12
aI3
aI11
aI10
aI2
aI10
aI2
aI5
aI3
aI8
aI3
aI3
aI8
aI6
aI10
aI11
aI12
aI6
aI3
aI12
aI1
aI6
aI8
aI5
aI1
aI1
aI11
aI7
aI8
aI3
aI0
aI4
aI12
aI0
aI11
aI4
aI4
aI1
aI6
aI5
aI7
aI6
aI4
aI10
aI2
aI8
aI14
aI9
aI3
aI12
aI4
aI6
aI0
aI11
aI4
aI2
aI4
aI3
aI2
aI10
aI4
aI6
aI10
aI13
aI3
aI11
aI13
aI2
aI0
aI9
aI1
aI13
aI3
aI9
aI12
aI11
aI8
aI13
aI12
aI12
aI1
aI10
aI9
aI5
aI3
aI3
aI9
aI7
aI11
aI4
aI1
aI9
aI1
aI13
atbsS'finished'
p73
I00
sS'nReps'
p74
I40
sS'nRemaining'
p75
I0
sS'trialList'
p76
(lp77
I0
aI1
aI2
aI3
aI4
aI5
aI6
aI7
aI8
aI9
aI10
aI11
aI12
aI13
aI14
asS'seed'
p78
NsS'thisIndex'
p79
I13
sS'thisN'
p80
I599
sS'thisTrialN'
p81
I14
sS'nTotal'
p82
I600
sS'_warnUseOfNext'
p83
I01
sbasS'saveWideText'
p84
I00
sS'thisEntry'
p85
(dp86
sS'version'
p87
S''
sS'_paramNamesSoFar'
p88
(lp89
sS'entries'
p90
(lp91
(dp92
g16
(lp93
S'k'
asS'.thisTrial'
p94
I3
sS'.thisRepN'
p95
I0
sg30
Vm
sg31
g32
sS'.thisTrialN'
p96
I0
sS'.thisN'
p97
I0
sS'.thisIndex'
p98
I3
sg15
(lp99
S'k'
asg17
S'Y'
sg14
I1
sa(dp100
g16
(lp101
S'k'
asg94
I0
sS'.thisRepN'
p102
I0
sg30
Vm
sg31
g32
sS'.thisTrialN'
p103
I1
sS'.thisN'
p104
I1
sS'.thisIndex'
p105
I0
sg15
(lp106
S'k'
asg17
S'Y'
sg14
I1
sa(dp107
g16
(lp108
S'd'
asg18
S'Y'
sS'.thisRepN'
p109
I0
sg20
S'Y'
sg31
g32
sS'.thisTrialN'
p110
I2
sS'.thisN'
p111
I2
sS'.thisIndex'
p112
I10
sg15
(lp113
S'k'
asg30
Vm
sg17
S'N'
sg14
I1
sg19
(lp114
S'space'
p115
asg94
I10
sa(dp116
g16
(lp117
S'k'
asg18
S'Y'
sS'.thisRepN'
p118
I0
sg20
S'N'
sg31
g32
sS'.thisTrialN'
p119
I3
sS'.thisN'
p120
I3
sS'.thisIndex'
p121
I7
sg15
(lp122
S'k'
asg30
Vm
sg17
S'Y'
sg14
I1
sg19
Nsg94
I7
sa(dp123
g16
(lp124
S'd'
asg18
S'N'
sS'.thisRepN'
p125
I0
sg20
S'Y'
sg31
g32
sS'.thisTrialN'
p126
I4
sS'.thisN'
p127
I4
sS'.thisIndex'
p128
I9
sg15
(lp129
S'k'
asg30
Vm
sg17
S'N'
sg14
I1
sg19
Nsg94
I9
sa(dp130
g16
(lp131
S'd'
asg18
S'N'
sS'.thisRepN'
p132
I0
sg20
S'Y'
sg31
g32
sS'.thisTrialN'
p133
I5
sS'.thisN'
p134
I5
sS'.thisIndex'
p135
I12
sg15
(lp136
S'k'
asg30
Vm
sg17
S'N'
sg14
I1
sg19
Nsg94
I12
sa(dp137
g16
(lp138
S'd'
asg18
S'N'
sS'.thisRepN'
p139
I0
sg20
S'N'
sg31
g32
sS'.thisTrialN'
p140
I6
sS'.thisN'
p141
I6
sS'.thisIndex'
p142
I0
sg15
(lp143
S'd'
asg30
Vm
sg17
S'Y'
sg14
I1
sg19
(lp144
S'space'
p145
asg94
I0
sa(dp146
g16
(lp147
S'k'
asg18
S'Y'
sS'.thisRepN'
p148
I0
sg20
S'N'
sg31
g32
sS'.thisTrialN'
p149
I7
sS'.thisN'
p150
I7
sS'.thisIndex'
p151
I6
sg15
(lp152
S'd'
asg30
Vm
sg17
S'N'
sg14
I1
sg19
Nsg94
I6
sa(dp153
g16
(lp154
S'k'
asg18
S'Y'
sS'.thisRepN'
p155
I0
sg20
S'Y'
sg31
g32
sS'.thisTrialN'
p156
I8
sS'.thisN'
p157
I8
sS'.thisIndex'
p158
I6
sg15
(lp159
S'd'
asg30
Vm
sg17
S'N'
sg14
I1
sg19
(lp160
S'space'
p161
asg94
I6
sa(dp162
g16
(lp163
S'd'
asg18
S'Y'
sS'.thisRepN'
p164
I0
sg20
S'Y'
sg31
g32
sS'.thisTrialN'
p165
I9
sS'.thisN'
p166
I9
sS'.thisIndex'
p167
I11
sg15
(lp168
S'k'
asg30
Vm
sg17
S'N'
sg14
I1
sg19
(lp169
S'space'
p170
asg94
I11
sa(dp171
g16
(lp172
S'k'
asg18
S'N'
sS'.thisRepN'
p173
I0
sg20
S'Y'
sg31
g32
sS'.thisTrialN'
p174
I10
sS'.thisN'
p175
I10
sS'.thisIndex'
p176
I8
sg15
(lp177
S'k'
asg30
Vm
sg17
S'Y'
sg14
I1
sg19
Nsg94
I8
sa(dp178
g16
(lp179
S'd'
asg18
S'Y'
sS'.thisRepN'
p180
I0
sg20
S'N'
sg31
g32
sS'.thisTrialN'
p181
I11
sS'.thisN'
p182
I11
sS'.thisIndex'
p183
I0
sg15
(lp184
S'd'
asg30
Vm
sg17
S'Y'
sg14
I1
sg19
Nsg94
I0
sa(dp185
g16
(lp186
S'd'
asg18
S'Y'
sS'.thisRepN'
p187
I0
sg20
S'Y'
sg31
g32
sS'.thisTrialN'
p188
I12
sS'.thisN'
p189
I12
sS'.thisIndex'
p190
I7
sg15
(lp191
S'd'
asg30
Vm
sg17
S'Y'
sg14
I1
sg19
(lp192
S'space'
p193
asg94
I7
sa(dp194
g16
(lp195
S'k'
asg18
S'N'
sS'.thisRepN'
p196
I0
sg20
S'Y'
sg31
g32
sS'.thisTrialN'
p197
I13
sS'.thisN'
p198
I13
sS'.thisIndex'
p199
I10
sg15
(lp200
S'd'
asg30
Vm
sg17
S'N'
sg14
I1
sg19
Nsg94
I10
sa(dp201
g16
(lp202
S'k'
asg18
S'Y'
sS'.thisRepN'
p203
I0
sg20
S'Y'
sg31
g32
sS'.thisTrialN'
p204
I14
sS'.thisN'
p205
I14
sS'.thisIndex'
p206
I4
sg15
(lp207
S'k'
asg30
Vm
sg17
S'Y'
sg14
I1
sg19
(lp208
S'space'
p209
asg94
I4
sa(dp210
g16
(lp211
S'd'
asg18
S'Y'
sS'.thisRepN'
p212
I1
sg20
S'N'
sg31
g32
sS'.thisTrialN'
p213
I0
sS'.thisN'
p214
I15
sS'.thisIndex'
p215
I3
sg15
(lp216
S'k'
asg30
Vm
sg17
S'N'
sg14
I1
sg19
Nsg94
I3
sa(dp217
g16
(lp218
S'k'
asg18
S'Y'
sS'.thisRepN'
p219
I1
sg20
S'Y'
sg31
g32
sS'.thisTrialN'
p220
I1
sS'.thisN'
p221
I16
sS'.thisIndex'
p222
I8
sg15
(lp223
S'd'
asg30
Vm
sg17
S'N'
sg14
I1
sg19
(lp224
S'space'
p225
asg94
I8
sa(dp226
g16
(lp227
S'd'
asg18
S'N'
sS'.thisRepN'
p228
I1
sg20
S'Y'
sg31
g32
sS'.thisTrialN'
p229
I2
sS'.thisN'
p230
I17
sS'.thisIndex'
p231
I11
sg15
(lp232
S'k'
asg30
Vm
sg17
S'N'
sg14
I1
sg19
Nsg94
I11
sa(dp233
g16
(lp234
S'd'
asg18
S'Y'
sS'.thisRepN'
p235
I1
sg20
S'Y'
sg31
g32
sS'.thisTrialN'
p236
I3
sS'.thisN'
p237
I18
sS'.thisIndex'
p238
I6
sg15
(lp239
S'd'
asg30
Vm
sg17
S'Y'
sg14
I1
sg19
(lp240
S'space'
p241
asg94
I6
sa(dp242
g16
(lp243
S'k'
asg18
S'Y'
sS'.thisRepN'
p244
I1
sg20
S'N'
sg31
g32
sS'.thisTrialN'
p245
I4
sS'.thisN'
p246
I19
sS'.thisIndex'
p247
I1
sg15
(lp248
S'k'
asg30
Vm
sg17
S'Y'
sg14
I1
sg19
Nsg94
I1
sa(dp249
g16
(lp250
S'd'
asg18
S'Y'
sS'.thisRepN'
p251
I1
sg20
S'Y'
sg31
g32
sS'.thisTrialN'
p252
I5
sS'.thisN'
p253
I20
sS'.thisIndex'
p254
I14
sg15
(lp255
S'd'
asg30
Vm
sg17
S'Y'
sg14
I1
sg19
(lp256
S'space'
p257
asg94
I14
sa(dp258
g16
(lp259
S'k'
asg18
S'N'
sS'.thisRepN'
p260
I1
sg20
S'Y'
sg31
g32
sS'.thisTrialN'
p261
I6
sS'.thisN'
p262
I21
sS'.thisIndex'
p263
I0
sg15
(lp264
S'k'
asg30
Vm
sg17
S'Y'
sg14
I1
sg19
Nsg94
I0
sa(dp265
g16
(lp266
S'k'
asg18
S'Y'
sS'.thisRepN'
p267
I1
sg20
S'Y'
sg31
g32
sS'.thisTrialN'
p268
I7
sS'.thisN'
p269
I22
sS'.thisIndex'
p270
I7
sg15
(lp271
S'd'
asg30
Vm
sg17
S'N'
sg14
I1
sg19
(lp272
S'space'
p273
asg94
I7
sa(dp274
g16
(lp275
S'd'
asg18
S'N'
sS'.thisRepN'
p276
I1
sg20
S'Y'
sg31
g32
sS'.thisTrialN'
p277
I8
sS'.thisN'
p278
I23
sS'.thisIndex'
p279
I5
sg15
(lp280
S'k'
asg30
Vm
sg17
S'N'
sg14
I1
sg19
Nsg94
I5
sa(dp281
g16
(lp282
S'k'
asg18
S'N'
sS'.thisRepN'
p283
I1
sg20
S'Y'
sg31
g32
sS'.thisTrialN'
p284
I9
sS'.thisN'
p285
I24
sS'.thisIndex'
p286
I8
sg15
(lp287
S'd'
asg30
Vm
sg17
S'N'
sg14
I1
sg19
Nsg94
I8
sa(dp288
g16
(lp289
S'd'
asg18
S'N'
sS'.thisRepN'
p290
I1
sg20
S'Y'
sg31
g32
sS'.thisTrialN'
p291
I10
sS'.thisN'
p292
I25
sS'.thisIndex'
p293
I2
sg15
(lp294
S'k'
asg30
Vm
sg17
S'N'
sg14
I1
sg19
Nsg94
I2
sa(dp295
g16
(lp296
S'k'
asg18
S'N'
sS'.thisRepN'
p297
I1
sg20
S'Y'
sg31
g32
sS'.thisTrialN'
p298
I11
sS'.thisN'
p299
I26
sS'.thisIndex'
p300
I12
sg15
(lp301
S'k'
asg30
Vm
sg17
S'Y'
sg14
I1
sg19
Nsg94
I12
sa(dp302
g16
(lp303
S'd'
asg18
S'N'
sS'.thisRepN'
p304
I1
sg20
S'Y'
sg31
g32
sS'.thisTrialN'
p305
I12
sS'.thisN'
p306
I27
sS'.thisIndex'
p307
I1
sg15
(lp308
S'd'
asg30
Vm
sg17
S'Y'
sg14
I1
sg19
Nsg94
I1
sa(dp309
g16
(lp310
S'k'
asg18
S'Y'
sS'.thisRepN'
p311
I1
sg20
S'Y'
sg31
g32
sS'.thisTrialN'
p312
I13
sS'.thisN'
p313
I28
sS'.thisIndex'
p314
I11
sg15
(lp315
S'k'
asg30
Vm
sg17
S'Y'
sg14
I1
sg19
(lp316
S'space'
p317
asg94
I11
sa(dp318
g16
(lp319
S'd'
asg18
S'Y'
sS'.thisRepN'
p320
I1
sg20
S'Y'
sg31
g32
sS'.thisTrialN'
p321
I14
sS'.thisN'
p322
I29
sS'.thisIndex'
p323
I2
sg15
(lp324
S'd'
asg30
Vm
sg17
S'Y'
sg14
I1
sg19
(lp325
S'space'
p326
asg94
I2
sa(dp327
g16
(lp328
S'k'
asg18
S'N'
sS'.thisRepN'
p329
I2
sg20
S'Y'
sg31
g32
sS'.thisTrialN'
p330
I0
sS'.thisN'
p331
I30
sS'.thisIndex'
p332
I10
sg15
(lp333
S'k'
asg30
Vm
sg17
S'Y'
sg14
I1
sg19
Nsg94
I10
sa(dp334
g16
(lp335
S'k'
asg18
S'Y'
sS'.thisRepN'
p336
I2
sg20
S'Y'
sg31
g32
sS'.thisTrialN'
p337
I1
sS'.thisN'
p338
I31
sS'.thisIndex'
p339
I12
sg15
(lp340
S'd'
asg30
Vm
sg17
S'N'
sg14
I1
sg19
(lp341
S'space'
p342
asg94
I12
sa(dp343
g16
(lp344
S'k'
asg18
S'Y'
sS'.thisRepN'
p345
I2
sg20
S'N'
sg31
g32
sS'.thisTrialN'
p346
I2
sS'.thisN'
p347
I32
sS'.thisIndex'
p348
I13
sg15
(lp349
S'd'
asg30
Vm
sg17
S'N'
sg14
I1
sg19
Nsg94
I13
sa(dp350
g16
(lp351
S'k'
asg18
S'Y'
sS'.thisRepN'
p352
I2
sg20
S'Y'
sg31
g32
sS'.thisTrialN'
p353
I3
sS'.thisN'
p354
I33
sS'.thisIndex'
p355
I0
sg15
(lp356
S'k'
asg30
Vm
sg17
S'Y'
sg14
I1
sg19
(lp357
S'space'
p358
asg94
I0
sa(dp359
g16
(lp360
S'k'
asg18
S'N'
sS'.thisRepN'
p361
I2
sg20
S'Y'
sg31
g32
sS'.thisTrialN'
p362
I4
sS'.thisN'
p363
I34
sS'.thisIndex'
p364
I7
sg15
(lp365
S'd'
asg30
Vm
sg17
S'N'
sg14
I1
sg19
Nsg94
I7
sa(dp366
g16
(lp367
S'd'
asg18
S'Y'
sS'.thisRepN'
p368
I2
sg20
S'N'
sg31
g32
sS'.thisTrialN'
p369
I5
sS'.thisN'
p370
I35
sS'.thisIndex'
p371
I12
sg15
(lp372
S'd'
asg30
Vm
sg17
S'Y'
sg14
I1
sg19
Nsg94
I12
sa(dp373
g16
(lp374
S'k'
asg18
S'Y'
sS'.thisRepN'
p375
I2
sg20
S'Y'
sg31
g32
sS'.thisTrialN'
p376
I6
sS'.thisN'
p377
I36
sS'.thisIndex'
p378
I13
sg15
(lp379
S'k'
asg30
Vm
sg17
S'Y'
sg14
I1
sg19
(lp380
S'space'
p381
asg94
I13
sa(dp382
g16
(lp383
S'k'
asg18
S'Y'
sS'.thisRepN'
p384
I2
sg20
S'N'
sg31
g32
sS'.thisTrialN'
p385
I7
sS'.thisN'
p386
I37
sS'.thisIndex'
p387
I9
sg15
(lp388
S'd'
asg30
Vm
sg17
S'N'
sg14
I1
sg19
Nsg94
I9
sa(dp389
g16
(lp390
S'k'
asg18
S'Y'
sS'.thisRepN'
p391
I2
sg20
S'Y'
sg31
g32
sS'.thisTrialN'
p392
I8
sS'.thisN'
p393
I38
sS'.thisIndex'
p394
I9
sg15
(lp395
S'k'
asg30
Vm
sg17
S'Y'
sg14
I1
sg19
(lp396
S'space'
p397
asg94
I9
sa(dp398
g16
(lp399
S'd'
asg18
S'N'
sS'.thisRepN'
p400
I2
sg20
S'Y'
sg31
g32
sS'.thisTrialN'
p401
I9
sS'.thisN'
p402
I39
sS'.thisIndex'
p403
I1
sg15
(lp404
S'k'
asg30
Vm
sg17
S'N'
sg14
I1
sg19
Nsg94
I1
sa(dp405
g16
(lp406
S'd'
asg18
S'N'
sS'.thisRepN'
p407
I2
sg20
S'Y'
sg31
g32
sS'.thisTrialN'
p408
I10
sS'.thisN'
p409
I40
sS'.thisIndex'
p410
I4
sg15
(lp411
S'd'
asg30
Vm
sg17
S'Y'
sg14
I1
sg19
Nsg94
I4
sa(dp412
g16
(lp413
S'k'
asg18
S'N'
sS'.thisRepN'
p414
I2
sg20
S'Y'
sg31
g32
sS'.thisTrialN'
p415
I11
sS'.thisN'
p416
I41
sS'.thisIndex'
p417
I3
sg15
(lp418
S'd'
asg30
Vm
sg17
S'N'
sg14
I1
sg19
Nsg94
I3
sa(dp419
g16
(lp420
S'k'
asg18
S'Y'
sS'.thisRepN'
p421
I2
sg20
S'N'
sg31
g32
sS'.thisTrialN'
p422
I12
sS'.thisN'
p423
I42
sS'.thisIndex'
p424
I5
sg15
(lp425
S'k'
asg30
Vm
sg17
S'Y'
sg14
I1
sg19
Nsg94
I5
sa(dp426
g16
(lp427
S'd'
asg18
S'Y'
sS'.thisRepN'
p428
I2
sg20
S'N'
sg31
g32
sS'.thisTrialN'
p429
I13
sS'.thisN'
p430
I43
sS'.thisIndex'
p431
I12
sg15
(lp432
S'd'
asg30
Vm
sg17
S'Y'
sg14
I1
sg19
Nsg94
I12
sa(dp433
g16
(lp434
S'k'
asg18
S'N'
sS'.thisRepN'
p435
I2
sg20
S'N'
sg31
g32
sS'.thisTrialN'
p436
I14
sS'.thisN'
p437
I44
sS'.thisIndex'
p438
I4
sg15
(lp439
S'k'
asg30
Vm
sg17
S'Y'
sg14
I1
sg19
(lp440
S'space'
p441
asg94
I4
sa(dp442
g16
(lp443
S'd'
asg18
S'N'
sS'.thisRepN'
p444
I3
sg20
S'Y'
sg31
g32
sS'.thisTrialN'
p445
I0
sS'.thisN'
p446
I45
sS'.thisIndex'
p447
I1
sg15
(lp448
S'd'
asg30
Vm
sg17
S'Y'
sg14
I1
sg19
Nsg94
I1
sa(dp449
g16
(lp450
S'd'
asg18
S'N'
sS'.thisRepN'
p451
I3
sg20
S'Y'
sg31
g32
sS'.thisTrialN'
p452
I1
sS'.thisN'
p453
I46
sS'.thisIndex'
p454
I9
sg15
(lp455
S'd'
asg30
Vm
sg17
S'Y'
sg14
I1
sg19
Nsg94
I9
sa(dp456
g16
(lp457
S'k'
asg18
S'N'
sS'.thisRepN'
p458
I3
sg20
S'N'
sg31
g32
sS'.thisTrialN'
p459
I2
sS'.thisN'
p460
I47
sS'.thisIndex'
p461
I10
sg15
(lp462
S'k'
asg30
Vm
sg17
S'Y'
sg14
I1
sg19
(lp463
S'space'
p464
asg94
I10
sa(dp465
g16
(lp466
S'k'
asg18
S'N'
sS'.thisRepN'
p467
I3
sg20
S'Y'
sg31
g32
sS'.thisTrialN'
p468
I3
sS'.thisN'
p469
I48
sS'.thisIndex'
p470
I5
sg15
(lp471
S'k'
asg30
Vm
sg17
S'Y'
sg14
I1
sg19
Nsg94
I5
sa(dp472
g16
(lp473
S'k'
asg18
S'N'
sg22
I35
sS'.thisN'
p474
I49
sg20
S'Y'
sg31
g32
sS'.thisTrialN'
p475
I4
sS'.thisRepN'
p476
I3
sg21
I30
sS'.thisIndex'
p477
I12
sg23
I25
sg15
(lp478
S'k'
asg30
Vm
sg17
S'Y'
sg14
I1
sg19
Nsg94
I12
sa(dp479
g16
(lp480
S'k'
asg94
I9
sS'.thisRepN'
p481
I3
sg30
Vm
sg31
g32
sS'.thisTrialN'
p482
I5
sS'.thisN'
p483
I50
sS'.thisIndex'
p484
I9
sg15
(lp485
S'k'
asg17
S'Y'
sg14
I2
sa(dp486
g16
(lp487
S'd'
asg94
I10
sS'.thisRepN'
p488
I3
sg30
Vm
sg31
g32
sS'.thisTrialN'
p489
I6
sS'.thisN'
p490
I51
sS'.thisIndex'
p491
I10
sg15
(lp492
S'd'
asg17
S'Y'
sg14
I2
sa(dp493
g16
(lp494
S'k'
asg18
S'Y'
sS'.thisRepN'
p495
I3
sg20
S'Y'
sg31
g32
sS'.thisTrialN'
p496
I7
sS'.thisN'
p497
I52
sS'.thisIndex'
p498
I6
sg15
(lp499
S'k'
asg30
Vm
sg17
S'Y'
sg14
I2
sg19
(lp500
S'space'
p501
asg94
I6
sa(dp502
g16
(lp503
S'k'
asg18
S'N'
sS'.thisRepN'
p504
I3
sg20
S'N'
sg31
g32
sS'.thisTrialN'
p505
I8
sS'.thisN'
p506
I53
sS'.thisIndex'
p507
I2
sg15
(lp508
S'k'
asg30
Vm
sg17
S'Y'
sg14
I2
sg19
(lp509
S'space'
p510
asg94
I2
sa(dp511
g16
(lp512
S'd'
asg18
S'Y'
sS'.thisRepN'
p513
I3
sg20
S'Y'
sg31
g32
sS'.thisTrialN'
p514
I9
sS'.thisN'
p515
I54
sS'.thisIndex'
p516
I14
sg15
(lp517
S'd'
asg30
Vm
sg17
S'Y'
sg14
I2
sg19
(lp518
S'space'
p519
asg94
I14
sa(dp520
g16
(lp521
S'k'
asg18
S'N'
sS'.thisRepN'
p522
I3
sg20
S'Y'
sg31
g32
sS'.thisTrialN'
p523
I10
sS'.thisN'
p524
I55
sS'.thisIndex'
p525
I14
sg15
(lp526
S'k'
asg30
Vm
sg17
S'Y'
sg14
I2
sg19
Nsg94
I14
sa(dp527
g16
(lp528
S'd'
asg18
S'Y'
sS'.thisRepN'
p529
I3
sg20
S'Y'
sg31
g32
sS'.thisTrialN'
p530
I11
sS'.thisN'
p531
I56
sS'.thisIndex'
p532
I8
sg15
(lp533
S'd'
asg30
Vm
sg17
S'Y'
sg14
I2
sg19
(lp534
S'space'
p535
asg94
I8
sa(dp536
g16
(lp537
S'k'
asg18
S'N'
sS'.thisRepN'
p538
I3
sg20
S'Y'
sg31
g32
sS'.thisTrialN'
p539
I12
sS'.thisN'
p540
I57
sS'.thisIndex'
p541
I5
sg15
(lp542
S'k'
asg30
Vm
sg17
S'Y'
sg14
I2
sg19
Nsg94
I5
sa(dp543
g16
(lp544
S'd'
asg18
S'Y'
sS'.thisRepN'
p545
I3
sg20
S'Y'
sg31
g32
sS'.thisTrialN'
p546
I13
sS'.thisN'
p547
I58
sS'.thisIndex'
p548
I6
sg15
(lp549
S'd'
asg30
Vm
sg17
S'Y'
sg14
I2
sg19
(lp550
S'space'
p551
asg94
I6
sa(dp552
g16
(lp553
S'd'
asg18
S'Y'
sS'.thisRepN'
p554
I3
sg20
S'N'
sg31
g32
sS'.thisTrialN'
p555
I14
sS'.thisN'
p556
I59
sS'.thisIndex'
p557
I3
sg15
(lp558
S'k'
asg30
Vm
sg17
S'N'
sg14
I2
sg19
Nsg94
I3
sa(dp559
g16
(lp560
S'k'
asg18
S'N'
sS'.thisRepN'
p561
I4
sg20
S'Y'
sg31
g32
sS'.thisTrialN'
p562
I0
sS'.thisN'
p563
I60
sS'.thisIndex'
p564
I14
sg15
(lp565
S'd'
asg30
Vm
sg17
S'N'
sg14
I2
sg19
Nsg94
I14
sa(dp566
g16
(lp567
S'k'
asg18
S'N'
sS'.thisRepN'
p568
I4
sg20
S'Y'
sg31
g32
sS'.thisTrialN'
p569
I1
sS'.thisN'
p570
I61
sS'.thisIndex'
p571
I8
sg15
(lp572
S'd'
asg30
Vm
sg17
S'N'
sg14
I2
sg19
Nsg94
I8
sa(dp573
g16
(lp574
S'k'
asg18
S'Y'
sS'.thisRepN'
p575
I4
sg20
S'N'
sg31
g32
sS'.thisTrialN'
p576
I2
sS'.thisN'
p577
I62
sS'.thisIndex'
p578
I6
sg15
(lp579
S'd'
asg30
Vm
sg17
S'N'
sg14
I2
sg19
Nsg94
I6
sa(dp580
g16
(lp581
S'd'
asg18
S'Y'
sS'.thisRepN'
p582
I4
sg20
S'Y'
sg31
g32
sS'.thisTrialN'
p583
I3
sS'.thisN'
p584
I63
sS'.thisIndex'
p585
I6
sg15
(lp586
S'k'
asg30
Vm
sg17
S'N'
sg14
I2
sg19
(lp587
S'space'
p588
asg94
I6
sa(dp589
g16
(lp590
S'k'
asg18
S'Y'
sS'.thisRepN'
p591
I4
sg20
S'N'
sg31
g32
sS'.thisTrialN'
p592
I4
sS'.thisN'
p593
I64
sS'.thisIndex'
p594
I5
sg15
(lp595
S'd'
asg30
Vm
sg17
S'N'
sg14
I2
sg19
Nsg94
I5
sa(dp596
g16
(lp597
S'k'
asg18
S'Y'
sS'.thisRepN'
p598
I4
sg20
S'N'
sg31
g32
sS'.thisTrialN'
p599
I5
sS'.thisN'
p600
I65
sS'.thisIndex'
p601
I6
sg15
(lp602
S'k'
asg30
Vm
sg17
S'Y'
sg14
I2
sg19
Nsg94
I6
sa(dp603
g16
(lp604
S'k'
asg18
S'N'
sS'.thisRepN'
p605
I4
sg20
S'Y'
sg31
g32
sS'.thisTrialN'
p606
I6
sS'.thisN'
p607
I66
sS'.thisIndex'
p608
I7
sg15
(lp609
S'k'
asg30
Vm
sg17
S'Y'
sg14
I2
sg19
Nsg94
I7
sa(dp610
g16
(lp611
S'd'
asg18
S'N'
sS'.thisRepN'
p612
I4
sg20
S'Y'
sg31
g32
sS'.thisTrialN'
p613
I7
sS'.thisN'
p614
I67
sS'.thisIndex'
p615
I2
sg15
(lp616
S'd'
asg30
Vm
sg17
S'Y'
sg14
I2
sg19
Nsg94
I2
sa(dp617
g16
(lp618
S'k'
asg18
S'N'
sS'.thisRepN'
p619
I4
sg20
S'N'
sg31
g32
sS'.thisTrialN'
p620
I8
sS'.thisN'
p621
I68
sS'.thisIndex'
p622
I7
sg15
(lp623
S'k'
asg30
Vm
sg17
S'Y'
sg14
I2
sg19
(lp624
S'space'
p625
asg94
I7
sa(dp626
g16
(lp627
S'k'
asg18
S'Y'
sS'.thisRepN'
p628
I4
sg20
S'Y'
sg31
g32
sS'.thisTrialN'
p629
I9
sS'.thisN'
p630
I69
sS'.thisIndex'
p631
I11
sg15
(lp632
S'k'
asg30
Vm
sg17
S'Y'
sg14
I2
sg19
(lp633
S'space'
p634
asg94
I11
sa(dp635
g16
(lp636
S'd'
asg18
S'N'
sS'.thisRepN'
p637
I4
sg20
S'Y'
sg31
g32
sS'.thisTrialN'
p638
I10
sS'.thisN'
p639
I70
sS'.thisIndex'
p640
I14
sg15
(lp641
S'd'
asg30
Vm
sg17
S'Y'
sg14
I2
sg19
Nsg94
I14
sa(dp642
g16
(lp643
S'd'
asg18
S'N'
sS'.thisRepN'
p644
I4
sg20
S'Y'
sg31
g32
sS'.thisTrialN'
p645
I11
sS'.thisN'
p646
I71
sS'.thisIndex'
p647
I2
sg15
(lp648
S'd'
asg30
Vm
sg17
S'Y'
sg14
I2
sg19
Nsg94
I2
sa(dp649
g16
(lp650
S'k'
asg18
S'Y'
sS'.thisRepN'
p651
I4
sg20
S'Y'
sg31
g32
sS'.thisTrialN'
p652
I12
sS'.thisN'
p653
I72
sS'.thisIndex'
p654
I8
sg15
(lp655
S'd'
asg30
Vm
sg17
S'N'
sg14
I2
sg19
(lp656
S'space'
p657
asg94
I8
sa(dp658
g16
(lp659
S'k'
asg18
S'Y'
sS'.thisRepN'
p660
I4
sg20
S'N'
sg31
g32
sS'.thisTrialN'
p661
I13
sS'.thisN'
p662
I73
sS'.thisIndex'
p663
I3
sg15
(lp664
S'k'
asg30
Vm
sg17
S'Y'
sg14
I2
sg19
Nsg94
I3
sa(dp665
g16
(lp666
S'd'
asg18
S'N'
sS'.thisRepN'
p667
I4
sg20
S'Y'
sg31
g32
sS'.thisTrialN'
p668
I14
sS'.thisN'
p669
I74
sS'.thisIndex'
p670
I2
sg15
(lp671
S'k'
asg30
Vm
sg17
S'N'
sg14
I2
sg19
Nsg94
I2
sa(dp672
g16
(lp673
S'd'
asg18
S'Y'
sS'.thisRepN'
p674
I5
sg20
S'Y'
sg31
g32
sS'.thisTrialN'
p675
I0
sS'.thisN'
p676
I75
sS'.thisIndex'
p677
I3
sg15
(lp678
S'd'
asg30
Vm
sg17
S'Y'
sg14
I2
sg19
(lp679
S'space'
p680
asg94
I3
sa(dp681
g16
(lp682
S'd'
asg18
S'Y'
sS'.thisRepN'
p683
I5
sg20
S'Y'
sg31
g32
sS'.thisTrialN'
p684
I1
sS'.thisN'
p685
I76
sS'.thisIndex'
p686
I13
sg15
(lp687
S'd'
asg30
Vm
sg17
S'Y'
sg14
I2
sg19
(lp688
S'space'
p689
asg94
I13
sa(dp690
g16
(lp691
S'd'
asg18
S'Y'
sS'.thisRepN'
p692
I5
sg20
S'N'
sg31
g32
sS'.thisTrialN'
p693
I2
sS'.thisN'
p694
I77
sS'.thisIndex'
p695
I5
sg15
(lp696
S'd'
asg30
Vm
sg17
S'Y'
sg14
I2
sg19
Nsg94
I5
sa(dp697
g16
(lp698
S'k'
asg18
S'Y'
sS'.thisRepN'
p699
I5
sg20
S'N'
sg31
g32
sS'.thisTrialN'
p700
I3
sS'.thisN'
p701
I78
sS'.thisIndex'
p702
I8
sg15
(lp703
S'k'
asg30
Vm
sg17
S'Y'
sg14
I2
sg19
Nsg94
I8
sa(dp704
g16
(lp705
S'k'
asg18
S'Y'
sS'.thisRepN'
p706
I5
sg20
S'Y'
sg31
g32
sS'.thisTrialN'
p707
I4
sS'.thisN'
p708
I79
sS'.thisIndex'
p709
I8
sg15
(lp710
S'k'
asg30
Vm
sg17
S'Y'
sg14
I2
sg19
(lp711
S'space'
p712
asg94
I8
sa(dp713
g16
(lp714
S'k'
asg18
S'N'
sS'.thisRepN'
p715
I5
sg20
S'Y'
sg31
g32
sS'.thisTrialN'
p716
I5
sS'.thisN'
p717
I80
sS'.thisIndex'
p718
I1
sg15
(lp719
S'd'
asg30
Vm
sg17
S'N'
sg14
I2
sg19
Nsg94
I1
sa(dp720
g16
(lp721
S'k'
asg18
S'N'
sS'.thisRepN'
p722
I5
sg20
S'Y'
sg31
g32
sS'.thisTrialN'
p723
I6
sS'.thisN'
p724
I81
sS'.thisIndex'
p725
I4
sg15
(lp726
S'k'
asg30
Vm
sg17
S'Y'
sg14
I2
sg19
Nsg94
I4
sa(dp727
g16
(lp728
S'd'
asg18
S'N'
sS'.thisRepN'
p729
I5
sg20
S'Y'
sg31
g32
sS'.thisTrialN'
p730
I7
sS'.thisN'
p731
I82
sS'.thisIndex'
p732
I8
sg15
(lp733
S'd'
asg30
Vm
sg17
S'Y'
sg14
I2
sg19
Nsg94
I8
sa(dp734
g16
(lp735
S'd'
asg18
S'Y'
sS'.thisRepN'
p736
I5
sg20
S'Y'
sg31
g32
sS'.thisTrialN'
p737
I8
sS'.thisN'
p738
I83
sS'.thisIndex'
p739
I7
sg15
(lp740
S'd'
asg30
Vm
sg17
S'Y'
sg14
I2
sg19
(lp741
S'space'
p742
asg94
I7
sa(dp743
g16
(lp744
S'd'
asg18
S'N'
sS'.thisRepN'
p745
I5
sg20
S'Y'
sg31
g32
sS'.thisTrialN'
p746
I9
sS'.thisN'
p747
I84
sS'.thisIndex'
p748
I14
sg15
(lp749
S'd'
asg30
Vm
sg17
S'Y'
sg14
I2
sg19
Nsg94
I14
sa(dp750
g16
(lp751
S'k'
asg18
S'N'
sS'.thisRepN'
p752
I5
sg20
S'Y'
sg31
g32
sS'.thisTrialN'
p753
I10
sS'.thisN'
p754
I85
sS'.thisIndex'
p755
I5
sg15
(lp756
S'k'
asg30
Vm
sg17
S'Y'
sg14
I2
sg19
Nsg94
I5
sa(dp757
g16
(lp758
S'd'
asg18
S'N'
sS'.thisRepN'
p759
I5
sg20
S'N'
sg31
g32
sS'.thisTrialN'
p760
I11
sS'.thisN'
p761
I86
sS'.thisIndex'
p762
I9
sg15
(lp763
S'd'
asg30
Vm
sg17
S'Y'
sg14
I2
sg19
(lp764
S'space'
p765
asg94
I9
sa(dp766
g16
(lp767
S'k'
asg18
S'N'
sS'.thisRepN'
p768
I5
sg20
S'Y'
sg31
g32
sS'.thisTrialN'
p769
I12
sS'.thisN'
p770
I87
sS'.thisIndex'
p771
I10
sg15
(lp772
S'k'
asg30
Vm
sg17
S'Y'
sg14
I2
sg19
Nsg94
I10
sa(dp773
g16
(lp774
S'd'
asg18
S'Y'
sS'.thisRepN'
p775
I5
sg20
S'N'
sg31
g32
sS'.thisTrialN'
p776
I13
sS'.thisN'
p777
I88
sS'.thisIndex'
p778
I12
sg15
(lp779
S'd'
asg30
Vm
sg17
S'Y'
sg14
I2
sg19
Nsg94
I12
sa(dp780
g16
(lp781
S'd'
asg18
S'Y'
sS'.thisRepN'
p782
I5
sg20
S'N'
sg31
g32
sS'.thisTrialN'
p783
I14
sS'.thisN'
p784
I89
sS'.thisIndex'
p785
I10
sg15
(lp786
S'k'
asg30
Vm
sg17
S'N'
sg14
I2
sg19
Nsg94
I10
sa(dp787
g16
(lp788
S'd'
asg18
S'N'
sS'.thisRepN'
p789
I6
sg20
S'Y'
sg31
g32
sS'.thisTrialN'
p790
I0
sS'.thisN'
p791
I90
sS'.thisIndex'
p792
I11
sg15
(lp793
S'd'
asg30
Vm
sg17
S'Y'
sg14
I2
sg19
Nsg94
I11
sa(dp794
g16
(lp795
S'k'
asg18
S'Y'
sS'.thisRepN'
p796
I6
sg20
S'Y'
sg31
g32
sS'.thisTrialN'
p797
I1
sS'.thisN'
p798
I91
sS'.thisIndex'
p799
I10
sg15
(lp800
S'k'
asg30
Vm
sg17
S'Y'
sg14
I2
sg19
(lp801
S'space'
p802
asg94
I10
sa(dp803
g16
(lp804
S'd'
asg18
S'N'
sS'.thisRepN'
p805
I6
sg20
S'Y'
sg31
g32
sS'.thisTrialN'
p806
I2
sS'.thisN'
p807
I92
sS'.thisIndex'
p808
I3
sg15
(lp809
S'd'
asg30
Vm
sg17
S'Y'
sg14
I2
sg19
Nsg94
I3
sa(dp810
g16
(lp811
S'd'
asg18
S'Y'
sS'.thisRepN'
p812
I6
sg20
S'N'
sg31
g32
sS'.thisTrialN'
p813
I3
sS'.thisN'
p814
I93
sS'.thisIndex'
p815
I2
sg15
(lp816
S'k'
asg30
Vm
sg17
S'N'
sg14
I2
sg19
Nsg94
I2
sa(dp817
g16
(lp818
S'k'
asg18
S'N'
sS'.thisRepN'
p819
I6
sg20
S'Y'
sg31
g32
sS'.thisTrialN'
p820
I4
sS'.thisN'
p821
I94
sS'.thisIndex'
p822
I7
sg15
(lp823
S'k'
asg30
Vm
sg17
S'Y'
sg14
I2
sg19
Nsg94
I7
sa(dp824
g16
(lp825
S'k'
asg18
S'Y'
sS'.thisRepN'
p826
I6
sg20
S'N'
sg31
g32
sS'.thisTrialN'
p827
I5
sS'.thisN'
p828
I95
sS'.thisIndex'
p829
I2
sg15
(lp830
S'k'
asg30
Vm
sg17
S'Y'
sg14
I2
sg19
Nsg94
I2
sa(dp831
g16
(lp832
S'k'
asg18
S'N'
sS'.thisRepN'
p833
I6
sg20
S'Y'
sg31
g32
sS'.thisTrialN'
p834
I6
sS'.thisN'
p835
I96
sS'.thisIndex'
p836
I1
sg15
(lp837
S'd'
asg30
Vm
sg17
S'N'
sg14
I2
sg19
Nsg94
I1
sa(dp838
g16
(lp839
S'k'
asg18
S'N'
sS'.thisRepN'
p840
I6
sg20
S'N'
sg31
g32
sS'.thisTrialN'
p841
I7
sS'.thisN'
p842
I97
sS'.thisIndex'
p843
I14
sg15
(lp844
S'k'
asg30
Vm
sg17
S'Y'
sg14
I2
sg19
(lp845
S'space'
p846
asg94
I14
sa(dp847
g16
(lp848
S'd'
asg18
S'N'
sS'.thisRepN'
p849
I6
sg20
S'Y'
sg31
g32
sS'.thisTrialN'
p850
I8
sS'.thisN'
p851
I98
sS'.thisIndex'
p852
I2
sg15
(lp853
S'k'
asg30
Vm
sg17
S'N'
sg14
I2
sg19
Nsg94
I2
sa(dp854
g16
(lp855
S'd'
asg18
S'Y'
sg22
I32
sS'.thisN'
p856
I99
sg20
S'N'
sg31
g32
sS'.thisTrialN'
p857
I9
sS'.thisRepN'
p858
I6
sg21
I37
sS'.thisIndex'
p859
I9
sg23
I24
sg15
(lp860
S'd'
asg30
Vm
sg17
S'Y'
sg14
I2
sg19
Nsg94
I9
sa(dp861
g16
(lp862
S'd'
asg94
I1
sS'.thisRepN'
p863
I6
sg30
Vm
sg31
g32
sS'.thisTrialN'
p864
I10
sS'.thisN'
p865
I100
sS'.thisIndex'
p866
I1
sg15
(lp867
S'k'
asg17
S'N'
sg14
I3
sa(dp868
g16
(lp869
S'k'
asg94
I5
sS'.thisRepN'
p870
I6
sg30
Vm
sg31
g32
sS'.thisTrialN'
p871
I11
sS'.thisN'
p872
I101
sS'.thisIndex'
p873
I5
sg15
(lp874
S'k'
asg17
S'Y'
sg14
I3
sa(dp875
g16
(lp876
S'k'
asg18
S'N'
sS'.thisRepN'
p877
I6
sg20
S'Y'
sg31
g32
sS'.thisTrialN'
p878
I12
sS'.thisN'
p879
I102
sS'.thisIndex'
p880
I11
sg15
(lp881
S'k'
asg30
Vm
sg17
S'Y'
sg14
I3
sg19
Nsg94
I11
sa(dp882
g16
(lp883
S'k'
asg18
S'Y'
sS'.thisRepN'
p884
I6
sg20
S'N'
sg31
g32
sS'.thisTrialN'
p885
I13
sS'.thisN'
p886
I103
sS'.thisIndex'
p887
I1
sg15
(lp888
S'k'
asg30
Vm
sg17
S'Y'
sg14
I3
sg19
Nsg94
I1
sa(dp889
g16
(lp890
S'k'
asg18
S'Y'
sS'.thisRepN'
p891
I6
sg20
S'N'
sg31
g32
sS'.thisTrialN'
p892
I14
sS'.thisN'
p893
I104
sS'.thisIndex'
p894
I4
sg15
(lp895
S'd'
asg30
Vm
sg17
S'N'
sg14
I3
sg19
Nsg94
I4
sa(dp896
g16
(lp897
S'd'
asg18
S'N'
sS'.thisRepN'
p898
I7
sg20
S'Y'
sg31
g32
sS'.thisTrialN'
p899
I0
sS'.thisN'
p900
I105
sS'.thisIndex'
p901
I0
sg15
(lp902
S'd'
asg30
Vm
sg17
S'Y'
sg14
I3
sg19
Nsg94
I0
sa(dp903
g16
(lp904
S'd'
asg18
S'Y'
sS'.thisRepN'
p905
I7
sg20
S'N'
sg31
g32
sS'.thisTrialN'
p906
I1
sS'.thisN'
p907
I106
sS'.thisIndex'
p908
I11
sg15
(lp909
S'd'
asg30
Vm
sg17
S'Y'
sg14
I3
sg19
Nsg94
I11
sa(dp910
g16
(lp911
S'k'
asg18
S'Y'
sS'.thisRepN'
p912
I7
sg20
S'Y'
sg31
g32
sS'.thisTrialN'
p913
I2
sS'.thisN'
p914
I107
sS'.thisIndex'
p915
I7
sg15
(lp916
S'k'
asg30
Vm
sg17
S'Y'
sg14
I3
sg19
(lp917
S'space'
p918
asg94
I7
sa(dp919
g16
(lp920
S'd'
asg18
S'N'
sS'.thisRepN'
p921
I7
sg20
S'Y'
sg31
g32
sS'.thisTrialN'
p922
I3
sS'.thisN'
p923
I108
sS'.thisIndex'
p924
I12
sg15
(lp925
S'd'
asg30
Vm
sg17
S'Y'
sg14
I3
sg19
Nsg94
I12
sa(dp926
g16
(lp927
S'k'
asg18
S'N'
sS'.thisRepN'
p928
I7
sg20
S'N'
sg31
g32
sS'.thisTrialN'
p929
I4
sS'.thisN'
p930
I109
sS'.thisIndex'
p931
I9
sg15
(lp932
S'k'
asg30
Vm
sg17
S'Y'
sg14
I3
sg19
(lp933
S'space'
p934
asg94
I9
sa(dp935
g16
(lp936
S'd'
asg18
S'Y'
sS'.thisRepN'
p937
I7
sg20
S'N'
sg31
g32
sS'.thisTrialN'
p938
I5
sS'.thisN'
p939
I110
sS'.thisIndex'
p940
I1
sg15
(lp941
S'd'
asg30
Vm
sg17
S'Y'
sg14
I3
sg19
Nsg94
I1
sa(dp942
g16
(lp943
S'd'
asg18
S'N'
sS'.thisRepN'
p944
I7
sg20
S'Y'
sg31
g32
sS'.thisTrialN'
p945
I6
sS'.thisN'
p946
I111
sS'.thisIndex'
p947
I10
sg15
(lp948
S'd'
asg30
Vm
sg17
S'Y'
sg14
I3
sg19
Nsg94
I10
sa(dp949
g16
(lp950
S'k'
asg18
S'Y'
sS'.thisRepN'
p951
I7
sg20
S'Y'
sg31
g32
sS'.thisTrialN'
p952
I7
sS'.thisN'
p953
I112
sS'.thisIndex'
p954
I11
sg15
(lp955
S'k'
asg30
Vm
sg17
S'Y'
sg14
I3
sg19
(lp956
S'space'
p957
asg94
I11
sa(dp958
g16
(lp959
S'k'
asg18
S'Y'
sS'.thisRepN'
p960
I7
sg20
S'N'
sg31
g32
sS'.thisTrialN'
p961
I8
sS'.thisN'
p962
I113
sS'.thisIndex'
p963
I10
sg15
(lp964
S'k'
asg30
Vm
sg17
S'Y'
sg14
I3
sg19
Nsg94
I10
sa(dp965
g16
(lp966
S'd'
asg18
S'N'
sS'.thisRepN'
p967
I7
sg20
S'Y'
sg31
g32
sS'.thisTrialN'
p968
I9
sS'.thisN'
p969
I114
sS'.thisIndex'
p970
I7
sg15
(lp971
S'd'
asg30
Vm
sg17
S'Y'
sg14
I3
sg19
Nsg94
I7
sa(dp972
g16
(lp973
S'd'
asg18
S'N'
sS'.thisRepN'
p974
I7
sg20
S'Y'
sg31
g32
sS'.thisTrialN'
p975
I10
sS'.thisN'
p976
I115
sS'.thisIndex'
p977
I0
sg15
(lp978
S'd'
asg30
Vm
sg17
S'Y'
sg14
I3
sg19
Nsg94
I0
sa(dp979
g16
(lp980
S'd'
asg18
S'Y'
sS'.thisRepN'
p981
I7
sg20
S'Y'
sg31
g32
sS'.thisTrialN'
p982
I11
sS'.thisN'
p983
I116
sS'.thisIndex'
p984
I12
sg15
(lp985
S'k'
asg30
Vm
sg17
S'N'
sg14
I3
sg19
(lp986
S'space'
p987
asg94
I12
sa(dp988
g16
(lp989
S'd'
asg18
S'Y'
sS'.thisRepN'
p990
I7
sg20
S'Y'
sg31
g32
sS'.thisTrialN'
p991
I12
sS'.thisN'
p992
I117
sS'.thisIndex'
p993
I10
sg15
(lp994
S'd'
asg30
Vm
sg17
S'Y'
sg14
I3
sg19
(lp995
S'space'
p996
asg94
I10
sa(dp997
g16
(lp998
S'd'
asg18
S'N'
sS'.thisRepN'
p999
I7
sg20
S'Y'
sg31
g32
sS'.thisTrialN'
p1000
I13
sS'.thisN'
p1001
I118
sS'.thisIndex'
p1002
I6
sg15
(lp1003
S'd'
asg30
Vm
sg17
S'Y'
sg14
I3
sg19
Nsg94
I6
sa(dp1004
g16
(lp1005
S'k'
asg18
S'Y'
sS'.thisRepN'
p1006
I7
sg20
S'Y'
sg31
g32
sS'.thisTrialN'
p1007
I14
sS'.thisN'
p1008
I119
sS'.thisIndex'
p1009
I6
sg15
(lp1010
S'k'
asg30
Vm
sg17
S'Y'
sg14
I3
sg19
(lp1011
S'space'
p1012
asg94
I6
sa(dp1013
g16
(lp1014
S'd'
asg18
S'N'
sS'.thisRepN'
p1015
I8
sg20
S'Y'
sg31
g32
sS'.thisTrialN'
p1016
I0
sS'.thisN'
p1017
I120
sS'.thisIndex'
p1018
I13
sg15
(lp1019
S'd'
asg30
Vm
sg17
S'Y'
sg14
I3
sg19
Nsg94
I13
sa(dp1020
g16
(lp1021
S'k'
asg18
S'Y'
sS'.thisRepN'
p1022
I8
sg20
S'Y'
sg31
g32
sS'.thisTrialN'
p1023
I1
sS'.thisN'
p1024
I121
sS'.thisIndex'
p1025
I3
sg15
(lp1026
S'k'
asg30
Vm
sg17
S'Y'
sg14
I3
sg19
(lp1027
S'space'
p1028
asg94
I3
sa(dp1029
g16
(lp1030
S'k'
asg18
S'Y'
sS'.thisRepN'
p1031
I8
sg20
S'Y'
sg31
g32
sS'.thisTrialN'
p1032
I2
sS'.thisN'
p1033
I122
sS'.thisIndex'
p1034
I7
sg15
(lp1035
S'k'
asg30
Vm
sg17
S'Y'
sg14
I3
sg19
(lp1036
S'space'
p1037
asg94
I7
sa(dp1038
g16
(lp1039
S'k'
asg18
S'N'
sS'.thisRepN'
p1040
I8
sg20
S'Y'
sg31
g32
sS'.thisTrialN'
p1041
I3
sS'.thisN'
p1042
I123
sS'.thisIndex'
p1043
I12
sg15
(lp1044
S'd'
asg30
Vm
sg17
S'N'
sg14
I3
sg19
Nsg94
I12
sa(dp1045
g16
(lp1046
S'k'
asg18
S'N'
sS'.thisRepN'
p1047
I8
sg20
S'Y'
sg31
g32
sS'.thisTrialN'
p1048
I4
sS'.thisN'
p1049
I124
sS'.thisIndex'
p1050
I4
sg15
(lp1051
S'k'
asg30
Vm
sg17
S'Y'
sg14
I3
sg19
Nsg94
I4
sa(dp1052
g16
(lp1053
S'k'
asg18
S'Y'
sS'.thisRepN'
p1054
I8
sg20
S'Y'
sg31
g32
sS'.thisTrialN'
p1055
I5
sS'.thisN'
p1056
I125
sS'.thisIndex'
p1057
I6
sg15
(lp1058
S'k'
asg30
Vm
sg17
S'Y'
sg14
I3
sg19
(lp1059
S'space'
p1060
asg94
I6
sa(dp1061
g16
(lp1062
S'k'
asg18
S'N'
sS'.thisRepN'
p1063
I8
sg20
S'Y'
sg31
g32
sS'.thisTrialN'
p1064
I6
sS'.thisN'
p1065
I126
sS'.thisIndex'
p1066
I3
sg15
(lp1067
S'd'
asg30
Vm
sg17
S'N'
sg14
I3
sg19
Nsg94
I3
sa(dp1068
g16
(lp1069
S'k'
asg18
S'Y'
sS'.thisRepN'
p1070
I8
sg20
S'Y'
sg31
g32
sS'.thisTrialN'
p1071
I7
sS'.thisN'
p1072
I127
sS'.thisIndex'
p1073
I7
sg15
(lp1074
S'k'
asg30
Vm
sg17
S'Y'
sg14
I3
sg19
(lp1075
S'space'
p1076
asg94
I7
sa(dp1077
g16
(lp1078
S'k'
asg18
S'N'
sS'.thisRepN'
p1079
I8
sg20
S'Y'
sg31
g32
sS'.thisTrialN'
p1080
I8
sS'.thisN'
p1081
I128
sS'.thisIndex'
p1082
I8
sg15
(lp1083
S'k'
asg30
Vm
sg17
S'Y'
sg14
I3
sg19
Nsg94
I8
sa(dp1084
g16
(lp1085
S'k'
asg18
S'N'
sS'.thisRepN'
p1086
I8
sg20
S'Y'
sg31
g32
sS'.thisTrialN'
p1087
I9
sS'.thisN'
p1088
I129
sS'.thisIndex'
p1089
I14
sg15
(lp1090
S'k'
asg30
Vm
sg17
S'Y'
sg14
I3
sg19
Nsg94
I14
sa(dp1091
g16
(lp1092
S'd'
asg18
S'N'
sS'.thisRepN'
p1093
I8
sg20
S'Y'
sg31
g32
sS'.thisTrialN'
p1094
I10
sS'.thisN'
p1095
I130
sS'.thisIndex'
p1096
I0
sg15
(lp1097
S'k'
asg30
Vm
sg17
S'N'
sg14
I3
sg19
Nsg94
I0
sa(dp1098
g16
(lp1099
S'd'
asg18
S'Y'
sS'.thisRepN'
p1100
I8
sg20
S'N'
sg31
g32
sS'.thisTrialN'
p1101
I11
sS'.thisN'
p1102
I131
sS'.thisIndex'
p1103
I14
sg15
(lp1104
S'd'
asg30
Vm
sg17
S'Y'
sg14
I3
sg19
Nsg94
I14
sa(dp1105
g16
(lp1106
S'd'
asg18
S'N'
sS'.thisRepN'
p1107
I8
sg20
S'Y'
sg31
g32
sS'.thisTrialN'
p1108
I12
sS'.thisN'
p1109
I132
sS'.thisIndex'
p1110
I1
sg15
(lp1111
S'k'
asg30
Vm
sg17
S'N'
sg14
I3
sg19
Nsg94
I1
sa(dp1112
g16
(lp1113
S'd'
asg18
S'Y'
sS'.thisRepN'
p1114
I8
sg20
S'Y'
sg31
g32
sS'.thisTrialN'
p1115
I13
sS'.thisN'
p1116
I133
sS'.thisIndex'
p1117
I8
sg15
(lp1118
S'k'
asg30
Vm
sg17
S'N'
sg14
I3
sg19
(lp1119
S'space'
p1120
asg94
I8
sa(dp1121
g16
(lp1122
S'k'
asg18
S'N'
sS'.thisRepN'
p1123
I8
sg20
S'Y'
sg31
g32
sS'.thisTrialN'
p1124
I14
sS'.thisN'
p1125
I134
sS'.thisIndex'
p1126
I10
sg15
(lp1127
S'k'
asg30
Vm
sg17
S'Y'
sg14
I3
sg19
Nsg94
I10
sa(dp1128
g16
(lp1129
S'd'
asg18
S'Y'
sS'.thisRepN'
p1130
I9
sg20
S'Y'
sg31
g32
sS'.thisTrialN'
p1131
I0
sS'.thisN'
p1132
I135
sS'.thisIndex'
p1133
I1
sg15
(lp1134
S'd'
asg30
Vm
sg17
S'Y'
sg14
I3
sg19
(lp1135
S'space'
p1136
asg94
I1
sa(dp1137
g16
(lp1138
S'k'
asg18
S'N'
sS'.thisRepN'
p1139
I9
sg20
S'Y'
sg31
g32
sS'.thisTrialN'
p1140
I1
sS'.thisN'
p1141
I136
sS'.thisIndex'
p1142
I3
sg15
(lp1143
S'd'
asg30
Vm
sg17
S'N'
sg14
I3
sg19
Nsg94
I3
sa(dp1144
g16
(lp1145
S'd'
asg18
S'N'
sS'.thisRepN'
p1146
I9
sg20
S'N'
sg31
g32
sS'.thisTrialN'
p1147
I2
sS'.thisN'
p1148
I137
sS'.thisIndex'
p1149
I1
sg15
(lp1150
S'k'
asg30
Vm
sg17
S'N'
sg14
I3
sg19
(lp1151
S'space'
p1152
asg94
I1
sa(dp1153
g16
(lp1154
S'k'
asg18
S'Y'
sS'.thisRepN'
p1155
I9
sg20
S'Y'
sg31
g32
sS'.thisTrialN'
p1156
I3
sS'.thisN'
p1157
I138
sS'.thisIndex'
p1158
I13
sg15
(lp1159
S'k'
asg30
Vm
sg17
S'Y'
sg14
I3
sg19
(lp1160
S'space'
p1161
asg94
I13
sa(dp1162
g16
(lp1163
S'k'
asg18
S'Y'
sS'.thisRepN'
p1164
I9
sg20
S'Y'
sg31
g32
sS'.thisTrialN'
p1165
I4
sS'.thisN'
p1166
I139
sS'.thisIndex'
p1167
I12
sg15
(lp1168
S'k'
asg30
Vm
sg17
S'Y'
sg14
I3
sg19
(lp1169
S'space'
p1170
asg94
I12
sa(dp1171
g16
(lp1172
S'd'
asg18
S'Y'
sS'.thisRepN'
p1173
I9
sg20
S'Y'
sg31
g32
sS'.thisTrialN'
p1174
I5
sS'.thisN'
p1175
I140
sS'.thisIndex'
p1176
I1
sg15
(lp1177
S'd'
asg30
Vm
sg17
S'Y'
sg14
I3
sg19
(lp1178
S'space'
p1179
asg94
I1
sa(dp1180
g16
(lp1181
S'd'
asg18
S'N'
sS'.thisRepN'
p1182
I9
sg20
S'Y'
sg31
g32
sS'.thisTrialN'
p1183
I6
sS'.thisN'
p1184
I141
sS'.thisIndex'
p1185
I1
sg15
(lp1186
S'd'
asg30
Vm
sg17
S'Y'
sg14
I3
sg19
Nsg94
I1
sa(dp1187
g16
(lp1188
S'd'
asg18
S'N'
sS'.thisRepN'
p1189
I9
sg20
S'Y'
sg31
g32
sS'.thisTrialN'
p1190
I7
sS'.thisN'
p1191
I142
sS'.thisIndex'
p1192
I7
sg15
(lp1193
S'k'
asg30
Vm
sg17
S'N'
sg14
I3
sg19
Nsg94
I7
sa(dp1194
g16
(lp1195
S'd'
asg18
S'Y'
sS'.thisRepN'
p1196
I9
sg20
S'N'
sg31
g32
sS'.thisTrialN'
p1197
I8
sS'.thisN'
p1198
I143
sS'.thisIndex'
p1199
I14
sg15
(lp1200
S'k'
asg30
Vm
sg17
S'N'
sg14
I3
sg19
Nsg94
I14
sa(dp1201
g16
(lp1202
S'd'
asg18
S'N'
sS'.thisRepN'
p1203
I9
sg20
S'Y'
sg31
g32
sS'.thisTrialN'
p1204
I9
sS'.thisN'
p1205
I144
sS'.thisIndex'
p1206
I6
sg15
(lp1207
S'd'
asg30
Vm
sg17
S'Y'
sg14
I3
sg19
Nsg94
I6
sa(dp1208
g16
(lp1209
S'k'
asg18
S'N'
sS'.thisRepN'
p1210
I9
sg20
S'Y'
sg31
g32
sS'.thisTrialN'
p1211
I10
sS'.thisN'
p1212
I145
sS'.thisIndex'
p1213
I13
sg15
(lp1214
S'k'
asg30
Vm
sg17
S'Y'
sg14
I3
sg19
Nsg94
I13
sa(dp1215
g16
(lp1216
S'd'
asg18
S'Y'
sS'.thisRepN'
p1217
I9
sg20
S'N'
sg31
g32
sS'.thisTrialN'
p1218
I11
sS'.thisN'
p1219
I146
sS'.thisIndex'
p1220
I5
sg15
(lp1221
S'd'
asg30
Vm
sg17
S'Y'
sg14
I3
sg19
Nsg94
I5
sa(dp1222
g16
(lp1223
S'd'
asg18
S'Y'
sS'.thisRepN'
p1224
I9
sg20
S'Y'
sg31
g32
sS'.thisTrialN'
p1225
I12
sS'.thisN'
p1226
I147
sS'.thisIndex'
p1227
I2
sg15
(lp1228
S'd'
asg30
Vm
sg17
S'Y'
sg14
I3
sg19
(lp1229
S'space'
p1230
asg94
I2
sa(dp1231
g16
(lp1232
S'd'
asg18
S'N'
sS'.thisRepN'
p1233
I9
sg20
S'Y'
sg31
g32
sS'.thisTrialN'
p1234
I13
sS'.thisN'
p1235
I148
sS'.thisIndex'
p1236
I5
sg15
(lp1237
S'k'
asg30
Vm
sg17
S'N'
sg14
I3
sg19
Nsg94
I5
sa(dp1238
g16
(lp1239
S'k'
asg18
S'Y'
sg22
I38
sS'.thisN'
p1240
I149
sg20
S'Y'
sg31
g32
sS'.thisTrialN'
p1241
I14
sS'.thisRepN'
p1242
I9
sg21
I37
sS'.thisIndex'
p1243
I13
sg23
I24
sg15
(lp1244
S'k'
asg30
Vm
sg17
S'Y'
sg14
I3
sg19
(lp1245
S'space'
p1246
asg94
I13
sa(dp1247
g16
(lp1248
S'k'
asg94
I11
sS'.thisRepN'
p1249
I10
sg30
Vm
sg31
g32
sS'.thisTrialN'
p1250
I0
sS'.thisN'
p1251
I150
sS'.thisIndex'
p1252
I11
sg15
(lp1253
S'k'
asg17
S'Y'
sg14
I4
sa(dp1254
g16
(lp1255
S'k'
asg94
I11
sS'.thisRepN'
p1256
I10
sg30
Vm
sg31
g32
sS'.thisTrialN'
p1257
I1
sS'.thisN'
p1258
I151
sS'.thisIndex'
p1259
I11
sg15
(lp1260
S'd'
asg17
S'N'
sg14
I4
sa(dp1261
g16
(lp1262
S'd'
asg18
S'N'
sS'.thisRepN'
p1263
I10
sg20
S'Y'
sg31
g32
sS'.thisTrialN'
p1264
I2
sS'.thisN'
p1265
I152
sS'.thisIndex'
p1266
I14
sg15
(lp1267
S'k'
asg30
Vm
sg17
S'N'
sg14
I4
sg19
Nsg94
I14
sa(dp1268
g16
(lp1269
S'd'
asg18
S'Y'
sS'.thisRepN'
p1270
I10
sg20
S'Y'
sg31
g32
sS'.thisTrialN'
p1271
I3
sS'.thisN'
p1272
I153
sS'.thisIndex'
p1273
I12
sg15
(lp1274
S'd'
asg30
Vm
sg17
S'Y'
sg14
I4
sg19
(lp1275
S'space'
p1276
asg94
I12
sa(dp1277
g16
(lp1278
S'd'
asg18
S'Y'
sS'.thisRepN'
p1279
I10
sg20
S'Y'
sg31
g32
sS'.thisTrialN'
p1280
I4
sS'.thisN'
p1281
I154
sS'.thisIndex'
p1282
I1
sg15
(lp1283
S'd'
asg30
Vm
sg17
S'Y'
sg14
I4
sg19
(lp1284
S'space'
p1285
asg94
I1
sa(dp1286
g16
(lp1287
S'd'
asg18
S'N'
sS'.thisRepN'
p1288
I10
sg20
S'Y'
sg31
g32
sS'.thisTrialN'
p1289
I5
sS'.thisN'
p1290
I155
sS'.thisIndex'
p1291
I3
sg15
(lp1292
S'd'
asg30
Vm
sg17
S'Y'
sg14
I4
sg19
Nsg94
I3
sa(dp1293
g16
(lp1294
S'd'
asg18
S'N'
sS'.thisRepN'
p1295
I10
sg20
S'Y'
sg31
g32
sS'.thisTrialN'
p1296
I6
sS'.thisN'
p1297
I156
sS'.thisIndex'
p1298
I1
sg15
(lp1299
S'd'
asg30
Vm
sg17
S'Y'
sg14
I4
sg19
Nsg94
I1
sa(dp1300
g16
(lp1301
S'k'
asg18
S'Y'
sS'.thisRepN'
p1302
I10
sg20
S'Y'
sg31
g32
sS'.thisTrialN'
p1303
I7
sS'.thisN'
p1304
I157
sS'.thisIndex'
p1305
I7
sg15
(lp1306
S'k'
asg30
Vm
sg17
S'Y'
sg14
I4
sg19
(lp1307
S'space'
p1308
asg94
I7
sa(dp1309
g16
(lp1310
S'k'
asg18
S'N'
sS'.thisRepN'
p1311
I10
sg20
S'Y'
sg31
g32
sS'.thisTrialN'
p1312
I8
sS'.thisN'
p1313
I158
sS'.thisIndex'
p1314
I8
sg15
(lp1315
S'd'
asg30
Vm
sg17
S'N'
sg14
I4
sg19
Nsg94
I8
sa(dp1316
g16
(lp1317
S'd'
asg18
S'N'
sS'.thisRepN'
p1318
I10
sg20
S'Y'
sg31
g32
sS'.thisTrialN'
p1319
I9
sS'.thisN'
p1320
I159
sS'.thisIndex'
p1321
I0
sg15
(lp1322
S'k'
asg30
Vm
sg17
S'N'
sg14
I4
sg19
Nsg94
I0
sa(dp1323
g16
(lp1324
S'd'
asg18
S'Y'
sS'.thisRepN'
p1325
I10
sg20
S'Y'
sg31
g32
sS'.thisTrialN'
p1326
I10
sS'.thisN'
p1327
I160
sS'.thisIndex'
p1328
I8
sg15
(lp1329
S'd'
asg30
Vm
sg17
S'Y'
sg14
I4
sg19
(lp1330
S'space'
p1331
asg94
I8
sa(dp1332
g16
(lp1333
S'd'
asg18
S'Y'
sS'.thisRepN'
p1334
I10
sg20
S'N'
sg31
g32
sS'.thisTrialN'
p1335
I11
sS'.thisN'
p1336
I161
sS'.thisIndex'
p1337
I4
sg15
(lp1338
S'k'
asg30
Vm
sg17
S'N'
sg14
I4
sg19
Nsg94
I4
sa(dp1339
g16
(lp1340
S'k'
asg18
S'Y'
sS'.thisRepN'
p1341
I10
sg20
S'Y'
sg31
g32
sS'.thisTrialN'
p1342
I12
sS'.thisN'
p1343
I162
sS'.thisIndex'
p1344
I12
sg15
(lp1345
S'k'
asg30
Vm
sg17
S'Y'
sg14
I4
sg19
(lp1346
S'space'
p1347
asg94
I12
sa(dp1348
g16
(lp1349
S'k'
asg18
S'Y'
sS'.thisRepN'
p1350
I10
sg20
S'N'
sg31
g32
sS'.thisTrialN'
p1351
I13
sS'.thisN'
p1352
I163
sS'.thisIndex'
p1353
I1
sg15
(lp1354
S'k'
asg30
Vm
sg17
S'Y'
sg14
I4
sg19
(lp1355
S'd'
asg94
I1
sa(dp1356
g16
(lp1357
S'd'
asg18
S'Y'
sS'.thisRepN'
p1358
I10
sg20
S'Y'
sg31
g32
sS'.thisTrialN'
p1359
I14
sS'.thisN'
p1360
I164
sS'.thisIndex'
p1361
I3
sg15
(lp1362
S'd'
asg30
Vm
sg17
S'Y'
sg14
I4
sg19
(lp1363
S'space'
p1364
asg94
I3
sa(dp1365
g16
(lp1366
S'd'
asg18
S'Y'
sS'.thisRepN'
p1367
I11
sg20
S'Y'
sg31
g32
sS'.thisTrialN'
p1368
I0
sS'.thisN'
p1369
I165
sS'.thisIndex'
p1370
I10
sg15
(lp1371
S'd'
asg30
Vm
sg17
S'Y'
sg14
I4
sg19
(lp1372
S'space'
p1373
asg94
I10
sa(dp1374
g16
(lp1375
S'd'
asg18
S'Y'
sS'.thisRepN'
p1376
I11
sg20
S'Y'
sg31
g32
sS'.thisTrialN'
p1377
I1
sS'.thisN'
p1378
I166
sS'.thisIndex'
p1379
I0
sg15
(lp1380
S'k'
asg30
Vm
sg17
S'N'
sg14
I4
sg19
(lp1381
S'space'
p1382
asg94
I0
sa(dp1383
g16
(lp1384
S'k'
asg18
S'N'
sS'.thisRepN'
p1385
I11
sg20
S'Y'
sg31
g32
sS'.thisTrialN'
p1386
I2
sS'.thisN'
p1387
I167
sS'.thisIndex'
p1388
I13
sg15
(lp1389
S'd'
asg30
Vm
sg17
S'N'
sg14
I4
sg19
Nsg94
I13
sa(dp1390
g16
(lp1391
S'k'
asg18
S'Y'
sS'.thisRepN'
p1392
I11
sg20
S'Y'
sg31
g32
sS'.thisTrialN'
p1393
I3
sS'.thisN'
p1394
I168
sS'.thisIndex'
p1395
I5
sg15
(lp1396
S'k'
asg30
Vm
sg17
S'Y'
sg14
I4
sg19
(lp1397
S'space'
p1398
asg94
I5
sa(dp1399
g16
(lp1400
S'k'
asg18
S'Y'
sS'.thisRepN'
p1401
I11
sg20
S'N'
sg31
g32
sS'.thisTrialN'
p1402
I4
sS'.thisN'
p1403
I169
sS'.thisIndex'
p1404
I2
sg15
(lp1405
S'k'
asg30
Vm
sg17
S'Y'
sg14
I4
sg19
Nsg94
I2
sa(dp1406
g16
(lp1407
S'd'
asg18
S'Y'
sS'.thisRepN'
p1408
I11
sg20
S'Y'
sg31
g32
sS'.thisTrialN'
p1409
I5
sS'.thisN'
p1410
I170
sS'.thisIndex'
p1411
I6
sg15
(lp1412
S'k'
asg30
Vm
sg17
S'N'
sg14
I4
sg19
(lp1413
S'space'
p1414
asg94
I6
sa(dp1415
g16
(lp1416
S'k'
asg18
S'N'
sS'.thisRepN'
p1417
I11
sg20
S'Y'
sg31
g32
sS'.thisTrialN'
p1418
I6
sS'.thisN'
p1419
I171
sS'.thisIndex'
p1420
I6
sg15
(lp1421
S'k'
asg30
Vm
sg17
S'Y'
sg14
I4
sg19
Nsg94
I6
sa(dp1422
g16
(lp1423
S'd'
asg18
S'Y'
sS'.thisRepN'
p1424
I11
sg20
S'Y'
sg31
g32
sS'.thisTrialN'
p1425
I7
sS'.thisN'
p1426
I172
sS'.thisIndex'
p1427
I3
sg15
(lp1428
S'd'
asg30
Vm
sg17
S'Y'
sg14
I4
sg19
(lp1429
S'space'
p1430
asg94
I3
sa(dp1431
g16
(lp1432
S'k'
asg18
S'Y'
sS'.thisRepN'
p1433
I11
sg20
S'Y'
sg31
g32
sS'.thisTrialN'
p1434
I8
sS'.thisN'
p1435
I173
sS'.thisIndex'
p1436
I6
sg15
(lp1437
S'k'
asg30
Vm
sg17
S'Y'
sg14
I4
sg19
(lp1438
S'space'
p1439
asg94
I6
sa(dp1440
g16
(lp1441
S'k'
asg18
S'Y'
sS'.thisRepN'
p1442
I11
sg20
S'Y'
sg31
g32
sS'.thisTrialN'
p1443
I9
sS'.thisN'
p1444
I174
sS'.thisIndex'
p1445
I13
sg15
(lp1446
S'd'
asg30
Vm
sg17
S'N'
sg14
I4
sg19
(lp1447
S'space'
p1448
asg94
I13
sa(dp1449
g16
(lp1450
S'k'
asg18
S'Y'
sS'.thisRepN'
p1451
I11
sg20
S'Y'
sg31
g32
sS'.thisTrialN'
p1452
I10
sS'.thisN'
p1453
I175
sS'.thisIndex'
p1454
I12
sg15
(lp1455
S'k'
asg30
Vm
sg17
S'Y'
sg14
I4
sg19
(lp1456
S'space'
p1457
asg94
I12
sa(dp1458
g16
(lp1459
S'd'
asg18
S'N'
sS'.thisRepN'
p1460
I11
sg20
S'Y'
sg31
g32
sS'.thisTrialN'
p1461
I11
sS'.thisN'
p1462
I176
sS'.thisIndex'
p1463
I8
sg15
(lp1464
S'k'
asg30
Vm
sg17
S'N'
sg14
I4
sg19
Nsg94
I8
sa(dp1465
g16
(lp1466
S'k'
asg18
S'N'
sS'.thisRepN'
p1467
I11
sg20
S'N'
sg31
g32
sS'.thisTrialN'
p1468
I12
sS'.thisN'
p1469
I177
sS'.thisIndex'
p1470
I8
sg15
(lp1471
S'd'
asg30
Vm
sg17
S'N'
sg14
I4
sg19
(lp1472
S'space'
p1473
asg94
I8
sa(dp1474
g16
(lp1475
S'k'
asg18
S'Y'
sS'.thisRepN'
p1476
I11
sg20
S'Y'
sg31
g32
sS'.thisTrialN'
p1477
I13
sS'.thisN'
p1478
I178
sS'.thisIndex'
p1479
I1
sg15
(lp1480
S'k'
asg30
Vm
sg17
S'Y'
sg14
I4
sg19
(lp1481
S'space'
p1482
asg94
I1
sa(dp1483
g16
(lp1484
S'k'
asg18
S'N'
sS'.thisRepN'
p1485
I11
sg20
S'Y'
sg31
g32
sS'.thisTrialN'
p1486
I14
sS'.thisN'
p1487
I179
sS'.thisIndex'
p1488
I11
sg15
(lp1489
S'd'
asg30
Vm
sg17
S'N'
sg14
I4
sg19
Nsg94
I11
sa(dp1490
g16
(lp1491
S'd'
asg18
S'N'
sS'.thisRepN'
p1492
I12
sg20
S'Y'
sg31
g32
sS'.thisTrialN'
p1493
I0
sS'.thisN'
p1494
I180
sS'.thisIndex'
p1495
I13
sg15
(lp1496
S'd'
asg30
Vm
sg17
S'Y'
sg14
I4
sg19
Nsg94
I13
sa(dp1497
g16
(lp1498
S'd'
asg18
S'Y'
sS'.thisRepN'
p1499
I12
sg20
S'Y'
sg31
g32
sS'.thisTrialN'
p1500
I1
sS'.thisN'
p1501
I181
sS'.thisIndex'
p1502
I4
sg15
(lp1503
S'd'
asg30
Vm
sg17
S'Y'
sg14
I4
sg19
(lp1504
S'space'
p1505
asg94
I4
sa(dp1506
g16
(lp1507
S'k'
asg18
S'Y'
sS'.thisRepN'
p1508
I12
sg20
S'Y'
sg31
g32
sS'.thisTrialN'
p1509
I2
sS'.thisN'
p1510
I182
sS'.thisIndex'
p1511
I13
sg15
(lp1512
S'k'
asg30
Vm
sg17
S'Y'
sg14
I4
sg19
(lp1513
S'space'
p1514
asg94
I13
sa(dp1515
g16
(lp1516
S'k'
asg18
S'Y'
sS'.thisRepN'
p1517
I12
sg20
S'Y'
sg31
g32
sS'.thisTrialN'
p1518
I3
sS'.thisN'
p1519
I183
sS'.thisIndex'
p1520
I14
sg15
(lp1521
S'k'
asg30
Vm
sg17
S'Y'
sg14
I4
sg19
(lp1522
S'space'
p1523
asg94
I14
sa(dp1524
g16
(lp1525
S'd'
asg18
S'Y'
sS'.thisRepN'
p1526
I12
sg20
S'Y'
sg31
g32
sS'.thisTrialN'
p1527
I4
sS'.thisN'
p1528
I184
sS'.thisIndex'
p1529
I11
sg15
(lp1530
S'd'
asg30
Vm
sg17
S'Y'
sg14
I4
sg19
(lp1531
S'space'
p1532
asg94
I11
sa(dp1533
g16
(lp1534
S'k'
asg18
S'Y'
sS'.thisRepN'
p1535
I12
sg20
S'Y'
sg31
g32
sS'.thisTrialN'
p1536
I5
sS'.thisN'
p1537
I185
sS'.thisIndex'
p1538
I2
sg15
(lp1539
S'k'
asg30
Vm
sg17
S'Y'
sg14
I4
sg19
(lp1540
S'space'
p1541
asg94
I2
sa(dp1542
g16
(lp1543
S'd'
asg18
S'Y'
sS'.thisRepN'
p1544
I12
sg20
S'Y'
sg31
g32
sS'.thisTrialN'
p1545
I6
sS'.thisN'
p1546
I186
sS'.thisIndex'
p1547
I3
sg15
(lp1548
S'd'
asg30
Vm
sg17
S'Y'
sg14
I4
sg19
(lp1549
S'space'
p1550
asg94
I3
sa(dp1551
g16
(lp1552
S'k'
asg18
S'Y'
sS'.thisRepN'
p1553
I12
sg20
S'N'
sg31
g32
sS'.thisTrialN'
p1554
I7
sS'.thisN'
p1555
I187
sS'.thisIndex'
p1556
I14
sg15
(lp1557
S'k'
asg30
Vm
sg17
S'Y'
sg14
I4
sg19
Nsg94
I14
sa(dp1558
g16
(lp1559
S'd'
asg18
S'N'
sS'.thisRepN'
p1560
I12
sg20
S'N'
sg31
g32
sS'.thisTrialN'
p1561
I8
sS'.thisN'
p1562
I188
sS'.thisIndex'
p1563
I8
sg15
(lp1564
S'd'
asg30
Vm
sg17
S'Y'
sg14
I4
sg19
(lp1565
S'space'
p1566
asg94
I8
sa(dp1567
g16
(lp1568
S'k'
asg18
S'N'
sS'.thisRepN'
p1569
I12
sg20
S'Y'
sg31
g32
sS'.thisTrialN'
p1570
I9
sS'.thisN'
p1571
I189
sS'.thisIndex'
p1572
I7
sg15
(lp1573
S'k'
asg30
Vm
sg17
S'Y'
sg14
I4
sg19
Nsg94
I7
sa(dp1574
g16
(lp1575
S'k'
asg18
S'N'
sS'.thisRepN'
p1576
I12
sg20
S'Y'
sg31
g32
sS'.thisTrialN'
p1577
I10
sS'.thisN'
p1578
I190
sS'.thisIndex'
p1579
I5
sg15
(lp1580
S'd'
asg30
Vm
sg17
S'N'
sg14
I4
sg19
Nsg94
I5
sa(dp1581
g16
(lp1582
S'k'
asg18
S'N'
sS'.thisRepN'
p1583
I12
sg20
S'Y'
sg31
g32
sS'.thisTrialN'
p1584
I11
sS'.thisN'
p1585
I191
sS'.thisIndex'
p1586
I12
sg15
(lp1587
S'k'
asg30
Vm
sg17
S'Y'
sg14
I4
sg19
Nsg94
I12
sa(dp1588
g16
(lp1589
S'k'
asg18
S'N'
sS'.thisRepN'
p1590
I12
sg20
S'Y'
sg31
g32
sS'.thisTrialN'
p1591
I12
sS'.thisN'
p1592
I192
sS'.thisIndex'
p1593
I0
sg15
(lp1594
S'k'
asg30
Vm
sg17
S'Y'
sg14
I4
sg19
Nsg94
I0
sa(dp1595
g16
(lp1596
S'd'
asg18
S'N'
sS'.thisRepN'
p1597
I12
sg20
S'Y'
sg31
g32
sS'.thisTrialN'
p1598
I13
sS'.thisN'
p1599
I193
sS'.thisIndex'
p1600
I11
sg15
(lp1601
S'd'
asg30
Vm
sg17
S'Y'
sg14
I4
sg19
Nsg94
I11
sa(dp1602
g16
(lp1603
S'd'
asg18
S'N'
sS'.thisRepN'
p1604
I12
sg20
S'Y'
sg31
g32
sS'.thisTrialN'
p1605
I14
sS'.thisN'
p1606
I194
sS'.thisIndex'
p1607
I13
sg15
(lp1608
S'k'
asg30
Vm
sg17
S'N'
sg14
I4
sg19
Nsg94
I13
sa(dp1609
g16
(lp1610
S'd'
asg18
S'N'
sS'.thisRepN'
p1611
I13
sg20
S'Y'
sg31
g32
sS'.thisTrialN'
p1612
I0
sS'.thisN'
p1613
I195
sS'.thisIndex'
p1614
I4
sg15
(lp1615
S'd'
asg30
Vm
sg17
S'Y'
sg14
I4
sg19
Nsg94
I4
sa(dp1616
g16
(lp1617
S'd'
asg18
S'N'
sS'.thisRepN'
p1618
I13
sg20
S'Y'
sg31
g32
sS'.thisTrialN'
p1619
I1
sS'.thisN'
p1620
I196
sS'.thisIndex'
p1621
I6
sg15
(lp1622
S'd'
asg30
Vm
sg17
S'Y'
sg14
I4
sg19
Nsg94
I6
sa(dp1623
g16
(lp1624
S'd'
asg18
S'N'
sS'.thisRepN'
p1625
I13
sg20
S'Y'
sg31
g32
sS'.thisTrialN'
p1626
I2
sS'.thisN'
p1627
I197
sS'.thisIndex'
p1628
I0
sg15
(lp1629
S'd'
asg30
Vm
sg17
S'Y'
sg14
I4
sg19
Nsg94
I0
sa(dp1630
g16
(lp1631
S'k'
asg18
S'N'
sS'.thisRepN'
p1632
I13
sg20
S'Y'
sg31
g32
sS'.thisTrialN'
p1633
I3
sS'.thisN'
p1634
I198
sS'.thisIndex'
p1635
I7
sg15
(lp1636
S'k'
asg30
Vm
sg17
S'Y'
sg14
I4
sg19
Nsg94
I7
sa(dp1637
g16
(lp1638
S'k'
asg18
S'N'
sg22
I42
sS'.thisN'
p1639
I199
sg20
S'Y'
sg31
g32
sS'.thisTrialN'
p1640
I4
sS'.thisRepN'
p1641
I13
sg21
I36
sS'.thisIndex'
p1642
I6
sg23
I25
sg15
(lp1643
S'k'
asg30
Vm
sg17
S'Y'
sg14
I4
sg19
Nsg94
I6
sa(dp1644
g16
(lp1645
S'd'
asg94
I0
sS'.thisRepN'
p1646
I13
sg30
Vm
sg31
g32
sS'.thisTrialN'
p1647
I5
sS'.thisN'
p1648
I200
sS'.thisIndex'
p1649
I0
sg15
(lp1650
S'k'
asg17
S'N'
sg14
I5
sa(dp1651
g16
(lp1652
S'k'
asg94
I5
sS'.thisRepN'
p1653
I13
sg30
Vm
sg31
g32
sS'.thisTrialN'
p1654
I6
sS'.thisN'
p1655
I201
sS'.thisIndex'
p1656
I5
sg15
(lp1657
S'k'
asg17
S'Y'
sg14
I5
sa(dp1658
g16
(lp1659
S'd'
asg18
S'N'
sS'.thisRepN'
p1660
I13
sg20
S'Y'
sg31
g32
sS'.thisTrialN'
p1661
I7
sS'.thisN'
p1662
I202
sS'.thisIndex'
p1663
I0
sg15
(lp1664
S'k'
asg30
Vm
sg17
S'N'
sg14
I5
sg19
Nsg94
I0
sa(dp1665
g16
(lp1666
S'd'
asg18
S'Y'
sS'.thisRepN'
p1667
I13
sg20
S'Y'
sg31
g32
sS'.thisTrialN'
p1668
I8
sS'.thisN'
p1669
I203
sS'.thisIndex'
p1670
I8
sg15
(lp1671
S'd'
asg30
Vm
sg17
S'Y'
sg14
I5
sg19
(lp1672
S'space'
p1673
asg94
I8
sa(dp1674
g16
(lp1675
S'd'
asg18
S'Y'
sS'.thisRepN'
p1676
I13
sg20
S'Y'
sg31
g32
sS'.thisTrialN'
p1677
I9
sS'.thisN'
p1678
I204
sS'.thisIndex'
p1679
I13
sg15
(lp1680
S'k'
asg30
Vm
sg17
S'N'
sg14
I5
sg19
(lp1681
S'space'
p1682
asg94
I13
sa(dp1683
g16
(lp1684
S'd'
asg18
S'N'
sS'.thisRepN'
p1685
I13
sg20
S'N'
sg31
g32
sS'.thisTrialN'
p1686
I10
sS'.thisN'
p1687
I205
sS'.thisIndex'
p1688
I13
sg15
(lp1689
S'd'
asg30
Vm
sg17
S'Y'
sg14
I5
sg19
(lp1690
S'space'
p1691
asg94
I13
sa(dp1692
g16
(lp1693
S'd'
asg18
S'Y'
sS'.thisRepN'
p1694
I13
sg20
S'Y'
sg31
g32
sS'.thisTrialN'
p1695
I11
sS'.thisN'
p1696
I206
sS'.thisIndex'
p1697
I13
sg15
(lp1698
S'k'
asg30
Vm
sg17
S'N'
sg14
I5
sg19
(lp1699
S'space'
p1700
asg94
I13
sa(dp1701
g16
(lp1702
S'k'
asg18
S'Y'
sS'.thisRepN'
p1703
I13
sg20
S'Y'
sg31
g32
sS'.thisTrialN'
p1704
I12
sS'.thisN'
p1705
I207
sS'.thisIndex'
p1706
I12
sg15
(lp1707
S'd'
asg30
Vm
sg17
S'N'
sg14
I5
sg19
(lp1708
S'space'
p1709
asg94
I12
sa(dp1710
g16
(lp1711
S'd'
asg18
S'Y'
sS'.thisRepN'
p1712
I13
sg20
S'Y'
sg31
g32
sS'.thisTrialN'
p1713
I13
sS'.thisN'
p1714
I208
sS'.thisIndex'
p1715
I7
sg15
(lp1716
S'k'
asg30
Vm
sg17
S'N'
sg14
I5
sg19
(lp1717
S'space'
p1718
asg94
I7
sa(dp1719
g16
(lp1720
S'k'
asg18
S'Y'
sS'.thisRepN'
p1721
I13
sg20
S'Y'
sg31
g32
sS'.thisTrialN'
p1722
I14
sS'.thisN'
p1723
I209
sS'.thisIndex'
p1724
I2
sg15
(lp1725
S'k'
asg30
Vm
sg17
S'Y'
sg14
I5
sg19
(lp1726
S'space'
p1727
asg94
I2
sa(dp1728
g16
(lp1729
S'd'
asg18
S'Y'
sS'.thisRepN'
p1730
I14
sg20
S'Y'
sg31
g32
sS'.thisTrialN'
p1731
I0
sS'.thisN'
p1732
I210
sS'.thisIndex'
p1733
I1
sg15
(lp1734
S'k'
asg30
Vm
sg17
S'N'
sg14
I5
sg19
(lp1735
S'space'
p1736
asg94
I1
sa(dp1737
g16
(lp1738
S'k'
asg18
S'N'
sS'.thisRepN'
p1739
I14
sg20
S'Y'
sg31
g32
sS'.thisTrialN'
p1740
I1
sS'.thisN'
p1741
I211
sS'.thisIndex'
p1742
I4
sg15
(lp1743
S'k'
asg30
Vm
sg17
S'Y'
sg14
I5
sg19
Nsg94
I4
sa(dp1744
g16
(lp1745
S'k'
asg18
S'Y'
sS'.thisRepN'
p1746
I14
sg20
S'N'
sg31
g32
sS'.thisTrialN'
p1747
I2
sS'.thisN'
p1748
I212
sS'.thisIndex'
p1749
I4
sg15
(lp1750
S'k'
asg30
Vm
sg17
S'Y'
sg14
I5
sg19
Nsg94
I4
sa(dp1751
g16
(lp1752
S'd'
asg18
S'N'
sS'.thisRepN'
p1753
I14
sg20
S'N'
sg31
g32
sS'.thisTrialN'
p1754
I3
sS'.thisN'
p1755
I213
sS'.thisIndex'
p1756
I10
sg15
(lp1757
S'd'
asg30
Vm
sg17
S'Y'
sg14
I5
sg19
(lp1758
S'space'
p1759
asg94
I10
sa(dp1760
g16
(lp1761
S'k'
asg18
S'N'
sS'.thisRepN'
p1762
I14
sg20
S'Y'
sg31
g32
sS'.thisTrialN'
p1763
I4
sS'.thisN'
p1764
I214
sS'.thisIndex'
p1765
I3
sg15
(lp1766
S'k'
asg30
Vm
sg17
S'Y'
sg14
I5
sg19
Nsg94
I3
sa(dp1767
g16
(lp1768
S'd'
asg18
S'Y'
sS'.thisRepN'
p1769
I14
sg20
S'Y'
sg31
g32
sS'.thisTrialN'
p1770
I5
sS'.thisN'
p1771
I215
sS'.thisIndex'
p1772
I10
sg15
(lp1773
S'd'
asg30
Vm
sg17
S'Y'
sg14
I5
sg19
(lp1774
S'space'
p1775
asg94
I10
sa(dp1776
g16
(lp1777
S'd'
asg18
S'N'
sS'.thisRepN'
p1778
I14
sg20
S'Y'
sg31
g32
sS'.thisTrialN'
p1779
I6
sS'.thisN'
p1780
I216
sS'.thisIndex'
p1781
I10
sg15
(lp1782
S'd'
asg30
Vm
sg17
S'Y'
sg14
I5
sg19
Nsg94
I10
sa(dp1783
g16
(lp1784
S'd'
asg18
S'N'
sS'.thisRepN'
p1785
I14
sg20
S'Y'
sg31
g32
sS'.thisTrialN'
p1786
I7
sS'.thisN'
p1787
I217
sS'.thisIndex'
p1788
I9
sg15
(lp1789
S'd'
asg30
Vm
sg17
S'Y'
sg14
I5
sg19
Nsg94
I9
sa(dp1790
g16
(lp1791
S'k'
asg18
S'N'
sS'.thisRepN'
p1792
I14
sg20
S'N'
sg31
g32
sS'.thisTrialN'
p1793
I8
sS'.thisN'
p1794
I218
sS'.thisIndex'
p1795
I3
sg15
(lp1796
S'k'
asg30
Vm
sg17
S'Y'
sg14
I5
sg19
(lp1797
S'space'
p1798
asg94
I3
sa(dp1799
g16
(lp1800
S'k'
asg18
S'Y'
sS'.thisRepN'
p1801
I14
sg20
S'Y'
sg31
g32
sS'.thisTrialN'
p1802
I9
sS'.thisN'
p1803
I219
sS'.thisIndex'
p1804
I4
sg15
(lp1805
S'k'
asg30
Vm
sg17
S'Y'
sg14
I5
sg19
(lp1806
S'space'
p1807
asg94
I4
sa(dp1808
g16
(lp1809
S'd'
asg18
S'N'
sS'.thisRepN'
p1810
I14
sg20
S'Y'
sg31
g32
sS'.thisTrialN'
p1811
I10
sS'.thisN'
p1812
I220
sS'.thisIndex'
p1813
I2
sg15
(lp1814
S'd'
asg30
Vm
sg17
S'Y'
sg14
I5
sg19
Nsg94
I2
sa(dp1815
g16
(lp1816
S'k'
asg18
S'N'
sS'.thisRepN'
p1817
I14
sg20
S'Y'
sg31
g32
sS'.thisTrialN'
p1818
I11
sS'.thisN'
p1819
I221
sS'.thisIndex'
p1820
I5
sg15
(lp1821
S'k'
asg30
Vm
sg17
S'Y'
sg14
I5
sg19
Nsg94
I5
sa(dp1822
g16
(lp1823
S'd'
asg18
S'N'
sS'.thisRepN'
p1824
I14
sg20
S'N'
sg31
g32
sS'.thisTrialN'
p1825
I12
sS'.thisN'
p1826
I222
sS'.thisIndex'
p1827
I2
sg15
(lp1828
S'd'
asg30
Vm
sg17
S'Y'
sg14
I5
sg19
(lp1829
S'space'
p1830
asg94
I2
sa(dp1831
g16
(lp1832
S'd'
asg18
S'Y'
sS'.thisRepN'
p1833
I14
sg20
S'Y'
sg31
g32
sS'.thisTrialN'
p1834
I13
sS'.thisN'
p1835
I223
sS'.thisIndex'
p1836
I8
sg15
(lp1837
S'd'
asg30
Vm
sg17
S'Y'
sg14
I5
sg19
(lp1838
S'space'
p1839
asg94
I8
sa(dp1840
g16
(lp1841
S'd'
asg18
S'N'
sS'.thisRepN'
p1842
I14
sg20
S'Y'
sg31
g32
sS'.thisTrialN'
p1843
I14
sS'.thisN'
p1844
I224
sS'.thisIndex'
p1845
I0
sg15
(lp1846
S'd'
asg30
Vm
sg17
S'Y'
sg14
I5
sg19
Nsg94
I0
sa(dp1847
g16
(lp1848
S'k'
asg18
S'Y'
sS'.thisRepN'
p1849
I15
sg20
S'N'
sg31
g32
sS'.thisTrialN'
p1850
I0
sS'.thisN'
p1851
I225
sS'.thisIndex'
p1852
I10
sg15
(lp1853
S'k'
asg30
Vm
sg17
S'Y'
sg14
I5
sg19
Nsg94
I10
sa(dp1854
g16
(lp1855
S'k'
asg18
S'N'
sS'.thisRepN'
p1856
I15
sg20
S'Y'
sg31
g32
sS'.thisTrialN'
p1857
I1
sS'.thisN'
p1858
I226
sS'.thisIndex'
p1859
I13
sg15
(lp1860
S'k'
asg30
Vm
sg17
S'Y'
sg14
I5
sg19
Nsg94
I13
sa(dp1861
g16
(lp1862
S'k'
asg18
S'N'
sS'.thisRepN'
p1863
I15
sg20
S'Y'
sg31
g32
sS'.thisTrialN'
p1864
I2
sS'.thisN'
p1865
I227
sS'.thisIndex'
p1866
I14
sg15
(lp1867
S'k'
asg30
Vm
sg17
S'Y'
sg14
I5
sg19
Nsg94
I14
sa(dp1868
g16
(lp1869
S'd'
asg18
S'N'
sS'.thisRepN'
p1870
I15
sg20
S'Y'
sg31
g32
sS'.thisTrialN'
p1871
I3
sS'.thisN'
p1872
I228
sS'.thisIndex'
p1873
I4
sg15
(lp1874
S'd'
asg30
Vm
sg17
S'Y'
sg14
I5
sg19
Nsg94
I4
sa(dp1875
g16
(lp1876
S'k'
asg18
S'N'
sS'.thisRepN'
p1877
I15
sg20
S'N'
sg31
g32
sS'.thisTrialN'
p1878
I4
sS'.thisN'
p1879
I229
sS'.thisIndex'
p1880
I9
sg15
(lp1881
S'k'
asg30
Vm
sg17
S'Y'
sg14
I5
sg19
(lp1882
S'space'
p1883
asg94
I9
sa(dp1884
g16
(lp1885
S'd'
asg18
S'N'
sS'.thisRepN'
p1886
I15
sg20
S'Y'
sg31
g32
sS'.thisTrialN'
p1887
I5
sS'.thisN'
p1888
I230
sS'.thisIndex'
p1889
I9
sg15
(lp1890
S'd'
asg30
Vm
sg17
S'Y'
sg14
I5
sg19
Nsg94
I9
sa(dp1891
g16
(lp1892
S'k'
asg18
S'N'
sS'.thisRepN'
p1893
I15
sg20
S'Y'
sg31
g32
sS'.thisTrialN'
p1894
I6
sS'.thisN'
p1895
I231
sS'.thisIndex'
p1896
I7
sg15
(lp1897
S'k'
asg30
Vm
sg17
S'Y'
sg14
I5
sg19
Nsg94
I7
sa(dp1898
g16
(lp1899
S'k'
asg18
S'Y'
sS'.thisRepN'
p1900
I15
sg20
S'Y'
sg31
g32
sS'.thisTrialN'
p1901
I7
sS'.thisN'
p1902
I232
sS'.thisIndex'
p1903
I3
sg15
(lp1904
S'k'
asg30
Vm
sg17
S'Y'
sg14
I5
sg19
(lp1905
S'space'
p1906
asg94
I3
sa(dp1907
g16
(lp1908
S'k'
asg18
S'Y'
sS'.thisRepN'
p1909
I15
sg20
S'Y'
sg31
g32
sS'.thisTrialN'
p1910
I8
sS'.thisN'
p1911
I233
sS'.thisIndex'
p1912
I4
sg15
(lp1913
S'k'
asg30
Vm
sg17
S'Y'
sg14
I5
sg19
(lp1914
S'space'
p1915
asg94
I4
sa(dp1916
g16
(lp1917
S'd'
asg18
S'Y'
sS'.thisRepN'
p1918
I15
sg20
S'Y'
sg31
g32
sS'.thisTrialN'
p1919
I9
sS'.thisN'
p1920
I234
sS'.thisIndex'
p1921
I12
sg15
(lp1922
S'd'
asg30
Vm
sg17
S'Y'
sg14
I5
sg19
(lp1923
S'space'
p1924
asg94
I12
sa(dp1925
g16
(lp1926
S'k'
asg18
S'Y'
sS'.thisRepN'
p1927
I15
sg20
S'N'
sg31
g32
sS'.thisTrialN'
p1928
I10
sS'.thisN'
p1929
I235
sS'.thisIndex'
p1930
I7
sg15
(lp1931
S'k'
asg30
Vm
sg17
S'Y'
sg14
I5
sg19
Nsg94
I7
sa(dp1932
g16
(lp1933
S'd'
asg18
S'Y'
sS'.thisRepN'
p1934
I15
sg20
S'Y'
sg31
g32
sS'.thisTrialN'
p1935
I11
sS'.thisN'
p1936
I236
sS'.thisIndex'
p1937
I2
sg15
(lp1938
S'd'
asg30
Vm
sg17
S'Y'
sg14
I5
sg19
(lp1939
S'space'
p1940
asg94
I2
sa(dp1941
g16
(lp1942
S'k'
asg18
S'Y'
sS'.thisRepN'
p1943
I15
sg20
S'Y'
sg31
g32
sS'.thisTrialN'
p1944
I12
sS'.thisN'
p1945
I237
sS'.thisIndex'
p1946
I11
sg15
(lp1947
S'k'
asg30
Vm
sg17
S'Y'
sg14
I5
sg19
(lp1948
S'space'
p1949
asg94
I11
sa(dp1950
g16
(lp1951
S'k'
asg18
S'Y'
sS'.thisRepN'
p1952
I15
sg20
S'Y'
sg31
g32
sS'.thisTrialN'
p1953
I13
sS'.thisN'
p1954
I238
sS'.thisIndex'
p1955
I3
sg15
(lp1956
S'k'
asg30
Vm
sg17
S'Y'
sg14
I5
sg19
(lp1957
S'space'
p1958
asg94
I3
sa(dp1959
g16
(lp1960
S'd'
asg18
S'Y'
sS'.thisRepN'
p1961
I15
sg20
S'Y'
sg31
g32
sS'.thisTrialN'
p1962
I14
sS'.thisN'
p1963
I239
sS'.thisIndex'
p1964
I9
sg15
(lp1965
S'd'
asg30
Vm
sg17
S'Y'
sg14
I5
sg19
(lp1966
S'space'
p1967
asg94
I9
sa(dp1968
g16
(lp1969
S'k'
asg18
S'Y'
sS'.thisRepN'
p1970
I16
sg20
S'N'
sg31
g32
sS'.thisTrialN'
p1971
I0
sS'.thisN'
p1972
I240
sS'.thisIndex'
p1973
I9
sg15
(lp1974
S'k'
asg30
Vm
sg17
S'Y'
sg14
I5
sg19
(lp1975
S'k'
asg94
I9
sa(dp1976
g16
(lp1977
S'd'
asg18
S'Y'
sS'.thisRepN'
p1978
I16
sg20
S'Y'
sg31
g32
sS'.thisTrialN'
p1979
I1
sS'.thisN'
p1980
I241
sS'.thisIndex'
p1981
I4
sg15
(lp1982
S'k'
asg30
Vm
sg17
S'N'
sg14
I5
sg19
(lp1983
S'space'
p1984
asg94
I4
sa(dp1985
g16
(lp1986
S'd'
asg18
S'Y'
sS'.thisRepN'
p1987
I16
sg20
S'Y'
sg31
g32
sS'.thisTrialN'
p1988
I2
sS'.thisN'
p1989
I242
sS'.thisIndex'
p1990
I6
sg15
(lp1991
S'd'
asg30
Vm
sg17
S'Y'
sg14
I5
sg19
(lp1992
S'space'
p1993
asg94
I6
sa(dp1994
g16
(lp1995
S'k'
asg18
S'Y'
sS'.thisRepN'
p1996
I16
sg20
S'Y'
sg31
g32
sS'.thisTrialN'
p1997
I3
sS'.thisN'
p1998
I243
sS'.thisIndex'
p1999
I13
sg15
(lp2000
S'k'
asg30
Vm
sg17
S'Y'
sg14
I5
sg19
(lp2001
S'space'
p2002
asg94
I13
sa(dp2003
g16
(lp2004
S'k'
asg18
S'Y'
sS'.thisRepN'
p2005
I16
sg20
S'Y'
sg31
g32
sS'.thisTrialN'
p2006
I4
sS'.thisN'
p2007
I244
sS'.thisIndex'
p2008
I0
sg15
(lp2009
S'k'
asg30
Vm
sg17
S'Y'
sg14
I5
sg19
(lp2010
S'space'
p2011
asg94
I0
sa(dp2012
g16
(lp2013
S'k'
asg18
S'N'
sS'.thisRepN'
p2014
I16
sg20
S'Y'
sg31
g32
sS'.thisTrialN'
p2015
I5
sS'.thisN'
p2016
I245
sS'.thisIndex'
p2017
I5
sg15
(lp2018
S'd'
asg30
Vm
sg17
S'N'
sg14
I5
sg19
Nsg94
I5
sa(dp2019
g16
(lp2020
S'k'
asg18
S'N'
sS'.thisRepN'
p2021
I16
sg20
S'Y'
sg31
g32
sS'.thisTrialN'
p2022
I6
sS'.thisN'
p2023
I246
sS'.thisIndex'
p2024
I1
sg15
(lp2025
S'k'
asg30
Vm
sg17
S'Y'
sg14
I5
sg19
Nsg94
I1
sa(dp2026
g16
(lp2027
S'd'
asg18
S'N'
sS'.thisRepN'
p2028
I16
sg20
S'Y'
sg31
g32
sS'.thisTrialN'
p2029
I7
sS'.thisN'
p2030
I247
sS'.thisIndex'
p2031
I13
sg15
(lp2032
S'd'
asg30
Vm
sg17
S'Y'
sg14
I5
sg19
Nsg94
I13
sa(dp2033
g16
(lp2034
S'd'
asg18
S'N'
sS'.thisRepN'
p2035
I16
sg20
S'Y'
sg31
g32
sS'.thisTrialN'
p2036
I8
sS'.thisN'
p2037
I248
sS'.thisIndex'
p2038
I11
sg15
(lp2039
S'd'
asg30
Vm
sg17
S'Y'
sg14
I5
sg19
Nsg94
I11
sa(dp2040
g16
(lp2041
S'k'
asg18
S'N'
sg22
I39
sS'.thisN'
p2042
I249
sg20
S'Y'
sg31
g32
sS'.thisTrialN'
p2043
I9
sS'.thisRepN'
p2044
I16
sg21
I40
sS'.thisIndex'
p2045
I9
sg23
I25
sg15
(lp2046
S'd'
asg30
Vm
sg17
S'N'
sg14
I5
sg19
Nsg94
I9
sa(dp2047
g16
(lp2048
S'k'
asg94
I6
sS'.thisRepN'
p2049
I16
sg30
Vm
sg31
g32
sS'.thisTrialN'
p2050
I10
sS'.thisN'
p2051
I250
sS'.thisIndex'
p2052
I6
sg15
(lp2053
S'k'
asg17
S'Y'
sg14
I6
sa(dp2054
g16
(lp2055
S'd'
asg94
I12
sS'.thisRepN'
p2056
I16
sg30
Vm
sg31
g32
sS'.thisTrialN'
p2057
I11
sS'.thisN'
p2058
I251
sS'.thisIndex'
p2059
I12
sg15
(lp2060
S'd'
asg17
S'Y'
sg14
I6
sa(dp2061
g16
(lp2062
S'd'
asg18
S'N'
sS'.thisRepN'
p2063
I16
sg20
S'Y'
sg31
g32
sS'.thisTrialN'
p2064
I12
sS'.thisN'
p2065
I252
sS'.thisIndex'
p2066
I13
sg15
(lp2067
S'd'
asg30
Vm
sg17
S'Y'
sg14
I6
sg19
Nsg94
I13
sa(dp2068
g16
(lp2069
S'k'
asg18
S'N'
sS'.thisRepN'
p2070
I16
sg20
S'Y'
sg31
g32
sS'.thisTrialN'
p2071
I13
sS'.thisN'
p2072
I253
sS'.thisIndex'
p2073
I0
sg15
(lp2074
S'k'
asg30
Vm
sg17
S'Y'
sg14
I6
sg19
Nsg94
I0
sa(dp2075
g16
(lp2076
S'k'
asg18
S'N'
sS'.thisRepN'
p2077
I16
sg20
S'Y'
sg31
g32
sS'.thisTrialN'
p2078
I14
sS'.thisN'
p2079
I254
sS'.thisIndex'
p2080
I1
sg15
(lp2081
S'k'
asg30
Vm
sg17
S'Y'
sg14
I6
sg19
Nsg94
I1
sa(dp2082
g16
(lp2083
S'd'
asg18
S'N'
sS'.thisRepN'
p2084
I17
sg20
S'Y'
sg31
g32
sS'.thisTrialN'
p2085
I0
sS'.thisN'
p2086
I255
sS'.thisIndex'
p2087
I14
sg15
(lp2088
S'd'
asg30
Vm
sg17
S'Y'
sg14
I6
sg19
Nsg94
I14
sa(dp2089
g16
(lp2090
S'd'
asg18
S'N'
sS'.thisRepN'
p2091
I17
sg20
S'Y'
sg31
g32
sS'.thisTrialN'
p2092
I1
sS'.thisN'
p2093
I256
sS'.thisIndex'
p2094
I4
sg15
(lp2095
S'd'
asg30
Vm
sg17
S'Y'
sg14
I6
sg19
Nsg94
I4
sa(dp2096
g16
(lp2097
S'd'
asg18
S'N'
sS'.thisRepN'
p2098
I17
sg20
S'Y'
sg31
g32
sS'.thisTrialN'
p2099
I2
sS'.thisN'
p2100
I257
sS'.thisIndex'
p2101
I13
sg15
(lp2102
S'd'
asg30
Vm
sg17
S'Y'
sg14
I6
sg19
Nsg94
I13
sa(dp2103
g16
(lp2104
S'k'
asg18
S'N'
sS'.thisRepN'
p2105
I17
sg20
S'N'
sg31
g32
sS'.thisTrialN'
p2106
I3
sS'.thisN'
p2107
I258
sS'.thisIndex'
p2108
I1
sg15
(lp2109
S'd'
asg30
Vm
sg17
S'N'
sg14
I6
sg19
(lp2110
S'space'
p2111
asg94
I1
sa(dp2112
g16
(lp2113
S'k'
asg18
S'N'
sS'.thisRepN'
p2114
I17
sg20
S'Y'
sg31
g32
sS'.thisTrialN'
p2115
I4
sS'.thisN'
p2116
I259
sS'.thisIndex'
p2117
I5
sg15
(lp2118
S'k'
asg30
Vm
sg17
S'Y'
sg14
I6
sg19
Nsg94
I5
sa(dp2119
g16
(lp2120
S'd'
asg18
S'N'
sS'.thisRepN'
p2121
I17
sg20
S'Y'
sg31
g32
sS'.thisTrialN'
p2122
I5
sS'.thisN'
p2123
I260
sS'.thisIndex'
p2124
I5
sg15
(lp2125
S'd'
asg30
Vm
sg17
S'Y'
sg14
I6
sg19
Nsg94
I5
sa(dp2126
g16
(lp2127
S'k'
asg18
S'N'
sS'.thisRepN'
p2128
I17
sg20
S'Y'
sg31
g32
sS'.thisTrialN'
p2129
I6
sS'.thisN'
p2130
I261
sS'.thisIndex'
p2131
I10
sg15
(lp2132
S'k'
asg30
Vm
sg17
S'Y'
sg14
I6
sg19
Nsg94
I10
sa(dp2133
g16
(lp2134
S'k'
asg18
S'N'
sS'.thisRepN'
p2135
I17
sg20
S'N'
sg31
g32
sS'.thisTrialN'
p2136
I7
sS'.thisN'
p2137
I262
sS'.thisIndex'
p2138
I5
sg15
(lp2139
S'k'
asg30
Vm
sg17
S'Y'
sg14
I6
sg19
(lp2140
S'space'
p2141
asg94
I5
sa(dp2142
g16
(lp2143
S'd'
asg18
S'N'
sS'.thisRepN'
p2144
I17
sg20
S'Y'
sg31
g32
sS'.thisTrialN'
p2145
I8
sS'.thisN'
p2146
I263
sS'.thisIndex'
p2147
I7
sg15
(lp2148
S'd'
asg30
Vm
sg17
S'Y'
sg14
I6
sg19
Nsg94
I7
sa(dp2149
g16
(lp2150
S'd'
asg18
S'Y'
sS'.thisRepN'
p2151
I17
sg20
S'Y'
sg31
g32
sS'.thisTrialN'
p2152
I9
sS'.thisN'
p2153
I264
sS'.thisIndex'
p2154
I1
sg15
(lp2155
S'k'
asg30
Vm
sg17
S'N'
sg14
I6
sg19
(lp2156
S'space'
p2157
asg94
I1
sa(dp2158
g16
(lp2159
S'k'
asg18
S'N'
sS'.thisRepN'
p2160
I17
sg20
S'Y'
sg31
g32
sS'.thisTrialN'
p2161
I10
sS'.thisN'
p2162
I265
sS'.thisIndex'
p2163
I14
sg15
(lp2164
S'd'
asg30
Vm
sg17
S'N'
sg14
I6
sg19
Nsg94
I14
sa(dp2165
g16
(lp2166
S'k'
asg18
S'N'
sS'.thisRepN'
p2167
I17
sg20
S'N'
sg31
g32
sS'.thisTrialN'
p2168
I11
sS'.thisN'
p2169
I266
sS'.thisIndex'
p2170
I14
sg15
(lp2171
S'k'
asg30
Vm
sg17
S'Y'
sg14
I6
sg19
(lp2172
S'k'
asg94
I14
sa(dp2173
g16
(lp2174
S'd'
asg18
S'N'
sS'.thisRepN'
p2175
I17
sg20
S'Y'
sg31
g32
sS'.thisTrialN'
p2176
I12
sS'.thisN'
p2177
I267
sS'.thisIndex'
p2178
I5
sg15
(lp2179
S'd'
asg30
Vm
sg17
S'Y'
sg14
I6
sg19
Nsg94
I5
sa(dp2180
g16
(lp2181
S'd'
asg18
S'Y'
sS'.thisRepN'
p2182
I17
sg20
S'N'
sg31
g32
sS'.thisTrialN'
p2183
I13
sS'.thisN'
p2184
I268
sS'.thisIndex'
p2185
I4
sg15
(lp2186
S'd'
asg30
Vm
sg17
S'Y'
sg14
I6
sg19
Nsg94
I4
sa(dp2187
g16
(lp2188
S'k'
asg18
S'Y'
sS'.thisRepN'
p2189
I17
sg20
S'Y'
sg31
g32
sS'.thisTrialN'
p2190
I14
sS'.thisN'
p2191
I269
sS'.thisIndex'
p2192
I13
sg15
(lp2193
S'k'
asg30
Vm
sg17
S'Y'
sg14
I6
sg19
(lp2194
S'space'
p2195
asg94
I13
sa(dp2196
g16
(lp2197
S'k'
asg18
S'Y'
sS'.thisRepN'
p2198
I18
sg20
S'Y'
sg31
g32
sS'.thisTrialN'
p2199
I0
sS'.thisN'
p2200
I270
sS'.thisIndex'
p2201
I14
sg15
(lp2202
S'd'
asg30
Vm
sg17
S'N'
sg14
I6
sg19
(lp2203
S'space'
p2204
asg94
I14
sa(dp2205
g16
(lp2206
S'd'
asg18
S'N'
sS'.thisRepN'
p2207
I18
sg20
S'Y'
sg31
g32
sS'.thisTrialN'
p2208
I1
sS'.thisN'
p2209
I271
sS'.thisIndex'
p2210
I5
sg15
(lp2211
S'd'
asg30
Vm
sg17
S'Y'
sg14
I6
sg19
Nsg94
I5
sa(dp2212
g16
(lp2213
S'd'
asg18
S'Y'
sS'.thisRepN'
p2214
I18
sg20
S'Y'
sg31
g32
sS'.thisTrialN'
p2215
I2
sS'.thisN'
p2216
I272
sS'.thisIndex'
p2217
I2
sg15
(lp2218
S'd'
asg30
Vm
sg17
S'Y'
sg14
I6
sg19
(lp2219
S'space'
p2220
asg94
I2
sa(dp2221
g16
(lp2222
S'k'
asg18
S'Y'
sS'.thisRepN'
p2223
I18
sg20
S'Y'
sg31
g32
sS'.thisTrialN'
p2224
I3
sS'.thisN'
p2225
I273
sS'.thisIndex'
p2226
I11
sg15
(lp2227
S'k'
asg30
Vm
sg17
S'Y'
sg14
I6
sg19
(lp2228
S'space'
p2229
asg94
I11
sa(dp2230
g16
(lp2231
S'k'
asg18
S'N'
sS'.thisRepN'
p2232
I18
sg20
S'Y'
sg31
g32
sS'.thisTrialN'
p2233
I4
sS'.thisN'
p2234
I274
sS'.thisIndex'
p2235
I4
sg15
(lp2236
S'k'
asg30
Vm
sg17
S'Y'
sg14
I6
sg19
Nsg94
I4
sa(dp2237
g16
(lp2238
S'd'
asg18
S'Y'
sS'.thisRepN'
p2239
I18
sg20
S'Y'
sg31
g32
sS'.thisTrialN'
p2240
I5
sS'.thisN'
p2241
I275
sS'.thisIndex'
p2242
I1
sg15
(lp2243
S'd'
asg30
Vm
sg17
S'Y'
sg14
I6
sg19
(lp2244
S'space'
p2245
asg94
I1
sa(dp2246
g16
(lp2247
S'd'
asg18
S'Y'
sS'.thisRepN'
p2248
I18
sg20
S'N'
sg31
g32
sS'.thisTrialN'
p2249
I6
sS'.thisN'
p2250
I276
sS'.thisIndex'
p2251
I1
sg15
(lp2252
S'k'
asg30
Vm
sg17
S'N'
sg14
I6
sg19
Nsg94
I1
sa(dp2253
g16
(lp2254
S'k'
asg18
S'N'
sS'.thisRepN'
p2255
I18
sg20
S'Y'
sg31
g32
sS'.thisTrialN'
p2256
I7
sS'.thisN'
p2257
I277
sS'.thisIndex'
p2258
I3
sg15
(lp2259
S'k'
asg30
Vm
sg17
S'Y'
sg14
I6
sg19
Nsg94
I3
sa(dp2260
g16
(lp2261
S'k'
asg18
S'N'
sS'.thisRepN'
p2262
I18
sg20
S'N'
sg31
g32
sS'.thisTrialN'
p2263
I8
sS'.thisN'
p2264
I278
sS'.thisIndex'
p2265
I5
sg15
(lp2266
S'k'
asg30
Vm
sg17
S'Y'
sg14
I6
sg19
(lp2267
S'space'
p2268
asg94
I5
sa(dp2269
g16
(lp2270
S'k'
asg18
S'Y'
sS'.thisRepN'
p2271
I18
sg20
S'Y'
sg31
g32
sS'.thisTrialN'
p2272
I9
sS'.thisN'
p2273
I279
sS'.thisIndex'
p2274
I6
sg15
(lp2275
S'k'
asg30
Vm
sg17
S'Y'
sg14
I6
sg19
(lp2276
S'space'
p2277
asg94
I6
sa(dp2278
g16
(lp2279
S'k'
asg18
S'N'
sS'.thisRepN'
p2280
I18
sg20
S'Y'
sg31
g32
sS'.thisTrialN'
p2281
I10
sS'.thisN'
p2282
I280
sS'.thisIndex'
p2283
I11
sg15
(lp2284
S'd'
asg30
Vm
sg17
S'N'
sg14
I6
sg19
Nsg94
I11
sa(dp2285
g16
(lp2286
S'd'
asg18
S'Y'
sS'.thisRepN'
p2287
I18
sg20
S'Y'
sg31
g32
sS'.thisTrialN'
p2288
I11
sS'.thisN'
p2289
I281
sS'.thisIndex'
p2290
I10
sg15
(lp2291
S'd'
asg30
Vm
sg17
S'Y'
sg14
I6
sg19
(lp2292
S'space'
p2293
asg94
I10
sa(dp2294
g16
(lp2295
S'k'
asg18
S'N'
sS'.thisRepN'
p2296
I18
sg20
S'Y'
sg31
g32
sS'.thisTrialN'
p2297
I12
sS'.thisN'
p2298
I282
sS'.thisIndex'
p2299
I11
sg15
(lp2300
S'd'
asg30
Vm
sg17
S'N'
sg14
I6
sg19
Nsg94
I11
sa(dp2301
g16
(lp2302
S'd'
asg18
S'N'
sS'.thisRepN'
p2303
I18
sg20
S'Y'
sg31
g32
sS'.thisTrialN'
p2304
I13
sS'.thisN'
p2305
I283
sS'.thisIndex'
p2306
I12
sg15
(lp2307
S'd'
asg30
Vm
sg17
S'Y'
sg14
I6
sg19
Nsg94
I12
sa(dp2308
g16
(lp2309
S'k'
asg18
S'N'
sS'.thisRepN'
p2310
I18
sg20
S'N'
sg31
g32
sS'.thisTrialN'
p2311
I14
sS'.thisN'
p2312
I284
sS'.thisIndex'
p2313
I3
sg15
(lp2314
S'k'
asg30
Vm
sg17
S'Y'
sg14
I6
sg19
(lp2315
S'space'
p2316
asg94
I3
sa(dp2317
g16
(lp2318
S'k'
asg18
S'Y'
sS'.thisRepN'
p2319
I19
sg20
S'Y'
sg31
g32
sS'.thisTrialN'
p2320
I0
sS'.thisN'
p2321
I285
sS'.thisIndex'
p2322
I3
sg15
(lp2323
S'k'
asg30
Vm
sg17
S'Y'
sg14
I6
sg19
(lp2324
S'space'
p2325
asg94
I3
sa(dp2326
g16
(lp2327
S'd'
asg18
S'Y'
sS'.thisRepN'
p2328
I19
sg20
S'Y'
sg31
g32
sS'.thisTrialN'
p2329
I1
sS'.thisN'
p2330
I286
sS'.thisIndex'
p2331
I2
sg15
(lp2332
S'k'
asg30
Vm
sg17
S'N'
sg14
I6
sg19
(lp2333
S'space'
p2334
asg94
I2
sa(dp2335
g16
(lp2336
S'k'
asg18
S'N'
sS'.thisRepN'
p2337
I19
sg20
S'Y'
sg31
g32
sS'.thisTrialN'
p2338
I2
sS'.thisN'
p2339
I287
sS'.thisIndex'
p2340
I8
sg15
(lp2341
S'k'
asg30
Vm
sg17
S'Y'
sg14
I6
sg19
Nsg94
I8
sa(dp2342
g16
(lp2343
S'k'
asg18
S'N'
sS'.thisRepN'
p2344
I19
sg20
S'Y'
sg31
g32
sS'.thisTrialN'
p2345
I3
sS'.thisN'
p2346
I288
sS'.thisIndex'
p2347
I3
sg15
(lp2348
S'k'
asg30
Vm
sg17
S'Y'
sg14
I6
sg19
Nsg94
I3
sa(dp2349
g16
(lp2350
S'd'
asg18
S'N'
sS'.thisRepN'
p2351
I19
sg20
S'N'
sg31
g32
sS'.thisTrialN'
p2352
I4
sS'.thisN'
p2353
I289
sS'.thisIndex'
p2354
I13
sg15
(lp2355
S'd'
asg30
Vm
sg17
S'Y'
sg14
I6
sg19
(lp2356
S'space'
p2357
asg94
I13
sa(dp2358
g16
(lp2359
S'd'
asg18
S'N'
sS'.thisRepN'
p2360
I19
sg20
S'Y'
sg31
g32
sS'.thisTrialN'
p2361
I5
sS'.thisN'
p2362
I290
sS'.thisIndex'
p2363
I14
sg15
(lp2364
S'd'
asg30
Vm
sg17
S'Y'
sg14
I6
sg19
Nsg94
I14
sa(dp2365
g16
(lp2366
S'd'
asg18
S'N'
sS'.thisRepN'
p2367
I19
sg20
S'Y'
sg31
g32
sS'.thisTrialN'
p2368
I6
sS'.thisN'
p2369
I291
sS'.thisIndex'
p2370
I3
sg15
(lp2371
S'k'
asg30
Vm
sg17
S'N'
sg14
I6
sg19
Nsg94
I3
sa(dp2372
g16
(lp2373
S'd'
asg18
S'N'
sS'.thisRepN'
p2374
I19
sg20
S'Y'
sg31
g32
sS'.thisTrialN'
p2375
I7
sS'.thisN'
p2376
I292
sS'.thisIndex'
p2377
I2
sg15
(lp2378
S'd'
asg30
Vm
sg17
S'Y'
sg14
I6
sg19
Nsg94
I2
sa(dp2379
g16
(lp2380
S'd'
asg18
S'Y'
sS'.thisRepN'
p2381
I19
sg20
S'Y'
sg31
g32
sS'.thisTrialN'
p2382
I8
sS'.thisN'
p2383
I293
sS'.thisIndex'
p2384
I8
sg15
(lp2385
S'd'
asg30
Vm
sg17
S'Y'
sg14
I6
sg19
(lp2386
S'space'
p2387
asg94
I8
sa(dp2388
g16
(lp2389
S'd'
asg18
S'Y'
sS'.thisRepN'
p2390
I19
sg20
S'Y'
sg31
g32
sS'.thisTrialN'
p2391
I9
sS'.thisN'
p2392
I294
sS'.thisIndex'
p2393
I0
sg15
(lp2394
S'd'
asg30
Vm
sg17
S'Y'
sg14
I6
sg19
(lp2395
S'space'
p2396
asg94
I0
sa(dp2397
g16
(lp2398
S'k'
asg18
S'Y'
sS'.thisRepN'
p2399
I19
sg20
S'Y'
sg31
g32
sS'.thisTrialN'
p2400
I10
sS'.thisN'
p2401
I295
sS'.thisIndex'
p2402
I11
sg15
(lp2403
S'k'
asg30
Vm
sg17
S'Y'
sg14
I6
sg19
(lp2404
S'space'
p2405
asg94
I11
sa(dp2406
g16
(lp2407
S'k'
asg18
S'Y'
sS'.thisRepN'
p2408
I19
sg20
S'Y'
sg31
g32
sS'.thisTrialN'
p2409
I11
sS'.thisN'
p2410
I296
sS'.thisIndex'
p2411
I4
sg15
(lp2412
S'k'
asg30
Vm
sg17
S'Y'
sg14
I6
sg19
(lp2413
S'space'
p2414
asg94
I4
sa(dp2415
g16
(lp2416
S'd'
asg18
S'Y'
sS'.thisRepN'
p2417
I19
sg20
S'Y'
sg31
g32
sS'.thisTrialN'
p2418
I12
sS'.thisN'
p2419
I297
sS'.thisIndex'
p2420
I3
sg15
(lp2421
S'd'
asg30
Vm
sg17
S'Y'
sg14
I6
sg19
(lp2422
S'space'
p2423
asg94
I3
sa(dp2424
g16
(lp2425
S'd'
asg18
S'Y'
sS'.thisRepN'
p2426
I19
sg20
S'Y'
sg31
g32
sS'.thisTrialN'
p2427
I13
sS'.thisN'
p2428
I298
sS'.thisIndex'
p2429
I0
sg15
(lp2430
S'd'
asg30
Vm
sg17
S'Y'
sg14
I6
sg19
(lp2431
S'space'
p2432
asg94
I0
sa(dp2433
g16
(lp2434
S'd'
asg18
S'Y'
sg22
I40
sS'.thisN'
p2435
I299
sg20
S'Y'
sg31
g32
sS'.thisTrialN'
p2436
I14
sS'.thisRepN'
p2437
I19
sg21
I41
sS'.thisIndex'
p2438
I9
sg23
I19
sg15
(lp2439
S'd'
asg30
Vm
sg17
S'Y'
sg14
I6
sg19
(lp2440
S'space'
p2441
asg94
I9
sa(dp2442
g16
(lp2443
S'k'
asg94
I4
sS'.thisRepN'
p2444
I20
sg30
Vm
sg31
g32
sS'.thisTrialN'
p2445
I0
sS'.thisN'
p2446
I300
sS'.thisIndex'
p2447
I4
sg15
(lp2448
S'k'
asg17
S'Y'
sg14
I7
sa(dp2449
g16
(lp2450
S'k'
asg94
I2
sS'.thisRepN'
p2451
I20
sg30
Vm
sg31
g32
sS'.thisTrialN'
p2452
I1
sS'.thisN'
p2453
I301
sS'.thisIndex'
p2454
I2
sg15
(lp2455
S'k'
asg17
S'Y'
sg14
I7
sa(dp2456
g16
(lp2457
S'k'
asg18
S'Y'
sS'.thisRepN'
p2458
I20
sg20
S'Y'
sg31
g32
sS'.thisTrialN'
p2459
I2
sS'.thisN'
p2460
I302
sS'.thisIndex'
p2461
I6
sg15
(lp2462
S'k'
asg30
Vm
sg17
S'Y'
sg14
I7
sg19
(lp2463
S'space'
p2464
asg94
I6
sa(dp2465
g16
(lp2466
S'd'
asg18
S'N'
sS'.thisRepN'
p2467
I20
sg20
S'Y'
sg31
g32
sS'.thisTrialN'
p2468
I3
sS'.thisN'
p2469
I303
sS'.thisIndex'
p2470
I14
sg15
(lp2471
S'd'
asg30
Vm
sg17
S'Y'
sg14
I7
sg19
Nsg94
I14
sa(dp2472
g16
(lp2473
S'k'
asg18
S'N'
sS'.thisRepN'
p2474
I20
sg20
S'N'
sg31
g32
sS'.thisTrialN'
p2475
I4
sS'.thisN'
p2476
I304
sS'.thisIndex'
p2477
I11
sg15
(lp2478
S'k'
asg30
Vm
sg17
S'Y'
sg14
I7
sg19
(lp2479
S'space'
p2480
asg94
I11
sa(dp2481
g16
(lp2482
S'k'
asg18
S'N'
sS'.thisRepN'
p2483
I20
sg20
S'Y'
sg31
g32
sS'.thisTrialN'
p2484
I5
sS'.thisN'
p2485
I305
sS'.thisIndex'
p2486
I7
sg15
(lp2487
S'd'
asg30
Vm
sg17
S'N'
sg14
I7
sg19
Nsg94
I7
sa(dp2488
g16
(lp2489
S'd'
asg18
S'Y'
sS'.thisRepN'
p2490
I20
sg20
S'Y'
sg31
g32
sS'.thisTrialN'
p2491
I6
sS'.thisN'
p2492
I306
sS'.thisIndex'
p2493
I3
sg15
(lp2494
S'd'
asg30
Vm
sg17
S'Y'
sg14
I7
sg19
(lp2495
S'space'
p2496
asg94
I3
sa(dp2497
g16
(lp2498
S'd'
asg18
S'N'
sS'.thisRepN'
p2499
I20
sg20
S'Y'
sg31
g32
sS'.thisTrialN'
p2500
I7
sS'.thisN'
p2501
I307
sS'.thisIndex'
p2502
I4
sg15
(lp2503
S'd'
asg30
Vm
sg17
S'Y'
sg14
I7
sg19
Nsg94
I4
sa(dp2504
g16
(lp2505
S'd'
asg18
S'N'
sS'.thisRepN'
p2506
I20
sg20
S'Y'
sg31
g32
sS'.thisTrialN'
p2507
I8
sS'.thisN'
p2508
I308
sS'.thisIndex'
p2509
I9
sg15
(lp2510
S'd'
asg30
Vm
sg17
S'Y'
sg14
I7
sg19
Nsg94
I9
sa(dp2511
g16
(lp2512
S'd'
asg18
S'Y'
sS'.thisRepN'
p2513
I20
sg20
S'Y'
sg31
g32
sS'.thisTrialN'
p2514
I9
sS'.thisN'
p2515
I309
sS'.thisIndex'
p2516
I9
sg15
(lp2517
S'd'
asg30
Vm
sg17
S'Y'
sg14
I7
sg19
(lp2518
S'space'
p2519
asg94
I9
sa(dp2520
g16
(lp2521
S'd'
asg18
S'Y'
sS'.thisRepN'
p2522
I20
sg20
S'Y'
sg31
g32
sS'.thisTrialN'
p2523
I10
sS'.thisN'
p2524
I310
sS'.thisIndex'
p2525
I10
sg15
(lp2526
S'd'
asg30
Vm
sg17
S'Y'
sg14
I7
sg19
(lp2527
S'space'
p2528
asg94
I10
sa(dp2529
g16
(lp2530
S'k'
asg18
S'Y'
sS'.thisRepN'
p2531
I20
sg20
S'Y'
sg31
g32
sS'.thisTrialN'
p2532
I11
sS'.thisN'
p2533
I311
sS'.thisIndex'
p2534
I14
sg15
(lp2535
S'k'
asg30
Vm
sg17
S'Y'
sg14
I7
sg19
(lp2536
S'space'
p2537
asg94
I14
sa(dp2538
g16
(lp2539
S'd'
asg18
S'N'
sS'.thisRepN'
p2540
I20
sg20
S'Y'
sg31
g32
sS'.thisTrialN'
p2541
I12
sS'.thisN'
p2542
I312
sS'.thisIndex'
p2543
I0
sg15
(lp2544
S'k'
asg30
Vm
sg17
S'N'
sg14
I7
sg19
Nsg94
I0
sa(dp2545
g16
(lp2546
S'd'
asg18
S'N'
sS'.thisRepN'
p2547
I20
sg20
S'Y'
sg31
g32
sS'.thisTrialN'
p2548
I13
sS'.thisN'
p2549
I313
sS'.thisIndex'
p2550
I11
sg15
(lp2551
S'd'
asg30
Vm
sg17
S'Y'
sg14
I7
sg19
Nsg94
I11
sa(dp2552
g16
(lp2553
S'k'
asg18
S'N'
sS'.thisRepN'
p2554
I20
sg20
S'Y'
sg31
g32
sS'.thisTrialN'
p2555
I14
sS'.thisN'
p2556
I314
sS'.thisIndex'
p2557
I12
sg15
(lp2558
S'k'
asg30
Vm
sg17
S'Y'
sg14
I7
sg19
Nsg94
I12
sa(dp2559
g16
(lp2560
S'k'
asg18
S'Y'
sS'.thisRepN'
p2561
I21
sg20
S'Y'
sg31
g32
sS'.thisTrialN'
p2562
I0
sS'.thisN'
p2563
I315
sS'.thisIndex'
p2564
I9
sg15
(lp2565
S'k'
asg30
Vm
sg17
S'Y'
sg14
I7
sg19
(lp2566
S'space'
p2567
asg94
I9
sa(dp2568
g16
(lp2569
S'd'
asg18
S'Y'
sS'.thisRepN'
p2570
I21
sg20
S'N'
sg31
g32
sS'.thisTrialN'
p2571
I1
sS'.thisN'
p2572
I316
sS'.thisIndex'
p2573
I3
sg15
(lp2574
S'd'
asg30
Vm
sg17
S'Y'
sg14
I7
sg19
Nsg94
I3
sa(dp2575
g16
(lp2576
S'd'
asg18
S'N'
sS'.thisRepN'
p2577
I21
sg20
S'Y'
sg31
g32
sS'.thisTrialN'
p2578
I2
sS'.thisN'
p2579
I317
sS'.thisIndex'
p2580
I2
sg15
(lp2581
S'd'
asg30
Vm
sg17
S'Y'
sg14
I7
sg19
Nsg94
I2
sa(dp2582
g16
(lp2583
S'k'
asg18
S'N'
sS'.thisRepN'
p2584
I21
sg20
S'Y'
sg31
g32
sS'.thisTrialN'
p2585
I3
sS'.thisN'
p2586
I318
sS'.thisIndex'
p2587
I9
sg15
(lp2588
S'k'
asg30
Vm
sg17
S'Y'
sg14
I7
sg19
Nsg94
I9
sa(dp2589
g16
(lp2590
S'd'
asg18
S'Y'
sS'.thisRepN'
p2591
I21
sg20
S'Y'
sg31
g32
sS'.thisTrialN'
p2592
I4
sS'.thisN'
p2593
I319
sS'.thisIndex'
p2594
I8
sg15
(lp2595
S'd'
asg30
Vm
sg17
S'Y'
sg14
I7
sg19
(lp2596
S'space'
p2597
asg94
I8
sa(dp2598
g16
(lp2599
S'd'
asg18
S'Y'
sS'.thisRepN'
p2600
I21
sg20
S'Y'
sg31
g32
sS'.thisTrialN'
p2601
I5
sS'.thisN'
p2602
I320
sS'.thisIndex'
p2603
I8
sg15
(lp2604
S'd'
asg30
Vm
sg17
S'Y'
sg14
I7
sg19
(lp2605
S'space'
p2606
asg94
I8
sa(dp2607
g16
(lp2608
S'd'
asg18
S'Y'
sS'.thisRepN'
p2609
I21
sg20
S'Y'
sg31
g32
sS'.thisTrialN'
p2610
I6
sS'.thisN'
p2611
I321
sS'.thisIndex'
p2612
I5
sg15
(lp2613
S'd'
asg30
Vm
sg17
S'Y'
sg14
I7
sg19
(lp2614
S'space'
p2615
asg94
I5
sa(dp2616
g16
(lp2617
S'k'
asg18
S'N'
sS'.thisRepN'
p2618
I21
sg20
S'Y'
sg31
g32
sS'.thisTrialN'
p2619
I7
sS'.thisN'
p2620
I322
sS'.thisIndex'
p2621
I13
sg15
(lp2622
S'k'
asg30
Vm
sg17
S'Y'
sg14
I7
sg19
Nsg94
I13
sa(dp2623
g16
(lp2624
S'd'
asg18
S'Y'
sS'.thisRepN'
p2625
I21
sg20
S'Y'
sg31
g32
sS'.thisTrialN'
p2626
I8
sS'.thisN'
p2627
I323
sS'.thisIndex'
p2628
I2
sg15
(lp2629
S'd'
asg30
Vm
sg17
S'Y'
sg14
I7
sg19
(lp2630
S'space'
p2631
asg94
I2
sa(dp2632
g16
(lp2633
S'd'
asg18
S'Y'
sS'.thisRepN'
p2634
I21
sg20
S'Y'
sg31
g32
sS'.thisTrialN'
p2635
I9
sS'.thisN'
p2636
I324
sS'.thisIndex'
p2637
I12
sg15
(lp2638
S'd'
asg30
Vm
sg17
S'Y'
sg14
I7
sg19
(lp2639
S'space'
p2640
asg94
I12
sa(dp2641
g16
(lp2642
S'k'
asg18
S'N'
sS'.thisRepN'
p2643
I21
sg20
S'Y'
sg31
g32
sS'.thisTrialN'
p2644
I10
sS'.thisN'
p2645
I325
sS'.thisIndex'
p2646
I12
sg15
(lp2647
S'k'
asg30
Vm
sg17
S'Y'
sg14
I7
sg19
Nsg94
I12
sa(dp2648
g16
(lp2649
S'k'
asg18
S'Y'
sS'.thisRepN'
p2650
I21
sg20
S'Y'
sg31
g32
sS'.thisTrialN'
p2651
I11
sS'.thisN'
p2652
I326
sS'.thisIndex'
p2653
I9
sg15
(lp2654
S'k'
asg30
Vm
sg17
S'Y'
sg14
I7
sg19
(lp2655
S'space'
p2656
asg94
I9
sa(dp2657
g16
(lp2658
S'd'
asg18
S'Y'
sS'.thisRepN'
p2659
I21
sg20
S'Y'
sg31
g32
sS'.thisTrialN'
p2660
I12
sS'.thisN'
p2661
I327
sS'.thisIndex'
p2662
I9
sg15
(lp2663
S'd'
asg30
Vm
sg17
S'Y'
sg14
I7
sg19
(lp2664
S'space'
p2665
asg94
I9
sa(dp2666
g16
(lp2667
S'k'
asg18
S'N'
sS'.thisRepN'
p2668
I21
sg20
S'Y'
sg31
g32
sS'.thisTrialN'
p2669
I13
sS'.thisN'
p2670
I328
sS'.thisIndex'
p2671
I4
sg15
(lp2672
S'k'
asg30
Vm
sg17
S'Y'
sg14
I7
sg19
Nsg94
I4
sa(dp2673
g16
(lp2674
S'd'
asg18
S'Y'
sS'.thisRepN'
p2675
I21
sg20
S'Y'
sg31
g32
sS'.thisTrialN'
p2676
I14
sS'.thisN'
p2677
I329
sS'.thisIndex'
p2678
I11
sg15
(lp2679
S'd'
asg30
Vm
sg17
S'Y'
sg14
I7
sg19
(lp2680
S'space'
p2681
asg94
I11
sa(dp2682
g16
(lp2683
S'k'
asg18
S'Y'
sS'.thisRepN'
p2684
I22
sg20
S'Y'
sg31
g32
sS'.thisTrialN'
p2685
I0
sS'.thisN'
p2686
I330
sS'.thisIndex'
p2687
I9
sg15
(lp2688
S'k'
asg30
Vm
sg17
S'Y'
sg14
I7
sg19
(lp2689
S'space'
p2690
asg94
I9
sa(dp2691
g16
(lp2692
S'k'
asg18
S'Y'
sS'.thisRepN'
p2693
I22
sg20
S'Y'
sg31
g32
sS'.thisTrialN'
p2694
I1
sS'.thisN'
p2695
I331
sS'.thisIndex'
p2696
I11
sg15
(lp2697
S'd'
asg30
Vm
sg17
S'N'
sg14
I7
sg19
(lp2698
S'space'
p2699
asg94
I11
sa(dp2700
g16
(lp2701
S'd'
asg18
S'Y'
sS'.thisRepN'
p2702
I22
sg20
S'Y'
sg31
g32
sS'.thisTrialN'
p2703
I2
sS'.thisN'
p2704
I332
sS'.thisIndex'
p2705
I8
sg15
(lp2706
S'd'
asg30
Vm
sg17
S'Y'
sg14
I7
sg19
(lp2707
S'space'
p2708
asg94
I8
sa(dp2709
g16
(lp2710
S'k'
asg18
S'N'
sS'.thisRepN'
p2711
I22
sg20
S'Y'
sg31
g32
sS'.thisTrialN'
p2712
I3
sS'.thisN'
p2713
I333
sS'.thisIndex'
p2714
I2
sg15
(lp2715
S'k'
asg30
Vm
sg17
S'Y'
sg14
I7
sg19
Nsg94
I2
sa(dp2716
g16
(lp2717
S'd'
asg18
S'N'
sS'.thisRepN'
p2718
I22
sg20
S'Y'
sg31
g32
sS'.thisTrialN'
p2719
I4
sS'.thisN'
p2720
I334
sS'.thisIndex'
p2721
I2
sg15
(lp2722
S'd'
asg30
Vm
sg17
S'Y'
sg14
I7
sg19
Nsg94
I2
sa(dp2723
g16
(lp2724
S'k'
asg18
S'Y'
sS'.thisRepN'
p2725
I22
sg20
S'Y'
sg31
g32
sS'.thisTrialN'
p2726
I5
sS'.thisN'
p2727
I335
sS'.thisIndex'
p2728
I6
sg15
(lp2729
S'k'
asg30
Vm
sg17
S'Y'
sg14
I7
sg19
(lp2730
S'space'
p2731
asg94
I6
sa(dp2732
g16
(lp2733
S'k'
asg18
S'Y'
sS'.thisRepN'
p2734
I22
sg20
S'Y'
sg31
g32
sS'.thisTrialN'
p2735
I6
sS'.thisN'
p2736
I336
sS'.thisIndex'
p2737
I7
sg15
(lp2738
S'k'
asg30
Vm
sg17
S'Y'
sg14
I7
sg19
(lp2739
S'space'
p2740
asg94
I7
sa(dp2741
g16
(lp2742
S'd'
asg18
S'Y'
sS'.thisRepN'
p2743
I22
sg20
S'Y'
sg31
g32
sS'.thisTrialN'
p2744
I7
sS'.thisN'
p2745
I337
sS'.thisIndex'
p2746
I10
sg15
(lp2747
S'd'
asg30
Vm
sg17
S'Y'
sg14
I7
sg19
(lp2748
S'space'
p2749
asg94
I10
sa(dp2750
g16
(lp2751
S'd'
asg18
S'Y'
sS'.thisRepN'
p2752
I22
sg20
S'Y'
sg31
g32
sS'.thisTrialN'
p2753
I8
sS'.thisN'
p2754
I338
sS'.thisIndex'
p2755
I5
sg15
(lp2756
S'd'
asg30
Vm
sg17
S'Y'
sg14
I7
sg19
(lp2757
S'space'
p2758
asg94
I5
sa(dp2759
g16
(lp2760
S'k'
asg18
S'N'
sS'.thisRepN'
p2761
I22
sg20
S'Y'
sg31
g32
sS'.thisTrialN'
p2762
I9
sS'.thisN'
p2763
I339
sS'.thisIndex'
p2764
I14
sg15
(lp2765
S'k'
asg30
Vm
sg17
S'Y'
sg14
I7
sg19
Nsg94
I14
sa(dp2766
g16
(lp2767
S'k'
asg18
S'Y'
sS'.thisRepN'
p2768
I22
sg20
S'Y'
sg31
g32
sS'.thisTrialN'
p2769
I10
sS'.thisN'
p2770
I340
sS'.thisIndex'
p2771
I10
sg15
(lp2772
S'k'
asg30
Vm
sg17
S'Y'
sg14
I7
sg19
(lp2773
S'space'
p2774
asg94
I10
sa(dp2775
g16
(lp2776
S'd'
asg18
S'N'
sS'.thisRepN'
p2777
I22
sg20
S'Y'
sg31
g32
sS'.thisTrialN'
p2778
I11
sS'.thisN'
p2779
I341
sS'.thisIndex'
p2780
I12
sg15
(lp2781
S'd'
asg30
Vm
sg17
S'Y'
sg14
I7
sg19
Nsg94
I12
sa(dp2782
g16
(lp2783
S'd'
asg18
S'N'
sS'.thisRepN'
p2784
I22
sg20
S'Y'
sg31
g32
sS'.thisTrialN'
p2785
I12
sS'.thisN'
p2786
I342
sS'.thisIndex'
p2787
I11
sg15
(lp2788
S'd'
asg30
Vm
sg17
S'Y'
sg14
I7
sg19
Nsg94
I11
sa(dp2789
g16
(lp2790
S'k'
asg18
S'Y'
sS'.thisRepN'
p2791
I22
sg20
S'Y'
sg31
g32
sS'.thisTrialN'
p2792
I13
sS'.thisN'
p2793
I343
sS'.thisIndex'
p2794
I4
sg15
(lp2795
S'k'
asg30
Vm
sg17
S'Y'
sg14
I7
sg19
(lp2796
S'space'
p2797
asg94
I4
sa(dp2798
g16
(lp2799
S'd'
asg18
S'Y'
sS'.thisRepN'
p2800
I22
sg20
S'Y'
sg31
g32
sS'.thisTrialN'
p2801
I14
sS'.thisN'
p2802
I344
sS'.thisIndex'
p2803
I8
sg15
(lp2804
S'd'
asg30
Vm
sg17
S'Y'
sg14
I7
sg19
(lp2805
S'space'
p2806
asg94
I8
sa(dp2807
g16
(lp2808
S'k'
asg18
S'N'
sS'.thisRepN'
p2809
I23
sg20
S'Y'
sg31
g32
sS'.thisTrialN'
p2810
I0
sS'.thisN'
p2811
I345
sS'.thisIndex'
p2812
I6
sg15
(lp2813
S'k'
asg30
Vm
sg17
S'Y'
sg14
I7
sg19
Nsg94
I6
sa(dp2814
g16
(lp2815
S'k'
asg18
S'N'
sS'.thisRepN'
p2816
I23
sg20
S'Y'
sg31
g32
sS'.thisTrialN'
p2817
I1
sS'.thisN'
p2818
I346
sS'.thisIndex'
p2819
I9
sg15
(lp2820
S'k'
asg30
Vm
sg17
S'Y'
sg14
I7
sg19
Nsg94
I9
sa(dp2821
g16
(lp2822
S'd'
asg18
S'N'
sS'.thisRepN'
p2823
I23
sg20
S'Y'
sg31
g32
sS'.thisTrialN'
p2824
I2
sS'.thisN'
p2825
I347
sS'.thisIndex'
p2826
I4
sg15
(lp2827
S'd'
asg30
Vm
sg17
S'Y'
sg14
I7
sg19
Nsg94
I4
sa(dp2828
g16
(lp2829
S'k'
asg18
S'N'
sS'.thisRepN'
p2830
I23
sg20
S'Y'
sg31
g32
sS'.thisTrialN'
p2831
I3
sS'.thisN'
p2832
I348
sS'.thisIndex'
p2833
I9
sg15
(lp2834
S'k'
asg30
Vm
sg17
S'Y'
sg14
I7
sg19
Nsg94
I9
sa(dp2835
g16
(lp2836
S'd'
asg18
S'N'
sg22
I46
sS'.thisN'
p2837
I349
sg20
S'Y'
sg31
g32
sS'.thisTrialN'
p2838
I4
sS'.thisRepN'
p2839
I23
sg21
I47
sS'.thisIndex'
p2840
I13
sg23
I25
sg15
(lp2841
S'd'
asg30
Vm
sg17
S'Y'
sg14
I7
sg19
Nsg94
I13
sa(dp2842
g16
(lp2843
S'd'
asg94
I8
sS'.thisRepN'
p2844
I23
sg30
Vm
sg31
g32
sS'.thisTrialN'
p2845
I5
sS'.thisN'
p2846
I350
sS'.thisIndex'
p2847
I8
sg15
(lp2848
S'd'
asg17
S'Y'
sg14
I8
sa(dp2849
g16
(lp2850
S'k'
asg94
I7
sS'.thisRepN'
p2851
I23
sg30
Vm
sg31
g32
sS'.thisTrialN'
p2852
I6
sS'.thisN'
p2853
I351
sS'.thisIndex'
p2854
I7
sg15
(lp2855
S'k'
asg17
S'Y'
sg14
I8
sa(dp2856
g16
(lp2857
S'k'
asg18
S'N'
sS'.thisRepN'
p2858
I23
sg20
S'Y'
sg31
g32
sS'.thisTrialN'
p2859
I7
sS'.thisN'
p2860
I352
sS'.thisIndex'
p2861
I14
sg15
(lp2862
S'k'
asg30
Vm
sg17
S'Y'
sg14
I8
sg19
Nsg94
I14
sa(dp2863
g16
(lp2864
S'k'
asg18
S'Y'
sS'.thisRepN'
p2865
I23
sg20
S'Y'
sg31
g32
sS'.thisTrialN'
p2866
I8
sS'.thisN'
p2867
I353
sS'.thisIndex'
p2868
I0
sg15
(lp2869
S'k'
asg30
Vm
sg17
S'Y'
sg14
I8
sg19
(lp2870
S'space'
p2871
asg94
I0
sa(dp2872
g16
(lp2873
S'd'
asg18
S'Y'
sS'.thisRepN'
p2874
I23
sg20
S'Y'
sg31
g32
sS'.thisTrialN'
p2875
I9
sS'.thisN'
p2876
I354
sS'.thisIndex'
p2877
I14
sg15
(lp2878
S'd'
asg30
Vm
sg17
S'Y'
sg14
I8
sg19
(lp2879
S'space'
p2880
asg94
I14
sa(dp2881
g16
(lp2882
S'd'
asg18
S'Y'
sS'.thisRepN'
p2883
I23
sg20
S'Y'
sg31
g32
sS'.thisTrialN'
p2884
I10
sS'.thisN'
p2885
I355
sS'.thisIndex'
p2886
I6
sg15
(lp2887
S'd'
asg30
Vm
sg17
S'Y'
sg14
I8
sg19
(lp2888
S'space'
p2889
asg94
I6
sa(dp2890
g16
(lp2891
S'k'
asg18
S'N'
sS'.thisRepN'
p2892
I23
sg20
S'Y'
sg31
g32
sS'.thisTrialN'
p2893
I11
sS'.thisN'
p2894
I356
sS'.thisIndex'
p2895
I11
sg15
(lp2896
S'k'
asg30
Vm
sg17
S'Y'
sg14
I8
sg19
Nsg94
I11
sa(dp2897
g16
(lp2898
S'k'
asg18
S'N'
sS'.thisRepN'
p2899
I23
sg20
S'N'
sg31
g32
sS'.thisTrialN'
p2900
I12
sS'.thisN'
p2901
I357
sS'.thisIndex'
p2902
I11
sg15
(lp2903
S'k'
asg30
Vm
sg17
S'Y'
sg14
I8
sg19
(lp2904
S'space'
p2905
asg94
I11
sa(dp2906
g16
(lp2907
S'd'
asg18
S'N'
sS'.thisRepN'
p2908
I23
sg20
S'Y'
sg31
g32
sS'.thisTrialN'
p2909
I13
sS'.thisN'
p2910
I358
sS'.thisIndex'
p2911
I1
sg15
(lp2912
S'd'
asg30
Vm
sg17
S'Y'
sg14
I8
sg19
Nsg94
I1
sa(dp2913
g16
(lp2914
S'k'
asg18
S'Y'
sS'.thisRepN'
p2915
I23
sg20
S'Y'
sg31
g32
sS'.thisTrialN'
p2916
I14
sS'.thisN'
p2917
I359
sS'.thisIndex'
p2918
I13
sg15
(lp2919
S'd'
asg30
Vm
sg17
S'N'
sg14
I8
sg19
(lp2920
S'space'
p2921
asg94
I13
sa(dp2922
g16
(lp2923
S'k'
asg18
S'N'
sS'.thisRepN'
p2924
I24
sg20
S'Y'
sg31
g32
sS'.thisTrialN'
p2925
I0
sS'.thisN'
p2926
I360
sS'.thisIndex'
p2927
I7
sg15
(lp2928
S'k'
asg30
Vm
sg17
S'Y'
sg14
I8
sg19
Nsg94
I7
sa(dp2929
g16
(lp2930
S'k'
asg18
S'N'
sS'.thisRepN'
p2931
I24
sg20
S'Y'
sg31
g32
sS'.thisTrialN'
p2932
I1
sS'.thisN'
p2933
I361
sS'.thisIndex'
p2934
I8
sg15
(lp2935
S'k'
asg30
Vm
sg17
S'Y'
sg14
I8
sg19
Nsg94
I8
sa(dp2936
g16
(lp2937
S'd'
asg18
S'Y'
sS'.thisRepN'
p2938
I24
sg20
S'N'
sg31
g32
sS'.thisTrialN'
p2939
I2
sS'.thisN'
p2940
I362
sS'.thisIndex'
p2941
I0
sg15
(lp2942
S'k'
asg30
Vm
sg17
S'N'
sg14
I8
sg19
Nsg94
I0
sa(dp2943
g16
(lp2944
S'd'
asg18
S'N'
sS'.thisRepN'
p2945
I24
sg20
S'Y'
sg31
g32
sS'.thisTrialN'
p2946
I3
sS'.thisN'
p2947
I363
sS'.thisIndex'
p2948
I0
sg15
(lp2949
S'd'
asg30
Vm
sg17
S'Y'
sg14
I8
sg19
Nsg94
I0
sa(dp2950
g16
(lp2951
S'd'
asg18
S'N'
sS'.thisRepN'
p2952
I24
sg20
S'Y'
sg31
g32
sS'.thisTrialN'
p2953
I4
sS'.thisN'
p2954
I364
sS'.thisIndex'
p2955
I5
sg15
(lp2956
S'd'
asg30
Vm
sg17
S'Y'
sg14
I8
sg19
Nsg94
I5
sa(dp2957
g16
(lp2958
S'd'
asg18
S'N'
sS'.thisRepN'
p2959
I24
sg20
S'Y'
sg31
g32
sS'.thisTrialN'
p2960
I5
sS'.thisN'
p2961
I365
sS'.thisIndex'
p2962
I12
sg15
(lp2963
S'd'
asg30
Vm
sg17
S'Y'
sg14
I8
sg19
Nsg94
I12
sa(dp2964
g16
(lp2965
S'k'
asg18
S'N'
sS'.thisRepN'
p2966
I24
sg20
S'Y'
sg31
g32
sS'.thisTrialN'
p2967
I6
sS'.thisN'
p2968
I366
sS'.thisIndex'
p2969
I6
sg15
(lp2970
S'k'
asg30
Vm
sg17
S'Y'
sg14
I8
sg19
Nsg94
I6
sa(dp2971
g16
(lp2972
S'k'
asg18
S'N'
sS'.thisRepN'
p2973
I24
sg20
S'Y'
sg31
g32
sS'.thisTrialN'
p2974
I7
sS'.thisN'
p2975
I367
sS'.thisIndex'
p2976
I11
sg15
(lp2977
S'k'
asg30
Vm
sg17
S'Y'
sg14
I8
sg19
Nsg94
I11
sa(dp2978
g16
(lp2979
S'k'
asg18
S'N'
sS'.thisRepN'
p2980
I24
sg20
S'Y'
sg31
g32
sS'.thisTrialN'
p2981
I8
sS'.thisN'
p2982
I368
sS'.thisIndex'
p2983
I14
sg15
(lp2984
S'k'
asg30
Vm
sg17
S'Y'
sg14
I8
sg19
Nsg94
I14
sa(dp2985
g16
(lp2986
S'k'
asg18
S'Y'
sS'.thisRepN'
p2987
I24
sg20
S'Y'
sg31
g32
sS'.thisTrialN'
p2988
I9
sS'.thisN'
p2989
I369
sS'.thisIndex'
p2990
I7
sg15
(lp2991
S'k'
asg30
Vm
sg17
S'Y'
sg14
I8
sg19
(lp2992
S'space'
p2993
asg94
I7
sa(dp2994
g16
(lp2995
S'k'
asg18
S'N'
sS'.thisRepN'
p2996
I24
sg20
S'Y'
sg31
g32
sS'.thisTrialN'
p2997
I10
sS'.thisN'
p2998
I370
sS'.thisIndex'
p2999
I7
sg15
(lp3000
S'k'
asg30
Vm
sg17
S'Y'
sg14
I8
sg19
Nsg94
I7
sa(dp3001
g16
(lp3002
S'd'
asg18
S'N'
sS'.thisRepN'
p3003
I24
sg20
S'N'
sg31
g32
sS'.thisTrialN'
p3004
I11
sS'.thisN'
p3005
I371
sS'.thisIndex'
p3006
I14
sg15
(lp3007
S'd'
asg30
Vm
sg17
S'Y'
sg14
I8
sg19
(lp3008
S'space'
p3009
asg94
I14
sa(dp3010
g16
(lp3011
S'd'
asg18
S'Y'
sS'.thisRepN'
p3012
I24
sg20
S'Y'
sg31
g32
sS'.thisTrialN'
p3013
I12
sS'.thisN'
p3014
I372
sS'.thisIndex'
p3015
I12
sg15
(lp3016
S'd'
asg30
Vm
sg17
S'Y'
sg14
I8
sg19
(lp3017
S'space'
p3018
asg94
I12
sa(dp3019
g16
(lp3020
S'k'
asg18
S'N'
sS'.thisRepN'
p3021
I24
sg20
S'Y'
sg31
g32
sS'.thisTrialN'
p3022
I13
sS'.thisN'
p3023
I373
sS'.thisIndex'
p3024
I6
sg15
(lp3025
S'k'
asg30
Vm
sg17
S'Y'
sg14
I8
sg19
Nsg94
I6
sa(dp3026
g16
(lp3027
S'd'
asg18
S'N'
sS'.thisRepN'
p3028
I24
sg20
S'Y'
sg31
g32
sS'.thisTrialN'
p3029
I14
sS'.thisN'
p3030
I374
sS'.thisIndex'
p3031
I12
sg15
(lp3032
S'd'
asg30
Vm
sg17
S'Y'
sg14
I8
sg19
Nsg94
I12
sa(dp3033
g16
(lp3034
S'd'
asg18
S'N'
sS'.thisRepN'
p3035
I25
sg20
S'Y'
sg31
g32
sS'.thisTrialN'
p3036
I0
sS'.thisN'
p3037
I375
sS'.thisIndex'
p3038
I12
sg15
(lp3039
S'k'
asg30
Vm
sg17
S'N'
sg14
I8
sg19
Nsg94
I12
sa(dp3040
g16
(lp3041
S'd'
asg18
S'Y'
sS'.thisRepN'
p3042
I25
sg20
S'Y'
sg31
g32
sS'.thisTrialN'
p3043
I1
sS'.thisN'
p3044
I376
sS'.thisIndex'
p3045
I9
sg15
(lp3046
S'd'
asg30
Vm
sg17
S'Y'
sg14
I8
sg19
(lp3047
S'space'
p3048
asg94
I9
sa(dp3049
g16
(lp3050
S'k'
asg18
S'N'
sS'.thisRepN'
p3051
I25
sg20
S'Y'
sg31
g32
sS'.thisTrialN'
p3052
I2
sS'.thisN'
p3053
I377
sS'.thisIndex'
p3054
I7
sg15
(lp3055
S'k'
asg30
Vm
sg17
S'Y'
sg14
I8
sg19
Nsg94
I7
sa(dp3056
g16
(lp3057
S'd'
asg18
S'Y'
sS'.thisRepN'
p3058
I25
sg20
S'Y'
sg31
g32
sS'.thisTrialN'
p3059
I3
sS'.thisN'
p3060
I378
sS'.thisIndex'
p3061
I12
sg15
(lp3062
S'k'
asg30
Vm
sg17
S'N'
sg14
I8
sg19
(lp3063
S'space'
p3064
asg94
I12
sa(dp3065
g16
(lp3066
S'k'
asg18
S'Y'
sS'.thisRepN'
p3067
I25
sg20
S'Y'
sg31
g32
sS'.thisTrialN'
p3068
I4
sS'.thisN'
p3069
I379
sS'.thisIndex'
p3070
I5
sg15
(lp3071
S'k'
asg30
Vm
sg17
S'Y'
sg14
I8
sg19
(lp3072
S'space'
p3073
asg94
I5
sa(dp3074
g16
(lp3075
S'd'
asg18
S'Y'
sS'.thisRepN'
p3076
I25
sg20
S'Y'
sg31
g32
sS'.thisTrialN'
p3077
I5
sS'.thisN'
p3078
I380
sS'.thisIndex'
p3079
I10
sg15
(lp3080
S'k'
asg30
Vm
sg17
S'N'
sg14
I8
sg19
(lp3081
S'space'
p3082
asg94
I10
sa(dp3083
g16
(lp3084
S'k'
asg18
S'Y'
sS'.thisRepN'
p3085
I25
sg20
S'Y'
sg31
g32
sS'.thisTrialN'
p3086
I6
sS'.thisN'
p3087
I381
sS'.thisIndex'
p3088
I11
sg15
(lp3089
S'd'
asg30
Vm
sg17
S'N'
sg14
I8
sg19
(lp3090
S'space'
p3091
asg94
I11
sa(dp3092
g16
(lp3093
S'k'
asg18
S'Y'
sS'.thisRepN'
p3094
I25
sg20
S'N'
sg31
g32
sS'.thisTrialN'
p3095
I7
sS'.thisN'
p3096
I382
sS'.thisIndex'
p3097
I4
sg15
(lp3098
S'k'
asg30
Vm
sg17
S'Y'
sg14
I8
sg19
Nsg94
I4
sa(dp3099
g16
(lp3100
S'k'
asg18
S'N'
sS'.thisRepN'
p3101
I25
sg20
S'Y'
sg31
g32
sS'.thisTrialN'
p3102
I8
sS'.thisN'
p3103
I383
sS'.thisIndex'
p3104
I8
sg15
(lp3105
S'k'
asg30
Vm
sg17
S'Y'
sg14
I8
sg19
Nsg94
I8
sa(dp3106
g16
(lp3107
S'k'
asg18
S'Y'
sS'.thisRepN'
p3108
I25
sg20
S'Y'
sg31
g32
sS'.thisTrialN'
p3109
I9
sS'.thisN'
p3110
I384
sS'.thisIndex'
p3111
I2
sg15
(lp3112
S'k'
asg30
Vm
sg17
S'Y'
sg14
I8
sg19
(lp3113
S'space'
p3114
asg94
I2
sa(dp3115
g16
(lp3116
S'k'
asg18
S'N'
sS'.thisRepN'
p3117
I25
sg20
S'Y'
sg31
g32
sS'.thisTrialN'
p3118
I10
sS'.thisN'
p3119
I385
sS'.thisIndex'
p3120
I10
sg15
(lp3121
S'k'
asg30
Vm
sg17
S'Y'
sg14
I8
sg19
Nsg94
I10
sa(dp3122
g16
(lp3123
S'd'
asg18
S'Y'
sS'.thisRepN'
p3124
I25
sg20
S'Y'
sg31
g32
sS'.thisTrialN'
p3125
I11
sS'.thisN'
p3126
I386
sS'.thisIndex'
p3127
I1
sg15
(lp3128
S'd'
asg30
Vm
sg17
S'Y'
sg14
I8
sg19
(lp3129
S'space'
p3130
asg94
I1
sa(dp3131
g16
(lp3132
S'd'
asg18
S'N'
sS'.thisRepN'
p3133
I25
sg20
S'Y'
sg31
g32
sS'.thisTrialN'
p3134
I12
sS'.thisN'
p3135
I387
sS'.thisIndex'
p3136
I1
sg15
(lp3137
S'd'
asg30
Vm
sg17
S'Y'
sg14
I8
sg19
Nsg94
I1
sa(dp3138
g16
(lp3139
S'd'
asg18
S'N'
sS'.thisRepN'
p3140
I25
sg20
S'Y'
sg31
g32
sS'.thisTrialN'
p3141
I13
sS'.thisN'
p3142
I388
sS'.thisIndex'
p3143
I5
sg15
(lp3144
S'd'
asg30
Vm
sg17
S'Y'
sg14
I8
sg19
Nsg94
I5
sa(dp3145
g16
(lp3146
S'd'
asg18
S'N'
sS'.thisRepN'
p3147
I25
sg20
S'N'
sg31
g32
sS'.thisTrialN'
p3148
I14
sS'.thisN'
p3149
I389
sS'.thisIndex'
p3150
I12
sg15
(lp3151
S'd'
asg30
Vm
sg17
S'Y'
sg14
I8
sg19
(lp3152
S'space'
p3153
asg94
I12
sa(dp3154
g16
(lp3155
S'k'
asg18
S'N'
sS'.thisRepN'
p3156
I26
sg20
S'Y'
sg31
g32
sS'.thisTrialN'
p3157
I0
sS'.thisN'
p3158
I390
sS'.thisIndex'
p3159
I7
sg15
(lp3160
S'k'
asg30
Vm
sg17
S'Y'
sg14
I8
sg19
Nsg94
I7
sa(dp3161
g16
(lp3162
S'k'
asg18
S'N'
sS'.thisRepN'
p3163
I26
sg20
S'Y'
sg31
g32
sS'.thisTrialN'
p3164
I1
sS'.thisN'
p3165
I391
sS'.thisIndex'
p3166
I11
sg15
(lp3167
S'k'
asg30
Vm
sg17
S'Y'
sg14
I8
sg19
Nsg94
I11
sa(dp3168
g16
(lp3169
S'k'
asg18
S'N'
sS'.thisRepN'
p3170
I26
sg20
S'Y'
sg31
g32
sS'.thisTrialN'
p3171
I2
sS'.thisN'
p3172
I392
sS'.thisIndex'
p3173
I14
sg15
(lp3174
S'k'
asg30
Vm
sg17
S'Y'
sg14
I8
sg19
Nsg94
I14
sa(dp3175
g16
(lp3176
S'k'
asg18
S'Y'
sS'.thisRepN'
p3177
I26
sg20
S'Y'
sg31
g32
sS'.thisTrialN'
p3178
I3
sS'.thisN'
p3179
I393
sS'.thisIndex'
p3180
I12
sg15
(lp3181
S'k'
asg30
Vm
sg17
S'Y'
sg14
I8
sg19
(lp3182
S'space'
p3183
asg94
I12
sa(dp3184
g16
(lp3185
S'k'
asg18
S'N'
sS'.thisRepN'
p3186
I26
sg20
S'Y'
sg31
g32
sS'.thisTrialN'
p3187
I4
sS'.thisN'
p3188
I394
sS'.thisIndex'
p3189
I7
sg15
(lp3190
S'k'
asg30
Vm
sg17
S'Y'
sg14
I8
sg19
Nsg94
I7
sa(dp3191
g16
(lp3192
S'k'
asg18
S'Y'
sS'.thisRepN'
p3193
I26
sg20
S'N'
sg31
g32
sS'.thisTrialN'
p3194
I5
sS'.thisN'
p3195
I395
sS'.thisIndex'
p3196
I14
sg15
(lp3197
S'k'
asg30
Vm
sg17
S'Y'
sg14
I8
sg19
Nsg94
I14
sa(dp3198
g16
(lp3199
S'd'
asg18
S'Y'
sS'.thisRepN'
p3200
I26
sg20
S'Y'
sg31
g32
sS'.thisTrialN'
p3201
I6
sS'.thisN'
p3202
I396
sS'.thisIndex'
p3203
I10
sg15
(lp3204
S'd'
asg30
Vm
sg17
S'Y'
sg14
I8
sg19
(lp3205
S'space'
p3206
asg94
I10
sa(dp3207
g16
(lp3208
S'd'
asg18
S'N'
sS'.thisRepN'
p3209
I26
sg20
S'Y'
sg31
g32
sS'.thisTrialN'
p3210
I7
sS'.thisN'
p3211
I397
sS'.thisIndex'
p3212
I13
sg15
(lp3213
S'd'
asg30
Vm
sg17
S'Y'
sg14
I8
sg19
Nsg94
I13
sa(dp3214
g16
(lp3215
S'k'
asg18
S'N'
sS'.thisRepN'
p3216
I26
sg20
S'Y'
sg31
g32
sS'.thisTrialN'
p3217
I8
sS'.thisN'
p3218
I398
sS'.thisIndex'
p3219
I7
sg15
(lp3220
S'k'
asg30
Vm
sg17
S'Y'
sg14
I8
sg19
Nsg94
I7
sa(dp3221
g16
(lp3222
S'd'
asg18
S'N'
sg22
I42
sS'.thisN'
p3223
I399
sg20
S'Y'
sg31
g32
sS'.thisTrialN'
p3224
I9
sS'.thisRepN'
p3225
I26
sg21
I44
sS'.thisIndex'
p3226
I3
sg23
I18
sg15
(lp3227
S'd'
asg30
Vm
sg17
S'Y'
sg14
I8
sg19
Nsg94
I3
sa(dp3228
g16
(lp3229
S'd'
asg94
I14
sS'.thisRepN'
p3230
I26
sg30
Vm
sg31
g32
sS'.thisTrialN'
p3231
I10
sS'.thisN'
p3232
I400
sS'.thisIndex'
p3233
I14
sg15
(lp3234
S'd'
asg17
S'Y'
sg14
I9
sa(dp3235
g16
(lp3236
S'd'
asg94
I3
sS'.thisRepN'
p3237
I26
sg30
Vm
sg31
g32
sS'.thisTrialN'
p3238
I11
sS'.thisN'
p3239
I401
sS'.thisIndex'
p3240
I3
sg15
(lp3241
S'd'
asg17
S'Y'
sg14
I9
sa(dp3242
g16
(lp3243
S'k'
asg18
S'N'
sS'.thisRepN'
p3244
I26
sg20
S'Y'
sg31
g32
sS'.thisTrialN'
p3245
I12
sS'.thisN'
p3246
I402
sS'.thisIndex'
p3247
I12
sg15
(lp3248
S'k'
asg30
Vm
sg17
S'Y'
sg14
I9
sg19
Nsg94
I12
sa(dp3249
g16
(lp3250
S'k'
asg18
S'Y'
sS'.thisRepN'
p3251
I26
sg20
S'Y'
sg31
g32
sS'.thisTrialN'
p3252
I13
sS'.thisN'
p3253
I403
sS'.thisIndex'
p3254
I7
sg15
(lp3255
S'k'
asg30
Vm
sg17
S'Y'
sg14
I9
sg19
(lp3256
S'space'
p3257
asg94
I7
sa(dp3258
g16
(lp3259
S'k'
asg18
S'N'
sS'.thisRepN'
p3260
I26
sg20
S'Y'
sg31
g32
sS'.thisTrialN'
p3261
I14
sS'.thisN'
p3262
I404
sS'.thisIndex'
p3263
I1
sg15
(lp3264
S'k'
asg30
Vm
sg17
S'Y'
sg14
I9
sg19
Nsg94
I1
sa(dp3265
g16
(lp3266
S'd'
asg18
S'N'
sS'.thisRepN'
p3267
I27
sg20
S'Y'
sg31
g32
sS'.thisTrialN'
p3268
I0
sS'.thisN'
p3269
I405
sS'.thisIndex'
p3270
I10
sg15
(lp3271
S'd'
asg30
Vm
sg17
S'Y'
sg14
I9
sg19
Nsg94
I10
sa(dp3272
g16
(lp3273
S'd'
asg18
S'Y'
sS'.thisRepN'
p3274
I27
sg20
S'Y'
sg31
g32
sS'.thisTrialN'
p3275
I1
sS'.thisN'
p3276
I406
sS'.thisIndex'
p3277
I8
sg15
(lp3278
S'd'
asg30
Vm
sg17
S'Y'
sg14
I9
sg19
(lp3279
S'space'
p3280
asg94
I8
sa(dp3281
g16
(lp3282
S'k'
asg18
S'Y'
sS'.thisRepN'
p3283
I27
sg20
S'Y'
sg31
g32
sS'.thisTrialN'
p3284
I2
sS'.thisN'
p3285
I407
sS'.thisIndex'
p3286
I4
sg15
(lp3287
S'd'
asg30
Vm
sg17
S'N'
sg14
I9
sg19
(lp3288
S'space'
p3289
asg94
I4
sa(dp3290
g16
(lp3291
S'd'
asg18
S'Y'
sS'.thisRepN'
p3292
I27
sg20
S'Y'
sg31
g32
sS'.thisTrialN'
p3293
I3
sS'.thisN'
p3294
I408
sS'.thisIndex'
p3295
I7
sg15
(lp3296
S'k'
asg30
Vm
sg17
S'N'
sg14
I9
sg19
(lp3297
S'space'
p3298
asg94
I7
sa(dp3299
g16
(lp3300
S'd'
asg18
S'N'
sS'.thisRepN'
p3301
I27
sg20
S'N'
sg31
g32
sS'.thisTrialN'
p3302
I4
sS'.thisN'
p3303
I409
sS'.thisIndex'
p3304
I9
sg15
(lp3305
S'k'
asg30
Vm
sg17
S'N'
sg14
I9
sg19
(lp3306
S'space'
p3307
asg94
I9
sa(dp3308
g16
(lp3309
S'k'
asg18
S'Y'
sS'.thisRepN'
p3310
I27
sg20
S'Y'
sg31
g32
sS'.thisTrialN'
p3311
I5
sS'.thisN'
p3312
I410
sS'.thisIndex'
p3313
I5
sg15
(lp3314
S'k'
asg30
Vm
sg17
S'Y'
sg14
I9
sg19
(lp3315
S'space'
p3316
asg94
I5
sa(dp3317
g16
(lp3318
S'd'
asg18
S'Y'
sS'.thisRepN'
p3319
I27
sg20
S'N'
sg31
g32
sS'.thisTrialN'
p3320
I6
sS'.thisN'
p3321
I411
sS'.thisIndex'
p3322
I7
sg15
(lp3323
S'd'
asg30
Vm
sg17
S'Y'
sg14
I9
sg19
Nsg94
I7
sa(dp3324
g16
(lp3325
S'd'
asg18
S'N'
sS'.thisRepN'
p3326
I27
sg20
S'Y'
sg31
g32
sS'.thisTrialN'
p3327
I7
sS'.thisN'
p3328
I412
sS'.thisIndex'
p3329
I4
sg15
(lp3330
S'd'
asg30
Vm
sg17
S'Y'
sg14
I9
sg19
Nsg94
I4
sa(dp3331
g16
(lp3332
S'd'
asg18
S'Y'
sS'.thisRepN'
p3333
I27
sg20
S'Y'
sg31
g32
sS'.thisTrialN'
p3334
I8
sS'.thisN'
p3335
I413
sS'.thisIndex'
p3336
I2
sg15
(lp3337
S'd'
asg30
Vm
sg17
S'Y'
sg14
I9
sg19
(lp3338
S'space'
p3339
asg94
I2
sa(dp3340
g16
(lp3341
S'k'
asg18
S'N'
sS'.thisRepN'
p3342
I27
sg20
S'Y'
sg31
g32
sS'.thisTrialN'
p3343
I9
sS'.thisN'
p3344
I414
sS'.thisIndex'
p3345
I11
sg15
(lp3346
S'k'
asg30
Vm
sg17
S'Y'
sg14
I9
sg19
Nsg94
I11
sa(dp3347
g16
(lp3348
S'k'
asg18
S'Y'
sS'.thisRepN'
p3349
I27
sg20
S'Y'
sg31
g32
sS'.thisTrialN'
p3350
I10
sS'.thisN'
p3351
I415
sS'.thisIndex'
p3352
I4
sg15
(lp3353
S'd'
asg30
Vm
sg17
S'N'
sg14
I9
sg19
(lp3354
S'space'
p3355
asg94
I4
sa(dp3356
g16
(lp3357
S'd'
asg18
S'N'
sS'.thisRepN'
p3358
I27
sg20
S'Y'
sg31
g32
sS'.thisTrialN'
p3359
I11
sS'.thisN'
p3360
I416
sS'.thisIndex'
p3361
I14
sg15
(lp3362
S'd'
asg30
Vm
sg17
S'Y'
sg14
I9
sg19
Nsg94
I14
sa(dp3363
g16
(lp3364
S'k'
asg18
S'Y'
sS'.thisRepN'
p3365
I27
sg20
S'Y'
sg31
g32
sS'.thisTrialN'
p3366
I12
sS'.thisN'
p3367
I417
sS'.thisIndex'
p3368
I3
sg15
(lp3369
S'k'
asg30
Vm
sg17
S'Y'
sg14
I9
sg19
(lp3370
S'space'
p3371
asg94
I3
sa(dp3372
g16
(lp3373
S'k'
asg18
S'N'
sS'.thisRepN'
p3374
I27
sg20
S'Y'
sg31
g32
sS'.thisTrialN'
p3375
I13
sS'.thisN'
p3376
I418
sS'.thisIndex'
p3377
I6
sg15
(lp3378
S'k'
asg30
Vm
sg17
S'Y'
sg14
I9
sg19
Nsg94
I6
sa(dp3379
g16
(lp3380
S'd'
asg18
S'Y'
sS'.thisRepN'
p3381
I27
sg20
S'Y'
sg31
g32
sS'.thisTrialN'
p3382
I14
sS'.thisN'
p3383
I419
sS'.thisIndex'
p3384
I10
sg15
(lp3385
S'd'
asg30
Vm
sg17
S'Y'
sg14
I9
sg19
(lp3386
S'space'
p3387
asg94
I10
sa(dp3388
g16
(lp3389
S'k'
asg18
S'N'
sS'.thisRepN'
p3390
I28
sg20
S'Y'
sg31
g32
sS'.thisTrialN'
p3391
I0
sS'.thisN'
p3392
I420
sS'.thisIndex'
p3393
I6
sg15
(lp3394
S'k'
asg30
Vm
sg17
S'Y'
sg14
I9
sg19
Nsg94
I6
sa(dp3395
g16
(lp3396
S'k'
asg18
S'Y'
sS'.thisRepN'
p3397
I28
sg20
S'Y'
sg31
g32
sS'.thisTrialN'
p3398
I1
sS'.thisN'
p3399
I421
sS'.thisIndex'
p3400
I0
sg15
(lp3401
S'd'
asg30
Vm
sg17
S'N'
sg14
I9
sg19
(lp3402
S'space'
p3403
asg94
I0
sa(dp3404
g16
(lp3405
S'k'
asg18
S'Y'
sS'.thisRepN'
p3406
I28
sg20
S'Y'
sg31
g32
sS'.thisTrialN'
p3407
I2
sS'.thisN'
p3408
I422
sS'.thisIndex'
p3409
I2
sg15
(lp3410
S'k'
asg30
Vm
sg17
S'Y'
sg14
I9
sg19
(lp3411
S'space'
p3412
asg94
I2
sa(dp3413
g16
(lp3414
S'k'
asg18
S'Y'
sS'.thisRepN'
p3415
I28
sg20
S'Y'
sg31
g32
sS'.thisTrialN'
p3416
I3
sS'.thisN'
p3417
I423
sS'.thisIndex'
p3418
I14
sg15
(lp3419
S'k'
asg30
Vm
sg17
S'Y'
sg14
I9
sg19
(lp3420
S'space'
p3421
asg94
I14
sa(dp3422
g16
(lp3423
S'd'
asg18
S'Y'
sS'.thisRepN'
p3424
I28
sg20
S'Y'
sg31
g32
sS'.thisTrialN'
p3425
I4
sS'.thisN'
p3426
I424
sS'.thisIndex'
p3427
I8
sg15
(lp3428
S'd'
asg30
Vm
sg17
S'Y'
sg14
I9
sg19
(lp3429
S'space'
p3430
asg94
I8
sa(dp3431
g16
(lp3432
S'k'
asg18
S'Y'
sS'.thisRepN'
p3433
I28
sg20
S'Y'
sg31
g32
sS'.thisTrialN'
p3434
I5
sS'.thisN'
p3435
I425
sS'.thisIndex'
p3436
I9
sg15
(lp3437
S'k'
asg30
Vm
sg17
S'Y'
sg14
I9
sg19
(lp3438
S'space'
p3439
asg94
I9
sa(dp3440
g16
(lp3441
S'd'
asg18
S'Y'
sS'.thisRepN'
p3442
I28
sg20
S'Y'
sg31
g32
sS'.thisTrialN'
p3443
I6
sS'.thisN'
p3444
I426
sS'.thisIndex'
p3445
I8
sg15
(lp3446
S'd'
asg30
Vm
sg17
S'Y'
sg14
I9
sg19
(lp3447
S'space'
p3448
asg94
I8
sa(dp3449
g16
(lp3450
S'd'
asg18
S'N'
sS'.thisRepN'
p3451
I28
sg20
S'Y'
sg31
g32
sS'.thisTrialN'
p3452
I7
sS'.thisN'
p3453
I427
sS'.thisIndex'
p3454
I5
sg15
(lp3455
S'd'
asg30
Vm
sg17
S'Y'
sg14
I9
sg19
Nsg94
I5
sa(dp3456
g16
(lp3457
S'k'
asg18
S'N'
sS'.thisRepN'
p3458
I28
sg20
S'N'
sg31
g32
sS'.thisTrialN'
p3459
I8
sS'.thisN'
p3460
I428
sS'.thisIndex'
p3461
I1
sg15
(lp3462
S'k'
asg30
Vm
sg17
S'Y'
sg14
I9
sg19
(lp3463
S'space'
p3464
asg94
I1
sa(dp3465
g16
(lp3466
S'd'
asg18
S'N'
sS'.thisRepN'
p3467
I28
sg20
S'Y'
sg31
g32
sS'.thisTrialN'
p3468
I9
sS'.thisN'
p3469
I429
sS'.thisIndex'
p3470
I12
sg15
(lp3471
S'd'
asg30
Vm
sg17
S'Y'
sg14
I9
sg19
Nsg94
I12
sa(dp3472
g16
(lp3473
S'k'
asg18
S'Y'
sS'.thisRepN'
p3474
I28
sg20
S'Y'
sg31
g32
sS'.thisTrialN'
p3475
I10
sS'.thisN'
p3476
I430
sS'.thisIndex'
p3477
I0
sg15
(lp3478
S'k'
asg30
Vm
sg17
S'Y'
sg14
I9
sg19
(lp3479
S'space'
p3480
asg94
I0
sa(dp3481
g16
(lp3482
S'd'
asg18
S'Y'
sS'.thisRepN'
p3483
I28
sg20
S'Y'
sg31
g32
sS'.thisTrialN'
p3484
I11
sS'.thisN'
p3485
I431
sS'.thisIndex'
p3486
I4
sg15
(lp3487
S'k'
asg30
Vm
sg17
S'N'
sg14
I9
sg19
(lp3488
S'space'
p3489
asg94
I4
sa(dp3490
g16
(lp3491
S'd'
asg18
S'N'
sS'.thisRepN'
p3492
I28
sg20
S'Y'
sg31
g32
sS'.thisTrialN'
p3493
I12
sS'.thisN'
p3494
I432
sS'.thisIndex'
p3495
I11
sg15
(lp3496
S'k'
asg30
Vm
sg17
S'N'
sg14
I9
sg19
Nsg94
I11
sa(dp3497
g16
(lp3498
S'k'
asg18
S'N'
sS'.thisRepN'
p3499
I28
sg20
S'Y'
sg31
g32
sS'.thisTrialN'
p3500
I13
sS'.thisN'
p3501
I433
sS'.thisIndex'
p3502
I4
sg15
(lp3503
S'd'
asg30
Vm
sg17
S'N'
sg14
I9
sg19
Nsg94
I4
sa(dp3504
g16
(lp3505
S'k'
asg18
S'Y'
sS'.thisRepN'
p3506
I28
sg20
S'Y'
sg31
g32
sS'.thisTrialN'
p3507
I14
sS'.thisN'
p3508
I434
sS'.thisIndex'
p3509
I9
sg15
(lp3510
S'k'
asg30
Vm
sg17
S'Y'
sg14
I9
sg19
(lp3511
S'space'
p3512
asg94
I9
sa(dp3513
g16
(lp3514
S'k'
asg18
S'N'
sS'.thisRepN'
p3515
I29
sg20
S'Y'
sg31
g32
sS'.thisTrialN'
p3516
I0
sS'.thisN'
p3517
I435
sS'.thisIndex'
p3518
I8
sg15
(lp3519
S'k'
asg30
Vm
sg17
S'Y'
sg14
I9
sg19
Nsg94
I8
sa(dp3520
g16
(lp3521
S'k'
asg18
S'N'
sS'.thisRepN'
p3522
I29
sg20
S'Y'
sg31
g32
sS'.thisTrialN'
p3523
I1
sS'.thisN'
p3524
I436
sS'.thisIndex'
p3525
I11
sg15
(lp3526
S'k'
asg30
Vm
sg17
S'Y'
sg14
I9
sg19
Nsg94
I11
sa(dp3527
g16
(lp3528
S'k'
asg18
S'N'
sS'.thisRepN'
p3529
I29
sg20
S'N'
sg31
g32
sS'.thisTrialN'
p3530
I2
sS'.thisN'
p3531
I437
sS'.thisIndex'
p3532
I10
sg15
(lp3533
S'k'
asg30
Vm
sg17
S'Y'
sg14
I9
sg19
(lp3534
S'space'
p3535
asg94
I10
sa(dp3536
g16
(lp3537
S'k'
asg18
S'N'
sS'.thisRepN'
p3538
I29
sg20
S'Y'
sg31
g32
sS'.thisTrialN'
p3539
I3
sS'.thisN'
p3540
I438
sS'.thisIndex'
p3541
I13
sg15
(lp3542
S'd'
asg30
Vm
sg17
S'N'
sg14
I9
sg19
Nsg94
I13
sa(dp3543
g16
(lp3544
S'd'
asg18
S'N'
sS'.thisRepN'
p3545
I29
sg20
S'Y'
sg31
g32
sS'.thisTrialN'
p3546
I4
sS'.thisN'
p3547
I439
sS'.thisIndex'
p3548
I13
sg15
(lp3549
S'k'
asg30
Vm
sg17
S'N'
sg14
I9
sg19
Nsg94
I13
sa(dp3550
g16
(lp3551
S'd'
asg18
S'Y'
sS'.thisRepN'
p3552
I29
sg20
S'Y'
sg31
g32
sS'.thisTrialN'
p3553
I5
sS'.thisN'
p3554
I440
sS'.thisIndex'
p3555
I6
sg15
(lp3556
S'd'
asg30
Vm
sg17
S'Y'
sg14
I9
sg19
(lp3557
S'space'
p3558
asg94
I6
sa(dp3559
g16
(lp3560
S'd'
asg18
S'N'
sS'.thisRepN'
p3561
I29
sg20
S'Y'
sg31
g32
sS'.thisTrialN'
p3562
I6
sS'.thisN'
p3563
I441
sS'.thisIndex'
p3564
I14
sg15
(lp3565
S'd'
asg30
Vm
sg17
S'Y'
sg14
I9
sg19
Nsg94
I14
sa(dp3566
g16
(lp3567
S'k'
asg18
S'N'
sS'.thisRepN'
p3568
I29
sg20
S'Y'
sg31
g32
sS'.thisTrialN'
p3569
I7
sS'.thisN'
p3570
I442
sS'.thisIndex'
p3571
I0
sg15
(lp3572
S'k'
asg30
Vm
sg17
S'Y'
sg14
I9
sg19
Nsg94
I0
sa(dp3573
g16
(lp3574
S'd'
asg18
S'Y'
sS'.thisRepN'
p3575
I29
sg20
S'Y'
sg31
g32
sS'.thisTrialN'
p3576
I8
sS'.thisN'
p3577
I443
sS'.thisIndex'
p3578
I6
sg15
(lp3579
S'd'
asg30
Vm
sg17
S'Y'
sg14
I9
sg19
(lp3580
S'space'
p3581
asg94
I6
sa(dp3582
g16
(lp3583
S'd'
asg18
S'Y'
sS'.thisRepN'
p3584
I29
sg20
S'Y'
sg31
g32
sS'.thisTrialN'
p3585
I9
sS'.thisN'
p3586
I444
sS'.thisIndex'
p3587
I8
sg15
(lp3588
S'd'
asg30
Vm
sg17
S'Y'
sg14
I9
sg19
(lp3589
S'space'
p3590
asg94
I8
sa(dp3591
g16
(lp3592
S'd'
asg18
S'Y'
sS'.thisRepN'
p3593
I29
sg20
S'Y'
sg31
g32
sS'.thisTrialN'
p3594
I10
sS'.thisN'
p3595
I445
sS'.thisIndex'
p3596
I4
sg15
(lp3597
S'd'
asg30
Vm
sg17
S'Y'
sg14
I9
sg19
(lp3598
S'space'
p3599
asg94
I4
sa(dp3600
g16
(lp3601
S'd'
asg18
S'Y'
sS'.thisRepN'
p3602
I29
sg20
S'Y'
sg31
g32
sS'.thisTrialN'
p3603
I11
sS'.thisN'
p3604
I446
sS'.thisIndex'
p3605
I14
sg15
(lp3606
S'd'
asg30
Vm
sg17
S'Y'
sg14
I9
sg19
(lp3607
S'space'
p3608
asg94
I14
sa(dp3609
g16
(lp3610
S'd'
asg18
S'Y'
sS'.thisRepN'
p3611
I29
sg20
S'Y'
sg31
g32
sS'.thisTrialN'
p3612
I12
sS'.thisN'
p3613
I447
sS'.thisIndex'
p3614
I10
sg15
(lp3615
S'd'
asg30
Vm
sg17
S'Y'
sg14
I9
sg19
(lp3616
S'space'
p3617
asg94
I10
sa(dp3618
g16
(lp3619
S'd'
asg18
S'N'
sS'.thisRepN'
p3620
I29
sg20
S'N'
sg31
g32
sS'.thisTrialN'
p3621
I13
sS'.thisN'
p3622
I448
sS'.thisIndex'
p3623
I10
sg15
(lp3624
S'k'
asg30
Vm
sg17
S'N'
sg14
I9
sg19
(lp3625
S'space'
p3626
asg94
I10
sa(dp3627
g16
(lp3628
S'k'
asg18
S'N'
sg22
I43
sS'.thisN'
p3629
I449
sg20
S'Y'
sg31
g32
sS'.thisTrialN'
p3630
I14
sS'.thisRepN'
p3631
I29
sg21
I39
sS'.thisIndex'
p3632
I5
sg23
I25
sg15
(lp3633
S'k'
asg30
Vm
sg17
S'Y'
sg14
I9
sg19
Nsg94
I5
sa(dp3634
g16
(lp3635
S'k'
asg94
I14
sS'.thisRepN'
p3636
I30
sg30
Vm
sg31
g32
sS'.thisTrialN'
p3637
I0
sS'.thisN'
p3638
I450
sS'.thisIndex'
p3639
I14
sg15
(lp3640
S'k'
asg17
S'Y'
sg14
I10
sa(dp3641
g16
(lp3642
S'k'
asg94
I10
sS'.thisRepN'
p3643
I30
sg30
Vm
sg31
g32
sS'.thisTrialN'
p3644
I1
sS'.thisN'
p3645
I451
sS'.thisIndex'
p3646
I10
sg15
(lp3647
S'd'
asg17
S'N'
sg14
I10
sa(dp3648
g16
(lp3649
S'k'
asg18
S'Y'
sS'.thisRepN'
p3650
I30
sg20
S'Y'
sg31
g32
sS'.thisTrialN'
p3651
I2
sS'.thisN'
p3652
I452
sS'.thisIndex'
p3653
I8
sg15
(lp3654
S'k'
asg30
Vm
sg17
S'Y'
sg14
I10
sg19
(lp3655
S'space'
p3656
asg94
I8
sa(dp3657
g16
(lp3658
S'd'
asg18
S'N'
sS'.thisRepN'
p3659
I30
sg20
S'Y'
sg31
g32
sS'.thisTrialN'
p3660
I3
sS'.thisN'
p3661
I453
sS'.thisIndex'
p3662
I13
sg15
(lp3663
S'd'
asg30
Vm
sg17
S'Y'
sg14
I10
sg19
Nsg94
I13
sa(dp3664
g16
(lp3665
S'k'
asg18
S'Y'
sS'.thisRepN'
p3666
I30
sg20
S'Y'
sg31
g32
sS'.thisTrialN'
p3667
I4
sS'.thisN'
p3668
I454
sS'.thisIndex'
p3669
I0
sg15
(lp3670
S'k'
asg30
Vm
sg17
S'Y'
sg14
I10
sg19
(lp3671
S'space'
p3672
asg94
I0
sa(dp3673
g16
(lp3674
S'k'
asg18
S'Y'
sS'.thisRepN'
p3675
I30
sg20
S'Y'
sg31
g32
sS'.thisTrialN'
p3676
I5
sS'.thisN'
p3677
I455
sS'.thisIndex'
p3678
I2
sg15
(lp3679
S'k'
asg30
Vm
sg17
S'Y'
sg14
I10
sg19
(lp3680
S'space'
p3681
asg94
I2
sa(dp3682
g16
(lp3683
S'd'
asg18
S'N'
sS'.thisRepN'
p3684
I30
sg20
S'Y'
sg31
g32
sS'.thisTrialN'
p3685
I6
sS'.thisN'
p3686
I456
sS'.thisIndex'
p3687
I11
sg15
(lp3688
S'd'
asg30
Vm
sg17
S'Y'
sg14
I10
sg19
Nsg94
I11
sa(dp3689
g16
(lp3690
S'k'
asg18
S'N'
sS'.thisRepN'
p3691
I30
sg20
S'Y'
sg31
g32
sS'.thisTrialN'
p3692
I7
sS'.thisN'
p3693
I457
sS'.thisIndex'
p3694
I4
sg15
(lp3695
S'k'
asg30
Vm
sg17
S'Y'
sg14
I10
sg19
Nsg94
I4
sa(dp3696
g16
(lp3697
S'd'
asg18
S'N'
sS'.thisRepN'
p3698
I30
sg20
S'Y'
sg31
g32
sS'.thisTrialN'
p3699
I8
sS'.thisN'
p3700
I458
sS'.thisIndex'
p3701
I2
sg15
(lp3702
S'd'
asg30
Vm
sg17
S'Y'
sg14
I10
sg19
Nsg94
I2
sa(dp3703
g16
(lp3704
S'k'
asg18
S'N'
sS'.thisRepN'
p3705
I30
sg20
S'Y'
sg31
g32
sS'.thisTrialN'
p3706
I9
sS'.thisN'
p3707
I459
sS'.thisIndex'
p3708
I3
sg15
(lp3709
S'k'
asg30
Vm
sg17
S'Y'
sg14
I10
sg19
Nsg94
I3
sa(dp3710
g16
(lp3711
S'd'
asg18
S'N'
sS'.thisRepN'
p3712
I30
sg20
S'Y'
sg31
g32
sS'.thisTrialN'
p3713
I10
sS'.thisN'
p3714
I460
sS'.thisIndex'
p3715
I0
sg15
(lp3716
S'k'
asg30
Vm
sg17
S'N'
sg14
I10
sg19
Nsg94
I0
sa(dp3717
g16
(lp3718
S'd'
asg18
S'Y'
sS'.thisRepN'
p3719
I30
sg20
S'Y'
sg31
g32
sS'.thisTrialN'
p3720
I11
sS'.thisN'
p3721
I461
sS'.thisIndex'
p3722
I11
sg15
(lp3723
S'd'
asg30
Vm
sg17
S'Y'
sg14
I10
sg19
(lp3724
S'space'
p3725
asg94
I11
sa(dp3726
g16
(lp3727
S'k'
asg18
S'N'
sS'.thisRepN'
p3728
I30
sg20
S'Y'
sg31
g32
sS'.thisTrialN'
p3729
I12
sS'.thisN'
p3730
I462
sS'.thisIndex'
p3731
I2
sg15
(lp3732
S'k'
asg30
Vm
sg17
S'Y'
sg14
I10
sg19
Nsg94
I2
sa(dp3733
g16
(lp3734
S'd'
asg18
S'Y'
sS'.thisRepN'
p3735
I30
sg20
S'Y'
sg31
g32
sS'.thisTrialN'
p3736
I13
sS'.thisN'
p3737
I463
sS'.thisIndex'
p3738
I2
sg15
(lp3739
S'k'
asg30
Vm
sg17
S'N'
sg14
I10
sg19
(lp3740
S'space'
p3741
asg94
I2
sa(dp3742
g16
(lp3743
S'd'
asg18
S'Y'
sS'.thisRepN'
p3744
I30
sg20
S'Y'
sg31
g32
sS'.thisTrialN'
p3745
I14
sS'.thisN'
p3746
I464
sS'.thisIndex'
p3747
I3
sg15
(lp3748
S'd'
asg30
Vm
sg17
S'Y'
sg14
I10
sg19
(lp3749
S'space'
p3750
asg94
I3
sa(dp3751
g16
(lp3752
S'd'
asg18
S'Y'
sS'.thisRepN'
p3753
I31
sg20
S'Y'
sg31
g32
sS'.thisTrialN'
p3754
I0
sS'.thisN'
p3755
I465
sS'.thisIndex'
p3756
I6
sg15
(lp3757
S'd'
asg30
Vm
sg17
S'Y'
sg14
I10
sg19
(lp3758
S'space'
p3759
asg94
I6
sa(dp3760
g16
(lp3761
S'd'
asg18
S'Y'
sS'.thisRepN'
p3762
I31
sg20
S'Y'
sg31
g32
sS'.thisTrialN'
p3763
I1
sS'.thisN'
p3764
I466
sS'.thisIndex'
p3765
I5
sg15
(lp3766
S'd'
asg30
Vm
sg17
S'Y'
sg14
I10
sg19
(lp3767
S'space'
p3768
asg94
I5
sa(dp3769
g16
(lp3770
S'd'
asg18
S'Y'
sS'.thisRepN'
p3771
I31
sg20
S'Y'
sg31
g32
sS'.thisTrialN'
p3772
I2
sS'.thisN'
p3773
I467
sS'.thisIndex'
p3774
I10
sg15
(lp3775
S'd'
asg30
Vm
sg17
S'Y'
sg14
I10
sg19
(lp3776
S'space'
p3777
asg94
I10
sa(dp3778
g16
(lp3779
S'k'
asg18
S'Y'
sS'.thisRepN'
p3780
I31
sg20
S'Y'
sg31
g32
sS'.thisTrialN'
p3781
I3
sS'.thisN'
p3782
I468
sS'.thisIndex'
p3783
I6
sg15
(lp3784
S'k'
asg30
Vm
sg17
S'Y'
sg14
I10
sg19
(lp3785
S'space'
p3786
asg94
I6
sa(dp3787
g16
(lp3788
S'k'
asg18
S'Y'
sS'.thisRepN'
p3789
I31
sg20
S'Y'
sg31
g32
sS'.thisTrialN'
p3790
I4
sS'.thisN'
p3791
I469
sS'.thisIndex'
p3792
I12
sg15
(lp3793
S'k'
asg30
Vm
sg17
S'Y'
sg14
I10
sg19
(lp3794
S'space'
p3795
asg94
I12
sa(dp3796
g16
(lp3797
S'k'
asg18
S'N'
sS'.thisRepN'
p3798
I31
sg20
S'Y'
sg31
g32
sS'.thisTrialN'
p3799
I5
sS'.thisN'
p3800
I470
sS'.thisIndex'
p3801
I4
sg15
(lp3802
S'd'
asg30
Vm
sg17
S'N'
sg14
I10
sg19
Nsg94
I4
sa(dp3803
g16
(lp3804
S'k'
asg18
S'Y'
sS'.thisRepN'
p3805
I31
sg20
S'Y'
sg31
g32
sS'.thisTrialN'
p3806
I6
sS'.thisN'
p3807
I471
sS'.thisIndex'
p3808
I8
sg15
(lp3809
S'k'
asg30
Vm
sg17
S'Y'
sg14
I10
sg19
(lp3810
S'space'
p3811
asg94
I8
sa(dp3812
g16
(lp3813
S'k'
asg18
S'N'
sS'.thisRepN'
p3814
I31
sg20
S'Y'
sg31
g32
sS'.thisTrialN'
p3815
I7
sS'.thisN'
p3816
I472
sS'.thisIndex'
p3817
I12
sg15
(lp3818
S'k'
asg30
Vm
sg17
S'Y'
sg14
I10
sg19
Nsg94
I12
sa(dp3819
g16
(lp3820
S'd'
asg18
S'N'
sS'.thisRepN'
p3821
I31
sg20
S'Y'
sg31
g32
sS'.thisTrialN'
p3822
I8
sS'.thisN'
p3823
I473
sS'.thisIndex'
p3824
I14
sg15
(lp3825
S'd'
asg30
Vm
sg17
S'Y'
sg14
I10
sg19
Nsg94
I14
sa(dp3826
g16
(lp3827
S'd'
asg18
S'N'
sS'.thisRepN'
p3828
I31
sg20
S'Y'
sg31
g32
sS'.thisTrialN'
p3829
I9
sS'.thisN'
p3830
I474
sS'.thisIndex'
p3831
I7
sg15
(lp3832
S'd'
asg30
Vm
sg17
S'Y'
sg14
I10
sg19
Nsg94
I7
sa(dp3833
g16
(lp3834
S'd'
asg18
S'N'
sS'.thisRepN'
p3835
I31
sg20
S'Y'
sg31
g32
sS'.thisTrialN'
p3836
I10
sS'.thisN'
p3837
I475
sS'.thisIndex'
p3838
I9
sg15
(lp3839
S'd'
asg30
Vm
sg17
S'Y'
sg14
I10
sg19
Nsg94
I9
sa(dp3840
g16
(lp3841
S'k'
asg18
S'N'
sS'.thisRepN'
p3842
I31
sg20
S'Y'
sg31
g32
sS'.thisTrialN'
p3843
I11
sS'.thisN'
p3844
I476
sS'.thisIndex'
p3845
I0
sg15
(lp3846
S'k'
asg30
Vm
sg17
S'Y'
sg14
I10
sg19
Nsg94
I0
sa(dp3847
g16
(lp3848
S'd'
asg18
S'Y'
sS'.thisRepN'
p3849
I31
sg20
S'Y'
sg31
g32
sS'.thisTrialN'
p3850
I12
sS'.thisN'
p3851
I477
sS'.thisIndex'
p3852
I10
sg15
(lp3853
S'd'
asg30
Vm
sg17
S'Y'
sg14
I10
sg19
(lp3854
S'space'
p3855
asg94
I10
sa(dp3856
g16
(lp3857
S'd'
asg18
S'N'
sS'.thisRepN'
p3858
I31
sg20
S'Y'
sg31
g32
sS'.thisTrialN'
p3859
I13
sS'.thisN'
p3860
I478
sS'.thisIndex'
p3861
I8
sg15
(lp3862
S'd'
asg30
Vm
sg17
S'Y'
sg14
I10
sg19
Nsg94
I8
sa(dp3863
g16
(lp3864
S'd'
asg18
S'Y'
sS'.thisRepN'
p3865
I31
sg20
S'Y'
sg31
g32
sS'.thisTrialN'
p3866
I14
sS'.thisN'
p3867
I479
sS'.thisIndex'
p3868
I3
sg15
(lp3869
S'd'
asg30
Vm
sg17
S'Y'
sg14
I10
sg19
(lp3870
S'space'
p3871
asg94
I3
sa(dp3872
g16
(lp3873
S'd'
asg18
S'Y'
sS'.thisRepN'
p3874
I32
sg20
S'Y'
sg31
g32
sS'.thisTrialN'
p3875
I0
sS'.thisN'
p3876
I480
sS'.thisIndex'
p3877
I0
sg15
(lp3878
S'd'
asg30
Vm
sg17
S'Y'
sg14
I10
sg19
(lp3879
S'space'
p3880
asg94
I0
sa(dp3881
g16
(lp3882
S'k'
asg18
S'Y'
sS'.thisRepN'
p3883
I32
sg20
S'Y'
sg31
g32
sS'.thisTrialN'
p3884
I1
sS'.thisN'
p3885
I481
sS'.thisIndex'
p3886
I3
sg15
(lp3887
S'k'
asg30
Vm
sg17
S'Y'
sg14
I10
sg19
(lp3888
S'space'
p3889
asg94
I3
sa(dp3890
g16
(lp3891
S'd'
asg18
S'N'
sS'.thisRepN'
p3892
I32
sg20
S'Y'
sg31
g32
sS'.thisTrialN'
p3893
I2
sS'.thisN'
p3894
I482
sS'.thisIndex'
p3895
I7
sg15
(lp3896
S'd'
asg30
Vm
sg17
S'Y'
sg14
I10
sg19
Nsg94
I7
sa(dp3897
g16
(lp3898
S'd'
asg18
S'N'
sS'.thisRepN'
p3899
I32
sg20
S'Y'
sg31
g32
sS'.thisTrialN'
p3900
I3
sS'.thisN'
p3901
I483
sS'.thisIndex'
p3902
I9
sg15
(lp3903
S'd'
asg30
Vm
sg17
S'Y'
sg14
I10
sg19
Nsg94
I9
sa(dp3904
g16
(lp3905
S'k'
asg18
S'N'
sS'.thisRepN'
p3906
I32
sg20
S'N'
sg31
g32
sS'.thisTrialN'
p3907
I4
sS'.thisN'
p3908
I484
sS'.thisIndex'
p3909
I13
sg15
(lp3910
S'k'
asg30
Vm
sg17
S'Y'
sg14
I10
sg19
(lp3911
S'space'
p3912
asg94
I13
sa(dp3913
g16
(lp3914
S'd'
asg18
S'N'
sS'.thisRepN'
p3915
I32
sg20
S'Y'
sg31
g32
sS'.thisTrialN'
p3916
I5
sS'.thisN'
p3917
I485
sS'.thisIndex'
p3918
I6
sg15
(lp3919
S'd'
asg30
Vm
sg17
S'Y'
sg14
I10
sg19
Nsg94
I6
sa(dp3920
g16
(lp3921
S'd'
asg18
S'N'
sS'.thisRepN'
p3922
I32
sg20
S'Y'
sg31
g32
sS'.thisTrialN'
p3923
I6
sS'.thisN'
p3924
I486
sS'.thisIndex'
p3925
I11
sg15
(lp3926
S'k'
asg30
Vm
sg17
S'N'
sg14
I10
sg19
Nsg94
I11
sa(dp3927
g16
(lp3928
S'd'
asg18
S'N'
sS'.thisRepN'
p3929
I32
sg20
S'Y'
sg31
g32
sS'.thisTrialN'
p3930
I7
sS'.thisN'
p3931
I487
sS'.thisIndex'
p3932
I6
sg15
(lp3933
S'd'
asg30
Vm
sg17
S'Y'
sg14
I10
sg19
Nsg94
I6
sa(dp3934
g16
(lp3935
S'k'
asg18
S'Y'
sS'.thisRepN'
p3936
I32
sg20
S'Y'
sg31
g32
sS'.thisTrialN'
p3937
I8
sS'.thisN'
p3938
I488
sS'.thisIndex'
p3939
I3
sg15
(lp3940
S'd'
asg30
Vm
sg17
S'N'
sg14
I10
sg19
(lp3941
S'space'
p3942
asg94
I3
sa(dp3943
g16
(lp3944
S'd'
asg18
S'Y'
sS'.thisRepN'
p3945
I32
sg20
S'Y'
sg31
g32
sS'.thisTrialN'
p3946
I9
sS'.thisN'
p3947
I489
sS'.thisIndex'
p3948
I12
sg15
(lp3949
S'd'
asg30
Vm
sg17
S'Y'
sg14
I10
sg19
(lp3950
S'space'
p3951
asg94
I12
sa(dp3952
g16
(lp3953
S'k'
asg18
S'N'
sS'.thisRepN'
p3954
I32
sg20
S'Y'
sg31
g32
sS'.thisTrialN'
p3955
I10
sS'.thisN'
p3956
I490
sS'.thisIndex'
p3957
I6
sg15
(lp3958
S'k'
asg30
Vm
sg17
S'Y'
sg14
I10
sg19
Nsg94
I6
sa(dp3959
g16
(lp3960
S'k'
asg18
S'Y'
sS'.thisRepN'
p3961
I32
sg20
S'Y'
sg31
g32
sS'.thisTrialN'
p3962
I11
sS'.thisN'
p3963
I491
sS'.thisIndex'
p3964
I9
sg15
(lp3965
S'k'
asg30
Vm
sg17
S'Y'
sg14
I10
sg19
(lp3966
S'space'
p3967
asg94
I9
sa(dp3968
g16
(lp3969
S'k'
asg18
S'Y'
sS'.thisRepN'
p3970
I32
sg20
S'Y'
sg31
g32
sS'.thisTrialN'
p3971
I12
sS'.thisN'
p3972
I492
sS'.thisIndex'
p3973
I2
sg15
(lp3974
S'k'
asg30
Vm
sg17
S'Y'
sg14
I10
sg19
(lp3975
S'space'
p3976
asg94
I2
sa(dp3977
g16
(lp3978
S'k'
asg18
S'N'
sS'.thisRepN'
p3979
I32
sg20
S'Y'
sg31
g32
sS'.thisTrialN'
p3980
I13
sS'.thisN'
p3981
I493
sS'.thisIndex'
p3982
I14
sg15
(lp3983
S'k'
asg30
Vm
sg17
S'Y'
sg14
I10
sg19
Nsg94
I14
sa(dp3984
g16
(lp3985
S'k'
asg18
S'N'
sS'.thisRepN'
p3986
I32
sg20
S'Y'
sg31
g32
sS'.thisTrialN'
p3987
I14
sS'.thisN'
p3988
I494
sS'.thisIndex'
p3989
I9
sg15
(lp3990
S'k'
asg30
Vm
sg17
S'Y'
sg14
I10
sg19
Nsg94
I9
sa(dp3991
g16
(lp3992
S'd'
asg18
S'N'
sS'.thisRepN'
p3993
I33
sg20
S'Y'
sg31
g32
sS'.thisTrialN'
p3994
I0
sS'.thisN'
p3995
I495
sS'.thisIndex'
p3996
I6
sg15
(lp3997
S'd'
asg30
Vm
sg17
S'Y'
sg14
I10
sg19
Nsg94
I6
sa(dp3998
g16
(lp3999
S'd'
asg18
S'Y'
sS'.thisRepN'
p4000
I33
sg20
S'Y'
sg31
g32
sS'.thisTrialN'
p4001
I1
sS'.thisN'
p4002
I496
sS'.thisIndex'
p4003
I4
sg15
(lp4004
S'd'
asg30
Vm
sg17
S'Y'
sg14
I10
sg19
(lp4005
S'space'
p4006
asg94
I4
sa(dp4007
g16
(lp4008
S'd'
asg18
S'Y'
sS'.thisRepN'
p4009
I33
sg20
S'Y'
sg31
g32
sS'.thisTrialN'
p4010
I2
sS'.thisN'
p4011
I497
sS'.thisIndex'
p4012
I13
sg15
(lp4013
S'd'
asg30
Vm
sg17
S'Y'
sg14
I10
sg19
(lp4014
S'space'
p4015
asg94
I13
sa(dp4016
g16
(lp4017
S'k'
asg18
S'Y'
sS'.thisRepN'
p4018
I33
sg20
S'Y'
sg31
g32
sS'.thisTrialN'
p4019
I3
sS'.thisN'
p4020
I498
sS'.thisIndex'
p4021
I11
sg15
(lp4022
S'd'
asg30
Vm
sg17
S'N'
sg14
I10
sg19
(lp4023
S'space'
p4024
asg94
I11
sa(dp4025
g16
(lp4026
S'k'
asg18
S'Y'
sg22
I47
sS'.thisN'
p4027
I499
sg20
S'Y'
sg31
g32
sS'.thisTrialN'
p4028
I4
sS'.thisRepN'
p4029
I33
sg21
I43
sS'.thisIndex'
p4030
I10
sg23
I24
sg15
(lp4031
S'k'
asg30
Vm
sg17
S'Y'
sg14
I10
sg19
(lp4032
S'space'
p4033
asg94
I10
sa(dp4034
g16
(lp4035
S'k'
asS'.thisIndex'
p4036
I3
sS'.thisRepN'
p4037
I33
sg26
S'Y'
sg30
Vm
sg31
g32
sS'.thisTrialN'
p4038
I5
sS'.thisN'
p4039
I500
sg25
S'Y'
sg24
S'Y'
sg15
(lp4040
S'd'
asg17
S'Y'
sg14
I11
sg94
I3
sa(dp4041
g16
(lp4042
S'd'
asS'.thisIndex'
p4043
I2
sS'.thisRepN'
p4044
I33
sg26
S'Y'
sg30
Vm
sg31
g32
sS'.thisTrialN'
p4045
I6
sS'.thisN'
p4046
I501
sg25
S'Y'
sg15
(lp4047
S'k'
asg17
S'Y'
sg14
I11
sg94
I2
sa(dp4048
g16
(lp4049
S'k'
asg18
S'Y'
sS'.thisRepN'
p4050
I33
sg26
S'Y'
sg20
S'Y'
sg31
g32
sS'.thisTrialN'
p4051
I7
sS'.thisN'
p4052
I502
sg25
S'Y'
sg15
(lp4053
S'd'
asg30
Vm
sg17
S'Y'
sg14
I11
sg19
(lp4054
S'space'
p4055
asg94
I13
sS'.thisIndex'
p4056
I13
sa(dp4057
g16
(lp4058
S'd'
asg18
S'N'
sS'.thisRepN'
p4059
I33
sg26
S'Y'
sg20
S'Y'
sg31
g32
sS'.thisTrialN'
p4060
I8
sS'.thisN'
p4061
I503
sg25
S'Y'
sg15
(lp4062
S'd'
asg30
Vm
sg17
S'N'
sg14
I11
sg19
Nsg94
I7
sS'.thisIndex'
p4063
I7
sa(dp4064
g16
(lp4065
S'k'
asg18
S'Y'
sS'.thisRepN'
p4066
I33
sg26
S'Y'
sg20
S'Y'
sg31
g32
sS'.thisTrialN'
p4067
I9
sS'.thisN'
p4068
I504
sg25
S'Y'
sg15
(lp4069
S'd'
asg30
Vm
sg17
S'Y'
sg14
I11
sg19
(lp4070
S'space'
p4071
asg94
I8
sS'.thisIndex'
p4072
I8
sa(dp4073
g16
(lp4074
S'd'
asg18
S'N'
sS'.thisRepN'
p4075
I33
sg26
S'Y'
sg20
S'Y'
sg31
g32
sS'.thisTrialN'
p4076
I10
sS'.thisN'
p4077
I505
sg25
S'Y'
sg15
(lp4078
S'k'
asg30
Vm
sg17
S'Y'
sg14
I11
sg19
Nsg94
I0
sS'.thisIndex'
p4079
I0
sa(dp4080
g16
(lp4081
S'd'
asg18
S'N'
sS'.thisRepN'
p4082
I33
sg26
S'Y'
sg20
S'Y'
sg31
g32
sS'.thisTrialN'
p4083
I11
sS'.thisN'
p4084
I506
sg25
S'Y'
sg15
(lp4085
S'k'
asg30
Vm
sg17
S'Y'
sg14
I11
sg19
Nsg94
I2
sS'.thisIndex'
p4086
I2
sa(dp4087
g16
(lp4088
S'k'
asg18
S'N'
sS'.thisRepN'
p4089
I33
sg26
S'Y'
sg20
S'Y'
sg31
g32
sS'.thisTrialN'
p4090
I12
sS'.thisN'
p4091
I507
sg25
S'Y'
sg15
(lp4092
S'd'
asg30
Vm
sg17
S'Y'
sg14
I11
sg19
Nsg94
I5
sS'.thisIndex'
p4093
I5
sa(dp4094
g16
(lp4095
S'k'
asg18
S'N'
sS'.thisRepN'
p4096
I33
sg26
S'Y'
sg20
S'Y'
sg31
g32
sS'.thisTrialN'
p4097
I13
sS'.thisN'
p4098
I508
sg25
S'Y'
sg15
(lp4099
S'k'
asg30
Vm
sg17
S'N'
sg14
I11
sg19
Nsg94
I9
sS'.thisIndex'
p4100
I9
sa(dp4101
g16
(lp4102
S'k'
asg18
S'N'
sS'.thisRepN'
p4103
I33
sg26
S'Y'
sg20
S'N'
sg31
g32
sS'.thisTrialN'
p4104
I14
sS'.thisN'
p4105
I509
sg25
S'Y'
sg15
(lp4106
S'd'
asg30
Vm
sg17
S'Y'
sg14
I11
sg19
(lp4107
S'space'
p4108
asg94
I7
sS'.thisIndex'
p4109
I7
sa(dp4110
g16
(lp4111
S'd'
asg18
S'N'
sS'.thisRepN'
p4112
I34
sg26
S'Y'
sg20
S'Y'
sg31
g32
sS'.thisTrialN'
p4113
I0
sS'.thisN'
p4114
I510
sg25
S'Y'
sg15
(lp4115
S'd'
asg30
Vm
sg17
S'N'
sg14
I11
sg19
Nsg94
I10
sS'.thisIndex'
p4116
I10
sa(dp4117
g16
(lp4118
S'k'
asg18
S'Y'
sS'.thisRepN'
p4119
I34
sg26
S'Y'
sg20
S'Y'
sg31
g32
sS'.thisTrialN'
p4120
I1
sS'.thisN'
p4121
I511
sg25
S'Y'
sg15
(lp4122
S'd'
asg30
Vm
sg17
S'Y'
sg14
I11
sg19
(lp4123
S'space'
p4124
asg94
I9
sS'.thisIndex'
p4125
I9
sa(dp4126
g16
(lp4127
S'd'
asg18
S'Y'
sS'.thisRepN'
p4128
I34
sg26
S'Y'
sg20
S'Y'
sg31
g32
sS'.thisTrialN'
p4129
I2
sS'.thisN'
p4130
I512
sg25
S'Y'
sg15
(lp4131
S'k'
asg30
Vm
sg17
S'Y'
sg14
I11
sg19
(lp4132
S'space'
p4133
asg94
I2
sS'.thisIndex'
p4134
I2
sa(dp4135
g16
(lp4136
S'd'
asg18
S'N'
sS'.thisRepN'
p4137
I34
sg26
S'Y'
sg20
S'Y'
sg31
g32
sS'.thisTrialN'
p4138
I3
sS'.thisN'
p4139
I513
sg25
S'Y'
sg15
(lp4140
S'd'
asg30
Vm
sg17
S'N'
sg14
I11
sg19
Nsg94
I0
sS'.thisIndex'
p4141
I0
sa(dp4142
g16
(lp4143
S'k'
asg18
S'Y'
sS'.thisRepN'
p4144
I34
sg26
S'Y'
sg20
S'Y'
sg31
g32
sS'.thisTrialN'
p4145
I4
sS'.thisN'
p4146
I514
sg25
S'Y'
sg15
(lp4147
S'd'
asg30
Vm
sg17
S'Y'
sg14
I11
sg19
(lp4148
S'space'
p4149
asg94
I2
sS'.thisIndex'
p4150
I2
sa(dp4151
g16
(lp4152
S'd'
asg18
S'Y'
sS'.thisRepN'
p4153
I34
sg26
S'Y'
sg20
S'N'
sg31
g32
sS'.thisTrialN'
p4154
I5
sS'.thisN'
p4155
I515
sg25
S'Y'
sg15
(lp4156
S'd'
asg30
Vm
sg17
S'N'
sg14
I11
sg19
Nsg94
I2
sS'.thisIndex'
p4157
I2
sa(dp4158
g16
(lp4159
S'd'
asg18
S'N'
sS'.thisRepN'
p4160
I34
sg26
S'Y'
sg20
S'N'
sg31
g32
sS'.thisTrialN'
p4161
I6
sS'.thisN'
p4162
I516
sg25
S'Y'
sg15
(lp4163
S'k'
asg30
Vm
sg17
S'Y'
sg14
I11
sg19
(lp4164
S'space'
p4165
asg94
I0
sS'.thisIndex'
p4166
I0
sa(dp4167
g16
(lp4168
S'k'
asg18
S'Y'
sS'.thisRepN'
p4169
I34
sg26
S'Y'
sg20
S'Y'
sg31
g32
sS'.thisTrialN'
p4170
I7
sS'.thisN'
p4171
I517
sg25
S'Y'
sg15
(lp4172
S'd'
asg30
Vm
sg17
S'Y'
sg14
I11
sg19
(lp4173
S'space'
p4174
asg94
I9
sS'.thisIndex'
p4175
I9
sa(dp4176
g16
(lp4177
S'k'
asg18
S'Y'
sS'.thisRepN'
p4178
I34
sg26
S'Y'
sg20
S'Y'
sg31
g32
sS'.thisTrialN'
p4179
I8
sS'.thisN'
p4180
I518
sg25
S'Y'
sg15
(lp4181
S'd'
asg30
Vm
sg17
S'Y'
sg14
I11
sg19
(lp4182
S'space'
p4183
asg94
I13
sS'.thisIndex'
p4184
I13
sa(dp4185
g16
(lp4186
S'd'
asg18
S'N'
sS'.thisRepN'
p4187
I34
sg26
S'Y'
sg20
S'Y'
sg31
g32
sS'.thisTrialN'
p4188
I9
sS'.thisN'
p4189
I519
sg25
S'Y'
sg15
(lp4190
S'k'
asg30
Vm
sg17
S'Y'
sg14
I11
sg19
Nsg94
I12
sS'.thisIndex'
p4191
I12
sa(dp4192
g16
(lp4193
S'k'
asg18
S'Y'
sS'.thisRepN'
p4194
I34
sg26
S'Y'
sg20
S'Y'
sg31
g32
sS'.thisTrialN'
p4195
I10
sS'.thisN'
p4196
I520
sg25
S'Y'
sg15
(lp4197
S'k'
asg30
Vm
sg17
S'N'
sg14
I11
sg19
(lp4198
S'space'
p4199
asg94
I0
sS'.thisIndex'
p4200
I0
sa(dp4201
g16
(lp4202
S'd'
asg18
S'Y'
sS'.thisRepN'
p4203
I34
sg26
S'Y'
sg20
S'Y'
sg31
g32
sS'.thisTrialN'
p4204
I11
sS'.thisN'
p4205
I521
sg25
S'Y'
sg15
(lp4206
S'k'
asg30
Vm
sg17
S'Y'
sg14
I11
sg19
(lp4207
S'space'
p4208
asg94
I13
sS'.thisIndex'
p4209
I13
sa(dp4210
g16
(lp4211
S'k'
asg18
S'Y'
sS'.thisRepN'
p4212
I34
sg26
S'Y'
sg20
S'Y'
sg31
g32
sS'.thisTrialN'
p4213
I12
sS'.thisN'
p4214
I522
sg25
S'Y'
sg15
(lp4215
S'k'
asg30
Vm
sg17
S'N'
sg14
I11
sg19
(lp4216
S'space'
p4217
asg94
I3
sS'.thisIndex'
p4218
I3
sa(dp4219
g16
(lp4220
S'k'
asg18
S'Y'
sS'.thisRepN'
p4221
I34
sg26
S'Y'
sg20
S'Y'
sg31
g32
sS'.thisTrialN'
p4222
I13
sS'.thisN'
p4223
I523
sg25
S'Y'
sg15
(lp4224
S'd'
asg30
Vm
sg17
S'Y'
sg14
I11
sg19
(lp4225
S'space'
p4226
asg94
I3
sS'.thisIndex'
p4227
I3
sa(dp4228
g16
(lp4229
S'd'
asg18
S'Y'
sS'.thisRepN'
p4230
I34
sg26
S'Y'
sg20
S'Y'
sg31
g32
sS'.thisTrialN'
p4231
I14
sS'.thisN'
p4232
I524
sg25
S'Y'
sg15
(lp4233
S'k'
asg30
Vm
sg17
S'Y'
sg14
I11
sg19
(lp4234
S'space'
p4235
asg94
I11
sS'.thisIndex'
p4236
I11
sa(dp4237
g16
(lp4238
S'd'
asg18
S'N'
sS'.thisRepN'
p4239
I35
sg26
S'Y'
sg20
S'Y'
sg31
g32
sS'.thisTrialN'
p4240
I0
sS'.thisN'
p4241
I525
sg25
S'Y'
sg15
(lp4242
S'k'
asg30
Vm
sg17
S'Y'
sg14
I11
sg19
Nsg94
I8
sS'.thisIndex'
p4243
I8
sa(dp4244
g16
(lp4245
S'k'
asg18
S'N'
sS'.thisRepN'
p4246
I35
sg26
S'Y'
sg20
S'Y'
sg31
g32
sS'.thisTrialN'
p4247
I1
sS'.thisN'
p4248
I526
sg25
S'Y'
sg15
(lp4249
S'd'
asg30
Vm
sg17
S'Y'
sg14
I11
sg19
Nsg94
I9
sS'.thisIndex'
p4250
I9
sa(dp4251
g16
(lp4252
S'd'
asg18
S'Y'
sS'.thisRepN'
p4253
I35
sg26
S'Y'
sg20
S'Y'
sg31
g32
sS'.thisTrialN'
p4254
I2
sS'.thisN'
p4255
I527
sg25
S'Y'
sg15
(lp4256
S'k'
asg30
Vm
sg17
S'Y'
sg14
I11
sg19
(lp4257
S'space'
p4258
asg94
I5
sS'.thisIndex'
p4259
I5
sa(dp4260
g16
(lp4261
S'd'
asg18
S'Y'
sS'.thisRepN'
p4262
I35
sg26
S'Y'
sg20
S'Y'
sg31
g32
sS'.thisTrialN'
p4263
I3
sS'.thisN'
p4264
I528
sg25
S'Y'
sg15
(lp4265
S'k'
asg30
Vm
sg17
S'Y'
sg14
I11
sg19
(lp4266
S'space'
p4267
asg94
I12
sS'.thisIndex'
p4268
I12
sa(dp4269
g16
(lp4270
S'd'
asg18
S'N'
sS'.thisRepN'
p4271
I35
sg26
S'Y'
sg20
S'Y'
sg31
g32
sS'.thisTrialN'
p4272
I4
sS'.thisN'
p4273
I529
sg25
S'Y'
sg15
(lp4274
S'k'
asg30
Vm
sg17
S'Y'
sg14
I11
sg19
Nsg94
I4
sS'.thisIndex'
p4275
I4
sa(dp4276
g16
(lp4277
S'd'
asg18
S'N'
sS'.thisRepN'
p4278
I35
sg26
S'Y'
sg20
S'Y'
sg31
g32
sS'.thisTrialN'
p4279
I5
sS'.thisN'
p4280
I530
sg25
S'Y'
sg15
(lp4281
S'd'
asg30
Vm
sg17
S'N'
sg14
I11
sg19
Nsg94
I11
sS'.thisIndex'
p4282
I11
sa(dp4283
g16
(lp4284
S'k'
asg18
S'Y'
sS'.thisRepN'
p4285
I35
sg26
S'Y'
sg20
S'Y'
sg31
g32
sS'.thisTrialN'
p4286
I6
sS'.thisN'
p4287
I531
sg25
S'Y'
sg15
(lp4288
S'k'
asg30
Vm
sg17
S'N'
sg14
I11
sg19
(lp4289
S'space'
p4290
asg94
I5
sS'.thisIndex'
p4291
I5
sa(dp4292
g16
(lp4293
S'k'
asg18
S'N'
sS'.thisRepN'
p4294
I35
sg26
S'Y'
sg20
S'Y'
sg31
g32
sS'.thisTrialN'
p4295
I7
sS'.thisN'
p4296
I532
sg25
S'Y'
sg15
(lp4297
S'd'
asg30
Vm
sg17
S'Y'
sg14
I11
sg19
Nsg94
I13
sS'.thisIndex'
p4298
I13
sa(dp4299
g16
(lp4300
S'd'
asg18
S'Y'
sS'.thisRepN'
p4301
I35
sg26
S'Y'
sg20
S'Y'
sg31
g32
sS'.thisTrialN'
p4302
I8
sS'.thisN'
p4303
I533
sg25
S'Y'
sg15
(lp4304
S'k'
asg30
Vm
sg17
S'Y'
sg14
I11
sg19
(lp4305
S'space'
p4306
asg94
I10
sS'.thisIndex'
p4307
I10
sa(dp4308
g16
(lp4309
S'd'
asg18
S'N'
sS'.thisRepN'
p4310
I35
sg26
S'Y'
sg20
S'Y'
sg31
g32
sS'.thisTrialN'
p4311
I9
sS'.thisN'
p4312
I534
sg25
S'Y'
sg15
(lp4313
S'k'
asg30
Vm
sg17
S'Y'
sg14
I11
sg19
Nsg94
I0
sS'.thisIndex'
p4314
I0
sa(dp4315
g16
(lp4316
S'd'
asg18
S'N'
sS'.thisRepN'
p4317
I35
sg26
S'Y'
sg20
S'Y'
sg31
g32
sS'.thisTrialN'
p4318
I10
sS'.thisN'
p4319
I535
sg25
S'Y'
sg15
(lp4320
S'k'
asg30
Vm
sg17
S'Y'
sg14
I11
sg19
Nsg94
I14
sS'.thisIndex'
p4321
I14
sa(dp4322
g16
(lp4323
S'k'
asg18
S'N'
sS'.thisRepN'
p4324
I35
sg26
S'Y'
sg20
S'Y'
sg31
g32
sS'.thisTrialN'
p4325
I11
sS'.thisN'
p4326
I536
sg25
S'Y'
sg15
(lp4327
S'd'
asg30
Vm
sg17
S'Y'
sg14
I11
sg19
Nsg94
I7
sS'.thisIndex'
p4328
I7
sa(dp4329
g16
(lp4330
S'd'
asg18
S'Y'
sS'.thisRepN'
p4331
I35
sg26
S'Y'
sg20
S'N'
sg31
g32
sS'.thisTrialN'
p4332
I12
sS'.thisN'
p4333
I537
sg25
S'Y'
sg15
(lp4334
S'k'
asg30
Vm
sg17
S'Y'
sg14
I11
sg19
Nsg94
I8
sS'.thisIndex'
p4335
I8
sa(dp4336
g16
(lp4337
S'k'
asg18
S'Y'
sS'.thisRepN'
p4338
I35
sg26
S'Y'
sg20
S'Y'
sg31
g32
sS'.thisTrialN'
p4339
I13
sS'.thisN'
p4340
I538
sg25
S'Y'
sg15
(lp4341
S'd'
asg30
Vm
sg17
S'Y'
sg14
I11
sg19
(lp4342
S'space'
p4343
asg94
I12
sS'.thisIndex'
p4344
I12
sa(dp4345
g16
(lp4346
S'd'
asg18
S'N'
sS'.thisRepN'
p4347
I35
sg26
S'Y'
sg20
S'Y'
sg31
g32
sS'.thisTrialN'
p4348
I14
sS'.thisN'
p4349
I539
sg25
S'Y'
sg15
(lp4350
S'k'
asg30
Vm
sg17
S'Y'
sg14
I11
sg19
Nsg94
I4
sS'.thisIndex'
p4351
I4
sa(dp4352
g16
(lp4353
S'd'
asg18
S'N'
sS'.thisRepN'
p4354
I36
sg26
S'Y'
sg20
S'Y'
sg31
g32
sS'.thisTrialN'
p4355
I0
sS'.thisN'
p4356
I540
sg25
S'Y'
sg15
(lp4357
S'k'
asg30
Vm
sg17
S'Y'
sg14
I11
sg19
Nsg94
I0
sS'.thisIndex'
p4358
I0
sa(dp4359
g16
(lp4360
S'k'
asg18
S'Y'
sS'.thisRepN'
p4361
I36
sg26
S'Y'
sg20
S'Y'
sg31
g32
sS'.thisTrialN'
p4362
I1
sS'.thisN'
p4363
I541
sg25
S'Y'
sg15
(lp4364
S'd'
asg30
Vm
sg17
S'Y'
sg14
I11
sg19
(lp4365
S'space'
p4366
asg94
I9
sS'.thisIndex'
p4367
I9
sa(dp4368
g16
(lp4369
S'd'
asg18
S'N'
sS'.thisRepN'
p4370
I36
sg26
S'Y'
sg20
S'Y'
sg31
g32
sS'.thisTrialN'
p4371
I2
sS'.thisN'
p4372
I542
sg25
S'Y'
sg15
(lp4373
S'k'
asg30
Vm
sg17
S'Y'
sg14
I11
sg19
Nsg94
I10
sS'.thisIndex'
p4374
I10
sa(dp4375
g16
(lp4376
S'k'
asg18
S'Y'
sS'.thisRepN'
p4377
I36
sg26
S'Y'
sg20
S'Y'
sg31
g32
sS'.thisTrialN'
p4378
I3
sS'.thisN'
p4379
I543
sg25
S'Y'
sg15
(lp4380
S'd'
asg30
Vm
sg17
S'Y'
sg14
I11
sg19
(lp4381
S'space'
p4382
asg94
I6
sS'.thisIndex'
p4383
I6
sa(dp4384
g16
(lp4385
S'd'
asg18
S'N'
sS'.thisRepN'
p4386
I36
sg26
S'Y'
sg20
S'Y'
sg31
g32
sS'.thisTrialN'
p4387
I4
sS'.thisN'
p4388
I544
sg25
S'Y'
sg15
(lp4389
S'k'
asg30
Vm
sg17
S'Y'
sg14
I11
sg19
Nsg94
I4
sS'.thisIndex'
p4390
I4
sa(dp4391
g16
(lp4392
S'd'
asg18
S'Y'
sS'.thisRepN'
p4393
I36
sg26
S'Y'
sg20
S'Y'
sg31
g32
sS'.thisTrialN'
p4394
I5
sS'.thisN'
p4395
I545
sg25
S'Y'
sg15
(lp4396
S'k'
asg30
Vm
sg17
S'Y'
sg14
I11
sg19
(lp4397
S'space'
p4398
asg94
I5
sS'.thisIndex'
p4399
I5
sa(dp4400
g16
(lp4401
S'k'
asg18
S'Y'
sS'.thisRepN'
p4402
I36
sg26
S'Y'
sg20
S'Y'
sg31
g32
sS'.thisTrialN'
p4403
I6
sS'.thisN'
p4404
I546
sg25
S'Y'
sg15
(lp4405
S'd'
asg30
Vm
sg17
S'Y'
sg14
I11
sg19
(lp4406
S'space'
p4407
asg94
I14
sS'.thisIndex'
p4408
I14
sa(dp4409
g16
(lp4410
S'd'
asg18
S'N'
sS'.thisRepN'
p4411
I36
sg26
S'Y'
sg20
S'Y'
sg31
g32
sS'.thisTrialN'
p4412
I7
sS'.thisN'
p4413
I547
sg25
S'Y'
sg15
(lp4414
S'k'
asg30
Vm
sg17
S'Y'
sg14
I11
sg19
Nsg94
I10
sS'.thisIndex'
p4415
I10
sa(dp4416
g16
(lp4417
S'd'
asg18
S'N'
sS'.thisRepN'
p4418
I36
sg26
S'Y'
sg20
S'N'
sg31
g32
sS'.thisTrialN'
p4419
I8
sS'.thisN'
p4420
I548
sg25
S'Y'
sg15
(lp4421
S'k'
asg30
Vm
sg17
S'Y'
sg14
I11
sg19
(lp4422
S'space'
p4423
asg94
I10
sS'.thisIndex'
p4424
I10
sa(dp4425
g16
(lp4426
S'k'
asg18
S'Y'
sg22
I43
sg26
S'Y'
sS'.thisN'
p4427
I549
sg20
S'Y'
sg31
g32
sS'.thisTrialN'
p4428
I9
sS'.thisRepN'
p4429
I36
sg21
I40
sg25
S'Y'
sg23
I24
sg15
(lp4430
S'k'
asg30
Vm
sg17
S'N'
sg14
I11
sg19
(lp4431
S'space'
p4432
asg94
I2
sS'.thisIndex'
p4433
I2
sa(dp4434
g16
(lp4435
S'k'
asS'.thisIndex'
p4436
I6
sS'.thisRepN'
p4437
I36
sg26
S'Y'
sg30
Vm
sg31
g32
sS'.thisTrialN'
p4438
I10
sS'.thisN'
p4439
I550
sg25
S'Y'
sg15
(lp4440
S'd'
asg17
S'Y'
sg14
I12
sg94
I6
sa(dp4441
g16
(lp4442
S'd'
asS'.thisIndex'
p4443
I0
sS'.thisRepN'
p4444
I36
sg26
S'Y'
sg30
Vm
sg31
g32
sS'.thisTrialN'
p4445
I11
sS'.thisN'
p4446
I551
sg25
S'Y'
sg15
(lp4447
S'k'
asg17
S'Y'
sg14
I12
sg94
I0
sa(dp4448
g16
(lp4449
S'k'
asg18
S'Y'
sS'.thisRepN'
p4450
I36
sg26
S'Y'
sg20
S'Y'
sg31
g32
sS'.thisTrialN'
p4451
I12
sS'.thisN'
p4452
I552
sg25
S'Y'
sg15
(lp4453
S'd'
asg30
Vm
sg17
S'Y'
sg14
I12
sg19
(lp4454
S'space'
p4455
asg94
I3
sS'.thisIndex'
p4456
I3
sa(dp4457
g16
(lp4458
S'd'
asg18
S'Y'
sS'.thisRepN'
p4459
I36
sg26
S'Y'
sg20
S'Y'
sg31
g32
sS'.thisTrialN'
p4460
I13
sS'.thisN'
p4461
I553
sg25
S'Y'
sg15
(lp4462
S'k'
asg30
Vm
sg17
S'Y'
sg14
I12
sg19
(lp4463
S'space'
p4464
asg94
I4
sS'.thisIndex'
p4465
I4
sa(dp4466
g16
(lp4467
S'd'
asg18
S'N'
sS'.thisRepN'
p4468
I36
sg26
S'Y'
sg20
S'Y'
sg31
g32
sS'.thisTrialN'
p4469
I14
sS'.thisN'
p4470
I554
sg25
S'Y'
sg15
(lp4471
S'k'
asg30
Vm
sg17
S'Y'
sg14
I12
sg19
Nsg94
I1
sS'.thisIndex'
p4472
I1
sa(dp4473
g16
(lp4474
S'd'
asg18
S'Y'
sS'.thisRepN'
p4475
I37
sg26
S'Y'
sg20
S'Y'
sg31
g32
sS'.thisTrialN'
p4476
I0
sS'.thisN'
p4477
I555
sg25
S'Y'
sg15
(lp4478
S'd'
asg30
Vm
sg17
S'N'
sg14
I12
sg19
(lp4479
S'space'
p4480
asg94
I1
sS'.thisIndex'
p4481
I1
sa(dp4482
g16
(lp4483
S'd'
asg18
S'N'
sS'.thisRepN'
p4484
I37
sg26
S'Y'
sg20
S'Y'
sg31
g32
sS'.thisTrialN'
p4485
I1
sS'.thisN'
p4486
I556
sg25
S'Y'
sg15
(lp4487
S'k'
asg30
Vm
sg17
S'Y'
sg14
I12
sg19
Nsg94
I2
sS'.thisIndex'
p4488
I2
sa(dp4489
g16
(lp4490
S'd'
asg18
S'Y'
sS'.thisRepN'
p4491
I37
sg26
S'Y'
sg20
S'Y'
sg31
g32
sS'.thisTrialN'
p4492
I2
sS'.thisN'
p4493
I557
sg25
S'Y'
sg15
(lp4494
S'd'
asg30
Vm
sg17
S'N'
sg14
I12
sg19
(lp4495
S'space'
p4496
asg94
I5
sS'.thisIndex'
p4497
I5
sa(dp4498
g16
(lp4499
S'd'
asg18
S'Y'
sS'.thisRepN'
p4500
I37
sg26
S'Y'
sg20
S'Y'
sg31
g32
sS'.thisTrialN'
p4501
I3
sS'.thisN'
p4502
I558
sg25
S'Y'
sg15
(lp4503
S'd'
asg30
Vm
sg17
S'N'
sg14
I12
sg19
(lp4504
S'space'
p4505
asg94
I0
sS'.thisIndex'
p4506
I0
sa(dp4507
g16
(lp4508
S'd'
asg18
S'N'
sS'.thisRepN'
p4509
I37
sg26
S'Y'
sg20
S'Y'
sg31
g32
sS'.thisTrialN'
p4510
I4
sS'.thisN'
p4511
I559
sg25
S'Y'
sg15
(lp4512
S'k'
asg30
Vm
sg17
S'Y'
sg14
I12
sg19
Nsg94
I3
sS'.thisIndex'
p4513
I3
sa(dp4514
g16
(lp4515
S'd'
asg18
S'Y'
sS'.thisRepN'
p4516
I37
sg26
S'Y'
sg20
S'N'
sg31
g32
sS'.thisTrialN'
p4517
I5
sS'.thisN'
p4518
I560
sg25
S'Y'
sg15
(lp4519
S'd'
asg30
Vm
sg17
S'N'
sg14
I12
sg19
Nsg94
I13
sS'.thisIndex'
p4520
I13
sa(dp4521
g16
(lp4522
S'k'
asg18
S'N'
sS'.thisRepN'
p4523
I37
sg26
S'Y'
sg20
S'Y'
sg31
g32
sS'.thisTrialN'
p4524
I6
sS'.thisN'
p4525
I561
sg25
S'Y'
sg15
(lp4526
S'd'
asg30
Vm
sg17
S'Y'
sg14
I12
sg19
Nsg94
I4
sS'.thisIndex'
p4527
I4
sa(dp4528
g16
(lp4529
S'k'
asg18
S'N'
sS'.thisRepN'
p4530
I37
sg26
S'Y'
sg20
S'Y'
sg31
g32
sS'.thisTrialN'
p4531
I7
sS'.thisN'
p4532
I562
sg25
S'Y'
sg15
(lp4533
S'k'
asg30
Vm
sg17
S'N'
sg14
I12
sg19
Nsg94
I7
sS'.thisIndex'
p4534
I7
sa(dp4535
g16
(lp4536
S'k'
asg18
S'N'
sS'.thisRepN'
p4537
I37
sg26
S'Y'
sg20
S'Y'
sg31
g32
sS'.thisTrialN'
p4538
I8
sS'.thisN'
p4539
I563
sg25
S'Y'
sg15
(lp4540
S'd'
asg30
Vm
sg17
S'Y'
sg14
I12
sg19
Nsg94
I0
sS'.thisIndex'
p4541
I0
sa(dp4542
g16
(lp4543
S'd'
asg18
S'Y'
sS'.thisRepN'
p4544
I37
sg26
S'Y'
sg20
S'Y'
sg31
g32
sS'.thisTrialN'
p4545
I9
sS'.thisN'
p4546
I564
sg25
S'Y'
sg15
(lp4547
S'k'
asg30
Vm
sg17
S'Y'
sg14
I12
sg19
(lp4548
S'space'
p4549
asg94
I1
sS'.thisIndex'
p4550
I1
sa(dp4551
g16
(lp4552
S'k'
asg18
S'Y'
sS'.thisRepN'
p4553
I37
sg26
S'Y'
sg20
S'N'
sg31
g32
sS'.thisTrialN'
p4554
I10
sS'.thisN'
p4555
I565
sg25
S'Y'
sg15
(lp4556
S'd'
asg30
Vm
sg17
S'Y'
sg14
I12
sg19
Nsg94
I13
sS'.thisIndex'
p4557
I13
sa(dp4558
g16
(lp4559
S'k'
asg18
S'Y'
sS'.thisRepN'
p4560
I37
sg26
S'Y'
sg20
S'Y'
sg31
g32
sS'.thisTrialN'
p4561
I11
sS'.thisN'
p4562
I566
sg25
S'Y'
sg15
(lp4563
S'd'
asg30
Vm
sg17
S'Y'
sg14
I12
sg19
(lp4564
S'space'
p4565
asg94
I10
sS'.thisIndex'
p4566
I10
sa(dp4567
g16
(lp4568
S'k'
asg18
S'N'
sS'.thisRepN'
p4569
I37
sg26
S'Y'
sg20
S'Y'
sg31
g32
sS'.thisTrialN'
p4570
I12
sS'.thisN'
p4571
I567
sg25
S'Y'
sg15
(lp4572
S'd'
asg30
Vm
sg17
S'Y'
sg14
I12
sg19
Nsg94
I3
sS'.thisIndex'
p4573
I3
sa(dp4574
g16
(lp4575
S'k'
asg18
S'N'
sS'.thisRepN'
p4576
I37
sg26
S'Y'
sg20
S'Y'
sg31
g32
sS'.thisTrialN'
p4577
I13
sS'.thisN'
p4578
I568
sg25
S'Y'
sg15
(lp4579
S'd'
asg30
Vm
sg17
S'Y'
sg14
I12
sg19
Nsg94
I6
sS'.thisIndex'
p4580
I6
sa(dp4581
g16
(lp4582
S'k'
asg18
S'Y'
sS'.thisRepN'
p4583
I37
sg26
S'Y'
sg20
S'Y'
sg31
g32
sS'.thisTrialN'
p4584
I14
sS'.thisN'
p4585
I569
sg25
S'Y'
sg15
(lp4586
S'd'
asg30
Vm
sg17
S'Y'
sg14
I12
sg19
(lp4587
S'space'
p4588
asg94
I9
sS'.thisIndex'
p4589
I9
sa(dp4590
g16
(lp4591
S'd'
asg18
S'N'
sS'.thisRepN'
p4592
I38
sg26
S'Y'
sg20
S'Y'
sg31
g32
sS'.thisTrialN'
p4593
I0
sS'.thisN'
p4594
I570
sg25
S'Y'
sg15
(lp4595
S'd'
asg30
Vm
sg17
S'N'
sg14
I12
sg19
Nsg94
I9
sS'.thisIndex'
p4596
I9
sa(dp4597
g16
(lp4598
S'd'
asg18
S'Y'
sS'.thisRepN'
p4599
I38
sg26
S'Y'
sg20
S'Y'
sg31
g32
sS'.thisTrialN'
p4600
I1
sS'.thisN'
p4601
I571
sg25
S'Y'
sg15
(lp4602
S'k'
asg30
Vm
sg17
S'Y'
sg14
I12
sg19
(lp4603
S'space'
p4604
asg94
I12
sS'.thisIndex'
p4605
I12
sa(dp4606
g16
(lp4607
S'k'
asg18
S'Y'
sS'.thisRepN'
p4608
I38
sg26
S'Y'
sg20
S'Y'
sg31
g32
sS'.thisTrialN'
p4609
I2
sS'.thisN'
p4610
I572
sg25
S'Y'
sg15
(lp4611
S'k'
asg30
Vm
sg17
S'N'
sg14
I12
sg19
(lp4612
S'space'
p4613
asg94
I9
sS'.thisIndex'
p4614
I9
sa(dp4615
g16
(lp4616
S'd'
asg18
S'N'
sS'.thisRepN'
p4617
I38
sg26
S'Y'
sg20
S'Y'
sg31
g32
sS'.thisTrialN'
p4618
I3
sS'.thisN'
p4619
I573
sg25
S'Y'
sg15
(lp4620
S'k'
asg30
Vm
sg17
S'Y'
sg14
I12
sg19
Nsg94
I1
sS'.thisIndex'
p4621
I1
sa(dp4622
g16
(lp4623
S'k'
asg18
S'N'
sS'.thisRepN'
p4624
I38
sg26
S'Y'
sg20
S'Y'
sg31
g32
sS'.thisTrialN'
p4625
I4
sS'.thisN'
p4626
I574
sg25
S'Y'
sg15
(lp4627
S'd'
asg30
Vm
sg17
S'Y'
sg14
I12
sg19
Nsg94
I1
sS'.thisIndex'
p4628
I1
sa(dp4629
g16
(lp4630
S'k'
asg18
S'N'
sS'.thisRepN'
p4631
I38
sg26
S'Y'
sg20
S'Y'
sg31
g32
sS'.thisTrialN'
p4632
I5
sS'.thisN'
p4633
I575
sg25
S'Y'
sg15
(lp4634
S'd'
asg30
Vm
sg17
S'Y'
sg14
I12
sg19
Nsg94
I13
sS'.thisIndex'
p4635
I13
sa(dp4636
g16
(lp4637
S'd'
asg18
S'Y'
sS'.thisRepN'
p4638
I38
sg26
S'Y'
sg20
S'Y'
sg31
g32
sS'.thisTrialN'
p4639
I6
sS'.thisN'
p4640
I576
sg25
S'Y'
sg15
(lp4641
S'k'
asg30
Vm
sg17
S'Y'
sg14
I12
sg19
(lp4642
S'space'
p4643
asg94
I5
sS'.thisIndex'
p4644
I5
sa(dp4645
g16
(lp4646
S'k'
asg18
S'Y'
sS'.thisRepN'
p4647
I38
sg26
S'Y'
sg20
S'Y'
sg31
g32
sS'.thisTrialN'
p4648
I7
sS'.thisN'
p4649
I577
sg25
S'Y'
sg15
(lp4650
S'k'
asg30
Vm
sg17
S'N'
sg14
I12
sg19
(lp4651
S'space'
p4652
asg94
I7
sS'.thisIndex'
p4653
I7
sa(dp4654
g16
(lp4655
S'k'
asg18
S'N'
sS'.thisRepN'
p4656
I38
sg26
S'Y'
sg20
S'Y'
sg31
g32
sS'.thisTrialN'
p4657
I8
sS'.thisN'
p4658
I578
sg25
S'Y'
sg15
(lp4659
S'k'
asg30
Vm
sg17
S'N'
sg14
I12
sg19
Nsg94
I8
sS'.thisIndex'
p4660
I8
sa(dp4661
g16
(lp4662
S'd'
asg18
S'N'
sS'.thisRepN'
p4663
I38
sg26
S'Y'
sg20
S'Y'
sg31
g32
sS'.thisTrialN'
p4664
I9
sS'.thisN'
p4665
I579
sg25
S'Y'
sg15
(lp4666
S'k'
asg30
Vm
sg17
S'Y'
sg14
I12
sg19
Nsg94
I1
sS'.thisIndex'
p4667
I1
sa(dp4668
g16
(lp4669
S'd'
asg18
S'Y'
sS'.thisRepN'
p4670
I38
sg26
S'Y'
sg20
S'Y'
sg31
g32
sS'.thisTrialN'
p4671
I10
sS'.thisN'
p4672
I580
sg25
S'Y'
sg15
(lp4673
S'd'
asg30
Vm
sg17
S'N'
sg14
I12
sg19
(lp4674
S'space'
p4675
asg94
I1
sS'.thisIndex'
p4676
I1
sa(dp4677
g16
(lp4678
S'k'
asg18
S'N'
sS'.thisRepN'
p4679
I38
sg26
S'Y'
sg20
S'Y'
sg31
g32
sS'.thisTrialN'
p4680
I11
sS'.thisN'
p4681
I581
sg25
S'Y'
sg15
(lp4682
S'd'
asg30
Vm
sg17
S'Y'
sg14
I12
sg19
Nsg94
I2
sS'.thisIndex'
p4683
I2
sa(dp4684
g16
(lp4685
S'd'
asg18
S'Y'
sS'.thisRepN'
p4686
I38
sg26
S'Y'
sg20
S'Y'
sg31
g32
sS'.thisTrialN'
p4687
I12
sS'.thisN'
p4688
I582
sg25
S'Y'
sg15
(lp4689
S'd'
asg30
Vm
sg17
S'N'
sg14
I12
sg19
(lp4690
S'space'
p4691
asg94
I8
sS'.thisIndex'
p4692
I8
sa(dp4693
g16
(lp4694
S'k'
asg18
S'Y'
sS'.thisRepN'
p4695
I38
sg26
S'Y'
sg20
S'Y'
sg31
g32
sS'.thisTrialN'
p4696
I13
sS'.thisN'
p4697
I583
sg25
S'Y'
sg15
(lp4698
S'k'
asg30
Vm
sg17
S'N'
sg14
I12
sg19
(lp4699
S'space'
p4700
asg94
I0
sS'.thisIndex'
p4701
I0
sa(dp4702
g16
(lp4703
S'k'
asg18
S'Y'
sS'.thisRepN'
p4704
I38
sg26
S'Y'
sg20
S'Y'
sg31
g32
sS'.thisTrialN'
p4705
I14
sS'.thisN'
p4706
I584
sg25
S'Y'
sg15
(lp4707
S'd'
asg30
Vm
sg17
S'Y'
sg14
I12
sg19
(lp4708
S'space'
p4709
asg94
I1
sS'.thisIndex'
p4710
I1
sa(dp4711
g16
(lp4712
S'k'
asg18
S'Y'
sS'.thisRepN'
p4713
I39
sg26
S'Y'
sg20
S'Y'
sg31
g32
sS'.thisTrialN'
p4714
I0
sS'.thisN'
p4715
I585
sg25
S'Y'
sg15
(lp4716
S'd'
asg30
Vm
sg17
S'Y'
sg14
I12
sg19
(lp4717
S'space'
p4718
asg94
I11
sS'.thisIndex'
p4719
I11
sa(dp4720
g16
(lp4721
S'd'
asg18
S'Y'
sS'.thisRepN'
p4722
I39
sg26
S'Y'
sg20
S'Y'
sg31
g32
sS'.thisTrialN'
p4723
I1
sS'.thisN'
p4724
I586
sg25
S'Y'
sg15
(lp4725
S'k'
asg30
Vm
sg17
S'Y'
sg14
I12
sg19
(lp4726
S'space'
p4727
asg94
I5
sS'.thisIndex'
p4728
I5
sa(dp4729
g16
(lp4730
S'd'
asg18
S'Y'
sS'.thisRepN'
p4731
I39
sg26
S'Y'
sg20
S'Y'
sg31
g32
sS'.thisTrialN'
p4732
I2
sS'.thisN'
p4733
I587
sg25
S'Y'
sg15
(lp4734
S'k'
asg30
Vm
sg17
S'Y'
sg14
I12
sg19
(lp4735
S'space'
p4736
asg94
I14
sS'.thisIndex'
p4737
I14
sa(dp4738
g16
(lp4739
S'k'
asg18
S'Y'
sS'.thisRepN'
p4740
I39
sg26
S'Y'
sg20
S'Y'
sg31
g32
sS'.thisTrialN'
p4741
I3
sS'.thisN'
p4742
I588
sg25
S'Y'
sg15
(lp4743
S'd'
asg30
Vm
sg17
S'Y'
sg14
I12
sg19
(lp4744
S'space'
p4745
asg94
I1
sS'.thisIndex'
p4746
I1
sa(dp4747
g16
(lp4748
S'd'
asg18
S'N'
sS'.thisRepN'
p4749
I39
sg26
S'Y'
sg20
S'Y'
sg31
g32
sS'.thisTrialN'
p4750
I4
sS'.thisN'
p4751
I589
sg25
S'Y'
sg15
(lp4752
S'k'
asg30
Vm
sg17
S'Y'
sg14
I12
sg19
Nsg94
I1
sS'.thisIndex'
p4753
I1
sa(dp4754
g16
(lp4755
S'd'
asg18
S'Y'
sS'.thisRepN'
p4756
I39
sg26
S'Y'
sg20
S'Y'
sg31
g32
sS'.thisTrialN'
p4757
I5
sS'.thisN'
p4758
I590
sg25
S'Y'
sg15
(lp4759
S'k'
asg30
Vm
sg17
S'Y'
sg14
I12
sg19
(lp4760
S'space'
p4761
asg94
I12
sS'.thisIndex'
p4762
I12
sa(dp4763
g16
(lp4764
S'd'
asg18
S'N'
sS'.thisRepN'
p4765
I39
sg26
S'Y'
sg20
S'Y'
sg31
g32
sS'.thisTrialN'
p4766
I6
sS'.thisN'
p4767
I591
sg25
S'Y'
sg15
(lp4768
S'd'
asg30
Vm
sg17
S'N'
sg14
I12
sg19
Nsg94
I5
sS'.thisIndex'
p4769
I5
sa(dp4770
g16
(lp4771
S'd'
asg18
S'Y'
sS'.thisRepN'
p4772
I39
sg26
S'Y'
sg20
S'Y'
sg31
g32
sS'.thisTrialN'
p4773
I7
sS'.thisN'
p4774
I592
sg25
S'Y'
sg15
(lp4775
S'k'
asg30
Vm
sg17
S'Y'
sg14
I12
sg19
(lp4776
S'space'
p4777
asg94
I5
sS'.thisIndex'
p4778
I5
sa(dp4779
g16
(lp4780
S'k'
asg18
S'Y'
sS'.thisRepN'
p4781
I39
sg26
S'Y'
sg20
S'Y'
sg31
g32
sS'.thisTrialN'
p4782
I8
sS'.thisN'
p4783
I593
sg25
S'Y'
sg15
(lp4784
S'd'
asg30
Vm
sg17
S'Y'
sg14
I12
sg19
(lp4785
S'space'
p4786
asg94
I4
sS'.thisIndex'
p4787
I4
sa(dp4788
g16
(lp4789
S'd'
asg18
S'N'
sS'.thisRepN'
p4790
I39
sg26
S'Y'
sg20
S'Y'
sg31
g32
sS'.thisTrialN'
p4791
I9
sS'.thisN'
p4792
I594
sg25
S'Y'
sg15
(lp4793
S'k'
asg30
Vm
sg17
S'Y'
sg14
I12
sg19
Nsg94
I14
sS'.thisIndex'
p4794
I14
sa(dp4795
g16
(lp4796
S'k'
asg18
S'N'
sS'.thisRepN'
p4797
I39
sg26
S'Y'
sg20
S'Y'
sg31
g32
sS'.thisTrialN'
p4798
I10
sS'.thisN'
p4799
I595
sg25
S'Y'
sg15
(lp4800
S'd'
asg30
Vm
sg17
S'Y'
sg14
I12
sg19
Nsg94
I5
sS'.thisIndex'
p4801
I5
sa(dp4802
g16
(lp4803
S'k'
asg18
S'N'
sS'.thisRepN'
p4804
I39
sg26
S'Y'
sg20
S'Y'
sg31
g32
sS'.thisTrialN'
p4805
I11
sS'.thisN'
p4806
I596
sg25
S'Y'
sg15
(lp4807
S'd'
asg30
Vm
sg17
S'Y'
sg14
I12
sg19
Nsg94
I13
sS'.thisIndex'
p4808
I13
sa(dp4809
g16
(lp4810
S'd'
asg18
S'N'
sS'.thisRepN'
p4811
I39
sg26
S'Y'
sg20
S'Y'
sg31
g32
sS'.thisTrialN'
p4812
I12
sS'.thisN'
p4813
I597
sg25
S'Y'
sg15
(lp4814
S'k'
asg30
Vm
sg17
S'Y'
sg14
I12
sg19
Nsg94
I6
sS'.thisIndex'
p4815
I6
sa(dp4816
g16
(lp4817
S'k'
asg18
S'N'
sS'.thisRepN'
p4818
I39
sg26
S'Y'
sg20
S'Y'
sg31
g32
sS'.thisTrialN'
p4819
I13
sS'.thisN'
p4820
I598
sg25
S'Y'
sg15
(lp4821
S'd'
asg30
Vm
sg17
S'Y'
sg14
I12
sg19
Nsg94
I11
sS'.thisIndex'
p4822
I11
sa(dp4823
g16
(lp4824
S'd'
asg18
S'N'
sg22
I46
sg26
S'Y'
sS'.thisN'
p4825
I599
sg20
S'Y'
sg31
g32
sS'.thisTrialN'
p4826
I14
sS'.thisRepN'
p4827
I39
sg21
I37
sg25
S'Y'
sg23
I25
sg15
(lp4828
S'k'
asg30
Vm
sg17
S'Y'
sg14
I12
sg19
Nsg94
I13
sS'.thisIndex'
p4829
I13
sasS'loops'
p4830
(lp4831
g1
(g35
g3
NtRp4832
(dp4833
g38
Nsg39
(lp4834
sg40
I83153904
sg10
S''
sg6
g41
sg42
I1
sg27
I01
sg28
Nsg43
g1
(g44
g45
(dp4835
g47
g48
(g49
g50
g51
S'b'
tRp4836
(I1
(I600
I1
tg54
I00
S'\x00\x00\x80?\x00\x00\x80?\x00\x00\x80?\x00\x00\x80?\x00\x00\x80?\x00\x00\x80?\x00\x00\x80?\x00\x00\x80?\x00\x00\x80?\x00\x00\x80?\x00\x00\x80?\x00\x00\x80?\x00\x00\x80?\x00\x00\x80?\x00\x00\x80?\x00\x00\x80?\x00\x00\x80?\x00\x00\x80?\x00\x00\x80?\x00\x00\x80?\x00\x00\x80?\x00\x00\x80?\x00\x00\x80?\x00\x00\x80?\x00\x00\x80?\x00\x00\x80?\x00\x00\x80?\x00\x00\x80?\x00\x00\x80?\x00\x00\x80?\x00\x00\x80?\x00\x00\x80?\x00\x00\x80?\x00\x00\x80?\x00\x00\x80?\x00\x00\x80?\x00\x00\x80?\x00\x00\x80?\x00\x00\x80?\x00\x00\x80?\x00\x00\x80?\x00\x00\x80?\x00\x00\x80?\x00\x00\x80?\x00\x00\x80?\x00\x00\x80?\x00\x00\x80?\x00\x00\x80?\x00\x00\x80?\x00\x00\x80?\x00\x00\x80?\x00\x00\x80?\x00\x00\x80?\x00\x00\x80?\x00\x00\x80?\x00\x00\x80?\x00\x00\x80?\x00\x00\x80?\x00\x00\x80?\x00\x00\x80?\x00\x00\x80?\x00\x00\x80?\x00\x00\x80?\x00\x00\x80?\x00\x00\x80?\x00\x00\x80?\x00\x00\x80?\x00\x00\x80?\x00\x00\x80?\x00\x00\x80?\x00\x00\x80?\x00\x00\x80?\x00\x00\x80?\x00\x00\x80?\x00\x00\x80?\x00\x00\x80?\x00\x00\x80?\x00\x00\x80?\x00\x00\x80?\x00\x00\x80?\x00\x00\x80?\x00\x00\x80?\x00\x00\x80?\x00\x00\x80?\x00\x00\x80?\x00\x00\x80?\x00\x00\x80?\x00\x00\x80?\x00\x00\x80?\x00\x00\x80?\x00\x00\x80?\x00\x00\x80?\x00\x00\x80?\x00\x00\x80?\x00\x00\x80?\x00\x00\x80?\x00\x00\x80?\x00\x00\x80?\x00\x00\x80?\x00\x00\x80?\x00\x00\x80?\x00\x00\x80?\x00\x00\x80?\x00\x00\x80?\x00\x00\x80?\x00\x00\x80?\x00\x00\x80?\x00\x00\x80?\x00\x00\x80?\x00\x00\x80?\x00\x00\x80?\x00\x00\x80?\x00\x00\x80?\x00\x00\x80?\x00\x00\x80?\x00\x00\x80?\x00\x00\x80?\x00\x00\x80?\x00\x00\x80?\x00\x00\x80?\x00\x00\x80?\x00\x00\x80?\x00\x00\x80?\x00\x00\x80?\x00\x00\x80?\x00\x00\x80?\x00\x00\x80?\x00\x00\x80?\x00\x00\x80?\x00\x00\x80?\x00\x00\x80?\x00\x00\x80?\x00\x00\x80?\x00\x00\x80?\x00\x00\x80?\x00\x00\x80?\x00\x00\x80?\x00\x00\x80?\x00\x00\x80?\x00\x00\x80?\x00\x00\x80?\x00\x00\x80?\x00\x00\x80?\x00\x00\x80?\x00\x00\x80?\x00\x00\x80?\x00\x00\x80?\x00\x00\x80?\x00\x00\x80?\x00\x00\x80?\x00\x00\x80?\x00\x00\x80?\x00\x00\x80?\x00\x00\x80?\x00\x00\x80?\x00\x00\x80?\x00\x00\x80?\x00\x00\x80?\x00\x00\x80?\x00\x00\x80?\x00\x00\x80?\x00\x00\x80?\x00\x00\x80?\x00\x00\x80?\x00\x00\x80?\x00\x00\x80?\x00\x00\x80?\x00\x00\x80?\x00\x00\x80?\x00\x00\x80?\x00\x00\x80?\x00\x00\x80?\x00\x00\x80?\x00\x00\x80?\x00\x00\x80?\x00\x00\x80?\x00\x00\x80?\x00\x00\x80?\x00\x00\x80?\x00\x00\x80?\x00\x00\x80?\x00\x00\x80?\x00\x00\x80?\x00\x00\x80?\x00\x00\x80?\x00\x00\x80?\x00\x00\x80?\x00\x00\x80?\x00\x00\x80?\x00\x00\x80?\x00\x00\x80?\x00\x00\x80?\x00\x00\x80?\x00\x00\x80?\x00\x00\x80?\x00\x00\x80?\x00\x00\x80?\x00\x00\x80?\x00\x00\x80?\x00\x00\x80?\x00\x00\x80?\x00\x00\x80?\x00\x00\x80?\x00\x00\x80?\x00\x00\x80?\x00\x00\x80?\x00\x00\x80?\x00\x00\x80?\x00\x00\x80?\x00\x00\x80?\x00\x00\x80?\x00\x00\x80?\x00\x00\x80?\x00\x00\x80?\x00\x00\x80?\x00\x00\x80?\x00\x00\x80?\x00\x00\x80?\x00\x00\x80?\x00\x00\x80?\x00\x00\x80?\x00\x00\x80?\x00\x00\x80?\x00\x00\x80?\x00\x00\x80?\x00\x00\x80?\x00\x00\x80?\x00\x00\x80?\x00\x00\x80?\x00\x00\x80?\x00\x00\x80?\x00\x00\x80?\x00\x00\x80?\x00\x00\x80?\x00\x00\x80?\x00\x00\x80?\x00\x00\x80?\x00\x00\x80?\x00\x00\x80?\x00\x00\x80?\x00\x00\x80?\x00\x00\x80?\x00\x00\x80?\x00\x00\x80?\x00\x00\x80?\x00\x00\x80?\x00\x00\x80?\x00\x00\x80?\x00\x00\x80?\x00\x00\x80?\x00\x00\x80?\x00\x00\x80?\x00\x00\x80?\x00\x00\x80?\x00\x00\x80?\x00\x00\x80?\x00\x00\x80?\x00\x00\x80?\x00\x00\x80?\x00\x00\x80?\x00\x00\x80?\x00\x00\x80?\x00\x00\x80?\x00\x00\x80?\x00\x00\x80?\x00\x00\x80?\x00\x00\x80?\x00\x00\x80?\x00\x00\x80?\x00\x00\x80?\x00\x00\x80?\x00\x00\x80?\x00\x00\x80?\x00\x00\x80?\x00\x00\x80?\x00\x00\x80?\x00\x00\x80?\x00\x00\x80?\x00\x00\x80?\x00\x00\x80?\x00\x00\x80?\x00\x00\x80?\x00\x00\x80?\x00\x00\x80?\x00\x00\x80?\x00\x00\x80?\x00\x00\x80?\x00\x00\x80?\x00\x00\x80?\x00\x00\x80?\x00\x00\x80?\x00\x00\x80?\x00\x00\x80?\x00\x00\x80?\x00\x00\x80?\x00\x00\x80?\x00\x00\x80?\x00\x00\x80?\x00\x00\x80?\x00\x00\x80?\x00\x00\x80?\x00\x00\x80?\x00\x00\x80?\x00\x00\x80?\x00\x00\x80?\x00\x00\x80?\x00\x00\x80?\x00\x00\x80?\x00\x00\x80?\x00\x00\x80?\x00\x00\x80?\x00\x00\x80?\x00\x00\x80?\x00\x00\x80?\x00\x00\x80?\x00\x00\x80?\x00\x00\x80?\x00\x00\x80?\x00\x00\x80?\x00\x00\x80?\x00\x00\x80?\x00\x00\x80?\x00\x00\x80?\x00\x00\x80?\x00\x00\x80?\x00\x00\x80?\x00\x00\x80?\x00\x00\x80?\x00\x00\x80?\x00\x00\x80?\x00\x00\x80?\x00\x00\x80?\x00\x00\x80?\x00\x00\x80?\x00\x00\x80?\x00\x00\x80?\x00\x00\x80?\x00\x00\x80?\x00\x00\x80?\x00\x00\x80?\x00\x00\x80?\x00\x00\x80?\x00\x00\x80?\x00\x00\x80?\x00\x00\x80?\x00\x00\x80?\x00\x00\x80?\x00\x00\x80?\x00\x00\x80?\x00\x00\x80?\x00\x00\x80?\x00\x00\x80?\x00\x00\x80?\x00\x00\x80?\x00\x00\x80?\x00\x00\x80?\x00\x00\x80?\x00\x00\x80?\x00\x00\x80?\x00\x00\x80?\x00\x00\x80?\x00\x00\x80?\x00\x00\x80?\x00\x00\x80?\x00\x00\x80?\x00\x00\x80?\x00\x00\x80?\x00\x00\x80?\x00\x00\x80?\x00\x00\x80?\x00\x00\x80?\x00\x00\x80?\x00\x00\x80?\x00\x00\x80?\x00\x00\x80?\x00\x00\x80?\x00\x00\x80?\x00\x00\x80?\x00\x00\x80?\x00\x00\x80?\x00\x00\x80?\x00\x00\x80?\x00\x00\x80?\x00\x00\x80?\x00\x00\x80?\x00\x00\x80?\x00\x00\x80?\x00\x00\x80?\x00\x00\x80?\x00\x00\x80?\x00\x00\x80?\x00\x00\x80?\x00\x00\x80?\x00\x00\x80?\x00\x00\x80?\x00\x00\x80?\x00\x00\x80?\x00\x00\x80?\x00\x00\x80?\x00\x00\x80?\x00\x00\x80?\x00\x00\x80?\x00\x00\x80?\x00\x00\x80?\x00\x00\x80?\x00\x00\x80?\x00\x00\x80?\x00\x00\x80?\x00\x00\x80?\x00\x00\x80?\x00\x00\x80?\x00\x00\x80?\x00\x00\x80?\x00\x00\x80?\x00\x00\x80?\x00\x00\x80?\x00\x00\x80?\x00\x00\x80?\x00\x00\x80?\x00\x00\x80?\x00\x00\x80?\x00\x00\x80?\x00\x00\x80?\x00\x00\x80?\x00\x00\x80?\x00\x00\x80?\x00\x00\x80?\x00\x00\x80?\x00\x00\x80?\x00\x00\x80?\x00\x00\x80?\x00\x00\x80?\x00\x00\x80?\x00\x00\x80?\x00\x00\x80?\x00\x00\x80?\x00\x00\x80?\x00\x00\x80?\x00\x00\x80?\x00\x00\x80?\x00\x00\x80?\x00\x00\x80?\x00\x00\x80?\x00\x00\x80?\x00\x00\x80?\x00\x00\x80?\x00\x00\x80?\x00\x00\x80?\x00\x00\x80?\x00\x00\x80?\x00\x00\x80?\x00\x00\x80?\x00\x00\x80?\x00\x00\x80?\x00\x00\x80?\x00\x00\x80?\x00\x00\x80?\x00\x00\x80?\x00\x00\x80?\x00\x00\x80?\x00\x00\x80?\x00\x00\x80?\x00\x00\x80?\x00\x00\x80?\x00\x00\x80?\x00\x00\x80?\x00\x00\x80?\x00\x00\x80?\x00\x00\x80?\x00\x00\x80?\x00\x00\x80?\x00\x00\x80?\x00\x00\x80?\x00\x00\x80?\x00\x00\x80?\x00\x00\x80?\x00\x00\x80?\x00\x00\x80?\x00\x00\x80?\x00\x00\x80?\x00\x00\x80?\x00\x00\x80?\x00\x00\x80?\x00\x00\x80?\x00\x00\x80?\x00\x00\x80?\x00\x00\x80?\x00\x00\x80?\x00\x00\x80?\x00\x00\x80?\x00\x00\x80?\x00\x00\x80?\x00\x00\x80?\x00\x00\x80?\x00\x00\x80?\x00\x00\x80?\x00\x00\x80?\x00\x00\x80?\x00\x00\x80?\x00\x00\x80?\x00\x00\x80?\x00\x00\x80?\x00\x00\x80?\x00\x00\x80?\x00\x00\x80?\x00\x00\x80?\x00\x00\x80?\x00\x00\x80?\x00\x00\x80?\x00\x00\x80?\x00\x00\x80?\x00\x00\x80?\x00\x00\x80?\x00\x00\x80?\x00\x00\x80?\x00\x00\x80?\x00\x00\x80?\x00\x00\x80?\x00\x00\x80?\x00\x00\x80?\x00\x00\x80?\x00\x00\x80?\x00\x00\x80?\x00\x00\x80?\x00\x00\x80?\x00\x00\x80?\x00\x00\x80?\x00\x00\x80?\x00\x00\x80?\x00\x00\x80?\x00\x00\x80?\x00\x00\x80?\x00\x00\x80?\x00\x00\x80?\x00\x00\x80?\x00\x00\x80?\x00\x00\x80?\x00\x00\x80?\x00\x00\x80?\x00\x00\x80?\x00\x00\x80?\x00\x00\x80?\x00\x00\x80?\x00\x00\x80?\x00\x00\x80?\x00\x00\x80?\x00\x00\x80?\x00\x00\x80?\x00\x00\x80?\x00\x00\x80?\x00\x00\x80?\x00\x00\x80?\x00\x00\x80?\x00\x00\x80?\x00\x00\x80?\x00\x00\x80?\x00\x00\x80?\x00\x00\x80?\x00\x00\x80?\x00\x00\x80?\x00\x00\x80?\x00\x00\x80?\x00\x00\x80?\x00\x00\x80?\x00\x00\x80?\x00\x00\x80?\x00\x00\x80?\x00\x00\x80?\x00\x00\x80?\x00\x00\x80?\x00\x00\x80?\x00\x00\x80?\x00\x00\x80?\x00\x00\x80?\x00\x00\x80?\x00\x00\x80?\x00\x00\x80?\x00\x00\x80?\x00\x00\x80?\x00\x00\x80?\x00\x00\x80?\x00\x00\x80?\x00\x00\x80?\x00\x00\x80?\x00\x00\x80?\x00\x00\x80?\x00\x00\x80?\x00\x00\x80?\x00\x00\x80?\x00\x00\x80?\x00\x00\x80?\x00\x00\x80?\x00\x00\x80?\x00\x00\x80?\x00\x00\x80?\x00\x00\x80?\x00\x00\x80?\x00\x00\x80?\x00\x00\x80?\x00\x00\x80?'
S'\x00\x00\x00\x00\x00\x00\x00\x00\x00\x00\x00\x00\x00\x00\x00\x00\x00\x00\x00\x00\x00\x00\x00\x00\x00\x00\x00\x00\x00\x00\x00\x00\x00\x00\x00\x00\x00\x00\x00\x00\x00\x00\x00\x00\x00\x00\x00\x00\x00\x00\x00\x00\x00\x00\x00\x00\x00\x00\x00\x00\x00\x00\x00\x00\x00\x00\x00\x00\x00\x00\x00\x00\x00\x00\x00\x00\x00\x00\x00\x00\x00\x00\x00\x00\x00\x00\x00\x00\x00\x00\x00\x00\x00\x00\x00\x00\x00\x00\x00\x00\x00\x00\x00\x00\x00\x00\x00\x00\x00\x00\x00\x00\x00\x00\x00\x00\x00\x00\x00\x00\x00\x00\x00\x00\x00\x00\x00\x00\x00\x00\x00\x00\x00\x00\x00\x00\x00\x00\x00\x00\x00\x00\x00\x00\x00\x00\x00\x00\x00\x00\x00\x00\x00\x00\x00\x00\x00\x00\x00\x00\x00\x00\x00\x00\x00\x00\x00\x00\x00\x00\x00\x00\x00\x00\x00\x00\x00\x00\x00\x00\x00\x00\x00\x00\x00\x00\x00\x00\x00\x00\x00\x00\x00\x00\x00\x00\x00\x00\x00\x00\x00\x00\x00\x00\x00\x00\x00\x00\x00\x00\x00\x00\x00\x00\x00\x00\x00\x00\x00\x00\x00\x00\x00\x00\x00\x00\x00\x00\x00\x00\x00\x00\x00\x00\x00\x00\x00\x00\x00\x00\x00\x00\x00\x00\x00\x00\x00\x00\x00\x00\x00\x00\x00\x00\x00\x00\x00\x00\x00\x00\x00\x00\x00\x00\x00\x00\x00\x00\x00\x00\x00\x00\x00\x00\x00\x00\x00\x00\x00\x00\x00\x00\x00\x00\x00\x00\x00\x00\x00\x00\x00\x00\x00\x00\x00\x00\x00\x00\x00\x00\x00\x00\x00\x00\x00\x00\x00\x00\x00\x00\x00\x00\x00\x00\x00\x00\x00\x00\x00\x00\x00\x00\x00\x00\x00\x00\x00\x00\x00\x00\x00\x00\x00\x00\x00\x00\x00\x00\x00\x00\x00\x00\x00\x00\x00\x00\x00\x00\x00\x00\x00\x00\x00\x00\x00\x00\x00\x00\x00\x00\x00\x00\x00\x00\x00\x00\x00\x00\x00\x00\x00\x00\x00\x00\x00\x00\x00\x00\x00\x00\x00\x00\x00\x00\x00\x00\x00\x00\x00\x00\x00\x00\x00\x00\x00\x00\x00\x00\x00\x00\x00\x00\x00\x00\x00\x00\x00\x00\x00\x00\x00\x00\x00\x00\x00\x00\x00\x00\x00\x00\x00\x00\x00\x00\x00\x00\x00\x00\x00\x00\x00\x00\x00\x00\x00\x00\x00\x00\x00\x00\x00\x00\x00\x00\x00\x00\x00\x00\x00\x00\x00\x00\x00\x00\x00\x00\x00\x00\x00\x00\x00\x00\x00\x00\x00\x00\x00\x00\x00\x00\x00\x00\x00\x00\x00\x00\x00\x00\x00\x00\x00\x00\x00\x00\x00\x00\x00\x00\x00\x00\x00\x00\x00\x00\x00\x00\x00\x00\x00\x00\x00\x00\x00\x00\x00\x00\x00\x00\x00\x00\x00\x00\x00\x00\x00\x00\x00\x00\x00\x00\x00\x00\x00\x00\x00\x00\x00\x00\x00\x00\x00\x00\x00\x00\x00\x00\x00\x00\x00\x00\x00\x00\x00\x00\x00\x00\x00\x00\x00\x00\x00\x00\x00\x00\x00\x00\x00\x00\x00\x00\x00\x00\x00\x00\x00\x00\x00\x00\x00\x00\x00\x00\x00\x00\x00\x00\x00\x00\x00\x00\x00\x00\x00\x00\x00\x00\x00\x00\x00\x00\x00\x00\x00\x00\x00\x00\x00\x00\x00\x00'
Ntbsg55
g48
(g49
g50
g51
S'b'
tRp4837
(I1
(I600
I1
tg54
I00
S'\x00\x000C\x00\x00\x18C\x00\x00\xc4B\x00@\x08D\x00\x00\xc2C\x00\x00\x86B\x00\x004B\x00\x80\xdfC\x00\x00\xbbC\x00\x00\xcbC\x00\x80\x8cC\x00\x80\xb9C\x00\x00\x1aC\x00\xc0\x12D\x00@\x04D\x00\x00YC\x00\x80\x9eC\x00\x80\xefC\x00\x00fC\x00\x00\x0cC\x00\x80\xcdC\x00\x00\xb0B\x00\x00\x00@\x00\x00\xbeC\x00\x00\xe6C\x00\x00\x0bD\x00\x00\xf3C\x00\x80\xfaC\x00\x00\x0fC\x00\x80\xe8C\x00@\x0fD\x00\x00\xa6C\x00\x80\xa8C\x00\x00\xbcC\x00\x00\x04D\x00\x00\xe8C\x00\x00\x01D\x00\x00\xa4B\x00\x00\xacC\x00\x00HC\x00\x00,B\x00\x80\x12D\x00\x80\x95C\x00\x00\x94B\x00\x000A\x00\x00{C\x00\x00\x0eC\x00\x00`B\x00@\x15D\x00\x00JC\x00\x00\xa0A\x00\x80\x05D\x00\x00\xeaB\x00\x80\xe9C\x00\x00pA\x00\x00\tC\x00\x00dC\x00\x80\x80C\x00\xc0\nD\x00\x00\x8aC\x00\x80\x99C\x00\x80\x9fC\x00\x00\x95C\x00\x008B\x00\x80\xd5C\x00\x00\xb3C\x00\x00RC\x00\xc0\x10D\x00@\nD\x00\x00\xb8A\x00\x00\x0cD\x00\x00\x07C\x00\x80\xdcC\x00\x00&C\x00\x80\x8dC\x00\x00\tD\x00\x80\xb1C\x00\x00\xedC\x00\x00qC\x00\x00BC\x00\x00\x9aC\x00\x80\xbbC\x00\x80\xfcC\x00\x80\x91C\x00\x00PC\x00\x80\x0eD\x00\x00\x9cC\x00\x00`C\x00\x80\xa0C\x00\x00\xe8B\x00\x00\x11D\x00\x00\x12C\x00\x00\xb6C\x00\x00\xb4B\x00\x80\x83C\x00\x00\xd8A\x00\x00\xe4B\x00\x00\xbaC\x00\xc0\x08D\x00\x80\xaeC\x00\x00\xd8B\x00\x00\x03C\x00\x00\x00D\x00\x00KC\x00\x00,C\x00\x00UC\x00\x80\xe2C\x00\x80\xa4C\x00\x80\xcaC\x00\x80\xedC\x00\xc0\x06D\x00\x00_C\x00\x00\xd4C\x00\x00\x88C\x00\x00\x80C\x00@\x05D\x00\xc0\x00D\x00\x00*C\x00\x00\xf0C\x00\x00\xf8C\x00\x00<C\x00\x00\x99C\x00\x00\x88A\x00\x00\x9aB\x00\x80\xdeC\x00\x00\rC\x00\x00^C\x00\x80\xaaC\x00\x00\xc8A\x00\x80\x04D\x00\xc0\x13D\x00\x00\xe6B\x00\x00\\C\x00\x00AC\x00\x00\xa6B\x00\x00\xdcB\x00\x80\xf8C\x00\x00\xb5C\x00\x00\x8cB\x00\x00LC\x00\x00rC\x00\x00\x08D\x00\x00\xe5C\x00\x00\x1cB\x00\x005C\x00\x80\x13D\x00\x00\x92C\x00\x00\xc6C\x00\x00\xa0@\x00\x80\xccC\x00\x80\x89C\x00\x00\xb2B\x00\x00\x04C\x00\x00\xd2B\x00\x00%C\x00\x80\xceC\x00\x00\xa0C\x00\x00\x10C\x00\x00\xe4C\x00\x80\xddC\x00\x00\x10D\x00\xc0\x0eD\x00\x00\xa8B\x00\x00\x98B\x00\x00\xc6B\x00\x80\x94C\x00\x00\xd0C\x00\x00\xafC\x00@\x02D\x00\x80\xf1C\x00\x00lC\x00\x80\xf4C\x00\x80\x90C\x00\x00\xe0C\x00\x00 B\x00\x00MC\x00\x00\x86C\x00\x00LB\x00\x80\xc8C\x00\x00NC\x00\x00\xdeC\x00\x00\x90A\x00\x004C\x00\x00\xdfC\x00\x00\xbdC\x00\x80\xd1C\x00\x80\xc1C\x00\x00\x10A\x00\x00DC\x00@\x0bD\x00\x80\xdbC\x00\x80\x92C\x00\x80\x87C\x00\x00\xc8C\x00\x00\x8eB\x00\x00\x93C\x00@\x00D\x00\x00\xefC\x00\x00\xd4B\x00\x80\xf3C\x00\x80\x85C\x00\x00\x02C\x00\x00\xf1C\x00\x00EC\x00\x00\xa7C\x00\x80\xd6C\x00\x00\xa9C\x00\x80\xe6C\x00\x00\x8fC\x00\x00\xdcC\x00@\x03D\x00\x00|C\x00\x00\xacB\x00\xc0\x01D\x00\x80\xa3C\x00\x00:C\x00\x80\x11D\x00\x80\x0bD\x00\x80\xadC\x00@\x06D\x00\x00xC\x00\x00\xb1C\x00\x80\xeeC\x00\x80\x9aC\x00\x00\x9eC\x00\x00\x96B\x00\x00\rD\x00\x00\xceC\x00\x00\x9bC\x00\x00wC\x00\x00\x80@\x00\x00\x82C\x00\xc0\x15D\x00\x80\xf2C\x00\x00\xdeB\x00\x00hB\x00\x00\xe9C\x00\x00XC\x00\x80\xd7C\x00\x00CC\x00\x00\xd5C\x00\x00\xa2C\x00\x80\xe7C\x00\x80\xc6C\x00\x00\x1bC\x00\x00oC\x00\x00\x7fC\x00\x00WC\x00\x00\xecB\x00\x00\xc0@\x00\x80\xecC\x00\x80\x07D\x00\xc0\tD\x00\x00\x0cB\x00\x80\xc7C\x00\x00\xccC\x00\x00\x05C\x00\x00\xabC\x00\x80\xb6C\x00\x00\xffC\x00\x00 C\x00\x00|B\x00\x80\x97C\x00\x80\x14D\x00\x00\x1cC\x00\x80\nD\x00\x00\x91C\x00\x80\xc2C\x00\xc0\x03D\x00\x00@A\x00\x00\xc8B\x00\x00\xfdC\x00\x00\xd8C\x00\x00\xbaB\x00\x008C\x00\x80\xa1C\x00\xc0\x05D\x00\x00\xf0B\x00\xc0\x0bD\x00\x00\x1fC\x00\x00\xb8B\x00\x00\x13C\x00\x80\xf7C\x00\x00lB\x00\x00XB\x00\x00\x19C\x00\x00jC\x00\x00\xc1C\x00\x00\x84C\x00\x00\x14C\x00\x00$C\x00\x00!C\x00\x80\xfbC\x00\x80\x9cC\x00@\x13D\x00\x00\x03D\x00\x00\x07D\x00\x80\xb5C\x00\x00\xe8A\x00\x00\x14D\x00\x80\xa9C\x00\x00\xf4B\x00\x00\xeaC\x00\x00\xa5C\x00\x80\xfeC\x00\x80\xd4C\x00\x80\x02D\x00\x00\xb7C\x00\x00\x04B\x00\x00\xb6B\x00\x00\xe0B\x00\x80\x84C\x00@\x0eD\x00\x00\xf7C\x00\x00`A\x00\x00\xaeB\x00\x00\x17C\x00\x00aC\x00\x00\xc0B\x00\x80\x08D\x00\x00\xe1C\x00\x00tB\x00\x00cC\x00\x00\x87C\x00\x00\x9eB\x00\x00\x00\x00\x00\x00\x0fD\x00\x00\xadC\x00\x00\xa8C\x00\x00\xe2C\x00\x00\x9cB\x00\x00SC\x00\x00\x8eC\x00\x00\x97C\x00\x00\x90B\x00\x00\xc2B\x00\x80\x03D\x00\x00\x8cC\x00\xc0\x14D\x00\x80\xd3C\x00\x80\xbdC\x00\x00.C\x00\x00\xebC\x00\x00;C\x00\x80\xc5C\x00\x00\xa4C\x00\x00yC\x00\x80\xc9C\x00\x00\xbcB\x00\x00xB\x00\x00\x9dC\x00\x00\xcfC\x00@\tD\x00\xc0\x07D\x00\x00~C\x00\x00\x16C\x00\x00OC\x00\x00\x10B\x00\x00\xb2C\x00\x80\x86C\x00\x00\xd1C\x00\x00\xf6C\x00\x00#C\x00\x00\xf8A\x00\x80\xeaC\x00\x00\x00C\x00\x00\\B\x00\x80\xe1C\x00\x00\xa1C\x00\xc0\x0cD\x00\x00PA\x00\x00\x05D\x00\x00\xaeC\x00\x80\xcfC\x00\x80\xa5C\x00\x80\x01D\x00\x002C\x00\x00\xd3C\x00\xc0\rD\x00\x00\xfeC\x00\x00\x0eD\x00\x80\x06D\x00\x00\xb4C\x00\x00(C\x00\x00\xc0A\x00\x00/C\x00\x80\xfdC\x00\x00\xdaC\x00\x00\xe0A\x00\x00\xceB\x00\x00\xfaC\x00\x00hC\x00\x00sC\x00\x00@C\x00\x80\xc4C\x00\x00\xbfC\x00\x80\x8bC\x00\x009C\x00\x00gC\x00\x00\x90C\x00\x00\x06D\x00\x00HB\x00\x00\x11C\x00\x00\x80A\x00\x00\xf8B\x00\x00\xecC\x00\x00\xc4C\x00\x80\xe5C\x00\x00\xf0A\x00\x80\xffC\x00\x00[C\x00\x80\xa6C\x00\x00kC\x00\x80\xb8C\x00\x00\x00A\x00\x00\nC\x00\x00\xa8A\x00\x00\xf6B\x00\x00\x15C\x00\x00TC\x00\x80\rD\x00\x80\xdaC\x00\x00\xc5C\x00\x00\x15D\x00\x80\x8eC\x00\x00VC\x00\x80\xebC\x00\x80\xb2C\x00@\x07D\x00\x80\xf0C\x00\x00<B\x00\x00\xfaB\x00@\x14D\x00\x80\xd8C\x00\x00\xcaB\x00\x00\xaaC\x00\x00@@\x00\x00\xfcC\x00\x00\xeeB\x00\x00\x08C\x00\x00}C\x00\x00pC\x00\x00ZC\x00\x00\xa0B\x00\x00\xc3C\x00\x80\x88C\x00\x00tC\x00\x00\x8bC\x00\x00\xf4C\x00\x00\xbeB\x00\x80\xb3C\x00\x00\xfbC\x00\x00mC\x00\x00\xf2C\x00\x00\xeeC\x00\x00\xd9C\x00\x00\x06C\x00\x00\xe2B\x00\x001C\x00\x80\xbcC\x00\x006C\x00\x00\xc9C\x00@\x10D\x00\x00@B\x00\x80\x00D\x00\x80\x9dC\x00\x00\xf2B\x00\x00\xd6B\x00\x00\xaaB\x00\x00\xd6C\x00\x00-C\x00\x00\xdbC\x00\x80\x15D\x00\x00\xddC\x00\x00\xd2C\x00\x00\x81C\x00\x00+C\x00\x80\x93C\x00\x00\xb9C\x00\x80\xacC\x00\x00\xdaB\x00\x00dB\x00\x00\x80?\x00\xc0\x11D\x00\x00\x8aB\x00\x80\xe3C\x00\x80\x82C\x00\x80\xf5C\x00\x00\'C\x00\x80\xbeC\x00\x00\xccB\x00\x00>C\x00\x00\x98A\x00\x00 A\x00\x00\xcaC\x00\x00\x8dC\x00\x00)C\x00\x00eC\x00\x00DB\x00@\x01D\x00\x80\xcbC\x00\x00\xcdC\x00\xc0\x0fD\x00\x00QC\x00\x00\x08B\x00\x80\x10D\x00\x80\xe0C\x00\x80\xb4C\x00\x00\x18B\x00\x00bC\x00\x00?C\x00\x00\x01C\x00\x00\xe3C\x00\x00\x98C\x00\x00PB\x00\xc0\x02D\x00\x80\x81C\x00\x00\x00B\x00\x00\x82B\x00\x00\xf5C\x00\x00TB\x00\x00"C\x00\xc0\x04D\x00\x00\x96C\x00\x00\xe7C\x00\x80\xe4C\x00\x00\xd0A\x00\x80\tD\x00\x80\xbfC\x00\x00vC\x00\x00\x1dC\x00\x80\x8fC\x00\x00\xf9C\x00\x00\x13D\x00\x00\xfeB\x00\x80\xd9C\x00@\x0cD\x00\x80\xf9C\x00\x00pB\x00\x80\x0cD\x00\x00\x0bC\x00\x00\xd7C\x00\x00\x14B\x00\x00\x85C\x00\x80\xbaC\x00\x00\x12D\x00\x00\xb8C\x00\x00\x9fC\x00\x80\xabC\x00\x00\xd0B\x00\x00nC\x00\x00\xa3C\x00\x80\x8aC\x00\x00\xc0C\x00\x00\x89C\x00\x80\xc3C\x00\x80\xb0C\x00\x00\x84B\x00\x00$B\x00\x80\xa7C\x00\x80\xf6C\x00\x00GC\x00\x00]C\x00\x00\x92B\x00\x00\x1eC\x00\x00\xc7C\x00\x00FC\x00\x00uC\x00\x003C\x00\x00iC\x00@\x12D\x00\x00\x83C\x00\x80\xb7C\x00\x00\xa2B\x00\x80\xafC\x00\x80\x9bC\x00\x00(B\x00\x00\x88B\x00\x80\x0fD\x00\x80\x98C\x00\x00=C\x00\x80\xd2C\x00\x00\nD\x00\x007C\x00\x00\x02D\x00\x80\xc0C\x00\x00zC\x00@\rD\x00\x000B\x00\x00\xe0@\x00\x00\xb0A\x00\x80\x96C\x00\x00\x94C\x00@\x11D\x00\x00\x80B\x00\x80\xa2C\x00\x00\xb0C\x00\x80\xd0C\x00\x00\xfcB\x00\x00IC'
S'\x00\x00\x00\x00\x00\x00\x00\x00\x00\x00\x00\x00\x00\x00\x00\x00\x00\x00\x00\x00\x00\x00\x00\x00\x00\x00\x00\x00\x00\x00\x00\x00\x00\x00\x00\x00\x00\x00\x00\x00\x00\x00\x00\x00\x00\x00\x00\x00\x00\x00\x00\x00\x00\x00\x00\x00\x00\x00\x00\x00\x00\x00\x00\x00\x00\x00\x00\x00\x00\x00\x00\x00\x00\x00\x00\x00\x00\x00\x00\x00\x00\x00\x00\x00\x00\x00\x00\x00\x00\x00\x00\x00\x00\x00\x00\x00\x00\x00\x00\x00\x00\x00\x00\x00\x00\x00\x00\x00\x00\x00\x00\x00\x00\x00\x00\x00\x00\x00\x00\x00\x00\x00\x00\x00\x00\x00\x00\x00\x00\x00\x00\x00\x00\x00\x00\x00\x00\x00\x00\x00\x00\x00\x00\x00\x00\x00\x00\x00\x00\x00\x00\x00\x00\x00\x00\x00\x00\x00\x00\x00\x00\x00\x00\x00\x00\x00\x00\x00\x00\x00\x00\x00\x00\x00\x00\x00\x00\x00\x00\x00\x00\x00\x00\x00\x00\x00\x00\x00\x00\x00\x00\x00\x00\x00\x00\x00\x00\x00\x00\x00\x00\x00\x00\x00\x00\x00\x00\x00\x00\x00\x00\x00\x00\x00\x00\x00\x00\x00\x00\x00\x00\x00\x00\x00\x00\x00\x00\x00\x00\x00\x00\x00\x00\x00\x00\x00\x00\x00\x00\x00\x00\x00\x00\x00\x00\x00\x00\x00\x00\x00\x00\x00\x00\x00\x00\x00\x00\x00\x00\x00\x00\x00\x00\x00\x00\x00\x00\x00\x00\x00\x00\x00\x00\x00\x00\x00\x00\x00\x00\x00\x00\x00\x00\x00\x00\x00\x00\x00\x00\x00\x00\x00\x00\x00\x00\x00\x00\x00\x00\x00\x00\x00\x00\x00\x00\x00\x00\x00\x00\x00\x00\x00\x00\x00\x00\x00\x00\x00\x00\x00\x00\x00\x00\x00\x00\x00\x00\x00\x00\x00\x00\x00\x00\x00\x00\x00\x00\x00\x00\x00\x00\x00\x00\x00\x00\x00\x00\x00\x00\x00\x00\x00\x00\x00\x00\x00\x00\x00\x00\x00\x00\x00\x00\x00\x00\x00\x00\x00\x00\x00\x00\x00\x00\x00\x00\x00\x00\x00\x00\x00\x00\x00\x00\x00\x00\x00\x00\x00\x00\x00\x00\x00\x00\x00\x00\x00\x00\x00\x00\x00\x00\x00\x00\x00\x00\x00\x00\x00\x00\x00\x00\x00\x00\x00\x00\x00\x00\x00\x00\x00\x00\x00\x00\x00\x00\x00\x00\x00\x00\x00\x00\x00\x00\x00\x00\x00\x00\x00\x00\x00\x00\x00\x00\x00\x00\x00\x00\x00\x00\x00\x00\x00\x00\x00\x00\x00\x00\x00\x00\x00\x00\x00\x00\x00\x00\x00\x00\x00\x00\x00\x00\x00\x00\x00\x00\x00\x00\x00\x00\x00\x00\x00\x00\x00\x00\x00\x00\x00\x00\x00\x00\x00\x00\x00\x00\x00\x00\x00\x00\x00\x00\x00\x00\x00\x00\x00\x00\x00\x00\x00\x00\x00\x00\x00\x00\x00\x00\x00\x00\x00\x00\x00\x00\x00\x00\x00\x00\x00\x00\x00\x00\x00\x00\x00\x00\x00\x00\x00\x00\x00\x00\x00\x00\x00\x00\x00\x00\x00\x00\x00\x00\x00\x00\x00\x00\x00\x00\x00\x00\x00\x00\x00\x00\x00\x00\x00\x00\x00\x00\x00\x00\x00\x00\x00\x00\x00\x00\x00\x00\x00\x00\x00\x00\x00\x00\x00\x00\x00\x00\x00\x00\x00\x00\x00\x00\x00\x00\x00\x00\x00'
NtbstRp4838
(dp4839
g59
(dp4840
g47
I01
sg55
I01
ssg61
g4832
sg62
(lp4841
g47
ag55
asg64
(lp4842
I600
aI1
asbsg66
S'random'
p4843
sg68
g69
(g50
(I0
tS'b'
tRp4844
(I1
(I600
I1
tg53
(S'i4'
I0
I1
tRp4845
(I3
S'<'
NNNI-1
I-1
I0
tbI01
S'E\x01\x00\x00\xe2\x01\x00\x00\x16\x00\x00\x00\xb4\x01\x00\x00\xe6\x00\x00\x00\x94\x00\x00\x00\xf9\x00\x00\x00M\x02\x00\x00\x9e\x01\x00\x00\xbb\x00\x00\x00\xed\x01\x00\x00,\x00\x00\x00\r\x01\x00\x00r\x01\x00\x00:\x01\x00\x006\x00\x00\x00\x93\x01\x00\x00z\x00\x00\x00\xb5\x00\x00\x00\xec\x01\x00\x002\x00\x00\x00\xa0\x01\x00\x00N\x02\x00\x00E\x00\x00\x00\x80\x01\x00\x00\x80\x00\x00\x00\x0e\x02\x00\x00_\x00\x00\x00\x84\x01\x00\x00*\x01\x00\x00\x98\x01\x00\x00k\x01\x00\x00\x05\x02\x00\x004\x01\x00\x00\xf8\x01\x00\x00\xfd\x00\x00\x00e\x01\x00\x00\x1e\x02\x00\x00\xfc\x01\x00\x00\x8f\x00\x00\x00\xae\x00\x00\x00.\x02\x00\x00@\x02\x00\x00(\x00\x00\x00L\x02\x00\x00\x06\x00\x00\x00?\x00\x00\x00\xae\x01\x00\x00\xcf\x01\x00\x00\xf2\x01\x00\x00\x91\x01\x00\x00\xb1\x00\x00\x00\x02\x02\x00\x00\x08\x02\x00\x00\x1c\x01\x00\x00n\x01\x00\x00/\x00\x00\x00\xe1\x01\x00\x00\xeb\x00\x00\x00\x1b\x01\x00\x00\x1a\x02\x00\x00A\x01\x00\x00]\x01\x00\x00\x05\x01\x00\x00R\x02\x00\x00\x06\x02\x00\x00-\x02\x00\x00\x05\x00\x00\x00A\x02\x00\x00\xe4\x01\x00\x00\x8a\x00\x00\x00\xc2\x00\x00\x00N\x01\x00\x003\x02\x00\x00+\x00\x00\x00\xe1\x00\x00\x00\xa3\x00\x00\x00{\x00\x00\x00J\x01\x00\x00D\x01\x00\x00\xbb\x01\x00\x00=\x02\x00\x00%\x00\x00\x00\x86\x00\x00\x00\xa2\x00\x00\x00\xd4\x01\x00\x00\xd4\x00\x00\x00;\x01\x00\x00\x15\x00\x00\x00\x97\x00\x00\x00]\x00\x00\x005\x01\x00\x00\x18\x01\x00\x00\x11\x01\x00\x00\\\x01\x00\x00\xc1\x01\x00\x00>\x01\x00\x00O\x01\x00\x00\x02\x00\x00\x00\xa4\x00\x00\x00\x0e\x01\x00\x00\xb2\x01\x00\x00\xea\x01\x00\x00\x85\x01\x00\x00%\x02\x00\x00\x99\x00\x00\x00\xc6\x00\x00\x00\xd3\x01\x00\x00d\x00\x00\x00\xe0\x01\x00\x00\x87\x00\x00\x00\xea\x00\x00\x006\x01\x00\x00\xc9\x01\x00\x00`\x00\x00\x00\x83\x00\x00\x00Y\x00\x00\x004\x00\x00\x00\xf8\x00\x00\x00\xb6\x01\x00\x00\x15\x01\x00\x00\xd2\x01\x00\x00-\x01\x00\x00\xa1\x01\x00\x00\x94\x01\x00\x00\xaf\x01\x00\x00V\x02\x00\x00\x16\x02\x00\x00m\x01\x00\x00\xff\x01\x00\x00\xc9\x00\x00\x00e\x00\x00\x00\x98\x00\x00\x00\x00\x01\x00\x00\xc8\x01\x00\x00G\x00\x00\x00\xb7\x01\x00\x007\x00\x00\x00\x9f\x01\x00\x00\x1c\x02\x00\x00\x13\x00\x00\x00}\x00\x00\x00.\x00\x00\x00\x1c\x00\x00\x00\x9d\x00\x00\x00\x92\x01\x00\x00[\x00\x00\x00\x19\x01\x00\x00!\x01\x00\x00\xa2\x01\x00\x00c\x01\x00\x00<\x01\x00\x00\x01\x00\x00\x00\x1d\x01\x00\x00\x0c\x00\x00\x00\xf4\x00\x00\x00\x08\x01\x00\x00\x12\x02\x00\x004\x02\x00\x00\x17\x01\x00\x00\x04\x01\x00\x00#\x01\x00\x00\t\x02\x00\x00j\x01\x00\x00"\x01\x00\x00\x9a\x00\x00\x00I\x00\x00\x00\xe8\x01\x00\x00\x7f\x01\x00\x00\xf0\x01\x00\x00u\x00\x00\x00\xdc\x01\x00\x00h\x00\x00\x00\xd6\x01\x00\x00U\x01\x00\x00\x81\x01\x00\x00\x00\x00\x00\x00\xca\x01\x00\x00x\x01\x00\x008\x02\x00\x00\xb6\x00\x00\x00\x90\x00\x00\x00\xcc\x01\x00\x00G\x02\x00\x00\x12\x01\x00\x00\x8d\x01\x00\x00\xd7\x00\x00\x00W\x01\x00\x00x\x00\x00\x00D\x02\x00\x00\xeb\x01\x00\x00\xfe\x01\x00\x00\x89\x01\x00\x00\x85\x00\x00\x00O\x00\x00\x00\xef\x00\x00\x00\xbc\x00\x00\x00\xcb\x00\x00\x006\x02\x00\x001\x02\x00\x00\'\x00\x00\x00W\x02\x00\x001\x00\x00\x00g\x00\x00\x00\x8b\x00\x00\x00\xaf\x00\x00\x00\xb3\x00\x00\x00d\x01\x00\x00T\x00\x00\x00\xf7\x01\x00\x00B\x00\x00\x00K\x01\x00\x00\xa3\x01\x00\x00i\x00\x00\x00\xa9\x01\x00\x00\xf7\x00\x00\x00\xed\x00\x00\x00\x0f\x00\x00\x00\xba\x01\x00\x00\x9a\x01\x00\x00\x84\x00\x00\x002\x02\x00\x00~\x00\x00\x00o\x00\x00\x00W\x00\x00\x00=\x01\x00\x00\xfd\x01\x00\x00B\x01\x00\x008\x00\x00\x00\xf1\x01\x00\x00\x12\x00\x00\x00\x8e\x01\x00\x00\x87\x01\x00\x009\x02\x00\x00\x1e\x01\x00\x00\x9c\x01\x00\x00\xaa\x00\x00\x00\xc4\x01\x00\x00&\x02\x00\x00\xf5\x00\x00\x00\xb9\x01\x00\x00N\x00\x00\x00\x8c\x00\x00\x00\x88\x01\x00\x00\xbe\x01\x00\x007\x02\x00\x00\x11\x02\x00\x00\xe5\x00\x00\x00\xdc\x00\x00\x00Z\x01\x00\x00J\x02\x00\x00-\x00\x00\x00\xd3\x00\x00\x00\xb8\x01\x00\x00b\x01\x00\x00\xf6\x00\x00\x00r\x00\x00\x009\x00\x00\x00\xdb\x01\x00\x00\x04\x02\x00\x00\xe7\x00\x00\x00\xe6\x01\x00\x00;\x02\x00\x00^\x00\x00\x00 \x01\x00\x007\x01\x00\x00\x1f\x02\x00\x00\xc8\x00\x00\x00\xb0\x00\x00\x00g\x01\x00\x00C\x01\x00\x00\xc0\x00\x00\x00q\x00\x00\x00\xbd\x01\x00\x00*\x02\x00\x00\x96\x00\x00\x00;\x00\x00\x00(\x02\x00\x00\xbf\x01\x00\x00\x8c\x01\x00\x00Q\x01\x00\x00\n\x00\x00\x00\xef\x01\x00\x00J\x00\x00\x00L\x01\x00\x00\xa8\x01\x00\x00\xd0\x00\x00\x00\x13\x02\x00\x00\x8f\x01\x00\x00\xac\x00\x00\x00\n\x01\x00\x00S\x00\x00\x00\x92\x00\x00\x00\xbf\x00\x00\x00\xc3\x00\x00\x00\xdd\x01\x00\x00P\x02\x00\x00\xa5\x00\x00\x00>\x00\x00\x00*\x00\x00\x00\x0b\x02\x00\x00O\x02\x00\x00M\x01\x00\x00\x06\x01\x00\x00\x01\x02\x00\x00C\x02\x00\x00y\x00\x00\x00<\x00\x00\x00P\x00\x00\x00\xdf\x00\x00\x00\xe4\x00\x00\x00?\x02\x00\x00V\x00\x00\x00%\x01\x00\x00^\x01\x00\x00\xd1\x01\x00\x00\xe0\x00\x00\x00\x10\x00\x00\x00#\x02\x00\x00=\x00\x00\x00\x9c\x00\x00\x00X\x00\x00\x00p\x01\x00\x00\x13\x01\x00\x00\xf1\x00\x00\x00S\x02\x00\x00\'\x02\x00\x00\xd6\x00\x00\x00Y\x01\x00\x00k\x00\x00\x00/\x01\x00\x00v\x01\x00\x00\x1f\x00\x00\x00\x9b\x01\x00\x00\xcc\x00\x00\x00/\x02\x00\x00H\x01\x00\x00 \x00\x00\x00\xce\x00\x00\x00,\x01\x00\x00\xb3\x01\x00\x00\x7f\x00\x00\x00\x01\x01\x00\x00$\x02\x00\x00&\x00\x00\x00\xdf\x01\x00\x00G\x01\x00\x00\xda\x00\x00\x00t\x01\x00\x00c\x00\x00\x00\xa7\x00\x00\x00>\x02\x00\x00T\x02\x00\x00,\x02\x00\x00\xdd\x00\x00\x00L\x00\x00\x00f\x01\x00\x00\xab\x01\x00\x00A\x00\x00\x00\xc2\x01\x00\x00~\x01\x00\x00\xfb\x01\x00\x00\x89\x00\x00\x00)\x01\x00\x00\\\x00\x00\x00\x02\x01\x00\x003\x01\x00\x00<\x02\x00\x00"\x02\x00\x00\x9d\x01\x00\x00\xde\x01\x00\x00\x0b\x00\x00\x00a\x00\x00\x00 \x02\x00\x00\x08\x00\x00\x00Q\x00\x00\x00!\x00\x00\x00\xcb\x01\x00\x00\xb8\x00\x00\x00T\x01\x00\x00\x17\x00\x00\x00\xe9\x01\x00\x00\x8b\x01\x00\x00\x10\x02\x00\x00)\x02\x00\x00I\x02\x00\x00\x1f\x01\x00\x00\xba\x00\x00\x00\x04\x00\x00\x00\x0b\x01\x00\x00\xbc\x01\x00\x00+\x02\x00\x00\x96\x01\x00\x00\x8a\x01\x00\x00\xa6\x01\x00\x00X\x01\x00\x00\x93\x00\x00\x00\xf3\x00\x00\x005\x02\x00\x00\xfe\x00\x00\x00\xc1\x00\x00\x00\xb2\x00\x00\x00\xcd\x01\x00\x00[\x01\x00\x00\xee\x01\x00\x00l\x00\x00\x00\t\x00\x00\x00\xf4\x01\x00\x00\xff\x00\x00\x00\x95\x00\x00\x00\xf5\x01\x00\x00\x14\x00\x00\x00\xe3\x00\x00\x00\x9b\x00\x00\x00_\x01\x00\x00u\x01\x00\x00\xa6\x00\x00\x00U\x02\x00\x00h\x01\x00\x00\xb9\x00\x00\x00\xda\x01\x00\x00E\x02\x00\x00y\x01\x00\x00S\x01\x00\x00p\x00\x00\x001\x01\x00\x00\xf0\x00\x00\x00@\x00\x00\x00\xd5\x01\x00\x00\xcd\x00\x00\x00\x1d\x02\x00\x00\xee\x00\x00\x00\x10\x01\x00\x00\xb1\x01\x00\x00\xc7\x01\x00\x00\x17\x02\x00\x00\x83\x01\x00\x00\xa5\x01\x00\x00\xd7\x01\x00\x00\xbe\x00\x00\x00\xd1\x00\x00\x00H\x00\x00\x00\xd9\x01\x00\x00\x9f\x00\x00\x00\xb4\x00\x00\x00|\x00\x00\x00\xb7\x00\x00\x00\x07\x00\x00\x00\xad\x00\x00\x00\xfa\x01\x00\x00@\x01\x00\x00o\x01\x00\x00I\x01\x00\x00j\x00\x00\x00\x00\x02\x00\x00\xe5\x01\x00\x00\x9e\x00\x00\x00\r\x02\x00\x00\x8e\x00\x00\x00\x97\x01\x00\x00\x18\x00\x00\x00\xcf\x00\x00\x00\x0c\x02\x00\x00\xf2\x00\x00\x00#\x00\x00\x00\x1d\x00\x00\x00\xec\x00\x00\x005\x00\x00\x00.\x01\x00\x00l\x01\x00\x00V\x01\x00\x00\xaa\x01\x00\x00\x95\x01\x00\x00\xfa\x00\x00\x00M\x00\x00\x00m\x00\x00\x00\xc6\x01\x00\x00\xde\x00\x00\x00\xc5\x00\x00\x00\x11\x00\x00\x00v\x00\x00\x00\xad\x01\x00\x00\xca\x00\x00\x00\xa9\x00\x00\x00\xc5\x01\x00\x00\xe9\x00\x00\x00\x1a\x00\x00\x00\xc7\x00\x00\x00\xc0\x01\x00\x00\xab\x00\x00\x00\x07\x02\x00\x00\xe7\x01\x00\x00i\x01\x00\x000\x02\x00\x009\x01\x00\x00\x1a\x01\x00\x00w\x00\x00\x00\x88\x00\x00\x00\x14\x02\x00\x00\x19\x02\x00\x00\x86\x01\x00\x00\x1b\x00\x00\x00\xc3\x01\x00\x00$\x01\x00\x00\xb5\x01\x00\x00R\x00\x00\x00\x0f\x01\x00\x00\x82\x01\x00\x00{\x01\x00\x000\x01\x00\x00\x03\x01\x00\x00\x99\x01\x00\x00f\x00\x00\x00\xc4\x00\x00\x00\xd0\x01\x00\x00t\x00\x00\x00$\x00\x00\x00\xf3\x01\x00\x00w\x01\x00\x00\xd5\x00\x00\x00H\x02\x00\x00\xa8\x00\x00\x002\x01\x00\x00\x03\x02\x00\x00\'\x01\x00\x00\xd2\x00\x00\x00P\x01\x00\x00\x0c\x01\x00\x00"\x00\x00\x00\x0e\x00\x00\x00\x81\x00\x00\x00\n\x02\x00\x00s\x01\x00\x00s\x00\x00\x003\x00\x00\x00\x14\x01\x00\x00\x90\x01\x00\x00\xdb\x00\x00\x00}\x01\x00\x00n\x00\x00\x00(\x01\x00\x00\xac\x01\x00\x00\xfb\x00\x00\x00a\x01\x00\x00\x8d\x00\x00\x00\x03\x00\x00\x00?\x01\x00\x00b\x00\x00\x00K\x00\x00\x00`\x01\x00\x00\x0f\x02\x00\x00\xfc\x00\x00\x00F\x02\x00\x00D\x00\x00\x00\t\x01\x00\x00:\x00\x00\x00\x19\x00\x00\x00\xbd\x00\x00\x00\xd9\x00\x00\x00\x16\x01\x00\x00F\x00\x00\x00\x18\x02\x00\x00\x1b\x02\x00\x00q\x01\x00\x00\xe2\x00\x00\x00K\x02\x00\x00\xa4\x01\x00\x00z\x01\x00\x00|\x01\x00\x008\x01\x00\x00U\x00\x00\x00\xa1\x00\x00\x00F\x01\x00\x00\x1e\x00\x00\x00B\x02\x00\x00\xf6\x01\x00\x00\xa0\x00\x00\x00\xce\x01\x00\x00\xf9\x01\x00\x00C\x00\x00\x00Z\x00\x00\x00Q\x02\x00\x00\xd8\x00\x00\x00\xe3\x01\x00\x00!\x02\x00\x00:\x02\x00\x00)\x00\x00\x00\r\x00\x00\x00\x15\x02\x00\x00&\x01\x00\x00\x91\x00\x00\x00\x82\x00\x00\x00+\x01\x00\x00\xb0\x01\x00\x00\x07\x01\x00\x00R\x01\x00\x00\xa7\x01\x00\x000\x00\x00\x00\xd8\x01\x00\x00\xe8\x00\x00\x00'
tbsg73
I01
sg74
I1
sg75
I-1
sg76
(lp4846
I0
aI1
aI2
aI3
aI4
aI5
aI6
aI7
aI8
aI9
aI10
aI11
aI12
aI13
aI14
aI15
aI16
aI17
aI18
aI19
aI20
aI21
aI22
aI23
aI24
aI25
aI26
aI27
aI28
aI29
aI30
aI31
aI32
aI33
aI34
aI35
aI36
aI37
aI38
aI39
aI40
aI41
aI42
aI43
aI44
aI45
aI46
aI47
aI48
aI49
aI50
aI51
aI52
aI53
aI54
aI55
aI56
aI57
aI58
aI59
aI60
aI61
aI62
aI63
aI64
aI65
aI66
aI67
aI68
aI69
aI70
aI71
aI72
aI73
aI74
aI75
aI76
aI77
aI78
aI79
aI80
aI81
aI82
aI83
aI84
aI85
aI86
aI87
aI88
aI89
aI90
aI91
aI92
aI93
aI94
aI95
aI96
aI97
aI98
aI99
aI100
aI101
aI102
aI103
aI104
aI105
aI106
aI107
aI108
aI109
aI110
aI111
aI112
aI113
aI114
aI115
aI116
aI117
aI118
aI119
aI120
aI121
aI122
aI123
aI124
aI125
aI126
aI127
aI128
aI129
aI130
aI131
aI132
aI133
aI134
aI135
aI136
aI137
aI138
aI139
aI140
aI141
aI142
aI143
aI144
aI145
aI146
aI147
aI148
aI149
aI150
aI151
aI152
aI153
aI154
aI155
aI156
aI157
aI158
aI159
aI160
aI161
aI162
aI163
aI164
aI165
aI166
aI167
aI168
aI169
aI170
aI171
aI172
aI173
aI174
aI175
aI176
aI177
aI178
aI179
aI180
aI181
aI182
aI183
aI184
aI185
aI186
aI187
aI188
aI189
aI190
aI191
aI192
aI193
aI194
aI195
aI196
aI197
aI198
aI199
aI200
aI201
aI202
aI203
aI204
aI205
aI206
aI207
aI208
aI209
aI210
aI211
aI212
aI213
aI214
aI215
aI216
aI217
aI218
aI219
aI220
aI221
aI222
aI223
aI224
aI225
aI226
aI227
aI228
aI229
aI230
aI231
aI232
aI233
aI234
aI235
aI236
aI237
aI238
aI239
aI240
aI241
aI242
aI243
aI244
aI245
aI246
aI247
aI248
aI249
aI250
aI251
aI252
aI253
aI254
aI255
aI256
aI257
aI258
aI259
aI260
aI261
aI262
aI263
aI264
aI265
aI266
aI267
aI268
aI269
aI270
aI271
aI272
aI273
aI274
aI275
aI276
aI277
aI278
aI279
aI280
aI281
aI282
aI283
aI284
aI285
aI286
aI287
aI288
aI289
aI290
aI291
aI292
aI293
aI294
aI295
aI296
aI297
aI298
aI299
aI300
aI301
aI302
aI303
aI304
aI305
aI306
aI307
aI308
aI309
aI310
aI311
aI312
aI313
aI314
aI315
aI316
aI317
aI318
aI319
aI320
aI321
aI322
aI323
aI324
aI325
aI326
aI327
aI328
aI329
aI330
aI331
aI332
aI333
aI334
aI335
aI336
aI337
aI338
aI339
aI340
aI341
aI342
aI343
aI344
aI345
aI346
aI347
aI348
aI349
aI350
aI351
aI352
aI353
aI354
aI355
aI356
aI357
aI358
aI359
aI360
aI361
aI362
aI363
aI364
aI365
aI366
aI367
aI368
aI369
aI370
aI371
aI372
aI373
aI374
aI375
aI376
aI377
aI378
aI379
aI380
aI381
aI382
aI383
aI384
aI385
aI386
aI387
aI388
aI389
aI390
aI391
aI392
aI393
aI394
aI395
aI396
aI397
aI398
aI399
aI400
aI401
aI402
aI403
aI404
aI405
aI406
aI407
aI408
aI409
aI410
aI411
aI412
aI413
aI414
aI415
aI416
aI417
aI418
aI419
aI420
aI421
aI422
aI423
aI424
aI425
aI426
aI427
aI428
aI429
aI430
aI431
aI432
aI433
aI434
aI435
aI436
aI437
aI438
aI439
aI440
aI441
aI442
aI443
aI444
aI445
aI446
aI447
aI448
aI449
aI450
aI451
aI452
aI453
aI454
aI455
aI456
aI457
aI458
aI459
aI460
aI461
aI462
aI463
aI464
aI465
aI466
aI467
aI468
aI469
aI470
aI471
aI472
aI473
aI474
aI475
aI476
aI477
aI478
aI479
aI480
aI481
aI482
aI483
aI484
aI485
aI486
aI487
aI488
aI489
aI490
aI491
aI492
aI493
aI494
aI495
aI496
aI497
aI498
aI499
aI500
aI501
aI502
aI503
aI504
aI505
aI506
aI507
aI508
aI509
aI510
aI511
aI512
aI513
aI514
aI515
aI516
aI517
aI518
aI519
aI520
aI521
aI522
aI523
aI524
aI525
aI526
aI527
aI528
aI529
aI530
aI531
aI532
aI533
aI534
aI535
aI536
aI537
aI538
aI539
aI540
aI541
aI542
aI543
aI544
aI545
aI546
aI547
aI548
aI549
aI550
aI551
aI552
aI553
aI554
aI555
aI556
aI557
aI558
aI559
aI560
aI561
aI562
aI563
aI564
aI565
aI566
aI567
aI568
aI569
aI570
aI571
aI572
aI573
aI574
aI575
aI576
aI577
aI578
aI579
aI580
aI581
aI582
aI583
aI584
aI585
aI586
aI587
aI588
aI589
aI590
aI591
aI592
aI593
aI594
aI595
aI596
aI597
aI598
aI599
asg78
Nsg79
cnumpy.core.multiarray
scalar
p4847
(g4845
S'\xe8\x00\x00\x00'
tRp4848
sg80
I600
sg81
I0
sg82
I600
sg83
I01
sbag36
asS'savePickle'
p4849
I00
sb.