ccopy_reg
_reconstructor
p1
(cpsychopy.data
ExperimentHandler
p2
c__builtin__
object
p3
NtRp4
(dp5
S'originPath'
p6
NsS'dataFileName'
p7
Vsubject628
p8
sS'runtimeInfo'
p9
NsS'name'
p10
VVERBALRBsubject 628
p11
sS'dataNames'
p12
(lp13
S'Block Number'
p14
aS'Key pressed'
p15
aS'Correct?'
p16
aS'Category'
p17
aS'Int Match?'
p18
aS'Int Response'
p19
aS'Int Correct?'
p20
aS'Line Accuracy'
p21
aS'Interference Accuracy'
p22
aS'Matching Interferences'
p23
aS'New instruction shown?'
p24
aS'Buttons switched?'
p25
aS'Fast?'
p26
asS'autoLog'
p27
I01
sS'extraInfo'
p28
(dp29
S'gender'
p30
VF
sS'age'
p31
V22
p32
ssS'loopsUnfinished'
p33
(lp34
g1
(cpsychopy.data
TrialHandler
p35
g3
NtRp36
(dp37
S'origin'
p38
NsS'thisTrial'
p39
I9
sS'_exp'
p40
I174621680
sg10
S''
sg6
S'C:\\Users\\Mike\\Desktop\\Dual2\\NEWSpatialRB.py'
p41
sS'thisRepN'
p42
I39
sg27
I01
sg28
NsS'data'
p43
g1
(cpsychopy.data
DataHandler
p44
c__builtin__
dict
p45
(dp46
S'ran'
p47
cnumpy.ma.core
_mareconstruct
p48
(cnumpy.ma.core
MaskedArray
p49
cnumpy
ndarray
p50
(I0
tp51
S'b'
tRp52
(I1
(I15
I40
tcnumpy
dtype
p53
(S'f4'
I0
I1
tRp54
(I3
S'<'
NNNI-1
I-1
I0
tbI00
S'\x00\x00\x80?\x00\x00\x80?\x00\x00\x80?\x00\x00\x80?\x00\x00\x80?\x00\x00\x80?\x00\x00\x80?\x00\x00\x80?\x00\x00\x80?\x00\x00\x80?\x00\x00\x80?\x00\x00\x80?\x00\x00\x80?\x00\x00\x80?\x00\x00\x80?\x00\x00\x80?\x00\x00\x80?\x00\x00\x80?\x00\x00\x80?\x00\x00\x80?\x00\x00\x80?\x00\x00\x80?\x00\x00\x80?\x00\x00\x80?\x00\x00\x80?\x00\x00\x80?\x00\x00\x80?\x00\x00\x80?\x00\x00\x80?\x00\x00\x80?\x00\x00\x80?\x00\x00\x80?\x00\x00\x80?\x00\x00\x80?\x00\x00\x80?\x00\x00\x80?\x00\x00\x80?\x00\x00\x80?\x00\x00\x80?\x00\x00\x80?\x00\x00\x80?\x00\x00\x80?\x00\x00\x80?\x00\x00\x80?\x00\x00\x80?\x00\x00\x80?\x00\x00\x80?\x00\x00\x80?\x00\x00\x80?\x00\x00\x80?\x00\x00\x80?\x00\x00\x80?\x00\x00\x80?\x00\x00\x80?\x00\x00\x80?\x00\x00\x80?\x00\x00\x80?\x00\x00\x80?\x00\x00\x80?\x00\x00\x80?\x00\x00\x80?\x00\x00\x80?\x00\x00\x80?\x00\x00\x80?\x00\x00\x80?\x00\x00\x80?\x00\x00\x80?\x00\x00\x80?\x00\x00\x80?\x00\x00\x80?\x00\x00\x80?\x00\x00\x80?\x00\x00\x80?\x00\x00\x80?\x00\x00\x80?\x00\x00\x80?\x00\x00\x80?\x00\x00\x80?\x00\x00\x80?\x00\x00\x80?\x00\x00\x80?\x00\x00\x80?\x00\x00\x80?\x00\x00\x80?\x00\x00\x80?\x00\x00\x80?\x00\x00\x80?\x00\x00\x80?\x00\x00\x80?\x00\x00\x80?\x00\x00\x80?\x00\x00\x80?\x00\x00\x80?\x00\x00\x80?\x00\x00\x80?\x00\x00\x80?\x00\x00\x80?\x00\x00\x80?\x00\x00\x80?\x00\x00\x80?\x00\x00\x80?\x00\x00\x80?\x00\x00\x80?\x00\x00\x80?\x00\x00\x80?\x00\x00\x80?\x00\x00\x80?\x00\x00\x80?\x00\x00\x80?\x00\x00\x80?\x00\x00\x80?\x00\x00\x80?\x00\x00\x80?\x00\x00\x80?\x00\x00\x80?\x00\x00\x80?\x00\x00\x80?\x00\x00\x80?\x00\x00\x80?\x00\x00\x80?\x00\x00\x80?\x00\x00\x80?\x00\x00\x80?\x00\x00\x80?\x00\x00\x80?\x00\x00\x80?\x00\x00\x80?\x00\x00\x80?\x00\x00\x80?\x00\x00\x80?\x00\x00\x80?\x00\x00\x80?\x00\x00\x80?\x00\x00\x80?\x00\x00\x80?\x00\x00\x80?\x00\x00\x80?\x00\x00\x80?\x00\x00\x80?\x00\x00\x80?\x00\x00\x80?\x00\x00\x80?\x00\x00\x80?\x00\x00\x80?\x00\x00\x80?\x00\x00\x80?\x00\x00\x80?\x00\x00\x80?\x00\x00\x80?\x00\x00\x80?\x00\x00\x80?\x00\x00\x80?\x00\x00\x80?\x00\x00\x80?\x00\x00\x80?\x00\x00\x80?\x00\x00\x80?\x00\x00\x80?\x00\x00\x80?\x00\x00\x80?\x00\x00\x80?\x00\x00\x80?\x00\x00\x80?\x00\x00\x80?\x00\x00\x80?\x00\x00\x80?\x00\x00\x80?\x00\x00\x80?\x00\x00\x80?\x00\x00\x80?\x00\x00\x80?\x00\x00\x80?\x00\x00\x80?\x00\x00\x80?\x00\x00\x80?\x00\x00\x80?\x00\x00\x80?\x00\x00\x80?\x00\x00\x80?\x00\x00\x80?\x00\x00\x80?\x00\x00\x80?\x00\x00\x80?\x00\x00\x80?\x00\x00\x80?\x00\x00\x80?\x00\x00\x80?\x00\x00\x80?\x00\x00\x80?\x00\x00\x80?\x00\x00\x80?\x00\x00\x80?\x00\x00\x80?\x00\x00\x80?\x00\x00\x80?\x00\x00\x80?\x00\x00\x80?\x00\x00\x80?\x00\x00\x80?\x00\x00\x80?\x00\x00\x80?\x00\x00\x80?\x00\x00\x80?\x00\x00\x80?\x00\x00\x80?\x00\x00\x80?\x00\x00\x80?\x00\x00\x80?\x00\x00\x80?\x00\x00\x80?\x00\x00\x80?\x00\x00\x80?\x00\x00\x80?\x00\x00\x80?\x00\x00\x80?\x00\x00\x80?\x00\x00\x80?\x00\x00\x80?\x00\x00\x80?\x00\x00\x80?\x00\x00\x80?\x00\x00\x80?\x00\x00\x80?\x00\x00\x80?\x00\x00\x80?\x00\x00\x80?\x00\x00\x80?\x00\x00\x80?\x00\x00\x80?\x00\x00\x80?\x00\x00\x80?\x00\x00\x80?\x00\x00\x80?\x00\x00\x80?\x00\x00\x80?\x00\x00\x80?\x00\x00\x80?\x00\x00\x80?\x00\x00\x80?\x00\x00\x80?\x00\x00\x80?\x00\x00\x80?\x00\x00\x80?\x00\x00\x80?\x00\x00\x80?\x00\x00\x80?\x00\x00\x80?\x00\x00\x80?\x00\x00\x80?\x00\x00\x80?\x00\x00\x80?\x00\x00\x80?\x00\x00\x80?\x00\x00\x80?\x00\x00\x80?\x00\x00\x80?\x00\x00\x80?\x00\x00\x80?\x00\x00\x80?\x00\x00\x80?\x00\x00\x80?\x00\x00\x80?\x00\x00\x80?\x00\x00\x80?\x00\x00\x80?\x00\x00\x80?\x00\x00\x80?\x00\x00\x80?\x00\x00\x80?\x00\x00\x80?\x00\x00\x80?\x00\x00\x80?\x00\x00\x80?\x00\x00\x80?\x00\x00\x80?\x00\x00\x80?\x00\x00\x80?\x00\x00\x80?\x00\x00\x80?\x00\x00\x80?\x00\x00\x80?\x00\x00\x80?\x00\x00\x80?\x00\x00\x80?\x00\x00\x80?\x00\x00\x80?\x00\x00\x80?\x00\x00\x80?\x00\x00\x80?\x00\x00\x80?\x00\x00\x80?\x00\x00\x80?\x00\x00\x80?\x00\x00\x80?\x00\x00\x80?\x00\x00\x80?\x00\x00\x80?\x00\x00\x80?\x00\x00\x80?\x00\x00\x80?\x00\x00\x80?\x00\x00\x80?\x00\x00\x80?\x00\x00\x80?\x00\x00\x80?\x00\x00\x80?\x00\x00\x80?\x00\x00\x80?\x00\x00\x80?\x00\x00\x80?\x00\x00\x80?\x00\x00\x80?\x00\x00\x80?\x00\x00\x80?\x00\x00\x80?\x00\x00\x80?\x00\x00\x80?\x00\x00\x80?\x00\x00\x80?\x00\x00\x80?\x00\x00\x80?\x00\x00\x80?\x00\x00\x80?\x00\x00\x80?\x00\x00\x80?\x00\x00\x80?\x00\x00\x80?\x00\x00\x80?\x00\x00\x80?\x00\x00\x80?\x00\x00\x80?\x00\x00\x80?\x00\x00\x80?\x00\x00\x80?\x00\x00\x80?\x00\x00\x80?\x00\x00\x80?\x00\x00\x80?\x00\x00\x80?\x00\x00\x80?\x00\x00\x80?\x00\x00\x80?\x00\x00\x80?\x00\x00\x80?\x00\x00\x80?\x00\x00\x80?\x00\x00\x80?\x00\x00\x80?\x00\x00\x80?\x00\x00\x80?\x00\x00\x80?\x00\x00\x80?\x00\x00\x80?\x00\x00\x80?\x00\x00\x80?\x00\x00\x80?\x00\x00\x80?\x00\x00\x80?\x00\x00\x80?\x00\x00\x80?\x00\x00\x80?\x00\x00\x80?\x00\x00\x80?\x00\x00\x80?\x00\x00\x80?\x00\x00\x80?\x00\x00\x80?\x00\x00\x80?\x00\x00\x80?\x00\x00\x80?\x00\x00\x80?\x00\x00\x80?\x00\x00\x80?\x00\x00\x80?\x00\x00\x80?\x00\x00\x80?\x00\x00\x80?\x00\x00\x80?\x00\x00\x80?\x00\x00\x80?\x00\x00\x80?\x00\x00\x80?\x00\x00\x80?\x00\x00\x80?\x00\x00\x80?\x00\x00\x80?\x00\x00\x80?\x00\x00\x80?\x00\x00\x80?\x00\x00\x80?\x00\x00\x80?\x00\x00\x80?\x00\x00\x80?\x00\x00\x80?\x00\x00\x80?\x00\x00\x80?\x00\x00\x80?\x00\x00\x80?\x00\x00\x80?\x00\x00\x80?\x00\x00\x80?\x00\x00\x80?\x00\x00\x80?\x00\x00\x80?\x00\x00\x80?\x00\x00\x80?\x00\x00\x80?\x00\x00\x80?\x00\x00\x80?\x00\x00\x80?\x00\x00\x80?\x00\x00\x80?\x00\x00\x80?\x00\x00\x80?\x00\x00\x80?\x00\x00\x80?\x00\x00\x80?\x00\x00\x80?\x00\x00\x80?\x00\x00\x80?\x00\x00\x80?\x00\x00\x80?\x00\x00\x80?\x00\x00\x80?\x00\x00\x80?\x00\x00\x80?\x00\x00\x80?\x00\x00\x80?\x00\x00\x80?\x00\x00\x80?\x00\x00\x80?\x00\x00\x80?\x00\x00\x80?\x00\x00\x80?\x00\x00\x80?\x00\x00\x80?\x00\x00\x80?\x00\x00\x80?\x00\x00\x80?\x00\x00\x80?\x00\x00\x80?\x00\x00\x80?\x00\x00\x80?\x00\x00\x80?\x00\x00\x80?\x00\x00\x80?\x00\x00\x80?\x00\x00\x80?\x00\x00\x80?\x00\x00\x80?\x00\x00\x80?\x00\x00\x80?\x00\x00\x80?\x00\x00\x80?\x00\x00\x80?\x00\x00\x80?\x00\x00\x80?\x00\x00\x80?\x00\x00\x80?\x00\x00\x80?\x00\x00\x80?\x00\x00\x80?\x00\x00\x80?\x00\x00\x80?\x00\x00\x80?\x00\x00\x80?\x00\x00\x80?\x00\x00\x80?\x00\x00\x80?\x00\x00\x80?\x00\x00\x80?\x00\x00\x80?\x00\x00\x80?\x00\x00\x80?\x00\x00\x80?\x00\x00\x80?\x00\x00\x80?\x00\x00\x80?\x00\x00\x80?\x00\x00\x80?\x00\x00\x80?\x00\x00\x80?\x00\x00\x80?\x00\x00\x80?\x00\x00\x80?\x00\x00\x80?\x00\x00\x80?\x00\x00\x80?\x00\x00\x80?\x00\x00\x80?\x00\x00\x80?\x00\x00\x80?\x00\x00\x80?\x00\x00\x80?\x00\x00\x80?\x00\x00\x80?\x00\x00\x80?\x00\x00\x80?\x00\x00\x80?\x00\x00\x80?\x00\x00\x80?\x00\x00\x80?\x00\x00\x80?\x00\x00\x80?\x00\x00\x80?\x00\x00\x80?\x00\x00\x80?\x00\x00\x80?\x00\x00\x80?\x00\x00\x80?\x00\x00\x80?\x00\x00\x80?\x00\x00\x80?\x00\x00\x80?\x00\x00\x80?\x00\x00\x80?\x00\x00\x80?\x00\x00\x80?\x00\x00\x80?\x00\x00\x80?\x00\x00\x80?\x00\x00\x80?\x00\x00\x80?\x00\x00\x80?\x00\x00\x80?\x00\x00\x80?\x00\x00\x80?\x00\x00\x80?\x00\x00\x80?\x00\x00\x80?\x00\x00\x80?\x00\x00\x80?\x00\x00\x80?\x00\x00\x80?\x00\x00\x80?\x00\x00\x80?\x00\x00\x80?\x00\x00\x80?\x00\x00\x80?\x00\x00\x80?\x00\x00\x80?\x00\x00\x80?\x00\x00\x80?\x00\x00\x80?\x00\x00\x80?\x00\x00\x80?\x00\x00\x80?\x00\x00\x80?\x00\x00\x80?\x00\x00\x80?\x00\x00\x80?\x00\x00\x80?\x00\x00\x80?\x00\x00\x80?\x00\x00\x80?\x00\x00\x80?\x00\x00\x80?\x00\x00\x80?\x00\x00\x80?\x00\x00\x80?\x00\x00\x80?\x00\x00\x80?\x00\x00\x80?\x00\x00\x80?\x00\x00\x80?\x00\x00\x80?\x00\x00\x80?\x00\x00\x80?\x00\x00\x80?\x00\x00\x80?\x00\x00\x80?\x00\x00\x80?\x00\x00\x80?\x00\x00\x80?\x00\x00\x80?\x00\x00\x80?\x00\x00\x80?\x00\x00\x80?\x00\x00\x80?\x00\x00\x80?\x00\x00\x80?\x00\x00\x80?\x00\x00\x80?\x00\x00\x80?\x00\x00\x80?\x00\x00\x80?\x00\x00\x80?\x00\x00\x80?\x00\x00\x80?\x00\x00\x80?\x00\x00\x80?\x00\x00\x80?\x00\x00\x80?\x00\x00\x80?\x00\x00\x80?\x00\x00\x80?\x00\x00\x80?\x00\x00\x80?\x00\x00\x80?\x00\x00\x80?'
S'\x00\x00\x00\x00\x00\x00\x00\x00\x00\x00\x00\x00\x00\x00\x00\x00\x00\x00\x00\x00\x00\x00\x00\x00\x00\x00\x00\x00\x00\x00\x00\x00\x00\x00\x00\x00\x00\x00\x00\x00\x00\x00\x00\x00\x00\x00\x00\x00\x00\x00\x00\x00\x00\x00\x00\x00\x00\x00\x00\x00\x00\x00\x00\x00\x00\x00\x00\x00\x00\x00\x00\x00\x00\x00\x00\x00\x00\x00\x00\x00\x00\x00\x00\x00\x00\x00\x00\x00\x00\x00\x00\x00\x00\x00\x00\x00\x00\x00\x00\x00\x00\x00\x00\x00\x00\x00\x00\x00\x00\x00\x00\x00\x00\x00\x00\x00\x00\x00\x00\x00\x00\x00\x00\x00\x00\x00\x00\x00\x00\x00\x00\x00\x00\x00\x00\x00\x00\x00\x00\x00\x00\x00\x00\x00\x00\x00\x00\x00\x00\x00\x00\x00\x00\x00\x00\x00\x00\x00\x00\x00\x00\x00\x00\x00\x00\x00\x00\x00\x00\x00\x00\x00\x00\x00\x00\x00\x00\x00\x00\x00\x00\x00\x00\x00\x00\x00\x00\x00\x00\x00\x00\x00\x00\x00\x00\x00\x00\x00\x00\x00\x00\x00\x00\x00\x00\x00\x00\x00\x00\x00\x00\x00\x00\x00\x00\x00\x00\x00\x00\x00\x00\x00\x00\x00\x00\x00\x00\x00\x00\x00\x00\x00\x00\x00\x00\x00\x00\x00\x00\x00\x00\x00\x00\x00\x00\x00\x00\x00\x00\x00\x00\x00\x00\x00\x00\x00\x00\x00\x00\x00\x00\x00\x00\x00\x00\x00\x00\x00\x00\x00\x00\x00\x00\x00\x00\x00\x00\x00\x00\x00\x00\x00\x00\x00\x00\x00\x00\x00\x00\x00\x00\x00\x00\x00\x00\x00\x00\x00\x00\x00\x00\x00\x00\x00\x00\x00\x00\x00\x00\x00\x00\x00\x00\x00\x00\x00\x00\x00\x00\x00\x00\x00\x00\x00\x00\x00\x00\x00\x00\x00\x00\x00\x00\x00\x00\x00\x00\x00\x00\x00\x00\x00\x00\x00\x00\x00\x00\x00\x00\x00\x00\x00\x00\x00\x00\x00\x00\x00\x00\x00\x00\x00\x00\x00\x00\x00\x00\x00\x00\x00\x00\x00\x00\x00\x00\x00\x00\x00\x00\x00\x00\x00\x00\x00\x00\x00\x00\x00\x00\x00\x00\x00\x00\x00\x00\x00\x00\x00\x00\x00\x00\x00\x00\x00\x00\x00\x00\x00\x00\x00\x00\x00\x00\x00\x00\x00\x00\x00\x00\x00\x00\x00\x00\x00\x00\x00\x00\x00\x00\x00\x00\x00\x00\x00\x00\x00\x00\x00\x00\x00\x00\x00\x00\x00\x00\x00\x00\x00\x00\x00\x00\x00\x00\x00\x00\x00\x00\x00\x00\x00\x00\x00\x00\x00\x00\x00\x00\x00\x00\x00\x00\x00\x00\x00\x00\x00\x00\x00\x00\x00\x00\x00\x00\x00\x00\x00\x00\x00\x00\x00\x00\x00\x00\x00\x00\x00\x00\x00\x00\x00\x00\x00\x00\x00\x00\x00\x00\x00\x00\x00\x00\x00\x00\x00\x00\x00\x00\x00\x00\x00\x00\x00\x00\x00\x00\x00\x00\x00\x00\x00\x00\x00\x00\x00\x00\x00\x00\x00\x00\x00\x00\x00\x00\x00\x00\x00\x00\x00\x00\x00\x00\x00\x00\x00\x00\x00\x00\x00\x00\x00\x00\x00\x00\x00\x00\x00\x00\x00\x00\x00\x00\x00\x00\x00\x00\x00\x00\x00\x00\x00\x00\x00\x00\x00\x00\x00\x00\x00\x00\x00\x00\x00\x00\x00\x00\x00\x00\x00\x00\x00'
NtbsS'order'
p55
g48
(g49
g50
g51
S'b'
tRp56
(I1
(I15
I40
tg54
I00
S'\x00\x00\x80?\x00\x00\x90B\x00\x00\x9cB\x00\x00\xa6B\x00\x00\xaaB\x00\x00\xc0B\x00\x00\xc4B\x00\x00\xecB\x00\x00\xf8B\x00\x00\x04C\x00\x00\x10C\x00\x00\x1aC\x00\x00)C\x00\x00[C\x00\x00cC\x00\x00uC\x00\x00wC\x00\x80\x81C\x00\x80\x86C\x00\x80\x8cC\x00\x80\x93C\x00\x00\x97C\x00\x80\x99C\x00\x80\xa9C\x00\x80\xb7C\x00\x80\xb9C\x00\x00\xbcC\x00\x00\xbeC\x00\x00\xc2C\x00\x00\xccC\x00\x80\xdbC\x00\x80\xf5C\x00\x00\xf9C\x00@\x03D\x00\x00\x05D\x00\x80\x06D\x00\xc0\x07D\x00\xc0\x11D\x00\xc0\x14D\x00\x00\x15D\x00\x00\x80@\x00\x00\x88A\x00\x00\x04B\x00\x00$B\x00\x000B\x00\x00hB\x00\x00\x92B\x00\x00\x9eB\x00\x00\xa0B\x00\x00\xdaB\x00\x00\xe8B\x00\x00\xeaB\x00\x00\x0cC\x00\x00LC\x00\x00aC\x00\x00vC\x00\x00\x83C\x00\x00\x8aC\x00\x80\x8aC\x00\x80\x95C\x00\x00\x99C\x00\x00\xa0C\x00\x80\xa0C\x00\x80\xa3C\x00\x00\xadC\x00\x80\xbfC\x00\x80\xc3C\x00\x80\xceC\x00\x80\xddC\x00\x00\xe9C\x00\x80\xefC\x00\x00\xf0C\x00\x80\xf6C\x00\x80\xf9C\x00\x80\xfeC\x00\x80\x02D\x00\xc0\x04D\x00\x80\x10D\x00\x80\x11D\x00@\x13D\x00\x00@A\x00\x00`A\x00\x00\xc8A\x00\x00\x86B\x00\x00\xd2B\x00\x00\xd4B\x00\x00\xe6B\x00\x00\xf0B\x00\x00\x11C\x00\x00\x12C\x00\x00\x13C\x00\x00%C\x00\x000C\x00\x00CC\x00\x00YC\x00\x00ZC\x00\x00eC\x00\x00nC\x00\x00pC\x00\x80\x8dC\x00\x80\x9aC\x00\x00\xa1C\x00\x80\xafC\x00\x00\xb9C\x00\x00\xbaC\x00\x80\xbdC\x00\x00\xc5C\x00\x80\xd7C\x00\x00\xe3C\x00\x00\xebC\x00\x80\xecC\x00\x00\xf1C\x00\x00\xf4C\x00\x00\xfbC\x00@\x05D\x00@\x06D\x00@\nD\x00\xc0\nD\x00\x00\x10D\x00@\x15D\x00\x00\xe0@\x00\x00\x10B\x00\x00(B\x00\x00DB\x00\x00XB\x00\x00\xb6B\x00\x00\xc6B\x00\x00\xd6B\x00\x00\xdeB\x00\x00\nC\x00\x00\x1cC\x00\x00"C\x00\x005C\x00\x00:C\x00\x00PC\x00\x00hC\x00\x00jC\x00\x00xC\x00\x00\x86C\x00\x80\x8bC\x00\x00\x8fC\x00\x00\x92C\x00\x00\x93C\x00\x00\xa3C\x00\x00\xa6C\x00\x80\xc1C\x00\x00\xc3C\x00\x00\xc8C\x00\x80\xc9C\x00\x00\xceC\x00\x80\xd3C\x00\x80\xd8C\x00\x00\xdeC\x00\x00\xe0C\x00\x00\xe7C\x00\x80\xeeC\x00\x80\x00D\x00\x00\tD\x00\xc0\x0eD\x00\xc0\x13D\x00\x00\x00@\x00\x00@@\x00\x00 A\x00\x00\x14B\x00\x00<B\x00\x00HB\x00\x00PB\x00\x00\x96B\x00\x00\xf2B\x00\x00\x01C\x00\x00\x14C\x00\x00\'C\x00\x003C\x00\x009C\x00\x00<C\x00\x00HC\x00\x00\\C\x00\x00lC\x00\x00{C\x00\x00\x7fC\x00\x00\x88C\x00\x80\x88C\x00\x80\x98C\x00\x80\x9cC\x00\x00\xb4C\x00\x80\xb4C\x00\x00\xbfC\x00\x80\xcfC\x00\x00\xddC\x00\x80\xe0C\x00\x80\xe2C\x00\x00\xe4C\x00\x80\xe4C\x00\x80\xebC\x00\x80\x03D\x00\x80\x0bD\x00\x00\x0eD\x00\x80\x0eD\x00@\x0fD\x00\xc0\x12D\x00\x008B\x00\x00dB\x00\x00xB\x00\x00\x94B\x00\x00\xacB\x00\x00\xcaB\x00\x00\xe0B\x00\x00!C\x00\x00$C\x00\x001C\x00\x008C\x00\x00;C\x00\x00MC\x00\x00TC\x00\x00\x82C\x00\x00\x84C\x00\x80\x85C\x00\x80\x9bC\x00\x80\xa7C\x00\x00\xaaC\x00\x00\xacC\x00\x00\xb0C\x00\x00\xb1C\x00\x80\xb1C\x00\x80\xbbC\x00\x00\xbdC\x00\x80\xbeC\x00\x00\xc6C\x00\x80\xc8C\x00\x80\xd1C\x00\x00\xd3C\x00\x00\xd4C\x00\x00\xd8C\x00\x80\xdfC\x00\x00\xeeC\x00\x00\x07D\x00\x80\tD\x00@\x10D\x00\x00\x11D\x00\x80\x13D\x00\x00\xd8A\x00\x004B\x00\x00`B\x00\x00\x8eB\x00\x00\x98B\x00\x00\xfaB\x00\x00\x0bC\x00\x00\rC\x00\x002C\x00\x00@C\x00\x00DC\x00\x00EC\x00\x00KC\x00\x00VC\x00\x00]C\x00\x00mC\x00\x00rC\x00\x00\x8eC\x00\x80\x8fC\x00\x80\x90C\x00\x00\x91C\x00\x80\x92C\x00\x80\x9dC\x00\x80\x9fC\x00\x00\xa9C\x00\x80\xb3C\x00\x80\xb8C\x00\x00\xbbC\x00\x00\xc7C\x00\x00\xd6C\x00\x80\xdeC\x00\x80\xe7C\x00\x00\xf6C\x00\x00\xf8C\x00\x00\xfaC\x00\x80\x01D\x00\x00\x02D\x00\xc0\x08D\x00@\tD\x00@\x0cD\x00\x00\xa0A\x00\x00\xd0A\x00\x00\xe0A\x00\x00\xf8A\x00\x00\x18B\x00\x00TB\x00\x00tB\x00\x00\xc8B\x00\x00\xccB\x00\x00\x05C\x00\x00\x07C\x00\x00\x1bC\x00\x00.C\x00\x00=C\x00\x00AC\x00\x00IC\x00\x00JC\x00\x00QC\x00\x00SC\x00\x00_C\x00\x00bC\x00\x80\x94C\x00\x00\x9aC\x00\x80\x9eC\x00\x00\xabC\x00\x80\xaeC\x00\x80\xc0C\x00\x00\xc4C\x00\x00\xcdC\x00\x00\xd7C\x00\x80\xd9C\x00\x00\xdaC\x00\x80\xeaC\x00\x80\xf2C\x00\x00\x00D\x00\x00\x03D\x00\x00\x06D\x00@\x08D\x00\xc0\tD\x00@\x11D\x00\x00\x00A\x00\x00\\B\x00\x00lB\x00\x00\x9aB\x00\x00\xa4B\x00\x00\xbeB\x00\x00\xd0B\x00\x00\xf4B\x00\x00\xfeB\x00\x00\x00C\x00\x00\x06C\x00\x00\x17C\x00\x00\x1dC\x00\x00\x1fC\x00\x004C\x00\x00>C\x00\x00BC\x00\x80\x83C\x00\x80\x87C\x00\x00\x8bC\x00\x00\xa2C\x00\x80\xa6C\x00\x80\xabC\x00\x80\xadC\x00\x00\xafC\x00\x00\xc1C\x00\x80\xc2C\x00\x00\xc9C\x00\x00\xcaC\x00\x80\xd4C\x00\x00\xd9C\x00\x00\xdcC\x00\x80\xe9C\x00\x00\xf3C\x00@\x04D\x00\x00\x08D\x00\x80\x08D\x00\x00\rD\x00\x80\rD\x00@\x0eD\x00\x00\xc0A\x00\x00LB\x00\x00\x82B\x00\x00\xceB\x00\x00\xd8B\x00\x00\xe4B\x00\x00\x02C\x00\x00 C\x00\x00,C\x00\x007C\x00\x00RC\x00\x00gC\x00\x00iC\x00\x80\x82C\x00\x80\x8eC\x00\x80\x97C\x00\x00\xaeC\x00\x00\xb3C\x00\x80\xb5C\x00\x00\xb6C\x00\x80\xc4C\x00\x80\xcbC\x00\x80\xcdC\x00\x00\xd2C\x00\x80\xd2C\x00\x80\xd5C\x00\x80\xdaC\x00\x00\xe5C\x00\x00\xe6C\x00\x00\xeaC\x00\x80\xf1C\x00\x00\xf7C\x00\x80\xfbC\x00@\x00D\x00\xc0\x02D\x00\x00\x0bD\x00\x80\x0cD\x00\x00\x0fD\x00\x00\x14D\x00\xc0\x15D\x00\x00\x10A\x00\x00\x90A\x00\x00\xf0A\x00\x00|B\x00\x00\xbaB\x00\x00\xe2B\x00\x00\tC\x00\x00\x0fC\x00\x00\x18C\x00\x00(C\x00\x00/C\x00\x00FC\x00\x00NC\x00\x00fC\x00\x00qC\x00\x00sC\x00\x00yC\x00\x00\x80C\x00\x00\x8dC\x00\x00\x95C\x00\x00\x98C\x00\x00\x9cC\x00\x00\x9dC\x00\x00\x9fC\x00\x80\xa2C\x00\x80\xa4C\x00\x00\xa8C\x00\x80\xaaC\x00\x80\xb2C\x00\x80\xb6C\x00\x80\xdcC\x00\x00\xedC\x00\x00\xfeC\x00\x00\xffC\x00\xc0\x00D\x00@\x01D\x00\x80\x0fD\x00\xc0\x10D\x00\x80\x12D\x00\x00\x13D\x00\x00\xa8A\x00\x00\xb0A\x00\x00\x08B\x00\x00\x0cB\x00\x00@B\x00\x00\x80B\x00\x00\xa8B\x00\x00\xeeB\x00\x00\x1eC\x00\x006C\x00\x00?C\x00\x00GC\x00\x00^C\x00\x00`C\x00\x00~C\x00\x00\x85C\x00\x80\x91C\x00\x00\x94C\x00\x00\xa5C\x00\x00\xa7C\x00\x80\xacC\x00\x00\xc0C\x00\x80\xcaC\x00\x80\xccC\x00\x00\xd1C\x00\x00\xdfC\x00\x00\xe1C\x00\x80\xe1C\x00\x00\xe2C\x00\x00\xefC\x00\x80\xf0C\x00\x80\xffC\x00\x80\x04D\x00\xc0\x06D\x00\x80\x07D\x00\x00\nD\x00@\rD\x00\xc0\rD\x00\x00\x12D\x00\x80\x14D\x00\x00\xc0@\x00\x000A\x00\x00\x00B\x00\x00,B\x00\x00pB\x00\x00\x88B\x00\x00\xb4B\x00\x00\xdcB\x00\x00\xf6B\x00\x00\x08C\x00\x00\x16C\x00\x00#C\x00\x00&C\x00\x00OC\x00\x00WC\x00\x00XC\x00\x00zC\x00\x00}C\x00\x00\x81C\x00\x00\x87C\x00\x00\x96C\x00\x00\x9bC\x00\x00\x9eC\x00\x00\xa4C\x00\x80\xb0C\x00\x00\xb2C\x00\x80\xbaC\x00\x00\xcfC\x00\x00\xd5C\x00\x00\xe8C\x00\x00\xf2C\x00\x80\xf3C\x00\x80\xfcC\x00\x00\xfdC\x00\xc0\x03D\x00\x00\x04D\x00@\x07D\x00\x00\x0cD\x00@\x14D\x00\x80\x15D\x00\x00\xa0@\x00\x00pA\x00\x00\x98A\x00\x00 B\x00\x00\x84B\x00\x00\x8aB\x00\x00\x8cB\x00\x00\xb0B\x00\x00\xb2B\x00\x00\xbcB\x00\x00\xc2B\x00\x00\x0eC\x00\x00+C\x00\x00-C\x00\x00kC\x00\x00tC\x00\x80\x80C\x00\x80\x84C\x00\x00\x89C\x00\x00\x90C\x00\x80\x96C\x00\x80\xa1C\x00\x00\xb5C\x00\x80\xbcC\x00\x80\xc5C\x00\x80\xc7C\x00\x00\xd0C\x00\x80\xd6C\x00\x00\xdbC\x00\x80\xe6C\x00\x80\xf4C\x00\x00\xf5C\x00\x80\xfaC\x00\xc0\x01D\x00@\x02D\x00\x80\nD\x00@\x0bD\x00\xc0\x0bD\x00\xc0\x0cD\x00@\x12D\x00\x00\x00\x00\x00\x00PA\x00\x00\x80A\x00\x00\xb8A\x00\x00\xe8A\x00\x00\x1cB\x00\x00\xa2B\x00\x00\xaeB\x00\x00\xb8B\x00\x00\xfcB\x00\x00\x03C\x00\x00\x15C\x00\x00\x19C\x00\x00*C\x00\x00UC\x00\x00dC\x00\x00oC\x00\x00|C\x00\x80\x89C\x00\x00\x8cC\x00\x80\xa5C\x00\x80\xa8C\x00\x00\xb7C\x00\x00\xb8C\x00\x80\xc6C\x00\x00\xcbC\x00\x80\xd0C\x00\x80\xe3C\x00\x80\xe5C\x00\x80\xe8C\x00\x00\xecC\x00\x80\xedC\x00\x80\xf7C\x00\x80\xf8C\x00\x00\xfcC\x00\x80\xfdC\x00\x00\x01D\x00\x80\x05D\x00\xc0\x05D\x00\xc0\x0fD'
S'\x00\x00\x00\x00\x00\x00\x00\x00\x00\x00\x00\x00\x00\x00\x00\x00\x00\x00\x00\x00\x00\x00\x00\x00\x00\x00\x00\x00\x00\x00\x00\x00\x00\x00\x00\x00\x00\x00\x00\x00\x00\x00\x00\x00\x00\x00\x00\x00\x00\x00\x00\x00\x00\x00\x00\x00\x00\x00\x00\x00\x00\x00\x00\x00\x00\x00\x00\x00\x00\x00\x00\x00\x00\x00\x00\x00\x00\x00\x00\x00\x00\x00\x00\x00\x00\x00\x00\x00\x00\x00\x00\x00\x00\x00\x00\x00\x00\x00\x00\x00\x00\x00\x00\x00\x00\x00\x00\x00\x00\x00\x00\x00\x00\x00\x00\x00\x00\x00\x00\x00\x00\x00\x00\x00\x00\x00\x00\x00\x00\x00\x00\x00\x00\x00\x00\x00\x00\x00\x00\x00\x00\x00\x00\x00\x00\x00\x00\x00\x00\x00\x00\x00\x00\x00\x00\x00\x00\x00\x00\x00\x00\x00\x00\x00\x00\x00\x00\x00\x00\x00\x00\x00\x00\x00\x00\x00\x00\x00\x00\x00\x00\x00\x00\x00\x00\x00\x00\x00\x00\x00\x00\x00\x00\x00\x00\x00\x00\x00\x00\x00\x00\x00\x00\x00\x00\x00\x00\x00\x00\x00\x00\x00\x00\x00\x00\x00\x00\x00\x00\x00\x00\x00\x00\x00\x00\x00\x00\x00\x00\x00\x00\x00\x00\x00\x00\x00\x00\x00\x00\x00\x00\x00\x00\x00\x00\x00\x00\x00\x00\x00\x00\x00\x00\x00\x00\x00\x00\x00\x00\x00\x00\x00\x00\x00\x00\x00\x00\x00\x00\x00\x00\x00\x00\x00\x00\x00\x00\x00\x00\x00\x00\x00\x00\x00\x00\x00\x00\x00\x00\x00\x00\x00\x00\x00\x00\x00\x00\x00\x00\x00\x00\x00\x00\x00\x00\x00\x00\x00\x00\x00\x00\x00\x00\x00\x00\x00\x00\x00\x00\x00\x00\x00\x00\x00\x00\x00\x00\x00\x00\x00\x00\x00\x00\x00\x00\x00\x00\x00\x00\x00\x00\x00\x00\x00\x00\x00\x00\x00\x00\x00\x00\x00\x00\x00\x00\x00\x00\x00\x00\x00\x00\x00\x00\x00\x00\x00\x00\x00\x00\x00\x00\x00\x00\x00\x00\x00\x00\x00\x00\x00\x00\x00\x00\x00\x00\x00\x00\x00\x00\x00\x00\x00\x00\x00\x00\x00\x00\x00\x00\x00\x00\x00\x00\x00\x00\x00\x00\x00\x00\x00\x00\x00\x00\x00\x00\x00\x00\x00\x00\x00\x00\x00\x00\x00\x00\x00\x00\x00\x00\x00\x00\x00\x00\x00\x00\x00\x00\x00\x00\x00\x00\x00\x00\x00\x00\x00\x00\x00\x00\x00\x00\x00\x00\x00\x00\x00\x00\x00\x00\x00\x00\x00\x00\x00\x00\x00\x00\x00\x00\x00\x00\x00\x00\x00\x00\x00\x00\x00\x00\x00\x00\x00\x00\x00\x00\x00\x00\x00\x00\x00\x00\x00\x00\x00\x00\x00\x00\x00\x00\x00\x00\x00\x00\x00\x00\x00\x00\x00\x00\x00\x00\x00\x00\x00\x00\x00\x00\x00\x00\x00\x00\x00\x00\x00\x00\x00\x00\x00\x00\x00\x00\x00\x00\x00\x00\x00\x00\x00\x00\x00\x00\x00\x00\x00\x00\x00\x00\x00\x00\x00\x00\x00\x00\x00\x00\x00\x00\x00\x00\x00\x00\x00\x00\x00\x00\x00\x00\x00\x00\x00\x00\x00\x00\x00\x00\x00\x00\x00\x00\x00\x00\x00\x00\x00\x00\x00\x00\x00\x00\x00\x00\x00\x00\x00\x00\x00\x00\x00\x00\x00'
NtbstRp57
(dp58
S'isNumeric'
p59
(dp60
g47
I01
sg55
I01
ssS'trials'
p61
g36
sS'dataTypes'
p62
(lp63
g47
ag55
asS'dataShape'
p64
(lp65
I15
aI40
asbsS'method'
p66
S'fullRandom'
p67
sS'sequenceIndices'
p68
cnumpy.core.multiarray
_reconstruct
p69
(g50
(I0
tS'b'
tRp70
(I1
(I15
I40
tg53
(S'O4'
I0
I1
tRp71
(I3
S'|'
NNNI-1
I-1
I63
tbI00
(lp72
I14
aI13
aI10
aI6
aI12
aI4
aI12
aI2
aI2
aI7
aI12
aI2
aI8
aI2
aI9
aI1
aI2
aI4
aI12
aI9
aI12
aI6
aI11
aI11
aI4
aI5
aI3
aI11
aI9
aI7
aI11
aI14
aI1
aI14
aI10
aI0
aI5
aI2
aI4
aI13
aI0
aI14
aI7
aI5
aI7
aI6
aI3
aI2
aI4
aI12
aI8
aI12
aI3
aI6
aI7
aI7
aI10
aI10
aI8
aI3
aI13
aI12
aI14
aI1
aI4
aI0
aI1
aI14
aI9
aI7
aI11
aI1
aI11
aI6
aI11
aI4
aI12
aI9
aI3
aI10
aI4
aI1
aI12
aI4
aI5
aI8
aI14
aI3
aI8
aI10
aI10
aI4
aI11
aI6
aI5
aI0
aI6
aI13
aI4
aI6
aI0
aI7
aI3
aI8
aI13
aI13
aI7
aI9
aI5
aI9
aI11
aI8
aI2
aI14
aI7
aI12
aI11
aI13
aI9
aI4
aI4
aI10
aI1
aI11
aI10
aI0
aI10
aI9
aI12
aI3
aI14
aI10
aI9
aI10
aI14
aI14
aI10
aI12
aI4
aI13
aI9
aI10
aI8
aI9
aI9
aI5
aI9
aI0
aI3
aI13
aI4
aI9
aI9
aI0
aI9
aI12
aI0
aI4
aI4
aI10
aI1
aI13
aI11
aI3
aI11
aI1
aI13
aI1
aI0
aI6
aI0
aI0
aI5
aI11
aI6
aI2
aI13
aI0
aI13
aI6
aI10
aI6
aI11
aI7
aI9
aI2
aI2
aI11
aI5
aI0
aI2
aI7
aI12
aI1
aI3
aI8
aI8
aI13
aI10
aI1
aI13
aI7
aI11
aI4
aI9
aI1
aI8
aI12
aI6
aI1
aI7
aI14
aI4
aI4
aI12
aI10
aI0
aI5
aI14
aI6
aI4
aI1
aI5
aI8
aI10
aI0
aI13
aI7
aI8
aI8
aI14
aI2
aI7
aI6
aI10
aI11
aI7
aI12
aI14
aI5
aI12
aI11
aI3
aI9
aI13
aI14
aI0
aI3
aI14
aI6
aI3
aI13
aI3
aI7
aI12
aI9
aI1
aI9
aI1
aI11
aI1
aI1
aI10
aI2
aI14
aI5
aI5
aI9
aI12
aI10
aI4
aI4
aI8
aI13
aI14
aI1
aI8
aI6
aI2
aI3
aI3
aI11
aI4
aI4
aI2
aI8
aI13
aI5
aI8
aI13
aI8
aI9
aI5
aI7
aI2
aI3
aI0
aI1
aI1
aI3
aI0
aI2
aI14
aI5
aI0
aI4
aI14
aI3
aI9
aI4
aI4
aI14
aI12
aI2
aI10
aI0
aI6
aI9
aI5
aI9
aI8
aI14
aI7
aI7
aI12
aI0
aI0
aI10
aI8
aI10
aI11
aI13
aI4
aI6
aI2
aI9
aI3
aI8
aI8
aI6
aI7
aI13
aI6
aI12
aI14
aI1
aI6
aI1
aI6
aI1
aI9
aI2
aI2
aI9
aI6
aI2
aI3
aI13
aI1
aI12
aI10
aI9
aI14
aI3
aI13
aI11
aI3
aI9
aI4
aI0
aI8
aI7
aI7
aI1
aI0
aI3
aI10
aI5
aI3
aI3
aI2
aI8
aI0
aI5
aI6
aI11
aI13
aI12
aI13
aI3
aI14
aI10
aI13
aI14
aI13
aI14
aI6
aI8
aI10
aI11
aI4
aI2
aI13
aI8
aI13
aI0
aI7
aI2
aI9
aI2
aI9
aI10
aI8
aI5
aI4
aI13
aI12
aI13
aI14
aI0
aI12
aI10
aI5
aI5
aI2
aI7
aI3
aI4
aI7
aI6
aI9
aI14
aI13
aI12
aI6
aI14
aI5
aI11
aI5
aI0
aI12
aI7
aI1
aI6
aI6
aI5
aI5
aI1
aI14
aI2
aI5
aI2
aI11
aI10
aI6
aI4
aI4
aI11
aI0
aI11
aI5
aI3
aI10
aI12
aI0
aI8
aI5
aI13
aI2
aI11
aI13
aI5
aI0
aI12
aI13
aI7
aI7
aI8
aI7
aI0
aI2
aI6
aI3
aI5
aI0
aI14
aI7
aI1
aI0
aI2
aI3
aI5
aI6
aI12
aI11
aI6
aI14
aI5
aI10
aI7
aI10
aI1
aI7
aI10
aI2
aI3
aI8
aI14
aI5
aI5
aI3
aI3
aI6
aI14
aI1
aI2
aI11
aI11
aI1
aI2
aI14
aI7
aI12
aI1
aI1
aI13
aI9
aI0
aI7
aI4
aI12
aI6
aI7
aI3
aI7
aI2
aI12
aI3
aI2
aI10
aI4
aI12
aI8
aI9
aI12
aI0
aI3
aI11
aI3
aI3
aI6
aI11
aI1
aI10
aI9
aI0
aI2
aI4
aI0
aI12
aI2
aI14
aI1
aI8
aI5
aI13
aI8
aI11
aI8
aI14
aI5
aI4
aI8
aI7
aI11
aI14
aI11
aI0
aI6
aI1
aI10
aI10
aI5
aI6
aI6
aI8
aI8
aI5
aI8
aI4
aI12
aI1
aI9
aI1
aI7
aI11
aI13
aI8
aI11
aI9
atbsS'finished'
p73
I00
sS'nReps'
p74
I40
sS'nRemaining'
p75
I0
sS'trialList'
p76
(lp77
I0
aI1
aI2
aI3
aI4
aI5
aI6
aI7
aI8
aI9
aI10
aI11
aI12
aI13
aI14
asS'seed'
p78
NsS'thisIndex'
p79
I9
sS'thisN'
p80
I599
sS'thisTrialN'
p81
I14
sS'nTotal'
p82
I600
sS'_warnUseOfNext'
p83
I01
sbasS'saveWideText'
p84
I00
sS'thisEntry'
p85
(dp86
sS'version'
p87
S''
sS'_paramNamesSoFar'
p88
(lp89
sS'entries'
p90
(lp91
(dp92
S'.thisTrial'
p93
I14
sS'.thisN'
p94
I0
sg30
VF
sg31
g32
sS'.thisTrialN'
p95
I0
sS'.thisRepN'
p96
I0
sS'.thisIndex'
p97
I14
sg15
Nsg16
S'Timed out'
p98
sg14
I1
sa(dp99
g17
(lp100
S'k'
asg93
I0
sS'.thisRepN'
p101
I0
sg30
VF
sg31
g32
sS'.thisTrialN'
p102
I1
sS'.thisN'
p103
I1
sS'.thisIndex'
p104
I0
sg15
(lp105
S'k'
asg16
S'Y'
sg14
I1
sa(dp106
g17
(lp107
S'k'
asg18
S'Y'
sS'.thisRepN'
p108
I0
sg20
S'N'
sg31
g32
sS'.thisTrialN'
p109
I2
sS'.thisN'
p110
I2
sS'.thisIndex'
p111
I4
sg15
(lp112
S'd'
asg30
VF
sg16
S'N'
sg14
I1
sg19
Nsg93
I4
sa(dp113
g17
(lp114
S'd'
asg18
S'N'
sS'.thisRepN'
p115
I0
sg20
S'Y'
sg31
g32
sS'.thisTrialN'
p116
I3
sS'.thisN'
p117
I3
sS'.thisIndex'
p118
I4
sg15
(lp119
S'd'
asg30
VF
sg16
S'Y'
sg14
I1
sg19
Nsg93
I4
sa(dp120
g17
(lp121
S'k'
asg18
S'Y'
sS'.thisRepN'
p122
I0
sg20
S'N'
sg31
g32
sS'.thisTrialN'
p123
I4
sS'.thisN'
p124
I4
sS'.thisIndex'
p125
I1
sg15
(lp126
S'd'
asg30
VF
sg16
S'N'
sg14
I1
sg19
Nsg93
I1
sa(dp127
g17
(lp128
S'k'
asg18
S'Y'
sS'.thisRepN'
p129
I0
sg20
S'Y'
sg31
g32
sS'.thisTrialN'
p130
I5
sS'.thisN'
p131
I5
sS'.thisIndex'
p132
I13
sg15
(lp133
S'k'
asg30
VF
sg16
S'Y'
sg14
I1
sg19
(lp134
S'space'
p135
asg93
I13
sa(dp136
g17
(lp137
S'k'
asg18
S'Y'
sS'.thisRepN'
p138
I0
sg20
S'N'
sg31
g32
sS'.thisTrialN'
p139
I6
sS'.thisN'
p140
I6
sS'.thisIndex'
p141
I12
sg15
(lp142
S'd'
asg30
VF
sg16
S'N'
sg14
I1
sg19
Nsg93
I12
sa(dp143
g17
(lp144
S'd'
asg18
S'Y'
sS'.thisRepN'
p145
I0
sg20
S'N'
sg31
g32
sS'.thisTrialN'
p146
I7
sS'.thisN'
p147
I7
sS'.thisIndex'
p148
I3
sg15
(lp149
S'k'
asg30
VF
sg16
S'N'
sg14
I1
sg19
Nsg93
I3
sa(dp150
g17
(lp151
S'k'
asg18
S'N'
sS'.thisRepN'
p152
I0
sg20
S'Y'
sg31
g32
sS'.thisTrialN'
p153
I8
sS'.thisN'
p154
I8
sS'.thisIndex'
p155
I8
sg15
(lp156
S'd'
asg30
VF
sg16
S'N'
sg14
I1
sg19
Nsg93
I8
sa(dp157
g17
(lp158
S'k'
asg18
S'N'
sS'.thisRepN'
p159
I0
sg20
S'Y'
sg31
g32
sS'.thisTrialN'
p160
I9
sS'.thisN'
p161
I9
sS'.thisIndex'
p162
I10
sg15
(lp163
S'k'
asg30
VF
sg16
S'Y'
sg14
I1
sg19
Nsg93
I10
sa(dp164
g17
(lp165
S'k'
asg18
S'Y'
sS'.thisRepN'
p166
I0
sg20
S'N'
sg31
g32
sS'.thisTrialN'
p167
I10
sS'.thisN'
p168
I10
sS'.thisIndex'
p169
I4
sg15
(lp170
S'd'
asg30
VF
sg16
S'N'
sg14
I1
sg19
Nsg93
I4
sa(dp171
g17
(lp172
S'k'
asg18
S'Y'
sS'.thisRepN'
p173
I0
sg20
S'N'
sg31
g32
sS'.thisTrialN'
p174
I11
sS'.thisN'
p175
I11
sS'.thisIndex'
p176
I12
sg15
(lp177
S'd'
asg30
VF
sg16
S'N'
sg14
I1
sg19
Nsg93
I12
sa(dp178
g17
(lp179
S'k'
asg18
S'N'
sS'.thisRepN'
p180
I0
sg20
S'Y'
sg31
g32
sS'.thisTrialN'
p181
I12
sS'.thisN'
p182
I12
sS'.thisIndex'
p183
I2
sg15
(lp184
S'k'
asg30
VF
sg16
S'Y'
sg14
I1
sg19
Nsg93
I2
sa(dp185
g17
(lp186
S'k'
asg18
S'N'
sS'.thisRepN'
p187
I0
sg20
S'Y'
sg31
g32
sS'.thisTrialN'
p188
I13
sS'.thisN'
p189
I13
sS'.thisIndex'
p190
I14
sg15
(lp191
S'k'
asg30
VF
sg16
S'Y'
sg14
I1
sg19
Nsg93
I14
sa(dp192
g17
(lp193
S'd'
asg18
S'Y'
sS'.thisRepN'
p194
I0
sg20
S'N'
sg31
g32
sS'.thisTrialN'
p195
I14
sS'.thisN'
p196
I14
sS'.thisIndex'
p197
I2
sg15
(lp198
S'k'
asg30
VF
sg16
S'N'
sg14
I1
sg19
Nsg93
I2
sa(dp199
g17
(lp200
S'd'
asg18
S'Y'
sS'.thisRepN'
p201
I1
sg20
S'Y'
sg31
g32
sS'.thisTrialN'
p202
I0
sS'.thisN'
p203
I15
sS'.thisIndex'
p204
I13
sg15
(lp205
S'k'
asg30
VF
sg16
S'N'
sg14
I1
sg19
(lp206
S'space'
p207
asg93
I13
sa(dp208
g17
(lp209
S'k'
asg18
S'Y'
sS'.thisRepN'
p210
I1
sg20
S'Y'
sg31
g32
sS'.thisTrialN'
p211
I1
sS'.thisN'
p212
I16
sS'.thisIndex'
p213
I14
sg15
(lp214
S'k'
asg30
VF
sg16
S'Y'
sg14
I1
sg19
(lp215
S'space'
p216
asg93
I14
sa(dp217
g17
(lp218
S'd'
asg18
S'Y'
sS'.thisRepN'
p219
I1
sg20
S'N'
sg31
g32
sS'.thisTrialN'
p220
I2
sS'.thisN'
p221
I17
sS'.thisIndex'
p222
I1
sg15
(lp223
S'd'
asg30
VF
sg16
S'Y'
sg14
I1
sg19
Nsg93
I1
sa(dp224
g17
(lp225
S'd'
asg18
S'N'
sS'.thisRepN'
p226
I1
sg20
S'Y'
sg31
g32
sS'.thisTrialN'
p227
I3
sS'.thisN'
p228
I18
sS'.thisIndex'
p229
I10
sg15
(lp230
S'k'
asg30
VF
sg16
S'N'
sg14
I1
sg19
Nsg93
I10
sa(dp231
g17
(lp232
S'd'
asg18
S'Y'
sS'.thisRepN'
p233
I1
sg20
S'N'
sg31
g32
sS'.thisTrialN'
p234
I4
sS'.thisN'
p235
I19
sS'.thisIndex'
p236
I13
sg15
(lp237
S'd'
asg30
VF
sg16
S'Y'
sg14
I1
sg19
Nsg93
I13
sa(dp238
g17
(lp239
S'k'
asg18
S'Y'
sS'.thisRepN'
p240
I1
sg20
S'N'
sg31
g32
sS'.thisTrialN'
p241
I5
sS'.thisN'
p242
I20
sS'.thisIndex'
p243
I7
sg15
(lp244
S'k'
asg30
VF
sg16
S'Y'
sg14
I1
sg19
Nsg93
I7
sa(dp245
g17
(lp246
S'd'
asg18
S'N'
sS'.thisRepN'
p247
I1
sg20
S'Y'
sg31
g32
sS'.thisTrialN'
p248
I6
sS'.thisN'
p249
I21
sS'.thisIndex'
p250
I11
sg15
(lp251
S'd'
asg30
VF
sg16
S'Y'
sg14
I1
sg19
Nsg93
I11
sa(dp252
g17
(lp253
S'd'
asg18
S'Y'
sS'.thisRepN'
p254
I1
sg20
S'N'
sg31
g32
sS'.thisTrialN'
p255
I7
sS'.thisN'
p256
I22
sS'.thisIndex'
p257
I11
sg15
(lp258
S'd'
asg30
VF
sg16
S'Y'
sg14
I1
sg19
Nsg93
I11
sa(dp259
g17
(lp260
S'd'
asg18
S'N'
sS'.thisRepN'
p261
I1
sg20
S'Y'
sg31
g32
sS'.thisTrialN'
p262
I8
sS'.thisN'
p263
I23
sS'.thisIndex'
p264
I14
sg15
(lp265
S'k'
asg30
VF
sg16
S'N'
sg14
I1
sg19
Nsg93
I14
sa(dp266
g17
(lp267
S'k'
asg18
S'Y'
sS'.thisRepN'
p268
I1
sg20
S'N'
sg31
g32
sS'.thisTrialN'
p269
I9
sS'.thisN'
p270
I24
sS'.thisIndex'
p271
I9
sg15
(lp272
S'd'
asg30
VF
sg16
S'N'
sg14
I1
sg19
Nsg93
I9
sa(dp273
g17
(lp274
S'd'
asg18
S'Y'
sS'.thisRepN'
p275
I1
sg20
S'Y'
sg31
g32
sS'.thisTrialN'
p276
I10
sS'.thisN'
p277
I25
sS'.thisIndex'
p278
I2
sg15
(lp279
S'k'
asg30
VF
sg16
S'N'
sg14
I1
sg19
(lp280
S'space'
p281
asg93
I2
sa(dp282
g17
(lp283
S'd'
asg18
S'Y'
sS'.thisRepN'
p284
I1
sg20
S'N'
sg31
g32
sS'.thisTrialN'
p285
I11
sS'.thisN'
p286
I26
sS'.thisIndex'
p287
I7
sg15
(lp288
S'd'
asg30
VF
sg16
S'Y'
sg14
I1
sg19
Nsg93
I7
sa(dp289
g17
(lp290
S'd'
asg18
S'N'
sS'.thisRepN'
p291
I1
sg20
S'Y'
sg31
g32
sS'.thisTrialN'
p292
I12
sS'.thisN'
p293
I27
sS'.thisIndex'
p294
I6
sg15
(lp295
S'd'
asg30
VF
sg16
S'Y'
sg14
I1
sg19
Nsg93
I6
sa(dp296
g17
(lp297
S'k'
asg18
S'Y'
sS'.thisRepN'
p298
I1
sg20
S'N'
sg31
g32
sS'.thisTrialN'
p299
I13
sS'.thisN'
p300
I28
sS'.thisIndex'
p301
I7
sg15
(lp302
S'd'
asg30
VF
sg16
S'N'
sg14
I1
sg19
Nsg93
I7
sa(dp303
g17
(lp304
S'd'
asg18
S'Y'
sS'.thisRepN'
p305
I1
sg20
S'N'
sg31
g32
sS'.thisTrialN'
p306
I14
sS'.thisN'
p307
I29
sS'.thisIndex'
p308
I14
sg15
(lp309
S'd'
asg30
VF
sg16
S'Y'
sg14
I1
sg19
Nsg93
I14
sa(dp310
g17
(lp311
S'k'
asg18
S'Y'
sS'.thisRepN'
p312
I2
sg20
S'N'
sg31
g32
sS'.thisTrialN'
p313
I0
sS'.thisN'
p314
I30
sS'.thisIndex'
p315
I10
sg15
(lp316
S'k'
asg30
VF
sg16
S'Y'
sg14
I1
sg19
Nsg93
I10
sa(dp317
g17
(lp318
S'd'
asg18
S'N'
sS'.thisRepN'
p319
I2
sg20
S'Y'
sg31
g32
sS'.thisTrialN'
p320
I1
sS'.thisN'
p321
I31
sS'.thisIndex'
p322
I7
sg15
(lp323
S'd'
asg30
VF
sg16
S'Y'
sg14
I1
sg19
Nsg93
I7
sa(dp324
g17
(lp325
S'd'
asg18
S'N'
sS'.thisRepN'
p326
I2
sg20
S'Y'
sg31
g32
sS'.thisTrialN'
p327
I2
sS'.thisN'
p328
I32
sS'.thisIndex'
p329
I12
sg15
(lp330
S'd'
asg30
VF
sg16
S'Y'
sg14
I1
sg19
Nsg93
I12
sa(dp331
g17
(lp332
S'd'
asg18
S'Y'
sS'.thisRepN'
p333
I2
sg20
S'N'
sg31
g32
sS'.thisTrialN'
p334
I3
sS'.thisN'
p335
I33
sS'.thisIndex'
p336
I1
sg15
(lp337
S'k'
asg30
VF
sg16
S'N'
sg14
I1
sg19
Nsg93
I1
sa(dp338
g17
(lp339
S'd'
asg18
S'N'
sS'.thisRepN'
p340
I2
sg20
S'Y'
sg31
g32
sS'.thisTrialN'
p341
I4
sS'.thisN'
p342
I34
sS'.thisIndex'
p343
I11
sg15
(lp344
S'd'
asg30
VF
sg16
S'Y'
sg14
I1
sg19
Nsg93
I11
sa(dp345
g17
(lp346
S'k'
asg18
S'Y'
sS'.thisRepN'
p347
I2
sg20
S'N'
sg31
g32
sS'.thisTrialN'
p348
I5
sS'.thisN'
p349
I35
sS'.thisIndex'
p350
I11
sg15
(lp351
S'd'
asg30
VF
sg16
S'N'
sg14
I1
sg19
Nsg93
I11
sa(dp352
g17
(lp353
S'k'
asg18
S'N'
sS'.thisRepN'
p354
I2
sg20
S'Y'
sg31
g32
sS'.thisTrialN'
p355
I6
sS'.thisN'
p356
I36
sS'.thisIndex'
p357
I3
sg15
(lp358
S'k'
asg30
VF
sg16
S'Y'
sg14
I1
sg19
Nsg93
I3
sa(dp359
g17
(lp360
S'k'
asg18
S'N'
sS'.thisRepN'
p361
I2
sg20
S'Y'
sg31
g32
sS'.thisTrialN'
p362
I7
sS'.thisN'
p363
I37
sS'.thisIndex'
p364
I4
sg15
(lp365
S'd'
asg30
VF
sg16
S'N'
sg14
I1
sg19
Nsg93
I4
sa(dp366
g17
(lp367
S'k'
asg18
S'Y'
sS'.thisRepN'
p368
I2
sg20
S'N'
sg31
g32
sS'.thisTrialN'
p369
I8
sS'.thisN'
p370
I38
sS'.thisIndex'
p371
I7
sg15
(lp372
S'k'
asg30
VF
sg16
S'Y'
sg14
I1
sg19
Nsg93
I7
sa(dp373
g17
(lp374
S'k'
asg18
S'Y'
sS'.thisRepN'
p375
I2
sg20
S'N'
sg31
g32
sS'.thisTrialN'
p376
I9
sS'.thisN'
p377
I39
sS'.thisIndex'
p378
I14
sg15
(lp379
S'd'
asg30
VF
sg16
S'N'
sg14
I1
sg19
Nsg93
I14
sa(dp380
g17
(lp381
S'k'
asg18
S'N'
sS'.thisRepN'
p382
I2
sg20
S'Y'
sg31
g32
sS'.thisTrialN'
p383
I10
sS'.thisN'
p384
I40
sS'.thisIndex'
p385
I13
sg15
(lp386
S'k'
asg30
VF
sg16
S'Y'
sg14
I1
sg19
Nsg93
I13
sa(dp387
g17
(lp388
S'd'
asg18
S'Y'
sS'.thisRepN'
p389
I2
sg20
S'N'
sg31
g32
sS'.thisTrialN'
p390
I11
sS'.thisN'
p391
I41
sS'.thisIndex'
p392
I1
sg15
(lp393
S'd'
asg30
VF
sg16
S'Y'
sg14
I1
sg19
Nsg93
I1
sa(dp394
g17
(lp395
S'd'
asg18
S'N'
sS'.thisRepN'
p396
I2
sg20
S'Y'
sg31
g32
sS'.thisTrialN'
p397
I12
sS'.thisN'
p398
I42
sS'.thisIndex'
p399
I3
sg15
(lp400
S'd'
asg30
VF
sg16
S'Y'
sg14
I1
sg19
Nsg93
I3
sa(dp401
g17
(lp402
S'k'
asg18
S'N'
sS'.thisRepN'
p403
I2
sg20
S'Y'
sg31
g32
sS'.thisTrialN'
p404
I13
sS'.thisN'
p405
I43
sS'.thisIndex'
p406
I12
sg15
(lp407
S'd'
asg30
VF
sg16
S'N'
sg14
I1
sg19
Nsg93
I12
sa(dp408
g17
(lp409
S'k'
asg18
S'N'
sS'.thisRepN'
p410
I2
sg20
S'Y'
sg31
g32
sS'.thisTrialN'
p411
I14
sS'.thisN'
p412
I44
sS'.thisIndex'
p413
I1
sg15
(lp414
S'k'
asg30
VF
sg16
S'Y'
sg14
I1
sg19
Nsg93
I1
sa(dp415
g17
(lp416
S'k'
asg18
S'N'
sS'.thisRepN'
p417
I3
sg20
S'Y'
sg31
g32
sS'.thisTrialN'
p418
I0
sS'.thisN'
p419
I45
sS'.thisIndex'
p420
I6
sg15
(lp421
S'd'
asg30
VF
sg16
S'N'
sg14
I1
sg19
Nsg93
I6
sa(dp422
g17
(lp423
S'k'
asg18
S'N'
sS'.thisRepN'
p424
I3
sg20
S'Y'
sg31
g32
sS'.thisTrialN'
p425
I1
sS'.thisN'
p426
I46
sS'.thisIndex'
p427
I5
sg15
(lp428
S'k'
asg30
VF
sg16
S'Y'
sg14
I1
sg19
Nsg93
I5
sa(dp429
g17
(lp430
S'd'
asg18
S'N'
sS'.thisRepN'
p431
I3
sg20
S'Y'
sg31
g32
sS'.thisTrialN'
p432
I2
sS'.thisN'
p433
I47
sS'.thisIndex'
p434
I4
sg15
(lp435
S'd'
asg30
VF
sg16
S'Y'
sg14
I1
sg19
Nsg93
I4
sa(dp436
g17
(lp437
S'k'
asg18
S'N'
sS'.thisRepN'
p438
I3
sg20
S'Y'
sg31
g32
sS'.thisTrialN'
p439
I3
sS'.thisN'
p440
I48
sS'.thisIndex'
p441
I11
sg15
(lp442
S'k'
asg30
VF
sg16
S'Y'
sg14
I1
sg19
Nsg93
I11
sa(dp443
g17
(lp444
S'd'
asg18
S'N'
sg22
I27
sS'.thisN'
p445
I49
sg20
S'Y'
sg31
g32
sS'.thisTrialN'
p446
I4
sS'.thisRepN'
p447
I3
sg21
I28
sS'.thisIndex'
p448
I3
sg23
I25
sg15
(lp449
S'k'
asg30
VF
sg16
S'N'
sg14
I1
sg19
Nsg93
I3
sa(dp450
g17
(lp451
S'd'
asg93
I4
sS'.thisRepN'
p452
I3
sg30
VF
sg31
g32
sS'.thisTrialN'
p453
I5
sS'.thisN'
p454
I50
sS'.thisIndex'
p455
I4
sg15
(lp456
S'k'
asg16
S'N'
sg14
I2
sa(dp457
g17
(lp458
S'd'
asg93
I9
sS'.thisRepN'
p459
I3
sg30
VF
sg31
g32
sS'.thisTrialN'
p460
I6
sS'.thisN'
p461
I51
sS'.thisIndex'
p462
I9
sg15
(lp463
S'k'
asg16
S'N'
sg14
I2
sa(dp464
g17
(lp465
S'd'
asg18
S'Y'
sS'.thisRepN'
p466
I3
sg20
S'Y'
sg31
g32
sS'.thisTrialN'
p467
I7
sS'.thisN'
p468
I52
sS'.thisIndex'
p469
I4
sg15
(lp470
S'd'
asg30
VF
sg16
S'Y'
sg14
I2
sg19
(lp471
S'space'
p472
asg93
I4
sa(dp473
g17
(lp474
S'k'
asg18
S'Y'
sS'.thisRepN'
p475
I3
sg20
S'N'
sg31
g32
sS'.thisTrialN'
p476
I8
sS'.thisN'
p477
I53
sS'.thisIndex'
p478
I7
sg15
(lp479
S'k'
asg30
VF
sg16
S'Y'
sg14
I2
sg19
Nsg93
I7
sa(dp480
g17
(lp481
S'k'
asg18
S'Y'
sS'.thisRepN'
p482
I3
sg20
S'N'
sg31
g32
sS'.thisTrialN'
p483
I9
sS'.thisN'
p484
I54
sS'.thisIndex'
p485
I3
sg15
(lp486
S'k'
asg30
VF
sg16
S'Y'
sg14
I2
sg19
Nsg93
I3
sa(dp487
g17
(lp488
S'd'
asg18
S'Y'
sS'.thisRepN'
p489
I3
sg20
S'N'
sg31
g32
sS'.thisTrialN'
p490
I10
sS'.thisN'
p491
I55
sS'.thisIndex'
p492
I8
sg15
(lp493
S'd'
asg30
VF
sg16
S'Y'
sg14
I2
sg19
Nsg93
I8
sa(dp494
g17
(lp495
S'k'
asg18
S'N'
sS'.thisRepN'
p496
I3
sg20
S'Y'
sg31
g32
sS'.thisTrialN'
p497
I11
sS'.thisN'
p498
I56
sS'.thisIndex'
p499
I6
sg15
(lp500
S'k'
asg30
VF
sg16
S'Y'
sg14
I2
sg19
Nsg93
I6
sa(dp501
g17
(lp502
S'd'
asg18
S'N'
sS'.thisRepN'
p503
I3
sg20
S'Y'
sg31
g32
sS'.thisTrialN'
p504
I12
sS'.thisN'
p505
I57
sS'.thisIndex'
p506
I5
sg15
(lp507
S'd'
asg30
VF
sg16
S'Y'
sg14
I2
sg19
Nsg93
I5
sa(dp508
g17
(lp509
S'k'
asg18
S'N'
sS'.thisRepN'
p510
I3
sg20
S'Y'
sg31
g32
sS'.thisTrialN'
p511
I13
sS'.thisN'
p512
I58
sS'.thisIndex'
p513
I1
sg15
(lp514
S'k'
asg30
VF
sg16
S'Y'
sg14
I2
sg19
Nsg93
I1
sa(dp515
g17
(lp516
S'd'
asg18
S'Y'
sS'.thisRepN'
p517
I3
sg20
S'N'
sg31
g32
sS'.thisTrialN'
p518
I14
sS'.thisN'
p519
I59
sS'.thisIndex'
p520
I8
sg15
(lp521
S'd'
asg30
VF
sg16
S'Y'
sg14
I2
sg19
Nsg93
I8
sa(dp522
g17
(lp523
S'k'
asg18
S'Y'
sS'.thisRepN'
p524
I4
sg20
S'N'
sg31
g32
sS'.thisTrialN'
p525
I0
sS'.thisN'
p526
I60
sS'.thisIndex'
p527
I12
sg15
(lp528
S'k'
asg30
VF
sg16
S'Y'
sg14
I2
sg19
Nsg93
I12
sa(dp529
g17
(lp530
S'd'
asg18
S'N'
sS'.thisRepN'
p531
I4
sg20
S'Y'
sg31
g32
sS'.thisTrialN'
p532
I1
sS'.thisN'
p533
I61
sS'.thisIndex'
p534
I7
sg15
(lp535
S'd'
asg30
VF
sg16
S'Y'
sg14
I2
sg19
Nsg93
I7
sa(dp536
g17
(lp537
S'k'
asg18
S'Y'
sS'.thisRepN'
p538
I4
sg20
S'N'
sg31
g32
sS'.thisTrialN'
p539
I2
sS'.thisN'
p540
I62
sS'.thisIndex'
p541
I5
sg15
(lp542
S'd'
asg30
VF
sg16
S'N'
sg14
I2
sg19
Nsg93
I5
sa(dp543
g17
(lp544
S'k'
asg18
S'Y'
sS'.thisRepN'
p545
I4
sg20
S'N'
sg31
g32
sS'.thisTrialN'
p546
I3
sS'.thisN'
p547
I63
sS'.thisIndex'
p548
I10
sg15
(lp549
S'd'
asg30
VF
sg16
S'N'
sg14
I2
sg19
Nsg93
I10
sa(dp550
g17
(lp551
S'd'
asg18
S'Y'
sS'.thisRepN'
p552
I4
sg20
S'N'
sg31
g32
sS'.thisTrialN'
p553
I4
sS'.thisN'
p554
I64
sS'.thisIndex'
p555
I11
sg15
(lp556
S'k'
asg30
VF
sg16
S'N'
sg14
I2
sg19
Nsg93
I11
sa(dp557
g17
(lp558
S'k'
asg18
S'N'
sS'.thisRepN'
p559
I4
sg20
S'Y'
sg31
g32
sS'.thisTrialN'
p560
I5
sS'.thisN'
p561
I65
sS'.thisIndex'
p562
I9
sg15
(lp563
S'k'
asg30
VF
sg16
S'Y'
sg14
I2
sg19
Nsg93
I9
sa(dp564
g17
(lp565
S'k'
asg18
S'Y'
sS'.thisRepN'
p566
I4
sg20
S'N'
sg31
g32
sS'.thisTrialN'
p567
I6
sS'.thisN'
p568
I66
sS'.thisIndex'
p569
I13
sg15
(lp570
S'k'
asg30
VF
sg16
S'Y'
sg14
I2
sg19
Nsg93
I13
sa(dp571
g17
(lp572
S'k'
asg18
S'N'
sS'.thisRepN'
p573
I4
sg20
S'Y'
sg31
g32
sS'.thisTrialN'
p574
I7
sS'.thisN'
p575
I67
sS'.thisIndex'
p576
I2
sg15
(lp577
S'k'
asg30
VF
sg16
S'Y'
sg14
I2
sg19
Nsg93
I2
sa(dp578
g17
(lp579
S'k'
asg18
S'Y'
sS'.thisRepN'
p580
I4
sg20
S'N'
sg31
g32
sS'.thisTrialN'
p581
I8
sS'.thisN'
p582
I68
sS'.thisIndex'
p583
I12
sg15
(lp584
S'k'
asg30
VF
sg16
S'Y'
sg14
I2
sg19
Nsg93
I12
sa(dp585
g17
(lp586
S'k'
asg18
S'N'
sS'.thisRepN'
p587
I4
sg20
S'Y'
sg31
g32
sS'.thisTrialN'
p588
I9
sS'.thisN'
p589
I69
sS'.thisIndex'
p590
I13
sg15
(lp591
S'k'
asg30
VF
sg16
S'Y'
sg14
I2
sg19
Nsg93
I13
sa(dp592
g17
(lp593
S'd'
asg18
S'Y'
sS'.thisRepN'
p594
I4
sg20
S'N'
sg31
g32
sS'.thisTrialN'
p595
I10
sS'.thisN'
p596
I70
sS'.thisIndex'
p597
I13
sg15
(lp598
S'k'
asg30
VF
sg16
S'N'
sg14
I2
sg19
Nsg93
I13
sa(dp599
g17
(lp600
S'k'
asg18
S'Y'
sS'.thisRepN'
p601
I4
sg20
S'N'
sg31
g32
sS'.thisTrialN'
p602
I11
sS'.thisN'
p603
I71
sS'.thisIndex'
p604
I6
sg15
(lp605
S'd'
asg30
VF
sg16
S'N'
sg14
I2
sg19
Nsg93
I6
sa(dp606
g17
(lp607
S'k'
asg18
S'Y'
sS'.thisRepN'
p608
I4
sg20
S'N'
sg31
g32
sS'.thisTrialN'
p609
I12
sS'.thisN'
p610
I72
sS'.thisIndex'
p611
I0
sg15
(lp612
S'd'
asg30
VF
sg16
S'N'
sg14
I2
sg19
Nsg93
I0
sa(dp613
g17
(lp614
S'k'
asg18
S'Y'
sS'.thisRepN'
p615
I4
sg20
S'N'
sg31
g32
sS'.thisTrialN'
p616
I13
sS'.thisN'
p617
I73
sS'.thisIndex'
p618
I1
sg15
(lp619
S'k'
asg30
VF
sg16
S'Y'
sg14
I2
sg19
Nsg93
I1
sa(dp620
g17
(lp621
S'k'
asg18
S'N'
sS'.thisRepN'
p622
I4
sg20
S'Y'
sg31
g32
sS'.thisTrialN'
p623
I14
sS'.thisN'
p624
I74
sS'.thisIndex'
p625
I5
sg15
(lp626
S'd'
asg30
VF
sg16
S'N'
sg14
I2
sg19
Nsg93
I5
sa(dp627
g17
(lp628
S'd'
asg18
S'N'
sS'.thisRepN'
p629
I5
sg20
S'Y'
sg31
g32
sS'.thisTrialN'
p630
I0
sS'.thisN'
p631
I75
sS'.thisIndex'
p632
I4
sg15
(lp633
S'k'
asg30
VF
sg16
S'N'
sg14
I2
sg19
Nsg93
I4
sa(dp634
g17
(lp635
S'd'
asg18
S'N'
sS'.thisRepN'
p636
I5
sg20
S'Y'
sg31
g32
sS'.thisTrialN'
p637
I1
sS'.thisN'
p638
I76
sS'.thisIndex'
p639
I6
sg15
(lp640
S'k'
asg30
VF
sg16
S'N'
sg14
I2
sg19
Nsg93
I6
sa(dp641
g17
(lp642
S'd'
asg18
S'N'
sS'.thisRepN'
p643
I5
sg20
S'Y'
sg31
g32
sS'.thisTrialN'
p644
I2
sS'.thisN'
p645
I77
sS'.thisIndex'
p646
I8
sg15
(lp647
S'd'
asg30
VF
sg16
S'Y'
sg14
I2
sg19
Nsg93
I8
sa(dp648
g17
(lp649
S'k'
asg18
S'N'
sS'.thisRepN'
p650
I5
sg20
S'Y'
sg31
g32
sS'.thisTrialN'
p651
I3
sS'.thisN'
p652
I78
sS'.thisIndex'
p653
I0
sg15
(lp654
S'd'
asg30
VF
sg16
S'N'
sg14
I2
sg19
Nsg93
I0
sa(dp655
g17
(lp656
S'k'
asg18
S'N'
sS'.thisRepN'
p657
I5
sg20
S'Y'
sg31
g32
sS'.thisTrialN'
p658
I4
sS'.thisN'
p659
I79
sS'.thisIndex'
p660
I1
sg15
(lp661
S'k'
asg30
VF
sg16
S'Y'
sg14
I2
sg19
Nsg93
I1
sa(dp662
g17
(lp663
S'd'
asg18
S'Y'
sS'.thisRepN'
p664
I5
sg20
S'N'
sg31
g32
sS'.thisTrialN'
p665
I5
sS'.thisN'
p666
I80
sS'.thisIndex'
p667
I1
sg15
(lp668
S'k'
asg30
VF
sg16
S'N'
sg14
I2
sg19
Nsg93
I1
sa(dp669
g17
(lp670
S'd'
asg18
S'Y'
sS'.thisRepN'
p671
I5
sg20
S'N'
sg31
g32
sS'.thisTrialN'
p672
I6
sS'.thisN'
p673
I81
sS'.thisIndex'
p674
I14
sg15
(lp675
S'k'
asg30
VF
sg16
S'N'
sg14
I2
sg19
Nsg93
I14
sa(dp676
g17
(lp677
S'k'
asg18
S'Y'
sS'.thisRepN'
p678
I5
sg20
S'N'
sg31
g32
sS'.thisTrialN'
p679
I7
sS'.thisN'
p680
I82
sS'.thisIndex'
p681
I8
sg15
(lp682
S'd'
asg30
VF
sg16
S'N'
sg14
I2
sg19
Nsg93
I8
sa(dp683
g17
(lp684
S'd'
asg18
S'N'
sS'.thisRepN'
p685
I5
sg20
S'Y'
sg31
g32
sS'.thisTrialN'
p686
I8
sS'.thisN'
p687
I83
sS'.thisIndex'
p688
I0
sg15
(lp689
S'k'
asg30
VF
sg16
S'N'
sg14
I2
sg19
Nsg93
I0
sa(dp690
g17
(lp691
S'k'
asg18
S'N'
sS'.thisRepN'
p692
I5
sg20
S'Y'
sg31
g32
sS'.thisTrialN'
p693
I9
sS'.thisN'
p694
I84
sS'.thisIndex'
p695
I11
sg15
(lp696
S'd'
asg30
VF
sg16
S'N'
sg14
I2
sg19
Nsg93
I11
sa(dp697
g17
(lp698
S'd'
asg18
S'N'
sS'.thisRepN'
p699
I5
sg20
S'Y'
sg31
g32
sS'.thisTrialN'
p700
I10
sS'.thisN'
p701
I85
sS'.thisIndex'
p702
I0
sg15
(lp703
S'k'
asg30
VF
sg16
S'N'
sg14
I2
sg19
Nsg93
I0
sa(dp704
g17
(lp705
S'd'
asg18
S'N'
sS'.thisRepN'
p706
I5
sg20
S'Y'
sg31
g32
sS'.thisTrialN'
p707
I11
sS'.thisN'
p708
I86
sS'.thisIndex'
p709
I5
sg15
(lp710
S'k'
asg30
VF
sg16
S'N'
sg14
I2
sg19
Nsg93
I5
sa(dp711
g17
(lp712
S'd'
asg18
S'N'
sS'.thisRepN'
p713
I5
sg20
S'Y'
sg31
g32
sS'.thisTrialN'
p714
I12
sS'.thisN'
p715
I87
sS'.thisIndex'
p716
I14
sg15
(lp717
S'd'
asg30
VF
sg16
S'Y'
sg14
I2
sg19
Nsg93
I14
sa(dp718
g17
(lp719
S'k'
asg18
S'Y'
sS'.thisRepN'
p720
I5
sg20
S'N'
sg31
g32
sS'.thisTrialN'
p721
I13
sS'.thisN'
p722
I88
sS'.thisIndex'
p723
I13
sg15
(lp724
S'k'
asg30
VF
sg16
S'Y'
sg14
I2
sg19
Nsg93
I13
sa(dp725
g17
(lp726
S'd'
asg18
S'N'
sS'.thisRepN'
p727
I5
sg20
S'Y'
sg31
g32
sS'.thisTrialN'
p728
I14
sS'.thisN'
p729
I89
sS'.thisIndex'
p730
I13
sg15
(lp731
S'd'
asg30
VF
sg16
S'Y'
sg14
I2
sg19
Nsg93
I13
sa(dp732
g17
(lp733
S'd'
asg18
S'N'
sS'.thisRepN'
p734
I6
sg20
S'Y'
sg31
g32
sS'.thisTrialN'
p735
I0
sS'.thisN'
p736
I90
sS'.thisIndex'
p737
I12
sg15
(lp738
S'd'
asg30
VF
sg16
S'Y'
sg14
I2
sg19
Nsg93
I12
sa(dp739
g17
(lp740
S'd'
asg18
S'Y'
sS'.thisRepN'
p741
I6
sg20
S'N'
sg31
g32
sS'.thisTrialN'
p742
I1
sS'.thisN'
p743
I91
sS'.thisIndex'
p744
I3
sg15
(lp745
S'd'
asg30
VF
sg16
S'Y'
sg14
I2
sg19
Nsg93
I3
sa(dp746
g17
(lp747
S'k'
asg18
S'N'
sS'.thisRepN'
p748
I6
sg20
S'Y'
sg31
g32
sS'.thisTrialN'
p749
I2
sS'.thisN'
p750
I92
sS'.thisIndex'
p751
I14
sg15
(lp752
S'd'
asg30
VF
sg16
S'N'
sg14
I2
sg19
Nsg93
I14
sa(dp753
g17
(lp754
S'd'
asg18
S'Y'
sS'.thisRepN'
p755
I6
sg20
S'N'
sg31
g32
sS'.thisTrialN'
p756
I3
sS'.thisN'
p757
I93
sS'.thisIndex'
p758
I10
sg15
(lp759
S'k'
asg30
VF
sg16
S'N'
sg14
I2
sg19
Nsg93
I10
sa(dp760
g17
(lp761
S'k'
asg18
S'N'
sS'.thisRepN'
p762
I6
sg20
S'Y'
sg31
g32
sS'.thisTrialN'
p763
I4
sS'.thisN'
p764
I94
sS'.thisIndex'
p765
I13
sg15
(lp766
S'd'
asg30
VF
sg16
S'N'
sg14
I2
sg19
Nsg93
I13
sa(dp767
g17
(lp768
S'k'
asg18
S'Y'
sS'.thisRepN'
p769
I6
sg20
S'N'
sg31
g32
sS'.thisTrialN'
p770
I5
sS'.thisN'
p771
I95
sS'.thisIndex'
p772
I8
sg15
(lp773
S'd'
asg30
VF
sg16
S'N'
sg14
I2
sg19
Nsg93
I8
sa(dp774
g17
(lp775
S'd'
asg18
S'Y'
sS'.thisRepN'
p776
I6
sg20
S'N'
sg31
g32
sS'.thisTrialN'
p777
I6
sS'.thisN'
p778
I96
sS'.thisIndex'
p779
I0
sg15
(lp780
S'k'
asg30
VF
sg16
S'N'
sg14
I2
sg19
Nsg93
I0
sa(dp781
g17
(lp782
S'd'
asg18
S'Y'
sS'.thisRepN'
p783
I6
sg20
S'N'
sg31
g32
sS'.thisTrialN'
p784
I7
sS'.thisN'
p785
I97
sS'.thisIndex'
p786
I13
sg15
(lp787
S'k'
asg30
VF
sg16
S'N'
sg14
I2
sg19
Nsg93
I13
sa(dp788
g17
(lp789
S'k'
asg18
S'N'
sS'.thisRepN'
p790
I6
sg20
S'Y'
sg31
g32
sS'.thisTrialN'
p791
I8
sS'.thisN'
p792
I98
sS'.thisIndex'
p793
I0
sg15
(lp794
S'd'
asg30
VF
sg16
S'N'
sg14
I2
sg19
Nsg93
I0
sa(dp795
g17
(lp796
S'd'
asg18
S'N'
sg22
I25
sS'.thisN'
p797
I99
sg20
S'Y'
sg31
g32
sS'.thisTrialN'
p798
I9
sS'.thisRepN'
p799
I6
sg21
I23
sS'.thisIndex'
p800
I3
sg23
I24
sg15
(lp801
S'k'
asg30
VF
sg16
S'N'
sg14
I2
sg19
Nsg93
I3
sa(dp802
g17
(lp803
S'k'
asg93
I7
sS'.thisRepN'
p804
I6
sg30
VF
sg31
g32
sS'.thisTrialN'
p805
I10
sS'.thisN'
p806
I100
sS'.thisIndex'
p807
I7
sg15
(lp808
S'k'
asg16
S'Y'
sg14
I3
sa(dp809
g17
(lp810
S'd'
asg93
I5
sS'.thisRepN'
p811
I6
sg30
VF
sg31
g32
sS'.thisTrialN'
p812
I11
sS'.thisN'
p813
I101
sS'.thisIndex'
p814
I5
sg15
(lp815
S'k'
asg16
S'N'
sg14
I3
sa(dp816
g17
(lp817
S'd'
asg18
S'Y'
sS'.thisRepN'
p818
I6
sg20
S'Y'
sg31
g32
sS'.thisTrialN'
p819
I12
sS'.thisN'
p820
I102
sS'.thisIndex'
p821
I7
sg15
(lp822
S'k'
asg30
VF
sg16
S'N'
sg14
I3
sg19
(lp823
S'space'
p824
asg93
I7
sa(dp825
g17
(lp826
S'd'
asg18
S'N'
sS'.thisRepN'
p827
I6
sg20
S'Y'
sg31
g32
sS'.thisTrialN'
p828
I13
sS'.thisN'
p829
I103
sS'.thisIndex'
p830
I9
sg15
(lp831
S'd'
asg30
VF
sg16
S'Y'
sg14
I3
sg19
Nsg93
I9
sa(dp832
g17
(lp833
S'k'
asg18
S'N'
sS'.thisRepN'
p834
I6
sg20
S'Y'
sg31
g32
sS'.thisTrialN'
p835
I14
sS'.thisN'
p836
I104
sS'.thisIndex'
p837
I8
sg15
(lp838
S'k'
asg30
VF
sg16
S'Y'
sg14
I3
sg19
Nsg93
I8
sa(dp839
g17
(lp840
S'k'
asg18
S'Y'
sS'.thisRepN'
p841
I7
sg20
S'N'
sg31
g32
sS'.thisTrialN'
p842
I0
sS'.thisN'
p843
I105
sS'.thisIndex'
p844
I2
sg15
(lp845
S'k'
asg30
VF
sg16
S'Y'
sg14
I3
sg19
Nsg93
I2
sa(dp846
g17
(lp847
S'd'
asg18
S'Y'
sS'.thisRepN'
p848
I7
sg20
S'Y'
sg31
g32
sS'.thisTrialN'
p849
I1
sS'.thisN'
p850
I106
sS'.thisIndex'
p851
I2
sg15
(lp852
S'k'
asg30
VF
sg16
S'N'
sg14
I3
sg19
(lp853
S'space'
p854
asg93
I2
sa(dp855
g17
(lp856
S'd'
asg18
S'Y'
sS'.thisRepN'
p857
I7
sg20
S'N'
sg31
g32
sS'.thisTrialN'
p858
I2
sS'.thisN'
p859
I107
sS'.thisIndex'
p860
I3
sg15
(lp861
S'd'
asg30
VF
sg16
S'Y'
sg14
I3
sg19
Nsg93
I3
sa(dp862
g17
(lp863
S'd'
asg18
S'Y'
sS'.thisRepN'
p864
I7
sg20
S'N'
sg31
g32
sS'.thisTrialN'
p865
I3
sS'.thisN'
p866
I108
sS'.thisIndex'
p867
I9
sg15
(lp868
S'k'
asg30
VF
sg16
S'N'
sg14
I3
sg19
Nsg93
I9
sa(dp869
g17
(lp870
S'k'
asg18
S'Y'
sS'.thisRepN'
p871
I7
sg20
S'Y'
sg31
g32
sS'.thisTrialN'
p872
I4
sS'.thisN'
p873
I109
sS'.thisIndex'
p874
I1
sg15
(lp875
S'd'
asg30
VF
sg16
S'N'
sg14
I3
sg19
(lp876
S'space'
p877
asg93
I1
sa(dp878
g17
(lp879
S'k'
asg18
S'Y'
sS'.thisRepN'
p880
I7
sg20
S'Y'
sg31
g32
sS'.thisTrialN'
p881
I5
sS'.thisN'
p882
I110
sS'.thisIndex'
p883
I12
sg15
(lp884
S'k'
asg30
VF
sg16
S'Y'
sg14
I3
sg19
(lp885
S'space'
p886
asg93
I12
sa(dp887
g17
(lp888
S'd'
asg18
S'Y'
sS'.thisRepN'
p889
I7
sg20
S'Y'
sg31
g32
sS'.thisTrialN'
p890
I6
sS'.thisN'
p891
I111
sS'.thisIndex'
p892
I3
sg15
(lp893
S'd'
asg30
VF
sg16
S'Y'
sg14
I3
sg19
(lp894
S'space'
p895
asg93
I3
sa(dp896
g17
(lp897
S'd'
asg18
S'Y'
sS'.thisRepN'
p898
I7
sg20
S'Y'
sg31
g32
sS'.thisTrialN'
p899
I7
sS'.thisN'
p900
I112
sS'.thisIndex'
p901
I5
sg15
(lp902
S'k'
asg30
VF
sg16
S'N'
sg14
I3
sg19
(lp903
S'space'
p904
asg93
I5
sa(dp905
g17
(lp906
S'k'
asg18
S'N'
sS'.thisRepN'
p907
I7
sg20
S'Y'
sg31
g32
sS'.thisTrialN'
p908
I8
sS'.thisN'
p909
I113
sS'.thisIndex'
p910
I10
sg15
(lp911
S'd'
asg30
VF
sg16
S'N'
sg14
I3
sg19
Nsg93
I10
sa(dp912
g17
(lp913
S'd'
asg18
S'N'
sS'.thisRepN'
p914
I7
sg20
S'N'
sg31
g32
sS'.thisTrialN'
p915
I9
sS'.thisN'
p916
I114
sS'.thisIndex'
p917
I9
sg15
(lp918
S'k'
asg30
VF
sg16
S'N'
sg14
I3
sg19
(lp919
S'space'
p920
asg93
I9
sa(dp921
g17
(lp922
S'k'
asg18
S'Y'
sS'.thisRepN'
p923
I7
sg20
S'Y'
sg31
g32
sS'.thisTrialN'
p924
I10
sS'.thisN'
p925
I115
sS'.thisIndex'
p926
I2
sg15
(lp927
S'd'
asg30
VF
sg16
S'N'
sg14
I3
sg19
(lp928
S'space'
p929
asg93
I2
sa(dp930
g17
(lp931
S'k'
asg18
S'N'
sS'.thisRepN'
p932
I7
sg20
S'Y'
sg31
g32
sS'.thisTrialN'
p933
I11
sS'.thisN'
p934
I116
sS'.thisIndex'
p935
I1
sg15
(lp936
S'k'
asg30
VF
sg16
S'Y'
sg14
I3
sg19
Nsg93
I1
sa(dp937
g17
(lp938
S'k'
asg18
S'N'
sS'.thisRepN'
p939
I7
sg20
S'Y'
sg31
g32
sS'.thisTrialN'
p940
I12
sS'.thisN'
p941
I117
sS'.thisIndex'
p942
I1
sg15
(lp943
S'k'
asg30
VF
sg16
S'Y'
sg14
I3
sg19
Nsg93
I1
sa(dp944
g17
(lp945
S'd'
asg18
S'Y'
sS'.thisRepN'
p946
I7
sg20
S'Y'
sg31
g32
sS'.thisTrialN'
p947
I13
sS'.thisN'
p948
I118
sS'.thisIndex'
p949
I0
sg15
(lp950
S'k'
asg30
VF
sg16
S'N'
sg14
I3
sg19
(lp951
S'space'
p952
asg93
I0
sa(dp953
g17
(lp954
S'k'
asg18
S'Y'
sS'.thisRepN'
p955
I7
sg20
S'N'
sg31
g32
sS'.thisTrialN'
p956
I14
sS'.thisN'
p957
I119
sS'.thisIndex'
p958
I11
sg15
(lp959
S'k'
asg30
VF
sg16
S'Y'
sg14
I3
sg19
Nsg93
I11
sa(dp960
g17
(lp961
S'd'
asg18
S'N'
sS'.thisRepN'
p962
I8
sg20
S'Y'
sg31
g32
sS'.thisTrialN'
p963
I0
sS'.thisN'
p964
I120
sS'.thisIndex'
p965
I2
sg15
(lp966
S'k'
asg30
VF
sg16
S'N'
sg14
I3
sg19
Nsg93
I2
sa(dp967
g17
(lp968
S'd'
asg18
S'N'
sS'.thisRepN'
p969
I8
sg20
S'Y'
sg31
g32
sS'.thisTrialN'
p970
I1
sS'.thisN'
p971
I121
sS'.thisIndex'
p972
I4
sg15
(lp973
S'd'
asg30
VF
sg16
S'Y'
sg14
I3
sg19
Nsg93
I4
sa(dp974
g17
(lp975
S'k'
asg18
S'Y'
sS'.thisRepN'
p976
I8
sg20
S'Y'
sg31
g32
sS'.thisTrialN'
p977
I2
sS'.thisN'
p978
I122
sS'.thisIndex'
p979
I8
sg15
(lp980
S'd'
asg30
VF
sg16
S'N'
sg14
I3
sg19
(lp981
S'space'
p982
asg93
I8
sa(dp983
g17
(lp984
S'd'
asg18
S'N'
sS'.thisRepN'
p985
I8
sg20
S'Y'
sg31
g32
sS'.thisTrialN'
p986
I3
sS'.thisN'
p987
I123
sS'.thisIndex'
p988
I12
sg15
(lp989
S'k'
asg30
VF
sg16
S'N'
sg14
I3
sg19
Nsg93
I12
sa(dp990
g17
(lp991
S'd'
asg18
S'N'
sS'.thisRepN'
p992
I8
sg20
S'Y'
sg31
g32
sS'.thisTrialN'
p993
I4
sS'.thisN'
p994
I124
sS'.thisIndex'
p995
I0
sg15
(lp996
S'd'
asg30
VF
sg16
S'Y'
sg14
I3
sg19
Nsg93
I0
sa(dp997
g17
(lp998
S'k'
asg18
S'N'
sS'.thisRepN'
p999
I8
sg20
S'N'
sg31
g32
sS'.thisTrialN'
p1000
I5
sS'.thisN'
p1001
I125
sS'.thisIndex'
p1002
I6
sg15
(lp1003
S'k'
asg30
VF
sg16
S'Y'
sg14
I3
sg19
(lp1004
S'space'
p1005
asg93
I6
sa(dp1006
g17
(lp1007
S'd'
asg18
S'Y'
sS'.thisRepN'
p1008
I8
sg20
S'N'
sg31
g32
sS'.thisTrialN'
p1009
I6
sS'.thisN'
p1010
I126
sS'.thisIndex'
p1011
I14
sg15
(lp1012
S'd'
asg30
VF
sg16
S'Y'
sg14
I3
sg19
Nsg93
I14
sa(dp1013
g17
(lp1014
S'k'
asg18
S'Y'
sS'.thisRepN'
p1015
I8
sg20
S'N'
sg31
g32
sS'.thisTrialN'
p1016
I7
sS'.thisN'
p1017
I127
sS'.thisIndex'
p1018
I8
sg15
(lp1019
S'd'
asg30
VF
sg16
S'N'
sg14
I3
sg19
Nsg93
I8
sa(dp1020
g17
(lp1021
S'k'
asg18
S'Y'
sS'.thisRepN'
p1022
I8
sg20
S'N'
sg31
g32
sS'.thisTrialN'
p1023
I8
sS'.thisN'
p1024
I128
sS'.thisIndex'
p1025
I8
sg15
(lp1026
S'k'
asg30
VF
sg16
S'Y'
sg14
I3
sg19
Nsg93
I8
sa(dp1027
g17
(lp1028
S'd'
asg18
S'N'
sS'.thisRepN'
p1029
I8
sg20
S'N'
sg31
g32
sS'.thisTrialN'
p1030
I9
sS'.thisN'
p1031
I129
sS'.thisIndex'
p1032
I4
sg15
(lp1033
S'k'
asg30
VF
sg16
S'N'
sg14
I3
sg19
(lp1034
S'space'
p1035
asg93
I4
sa(dp1036
g17
(lp1037
S'k'
asg18
S'N'
sS'.thisRepN'
p1038
I8
sg20
S'Y'
sg31
g32
sS'.thisTrialN'
p1039
I10
sS'.thisN'
p1040
I130
sS'.thisIndex'
p1041
I9
sg15
(lp1042
S'k'
asg30
VF
sg16
S'Y'
sg14
I3
sg19
Nsg93
I9
sa(dp1043
g17
(lp1044
S'd'
asg18
S'N'
sS'.thisRepN'
p1045
I8
sg20
S'Y'
sg31
g32
sS'.thisTrialN'
p1046
I11
sS'.thisN'
p1047
I131
sS'.thisIndex'
p1048
I14
sg15
(lp1049
S'k'
asg30
VF
sg16
S'N'
sg14
I3
sg19
Nsg93
I14
sa(dp1050
g17
(lp1051
S'k'
asg18
S'Y'
sS'.thisRepN'
p1052
I8
sg20
S'N'
sg31
g32
sS'.thisTrialN'
p1053
I12
sS'.thisN'
p1054
I132
sS'.thisIndex'
p1055
I0
sg15
(lp1056
S'k'
asg30
VF
sg16
S'Y'
sg14
I3
sg19
(lp1057
S'd'
asg93
I0
sa(dp1058
g17
(lp1059
S'k'
asg18
S'Y'
sS'.thisRepN'
p1060
I8
sg20
S'Y'
sg31
g32
sS'.thisTrialN'
p1061
I13
sS'.thisN'
p1062
I133
sS'.thisIndex'
p1063
I7
sg15
(lp1064
S'd'
asg30
VF
sg16
S'N'
sg14
I3
sg19
(lp1065
S'space'
p1066
asg93
I7
sa(dp1067
g17
(lp1068
S'd'
asg18
S'Y'
sS'.thisRepN'
p1069
I8
sg20
S'N'
sg31
g32
sS'.thisTrialN'
p1070
I14
sS'.thisN'
p1071
I134
sS'.thisIndex'
p1072
I8
sg15
(lp1073
S'k'
asg30
VF
sg16
S'N'
sg14
I3
sg19
(lp1074
S'k'
asg93
I8
sa(dp1075
g17
(lp1076
S'd'
asg18
S'N'
sS'.thisRepN'
p1077
I9
sg20
S'N'
sg31
g32
sS'.thisTrialN'
p1078
I0
sS'.thisN'
p1079
I135
sS'.thisIndex'
p1080
I7
sg15
(lp1081
S'k'
asg30
VF
sg16
S'N'
sg14
I3
sg19
(lp1082
S'space'
p1083
asg93
I7
sa(dp1084
g17
(lp1085
S'd'
asg18
S'Y'
sS'.thisRepN'
p1086
I9
sg20
S'N'
sg31
g32
sS'.thisTrialN'
p1087
I1
sS'.thisN'
p1088
I136
sS'.thisIndex'
p1089
I12
sg15
(lp1090
S'd'
asg30
VF
sg16
S'Y'
sg14
I3
sg19
Nsg93
I12
sa(dp1091
g17
(lp1092
S'd'
asg18
S'N'
sS'.thisRepN'
p1093
I9
sg20
S'Y'
sg31
g32
sS'.thisTrialN'
p1094
I2
sS'.thisN'
p1095
I137
sS'.thisIndex'
p1096
I10
sg15
(lp1097
S'd'
asg30
VF
sg16
S'Y'
sg14
I3
sg19
Nsg93
I10
sa(dp1098
g17
(lp1099
S'd'
asg18
S'Y'
sS'.thisRepN'
p1100
I9
sg20
S'Y'
sg31
g32
sS'.thisTrialN'
p1101
I3
sS'.thisN'
p1102
I138
sS'.thisIndex'
p1103
I3
sg15
(lp1104
S'd'
asg30
VF
sg16
S'Y'
sg14
I3
sg19
(lp1105
S'space'
p1106
asg93
I3
sa(dp1107
g17
(lp1108
S'd'
asg18
S'Y'
sS'.thisRepN'
p1109
I9
sg20
S'N'
sg31
g32
sS'.thisTrialN'
p1110
I4
sS'.thisN'
p1111
I139
sS'.thisIndex'
p1112
I6
sg15
(lp1113
S'k'
asg30
VF
sg16
S'N'
sg14
I3
sg19
Nsg93
I6
sa(dp1114
g17
(lp1115
S'k'
asg18
S'Y'
sS'.thisRepN'
p1116
I9
sg20
S'N'
sg31
g32
sS'.thisTrialN'
p1117
I5
sS'.thisN'
p1118
I140
sS'.thisIndex'
p1119
I1
sg15
(lp1120
S'd'
asg30
VF
sg16
S'N'
sg14
I3
sg19
Nsg93
I1
sa(dp1121
g17
(lp1122
S'd'
asg18
S'N'
sS'.thisRepN'
p1123
I9
sg20
S'Y'
sg31
g32
sS'.thisTrialN'
p1124
I6
sS'.thisN'
p1125
I141
sS'.thisIndex'
p1126
I6
sg15
(lp1127
S'k'
asg30
VF
sg16
S'N'
sg14
I3
sg19
Nsg93
I6
sa(dp1128
g17
(lp1129
S'd'
asg18
S'N'
sS'.thisRepN'
p1130
I9
sg20
S'Y'
sg31
g32
sS'.thisTrialN'
p1131
I7
sS'.thisN'
p1132
I142
sS'.thisIndex'
p1133
I13
sg15
(lp1134
S'd'
asg30
VF
sg16
S'Y'
sg14
I3
sg19
Nsg93
I13
sa(dp1135
g17
(lp1136
S'd'
asg18
S'N'
sS'.thisRepN'
p1137
I9
sg20
S'N'
sg31
g32
sS'.thisTrialN'
p1138
I8
sS'.thisN'
p1139
I143
sS'.thisIndex'
p1140
I10
sg15
(lp1141
S'k'
asg30
VF
sg16
S'N'
sg14
I3
sg19
(lp1142
S'space'
p1143
asg93
I10
sa(dp1144
g17
(lp1145
S'k'
asg18
S'N'
sS'.thisRepN'
p1146
I9
sg20
S'Y'
sg31
g32
sS'.thisTrialN'
p1147
I9
sS'.thisN'
p1148
I144
sS'.thisIndex'
p1149
I0
sg15
(lp1150
S'd'
asg30
VF
sg16
S'N'
sg14
I3
sg19
Nsg93
I0
sa(dp1151
g17
(lp1152
S'd'
asg18
S'Y'
sS'.thisRepN'
p1153
I9
sg20
S'N'
sg31
g32
sS'.thisTrialN'
p1154
I10
sS'.thisN'
p1155
I145
sS'.thisIndex'
p1156
I2
sg15
(lp1157
S'k'
asg30
VF
sg16
S'N'
sg14
I3
sg19
(lp1158
S'k'
asg93
I2
sa(dp1159
g17
(lp1160
S'd'
asg18
S'Y'
sS'.thisRepN'
p1161
I9
sg20
S'Y'
sg31
g32
sS'.thisTrialN'
p1162
I11
sS'.thisN'
p1163
I146
sS'.thisIndex'
p1164
I2
sg15
(lp1165
S'd'
asg30
VF
sg16
S'Y'
sg14
I3
sg19
(lp1166
S'space'
p1167
asg93
I2
sa(dp1168
g17
(lp1169
S'd'
asg18
S'N'
sS'.thisRepN'
p1170
I9
sg20
S'Y'
sg31
g32
sS'.thisTrialN'
p1171
I12
sS'.thisN'
p1172
I147
sS'.thisIndex'
p1173
I2
sg15
(lp1174
S'k'
asg30
VF
sg16
S'N'
sg14
I3
sg19
Nsg93
I2
sa(dp1175
g17
(lp1176
S'd'
asg18
S'N'
sS'.thisRepN'
p1177
I9
sg20
S'N'
sg31
g32
sS'.thisTrialN'
p1178
I13
sS'.thisN'
p1179
I148
sS'.thisIndex'
p1180
I4
sg15
(lp1181
S'd'
asg30
VF
sg16
S'Y'
sg14
I3
sg19
(lp1182
S'd'
asg93
I4
sa(dp1183
g17
(lp1184
S'k'
asg18
S'N'
sg22
I29
sS'.thisN'
p1185
I149
sg20
S'Y'
sg31
g32
sS'.thisTrialN'
p1186
I14
sS'.thisRepN'
p1187
I9
sg21
I24
sS'.thisIndex'
p1188
I14
sg23
I25
sg15
(lp1189
S'k'
asg30
VF
sg16
S'Y'
sg14
I3
sg19
Nsg93
I14
sa(dp1190
g17
(lp1191
S'd'
asg93
I12
sS'.thisRepN'
p1192
I10
sg30
VF
sg31
g32
sS'.thisTrialN'
p1193
I0
sS'.thisN'
p1194
I150
sS'.thisIndex'
p1195
I12
sg15
(lp1196
S'k'
asg16
S'N'
sg14
I4
sa(dp1197
g17
(lp1198
S'd'
asg93
I8
sS'.thisRepN'
p1199
I10
sg30
VF
sg31
g32
sS'.thisTrialN'
p1200
I1
sS'.thisN'
p1201
I151
sS'.thisIndex'
p1202
I8
sg15
(lp1203
S'k'
asg16
S'N'
sg14
I4
sa(dp1204
g17
(lp1205
S'd'
asg18
S'Y'
sS'.thisRepN'
p1206
I10
sg20
S'Y'
sg31
g32
sS'.thisTrialN'
p1207
I2
sS'.thisN'
p1208
I152
sS'.thisIndex'
p1209
I10
sg15
(lp1210
S'k'
asg30
VF
sg16
S'N'
sg14
I4
sg19
(lp1211
S'space'
p1212
asg93
I10
sa(dp1213
g17
(lp1214
S'd'
asg18
S'Y'
sS'.thisRepN'
p1215
I10
sg20
S'Y'
sg31
g32
sS'.thisTrialN'
p1216
I3
sS'.thisN'
p1217
I153
sS'.thisIndex'
p1218
I14
sg15
(lp1219
S'k'
asg30
VF
sg16
S'N'
sg14
I4
sg19
(lp1220
S'space'
p1221
asg93
I14
sa(dp1222
g17
(lp1223
S'k'
asg18
S'Y'
sS'.thisRepN'
p1224
I10
sg20
S'N'
sg31
g32
sS'.thisTrialN'
p1225
I4
sS'.thisN'
p1226
I154
sS'.thisIndex'
p1227
I0
sg15
(lp1228
S'd'
asg30
VF
sg16
S'N'
sg14
I4
sg19
Nsg93
I0
sa(dp1229
g17
(lp1230
S'd'
asg18
S'Y'
sS'.thisRepN'
p1231
I10
sg20
S'N'
sg31
g32
sS'.thisTrialN'
p1232
I5
sS'.thisN'
p1233
I155
sS'.thisIndex'
p1234
I7
sg15
(lp1235
S'd'
asg30
VF
sg16
S'Y'
sg14
I4
sg19
(lp1236
S'k'
asg93
I7
sa(dp1237
g17
(lp1238
S'd'
asg18
S'Y'
sS'.thisRepN'
p1239
I10
sg20
S'Y'
sg31
g32
sS'.thisTrialN'
p1240
I6
sS'.thisN'
p1241
I156
sS'.thisIndex'
p1242
I3
sg15
(lp1243
S'k'
asg30
VF
sg16
S'N'
sg14
I4
sg19
(lp1244
S'space'
p1245
asg93
I3
sa(dp1246
g17
(lp1247
S'k'
asg18
S'Y'
sS'.thisRepN'
p1248
I10
sg20
S'Y'
sg31
g32
sS'.thisTrialN'
p1249
I7
sS'.thisN'
p1250
I157
sS'.thisIndex'
p1251
I8
sg15
(lp1252
S'd'
asg30
VF
sg16
S'N'
sg14
I4
sg19
(lp1253
S'space'
p1254
asg93
I8
sa(dp1255
g17
(lp1256
S'k'
asg18
S'Y'
sS'.thisRepN'
p1257
I10
sg20
S'Y'
sg31
g32
sS'.thisTrialN'
p1258
I8
sS'.thisN'
p1259
I158
sS'.thisIndex'
p1260
I11
sg15
(lp1261
S'k'
asg30
VF
sg16
S'Y'
sg14
I4
sg19
(lp1262
S'space'
p1263
asg93
I11
sa(dp1264
g17
(lp1265
S'd'
asg18
S'N'
sS'.thisRepN'
p1266
I10
sg20
S'Y'
sg31
g32
sS'.thisTrialN'
p1267
I9
sS'.thisN'
p1268
I159
sS'.thisIndex'
p1269
I8
sg15
(lp1270
S'k'
asg30
VF
sg16
S'N'
sg14
I4
sg19
Nsg93
I8
sa(dp1271
g17
(lp1272
S'd'
asg18
S'N'
sS'.thisRepN'
p1273
I10
sg20
S'Y'
sg31
g32
sS'.thisTrialN'
p1274
I10
sS'.thisN'
p1275
I160
sS'.thisIndex'
p1276
I9
sg15
(lp1277
S'd'
asg30
VF
sg16
S'Y'
sg14
I4
sg19
Nsg93
I9
sa(dp1278
g17
(lp1279
S'd'
asg18
S'Y'
sS'.thisRepN'
p1280
I10
sg20
S'Y'
sg31
g32
sS'.thisTrialN'
p1281
I11
sS'.thisN'
p1282
I161
sS'.thisIndex'
p1283
I5
sg15
(lp1284
S'k'
asg30
VF
sg16
S'N'
sg14
I4
sg19
(lp1285
S'space'
p1286
asg93
I5
sa(dp1287
g17
(lp1288
S'k'
asg18
S'Y'
sS'.thisRepN'
p1289
I10
sg20
S'Y'
sg31
g32
sS'.thisTrialN'
p1290
I12
sS'.thisN'
p1291
I162
sS'.thisIndex'
p1292
I3
sg15
(lp1293
S'd'
asg30
VF
sg16
S'N'
sg14
I4
sg19
(lp1294
S'space'
p1295
asg93
I3
sa(dp1296
g17
(lp1297
S'd'
asg18
S'N'
sS'.thisRepN'
p1298
I10
sg20
S'Y'
sg31
g32
sS'.thisTrialN'
p1299
I13
sS'.thisN'
p1300
I163
sS'.thisIndex'
p1301
I12
sg15
(lp1302
S'k'
asg30
VF
sg16
S'N'
sg14
I4
sg19
Nsg93
I12
sa(dp1303
g17
(lp1304
S'k'
asg18
S'Y'
sS'.thisRepN'
p1305
I10
sg20
S'Y'
sg31
g32
sS'.thisTrialN'
p1306
I14
sS'.thisN'
p1307
I164
sS'.thisIndex'
p1308
I5
sg15
(lp1309
S'd'
asg30
VF
sg16
S'N'
sg14
I4
sg19
(lp1310
S'space'
p1311
asg93
I5
sa(dp1312
g17
(lp1313
S'd'
asg18
S'Y'
sS'.thisRepN'
p1314
I11
sg20
S'N'
sg31
g32
sS'.thisTrialN'
p1315
I0
sS'.thisN'
p1316
I165
sS'.thisIndex'
p1317
I2
sg15
(lp1318
S'k'
asg30
VF
sg16
S'N'
sg14
I4
sg19
(lp1319
S'k'
asg93
I2
sa(dp1320
g17
(lp1321
S'd'
asg18
S'N'
sS'.thisRepN'
p1322
I11
sg20
S'N'
sg31
g32
sS'.thisTrialN'
p1323
I1
sS'.thisN'
p1324
I166
sS'.thisIndex'
p1325
I12
sg15
(lp1326
S'd'
asg30
VF
sg16
S'Y'
sg14
I4
sg19
(lp1327
S'd'
asg93
I12
sa(dp1328
g17
(lp1329
S'k'
asg18
S'N'
sS'.thisRepN'
p1330
I11
sg20
S'N'
sg31
g32
sS'.thisTrialN'
p1331
I2
sS'.thisN'
p1332
I167
sS'.thisIndex'
p1333
I4
sg15
(lp1334
S'k'
asg30
VF
sg16
S'Y'
sg14
I4
sg19
(lp1335
S'k'
asg93
I4
sa(dp1336
g17
(lp1337
S'd'
asg18
S'N'
sS'.thisRepN'
p1338
I11
sg20
S'N'
sg31
g32
sS'.thisTrialN'
p1339
I3
sS'.thisN'
p1340
I168
sS'.thisIndex'
p1341
I10
sg15
(lp1342
S'k'
asg30
VF
sg16
S'N'
sg14
I4
sg19
(lp1343
S'd'
asg93
I10
sa(dp1344
g17
(lp1345
S'k'
asg18
S'N'
sS'.thisRepN'
p1346
I11
sg20
S'Y'
sg31
g32
sS'.thisTrialN'
p1347
I4
sS'.thisN'
p1348
I169
sS'.thisIndex'
p1349
I0
sg15
(lp1350
S'k'
asg30
VF
sg16
S'Y'
sg14
I4
sg19
Nsg93
I0
sa(dp1351
g17
(lp1352
S'k'
asg18
S'Y'
sS'.thisRepN'
p1353
I11
sg20
S'N'
sg31
g32
sS'.thisTrialN'
p1354
I5
sS'.thisN'
p1355
I170
sS'.thisIndex'
p1356
I14
sg15
(lp1357
S'k'
asg30
VF
sg16
S'Y'
sg14
I4
sg19
Nsg93
I14
sa(dp1358
g17
(lp1359
S'd'
asg18
S'Y'
sS'.thisRepN'
p1360
I11
sg20
S'N'
sg31
g32
sS'.thisTrialN'
p1361
I6
sS'.thisN'
p1362
I171
sS'.thisIndex'
p1363
I13
sg15
(lp1364
S'k'
asg30
VF
sg16
S'N'
sg14
I4
sg19
Nsg93
I13
sa(dp1365
g17
(lp1366
S'd'
asg18
S'N'
sS'.thisRepN'
p1367
I11
sg20
S'Y'
sg31
g32
sS'.thisTrialN'
p1368
I7
sS'.thisN'
p1369
I172
sS'.thisIndex'
p1370
I9
sg15
(lp1371
S'k'
asg30
VF
sg16
S'N'
sg14
I4
sg19
Nsg93
I9
sa(dp1372
g17
(lp1373
S'k'
asg18
S'N'
sS'.thisRepN'
p1374
I11
sg20
S'N'
sg31
g32
sS'.thisTrialN'
p1375
I8
sS'.thisN'
p1376
I173
sS'.thisIndex'
p1377
I13
sg15
(lp1378
S'd'
asg30
VF
sg16
S'N'
sg14
I4
sg19
(lp1379
S'space'
p1380
asg93
I13
sa(dp1381
g17
(lp1382
S'd'
asg18
S'N'
sS'.thisRepN'
p1383
I11
sg20
S'N'
sg31
g32
sS'.thisTrialN'
p1384
I9
sS'.thisN'
p1385
I174
sS'.thisIndex'
p1386
I7
sg15
(lp1387
S'd'
asg30
VF
sg16
S'Y'
sg14
I4
sg19
(lp1388
S'k'
asg93
I7
sa(dp1389
g17
(lp1390
S'k'
asg18
S'Y'
sS'.thisRepN'
p1391
I11
sg20
S'N'
sg31
g32
sS'.thisTrialN'
p1392
I10
sS'.thisN'
p1393
I175
sS'.thisIndex'
p1394
I10
sg15
(lp1395
S'd'
asg30
VF
sg16
S'N'
sg14
I4
sg19
Nsg93
I10
sa(dp1396
g17
(lp1397
S'd'
asg18
S'N'
sS'.thisRepN'
p1398
I11
sg20
S'Y'
sg31
g32
sS'.thisTrialN'
p1399
I11
sS'.thisN'
p1400
I176
sS'.thisIndex'
p1401
I2
sg15
(lp1402
S'k'
asg30
VF
sg16
S'N'
sg14
I4
sg19
Nsg93
I2
sa(dp1403
g17
(lp1404
S'd'
asg18
S'Y'
sS'.thisRepN'
p1405
I11
sg20
S'N'
sg31
g32
sS'.thisTrialN'
p1406
I12
sS'.thisN'
p1407
I177
sS'.thisIndex'
p1408
I5
sg15
(lp1409
S'k'
asg30
VF
sg16
S'N'
sg14
I4
sg19
Nsg93
I5
sa(dp1410
g17
(lp1411
S'k'
asg18
S'Y'
sS'.thisRepN'
p1412
I11
sg20
S'Y'
sg31
g32
sS'.thisTrialN'
p1413
I13
sS'.thisN'
p1414
I178
sS'.thisIndex'
p1415
I6
sg15
(lp1416
S'd'
asg30
VF
sg16
S'N'
sg14
I4
sg19
(lp1417
S'space'
p1418
asg93
I6
sa(dp1419
g17
(lp1420
S'k'
asg18
S'Y'
sS'.thisRepN'
p1421
I11
sg20
S'N'
sg31
g32
sS'.thisTrialN'
p1422
I14
sS'.thisN'
p1423
I179
sS'.thisIndex'
p1424
I4
sg15
(lp1425
S'k'
asg30
VF
sg16
S'Y'
sg14
I4
sg19
(lp1426
S'k'
asg93
I4
sa(dp1427
g17
(lp1428
S'd'
asg18
S'N'
sS'.thisRepN'
p1429
I12
sg20
S'Y'
sg31
g32
sS'.thisTrialN'
p1430
I0
sS'.thisN'
p1431
I180
sS'.thisIndex'
p1432
I8
sg15
(lp1433
S'k'
asg30
VF
sg16
S'N'
sg14
I4
sg19
Nsg93
I8
sa(dp1434
g17
(lp1435
S'd'
asg18
S'Y'
sS'.thisRepN'
p1436
I12
sg20
S'N'
sg31
g32
sS'.thisTrialN'
p1437
I1
sS'.thisN'
p1438
I181
sS'.thisIndex'
p1439
I3
sg15
(lp1440
S'k'
asg30
VF
sg16
S'N'
sg14
I4
sg19
Nsg93
I3
sa(dp1441
g17
(lp1442
S'k'
asg18
S'N'
sS'.thisRepN'
p1443
I12
sg20
S'Y'
sg31
g32
sS'.thisTrialN'
p1444
I2
sS'.thisN'
p1445
I182
sS'.thisIndex'
p1446
I11
sg15
(lp1447
S'd'
asg30
VF
sg16
S'N'
sg14
I4
sg19
Nsg93
I11
sa(dp1448
g17
(lp1449
S'k'
asg18
S'N'
sS'.thisRepN'
p1450
I12
sg20
S'Y'
sg31
g32
sS'.thisTrialN'
p1451
I3
sS'.thisN'
p1452
I183
sS'.thisIndex'
p1453
I9
sg15
(lp1454
S'k'
asg30
VF
sg16
S'Y'
sg14
I4
sg19
Nsg93
I9
sa(dp1455
g17
(lp1456
S'd'
asg18
S'Y'
sS'.thisRepN'
p1457
I12
sg20
S'Y'
sg31
g32
sS'.thisTrialN'
p1458
I4
sS'.thisN'
p1459
I184
sS'.thisIndex'
p1460
I5
sg15
(lp1461
S'k'
asg30
VF
sg16
S'N'
sg14
I4
sg19
(lp1462
S'space'
p1463
asg93
I5
sa(dp1464
g17
(lp1465
S'k'
asg18
S'Y'
sS'.thisRepN'
p1466
I12
sg20
S'N'
sg31
g32
sS'.thisTrialN'
p1467
I5
sS'.thisN'
p1468
I185
sS'.thisIndex'
p1469
I4
sg15
(lp1470
S'd'
asg30
VF
sg16
S'N'
sg14
I4
sg19
Nsg93
I4
sa(dp1471
g17
(lp1472
S'k'
asg18
S'N'
sS'.thisRepN'
p1473
I12
sg20
S'N'
sg31
g32
sS'.thisTrialN'
p1474
I6
sS'.thisN'
p1475
I186
sS'.thisIndex'
p1476
I3
sg15
(lp1477
S'd'
asg30
VF
sg16
S'N'
sg14
I4
sg19
(lp1478
S'k'
asg93
I3
sa(dp1479
g17
(lp1480
S'd'
asg18
S'N'
sS'.thisRepN'
p1481
I12
sg20
S'N'
sg31
g32
sS'.thisTrialN'
p1482
I7
sS'.thisN'
p1483
I187
sS'.thisIndex'
p1484
I5
sg15
(lp1485
S'k'
asg30
VF
sg16
S'N'
sg14
I4
sg19
(lp1486
S'k'
asg93
I5
sa(dp1487
g17
(lp1488
S'k'
asg18
S'Y'
sS'.thisRepN'
p1489
I12
sg20
S'N'
sg31
g32
sS'.thisTrialN'
p1490
I8
sS'.thisN'
p1491
I188
sS'.thisIndex'
p1492
I4
sg15
(lp1493
S'k'
asg30
VF
sg16
S'Y'
sg14
I4
sg19
Nsg93
I4
sa(dp1494
g17
(lp1495
S'd'
asg18
S'N'
sS'.thisRepN'
p1496
I12
sg20
S'Y'
sg31
g32
sS'.thisTrialN'
p1497
I9
sS'.thisN'
p1498
I189
sS'.thisIndex'
p1499
I7
sg15
(lp1500
S'd'
asg30
VF
sg16
S'Y'
sg14
I4
sg19
Nsg93
I7
sa(dp1501
g17
(lp1502
S'k'
asg18
S'Y'
sS'.thisRepN'
p1503
I12
sg20
S'N'
sg31
g32
sS'.thisTrialN'
p1504
I10
sS'.thisN'
p1505
I190
sS'.thisIndex'
p1506
I8
sg15
(lp1507
S'k'
asg30
VF
sg16
S'Y'
sg14
I4
sg19
Nsg93
I8
sa(dp1508
g17
(lp1509
S'd'
asg18
S'Y'
sS'.thisRepN'
p1510
I12
sg20
S'Y'
sg31
g32
sS'.thisTrialN'
p1511
I11
sS'.thisN'
p1512
I191
sS'.thisIndex'
p1513
I11
sg15
(lp1514
S'k'
asg30
VF
sg16
S'N'
sg14
I4
sg19
(lp1515
S'space'
p1516
asg93
I11
sa(dp1517
g17
(lp1518
S'k'
asg18
S'Y'
sS'.thisRepN'
p1519
I12
sg20
S'N'
sg31
g32
sS'.thisTrialN'
p1520
I12
sS'.thisN'
p1521
I192
sS'.thisIndex'
p1522
I6
sg15
(lp1523
S'k'
asg30
VF
sg16
S'Y'
sg14
I4
sg19
Nsg93
I6
sa(dp1524
g17
(lp1525
S'd'
asg18
S'N'
sS'.thisRepN'
p1526
I12
sg20
S'Y'
sg31
g32
sS'.thisTrialN'
p1527
I13
sS'.thisN'
p1528
I193
sS'.thisIndex'
p1529
I7
sg15
(lp1530
S'd'
asg30
VF
sg16
S'Y'
sg14
I4
sg19
Nsg93
I7
sa(dp1531
g17
(lp1532
S'd'
asg18
S'Y'
sS'.thisRepN'
p1533
I12
sg20
S'Y'
sg31
g32
sS'.thisTrialN'
p1534
I14
sS'.thisN'
p1535
I194
sS'.thisIndex'
p1536
I8
sg15
(lp1537
S'k'
asg30
VF
sg16
S'N'
sg14
I4
sg19
(lp1538
S'space'
p1539
asg93
I8
sa(dp1540
g17
(lp1541
S'd'
asg18
S'N'
sS'.thisRepN'
p1542
I13
sg20
S'Y'
sg31
g32
sS'.thisTrialN'
p1543
I0
sS'.thisN'
p1544
I195
sS'.thisIndex'
p1545
I2
sg15
(lp1546
S'k'
asg30
VF
sg16
S'N'
sg14
I4
sg19
Nsg93
I2
sa(dp1547
g17
(lp1548
S'd'
asg18
S'N'
sS'.thisRepN'
p1549
I13
sg20
S'Y'
sg31
g32
sS'.thisTrialN'
p1550
I1
sS'.thisN'
p1551
I196
sS'.thisIndex'
p1552
I6
sg15
(lp1553
S'k'
asg30
VF
sg16
S'N'
sg14
I4
sg19
Nsg93
I6
sa(dp1554
g17
(lp1555
S'k'
asg18
S'N'
sS'.thisRepN'
p1556
I13
sg20
S'Y'
sg31
g32
sS'.thisTrialN'
p1557
I2
sS'.thisN'
p1558
I197
sS'.thisIndex'
p1559
I6
sg15
(lp1560
S'd'
asg30
VF
sg16
S'N'
sg14
I4
sg19
Nsg93
I6
sa(dp1561
g17
(lp1562
S'd'
asg18
S'N'
sS'.thisRepN'
p1563
I13
sg20
S'Y'
sg31
g32
sS'.thisTrialN'
p1564
I3
sS'.thisN'
p1565
I198
sS'.thisIndex'
p1566
I10
sg15
(lp1567
S'k'
asg30
VF
sg16
S'N'
sg14
I4
sg19
Nsg93
I10
sa(dp1568
g17
(lp1569
S'd'
asg18
S'N'
sg22
I27
sS'.thisN'
p1570
I199
sg20
S'N'
sg31
g32
sS'.thisTrialN'
p1571
I4
sS'.thisRepN'
p1572
I13
sg21
I15
sS'.thisIndex'
p1573
I11
sg23
I25
sg15
(lp1574
S'k'
asg30
VF
sg16
S'N'
sg14
I4
sg19
(lp1575
S'd'
asg93
I11
sa(dp1576
g17
(lp1577
S'k'
asg93
I4
sS'.thisRepN'
p1578
I13
sg30
VF
sg31
g32
sS'.thisTrialN'
p1579
I5
sS'.thisN'
p1580
I200
sS'.thisIndex'
p1581
I4
sg15
(lp1582
S'k'
asg16
S'Y'
sg14
I5
sa(dp1583
g17
(lp1584
S'k'
asg93
I7
sS'.thisRepN'
p1585
I13
sg30
VF
sg31
g32
sS'.thisTrialN'
p1586
I6
sS'.thisN'
p1587
I201
sS'.thisIndex'
p1588
I7
sg15
(lp1589
S'k'
asg16
S'Y'
sg14
I5
sa(dp1590
g17
(lp1591
S'd'
asg18
S'N'
sS'.thisRepN'
p1592
I13
sg20
S'Y'
sg31
g32
sS'.thisTrialN'
p1593
I7
sS'.thisN'
p1594
I202
sS'.thisIndex'
p1595
I7
sg15
(lp1596
S'd'
asg30
VF
sg16
S'Y'
sg14
I5
sg19
Nsg93
I7
sa(dp1597
g17
(lp1598
S'k'
asg18
S'N'
sS'.thisRepN'
p1599
I13
sg20
S'Y'
sg31
g32
sS'.thisTrialN'
p1600
I8
sS'.thisN'
p1601
I203
sS'.thisIndex'
p1602
I6
sg15
(lp1603
S'd'
asg30
VF
sg16
S'N'
sg14
I5
sg19
Nsg93
I6
sa(dp1604
g17
(lp1605
S'd'
asg18
S'N'
sS'.thisRepN'
p1606
I13
sg20
S'Y'
sg31
g32
sS'.thisTrialN'
p1607
I9
sS'.thisN'
p1608
I204
sS'.thisIndex'
p1609
I1
sg15
(lp1610
S'k'
asg30
VF
sg16
S'N'
sg14
I5
sg19
Nsg93
I1
sa(dp1611
g17
(lp1612
S'k'
asg18
S'N'
sS'.thisRepN'
p1613
I13
sg20
S'Y'
sg31
g32
sS'.thisTrialN'
p1614
I10
sS'.thisN'
p1615
I205
sS'.thisIndex'
p1616
I5
sg15
(lp1617
S'k'
asg30
VF
sg16
S'Y'
sg14
I5
sg19
Nsg93
I5
sa(dp1618
g17
(lp1619
S'd'
asg18
S'Y'
sS'.thisRepN'
p1620
I13
sg20
S'N'
sg31
g32
sS'.thisTrialN'
p1621
I11
sS'.thisN'
p1622
I206
sS'.thisIndex'
p1623
I10
sg15
(lp1624
S'k'
asg30
VF
sg16
S'N'
sg14
I5
sg19
Nsg93
I10
sa(dp1625
g17
(lp1626
S'd'
asg18
S'N'
sS'.thisRepN'
p1627
I13
sg20
S'Y'
sg31
g32
sS'.thisTrialN'
p1628
I12
sS'.thisN'
p1629
I207
sS'.thisIndex'
p1630
I12
sg15
(lp1631
S'd'
asg30
VF
sg16
S'Y'
sg14
I5
sg19
Nsg93
I12
sa(dp1632
g17
(lp1633
S'd'
asg18
S'N'
sS'.thisRepN'
p1634
I13
sg20
S'Y'
sg31
g32
sS'.thisTrialN'
p1635
I13
sS'.thisN'
p1636
I208
sS'.thisIndex'
p1637
I3
sg15
(lp1638
S'k'
asg30
VF
sg16
S'N'
sg14
I5
sg19
Nsg93
I3
sa(dp1639
g17
(lp1640
S'k'
asg18
S'N'
sS'.thisRepN'
p1641
I13
sg20
S'Y'
sg31
g32
sS'.thisTrialN'
p1642
I14
sS'.thisN'
p1643
I209
sS'.thisIndex'
p1644
I7
sg15
(lp1645
S'd'
asg30
VF
sg16
S'N'
sg14
I5
sg19
Nsg93
I7
sa(dp1646
g17
(lp1647
S'k'
asg18
S'N'
sS'.thisRepN'
p1648
I14
sg20
S'Y'
sg31
g32
sS'.thisTrialN'
p1649
I0
sS'.thisN'
p1650
I210
sS'.thisIndex'
p1651
I9
sg15
(lp1652
S'k'
asg30
VF
sg16
S'Y'
sg14
I5
sg19
Nsg93
I9
sa(dp1653
g17
(lp1654
S'k'
asg18
S'Y'
sS'.thisRepN'
p1655
I14
sg20
S'N'
sg31
g32
sS'.thisTrialN'
p1656
I1
sS'.thisN'
p1657
I211
sS'.thisIndex'
p1658
I7
sg15
(lp1659
S'k'
asg30
VF
sg16
S'Y'
sg14
I5
sg19
Nsg93
I7
sa(dp1660
g17
(lp1661
S'k'
asg18
S'N'
sS'.thisRepN'
p1662
I14
sg20
S'Y'
sg31
g32
sS'.thisTrialN'
p1663
I2
sS'.thisN'
p1664
I212
sS'.thisIndex'
p1665
I5
sg15
(lp1666
S'k'
asg30
VF
sg16
S'Y'
sg14
I5
sg19
Nsg93
I5
sa(dp1667
g17
(lp1668
S'd'
asg18
S'Y'
sS'.thisRepN'
p1669
I14
sg20
S'N'
sg31
g32
sS'.thisTrialN'
p1670
I3
sS'.thisN'
p1671
I213
sS'.thisIndex'
p1672
I14
sg15
(lp1673
S'k'
asg30
VF
sg16
S'N'
sg14
I5
sg19
Nsg93
I14
sa(dp1674
g17
(lp1675
S'd'
asg18
S'Y'
sS'.thisRepN'
p1676
I14
sg20
S'N'
sg31
g32
sS'.thisTrialN'
p1677
I4
sS'.thisN'
p1678
I214
sS'.thisIndex'
p1679
I6
sg15
(lp1680
S'k'
asg30
VF
sg16
S'N'
sg14
I5
sg19
Nsg93
I6
sa(dp1681
g17
(lp1682
S'd'
asg18
S'Y'
sS'.thisRepN'
p1683
I14
sg20
S'N'
sg31
g32
sS'.thisTrialN'
p1684
I5
sS'.thisN'
p1685
I215
sS'.thisIndex'
p1686
I12
sg15
(lp1687
S'k'
asg30
VF
sg16
S'N'
sg14
I5
sg19
Nsg93
I12
sa(dp1688
g17
(lp1689
S'd'
asg18
S'Y'
sS'.thisRepN'
p1690
I14
sg20
S'N'
sg31
g32
sS'.thisTrialN'
p1691
I6
sS'.thisN'
p1692
I216
sS'.thisIndex'
p1693
I12
sg15
(lp1694
S'd'
asg30
VF
sg16
S'Y'
sg14
I5
sg19
Nsg93
I12
sa(dp1695
g17
(lp1696
S'd'
asg18
S'Y'
sS'.thisRepN'
p1697
I14
sg20
S'N'
sg31
g32
sS'.thisTrialN'
p1698
I7
sS'.thisN'
p1699
I217
sS'.thisIndex'
p1700
I2
sg15
(lp1701
S'k'
asg30
VF
sg16
S'N'
sg14
I5
sg19
Nsg93
I2
sa(dp1702
g17
(lp1703
S'k'
asg18
S'Y'
sS'.thisRepN'
p1704
I14
sg20
S'N'
sg31
g32
sS'.thisTrialN'
p1705
I8
sS'.thisN'
p1706
I218
sS'.thisIndex'
p1707
I2
sg15
(lp1708
S'd'
asg30
VF
sg16
S'N'
sg14
I5
sg19
Nsg93
I2
sa(dp1709
g17
(lp1710
S'd'
asg18
S'Y'
sS'.thisRepN'
p1711
I14
sg20
S'N'
sg31
g32
sS'.thisTrialN'
p1712
I9
sS'.thisN'
p1713
I219
sS'.thisIndex'
p1714
I0
sg15
(lp1715
S'k'
asg30
VF
sg16
S'N'
sg14
I5
sg19
Nsg93
I0
sa(dp1716
g17
(lp1717
S'd'
asg18
S'Y'
sS'.thisRepN'
p1718
I14
sg20
S'N'
sg31
g32
sS'.thisTrialN'
p1719
I10
sS'.thisN'
p1720
I220
sS'.thisIndex'
p1721
I4
sg15
(lp1722
S'd'
asg30
VF
sg16
S'Y'
sg14
I5
sg19
Nsg93
I4
sa(dp1723
g17
(lp1724
S'k'
asg18
S'Y'
sS'.thisRepN'
p1725
I14
sg20
S'N'
sg31
g32
sS'.thisTrialN'
p1726
I11
sS'.thisN'
p1727
I221
sS'.thisIndex'
p1728
I6
sg15
(lp1729
S'k'
asg30
VF
sg16
S'Y'
sg14
I5
sg19
Nsg93
I6
sa(dp1730
g17
(lp1731
S'd'
asg18
S'N'
sS'.thisRepN'
p1732
I14
sg20
S'N'
sg31
g32
sS'.thisTrialN'
p1733
I12
sS'.thisN'
p1734
I222
sS'.thisIndex'
p1735
I11
sg15
(lp1736
S'k'
asg30
VF
sg16
S'N'
sg14
I5
sg19
(lp1737
S'k'
asg93
I11
sa(dp1738
g17
(lp1739
S'k'
asg18
S'N'
sS'.thisRepN'
p1740
I14
sg20
S'Y'
sg31
g32
sS'.thisTrialN'
p1741
I13
sS'.thisN'
p1742
I223
sS'.thisIndex'
p1743
I7
sg15
(lp1744
S'k'
asg30
VF
sg16
S'Y'
sg14
I5
sg19
Nsg93
I7
sa(dp1745
g17
(lp1746
S'k'
asg18
S'N'
sS'.thisRepN'
p1747
I14
sg20
S'Y'
sg31
g32
sS'.thisTrialN'
p1748
I14
sS'.thisN'
p1749
I224
sS'.thisIndex'
p1750
I11
sg15
(lp1751
S'd'
asg30
VF
sg16
S'N'
sg14
I5
sg19
Nsg93
I11
sa(dp1752
g17
(lp1753
S'd'
asg18
S'N'
sS'.thisRepN'
p1754
I15
sg20
S'Y'
sg31
g32
sS'.thisTrialN'
p1755
I0
sS'.thisN'
p1756
I225
sS'.thisIndex'
p1757
I1
sg15
(lp1758
S'k'
asg30
VF
sg16
S'N'
sg14
I5
sg19
Nsg93
I1
sa(dp1759
g17
(lp1760
S'd'
asg18
S'Y'
sS'.thisRepN'
p1761
I15
sg20
S'N'
sg31
g32
sS'.thisTrialN'
p1762
I1
sS'.thisN'
p1763
I226
sS'.thisIndex'
p1764
I7
sg15
(lp1765
S'd'
asg30
VF
sg16
S'Y'
sg14
I5
sg19
Nsg93
I7
sa(dp1766
g17
(lp1767
S'd'
asg18
S'N'
sS'.thisRepN'
p1768
I15
sg20
S'Y'
sg31
g32
sS'.thisTrialN'
p1769
I2
sS'.thisN'
p1770
I227
sS'.thisIndex'
p1771
I0
sg15
(lp1772
S'k'
asg30
VF
sg16
S'N'
sg14
I5
sg19
Nsg93
I0
sa(dp1773
g17
(lp1774
S'd'
asg18
S'Y'
sS'.thisRepN'
p1775
I15
sg20
S'N'
sg31
g32
sS'.thisTrialN'
p1776
I3
sS'.thisN'
p1777
I228
sS'.thisIndex'
p1778
I14
sg15
(lp1779
S'd'
asg30
VF
sg16
S'Y'
sg14
I5
sg19
Nsg93
I14
sa(dp1780
g17
(lp1781
S'd'
asg18
S'N'
sS'.thisRepN'
p1782
I15
sg20
S'Y'
sg31
g32
sS'.thisTrialN'
p1783
I4
sS'.thisN'
p1784
I229
sS'.thisIndex'
p1785
I2
sg15
(lp1786
S'd'
asg30
VF
sg16
S'Y'
sg14
I5
sg19
Nsg93
I2
sa(dp1787
g17
(lp1788
S'd'
asg18
S'Y'
sS'.thisRepN'
p1789
I15
sg20
S'N'
sg31
g32
sS'.thisTrialN'
p1790
I5
sS'.thisN'
p1791
I230
sS'.thisIndex'
p1792
I10
sg15
(lp1793
S'k'
asg30
VF
sg16
S'N'
sg14
I5
sg19
Nsg93
I10
sa(dp1794
g17
(lp1795
S'k'
asg18
S'Y'
sS'.thisRepN'
p1796
I15
sg20
S'N'
sg31
g32
sS'.thisTrialN'
p1797
I6
sS'.thisN'
p1798
I231
sS'.thisIndex'
p1799
I9
sg15
(lp1800
S'k'
asg30
VF
sg16
S'Y'
sg14
I5
sg19
Nsg93
I9
sa(dp1801
g17
(lp1802
S'k'
asg18
S'N'
sS'.thisRepN'
p1803
I15
sg20
S'Y'
sg31
g32
sS'.thisTrialN'
p1804
I7
sS'.thisN'
p1805
I232
sS'.thisIndex'
p1806
I3
sg15
(lp1807
S'k'
asg30
VF
sg16
S'Y'
sg14
I5
sg19
Nsg93
I3
sa(dp1808
g17
(lp1809
S'k'
asg18
S'N'
sS'.thisRepN'
p1810
I15
sg20
S'Y'
sg31
g32
sS'.thisTrialN'
p1811
I8
sS'.thisN'
p1812
I233
sS'.thisIndex'
p1813
I9
sg15
(lp1814
S'd'
asg30
VF
sg16
S'N'
sg14
I5
sg19
Nsg93
I9
sa(dp1815
g17
(lp1816
S'k'
asg18
S'Y'
sS'.thisRepN'
p1817
I15
sg20
S'N'
sg31
g32
sS'.thisTrialN'
p1818
I9
sS'.thisN'
p1819
I234
sS'.thisIndex'
p1820
I3
sg15
(lp1821
S'k'
asg30
VF
sg16
S'Y'
sg14
I5
sg19
Nsg93
I3
sa(dp1822
g17
(lp1823
S'k'
asg18
S'N'
sS'.thisRepN'
p1824
I15
sg20
S'Y'
sg31
g32
sS'.thisTrialN'
p1825
I10
sS'.thisN'
p1826
I235
sS'.thisIndex'
p1827
I13
sg15
(lp1828
S'k'
asg30
VF
sg16
S'Y'
sg14
I5
sg19
Nsg93
I13
sa(dp1829
g17
(lp1830
S'd'
asg18
S'N'
sS'.thisRepN'
p1831
I15
sg20
S'Y'
sg31
g32
sS'.thisTrialN'
p1832
I11
sS'.thisN'
p1833
I236
sS'.thisIndex'
p1834
I4
sg15
(lp1835
S'd'
asg30
VF
sg16
S'Y'
sg14
I5
sg19
Nsg93
I4
sa(dp1836
g17
(lp1837
S'd'
asg18
S'N'
sS'.thisRepN'
p1838
I15
sg20
S'Y'
sg31
g32
sS'.thisTrialN'
p1839
I12
sS'.thisN'
p1840
I237
sS'.thisIndex'
p1841
I6
sg15
(lp1842
S'k'
asg30
VF
sg16
S'N'
sg14
I5
sg19
Nsg93
I6
sa(dp1843
g17
(lp1844
S'd'
asg18
S'Y'
sS'.thisRepN'
p1845
I15
sg20
S'N'
sg31
g32
sS'.thisTrialN'
p1846
I13
sS'.thisN'
p1847
I238
sS'.thisIndex'
p1848
I2
sg15
(lp1849
S'd'
asg30
VF
sg16
S'Y'
sg14
I5
sg19
Nsg93
I2
sa(dp1850
g17
(lp1851
S'd'
asg18
S'Y'
sS'.thisRepN'
p1852
I15
sg20
S'Y'
sg31
g32
sS'.thisTrialN'
p1853
I14
sS'.thisN'
p1854
I239
sS'.thisIndex'
p1855
I14
sg15
(lp1856
S'k'
asg30
VF
sg16
S'N'
sg14
I5
sg19
(lp1857
S'space'
p1858
asg93
I14
sa(dp1859
g17
(lp1860
S'k'
asg18
S'N'
sS'.thisRepN'
p1861
I16
sg20
S'Y'
sg31
g32
sS'.thisTrialN'
p1862
I0
sS'.thisN'
p1863
I240
sS'.thisIndex'
p1864
I2
sg15
(lp1865
S'k'
asg30
VF
sg16
S'Y'
sg14
I5
sg19
Nsg93
I2
sa(dp1866
g17
(lp1867
S'd'
asg18
S'N'
sS'.thisRepN'
p1868
I16
sg20
S'Y'
sg31
g32
sS'.thisTrialN'
p1869
I1
sS'.thisN'
p1870
I241
sS'.thisIndex'
p1871
I10
sg15
(lp1872
S'k'
asg30
VF
sg16
S'N'
sg14
I5
sg19
Nsg93
I10
sa(dp1873
g17
(lp1874
S'k'
asg18
S'N'
sS'.thisRepN'
p1875
I16
sg20
S'Y'
sg31
g32
sS'.thisTrialN'
p1876
I2
sS'.thisN'
p1877
I242
sS'.thisIndex'
p1878
I6
sg15
(lp1879
S'k'
asg30
VF
sg16
S'Y'
sg14
I5
sg19
Nsg93
I6
sa(dp1880
g17
(lp1881
S'k'
asg18
S'Y'
sS'.thisRepN'
p1882
I16
sg20
S'Y'
sg31
g32
sS'.thisTrialN'
p1883
I3
sS'.thisN'
p1884
I243
sS'.thisIndex'
p1885
I10
sg15
(lp1886
S'd'
asg30
VF
sg16
S'N'
sg14
I5
sg19
(lp1887
S'space'
p1888
asg93
I10
sa(dp1889
g17
(lp1890
S'd'
asg18
S'Y'
sS'.thisRepN'
p1891
I16
sg20
S'N'
sg31
g32
sS'.thisTrialN'
p1892
I4
sS'.thisN'
p1893
I244
sS'.thisIndex'
p1894
I13
sg15
(lp1895
S'k'
asg30
VF
sg16
S'N'
sg14
I5
sg19
Nsg93
I13
sa(dp1896
g17
(lp1897
S'k'
asg18
S'Y'
sS'.thisRepN'
p1898
I16
sg20
S'Y'
sg31
g32
sS'.thisTrialN'
p1899
I5
sS'.thisN'
p1900
I245
sS'.thisIndex'
p1901
I0
sg15
(lp1902
S'k'
asg30
VF
sg16
S'Y'
sg14
I5
sg19
(lp1903
S'space'
p1904
asg93
I0
sa(dp1905
g17
(lp1906
S'k'
asg18
S'Y'
sS'.thisRepN'
p1907
I16
sg20
S'Y'
sg31
g32
sS'.thisTrialN'
p1908
I6
sS'.thisN'
p1909
I246
sS'.thisIndex'
p1910
I1
sg15
(lp1911
S'd'
asg30
VF
sg16
S'N'
sg14
I5
sg19
(lp1912
S'space'
p1913
asg93
I1
sa(dp1914
g17
(lp1915
S'k'
asg18
S'N'
sS'.thisRepN'
p1916
I16
sg20
S'Y'
sg31
g32
sS'.thisTrialN'
p1917
I7
sS'.thisN'
p1918
I247
sS'.thisIndex'
p1919
I0
sg15
(lp1920
S'k'
asg30
VF
sg16
S'Y'
sg14
I5
sg19
Nsg93
I0
sa(dp1921
g17
(lp1922
S'd'
asg18
S'N'
sS'.thisRepN'
p1923
I16
sg20
S'Y'
sg31
g32
sS'.thisTrialN'
p1924
I8
sS'.thisN'
p1925
I248
sS'.thisIndex'
p1926
I3
sg15
(lp1927
S'k'
asg30
VF
sg16
S'N'
sg14
I5
sg19
Nsg93
I3
sa(dp1928
g17
(lp1929
S'd'
asg18
S'Y'
sg22
I28
sS'.thisN'
p1930
I249
sg20
S'N'
sg31
g32
sS'.thisTrialN'
p1931
I9
sS'.thisRepN'
p1932
I16
sg21
I26
sS'.thisIndex'
p1933
I10
sg23
I23
sg15
(lp1934
S'd'
asg30
VF
sg16
S'Y'
sg14
I5
sg19
(lp1935
S'd'
asg93
I10
sa(dp1936
g17
(lp1937
S'k'
asg93
I12
sS'.thisRepN'
p1938
I16
sg30
VF
sg31
g32
sS'.thisTrialN'
p1939
I10
sS'.thisN'
p1940
I250
sS'.thisIndex'
p1941
I12
sg15
(lp1942
S'k'
asg16
S'Y'
sg14
I6
sa(dp1943
g17
(lp1944
S'd'
asg93
I4
sS'.thisRepN'
p1945
I16
sg30
VF
sg31
g32
sS'.thisTrialN'
p1946
I11
sS'.thisN'
p1947
I251
sS'.thisIndex'
p1948
I4
sg15
(lp1949
S'k'
asg16
S'N'
sg14
I6
sa(dp1950
g17
(lp1951
S'd'
asg18
S'Y'
sS'.thisRepN'
p1952
I16
sg20
S'N'
sg31
g32
sS'.thisTrialN'
p1953
I12
sS'.thisN'
p1954
I252
sS'.thisIndex'
p1955
I14
sg15
(lp1956
S'k'
asg30
VF
sg16
S'N'
sg14
I6
sg19
Nsg93
I14
sa(dp1957
g17
(lp1958
S'd'
asg18
S'Y'
sS'.thisRepN'
p1959
I16
sg20
S'N'
sg31
g32
sS'.thisTrialN'
p1960
I13
sS'.thisN'
p1961
I253
sS'.thisIndex'
p1962
I12
sg15
(lp1963
S'd'
asg30
VF
sg16
S'Y'
sg14
I6
sg19
Nsg93
I12
sa(dp1964
g17
(lp1965
S'd'
asg18
S'Y'
sS'.thisRepN'
p1966
I16
sg20
S'Y'
sg31
g32
sS'.thisTrialN'
p1967
I14
sS'.thisN'
p1968
I254
sS'.thisIndex'
p1969
I11
sg15
(lp1970
S'd'
asg30
VF
sg16
S'Y'
sg14
I6
sg19
(lp1971
S'space'
p1972
asg93
I11
sa(dp1973
g17
(lp1974
S'd'
asg18
S'Y'
sS'.thisRepN'
p1975
I17
sg20
S'N'
sg31
g32
sS'.thisTrialN'
p1976
I0
sS'.thisN'
p1977
I255
sS'.thisIndex'
p1978
I4
sg15
(lp1979
S'd'
asg30
VF
sg16
S'Y'
sg14
I6
sg19
Nsg93
I4
sa(dp1980
g17
(lp1981
S'k'
asg18
S'Y'
sS'.thisRepN'
p1982
I17
sg20
S'Y'
sg31
g32
sS'.thisTrialN'
p1983
I1
sS'.thisN'
p1984
I256
sS'.thisIndex'
p1985
I10
sg15
(lp1986
S'k'
asg30
VF
sg16
S'Y'
sg14
I6
sg19
(lp1987
S'space'
p1988
asg93
I10
sa(dp1989
g17
(lp1990
S'k'
asg18
S'N'
sS'.thisRepN'
p1991
I17
sg20
S'Y'
sg31
g32
sS'.thisTrialN'
p1992
I2
sS'.thisN'
p1993
I257
sS'.thisIndex'
p1994
I13
sg15
(lp1995
S'd'
asg30
VF
sg16
S'N'
sg14
I6
sg19
Nsg93
I13
sa(dp1996
g17
(lp1997
S'k'
asg18
S'N'
sS'.thisRepN'
p1998
I17
sg20
S'Y'
sg31
g32
sS'.thisTrialN'
p1999
I3
sS'.thisN'
p2000
I258
sS'.thisIndex'
p2001
I12
sg15
(lp2002
S'k'
asg30
VF
sg16
S'Y'
sg14
I6
sg19
Nsg93
I12
sa(dp2003
g17
(lp2004
S'k'
asg18
S'Y'
sS'.thisRepN'
p2005
I17
sg20
S'N'
sg31
g32
sS'.thisTrialN'
p2006
I4
sS'.thisN'
p2007
I259
sS'.thisIndex'
p2008
I0
sg15
(lp2009
S'd'
asg30
VF
sg16
S'N'
sg14
I6
sg19
Nsg93
I0
sa(dp2010
g17
(lp2011
S'k'
asg18
S'N'
sS'.thisRepN'
p2012
I17
sg20
S'N'
sg31
g32
sS'.thisTrialN'
p2013
I5
sS'.thisN'
p2014
I260
sS'.thisIndex'
p2015
I5
sg15
(lp2016
S'd'
asg30
VF
sg16
S'N'
sg14
I6
sg19
(lp2017
S'space'
p2018
asg93
I5
sa(dp2019
g17
(lp2020
S'd'
asg18
S'Y'
sS'.thisRepN'
p2021
I17
sg20
S'Y'
sg31
g32
sS'.thisTrialN'
p2022
I6
sS'.thisN'
p2023
I261
sS'.thisIndex'
p2024
I9
sg15
(lp2025
S'k'
asg30
VF
sg16
S'N'
sg14
I6
sg19
(lp2026
S'space'
p2027
asg93
I9
sa(dp2028
g17
(lp2029
S'k'
asg18
S'Y'
sS'.thisRepN'
p2030
I17
sg20
S'N'
sg31
g32
sS'.thisTrialN'
p2031
I7
sS'.thisN'
p2032
I262
sS'.thisIndex'
p2033
I1
sg15
(lp2034
S'k'
asg30
VF
sg16
S'Y'
sg14
I6
sg19
Nsg93
I1
sa(dp2035
g17
(lp2036
S'd'
asg18
S'N'
sS'.thisRepN'
p2037
I17
sg20
S'Y'
sg31
g32
sS'.thisTrialN'
p2038
I8
sS'.thisN'
p2039
I263
sS'.thisIndex'
p2040
I8
sg15
(lp2041
S'k'
asg30
VF
sg16
S'N'
sg14
I6
sg19
Nsg93
I8
sa(dp2042
g17
(lp2043
S'd'
asg18
S'Y'
sS'.thisRepN'
p2044
I17
sg20
S'Y'
sg31
g32
sS'.thisTrialN'
p2045
I9
sS'.thisN'
p2046
I264
sS'.thisIndex'
p2047
I5
sg15
(lp2048
S'd'
asg30
VF
sg16
S'Y'
sg14
I6
sg19
(lp2049
S'space'
p2050
asg93
I5
sa(dp2051
g17
(lp2052
S'k'
asg18
S'Y'
sS'.thisRepN'
p2053
I17
sg20
S'N'
sg31
g32
sS'.thisTrialN'
p2054
I10
sS'.thisN'
p2055
I265
sS'.thisIndex'
p2056
I13
sg15
(lp2057
S'k'
asg30
VF
sg16
S'Y'
sg14
I6
sg19
Nsg93
I13
sa(dp2058
g17
(lp2059
S'k'
asg18
S'Y'
sS'.thisRepN'
p2060
I17
sg20
S'N'
sg31
g32
sS'.thisTrialN'
p2061
I11
sS'.thisN'
p2062
I266
sS'.thisIndex'
p2063
I11
sg15
(lp2064
S'd'
asg30
VF
sg16
S'N'
sg14
I6
sg19
Nsg93
I11
sa(dp2065
g17
(lp2066
S'k'
asg18
S'N'
sS'.thisRepN'
p2067
I17
sg20
S'Y'
sg31
g32
sS'.thisTrialN'
p2068
I12
sS'.thisN'
p2069
I267
sS'.thisIndex'
p2070
I5
sg15
(lp2071
S'k'
asg30
VF
sg16
S'Y'
sg14
I6
sg19
Nsg93
I5
sa(dp2072
g17
(lp2073
S'd'
asg18
S'Y'
sS'.thisRepN'
p2074
I17
sg20
S'N'
sg31
g32
sS'.thisTrialN'
p2075
I13
sS'.thisN'
p2076
I268
sS'.thisIndex'
p2077
I3
sg15
(lp2078
S'k'
asg30
VF
sg16
S'N'
sg14
I6
sg19
Nsg93
I3
sa(dp2079
g17
(lp2080
S'd'
asg18
S'N'
sS'.thisRepN'
p2081
I17
sg20
S'N'
sg31
g32
sS'.thisTrialN'
p2082
I14
sS'.thisN'
p2083
I269
sS'.thisIndex'
p2084
I0
sg15
(lp2085
S'k'
asg30
VF
sg16
S'N'
sg14
I6
sg19
(lp2086
S'd'
asg93
I0
sa(dp2087
g17
(lp2088
S'k'
asg18
S'Y'
sS'.thisRepN'
p2089
I18
sg20
S'N'
sg31
g32
sS'.thisTrialN'
p2090
I0
sS'.thisN'
p2091
I270
sS'.thisIndex'
p2092
I12
sg15
(lp2093
S'd'
asg30
VF
sg16
S'N'
sg14
I6
sg19
Nsg93
I12
sa(dp2094
g17
(lp2095
S'd'
asg18
S'N'
sS'.thisRepN'
p2096
I18
sg20
S'Y'
sg31
g32
sS'.thisTrialN'
p2097
I1
sS'.thisN'
p2098
I271
sS'.thisIndex'
p2099
I8
sg15
(lp2100
S'k'
asg30
VF
sg16
S'N'
sg14
I6
sg19
Nsg93
I8
sa(dp2101
g17
(lp2102
S'k'
asg18
S'N'
sS'.thisRepN'
p2103
I18
sg20
S'Y'
sg31
g32
sS'.thisTrialN'
p2104
I2
sS'.thisN'
p2105
I272
sS'.thisIndex'
p2106
I4
sg15
(lp2107
S'd'
asg30
VF
sg16
S'N'
sg14
I6
sg19
Nsg93
I4
sa(dp2108
g17
(lp2109
S'd'
asg18
S'N'
sS'.thisRepN'
p2110
I18
sg20
S'Y'
sg31
g32
sS'.thisTrialN'
p2111
I3
sS'.thisN'
p2112
I273
sS'.thisIndex'
p2113
I4
sg15
(lp2114
S'k'
asg30
VF
sg16
S'N'
sg14
I6
sg19
Nsg93
I4
sa(dp2115
g17
(lp2116
S'k'
asg18
S'Y'
sS'.thisRepN'
p2117
I18
sg20
S'N'
sg31
g32
sS'.thisTrialN'
p2118
I4
sS'.thisN'
p2119
I274
sS'.thisIndex'
p2120
I13
sg15
(lp2121
S'd'
asg30
VF
sg16
S'N'
sg14
I6
sg19
Nsg93
I13
sa(dp2122
g17
(lp2123
S'd'
asg18
S'N'
sS'.thisRepN'
p2124
I18
sg20
S'Y'
sg31
g32
sS'.thisTrialN'
p2125
I5
sS'.thisN'
p2126
I275
sS'.thisIndex'
p2127
I14
sg15
(lp2128
S'k'
asg30
VF
sg16
S'N'
sg14
I6
sg19
Nsg93
I14
sa(dp2129
g17
(lp2130
S'k'
asg18
S'N'
sS'.thisRepN'
p2131
I18
sg20
S'Y'
sg31
g32
sS'.thisTrialN'
p2132
I6
sS'.thisN'
p2133
I276
sS'.thisIndex'
p2134
I1
sg15
(lp2135
S'k'
asg30
VF
sg16
S'Y'
sg14
I6
sg19
Nsg93
I1
sa(dp2136
g17
(lp2137
S'k'
asg18
S'N'
sS'.thisRepN'
p2138
I18
sg20
S'Y'
sg31
g32
sS'.thisTrialN'
p2139
I7
sS'.thisN'
p2140
I277
sS'.thisIndex'
p2141
I1
sg15
(lp2142
S'd'
asg30
VF
sg16
S'N'
sg14
I6
sg19
Nsg93
I1
sa(dp2143
g17
(lp2144
S'd'
asg18
S'Y'
sS'.thisRepN'
p2145
I18
sg20
S'N'
sg31
g32
sS'.thisTrialN'
p2146
I8
sS'.thisN'
p2147
I278
sS'.thisIndex'
p2148
I8
sg15
(lp2149
S'k'
asg30
VF
sg16
S'N'
sg14
I6
sg19
Nsg93
I8
sa(dp2150
g17
(lp2151
S'k'
asg18
S'N'
sS'.thisRepN'
p2152
I18
sg20
S'N'
sg31
g32
sS'.thisTrialN'
p2153
I9
sS'.thisN'
p2154
I279
sS'.thisIndex'
p2155
I3
sg15
(lp2156
S'd'
asg30
VF
sg16
S'N'
sg14
I6
sg19
(lp2157
S'd'
asg93
I3
sa(dp2158
g17
(lp2159
S'k'
asg18
S'N'
sS'.thisRepN'
p2160
I18
sg20
S'Y'
sg31
g32
sS'.thisTrialN'
p2161
I10
sS'.thisN'
p2162
I280
sS'.thisIndex'
p2163
I14
sg15
(lp2164
S'k'
asg30
VF
sg16
S'Y'
sg14
I6
sg19
Nsg93
I14
sa(dp2165
g17
(lp2166
S'd'
asg18
S'Y'
sS'.thisRepN'
p2167
I18
sg20
S'N'
sg31
g32
sS'.thisTrialN'
p2168
I11
sS'.thisN'
p2169
I281
sS'.thisIndex'
p2170
I0
sg15
(lp2171
S'd'
asg30
VF
sg16
S'Y'
sg14
I6
sg19
Nsg93
I0
sa(dp2172
g17
(lp2173
S'k'
asg18
S'Y'
sS'.thisRepN'
p2174
I18
sg20
S'N'
sg31
g32
sS'.thisTrialN'
p2175
I12
sS'.thisN'
p2176
I282
sS'.thisIndex'
p2177
I10
sg15
(lp2178
S'k'
asg30
VF
sg16
S'Y'
sg14
I6
sg19
Nsg93
I10
sa(dp2179
g17
(lp2180
S'd'
asg18
S'Y'
sS'.thisRepN'
p2181
I18
sg20
S'N'
sg31
g32
sS'.thisTrialN'
p2182
I13
sS'.thisN'
p2183
I283
sS'.thisIndex'
p2184
I2
sg15
(lp2185
S'd'
asg30
VF
sg16
S'Y'
sg14
I6
sg19
Nsg93
I2
sa(dp2186
g17
(lp2187
S'k'
asg18
S'N'
sS'.thisRepN'
p2188
I18
sg20
S'Y'
sg31
g32
sS'.thisTrialN'
p2189
I14
sS'.thisN'
p2190
I284
sS'.thisIndex'
p2191
I6
sg15
(lp2192
S'k'
asg30
VF
sg16
S'Y'
sg14
I6
sg19
Nsg93
I6
sa(dp2193
g17
(lp2194
S'k'
asg18
S'N'
sS'.thisRepN'
p2195
I19
sg20
S'Y'
sg31
g32
sS'.thisTrialN'
p2196
I0
sS'.thisN'
p2197
I285
sS'.thisIndex'
p2198
I9
sg15
(lp2199
S'd'
asg30
VF
sg16
S'N'
sg14
I6
sg19
Nsg93
I9
sa(dp2200
g17
(lp2201
S'd'
asg18
S'Y'
sS'.thisRepN'
p2202
I19
sg20
S'N'
sg31
g32
sS'.thisTrialN'
p2203
I1
sS'.thisN'
p2204
I286
sS'.thisIndex'
p2205
I3
sg15
(lp2206
S'k'
asg30
VF
sg16
S'N'
sg14
I6
sg19
Nsg93
I3
sa(dp2207
g17
(lp2208
S'd'
asg18
S'Y'
sS'.thisRepN'
p2209
I19
sg20
S'N'
sg31
g32
sS'.thisTrialN'
p2210
I2
sS'.thisN'
p2211
I287
sS'.thisIndex'
p2212
I6
sg15
(lp2213
S'k'
asg30
VF
sg16
S'N'
sg14
I6
sg19
Nsg93
I6
sa(dp2214
g17
(lp2215
S'k'
asg18
S'N'
sS'.thisRepN'
p2216
I19
sg20
S'Y'
sg31
g32
sS'.thisTrialN'
p2217
I3
sS'.thisN'
p2218
I288
sS'.thisIndex'
p2219
I13
sg15
(lp2220
S'd'
asg30
VF
sg16
S'N'
sg14
I6
sg19
Nsg93
I13
sa(dp2221
g17
(lp2222
S'k'
asg18
S'Y'
sS'.thisRepN'
p2223
I19
sg20
S'N'
sg31
g32
sS'.thisTrialN'
p2224
I4
sS'.thisN'
p2225
I289
sS'.thisIndex'
p2226
I6
sg15
(lp2227
S'd'
asg30
VF
sg16
S'N'
sg14
I6
sg19
Nsg93
I6
sa(dp2228
g17
(lp2229
S'd'
asg18
S'N'
sS'.thisRepN'
p2230
I19
sg20
S'Y'
sg31
g32
sS'.thisTrialN'
p2231
I5
sS'.thisN'
p2232
I290
sS'.thisIndex'
p2233
I6
sg15
(lp2234
S'k'
asg30
VF
sg16
S'N'
sg14
I6
sg19
Nsg93
I6
sa(dp2235
g17
(lp2236
S'k'
asg18
S'N'
sS'.thisRepN'
p2237
I19
sg20
S'Y'
sg31
g32
sS'.thisTrialN'
p2238
I6
sS'.thisN'
p2239
I291
sS'.thisIndex'
p2240
I11
sg15
(lp2241
S'd'
asg30
VF
sg16
S'N'
sg14
I6
sg19
Nsg93
I11
sa(dp2242
g17
(lp2243
S'd'
asg18
S'Y'
sS'.thisRepN'
p2244
I19
sg20
S'N'
sg31
g32
sS'.thisTrialN'
p2245
I7
sS'.thisN'
p2246
I292
sS'.thisIndex'
p2247
I3
sg15
(lp2248
S'k'
asg30
VF
sg16
S'N'
sg14
I6
sg19
Nsg93
I3
sa(dp2249
g17
(lp2250
S'k'
asg18
S'Y'
sS'.thisRepN'
p2251
I19
sg20
S'N'
sg31
g32
sS'.thisTrialN'
p2252
I8
sS'.thisN'
p2253
I293
sS'.thisIndex'
p2254
I6
sg15
(lp2255
S'k'
asg30
VF
sg16
S'Y'
sg14
I6
sg19
Nsg93
I6
sa(dp2256
g17
(lp2257
S'k'
asg18
S'Y'
sS'.thisRepN'
p2258
I19
sg20
S'N'
sg31
g32
sS'.thisTrialN'
p2259
I9
sS'.thisN'
p2260
I294
sS'.thisIndex'
p2261
I3
sg15
(lp2262
S'k'
asg30
VF
sg16
S'Y'
sg14
I6
sg19
Nsg93
I3
sa(dp2263
g17
(lp2264
S'd'
asg18
S'Y'
sS'.thisRepN'
p2265
I19
sg20
S'N'
sg31
g32
sS'.thisTrialN'
p2266
I10
sS'.thisN'
p2267
I295
sS'.thisIndex'
p2268
I0
sg15
(lp2269
S'k'
asg30
VF
sg16
S'N'
sg14
I6
sg19
Nsg93
I0
sa(dp2270
g17
(lp2271
S'k'
asg18
S'N'
sS'.thisRepN'
p2272
I19
sg20
S'Y'
sg31
g32
sS'.thisTrialN'
p2273
I11
sS'.thisN'
p2274
I296
sS'.thisIndex'
p2275
I11
sg15
(lp2276
S'k'
asg30
VF
sg16
S'Y'
sg14
I6
sg19
Nsg93
I11
sa(dp2277
g17
(lp2278
S'd'
asg18
S'N'
sS'.thisRepN'
p2279
I19
sg20
S'Y'
sg31
g32
sS'.thisTrialN'
p2280
I12
sS'.thisN'
p2281
I297
sS'.thisIndex'
p2282
I7
sg15
(lp2283
S'k'
asg30
VF
sg16
S'N'
sg14
I6
sg19
Nsg93
I7
sa(dp2284
g17
(lp2285
S'd'
asg18
S'N'
sS'.thisRepN'
p2286
I19
sg20
S'N'
sg31
g32
sS'.thisTrialN'
p2287
I13
sS'.thisN'
p2288
I298
sS'.thisIndex'
p2289
I10
sg15
(lp2290
S'k'
asg30
VF
sg16
S'N'
sg14
I6
sg19
(lp2291
S'k'
asg93
I10
sa(dp2292
g17
(lp2293
S'k'
asg18
S'N'
sg22
I22
sS'.thisN'
p2294
I299
sg20
S'N'
sg31
g32
sS'.thisTrialN'
p2295
I14
sS'.thisRepN'
p2296
I19
sg21
I19
sS'.thisIndex'
p2297
I1
sg23
I25
sg15
(lp2298
S'd'
asg30
VF
sg16
S'N'
sg14
I6
sg19
(lp2299
S'space'
p2300
asg93
I1
sa(dp2301
g17
(lp2302
S'd'
asg93
I12
sS'.thisRepN'
p2303
I20
sg30
VF
sg31
g32
sS'.thisTrialN'
p2304
I0
sS'.thisN'
p2305
I300
sS'.thisIndex'
p2306
I12
sg15
(lp2307
S'k'
asg16
S'N'
sg14
I7
sa(dp2308
g17
(lp2309
S'd'
asg93
I13
sS'.thisRepN'
p2310
I20
sg30
VF
sg31
g32
sS'.thisTrialN'
p2311
I1
sS'.thisN'
p2312
I301
sS'.thisIndex'
p2313
I13
sg15
(lp2314
S'k'
asg16
S'N'
sg14
I7
sa(dp2315
g17
(lp2316
S'd'
asg18
S'N'
sS'.thisRepN'
p2317
I20
sg20
S'Y'
sg31
g32
sS'.thisTrialN'
p2318
I2
sS'.thisN'
p2319
I302
sS'.thisIndex'
p2320
I0
sg15
(lp2321
S'k'
asg30
VF
sg16
S'N'
sg14
I7
sg19
Nsg93
I0
sa(dp2322
g17
(lp2323
S'd'
asg18
S'N'
sS'.thisRepN'
p2324
I20
sg20
S'Y'
sg31
g32
sS'.thisTrialN'
p2325
I3
sS'.thisN'
p2326
I303
sS'.thisIndex'
p2327
I9
sg15
(lp2328
S'd'
asg30
VF
sg16
S'Y'
sg14
I7
sg19
Nsg93
I9
sa(dp2329
g17
(lp2330
S'd'
asg18
S'N'
sS'.thisRepN'
p2331
I20
sg20
S'Y'
sg31
g32
sS'.thisTrialN'
p2332
I4
sS'.thisN'
p2333
I304
sS'.thisIndex'
p2334
I10
sg15
(lp2335
S'd'
asg30
VF
sg16
S'Y'
sg14
I7
sg19
Nsg93
I10
sa(dp2336
g17
(lp2337
S'd'
asg18
S'Y'
sS'.thisRepN'
p2338
I20
sg20
S'N'
sg31
g32
sS'.thisTrialN'
p2339
I5
sS'.thisN'
p2340
I305
sS'.thisIndex'
p2341
I4
sg15
(lp2342
S'k'
asg30
VF
sg16
S'N'
sg14
I7
sg19
Nsg93
I4
sa(dp2343
g17
(lp2344
S'k'
asg18
S'N'
sS'.thisRepN'
p2345
I20
sg20
S'Y'
sg31
g32
sS'.thisTrialN'
p2346
I6
sS'.thisN'
p2347
I306
sS'.thisIndex'
p2348
I1
sg15
(lp2349
S'd'
asg30
VF
sg16
S'N'
sg14
I7
sg19
Nsg93
I1
sa(dp2350
g17
(lp2351
S'k'
asg18
S'Y'
sS'.thisRepN'
p2352
I20
sg20
S'N'
sg31
g32
sS'.thisTrialN'
p2353
I7
sS'.thisN'
p2354
I307
sS'.thisIndex'
p2355
I0
sg15
(lp2356
S'k'
asg30
VF
sg16
S'Y'
sg14
I7
sg19
(lp2357
S'k'
asg93
I0
sa(dp2358
g17
(lp2359
S'd'
asg18
S'Y'
sS'.thisRepN'
p2360
I20
sg20
S'N'
sg31
g32
sS'.thisTrialN'
p2361
I8
sS'.thisN'
p2362
I308
sS'.thisIndex'
p2363
I7
sg15
(lp2364
S'k'
asg30
VF
sg16
S'N'
sg14
I7
sg19
(lp2365
S'd'
asg93
I7
sa(dp2366
g17
(lp2367
S'k'
asg18
S'Y'
sS'.thisRepN'
p2368
I20
sg20
S'N'
sg31
g32
sS'.thisTrialN'
p2369
I9
sS'.thisN'
p2370
I309
sS'.thisIndex'
p2371
I2
sg15
(lp2372
S'k'
asg30
VF
sg16
S'Y'
sg14
I7
sg19
(lp2373
S'd'
asg93
I2
sa(dp2374
g17
(lp2375
S'k'
asg18
S'N'
sS'.thisRepN'
p2376
I20
sg20
S'Y'
sg31
g32
sS'.thisTrialN'
p2377
I10
sS'.thisN'
p2378
I310
sS'.thisIndex'
p2379
I12
sg15
(lp2380
S'd'
asg30
VF
sg16
S'N'
sg14
I7
sg19
Nsg93
I12
sa(dp2381
g17
(lp2382
S'k'
asg18
S'N'
sS'.thisRepN'
p2383
I20
sg20
S'Y'
sg31
g32
sS'.thisTrialN'
p2384
I11
sS'.thisN'
p2385
I311
sS'.thisIndex'
p2386
I5
sg15
(lp2387
S'k'
asg30
VF
sg16
S'Y'
sg14
I7
sg19
Nsg93
I5
sa(dp2388
g17
(lp2389
S'd'
asg18
S'Y'
sS'.thisRepN'
p2390
I20
sg20
S'N'
sg31
g32
sS'.thisTrialN'
p2391
I12
sS'.thisN'
p2392
I312
sS'.thisIndex'
p2393
I10
sg15
(lp2394
S'k'
asg30
VF
sg16
S'N'
sg14
I7
sg19
Nsg93
I10
sa(dp2395
g17
(lp2396
S'k'
asg18
S'N'
sS'.thisRepN'
p2397
I20
sg20
S'Y'
sg31
g32
sS'.thisTrialN'
p2398
I13
sS'.thisN'
p2399
I313
sS'.thisIndex'
p2400
I4
sg15
(lp2401
S'd'
asg30
VF
sg16
S'N'
sg14
I7
sg19
Nsg93
I4
sa(dp2402
g17
(lp2403
S'd'
asg18
S'Y'
sS'.thisRepN'
p2404
I20
sg20
S'N'
sg31
g32
sS'.thisTrialN'
p2405
I14
sS'.thisN'
p2406
I314
sS'.thisIndex'
p2407
I10
sg15
(lp2408
S'k'
asg30
VF
sg16
S'N'
sg14
I7
sg19
Nsg93
I10
sa(dp2409
g17
(lp2410
S'k'
asg18
S'Y'
sS'.thisRepN'
p2411
I21
sg20
S'N'
sg31
g32
sS'.thisTrialN'
p2412
I0
sS'.thisN'
p2413
I315
sS'.thisIndex'
p2414
I6
sg15
(lp2415
S'd'
asg30
VF
sg16
S'N'
sg14
I7
sg19
(lp2416
S'd'
asg93
I6
sa(dp2417
g17
(lp2418
S'k'
asg18
S'N'
sS'.thisRepN'
p2419
I21
sg20
S'Y'
sg31
g32
sS'.thisTrialN'
p2420
I1
sS'.thisN'
p2421
I316
sS'.thisIndex'
p2422
I12
sg15
(lp2423
S'k'
asg30
VF
sg16
S'Y'
sg14
I7
sg19
Nsg93
I12
sa(dp2424
g17
(lp2425
S'k'
asg18
S'Y'
sS'.thisRepN'
p2426
I21
sg20
S'N'
sg31
g32
sS'.thisTrialN'
p2427
I2
sS'.thisN'
p2428
I317
sS'.thisIndex'
p2429
I7
sg15
(lp2430
S'd'
asg30
VF
sg16
S'N'
sg14
I7
sg19
Nsg93
I7
sa(dp2431
g17
(lp2432
S'd'
asg18
S'Y'
sS'.thisRepN'
p2433
I21
sg20
S'N'
sg31
g32
sS'.thisTrialN'
p2434
I3
sS'.thisN'
p2435
I318
sS'.thisIndex'
p2436
I10
sg15
(lp2437
S'k'
asg30
VF
sg16
S'N'
sg14
I7
sg19
Nsg93
I10
sa(dp2438
g17
(lp2439
S'k'
asg18
S'N'
sS'.thisRepN'
p2440
I21
sg20
S'Y'
sg31
g32
sS'.thisTrialN'
p2441
I4
sS'.thisN'
p2442
I319
sS'.thisIndex'
p2443
I6
sg15
(lp2444
S'd'
asg30
VF
sg16
S'N'
sg14
I7
sg19
Nsg93
I6
sa(dp2445
g17
(lp2446
S'k'
asg18
S'Y'
sS'.thisRepN'
p2447
I21
sg20
S'N'
sg31
g32
sS'.thisTrialN'
p2448
I5
sS'.thisN'
p2449
I320
sS'.thisIndex'
p2450
I1
sg15
(lp2451
S'k'
asg30
VF
sg16
S'Y'
sg14
I7
sg19
Nsg93
I1
sa(dp2452
g17
(lp2453
S'k'
asg18
S'N'
sS'.thisRepN'
p2454
I21
sg20
S'Y'
sg31
g32
sS'.thisTrialN'
p2455
I6
sS'.thisN'
p2456
I321
sS'.thisIndex'
p2457
I1
sg15
(lp2458
S'd'
asg30
VF
sg16
S'N'
sg14
I7
sg19
Nsg93
I1
sa(dp2459
g17
(lp2460
S'd'
asg18
S'Y'
sS'.thisRepN'
p2461
I21
sg20
S'N'
sg31
g32
sS'.thisTrialN'
p2462
I7
sS'.thisN'
p2463
I322
sS'.thisIndex'
p2464
I2
sg15
(lp2465
S'k'
asg30
VF
sg16
S'N'
sg14
I7
sg19
Nsg93
I2
sa(dp2466
g17
(lp2467
S'k'
asg18
S'N'
sS'.thisRepN'
p2468
I21
sg20
S'N'
sg31
g32
sS'.thisTrialN'
p2469
I8
sS'.thisN'
p2470
I323
sS'.thisIndex'
p2471
I13
sg15
(lp2472
S'd'
asg30
VF
sg16
S'N'
sg14
I7
sg19
(lp2473
S'space'
p2474
asg93
I13
sa(dp2475
g17
(lp2476
S'd'
asg18
S'N'
sS'.thisRepN'
p2477
I21
sg20
S'Y'
sg31
g32
sS'.thisTrialN'
p2478
I9
sS'.thisN'
p2479
I324
sS'.thisIndex'
p2480
I8
sg15
(lp2481
S'k'
asg30
VF
sg16
S'N'
sg14
I7
sg19
Nsg93
I8
sa(dp2482
g17
(lp2483
S'd'
asg18
S'N'
sS'.thisRepN'
p2484
I21
sg20
S'N'
sg31
g32
sS'.thisTrialN'
p2485
I10
sS'.thisN'
p2486
I325
sS'.thisIndex'
p2487
I10
sg15
(lp2488
S'd'
asg30
VF
sg16
S'Y'
sg14
I7
sg19
(lp2489
S'space'
p2490
asg93
I10
sa(dp2491
g17
(lp2492
S'k'
asg18
S'N'
sS'.thisRepN'
p2493
I21
sg20
S'N'
sg31
g32
sS'.thisTrialN'
p2494
I11
sS'.thisN'
p2495
I326
sS'.thisIndex'
p2496
I3
sg15
(lp2497
S'k'
asg30
VF
sg16
S'Y'
sg14
I7
sg19
(lp2498
S'space'
p2499
asg93
I3
sa(dp2500
g17
(lp2501
S'd'
asg18
S'N'
sS'.thisRepN'
p2502
I21
sg20
S'N'
sg31
g32
sS'.thisTrialN'
p2503
I12
sS'.thisN'
p2504
I327
sS'.thisIndex'
p2505
I1
sg15
(lp2506
S'd'
asg30
VF
sg16
S'Y'
sg14
I7
sg19
(lp2507
S'space'
p2508
asg93
I1
sa(dp2509
g17
(lp2510
S'd'
asg18
S'N'
sS'.thisRepN'
p2511
I21
sg20
S'N'
sg31
g32
sS'.thisTrialN'
p2512
I13
sS'.thisN'
p2513
I328
sS'.thisIndex'
p2514
I12
sg15
(lp2515
S'k'
asg30
VF
sg16
S'N'
sg14
I7
sg19
(lp2516
S'space'
p2517
asg93
I12
sa(dp2518
g17
(lp2519
S'd'
asg18
S'Y'
sS'.thisRepN'
p2520
I21
sg20
S'Y'
sg31
g32
sS'.thisTrialN'
p2521
I14
sS'.thisN'
p2522
I329
sS'.thisIndex'
p2523
I10
sg15
(lp2524
S'd'
asg30
VF
sg16
S'Y'
sg14
I7
sg19
(lp2525
S'space'
p2526
asg93
I10
sa(dp2527
g17
(lp2528
S'k'
asg18
S'Y'
sS'.thisRepN'
p2529
I22
sg20
S'Y'
sg31
g32
sS'.thisTrialN'
p2530
I0
sS'.thisN'
p2531
I330
sS'.thisIndex'
p2532
I11
sg15
(lp2533
S'd'
asg30
VF
sg16
S'N'
sg14
I7
sg19
(lp2534
S'space'
p2535
asg93
I11
sa(dp2536
g17
(lp2537
S'k'
asg18
S'Y'
sS'.thisRepN'
p2538
I22
sg20
S'Y'
sg31
g32
sS'.thisTrialN'
p2539
I1
sS'.thisN'
p2540
I331
sS'.thisIndex'
p2541
I14
sg15
(lp2542
S'k'
asg30
VF
sg16
S'Y'
sg14
I7
sg19
(lp2543
S'space'
p2544
asg93
I14
sa(dp2545
g17
(lp2546
S'd'
asg18
S'Y'
sS'.thisRepN'
p2547
I22
sg20
S'Y'
sg31
g32
sS'.thisTrialN'
p2548
I2
sS'.thisN'
p2549
I332
sS'.thisIndex'
p2550
I3
sg15
(lp2551
S'k'
asg30
VF
sg16
S'N'
sg14
I7
sg19
(lp2552
S'space'
p2553
asg93
I3
sa(dp2554
g17
(lp2555
S'd'
asg18
S'N'
sS'.thisRepN'
p2556
I22
sg20
S'N'
sg31
g32
sS'.thisTrialN'
p2557
I3
sS'.thisN'
p2558
I333
sS'.thisIndex'
p2559
I8
sg15
(lp2560
S'd'
asg30
VF
sg16
S'Y'
sg14
I7
sg19
(lp2561
S'space'
p2562
asg93
I8
sa(dp2563
g17
(lp2564
S'd'
asg18
S'Y'
sS'.thisRepN'
p2565
I22
sg20
S'Y'
sg31
g32
sS'.thisTrialN'
p2566
I4
sS'.thisN'
p2567
I334
sS'.thisIndex'
p2568
I11
sg15
(lp2569
S'k'
asg30
VF
sg16
S'N'
sg14
I7
sg19
(lp2570
S'space'
p2571
asg93
I11
sa(dp2572
g17
(lp2573
S'k'
asg18
S'N'
sS'.thisRepN'
p2574
I22
sg20
S'N'
sg31
g32
sS'.thisTrialN'
p2575
I5
sS'.thisN'
p2576
I335
sS'.thisIndex'
p2577
I5
sg15
(lp2578
S'd'
asg30
VF
sg16
S'N'
sg14
I7
sg19
(lp2579
S'space'
p2580
asg93
I5
sa(dp2581
g17
(lp2582
S'd'
asg18
S'Y'
sS'.thisRepN'
p2583
I22
sg20
S'Y'
sg31
g32
sS'.thisTrialN'
p2584
I6
sS'.thisN'
p2585
I336
sS'.thisIndex'
p2586
I10
sg15
(lp2587
S'k'
asg30
VF
sg16
S'N'
sg14
I7
sg19
(lp2588
S'space'
p2589
asg93
I10
sa(dp2590
g17
(lp2591
S'd'
asg18
S'Y'
sS'.thisRepN'
p2592
I22
sg20
S'Y'
sg31
g32
sS'.thisTrialN'
p2593
I7
sS'.thisN'
p2594
I337
sS'.thisIndex'
p2595
I14
sg15
(lp2596
S'd'
asg30
VF
sg16
S'Y'
sg14
I7
sg19
(lp2597
S'space'
p2598
asg93
I14
sa(dp2599
g17
(lp2600
S'k'
asg18
S'Y'
sS'.thisRepN'
p2601
I22
sg20
S'Y'
sg31
g32
sS'.thisTrialN'
p2602
I8
sS'.thisN'
p2603
I338
sS'.thisIndex'
p2604
I6
sg15
(lp2605
S'k'
asg30
VF
sg16
S'Y'
sg14
I7
sg19
(lp2606
S'space'
p2607
asg93
I6
sa(dp2608
g17
(lp2609
S'k'
asg18
S'N'
sS'.thisRepN'
p2610
I22
sg20
S'N'
sg31
g32
sS'.thisTrialN'
p2611
I9
sS'.thisN'
p2612
I339
sS'.thisIndex'
p2613
I0
sg15
(lp2614
S'k'
asg30
VF
sg16
S'Y'
sg14
I7
sg19
(lp2615
S'space'
p2616
asg93
I0
sa(dp2617
g17
(lp2618
S'd'
asg18
S'Y'
sS'.thisRepN'
p2619
I22
sg20
S'Y'
sg31
g32
sS'.thisTrialN'
p2620
I10
sS'.thisN'
p2621
I340
sS'.thisIndex'
p2622
I5
sg15
(lp2623
S'd'
asg30
VF
sg16
S'Y'
sg14
I7
sg19
(lp2624
S'space'
p2625
asg93
I5
sa(dp2626
g17
(lp2627
S'k'
asg18
S'N'
sS'.thisRepN'
p2628
I22
sg20
S'N'
sg31
g32
sS'.thisTrialN'
p2629
I11
sS'.thisN'
p2630
I341
sS'.thisIndex'
p2631
I10
sg15
(lp2632
S'k'
asg30
VF
sg16
S'Y'
sg14
I7
sg19
(lp2633
S'space'
p2634
asg93
I10
sa(dp2635
g17
(lp2636
S'k'
asg18
S'N'
sS'.thisRepN'
p2637
I22
sg20
S'N'
sg31
g32
sS'.thisTrialN'
p2638
I12
sS'.thisN'
p2639
I342
sS'.thisIndex'
p2640
I7
sg15
(lp2641
S'd'
asg30
VF
sg16
S'N'
sg14
I7
sg19
(lp2642
S'space'
p2643
asg93
I7
sa(dp2644
g17
(lp2645
S'd'
asg18
S'N'
sS'.thisRepN'
p2646
I22
sg20
S'N'
sg31
g32
sS'.thisTrialN'
p2647
I13
sS'.thisN'
p2648
I343
sS'.thisIndex'
p2649
I8
sg15
(lp2650
S'd'
asg30
VF
sg16
S'Y'
sg14
I7
sg19
(lp2651
S'space'
p2652
asg93
I8
sa(dp2653
g17
(lp2654
S'd'
asg18
S'N'
sS'.thisRepN'
p2655
I22
sg20
S'N'
sg31
g32
sS'.thisTrialN'
p2656
I14
sS'.thisN'
p2657
I344
sS'.thisIndex'
p2658
I5
sg15
(lp2659
S'k'
asg30
VF
sg16
S'N'
sg14
I7
sg19
(lp2660
S'space'
p2661
asg93
I5
sa(dp2662
g17
(lp2663
S'd'
asg18
S'N'
sS'.thisRepN'
p2664
I23
sg20
S'N'
sg31
g32
sS'.thisTrialN'
p2665
I0
sS'.thisN'
p2666
I345
sS'.thisIndex'
p2667
I11
sg15
(lp2668
S'd'
asg30
VF
sg16
S'Y'
sg14
I7
sg19
(lp2669
S'space'
p2670
asg93
I11
sa(dp2671
g17
(lp2672
S'd'
asg18
S'N'
sS'.thisRepN'
p2673
I23
sg20
S'N'
sg31
g32
sS'.thisTrialN'
p2674
I1
sS'.thisN'
p2675
I346
sS'.thisIndex'
p2676
I1
sg15
(lp2677
S'k'
asg30
VF
sg16
S'N'
sg14
I7
sg19
(lp2678
S'space'
p2679
asg93
I1
sa(dp2680
g17
(lp2681
S'd'
asg18
S'Y'
sS'.thisRepN'
p2682
I23
sg20
S'Y'
sg31
g32
sS'.thisTrialN'
p2683
I2
sS'.thisN'
p2684
I347
sS'.thisIndex'
p2685
I8
sg15
(lp2686
S'd'
asg30
VF
sg16
S'Y'
sg14
I7
sg19
(lp2687
S'space'
p2688
asg93
I8
sa(dp2689
g17
(lp2690
S'k'
asg18
S'Y'
sS'.thisRepN'
p2691
I23
sg20
S'Y'
sg31
g32
sS'.thisTrialN'
p2692
I3
sS'.thisN'
p2693
I348
sS'.thisIndex'
p2694
I9
sg15
(lp2695
S'k'
asg30
VF
sg16
S'Y'
sg14
I7
sg19
(lp2696
S'space'
p2697
asg93
I9
sa(dp2698
g17
(lp2699
S'k'
asg18
S'N'
sg22
I22
sS'.thisN'
p2700
I349
sg20
S'N'
sg31
g32
sS'.thisTrialN'
p2701
I4
sS'.thisRepN'
p2702
I23
sg21
I22
sS'.thisIndex'
p2703
I7
sg23
I22
sg15
(lp2704
S'd'
asg30
VF
sg16
S'N'
sg14
I7
sg19
(lp2705
S'space'
p2706
asg93
I7
sa(dp2707
g17
(lp2708
S'd'
asg93
I8
sS'.thisRepN'
p2709
I23
sg30
VF
sg31
g32
sS'.thisTrialN'
p2710
I5
sS'.thisN'
p2711
I350
sS'.thisIndex'
p2712
I8
sg15
(lp2713
S'k'
asg16
S'N'
sg14
I8
sa(dp2714
g17
(lp2715
S'k'
asg93
I2
sS'.thisRepN'
p2716
I23
sg30
VF
sg31
g32
sS'.thisTrialN'
p2717
I6
sS'.thisN'
p2718
I351
sS'.thisIndex'
p2719
I2
sg15
(lp2720
S'k'
asg16
S'Y'
sg14
I8
sa(dp2721
g17
(lp2722
S'k'
asg18
S'N'
sS'.thisRepN'
p2723
I23
sg20
S'Y'
sg31
g32
sS'.thisTrialN'
p2724
I7
sS'.thisN'
p2725
I352
sS'.thisIndex'
p2726
I5
sg15
(lp2727
S'd'
asg30
VF
sg16
S'N'
sg14
I8
sg19
Nsg93
I5
sa(dp2728
g17
(lp2729
S'k'
asg18
S'N'
sS'.thisRepN'
p2730
I23
sg20
S'Y'
sg31
g32
sS'.thisTrialN'
p2731
I8
sS'.thisN'
p2732
I353
sS'.thisIndex'
p2733
I12
sg15
(lp2734
S'd'
asg30
VF
sg16
S'N'
sg14
I8
sg19
Nsg93
I12
sa(dp2735
g17
(lp2736
S'k'
asg18
S'N'
sS'.thisRepN'
p2737
I23
sg20
S'Y'
sg31
g32
sS'.thisTrialN'
p2738
I9
sS'.thisN'
p2739
I354
sS'.thisIndex'
p2740
I5
sg15
(lp2741
S'k'
asg30
VF
sg16
S'Y'
sg14
I8
sg19
Nsg93
I5
sa(dp2742
g17
(lp2743
S'k'
asg18
S'Y'
sS'.thisRepN'
p2744
I23
sg20
S'Y'
sg31
g32
sS'.thisTrialN'
p2745
I10
sS'.thisN'
p2746
I355
sS'.thisIndex'
p2747
I5
sg15
(lp2748
S'k'
asg30
VF
sg16
S'Y'
sg14
I8
sg19
(lp2749
S'space'
p2750
asg93
I5
sa(dp2751
g17
(lp2752
S'd'
asg18
S'Y'
sS'.thisRepN'
p2753
I23
sg20
S'Y'
sg31
g32
sS'.thisTrialN'
p2754
I11
sS'.thisN'
p2755
I356
sS'.thisIndex'
p2756
I12
sg15
(lp2757
S'k'
asg30
VF
sg16
S'N'
sg14
I8
sg19
(lp2758
S'space'
p2759
asg93
I12
sa(dp2760
g17
(lp2761
S'k'
asg18
S'N'
sS'.thisRepN'
p2762
I23
sg20
S'Y'
sg31
g32
sS'.thisTrialN'
p2763
I12
sS'.thisN'
p2764
I357
sS'.thisIndex'
p2765
I10
sg15
(lp2766
S'd'
asg30
VF
sg16
S'N'
sg14
I8
sg19
Nsg93
I10
sa(dp2767
g17
(lp2768
S'd'
asg18
S'N'
sS'.thisRepN'
p2769
I23
sg20
S'N'
sg31
g32
sS'.thisTrialN'
p2770
I13
sS'.thisN'
p2771
I358
sS'.thisIndex'
p2772
I9
sg15
(lp2773
S'd'
asg30
VF
sg16
S'Y'
sg14
I8
sg19
(lp2774
S'k'
asg93
I9
sa(dp2775
g17
(lp2776
S'k'
asg18
S'Y'
sS'.thisRepN'
p2777
I23
sg20
S'N'
sg31
g32
sS'.thisTrialN'
p2778
I14
sS'.thisN'
p2779
I359
sS'.thisIndex'
p2780
I6
sg15
(lp2781
S'k'
asg30
VF
sg16
S'Y'
sg14
I8
sg19
Nsg93
I6
sa(dp2782
g17
(lp2783
S'k'
asg18
S'N'
sS'.thisRepN'
p2784
I24
sg20
S'N'
sg31
g32
sS'.thisTrialN'
p2785
I0
sS'.thisN'
p2786
I360
sS'.thisIndex'
p2787
I4
sg15
(lp2788
S'd'
asg30
VF
sg16
S'N'
sg14
I8
sg19
(lp2789
S'space'
p2790
asg93
I4
sa(dp2791
g17
(lp2792
S'k'
asg18
S'N'
sS'.thisRepN'
p2793
I24
sg20
S'N'
sg31
g32
sS'.thisTrialN'
p2794
I1
sS'.thisN'
p2795
I361
sS'.thisIndex'
p2796
I4
sg15
(lp2797
S'k'
asg30
VF
sg16
S'Y'
sg14
I8
sg19
(lp2798
S'space'
p2799
asg93
I4
sa(dp2800
g17
(lp2801
S'd'
asg18
S'Y'
sS'.thisRepN'
p2802
I24
sg20
S'Y'
sg31
g32
sS'.thisTrialN'
p2803
I2
sS'.thisN'
p2804
I362
sS'.thisIndex'
p2805
I13
sg15
(lp2806
S'd'
asg30
VF
sg16
S'Y'
sg14
I8
sg19
(lp2807
S'space'
p2808
asg93
I13
sa(dp2809
g17
(lp2810
S'd'
asg18
S'N'
sS'.thisRepN'
p2811
I24
sg20
S'N'
sg31
g32
sS'.thisTrialN'
p2812
I3
sS'.thisN'
p2813
I363
sS'.thisIndex'
p2814
I9
sg15
(lp2815
S'k'
asg30
VF
sg16
S'N'
sg14
I8
sg19
(lp2816
S'k'
asg93
I9
sa(dp2817
g17
(lp2818
S'k'
asg18
S'Y'
sS'.thisRepN'
p2819
I24
sg20
S'Y'
sg31
g32
sS'.thisTrialN'
p2820
I4
sS'.thisN'
p2821
I364
sS'.thisIndex'
p2822
I9
sg15
(lp2823
S'd'
asg30
VF
sg16
S'N'
sg14
I8
sg19
(lp2824
S'space'
p2825
asg93
I9
sa(dp2826
g17
(lp2827
S'k'
asg18
S'N'
sS'.thisRepN'
p2828
I24
sg20
S'N'
sg31
g32
sS'.thisTrialN'
p2829
I5
sS'.thisN'
p2830
I365
sS'.thisIndex'
p2831
I10
sg15
(lp2832
S'k'
asg30
VF
sg16
S'Y'
sg14
I8
sg19
(lp2833
S'd'
asg93
I10
sa(dp2834
g17
(lp2835
S'd'
asg18
S'Y'
sS'.thisRepN'
p2836
I24
sg20
S'Y'
sg31
g32
sS'.thisTrialN'
p2837
I6
sS'.thisN'
p2838
I366
sS'.thisIndex'
p2839
I14
sg15
(lp2840
S'd'
asg30
VF
sg16
S'Y'
sg14
I8
sg19
(lp2841
S'space'
p2842
asg93
I14
sa(dp2843
g17
(lp2844
S'd'
asg18
S'N'
sS'.thisRepN'
p2845
I24
sg20
S'Y'
sg31
g32
sS'.thisTrialN'
p2846
I7
sS'.thisN'
p2847
I367
sS'.thisIndex'
p2848
I0
sg15
(lp2849
S'k'
asg30
VF
sg16
S'N'
sg14
I8
sg19
Nsg93
I0
sa(dp2850
g17
(lp2851
S'k'
asg18
S'N'
sS'.thisRepN'
p2852
I24
sg20
S'N'
sg31
g32
sS'.thisTrialN'
p2853
I8
sS'.thisN'
p2854
I368
sS'.thisIndex'
p2855
I14
sg15
(lp2856
S'd'
asg30
VF
sg16
S'N'
sg14
I8
sg19
(lp2857
S'space'
p2858
asg93
I14
sa(dp2859
g17
(lp2860
S'd'
asg18
S'Y'
sS'.thisRepN'
p2861
I24
sg20
S'Y'
sg31
g32
sS'.thisTrialN'
p2862
I9
sS'.thisN'
p2863
I369
sS'.thisIndex'
p2864
I6
sg15
(lp2865
S'k'
asg30
VF
sg16
S'N'
sg14
I8
sg19
(lp2866
S'space'
p2867
asg93
I6
sa(dp2868
g17
(lp2869
S'd'
asg18
S'N'
sS'.thisRepN'
p2870
I24
sg20
S'N'
sg31
g32
sS'.thisTrialN'
p2871
I10
sS'.thisN'
p2872
I370
sS'.thisIndex'
p2873
I2
sg15
(lp2874
S'd'
asg30
VF
sg16
S'Y'
sg14
I8
sg19
(lp2875
S'space'
p2876
asg93
I2
sa(dp2877
g17
(lp2878
S'd'
asg18
S'N'
sS'.thisRepN'
p2879
I24
sg20
S'N'
sg31
g32
sS'.thisTrialN'
p2880
I11
sS'.thisN'
p2881
I371
sS'.thisIndex'
p2882
I0
sg15
(lp2883
S'k'
asg30
VF
sg16
S'N'
sg14
I8
sg19
(lp2884
S'k'
asg93
I0
sa(dp2885
g17
(lp2886
S'k'
asg18
S'Y'
sS'.thisRepN'
p2887
I24
sg20
S'Y'
sg31
g32
sS'.thisTrialN'
p2888
I12
sS'.thisN'
p2889
I372
sS'.thisIndex'
p2890
I2
sg15
(lp2891
S'd'
asg30
VF
sg16
S'N'
sg14
I8
sg19
(lp2892
S'space'
p2893
asg93
I2
sa(dp2894
g17
(lp2895
S'd'
asg18
S'Y'
sS'.thisRepN'
p2896
I24
sg20
S'N'
sg31
g32
sS'.thisTrialN'
p2897
I13
sS'.thisN'
p2898
I373
sS'.thisIndex'
p2899
I12
sg15
(lp2900
S'd'
asg30
VF
sg16
S'Y'
sg14
I8
sg19
(lp2901
S'k'
asg93
I12
sa(dp2902
g17
(lp2903
S'd'
asg18
S'Y'
sS'.thisRepN'
p2904
I24
sg20
S'N'
sg31
g32
sS'.thisTrialN'
p2905
I14
sS'.thisN'
p2906
I374
sS'.thisIndex'
p2907
I6
sg15
(lp2908
S'd'
asg30
VF
sg16
S'Y'
sg14
I8
sg19
(lp2909
S'k'
asg93
I6
sa(dp2910
g17
(lp2911
S'k'
asg18
S'Y'
sS'.thisRepN'
p2912
I25
sg20
S'N'
sg31
g32
sS'.thisTrialN'
p2913
I0
sS'.thisN'
p2914
I375
sS'.thisIndex'
p2915
I5
sg15
(lp2916
S'd'
asg30
VF
sg16
S'N'
sg14
I8
sg19
(lp2917
S'k'
asg93
I5
sa(dp2918
g17
(lp2919
S'd'
asg18
S'Y'
sS'.thisRepN'
p2920
I25
sg20
S'Y'
sg31
g32
sS'.thisTrialN'
p2921
I1
sS'.thisN'
p2922
I376
sS'.thisIndex'
p2923
I0
sg15
(lp2924
S'k'
asg30
VF
sg16
S'N'
sg14
I8
sg19
(lp2925
S'space'
p2926
asg93
I0
sa(dp2927
g17
(lp2928
S'k'
asg18
S'N'
sS'.thisRepN'
p2929
I25
sg20
S'N'
sg31
g32
sS'.thisTrialN'
p2930
I2
sS'.thisN'
p2931
I377
sS'.thisIndex'
p2932
I13
sg15
(lp2933
S'd'
asg30
VF
sg16
S'N'
sg14
I8
sg19
(lp2934
S'k'
asg93
I13
sa(dp2935
g17
(lp2936
S'd'
asg18
S'Y'
sS'.thisRepN'
p2937
I25
sg20
S'Y'
sg31
g32
sS'.thisTrialN'
p2938
I3
sS'.thisN'
p2939
I378
sS'.thisIndex'
p2940
I5
sg15
(lp2941
S'k'
asg30
VF
sg16
S'N'
sg14
I8
sg19
(lp2942
S'space'
p2943
asg93
I5
sa(dp2944
g17
(lp2945
S'k'
asg18
S'Y'
sS'.thisRepN'
p2946
I25
sg20
S'N'
sg31
g32
sS'.thisTrialN'
p2947
I4
sS'.thisN'
p2948
I379
sS'.thisIndex'
p2949
I2
sg15
(lp2950
S'd'
asg30
VF
sg16
S'N'
sg14
I8
sg19
(lp2951
S'd'
asg93
I2
sa(dp2952
g17
(lp2953
S'k'
asg18
S'Y'
sS'.thisRepN'
p2954
I25
sg20
S'N'
sg31
g32
sS'.thisTrialN'
p2955
I5
sS'.thisN'
p2956
I380
sS'.thisIndex'
p2957
I0
sg15
(lp2958
S'k'
asg30
VF
sg16
S'Y'
sg14
I8
sg19
(lp2959
S'k'
asg93
I0
sa(dp2960
g17
(lp2961
S'd'
asg18
S'N'
sS'.thisRepN'
p2962
I25
sg20
S'N'
sg31
g32
sS'.thisTrialN'
p2963
I6
sS'.thisN'
p2964
I381
sS'.thisIndex'
p2965
I5
sg15
(lp2966
S'd'
asg30
VF
sg16
S'Y'
sg14
I8
sg19
(lp2967
S'space'
p2968
asg93
I5
sa(dp2969
g17
(lp2970
S'd'
asg18
S'N'
sS'.thisRepN'
p2971
I25
sg20
S'Y'
sg31
g32
sS'.thisTrialN'
p2972
I7
sS'.thisN'
p2973
I382
sS'.thisIndex'
p2974
I4
sg15
(lp2975
S'k'
asg30
VF
sg16
S'N'
sg14
I8
sg19
Nsg93
I4
sa(dp2976
g17
(lp2977
S'd'
asg18
S'N'
sS'.thisRepN'
p2978
I25
sg20
S'N'
sg31
g32
sS'.thisTrialN'
p2979
I8
sS'.thisN'
p2980
I383
sS'.thisIndex'
p2981
I1
sg15
(lp2982
S'k'
asg30
VF
sg16
S'N'
sg14
I8
sg19
(lp2983
S'space'
p2984
asg93
I1
sa(dp2985
g17
(lp2986
S'k'
asg18
S'Y'
sS'.thisRepN'
p2987
I25
sg20
S'N'
sg31
g32
sS'.thisTrialN'
p2988
I9
sS'.thisN'
p2989
I384
sS'.thisIndex'
p2990
I11
sg15
(lp2991
S'd'
asg30
VF
sg16
S'N'
sg14
I8
sg19
Nsg93
I11
sa(dp2992
g17
(lp2993
S'd'
asg18
S'N'
sS'.thisRepN'
p2994
I25
sg20
S'N'
sg31
g32
sS'.thisTrialN'
p2995
I10
sS'.thisN'
p2996
I385
sS'.thisIndex'
p2997
I7
sg15
(lp2998
S'k'
asg30
VF
sg16
S'N'
sg14
I8
sg19
(lp2999
S'space'
p3000
asg93
I7
sa(dp3001
g17
(lp3002
S'k'
asg18
S'Y'
sS'.thisRepN'
p3003
I25
sg20
S'N'
sg31
g32
sS'.thisTrialN'
p3004
I11
sS'.thisN'
p3005
I386
sS'.thisIndex'
p3006
I8
sg15
(lp3007
S'd'
asg30
VF
sg16
S'N'
sg14
I8
sg19
(lp3008
S'd'
asg93
I8
sa(dp3009
g17
(lp3010
S'k'
asg18
S'N'
sS'.thisRepN'
p3011
I25
sg20
S'Y'
sg31
g32
sS'.thisTrialN'
p3012
I12
sS'.thisN'
p3013
I387
sS'.thisIndex'
p3014
I3
sg15
(lp3015
S'k'
asg30
VF
sg16
S'Y'
sg14
I8
sg19
Nsg93
I3
sa(dp3016
g17
(lp3017
S'k'
asg18
S'Y'
sS'.thisRepN'
p3018
I25
sg20
S'Y'
sg31
g32
sS'.thisTrialN'
p3019
I13
sS'.thisN'
p3020
I388
sS'.thisIndex'
p3021
I0
sg15
(lp3022
S'k'
asg30
VF
sg16
S'Y'
sg14
I8
sg19
(lp3023
S'space'
p3024
asg93
I0
sa(dp3025
g17
(lp3026
S'd'
asg18
S'N'
sS'.thisRepN'
p3027
I25
sg20
S'Y'
sg31
g32
sS'.thisTrialN'
p3028
I14
sS'.thisN'
p3029
I389
sS'.thisIndex'
p3030
I8
sg15
(lp3031
S'k'
asg30
VF
sg16
S'N'
sg14
I8
sg19
Nsg93
I8
sa(dp3032
g17
(lp3033
S'k'
asg18
S'Y'
sS'.thisRepN'
p3034
I26
sg20
S'N'
sg31
g32
sS'.thisTrialN'
p3035
I0
sS'.thisN'
p3036
I390
sS'.thisIndex'
p3037
I3
sg15
(lp3038
S'k'
asg30
VF
sg16
S'Y'
sg14
I8
sg19
(lp3039
S'd'
asg93
I3
sa(dp3040
g17
(lp3041
S'k'
asg18
S'N'
sS'.thisRepN'
p3042
I26
sg20
S'N'
sg31
g32
sS'.thisTrialN'
p3043
I1
sS'.thisN'
p3044
I391
sS'.thisIndex'
p3045
I1
sg15
(lp3046
S'd'
asg30
VF
sg16
S'N'
sg14
I8
sg19
(lp3047
S'd'
asg93
I1
sa(dp3048
g17
(lp3049
S'k'
asg18
S'Y'
sS'.thisRepN'
p3050
I26
sg20
S'N'
sg31
g32
sS'.thisTrialN'
p3051
I2
sS'.thisN'
p3052
I392
sS'.thisIndex'
p3053
I7
sg15
(lp3054
S'k'
asg30
VF
sg16
S'Y'
sg14
I8
sg19
(lp3055
S'k'
asg93
I7
sa(dp3056
g17
(lp3057
S'k'
asg18
S'N'
sS'.thisRepN'
p3058
I26
sg20
S'N'
sg31
g32
sS'.thisTrialN'
p3059
I3
sS'.thisN'
p3060
I393
sS'.thisIndex'
p3061
I9
sg15
(lp3062
S'k'
asg30
VF
sg16
S'Y'
sg14
I8
sg19
(lp3063
S'd'
asg93
I9
sa(dp3064
g17
(lp3065
S'k'
asg18
S'Y'
sS'.thisRepN'
p3066
I26
sg20
S'Y'
sg31
g32
sS'.thisTrialN'
p3067
I4
sS'.thisN'
p3068
I394
sS'.thisIndex'
p3069
I2
sg15
(lp3070
S'k'
asg30
VF
sg16
S'Y'
sg14
I8
sg19
(lp3071
S'space'
p3072
asg93
I2
sa(dp3073
g17
(lp3074
S'k'
asg18
S'N'
sS'.thisRepN'
p3075
I26
sg20
S'N'
sg31
g32
sS'.thisTrialN'
p3076
I5
sS'.thisN'
p3077
I395
sS'.thisIndex'
p3078
I13
sg15
(lp3079
S'k'
asg30
VF
sg16
S'Y'
sg14
I8
sg19
(lp3080
S'space'
p3081
asg93
I13
sa(dp3082
g17
(lp3083
S'd'
asg18
S'N'
sS'.thisRepN'
p3084
I26
sg20
S'N'
sg31
g32
sS'.thisTrialN'
p3085
I6
sS'.thisN'
p3086
I396
sS'.thisIndex'
p3087
I5
sg15
(lp3088
S'd'
asg30
VF
sg16
S'Y'
sg14
I8
sg19
(lp3089
S'space'
p3090
asg93
I5
sa(dp3091
g17
(lp3092
S'k'
asg18
S'N'
sS'.thisRepN'
p3093
I26
sg20
S'N'
sg31
g32
sS'.thisTrialN'
p3094
I7
sS'.thisN'
p3095
I397
sS'.thisIndex'
p3096
I14
sg15
(lp3097
S'k'
asg30
VF
sg16
S'Y'
sg14
I8
sg19
(lp3098
S'space'
p3099
asg93
I14
sa(dp3100
g17
(lp3101
S'd'
asg18
S'N'
sS'.thisRepN'
p3102
I26
sg20
S'Y'
sg31
g32
sS'.thisTrialN'
p3103
I8
sS'.thisN'
p3104
I398
sS'.thisIndex'
p3105
I6
sg15
(lp3106
S'k'
asg30
VF
sg16
S'N'
sg14
I8
sg19
Nsg93
I6
sa(dp3107
g17
(lp3108
S'd'
asg18
S'Y'
sg22
I20
sS'.thisN'
p3109
I399
sg20
S'N'
sg31
g32
sS'.thisTrialN'
p3110
I9
sS'.thisRepN'
p3111
I26
sg21
I23
sS'.thisIndex'
p3112
I13
sg23
I22
sg15
(lp3113
S'k'
asg30
VF
sg16
S'N'
sg14
I8
sg19
Nsg93
I13
sa(dp3114
g17
(lp3115
S'd'
asg93
I3
sS'.thisRepN'
p3116
I26
sg30
VF
sg31
g32
sS'.thisTrialN'
p3117
I10
sS'.thisN'
p3118
I400
sS'.thisIndex'
p3119
I3
sg15
(lp3120
S'd'
asg16
S'Y'
sg14
I9
sa(dp3121
g17
(lp3122
S'k'
asg93
I5
sS'.thisRepN'
p3123
I26
sg30
VF
sg31
g32
sS'.thisTrialN'
p3124
I11
sS'.thisN'
p3125
I401
sS'.thisIndex'
p3126
I5
sg15
(lp3127
S'k'
asg16
S'Y'
sg14
I9
sa(dp3128
g17
(lp3129
S'k'
asg18
S'N'
sS'.thisRepN'
p3130
I26
sg20
S'Y'
sg31
g32
sS'.thisTrialN'
p3131
I12
sS'.thisN'
p3132
I402
sS'.thisIndex'
p3133
I8
sg15
(lp3134
S'k'
asg30
VF
sg16
S'Y'
sg14
I9
sg19
Nsg93
I8
sa(dp3135
g17
(lp3136
S'k'
asg18
S'Y'
sS'.thisRepN'
p3137
I26
sg20
S'Y'
sg31
g32
sS'.thisTrialN'
p3138
I13
sS'.thisN'
p3139
I403
sS'.thisIndex'
p3140
I3
sg15
(lp3141
S'd'
asg30
VF
sg16
S'N'
sg14
I9
sg19
(lp3142
S'space'
p3143
asg93
I3
sa(dp3144
g17
(lp3145
S'k'
asg18
S'N'
sS'.thisRepN'
p3146
I26
sg20
S'Y'
sg31
g32
sS'.thisTrialN'
p3147
I14
sS'.thisN'
p3148
I404
sS'.thisIndex'
p3149
I8
sg15
(lp3150
S'k'
asg30
VF
sg16
S'Y'
sg14
I9
sg19
Nsg93
I8
sa(dp3151
g17
(lp3152
S'd'
asg18
S'N'
sS'.thisRepN'
p3153
I27
sg20
S'Y'
sg31
g32
sS'.thisTrialN'
p3154
I0
sS'.thisN'
p3155
I405
sS'.thisIndex'
p3156
I11
sg15
(lp3157
S'k'
asg30
VF
sg16
S'N'
sg14
I9
sg19
Nsg93
I11
sa(dp3158
g17
(lp3159
S'k'
asg18
S'N'
sS'.thisRepN'
p3160
I27
sg20
S'Y'
sg31
g32
sS'.thisTrialN'
p3161
I1
sS'.thisN'
p3162
I406
sS'.thisIndex'
p3163
I14
sg15
(lp3164
S'k'
asg30
VF
sg16
S'Y'
sg14
I9
sg19
Nsg93
I14
sa(dp3165
g17
(lp3166
S'd'
asg18
S'Y'
sS'.thisRepN'
p3167
I27
sg20
S'N'
sg31
g32
sS'.thisTrialN'
p3168
I2
sS'.thisN'
p3169
I407
sS'.thisIndex'
p3170
I9
sg15
(lp3171
S'd'
asg30
VF
sg16
S'Y'
sg14
I9
sg19
Nsg93
I9
sa(dp3172
g17
(lp3173
S'k'
asg18
S'Y'
sS'.thisRepN'
p3174
I27
sg20
S'N'
sg31
g32
sS'.thisTrialN'
p3175
I3
sS'.thisN'
p3176
I408
sS'.thisIndex'
p3177
I0
sg15
(lp3178
S'k'
asg30
VF
sg16
S'Y'
sg14
I9
sg19
Nsg93
I0
sa(dp3179
g17
(lp3180
S'd'
asg18
S'Y'
sS'.thisRepN'
p3181
I27
sg20
S'N'
sg31
g32
sS'.thisTrialN'
p3182
I4
sS'.thisN'
p3183
I409
sS'.thisIndex'
p3184
I11
sg15
(lp3185
S'd'
asg30
VF
sg16
S'Y'
sg14
I9
sg19
Nsg93
I11
sa(dp3186
g17
(lp3187
S'd'
asg18
S'N'
sS'.thisRepN'
p3188
I27
sg20
S'N'
sg31
g32
sS'.thisTrialN'
p3189
I5
sS'.thisN'
p3190
I410
sS'.thisIndex'
p3191
I7
sg15
(lp3192
S'k'
asg30
VF
sg16
S'N'
sg14
I9
sg19
(lp3193
S'k'
asg93
I7
sa(dp3194
g17
(lp3195
S'k'
asg18
S'Y'
sS'.thisRepN'
p3196
I27
sg20
S'N'
sg31
g32
sS'.thisTrialN'
p3197
I6
sS'.thisN'
p3198
I411
sS'.thisIndex'
p3199
I9
sg15
(lp3200
S'k'
asg30
VF
sg16
S'Y'
sg14
I9
sg19
(lp3201
S'd'
asg93
I9
sa(dp3202
g17
(lp3203
S'd'
asg18
S'Y'
sS'.thisRepN'
p3204
I27
sg20
S'N'
sg31
g32
sS'.thisTrialN'
p3205
I7
sS'.thisN'
p3206
I412
sS'.thisIndex'
p3207
I3
sg15
(lp3208
S'd'
asg30
VF
sg16
S'Y'
sg14
I9
sg19
Nsg93
I3
sa(dp3209
g17
(lp3210
S'k'
asg18
S'Y'
sS'.thisRepN'
p3211
I27
sg20
S'Y'
sg31
g32
sS'.thisTrialN'
p3212
I8
sS'.thisN'
p3213
I413
sS'.thisIndex'
p3214
I1
sg15
(lp3215
S'd'
asg30
VF
sg16
S'N'
sg14
I9
sg19
(lp3216
S'space'
p3217
asg93
I1
sa(dp3218
g17
(lp3219
S'k'
asg18
S'Y'
sS'.thisRepN'
p3220
I27
sg20
S'N'
sg31
g32
sS'.thisTrialN'
p3221
I9
sS'.thisN'
p3222
I414
sS'.thisIndex'
p3223
I12
sg15
(lp3224
S'k'
asg30
VF
sg16
S'Y'
sg14
I9
sg19
Nsg93
I12
sa(dp3225
g17
(lp3226
S'd'
asg18
S'Y'
sS'.thisRepN'
p3227
I27
sg20
S'N'
sg31
g32
sS'.thisTrialN'
p3228
I10
sS'.thisN'
p3229
I415
sS'.thisIndex'
p3230
I4
sg15
(lp3231
S'd'
asg30
VF
sg16
S'Y'
sg14
I9
sg19
Nsg93
I4
sa(dp3232
g17
(lp3233
S'k'
asg18
S'N'
sS'.thisRepN'
p3234
I27
sg20
S'Y'
sg31
g32
sS'.thisTrialN'
p3235
I11
sS'.thisN'
p3236
I416
sS'.thisIndex'
p3237
I13
sg15
(lp3238
S'd'
asg30
VF
sg16
S'N'
sg14
I9
sg19
Nsg93
I13
sa(dp3239
g17
(lp3240
S'k'
asg18
S'Y'
sS'.thisRepN'
p3241
I27
sg20
S'N'
sg31
g32
sS'.thisTrialN'
p3242
I12
sS'.thisN'
p3243
I417
sS'.thisIndex'
p3244
I14
sg15
(lp3245
S'k'
asg30
VF
sg16
S'Y'
sg14
I9
sg19
Nsg93
I14
sa(dp3246
g17
(lp3247
S'k'
asg18
S'Y'
sS'.thisRepN'
p3248
I27
sg20
S'N'
sg31
g32
sS'.thisTrialN'
p3249
I13
sS'.thisN'
p3250
I418
sS'.thisIndex'
p3251
I11
sg15
(lp3252
S'd'
asg30
VF
sg16
S'N'
sg14
I9
sg19
(lp3253
S'd'
asg93
I11
sa(dp3254
g17
(lp3255
S'd'
asg18
S'Y'
sS'.thisRepN'
p3256
I27
sg20
S'Y'
sg31
g32
sS'.thisTrialN'
p3257
I14
sS'.thisN'
p3258
I419
sS'.thisIndex'
p3259
I5
sg15
(lp3260
S'k'
asg30
VF
sg16
S'N'
sg14
I9
sg19
(lp3261
S'space'
p3262
asg93
I5
sa(dp3263
g17
(lp3264
S'd'
asg18
S'N'
sS'.thisRepN'
p3265
I28
sg20
S'Y'
sg31
g32
sS'.thisTrialN'
p3266
I0
sS'.thisN'
p3267
I420
sS'.thisIndex'
p3268
I9
sg15
(lp3269
S'd'
asg30
VF
sg16
S'Y'
sg14
I9
sg19
Nsg93
I9
sa(dp3270
g17
(lp3271
S'd'
asg18
S'Y'
sS'.thisRepN'
p3272
I28
sg20
S'Y'
sg31
g32
sS'.thisTrialN'
p3273
I1
sS'.thisN'
p3274
I421
sS'.thisIndex'
p3275
I9
sg15
(lp3276
S'k'
asg30
VF
sg16
S'N'
sg14
I9
sg19
(lp3277
S'space'
p3278
asg93
I9
sa(dp3279
g17
(lp3280
S'k'
asg18
S'N'
sS'.thisRepN'
p3281
I28
sg20
S'N'
sg31
g32
sS'.thisTrialN'
p3282
I2
sS'.thisN'
p3283
I422
sS'.thisIndex'
p3284
I5
sg15
(lp3285
S'k'
asg30
VF
sg16
S'Y'
sg14
I9
sg19
(lp3286
S'd'
asg93
I5
sa(dp3287
g17
(lp3288
S'd'
asg18
S'N'
sS'.thisRepN'
p3289
I28
sg20
S'N'
sg31
g32
sS'.thisTrialN'
p3290
I3
sS'.thisN'
p3291
I423
sS'.thisIndex'
p3292
I3
sg15
(lp3293
S'k'
asg30
VF
sg16
S'N'
sg14
I9
sg19
(lp3294
S'd'
asg93
I3
sa(dp3295
g17
(lp3296
S'k'
asg18
S'Y'
sS'.thisRepN'
p3297
I28
sg20
S'Y'
sg31
g32
sS'.thisTrialN'
p3298
I4
sS'.thisN'
p3299
I424
sS'.thisIndex'
p3300
I5
sg15
(lp3301
S'd'
asg30
VF
sg16
S'N'
sg14
I9
sg19
(lp3302
S'space'
p3303
asg93
I5
sa(dp3304
g17
(lp3305
S'd'
asg18
S'N'
sS'.thisRepN'
p3306
I28
sg20
S'N'
sg31
g32
sS'.thisTrialN'
p3307
I5
sS'.thisN'
p3308
I425
sS'.thisIndex'
p3309
I8
sg15
(lp3310
S'k'
asg30
VF
sg16
S'N'
sg14
I9
sg19
(lp3311
S'space'
p3312
asg93
I8
sa(dp3313
g17
(lp3314
S'd'
asg18
S'N'
sS'.thisRepN'
p3315
I28
sg20
S'N'
sg31
g32
sS'.thisTrialN'
p3316
I6
sS'.thisN'
p3317
I426
sS'.thisIndex'
p3318
I12
sg15
(lp3319
S'k'
asg30
VF
sg16
S'N'
sg14
I9
sg19
(lp3320
S'd'
asg93
I12
sa(dp3321
g17
(lp3322
S'k'
asg18
S'N'
sS'.thisRepN'
p3323
I28
sg20
S'N'
sg31
g32
sS'.thisTrialN'
p3324
I7
sS'.thisN'
p3325
I427
sS'.thisIndex'
p3326
I9
sg15
(lp3327
S'd'
asg30
VF
sg16
S'N'
sg14
I9
sg19
(lp3328
S'space'
p3329
asg93
I9
sa(dp3330
g17
(lp3331
S'd'
asg18
S'N'
sS'.thisRepN'
p3332
I28
sg20
S'Y'
sg31
g32
sS'.thisTrialN'
p3333
I8
sS'.thisN'
p3334
I428
sS'.thisIndex'
p3335
I6
sg15
(lp3336
S'k'
asg30
VF
sg16
S'N'
sg14
I9
sg19
Nsg93
I6
sa(dp3337
g17
(lp3338
S'k'
asg18
S'Y'
sS'.thisRepN'
p3339
I28
sg20
S'N'
sg31
g32
sS'.thisTrialN'
p3340
I9
sS'.thisN'
p3341
I429
sS'.thisIndex'
p3342
I13
sg15
(lp3343
S'd'
asg30
VF
sg16
S'N'
sg14
I9
sg19
Nsg93
I13
sa(dp3344
g17
(lp3345
S'd'
asg18
S'Y'
sS'.thisRepN'
p3346
I28
sg20
S'N'
sg31
g32
sS'.thisTrialN'
p3347
I10
sS'.thisN'
p3348
I430
sS'.thisIndex'
p3349
I7
sg15
(lp3350
S'k'
asg30
VF
sg16
S'N'
sg14
I9
sg19
Nsg93
I7
sa(dp3351
g17
(lp3352
S'd'
asg18
S'N'
sS'.thisRepN'
p3353
I28
sg20
S'Y'
sg31
g32
sS'.thisTrialN'
p3354
I11
sS'.thisN'
p3355
I431
sS'.thisIndex'
p3356
I2
sg15
(lp3357
S'k'
asg30
VF
sg16
S'N'
sg14
I9
sg19
Nsg93
I2
sa(dp3358
g17
(lp3359
S'k'
asg18
S'N'
sS'.thisRepN'
p3360
I28
sg20
S'Y'
sg31
g32
sS'.thisTrialN'
p3361
I12
sS'.thisN'
p3362
I432
sS'.thisIndex'
p3363
I5
sg15
(lp3364
S'k'
asg30
VF
sg16
S'Y'
sg14
I9
sg19
Nsg93
I5
sa(dp3365
g17
(lp3366
S'd'
asg18
S'N'
sS'.thisRepN'
p3367
I28
sg20
S'Y'
sg31
g32
sS'.thisTrialN'
p3368
I13
sS'.thisN'
p3369
I433
sS'.thisIndex'
p3370
I3
sg15
(lp3371
S'd'
asg30
VF
sg16
S'Y'
sg14
I9
sg19
Nsg93
I3
sa(dp3372
g17
(lp3373
S'k'
asg18
S'N'
sS'.thisRepN'
p3374
I28
sg20
S'Y'
sg31
g32
sS'.thisTrialN'
p3375
I14
sS'.thisN'
p3376
I434
sS'.thisIndex'
p3377
I8
sg15
(lp3378
S'k'
asg30
VF
sg16
S'Y'
sg14
I9
sg19
Nsg93
I8
sa(dp3379
g17
(lp3380
S'd'
asg18
S'N'
sS'.thisRepN'
p3381
I29
sg20
S'Y'
sg31
g32
sS'.thisTrialN'
p3382
I0
sS'.thisN'
p3383
I435
sS'.thisIndex'
p3384
I7
sg15
(lp3385
S'd'
asg30
VF
sg16
S'Y'
sg14
I9
sg19
Nsg93
I7
sa(dp3386
g17
(lp3387
S'd'
asg18
S'N'
sS'.thisRepN'
p3388
I29
sg20
S'Y'
sg31
g32
sS'.thisTrialN'
p3389
I1
sS'.thisN'
p3390
I436
sS'.thisIndex'
p3391
I7
sg15
(lp3392
S'k'
asg30
VF
sg16
S'N'
sg14
I9
sg19
Nsg93
I7
sa(dp3393
g17
(lp3394
S'd'
asg18
S'N'
sS'.thisRepN'
p3395
I29
sg20
S'Y'
sg31
g32
sS'.thisTrialN'
p3396
I2
sS'.thisN'
p3397
I437
sS'.thisIndex'
p3398
I9
sg15
(lp3399
S'd'
asg30
VF
sg16
S'Y'
sg14
I9
sg19
Nsg93
I9
sa(dp3400
g17
(lp3401
S'd'
asg18
S'Y'
sS'.thisRepN'
p3402
I29
sg20
S'N'
sg31
g32
sS'.thisTrialN'
p3403
I3
sS'.thisN'
p3404
I438
sS'.thisIndex'
p3405
I13
sg15
(lp3406
S'k'
asg30
VF
sg16
S'N'
sg14
I9
sg19
Nsg93
I13
sa(dp3407
g17
(lp3408
S'k'
asg18
S'Y'
sS'.thisRepN'
p3409
I29
sg20
S'Y'
sg31
g32
sS'.thisTrialN'
p3410
I4
sS'.thisN'
p3411
I439
sS'.thisIndex'
p3412
I0
sg15
(lp3413
S'd'
asg30
VF
sg16
S'N'
sg14
I9
sg19
(lp3414
S'space'
p3415
asg93
I0
sa(dp3416
g17
(lp3417
S'd'
asg18
S'Y'
sS'.thisRepN'
p3418
I29
sg20
S'Y'
sg31
g32
sS'.thisTrialN'
p3419
I5
sS'.thisN'
p3420
I440
sS'.thisIndex'
p3421
I8
sg15
(lp3422
S'k'
asg30
VF
sg16
S'N'
sg14
I9
sg19
(lp3423
S'space'
p3424
asg93
I8
sa(dp3425
g17
(lp3426
S'd'
asg18
S'Y'
sS'.thisRepN'
p3427
I29
sg20
S'N'
sg31
g32
sS'.thisTrialN'
p3428
I6
sS'.thisN'
p3429
I441
sS'.thisIndex'
p3430
I10
sg15
(lp3431
S'k'
asg30
VF
sg16
S'N'
sg14
I9
sg19
(lp3432
S'd'
asg93
I10
sa(dp3433
g17
(lp3434
S'd'
asg18
S'N'
sS'.thisRepN'
p3435
I29
sg20
S'N'
sg31
g32
sS'.thisTrialN'
p3436
I7
sS'.thisN'
p3437
I442
sS'.thisIndex'
p3438
I4
sg15
(lp3439
S'd'
asg30
VF
sg16
S'Y'
sg14
I9
sg19
(lp3440
S'space'
p3441
asg93
I4
sa(dp3442
g17
(lp3443
S'd'
asg18
S'N'
sS'.thisRepN'
p3444
I29
sg20
S'Y'
sg31
g32
sS'.thisTrialN'
p3445
I8
sS'.thisN'
p3446
I443
sS'.thisIndex'
p3447
I1
sg15
(lp3448
S'k'
asg30
VF
sg16
S'N'
sg14
I9
sg19
Nsg93
I1
sa(dp3449
g17
(lp3450
S'k'
asg18
S'Y'
sS'.thisRepN'
p3451
I29
sg20
S'N'
sg31
g32
sS'.thisTrialN'
p3452
I9
sS'.thisN'
p3453
I444
sS'.thisIndex'
p3454
I3
sg15
(lp3455
S'd'
asg30
VF
sg16
S'N'
sg14
I9
sg19
Nsg93
I3
sa(dp3456
g17
(lp3457
S'k'
asg18
S'N'
sS'.thisRepN'
p3458
I29
sg20
S'N'
sg31
g32
sS'.thisTrialN'
p3459
I10
sS'.thisN'
p3460
I445
sS'.thisIndex'
p3461
I6
sg15
(lp3462
S'k'
asg30
VF
sg16
S'Y'
sg14
I9
sg19
(lp3463
S'k'
asg93
I6
sa(dp3464
g17
(lp3465
S'd'
asg18
S'N'
sS'.thisRepN'
p3466
I29
sg20
S'Y'
sg31
g32
sS'.thisTrialN'
p3467
I11
sS'.thisN'
p3468
I446
sS'.thisIndex'
p3469
I11
sg15
(lp3470
S'd'
asg30
VF
sg16
S'Y'
sg14
I9
sg19
Nsg93
I11
sa(dp3471
g17
(lp3472
S'k'
asg18
S'N'
sS'.thisRepN'
p3473
I29
sg20
S'N'
sg31
g32
sS'.thisTrialN'
p3474
I12
sS'.thisN'
p3475
I447
sS'.thisIndex'
p3476
I5
sg15
(lp3477
S'k'
asg30
VF
sg16
S'Y'
sg14
I9
sg19
(lp3478
S'space'
p3479
asg93
I5
sa(dp3480
g17
(lp3481
S'k'
asg18
S'Y'
sS'.thisRepN'
p3482
I29
sg20
S'Y'
sg31
g32
sS'.thisTrialN'
p3483
I13
sS'.thisN'
p3484
I448
sS'.thisIndex'
p3485
I3
sg15
(lp3486
S'd'
asg30
VF
sg16
S'N'
sg14
I9
sg19
(lp3487
S'space'
p3488
asg93
I3
sa(dp3489
g17
(lp3490
S'k'
asg18
S'Y'
sg22
I25
sS'.thisN'
p3491
I449
sg20
S'Y'
sg31
g32
sS'.thisTrialN'
p3492
I14
sS'.thisRepN'
p3493
I29
sg21
I25
sS'.thisIndex'
p3494
I4
sg23
I23
sg15
(lp3495
S'k'
asg30
VF
sg16
S'Y'
sg14
I9
sg19
(lp3496
S'space'
p3497
asg93
I4
sa(dp3498
g17
(lp3499
S'd'
asg93
I11
sS'.thisRepN'
p3500
I30
sg30
VF
sg31
g32
sS'.thisTrialN'
p3501
I0
sS'.thisN'
p3502
I450
sS'.thisIndex'
p3503
I11
sg15
(lp3504
S'k'
asg16
S'N'
sg14
I10
sa(dp3505
g17
(lp3506
S'k'
asg93
I11
sS'.thisRepN'
p3507
I30
sg30
VF
sg31
g32
sS'.thisTrialN'
p3508
I1
sS'.thisN'
p3509
I451
sS'.thisIndex'
p3510
I11
sg15
(lp3511
S'd'
asg16
S'N'
sg14
I10
sa(dp3512
g17
(lp3513
S'd'
asg18
S'Y'
sS'.thisRepN'
p3514
I30
sg20
S'Y'
sg31
g32
sS'.thisTrialN'
p3515
I2
sS'.thisN'
p3516
I452
sS'.thisIndex'
p3517
I11
sg15
(lp3518
S'k'
asg30
VF
sg16
S'N'
sg14
I10
sg19
(lp3519
S'space'
p3520
asg93
I11
sa(dp3521
g17
(lp3522
S'd'
asg18
S'N'
sS'.thisRepN'
p3523
I30
sg20
S'N'
sg31
g32
sS'.thisTrialN'
p3524
I3
sS'.thisN'
p3525
I453
sS'.thisIndex'
p3526
I4
sg15
(lp3527
S'k'
asg30
VF
sg16
S'N'
sg14
I10
sg19
(lp3528
S'space'
p3529
asg93
I4
sa(dp3530
g17
(lp3531
S'k'
asg18
S'Y'
sS'.thisRepN'
p3532
I30
sg20
S'Y'
sg31
g32
sS'.thisTrialN'
p3533
I4
sS'.thisN'
p3534
I454
sS'.thisIndex'
p3535
I2
sg15
(lp3536
S'k'
asg30
VF
sg16
S'Y'
sg14
I10
sg19
(lp3537
S'space'
p3538
asg93
I2
sa(dp3539
g17
(lp3540
S'd'
asg18
S'N'
sS'.thisRepN'
p3541
I30
sg20
S'N'
sg31
g32
sS'.thisTrialN'
p3542
I5
sS'.thisN'
p3543
I455
sS'.thisIndex'
p3544
I14
sg15
(lp3545
S'k'
asg30
VF
sg16
S'N'
sg14
I10
sg19
(lp3546
S'space'
p3547
asg93
I14
sa(dp3548
g17
(lp3549
S'k'
asg18
S'Y'
sS'.thisRepN'
p3550
I30
sg20
S'Y'
sg31
g32
sS'.thisTrialN'
p3551
I6
sS'.thisN'
p3552
I456
sS'.thisIndex'
p3553
I4
sg15
(lp3554
S'd'
asg30
VF
sg16
S'N'
sg14
I10
sg19
(lp3555
S'space'
p3556
asg93
I4
sa(dp3557
g17
(lp3558
S'k'
asg18
S'N'
sS'.thisRepN'
p3559
I30
sg20
S'N'
sg31
g32
sS'.thisTrialN'
p3560
I7
sS'.thisN'
p3561
I457
sS'.thisIndex'
p3562
I4
sg15
(lp3563
S'k'
asg30
VF
sg16
S'Y'
sg14
I10
sg19
(lp3564
S'space'
p3565
asg93
I4
sa(dp3566
g17
(lp3567
S'd'
asg18
S'N'
sS'.thisRepN'
p3568
I30
sg20
S'N'
sg31
g32
sS'.thisTrialN'
p3569
I8
sS'.thisN'
p3570
I458
sS'.thisIndex'
p3571
I9
sg15
(lp3572
S'k'
asg30
VF
sg16
S'N'
sg14
I10
sg19
(lp3573
S'space'
p3574
asg93
I9
sa(dp3575
g17
(lp3576
S'd'
asg18
S'N'
sS'.thisRepN'
p3577
I30
sg20
S'N'
sg31
g32
sS'.thisTrialN'
p3578
I9
sS'.thisN'
p3579
I459
sS'.thisIndex'
p3580
I14
sg15
(lp3581
S'd'
asg30
VF
sg16
S'Y'
sg14
I10
sg19
(lp3582
S'space'
p3583
asg93
I14
sa(dp3584
g17
(lp3585
S'd'
asg18
S'Y'
sS'.thisRepN'
p3586
I30
sg20
S'Y'
sg31
g32
sS'.thisTrialN'
p3587
I10
sS'.thisN'
p3588
I460
sS'.thisIndex'
p3589
I9
sg15
(lp3590
S'k'
asg30
VF
sg16
S'N'
sg14
I10
sg19
(lp3591
S'space'
p3592
asg93
I9
sa(dp3593
g17
(lp3594
S'k'
asg18
S'N'
sS'.thisRepN'
p3595
I30
sg20
S'N'
sg31
g32
sS'.thisTrialN'
p3596
I11
sS'.thisN'
p3597
I461
sS'.thisIndex'
p3598
I13
sg15
(lp3599
S'd'
asg30
VF
sg16
S'N'
sg14
I10
sg19
(lp3600
S'space'
p3601
asg93
I13
sa(dp3602
g17
(lp3603
S'k'
asg18
S'Y'
sS'.thisRepN'
p3604
I30
sg20
S'Y'
sg31
g32
sS'.thisTrialN'
p3605
I12
sS'.thisN'
p3606
I462
sS'.thisIndex'
p3607
I3
sg15
(lp3608
S'k'
asg30
VF
sg16
S'Y'
sg14
I10
sg19
(lp3609
S'space'
p3610
asg93
I3
sa(dp3611
g17
(lp3612
S'k'
asg18
S'N'
sS'.thisRepN'
p3613
I30
sg20
S'N'
sg31
g32
sS'.thisTrialN'
p3614
I13
sS'.thisN'
p3615
I463
sS'.thisIndex'
p3616
I6
sg15
(lp3617
S'd'
asg30
VF
sg16
S'N'
sg14
I10
sg19
(lp3618
S'space'
p3619
asg93
I6
sa(dp3620
g17
(lp3621
S'd'
asg18
S'N'
sS'.thisRepN'
p3622
I30
sg20
S'N'
sg31
g32
sS'.thisTrialN'
p3623
I14
sS'.thisN'
p3624
I464
sS'.thisIndex'
p3625
I12
sg15
(lp3626
S'k'
asg30
VF
sg16
S'N'
sg14
I10
sg19
(lp3627
S'space'
p3628
asg93
I12
sa(dp3629
g17
(lp3630
S'd'
asg18
S'N'
sS'.thisRepN'
p3631
I31
sg20
S'N'
sg31
g32
sS'.thisTrialN'
p3632
I0
sS'.thisN'
p3633
I465
sS'.thisIndex'
p3634
I14
sg15
(lp3635
S'k'
asg30
VF
sg16
S'N'
sg14
I10
sg19
(lp3636
S'space'
p3637
asg93
I14
sa(dp3638
g17
(lp3639
S'd'
asg18
S'N'
sS'.thisRepN'
p3640
I31
sg20
S'N'
sg31
g32
sS'.thisTrialN'
p3641
I1
sS'.thisN'
p3642
I466
sS'.thisIndex'
p3643
I1
sg15
(lp3644
S'd'
asg30
VF
sg16
S'Y'
sg14
I10
sg19
(lp3645
S'space'
p3646
asg93
I1
sa(dp3647
g17
(lp3648
S'd'
asg18
S'Y'
sS'.thisRepN'
p3649
I31
sg20
S'Y'
sg31
g32
sS'.thisTrialN'
p3650
I2
sS'.thisN'
p3651
I467
sS'.thisIndex'
p3652
I8
sg15
(lp3653
S'k'
asg30
VF
sg16
S'N'
sg14
I10
sg19
(lp3654
S'space'
p3655
asg93
I8
sa(dp3656
g17
(lp3657
S'd'
asg18
S'Y'
sS'.thisRepN'
p3658
I31
sg20
S'Y'
sg31
g32
sS'.thisTrialN'
p3659
I3
sS'.thisN'
p3660
I468
sS'.thisIndex'
p3661
I9
sg15
(lp3662
S'd'
asg30
VF
sg16
S'Y'
sg14
I10
sg19
(lp3663
S'space'
p3664
asg93
I9
sa(dp3665
g17
(lp3666
S'k'
asg18
S'N'
sS'.thisRepN'
p3667
I31
sg20
S'Y'
sg31
g32
sS'.thisTrialN'
p3668
I4
sS'.thisN'
p3669
I469
sS'.thisIndex'
p3670
I7
sg15
(lp3671
S'd'
asg30
VF
sg16
S'N'
sg14
I10
sg19
Nsg93
I7
sa(dp3672
g17
(lp3673
S'k'
asg18
S'N'
sS'.thisRepN'
p3674
I31
sg20
S'N'
sg31
g32
sS'.thisTrialN'
p3675
I5
sS'.thisN'
p3676
I470
sS'.thisIndex'
p3677
I2
sg15
(lp3678
S'k'
asg30
VF
sg16
S'Y'
sg14
I10
sg19
(lp3679
S'space'
p3680
asg93
I2
sa(dp3681
g17
(lp3682
S'd'
asg18
S'N'
sS'.thisRepN'
p3683
I31
sg20
S'N'
sg31
g32
sS'.thisTrialN'
p3684
I6
sS'.thisN'
p3685
I471
sS'.thisIndex'
p3686
I4
sg15
(lp3687
S'd'
asg30
VF
sg16
S'Y'
sg14
I10
sg19
(lp3688
S'space'
p3689
asg93
I4
sa(dp3690
g17
(lp3691
S'k'
asg18
S'N'
sS'.thisRepN'
p3692
I31
sg20
S'N'
sg31
g32
sS'.thisTrialN'
p3693
I7
sS'.thisN'
p3694
I472
sS'.thisIndex'
p3695
I14
sg15
(lp3696
S'k'
asg30
VF
sg16
S'Y'
sg14
I10
sg19
(lp3697
S'space'
p3698
asg93
I14
sa(dp3699
g17
(lp3700
S'k'
asg18
S'Y'
sS'.thisRepN'
p3701
I31
sg20
S'N'
sg31
g32
sS'.thisTrialN'
p3702
I8
sS'.thisN'
p3703
I473
sS'.thisIndex'
p3704
I2
sg15
(lp3705
S'd'
asg30
VF
sg16
S'N'
sg14
I10
sg19
Nsg93
I2
sa(dp3706
g17
(lp3707
S'k'
asg18
S'Y'
sS'.thisRepN'
p3708
I31
sg20
S'Y'
sg31
g32
sS'.thisTrialN'
p3709
I9
sS'.thisN'
p3710
I474
sS'.thisIndex'
p3711
I10
sg15
(lp3712
S'k'
asg30
VF
sg16
S'Y'
sg14
I10
sg19
(lp3713
S'space'
p3714
asg93
I10
sa(dp3715
g17
(lp3716
S'k'
asg18
S'N'
sS'.thisRepN'
p3717
I31
sg20
S'N'
sg31
g32
sS'.thisTrialN'
p3718
I10
sS'.thisN'
p3719
I475
sS'.thisIndex'
p3720
I14
sg15
(lp3721
S'd'
asg30
VF
sg16
S'N'
sg14
I10
sg19
(lp3722
S'space'
p3723
asg93
I14
sa(dp3724
g17
(lp3725
S'k'
asg18
S'Y'
sS'.thisRepN'
p3726
I31
sg20
S'N'
sg31
g32
sS'.thisTrialN'
p3727
I11
sS'.thisN'
p3728
I476
sS'.thisIndex'
p3729
I5
sg15
(lp3730
S'k'
asg30
VF
sg16
S'Y'
sg14
I10
sg19
Nsg93
I5
sa(dp3731
g17
(lp3732
S'd'
asg18
S'N'
sS'.thisRepN'
p3733
I31
sg20
S'N'
sg31
g32
sS'.thisTrialN'
p3734
I12
sS'.thisN'
p3735
I477
sS'.thisIndex'
p3736
I3
sg15
(lp3737
S'k'
asg30
VF
sg16
S'N'
sg14
I10
sg19
(lp3738
S'space'
p3739
asg93
I3
sa(dp3740
g17
(lp3741
S'd'
asg18
S'Y'
sS'.thisRepN'
p3742
I31
sg20
S'Y'
sg31
g32
sS'.thisTrialN'
p3743
I13
sS'.thisN'
p3744
I478
sS'.thisIndex'
p3745
I11
sg15
(lp3746
S'd'
asg30
VF
sg16
S'Y'
sg14
I10
sg19
(lp3747
S'space'
p3748
asg93
I11
sa(dp3749
g17
(lp3750
S'd'
asg18
S'Y'
sS'.thisRepN'
p3751
I31
sg20
S'Y'
sg31
g32
sS'.thisTrialN'
p3752
I14
sS'.thisN'
p3753
I479
sS'.thisIndex'
p3754
I1
sg15
(lp3755
S'd'
asg30
VF
sg16
S'Y'
sg14
I10
sg19
(lp3756
S'space'
p3757
asg93
I1
sa(dp3758
g17
(lp3759
S'k'
asg18
S'N'
sS'.thisRepN'
p3760
I32
sg20
S'Y'
sg31
g32
sS'.thisTrialN'
p3761
I0
sS'.thisN'
p3762
I480
sS'.thisIndex'
p3763
I1
sg15
(lp3764
S'k'
asg30
VF
sg16
S'Y'
sg14
I10
sg19
Nsg93
I1
sa(dp3765
g17
(lp3766
S'd'
asg18
S'N'
sS'.thisRepN'
p3767
I32
sg20
S'Y'
sg31
g32
sS'.thisTrialN'
p3768
I1
sS'.thisN'
p3769
I481
sS'.thisIndex'
p3770
I11
sg15
(lp3771
S'd'
asg30
VF
sg16
S'Y'
sg14
I10
sg19
Nsg93
I11
sa(dp3772
g17
(lp3773
S'k'
asg18
S'Y'
sS'.thisRepN'
p3774
I32
sg20
S'Y'
sg31
g32
sS'.thisTrialN'
p3775
I2
sS'.thisN'
p3776
I482
sS'.thisIndex'
p3777
I2
sg15
(lp3778
S'k'
asg30
VF
sg16
S'Y'
sg14
I10
sg19
(lp3779
S'space'
p3780
asg93
I2
sa(dp3781
g17
(lp3782
S'k'
asg18
S'N'
sS'.thisRepN'
p3783
I32
sg20
S'Y'
sg31
g32
sS'.thisTrialN'
p3784
I3
sS'.thisN'
p3785
I483
sS'.thisIndex'
p3786
I9
sg15
(lp3787
S'd'
asg30
VF
sg16
S'N'
sg14
I10
sg19
Nsg93
I9
sa(dp3788
g17
(lp3789
S'k'
asg18
S'Y'
sS'.thisRepN'
p3790
I32
sg20
S'N'
sg31
g32
sS'.thisTrialN'
p3791
I4
sS'.thisN'
p3792
I484
sS'.thisIndex'
p3793
I12
sg15
(lp3794
S'k'
asg30
VF
sg16
S'Y'
sg14
I10
sg19
Nsg93
I12
sa(dp3795
g17
(lp3796
S'k'
asg18
S'Y'
sS'.thisRepN'
p3797
I32
sg20
S'Y'
sg31
g32
sS'.thisTrialN'
p3798
I5
sS'.thisN'
p3799
I485
sS'.thisIndex'
p3800
I7
sg15
(lp3801
S'd'
asg30
VF
sg16
S'N'
sg14
I10
sg19
(lp3802
S'space'
p3803
asg93
I7
sa(dp3804
g17
(lp3805
S'd'
asg18
S'N'
sS'.thisRepN'
p3806
I32
sg20
S'Y'
sg31
g32
sS'.thisTrialN'
p3807
I6
sS'.thisN'
p3808
I486
sS'.thisIndex'
p3809
I8
sg15
(lp3810
S'k'
asg30
VF
sg16
S'N'
sg14
I10
sg19
Nsg93
I8
sa(dp3811
g17
(lp3812
S'k'
asg18
S'Y'
sS'.thisRepN'
p3813
I32
sg20
S'Y'
sg31
g32
sS'.thisTrialN'
p3814
I7
sS'.thisN'
p3815
I487
sS'.thisIndex'
p3816
I12
sg15
(lp3817
S'd'
asg30
VF
sg16
S'N'
sg14
I10
sg19
(lp3818
S'space'
p3819
asg93
I12
sa(dp3820
g17
(lp3821
S'd'
asg18
S'Y'
sS'.thisRepN'
p3822
I32
sg20
S'Y'
sg31
g32
sS'.thisTrialN'
p3823
I8
sS'.thisN'
p3824
I488
sS'.thisIndex'
p3825
I2
sg15
(lp3826
S'k'
asg30
VF
sg16
S'N'
sg14
I10
sg19
(lp3827
S'space'
p3828
asg93
I2
sa(dp3829
g17
(lp3830
S'd'
asg18
S'N'
sS'.thisRepN'
p3831
I32
sg20
S'N'
sg31
g32
sS'.thisTrialN'
p3832
I9
sS'.thisN'
p3833
I489
sS'.thisIndex'
p3834
I13
sg15
(lp3835
S'k'
asg30
VF
sg16
S'N'
sg14
I10
sg19
(lp3836
S'space'
p3837
asg93
I13
sa(dp3838
g17
(lp3839
S'd'
asg18
S'Y'
sS'.thisRepN'
p3840
I32
sg20
S'Y'
sg31
g32
sS'.thisTrialN'
p3841
I10
sS'.thisN'
p3842
I490
sS'.thisIndex'
p3843
I13
sg15
(lp3844
S'd'
asg30
VF
sg16
S'Y'
sg14
I10
sg19
(lp3845
S'space'
p3846
asg93
I13
sa(dp3847
g17
(lp3848
S'k'
asg18
S'Y'
sS'.thisRepN'
p3849
I32
sg20
S'Y'
sg31
g32
sS'.thisTrialN'
p3850
I11
sS'.thisN'
p3851
I491
sS'.thisIndex'
p3852
I0
sg15
(lp3853
S'k'
asg30
VF
sg16
S'Y'
sg14
I10
sg19
(lp3854
S'space'
p3855
asg93
I0
sa(dp3856
g17
(lp3857
S'k'
asg18
S'Y'
sS'.thisRepN'
p3858
I32
sg20
S'Y'
sg31
g32
sS'.thisTrialN'
p3859
I12
sS'.thisN'
p3860
I492
sS'.thisIndex'
p3861
I6
sg15
(lp3862
S'd'
asg30
VF
sg16
S'N'
sg14
I10
sg19
(lp3863
S'space'
p3864
asg93
I6
sa(dp3865
g17
(lp3866
S'k'
asg18
S'Y'
sS'.thisRepN'
p3867
I32
sg20
S'Y'
sg31
g32
sS'.thisTrialN'
p3868
I13
sS'.thisN'
p3869
I493
sS'.thisIndex'
p3870
I1
sg15
(lp3871
S'k'
asg30
VF
sg16
S'Y'
sg14
I10
sg19
(lp3872
S'space'
p3873
asg93
I1
sa(dp3874
g17
(lp3875
S'k'
asg18
S'Y'
sS'.thisRepN'
p3876
I32
sg20
S'Y'
sg31
g32
sS'.thisTrialN'
p3877
I14
sS'.thisN'
p3878
I494
sS'.thisIndex'
p3879
I9
sg15
(lp3880
S'd'
asg30
VF
sg16
S'N'
sg14
I10
sg19
(lp3881
S'space'
p3882
asg93
I9
sa(dp3883
g17
(lp3884
S'k'
asg18
S'Y'
sS'.thisRepN'
p3885
I33
sg20
S'Y'
sg31
g32
sS'.thisTrialN'
p3886
I0
sS'.thisN'
p3887
I495
sS'.thisIndex'
p3888
I14
sg15
(lp3889
S'k'
asg30
VF
sg16
S'Y'
sg14
I10
sg19
(lp3890
S'space'
p3891
asg93
I14
sa(dp3892
g17
(lp3893
S'k'
asg18
S'Y'
sS'.thisRepN'
p3894
I33
sg20
S'N'
sg31
g32
sS'.thisTrialN'
p3895
I1
sS'.thisN'
p3896
I496
sS'.thisIndex'
p3897
I6
sg15
(lp3898
S'd'
asg30
VF
sg16
S'N'
sg14
I10
sg19
Nsg93
I6
sa(dp3899
g17
(lp3900
S'k'
asg18
S'N'
sS'.thisRepN'
p3901
I33
sg20
S'Y'
sg31
g32
sS'.thisTrialN'
p3902
I2
sS'.thisN'
p3903
I497
sS'.thisIndex'
p3904
I14
sg15
(lp3905
S'k'
asg30
VF
sg16
S'Y'
sg14
I10
sg19
Nsg93
I14
sa(dp3906
g17
(lp3907
S'd'
asg18
S'N'
sS'.thisRepN'
p3908
I33
sg20
S'Y'
sg31
g32
sS'.thisTrialN'
p3909
I3
sS'.thisN'
p3910
I498
sS'.thisIndex'
p3911
I0
sg15
(lp3912
S'k'
asg30
VF
sg16
S'N'
sg14
I10
sg19
Nsg93
I0
sa(dp3913
g17
(lp3914
S'k'
asg18
S'N'
sg22
I27
sS'.thisN'
p3915
I499
sg20
S'N'
sg31
g32
sS'.thisTrialN'
p3916
I4
sS'.thisRepN'
p3917
I33
sg21
I22
sS'.thisIndex'
p3918
I1
sg23
I24
sg15
(lp3919
S'd'
asg30
VF
sg16
S'N'
sg14
I10
sg19
(lp3920
S'space'
p3921
asg93
I1
sa(dp3922
g17
(lp3923
S'k'
asS'.thisIndex'
p3924
I6
sS'.thisRepN'
p3925
I33
sg26
S'Y'
sg30
VF
sg31
g32
sS'.thisTrialN'
p3926
I5
sS'.thisN'
p3927
I500
sg25
S'Y'
sg24
S'Y'
sg15
(lp3928
S'd'
asg16
S'Y'
sg14
I11
sg93
I6
sa(dp3929
g17
(lp3930
S'k'
asS'.thisIndex'
p3931
I13
sS'.thisRepN'
p3932
I33
sg26
S'Y'
sg30
VF
sg31
g32
sS'.thisTrialN'
p3933
I6
sS'.thisN'
p3934
I501
sg25
S'Y'
sg15
(lp3935
S'k'
asg16
S'N'
sg14
I11
sg93
I13
sa(dp3936
g17
(lp3937
S'd'
asg18
S'N'
sS'.thisRepN'
p3938
I33
sg26
S'Y'
sg20
S'N'
sg31
g32
sS'.thisTrialN'
p3939
I7
sS'.thisN'
p3940
I502
sg25
S'Y'
sg15
(lp3941
S'k'
asg30
VF
sg16
S'Y'
sg14
I11
sg19
(lp3942
S'd'
asg93
I2
sS'.thisIndex'
p3943
I2
sa(dp3944
g17
(lp3945
S'd'
asg18
S'N'
sS'.thisRepN'
p3946
I33
sg26
S'Y'
sg20
S'Y'
sg31
g32
sS'.thisTrialN'
p3947
I8
sS'.thisN'
p3948
I503
sg25
S'Y'
sg15
(lp3949
S'd'
asg30
VF
sg16
S'N'
sg14
I11
sg19
Nsg93
I9
sS'.thisIndex'
p3950
I9
sa(dp3951
g17
(lp3952
S'd'
asg18
S'Y'
sS'.thisRepN'
p3953
I33
sg26
S'Y'
sg20
S'Y'
sg31
g32
sS'.thisTrialN'
p3954
I9
sS'.thisN'
p3955
I504
sg25
S'Y'
sg15
(lp3956
S'k'
asg30
VF
sg16
S'Y'
sg14
I11
sg19
(lp3957
S'space'
p3958
asg93
I14
sS'.thisIndex'
p3959
I14
sa(dp3960
g17
(lp3961
S'k'
asg18
S'Y'
sS'.thisRepN'
p3962
I33
sg26
S'Y'
sg20
S'Y'
sg31
g32
sS'.thisTrialN'
p3963
I10
sS'.thisN'
p3964
I505
sg25
S'Y'
sg15
(lp3965
S'd'
asg30
VF
sg16
S'Y'
sg14
I11
sg19
(lp3966
S'space'
p3967
asg93
I12
sS'.thisIndex'
p3968
I12
sa(dp3969
g17
(lp3970
S'k'
asg18
S'Y'
sS'.thisRepN'
p3971
I33
sg26
S'Y'
sg20
S'Y'
sg31
g32
sS'.thisTrialN'
p3972
I11
sS'.thisN'
p3973
I506
sg25
S'Y'
sg15
(lp3974
S'k'
asg30
VF
sg16
S'N'
sg14
I11
sg19
(lp3975
S'space'
p3976
asg93
I12
sS'.thisIndex'
p3977
I12
sa(dp3978
g17
(lp3979
S'k'
asg18
S'N'
sS'.thisRepN'
p3980
I33
sg26
S'Y'
sg20
S'N'
sg31
g32
sS'.thisTrialN'
p3981
I12
sS'.thisN'
p3982
I507
sg25
S'Y'
sg15
(lp3983
S'k'
asg30
VF
sg16
S'N'
sg14
I11
sg19
(lp3984
S'space'
p3985
asg93
I14
sS'.thisIndex'
p3986
I14
sa(dp3987
g17
(lp3988
S'k'
asg18
S'N'
sS'.thisRepN'
p3989
I33
sg26
S'Y'
sg20
S'N'
sg31
g32
sS'.thisTrialN'
p3990
I13
sS'.thisN'
p3991
I508
sg25
S'Y'
sg15
(lp3992
S'd'
asg30
VF
sg16
S'Y'
sg14
I11
sg19
(lp3993
S'space'
p3994
asg93
I10
sS'.thisIndex'
p3995
I10
sa(dp3996
g17
(lp3997
S'k'
asg18
S'N'
sS'.thisRepN'
p3998
I33
sg26
S'Y'
sg20
S'N'
sg31
g32
sS'.thisTrialN'
p3999
I14
sS'.thisN'
p4000
I509
sg25
S'Y'
sg15
(lp4001
S'k'
asg30
VF
sg16
S'N'
sg14
I11
sg19
(lp4002
S'space'
p4003
asg93
I1
sS'.thisIndex'
p4004
I1
sa(dp4005
g17
(lp4006
S'd'
asg18
S'Y'
sS'.thisRepN'
p4007
I34
sg26
S'Y'
sg20
S'Y'
sg31
g32
sS'.thisTrialN'
p4008
I0
sS'.thisN'
p4009
I510
sg25
S'Y'
sg15
(lp4010
S'd'
asg30
VF
sg16
S'N'
sg14
I11
sg19
(lp4011
S'space'
p4012
asg93
I10
sS'.thisIndex'
p4013
I10
sa(dp4014
g17
(lp4015
S'k'
asg18
S'Y'
sS'.thisRepN'
p4016
I34
sg26
S'Y'
sg20
S'Y'
sg31
g32
sS'.thisTrialN'
p4017
I1
sS'.thisN'
p4018
I511
sg25
S'Y'
sg15
(lp4019
S'k'
asg30
VF
sg16
S'N'
sg14
I11
sg19
(lp4020
S'space'
p4021
asg93
I11
sS'.thisIndex'
p4022
I11
sa(dp4023
g17
(lp4024
S'd'
asg18
S'Y'
sS'.thisRepN'
p4025
I34
sg26
S'Y'
sg20
S'Y'
sg31
g32
sS'.thisTrialN'
p4026
I2
sS'.thisN'
p4027
I512
sg25
S'Y'
sg15
(lp4028
S'd'
asg30
VF
sg16
S'N'
sg14
I11
sg19
(lp4029
S'space'
p4030
asg93
I7
sS'.thisIndex'
p4031
I7
sa(dp4032
g17
(lp4033
S'd'
asg18
S'N'
sS'.thisRepN'
p4034
I34
sg26
S'Y'
sg20
S'N'
sg31
g32
sS'.thisTrialN'
p4035
I3
sS'.thisN'
p4036
I513
sg25
S'Y'
sg15
(lp4037
S'k'
asg30
VF
sg16
S'Y'
sg14
I11
sg19
(lp4038
S'space'
p4039
asg93
I9
sS'.thisIndex'
p4040
I9
sa(dp4041
g17
(lp4042
S'd'
asg18
S'Y'
sS'.thisRepN'
p4043
I34
sg26
S'Y'
sg20
S'Y'
sg31
g32
sS'.thisTrialN'
p4044
I4
sS'.thisN'
p4045
I514
sg25
S'Y'
sg15
(lp4046
S'd'
asg30
VF
sg16
S'N'
sg14
I11
sg19
(lp4047
S'space'
p4048
asg93
I3
sS'.thisIndex'
p4049
I3
sa(dp4050
g17
(lp4051
S'd'
asg18
S'N'
sS'.thisRepN'
p4052
I34
sg26
S'Y'
sg20
S'N'
sg31
g32
sS'.thisTrialN'
p4053
I5
sS'.thisN'
p4054
I515
sg25
S'Y'
sg15
(lp4055
S'k'
asg30
VF
sg16
S'Y'
sg14
I11
sg19
(lp4056
S'space'
p4057
asg93
I10
sS'.thisIndex'
p4058
I10
sa(dp4059
g17
(lp4060
S'd'
asg18
S'N'
sS'.thisRepN'
p4061
I34
sg26
S'Y'
sg20
S'N'
sg31
g32
sS'.thisTrialN'
p4062
I6
sS'.thisN'
p4063
I516
sg25
S'Y'
sg15
(lp4064
S'k'
asg30
VF
sg16
S'Y'
sg14
I11
sg19
(lp4065
S'space'
p4066
asg93
I14
sS'.thisIndex'
p4067
I14
sa(dp4068
g17
(lp4069
S'k'
asg18
S'N'
sS'.thisRepN'
p4070
I34
sg26
S'Y'
sg20
S'N'
sg31
g32
sS'.thisTrialN'
p4071
I7
sS'.thisN'
p4072
I517
sg25
S'Y'
sg15
(lp4073
S'k'
asg30
VF
sg16
S'N'
sg14
I11
sg19
(lp4074
S'space'
p4075
asg93
I10
sS'.thisIndex'
p4076
I10
sa(dp4077
g17
(lp4078
S'k'
asg18
S'Y'
sS'.thisRepN'
p4079
I34
sg26
S'Y'
sg20
S'Y'
sg31
g32
sS'.thisTrialN'
p4080
I8
sS'.thisN'
p4081
I518
sg25
S'Y'
sg15
(lp4082
S'k'
asg30
VF
sg16
S'N'
sg14
I11
sg19
(lp4083
S'space'
p4084
asg93
I6
sS'.thisIndex'
p4085
I6
sa(dp4086
g17
(lp4087
S'k'
asg18
S'Y'
sS'.thisRepN'
p4088
I34
sg26
S'Y'
sg20
S'N'
sg31
g32
sS'.thisTrialN'
p4089
I9
sS'.thisN'
p4090
I519
sg25
S'Y'
sg15
(lp4091
S'k'
asg30
VF
sg16
S'N'
sg14
I11
sg19
(lp4092
S'k'
asg93
I13
sS'.thisIndex'
p4093
I13
sa(dp4094
g17
(lp4095
S'd'
asg18
S'N'
sS'.thisRepN'
p4096
I34
sg26
S'Y'
sg20
S'N'
sg31
g32
sS'.thisTrialN'
p4097
I10
sS'.thisN'
p4098
I520
sg25
S'Y'
sg15
(lp4099
S'k'
asg30
VF
sg16
S'Y'
sg14
I11
sg19
(lp4100
S'space'
p4101
asg93
I6
sS'.thisIndex'
p4102
I6
sa(dp4103
g17
(lp4104
S'k'
asg18
S'Y'
sS'.thisRepN'
p4105
I34
sg26
S'Y'
sg20
S'Y'
sg31
g32
sS'.thisTrialN'
p4106
I11
sS'.thisN'
p4107
I521
sg25
S'Y'
sg15
(lp4108
S'k'
asg30
VF
sg16
S'N'
sg14
I11
sg19
(lp4109
S'space'
p4110
asg93
I13
sS'.thisIndex'
p4111
I13
sa(dp4112
g17
(lp4113
S'd'
asg18
S'N'
sS'.thisRepN'
p4114
I34
sg26
S'Y'
sg20
S'N'
sg31
g32
sS'.thisTrialN'
p4115
I12
sS'.thisN'
p4116
I522
sg25
S'Y'
sg15
(lp4117
S'k'
asg30
VF
sg16
S'Y'
sg14
I11
sg19
(lp4118
S'space'
p4119
asg93
I1
sS'.thisIndex'
p4120
I1
sa(dp4121
g17
(lp4122
S'd'
asg18
S'Y'
sS'.thisRepN'
p4123
I34
sg26
S'Y'
sg20
S'Y'
sg31
g32
sS'.thisTrialN'
p4124
I13
sS'.thisN'
p4125
I523
sg25
S'Y'
sg15
(lp4126
S'k'
asg30
VF
sg16
S'Y'
sg14
I11
sg19
(lp4127
S'space'
p4128
asg93
I9
sS'.thisIndex'
p4129
I9
sa(dp4130
g18
S'N'
sS'.thisRepN'
p4131
I34
sg26
S'Y'
sg20
S'N'
sg31
g32
sS'.thisTrialN'
p4132
I14
sS'.thisN'
p4133
I524
sg25
S'Y'
sg15
Nsg30
VF
sg16
g98
sg14
I11
sg19
(lp4134
S'k'
asg93
I7
sS'.thisIndex'
p4135
I7
sa(dp4136
g17
(lp4137
S'd'
asg18
S'N'
sS'.thisRepN'
p4138
I35
sg26
S'Y'
sg20
S'N'
sg31
g32
sS'.thisTrialN'
p4139
I0
sS'.thisN'
p4140
I525
sg25
S'Y'
sg15
(lp4141
S'k'
asg30
VF
sg16
S'Y'
sg14
I11
sg19
(lp4142
S'k'
asg93
I0
sS'.thisIndex'
p4143
I0
sa(dp4144
g18
S'Y'
sS'.thisRepN'
p4145
I35
sg26
S'Y'
sg20
S'Y'
sg31
g32
sS'.thisTrialN'
p4146
I1
sS'.thisN'
p4147
I526
sg25
S'Y'
sg15
Nsg30
VF
sg16
g98
sg14
I11
sg19
(lp4148
S'space'
p4149
asg93
I4
sS'.thisIndex'
p4150
I4
sa(dp4151
g17
(lp4152
S'k'
asg18
S'Y'
sS'.thisRepN'
p4153
I35
sg26
S'Y'
sg20
S'N'
sg31
g32
sS'.thisTrialN'
p4154
I2
sS'.thisN'
p4155
I527
sg25
S'Y'
sg15
(lp4156
S'd'
asg30
VF
sg16
S'Y'
sg14
I11
sg19
Nsg93
I12
sS'.thisIndex'
p4157
I12
sa(dp4158
g18
S'Y'
sS'.thisRepN'
p4159
I35
sg26
S'Y'
sg20
S'Y'
sg31
g32
sS'.thisTrialN'
p4160
I3
sS'.thisN'
p4161
I528
sg25
S'Y'
sg15
Nsg30
VF
sg16
g98
sg14
I11
sg19
(lp4162
S'space'
p4163
asg93
I12
sS'.thisIndex'
p4164
I12
sa(dp4165
g17
(lp4166
S'k'
asg18
S'N'
sS'.thisRepN'
p4167
I35
sg26
S'Y'
sg20
S'Y'
sg31
g32
sS'.thisTrialN'
p4168
I4
sS'.thisN'
p4169
I529
sg25
S'Y'
sg15
(lp4170
S'k'
asg30
VF
sg16
S'N'
sg14
I11
sg19
Nsg93
I8
sS'.thisIndex'
p4171
I8
sa(dp4172
g17
(lp4173
S'k'
asg18
S'Y'
sS'.thisRepN'
p4174
I35
sg26
S'Y'
sg20
S'N'
sg31
g32
sS'.thisTrialN'
p4175
I5
sS'.thisN'
p4176
I530
sg25
S'Y'
sg15
(lp4177
S'k'
asg30
VF
sg16
S'N'
sg14
I11
sg19
Nsg93
I11
sS'.thisIndex'
p4178
I11
sa(dp4179
g17
(lp4180
S'd'
asg18
S'N'
sS'.thisRepN'
p4181
I35
sg26
S'Y'
sg20
S'Y'
sg31
g32
sS'.thisTrialN'
p4182
I6
sS'.thisN'
p4183
I531
sg25
S'Y'
sg15
(lp4184
S'k'
asg30
VF
sg16
S'Y'
sg14
I11
sg19
Nsg93
I1
sS'.thisIndex'
p4185
I1
sa(dp4186
g17
(lp4187
S'd'
asg18
S'Y'
sS'.thisRepN'
p4188
I35
sg26
S'Y'
sg20
S'N'
sg31
g32
sS'.thisTrialN'
p4189
I7
sS'.thisN'
p4190
I532
sg25
S'Y'
sg15
(lp4191
S'd'
asg30
VF
sg16
S'N'
sg14
I11
sg19
Nsg93
I0
sS'.thisIndex'
p4192
I0
sa(dp4193
g17
(lp4194
S'k'
asg18
S'N'
sS'.thisRepN'
p4195
I35
sg26
S'Y'
sg20
S'Y'
sg31
g32
sS'.thisTrialN'
p4196
I8
sS'.thisN'
p4197
I533
sg25
S'Y'
sg15
(lp4198
S'k'
asg30
VF
sg16
S'N'
sg14
I11
sg19
Nsg93
I2
sS'.thisIndex'
p4199
I2
sa(dp4200
g17
(lp4201
S'd'
asg18
S'N'
sS'.thisRepN'
p4202
I35
sg26
S'Y'
sg20
S'Y'
sg31
g32
sS'.thisTrialN'
p4203
I9
sS'.thisN'
p4204
I534
sg25
S'Y'
sg15
(lp4205
S'd'
asg30
VF
sg16
S'N'
sg14
I11
sg19
Nsg93
I14
sS'.thisIndex'
p4206
I14
sa(dp4207
g17
(lp4208
S'd'
asg18
S'Y'
sS'.thisRepN'
p4209
I35
sg26
S'Y'
sg20
S'N'
sg31
g32
sS'.thisTrialN'
p4210
I10
sS'.thisN'
p4211
I535
sg25
S'Y'
sg15
(lp4212
S'k'
asg30
VF
sg16
S'Y'
sg14
I11
sg19
Nsg93
I14
sS'.thisIndex'
p4213
I14
sa(dp4214
g17
(lp4215
S'k'
asg18
S'N'
sS'.thisRepN'
p4216
I35
sg26
S'Y'
sg20
S'N'
sg31
g32
sS'.thisTrialN'
p4217
I11
sS'.thisN'
p4218
I536
sg25
S'Y'
sg15
(lp4219
S'k'
asg30
VF
sg16
S'N'
sg14
I11
sg19
(lp4220
S'd'
asg93
I7
sS'.thisIndex'
p4221
I7
sa(dp4222
g17
(lp4223
S'd'
asg18
S'Y'
sS'.thisRepN'
p4224
I35
sg26
S'Y'
sg20
S'Y'
sg31
g32
sS'.thisTrialN'
p4225
I12
sS'.thisN'
p4226
I537
sg25
S'Y'
sg15
(lp4227
S'd'
asg30
VF
sg16
S'N'
sg14
I11
sg19
(lp4228
S'space'
p4229
asg93
I2
sS'.thisIndex'
p4230
I2
sa(dp4231
g17
(lp4232
S'k'
asg18
S'Y'
sS'.thisRepN'
p4233
I35
sg26
S'Y'
sg20
S'N'
sg31
g32
sS'.thisTrialN'
p4234
I13
sS'.thisN'
p4235
I538
sg25
S'Y'
sg15
(lp4236
S'd'
asg30
VF
sg16
S'Y'
sg14
I11
sg19
Nsg93
I0
sS'.thisIndex'
p4237
I0
sa(dp4238
g17
(lp4239
S'k'
asg18
S'N'
sS'.thisRepN'
p4240
I35
sg26
S'Y'
sg20
S'Y'
sg31
g32
sS'.thisTrialN'
p4241
I14
sS'.thisN'
p4242
I539
sg25
S'Y'
sg15
(lp4243
S'd'
asg30
VF
sg16
S'Y'
sg14
I11
sg19
Nsg93
I11
sS'.thisIndex'
p4244
I11
sa(dp4245
g17
(lp4246
S'd'
asg18
S'N'
sS'.thisRepN'
p4247
I36
sg26
S'Y'
sg20
S'Y'
sg31
g32
sS'.thisTrialN'
p4248
I0
sS'.thisN'
p4249
I540
sg25
S'Y'
sg15
(lp4250
S'd'
asg30
VF
sg16
S'N'
sg14
I11
sg19
Nsg93
I5
sS'.thisIndex'
p4251
I5
sa(dp4252
g17
(lp4253
S'k'
asg18
S'N'
sS'.thisRepN'
p4254
I36
sg26
S'Y'
sg20
S'Y'
sg31
g32
sS'.thisTrialN'
p4255
I1
sS'.thisN'
p4256
I541
sg25
S'Y'
sg15
(lp4257
S'd'
asg30
VF
sg16
S'Y'
sg14
I11
sg19
Nsg93
I12
sS'.thisIndex'
p4258
I12
sa(dp4259
g17
(lp4260
S'k'
asg18
S'N'
sS'.thisRepN'
p4261
I36
sg26
S'Y'
sg20
S'Y'
sg31
g32
sS'.thisTrialN'
p4262
I2
sS'.thisN'
p4263
I542
sg25
S'Y'
sg15
(lp4264
S'k'
asg30
VF
sg16
S'N'
sg14
I11
sg19
Nsg93
I11
sS'.thisIndex'
p4265
I11
sa(dp4266
g17
(lp4267
S'd'
asg18
S'Y'
sS'.thisRepN'
p4268
I36
sg26
S'Y'
sg20
S'Y'
sg31
g32
sS'.thisTrialN'
p4269
I3
sS'.thisN'
p4270
I543
sg25
S'Y'
sg15
(lp4271
S'd'
asg30
VF
sg16
S'N'
sg14
I11
sg19
(lp4272
S'space'
p4273
asg93
I0
sS'.thisIndex'
p4274
I0
sa(dp4275
g17
(lp4276
S'd'
asg18
S'N'
sS'.thisRepN'
p4277
I36
sg26
S'Y'
sg20
S'Y'
sg31
g32
sS'.thisTrialN'
p4278
I4
sS'.thisN'
p4279
I544
sg25
S'Y'
sg15
(lp4280
S'd'
asg30
VF
sg16
S'N'
sg14
I11
sg19
Nsg93
I8
sS'.thisIndex'
p4281
I8
sa(dp4282
g17
(lp4283
S'k'
asg18
S'N'
sS'.thisRepN'
p4284
I36
sg26
S'Y'
sg20
S'Y'
sg31
g32
sS'.thisTrialN'
p4285
I5
sS'.thisN'
p4286
I545
sg25
S'Y'
sg15
(lp4287
S'd'
asg30
VF
sg16
S'Y'
sg14
I11
sg19
Nsg93
I7
sS'.thisIndex'
p4288
I7
sa(dp4289
g17
(lp4290
S'k'
asg18
S'N'
sS'.thisRepN'
p4291
I36
sg26
S'Y'
sg20
S'Y'
sg31
g32
sS'.thisTrialN'
p4292
I6
sS'.thisN'
p4293
I546
sg25
S'Y'
sg15
(lp4294
S'k'
asg30
VF
sg16
S'N'
sg14
I11
sg19
Nsg93
I8
sS'.thisIndex'
p4295
I8
sa(dp4296
g17
(lp4297
S'k'
asg18
S'N'
sS'.thisRepN'
p4298
I36
sg26
S'Y'
sg20
S'Y'
sg31
g32
sS'.thisTrialN'
p4299
I7
sS'.thisN'
p4300
I547
sg25
S'Y'
sg15
(lp4301
S'd'
asg30
VF
sg16
S'Y'
sg14
I11
sg19
Nsg93
I6
sS'.thisIndex'
p4302
I6
sa(dp4303
g17
(lp4304
S'k'
asg18
S'Y'
sS'.thisRepN'
p4305
I36
sg26
S'Y'
sg20
S'N'
sg31
g32
sS'.thisTrialN'
p4306
I8
sS'.thisN'
p4307
I548
sg25
S'Y'
sg15
(lp4308
S'k'
asg30
VF
sg16
S'N'
sg14
I11
sg19
Nsg93
I3
sS'.thisIndex'
p4309
I3
sa(dp4310
g17
(lp4311
S'k'
asg18
S'N'
sg22
I28
sg26
S'Y'
sS'.thisN'
p4312
I549
sg20
S'Y'
sg31
g32
sS'.thisTrialN'
p4313
I9
sS'.thisRepN'
p4314
I36
sg21
I21
sg25
S'Y'
sg23
I21
sg15
(lp4315
S'd'
asg30
VF
sg16
S'Y'
sg14
I11
sg19
Nsg93
I6
sS'.thisIndex'
p4316
I6
sa(dp4317
g17
(lp4318
S'k'
asS'.thisIndex'
p4319
I5
sS'.thisRepN'
p4320
I36
sg26
S'Y'
sg30
VF
sg31
g32
sS'.thisTrialN'
p4321
I10
sS'.thisN'
p4322
I550
sg25
S'Y'
sg15
(lp4323
S'k'
asg16
S'N'
sg14
I12
sg93
I5
sa(dp4324
g17
(lp4325
S'k'
asS'.thisIndex'
p4326
I7
sS'.thisRepN'
p4327
I36
sg26
S'Y'
sg30
VF
sg31
g32
sS'.thisTrialN'
p4328
I11
sS'.thisN'
p4329
I551
sg25
S'Y'
sg15
(lp4330
S'k'
asg16
S'N'
sg14
I12
sg93
I7
sa(dp4331
g17
(lp4332
S'k'
asg18
S'Y'
sS'.thisRepN'
p4333
I36
sg26
S'Y'
sg20
S'N'
sg31
g32
sS'.thisTrialN'
p4334
I12
sS'.thisN'
p4335
I552
sg25
S'Y'
sg15
(lp4336
S'd'
asg30
VF
sg16
S'Y'
sg14
I12
sg19
Nsg93
I11
sS'.thisIndex'
p4337
I11
sa(dp4338
g17
(lp4339
S'k'
asg18
S'N'
sS'.thisRepN'
p4340
I36
sg26
S'Y'
sg20
S'Y'
sg31
g32
sS'.thisTrialN'
p4341
I13
sS'.thisN'
p4342
I553
sg25
S'Y'
sg15
(lp4343
S'd'
asg30
VF
sg16
S'Y'
sg14
I12
sg19
Nsg93
I2
sS'.thisIndex'
p4344
I2
sa(dp4345
g17
(lp4346
S'k'
asg18
S'Y'
sS'.thisRepN'
p4347
I36
sg26
S'Y'
sg20
S'N'
sg31
g32
sS'.thisTrialN'
p4348
I14
sS'.thisN'
p4349
I554
sg25
S'Y'
sg15
(lp4350
S'k'
asg30
VF
sg16
S'N'
sg14
I12
sg19
Nsg93
I13
sS'.thisIndex'
p4351
I13
sa(dp4352
g17
(lp4353
S'd'
asg18
S'N'
sS'.thisRepN'
p4354
I37
sg26
S'Y'
sg20
S'Y'
sg31
g32
sS'.thisTrialN'
p4355
I0
sS'.thisN'
p4356
I555
sg25
S'Y'
sg15
(lp4357
S'd'
asg30
VF
sg16
S'N'
sg14
I12
sg19
Nsg93
I2
sS'.thisIndex'
p4358
I2
sa(dp4359
g17
(lp4360
S'k'
asg18
S'Y'
sS'.thisRepN'
p4361
I37
sg26
S'Y'
sg20
S'Y'
sg31
g32
sS'.thisTrialN'
p4362
I1
sS'.thisN'
p4363
I556
sg25
S'Y'
sg15
(lp4364
S'k'
asg30
VF
sg16
S'N'
sg14
I12
sg19
(lp4365
S'space'
p4366
asg93
I9
sS'.thisIndex'
p4367
I9
sa(dp4368
g17
(lp4369
S'k'
asg18
S'N'
sS'.thisRepN'
p4370
I37
sg26
S'Y'
sg20
S'Y'
sg31
g32
sS'.thisTrialN'
p4371
I2
sS'.thisN'
p4372
I557
sg25
S'Y'
sg15
(lp4373
S'k'
asg30
VF
sg16
S'N'
sg14
I12
sg19
Nsg93
I13
sS'.thisIndex'
p4374
I13
sa(dp4375
g17
(lp4376
S'd'
asg18
S'N'
sS'.thisRepN'
p4377
I37
sg26
S'Y'
sg20
S'Y'
sg31
g32
sS'.thisTrialN'
p4378
I3
sS'.thisN'
p4379
I558
sg25
S'Y'
sg15
(lp4380
S'd'
asg30
VF
sg16
S'N'
sg14
I12
sg19
Nsg93
I4
sS'.thisIndex'
p4381
I4
sa(dp4382
g17
(lp4383
S'd'
asg18
S'Y'
sS'.thisRepN'
p4384
I37
sg26
S'Y'
sg20
S'N'
sg31
g32
sS'.thisTrialN'
p4385
I4
sS'.thisN'
p4386
I559
sg25
S'Y'
sg15
(lp4387
S'k'
asg30
VF
sg16
S'Y'
sg14
I12
sg19
Nsg93
I13
sS'.thisIndex'
p4388
I13
sa(dp4389
g17
(lp4390
S'k'
asg18
S'Y'
sS'.thisRepN'
p4391
I37
sg26
S'Y'
sg20
S'N'
sg31
g32
sS'.thisTrialN'
p4392
I5
sS'.thisN'
p4393
I560
sg25
S'Y'
sg15
(lp4394
S'k'
asg30
VF
sg16
S'N'
sg14
I12
sg19
Nsg93
I12
sS'.thisIndex'
p4395
I12
sa(dp4396
g17
(lp4397
S'd'
asg18
S'Y'
sS'.thisRepN'
p4398
I37
sg26
S'Y'
sg20
S'N'
sg31
g32
sS'.thisTrialN'
p4399
I6
sS'.thisN'
p4400
I561
sg25
S'Y'
sg15
(lp4401
S'k'
asg30
VF
sg16
S'Y'
sg14
I12
sg19
Nsg93
I6
sS'.thisIndex'
p4402
I6
sa(dp4403
g17
(lp4404
S'd'
asg18
S'N'
sS'.thisRepN'
p4405
I37
sg26
S'Y'
sg20
S'Y'
sg31
g32
sS'.thisTrialN'
p4406
I7
sS'.thisN'
p4407
I562
sg25
S'Y'
sg15
(lp4408
S'k'
asg30
VF
sg16
S'Y'
sg14
I12
sg19
Nsg93
I9
sS'.thisIndex'
p4409
I9
sa(dp4410
g17
(lp4411
S'k'
asg18
S'Y'
sS'.thisRepN'
p4412
I37
sg26
S'Y'
sg20
S'N'
sg31
g32
sS'.thisTrialN'
p4413
I8
sS'.thisN'
p4414
I563
sg25
S'Y'
sg15
(lp4415
S'k'
asg30
VF
sg16
S'N'
sg14
I12
sg19
Nsg93
I13
sS'.thisIndex'
p4416
I13
sa(dp4417
g17
(lp4418
S'k'
asg18
S'Y'
sS'.thisRepN'
p4419
I37
sg26
S'Y'
sg20
S'N'
sg31
g32
sS'.thisTrialN'
p4420
I9
sS'.thisN'
p4421
I564
sg25
S'Y'
sg15
(lp4422
S'k'
asg30
VF
sg16
S'N'
sg14
I12
sg19
Nsg93
I8
sS'.thisIndex'
p4423
I8
sa(dp4424
g17
(lp4425
S'k'
asg18
S'N'
sS'.thisRepN'
p4426
I37
sg26
S'Y'
sg20
S'Y'
sg31
g32
sS'.thisTrialN'
p4427
I10
sS'.thisN'
p4428
I565
sg25
S'Y'
sg15
(lp4429
S'd'
asg30
VF
sg16
S'Y'
sg14
I12
sg19
Nsg93
I11
sS'.thisIndex'
p4430
I11
sa(dp4431
g17
(lp4432
S'd'
asg18
S'N'
sS'.thisRepN'
p4433
I37
sg26
S'Y'
sg20
S'Y'
sg31
g32
sS'.thisTrialN'
p4434
I11
sS'.thisN'
p4435
I566
sg25
S'Y'
sg15
(lp4436
S'k'
asg30
VF
sg16
S'Y'
sg14
I12
sg19
Nsg93
I8
sS'.thisIndex'
p4437
I8
sa(dp4438
g17
(lp4439
S'd'
asg18
S'N'
sS'.thisRepN'
p4440
I37
sg26
S'Y'
sg20
S'Y'
sg31
g32
sS'.thisTrialN'
p4441
I12
sS'.thisN'
p4442
I567
sg25
S'Y'
sg15
(lp4443
S'd'
asg30
VF
sg16
S'N'
sg14
I12
sg19
Nsg93
I11
sS'.thisIndex'
p4444
I11
sa(dp4445
g17
(lp4446
S'k'
asg18
S'N'
sS'.thisRepN'
p4447
I37
sg26
S'Y'
sg20
S'Y'
sg31
g32
sS'.thisTrialN'
p4448
I13
sS'.thisN'
p4449
I568
sg25
S'Y'
sg15
(lp4450
S'k'
asg30
VF
sg16
S'N'
sg14
I12
sg19
Nsg93
I4
sS'.thisIndex'
p4451
I4
sa(dp4452
g17
(lp4453
S'd'
asg18
S'N'
sS'.thisRepN'
p4454
I37
sg26
S'Y'
sg20
S'Y'
sg31
g32
sS'.thisTrialN'
p4455
I14
sS'.thisN'
p4456
I569
sg25
S'Y'
sg15
(lp4457
S'd'
asg30
VF
sg16
S'N'
sg14
I12
sg19
Nsg93
I8
sS'.thisIndex'
p4458
I8
sa(dp4459
g17
(lp4460
S'd'
asg18
S'N'
sS'.thisRepN'
p4461
I38
sg26
S'Y'
sg20
S'Y'
sg31
g32
sS'.thisTrialN'
p4462
I0
sS'.thisN'
p4463
I570
sg25
S'Y'
sg15
(lp4464
S'k'
asg30
VF
sg16
S'Y'
sg14
I12
sg19
Nsg93
I4
sS'.thisIndex'
p4465
I4
sa(dp4466
g17
(lp4467
S'd'
asg18
S'Y'
sS'.thisRepN'
p4468
I38
sg26
S'Y'
sg20
S'N'
sg31
g32
sS'.thisTrialN'
p4469
I1
sS'.thisN'
p4470
I571
sg25
S'Y'
sg15
(lp4471
S'd'
asg30
VF
sg16
S'N'
sg14
I12
sg19
Nsg93
I3
sS'.thisIndex'
p4472
I3
sa(dp4473
g17
(lp4474
S'k'
asg18
S'Y'
sS'.thisRepN'
p4475
I38
sg26
S'Y'
sg20
S'N'
sg31
g32
sS'.thisTrialN'
p4476
I2
sS'.thisN'
p4477
I572
sg25
S'Y'
sg15
(lp4478
S'k'
asg30
VF
sg16
S'N'
sg14
I12
sg19
Nsg93
I9
sS'.thisIndex'
p4479
I9
sa(dp4480
g17
(lp4481
S'k'
asg18
S'N'
sS'.thisRepN'
p4482
I38
sg26
S'Y'
sg20
S'Y'
sg31
g32
sS'.thisTrialN'
p4483
I3
sS'.thisN'
p4484
I573
sg25
S'Y'
sg15
(lp4485
S'd'
asg30
VF
sg16
S'Y'
sg14
I12
sg19
Nsg93
I4
sS'.thisIndex'
p4486
I4
sa(dp4487
g17
(lp4488
S'k'
asg18
S'N'
sS'.thisRepN'
p4489
I38
sg26
S'Y'
sg20
S'Y'
sg31
g32
sS'.thisTrialN'
p4490
I4
sS'.thisN'
p4491
I574
sg25
S'Y'
sg15
(lp4492
S'k'
asg30
VF
sg16
S'N'
sg14
I12
sg19
Nsg93
I10
sS'.thisIndex'
p4493
I10
sa(dp4494
g17
(lp4495
S'd'
asg18
S'Y'
sS'.thisRepN'
p4496
I38
sg26
S'Y'
sg20
S'N'
sg31
g32
sS'.thisTrialN'
p4497
I5
sS'.thisN'
p4498
I575
sg25
S'Y'
sg15
(lp4499
S'd'
asg30
VF
sg16
S'N'
sg14
I12
sg19
Nsg93
I14
sS'.thisIndex'
p4500
I14
sa(dp4501
g17
(lp4502
S'k'
asg18
S'N'
sS'.thisRepN'
p4503
I38
sg26
S'Y'
sg20
S'Y'
sg31
g32
sS'.thisTrialN'
p4504
I6
sS'.thisN'
p4505
I576
sg25
S'Y'
sg15
(lp4506
S'k'
asg30
VF
sg16
S'N'
sg14
I12
sg19
Nsg93
I2
sS'.thisIndex'
p4507
I2
sa(dp4508
g17
(lp4509
S'd'
asg18
S'Y'
sS'.thisRepN'
p4510
I38
sg26
S'Y'
sg20
S'N'
sg31
g32
sS'.thisTrialN'
p4511
I7
sS'.thisN'
p4512
I577
sg25
S'Y'
sg15
(lp4513
S'd'
asg30
VF
sg16
S'N'
sg14
I12
sg19
Nsg93
I5
sS'.thisIndex'
p4514
I5
sa(dp4515
g17
(lp4516
S'd'
asg18
S'Y'
sS'.thisRepN'
p4517
I38
sg26
S'Y'
sg20
S'N'
sg31
g32
sS'.thisTrialN'
p4518
I8
sS'.thisN'
p4519
I578
sg25
S'Y'
sg15
(lp4520
S'k'
asg30
VF
sg16
S'Y'
sg14
I12
sg19
Nsg93
I1
sS'.thisIndex'
p4521
I1
sa(dp4522
g17
(lp4523
S'd'
asg18
S'Y'
sS'.thisRepN'
p4524
I38
sg26
S'Y'
sg20
S'N'
sg31
g32
sS'.thisTrialN'
p4525
I9
sS'.thisN'
p4526
I579
sg25
S'Y'
sg15
(lp4527
S'd'
asg30
VF
sg16
S'N'
sg14
I12
sg19
Nsg93
I10
sS'.thisIndex'
p4528
I10
sa(dp4529
g18
S'N'
sS'.thisRepN'
p4530
I38
sg26
S'Y'
sg20
S'Y'
sg31
g32
sS'.thisTrialN'
p4531
I10
sS'.thisN'
p4532
I580
sg25
S'Y'
sg15
Nsg30
VF
sg16
g98
sg14
I12
sg19
Nsg93
I5
sS'.thisIndex'
p4533
I5
sa(dp4534
g17
(lp4535
S'd'
asg18
S'N'
sS'.thisRepN'
p4536
I38
sg26
S'Y'
sg20
S'N'
sg31
g32
sS'.thisTrialN'
p4537
I11
sS'.thisN'
p4538
I581
sg25
S'Y'
sg15
(lp4539
S'k'
asg30
VF
sg16
S'Y'
sg14
I12
sg19
(lp4540
S'k'
asg93
I7
sS'.thisIndex'
p4541
I7
sa(dp4542
g17
(lp4543
S'd'
asg18
S'Y'
sS'.thisRepN'
p4544
I38
sg26
S'Y'
sg20
S'Y'
sg31
g32
sS'.thisTrialN'
p4545
I12
sS'.thisN'
p4546
I582
sg25
S'Y'
sg15
(lp4547
S'd'
asg30
VF
sg16
S'N'
sg14
I12
sg19
(lp4548
S'space'
p4549
asg93
I1
sS'.thisIndex'
p4550
I1
sa(dp4551
g17
(lp4552
S'd'
asg18
S'Y'
sS'.thisRepN'
p4553
I38
sg26
S'Y'
sg20
S'Y'
sg31
g32
sS'.thisTrialN'
p4554
I13
sS'.thisN'
p4555
I583
sg25
S'Y'
sg15
(lp4556
S'k'
asg30
VF
sg16
S'Y'
sg14
I12
sg19
(lp4557
S'space'
p4558
asg93
I0
sS'.thisIndex'
p4559
I0
sa(dp4560
g17
(lp4561
S'k'
asg18
S'Y'
sS'.thisRepN'
p4562
I38
sg26
S'Y'
sg20
S'N'
sg31
g32
sS'.thisTrialN'
p4563
I14
sS'.thisN'
p4564
I584
sg25
S'Y'
sg15
(lp4565
S'd'
asg30
VF
sg16
S'Y'
sg14
I12
sg19
Nsg93
I11
sS'.thisIndex'
p4566
I11
sa(dp4567
g17
(lp4568
S'd'
asg18
S'N'
sS'.thisRepN'
p4569
I39
sg26
S'Y'
sg20
S'N'
sg31
g32
sS'.thisTrialN'
p4570
I0
sS'.thisN'
p4571
I585
sg25
S'Y'
sg15
(lp4572
S'k'
asg30
VF
sg16
S'Y'
sg14
I12
sg19
(lp4573
S'space'
p4574
asg93
I13
sS'.thisIndex'
p4575
I13
sa(dp4576
g17
(lp4577
S'k'
asg18
S'N'
sS'.thisRepN'
p4578
I39
sg26
S'Y'
sg20
S'Y'
sg31
g32
sS'.thisTrialN'
p4579
I1
sS'.thisN'
p4580
I586
sg25
S'Y'
sg15
(lp4581
S'd'
asg30
VF
sg16
S'Y'
sg14
I12
sg19
Nsg93
I10
sS'.thisIndex'
p4582
I10
sa(dp4583
g17
(lp4584
S'd'
asg18
S'N'
sS'.thisRepN'
p4585
I39
sg26
S'Y'
sg20
S'N'
sg31
g32
sS'.thisTrialN'
p4586
I2
sS'.thisN'
p4587
I587
sg25
S'Y'
sg15
(lp4588
S'k'
asg30
VF
sg16
S'Y'
sg14
I12
sg19
(lp4589
S'space'
p4590
asg93
I4
sS'.thisIndex'
p4591
I4
sa(dp4592
g17
(lp4593
S'd'
asg18
S'Y'
sS'.thisRepN'
p4594
I39
sg26
S'Y'
sg20
S'N'
sg31
g32
sS'.thisTrialN'
p4595
I3
sS'.thisN'
p4596
I588
sg25
S'Y'
sg15
(lp4597
S'd'
asg30
VF
sg16
S'N'
sg14
I12
sg19
(lp4598
S'd'
asg93
I10
sS'.thisIndex'
p4599
I10
sa(dp4600
g17
(lp4601
S'k'
asg18
S'N'
sS'.thisRepN'
p4602
I39
sg26
S'Y'
sg20
S'N'
sg31
g32
sS'.thisTrialN'
p4603
I4
sS'.thisN'
p4604
I589
sg25
S'Y'
sg15
(lp4605
S'k'
asg30
VF
sg16
S'N'
sg14
I12
sg19
(lp4606
S'space'
p4607
asg93
I1
sS'.thisIndex'
p4608
I1
sa(dp4609
g17
(lp4610
S'k'
asg18
S'Y'
sS'.thisRepN'
p4611
I39
sg26
S'Y'
sg20
S'Y'
sg31
g32
sS'.thisTrialN'
p4612
I5
sS'.thisN'
p4613
I590
sg25
S'Y'
sg15
(lp4614
S'k'
asg30
VF
sg16
S'N'
sg14
I12
sg19
(lp4615
S'space'
p4616
asg93
I5
sS'.thisIndex'
p4617
I5
sa(dp4618
g17
(lp4619
S'k'
asg18
S'Y'
sS'.thisRepN'
p4620
I39
sg26
S'Y'
sg20
S'Y'
sg31
g32
sS'.thisTrialN'
p4621
I6
sS'.thisN'
p4622
I591
sg25
S'Y'
sg15
(lp4623
S'd'
asg30
VF
sg16
S'Y'
sg14
I12
sg19
(lp4624
S'space'
p4625
asg93
I3
sS'.thisIndex'
p4626
I3
sa(dp4627
g17
(lp4628
S'k'
asg18
S'N'
sS'.thisRepN'
p4629
I39
sg26
S'Y'
sg20
S'Y'
sg31
g32
sS'.thisTrialN'
p4630
I7
sS'.thisN'
p4631
I592
sg25
S'Y'
sg15
(lp4632
S'k'
asg30
VF
sg16
S'N'
sg14
I12
sg19
Nsg93
I9
sS'.thisIndex'
p4633
I9
sa(dp4634
g17
(lp4635
S'k'
asg18
S'Y'
sS'.thisRepN'
p4636
I39
sg26
S'Y'
sg20
S'Y'
sg31
g32
sS'.thisTrialN'
p4637
I8
sS'.thisN'
p4638
I593
sg25
S'Y'
sg15
(lp4639
S'd'
asg30
VF
sg16
S'Y'
sg14
I12
sg19
(lp4640
S'space'
p4641
asg93
I12
sS'.thisIndex'
p4642
I12
sa(dp4643
g17
(lp4644
S'd'
asg18
S'Y'
sS'.thisRepN'
p4645
I39
sg26
S'Y'
sg20
S'Y'
sg31
g32
sS'.thisTrialN'
p4646
I9
sS'.thisN'
p4647
I594
sg25
S'Y'
sg15
(lp4648
S'k'
asg30
VF
sg16
S'Y'
sg14
I12
sg19
(lp4649
S'space'
p4650
asg93
I11
sS'.thisIndex'
p4651
I11
sa(dp4652
g17
(lp4653
S'k'
asg18
S'N'
sS'.thisRepN'
p4654
I39
sg26
S'Y'
sg20
S'N'
sg31
g32
sS'.thisTrialN'
p4655
I10
sS'.thisN'
p4656
I595
sg25
S'Y'
sg15
(lp4657
S'd'
asg30
VF
sg16
S'Y'
sg14
I12
sg19
(lp4658
S'space'
p4659
asg93
I0
sS'.thisIndex'
p4660
I0
sa(dp4661
g17
(lp4662
S'k'
asg18
S'N'
sS'.thisRepN'
p4663
I39
sg26
S'Y'
sg20
S'N'
sg31
g32
sS'.thisTrialN'
p4664
I11
sS'.thisN'
p4665
I596
sg25
S'Y'
sg15
(lp4666
S'k'
asg30
VF
sg16
S'N'
sg14
I12
sg19
(lp4667
S'space'
p4668
asg93
I0
sS'.thisIndex'
p4669
I0
sa(dp4670
g17
(lp4671
S'k'
asg18
S'N'
sS'.thisRepN'
p4672
I39
sg26
S'Y'
sg20
S'N'
sg31
g32
sS'.thisTrialN'
p4673
I12
sS'.thisN'
p4674
I597
sg25
S'Y'
sg15
(lp4675
S'd'
asg30
VF
sg16
S'Y'
sg14
I12
sg19
(lp4676
S'space'
p4677
asg93
I2
sS'.thisIndex'
p4678
I2
sa(dp4679
g17
(lp4680
S'k'
asg18
S'N'
sS'.thisRepN'
p4681
I39
sg26
S'Y'
sg20
S'N'
sg31
g32
sS'.thisTrialN'
p4682
I13
sS'.thisN'
p4683
I598
sg25
S'Y'
sg15
(lp4684
S'k'
asg30
VF
sg16
S'N'
sg14
I12
sg19
(lp4685
S'space'
p4686
asg93
I12
sS'.thisIndex'
p4687
I12
sa(dp4688
g17
(lp4689
S'k'
asg18
S'N'
sg22
I24
sg26
S'Y'
sS'.thisN'
p4690
I599
sg20
S'N'
sg31
g32
sS'.thisTrialN'
p4691
I14
sS'.thisRepN'
p4692
I39
sg21
I22
sg25
S'Y'
sg23
I22
sg15
(lp4693
S'd'
asg30
VF
sg16
S'Y'
sg14
I12
sg19
(lp4694
S'space'
p4695
asg93
I9
sS'.thisIndex'
p4696
I9
sasS'loops'
p4697
(lp4698
g1
(g35
g3
NtRp4699
(dp4700
g38
Nsg39
(lp4701
sg40
I174621680
sg10
S''
sg6
g41
sg42
I1
sg27
I01
sg28
Nsg43
g1
(g44
g45
(dp4702
g47
g48
(g49
g50
g51
S'b'
tRp4703
(I1
(I600
I1
tg54
I00
S'\x00\x00\x80?\x00\x00\x80?\x00\x00\x80?\x00\x00\x80?\x00\x00\x80?\x00\x00\x80?\x00\x00\x80?\x00\x00\x80?\x00\x00\x80?\x00\x00\x80?\x00\x00\x80?\x00\x00\x80?\x00\x00\x80?\x00\x00\x80?\x00\x00\x80?\x00\x00\x80?\x00\x00\x80?\x00\x00\x80?\x00\x00\x80?\x00\x00\x80?\x00\x00\x80?\x00\x00\x80?\x00\x00\x80?\x00\x00\x80?\x00\x00\x80?\x00\x00\x80?\x00\x00\x80?\x00\x00\x80?\x00\x00\x80?\x00\x00\x80?\x00\x00\x80?\x00\x00\x80?\x00\x00\x80?\x00\x00\x80?\x00\x00\x80?\x00\x00\x80?\x00\x00\x80?\x00\x00\x80?\x00\x00\x80?\x00\x00\x80?\x00\x00\x80?\x00\x00\x80?\x00\x00\x80?\x00\x00\x80?\x00\x00\x80?\x00\x00\x80?\x00\x00\x80?\x00\x00\x80?\x00\x00\x80?\x00\x00\x80?\x00\x00\x80?\x00\x00\x80?\x00\x00\x80?\x00\x00\x80?\x00\x00\x80?\x00\x00\x80?\x00\x00\x80?\x00\x00\x80?\x00\x00\x80?\x00\x00\x80?\x00\x00\x80?\x00\x00\x80?\x00\x00\x80?\x00\x00\x80?\x00\x00\x80?\x00\x00\x80?\x00\x00\x80?\x00\x00\x80?\x00\x00\x80?\x00\x00\x80?\x00\x00\x80?\x00\x00\x80?\x00\x00\x80?\x00\x00\x80?\x00\x00\x80?\x00\x00\x80?\x00\x00\x80?\x00\x00\x80?\x00\x00\x80?\x00\x00\x80?\x00\x00\x80?\x00\x00\x80?\x00\x00\x80?\x00\x00\x80?\x00\x00\x80?\x00\x00\x80?\x00\x00\x80?\x00\x00\x80?\x00\x00\x80?\x00\x00\x80?\x00\x00\x80?\x00\x00\x80?\x00\x00\x80?\x00\x00\x80?\x00\x00\x80?\x00\x00\x80?\x00\x00\x80?\x00\x00\x80?\x00\x00\x80?\x00\x00\x80?\x00\x00\x80?\x00\x00\x80?\x00\x00\x80?\x00\x00\x80?\x00\x00\x80?\x00\x00\x80?\x00\x00\x80?\x00\x00\x80?\x00\x00\x80?\x00\x00\x80?\x00\x00\x80?\x00\x00\x80?\x00\x00\x80?\x00\x00\x80?\x00\x00\x80?\x00\x00\x80?\x00\x00\x80?\x00\x00\x80?\x00\x00\x80?\x00\x00\x80?\x00\x00\x80?\x00\x00\x80?\x00\x00\x80?\x00\x00\x80?\x00\x00\x80?\x00\x00\x80?\x00\x00\x80?\x00\x00\x80?\x00\x00\x80?\x00\x00\x80?\x00\x00\x80?\x00\x00\x80?\x00\x00\x80?\x00\x00\x80?\x00\x00\x80?\x00\x00\x80?\x00\x00\x80?\x00\x00\x80?\x00\x00\x80?\x00\x00\x80?\x00\x00\x80?\x00\x00\x80?\x00\x00\x80?\x00\x00\x80?\x00\x00\x80?\x00\x00\x80?\x00\x00\x80?\x00\x00\x80?\x00\x00\x80?\x00\x00\x80?\x00\x00\x80?\x00\x00\x80?\x00\x00\x80?\x00\x00\x80?\x00\x00\x80?\x00\x00\x80?\x00\x00\x80?\x00\x00\x80?\x00\x00\x80?\x00\x00\x80?\x00\x00\x80?\x00\x00\x80?\x00\x00\x80?\x00\x00\x80?\x00\x00\x80?\x00\x00\x80?\x00\x00\x80?\x00\x00\x80?\x00\x00\x80?\x00\x00\x80?\x00\x00\x80?\x00\x00\x80?\x00\x00\x80?\x00\x00\x80?\x00\x00\x80?\x00\x00\x80?\x00\x00\x80?\x00\x00\x80?\x00\x00\x80?\x00\x00\x80?\x00\x00\x80?\x00\x00\x80?\x00\x00\x80?\x00\x00\x80?\x00\x00\x80?\x00\x00\x80?\x00\x00\x80?\x00\x00\x80?\x00\x00\x80?\x00\x00\x80?\x00\x00\x80?\x00\x00\x80?\x00\x00\x80?\x00\x00\x80?\x00\x00\x80?\x00\x00\x80?\x00\x00\x80?\x00\x00\x80?\x00\x00\x80?\x00\x00\x80?\x00\x00\x80?\x00\x00\x80?\x00\x00\x80?\x00\x00\x80?\x00\x00\x80?\x00\x00\x80?\x00\x00\x80?\x00\x00\x80?\x00\x00\x80?\x00\x00\x80?\x00\x00\x80?\x00\x00\x80?\x00\x00\x80?\x00\x00\x80?\x00\x00\x80?\x00\x00\x80?\x00\x00\x80?\x00\x00\x80?\x00\x00\x80?\x00\x00\x80?\x00\x00\x80?\x00\x00\x80?\x00\x00\x80?\x00\x00\x80?\x00\x00\x80?\x00\x00\x80?\x00\x00\x80?\x00\x00\x80?\x00\x00\x80?\x00\x00\x80?\x00\x00\x80?\x00\x00\x80?\x00\x00\x80?\x00\x00\x80?\x00\x00\x80?\x00\x00\x80?\x00\x00\x80?\x00\x00\x80?\x00\x00\x80?\x00\x00\x80?\x00\x00\x80?\x00\x00\x80?\x00\x00\x80?\x00\x00\x80?\x00\x00\x80?\x00\x00\x80?\x00\x00\x80?\x00\x00\x80?\x00\x00\x80?\x00\x00\x80?\x00\x00\x80?\x00\x00\x80?\x00\x00\x80?\x00\x00\x80?\x00\x00\x80?\x00\x00\x80?\x00\x00\x80?\x00\x00\x80?\x00\x00\x80?\x00\x00\x80?\x00\x00\x80?\x00\x00\x80?\x00\x00\x80?\x00\x00\x80?\x00\x00\x80?\x00\x00\x80?\x00\x00\x80?\x00\x00\x80?\x00\x00\x80?\x00\x00\x80?\x00\x00\x80?\x00\x00\x80?\x00\x00\x80?\x00\x00\x80?\x00\x00\x80?\x00\x00\x80?\x00\x00\x80?\x00\x00\x80?\x00\x00\x80?\x00\x00\x80?\x00\x00\x80?\x00\x00\x80?\x00\x00\x80?\x00\x00\x80?\x00\x00\x80?\x00\x00\x80?\x00\x00\x80?\x00\x00\x80?\x00\x00\x80?\x00\x00\x80?\x00\x00\x80?\x00\x00\x80?\x00\x00\x80?\x00\x00\x80?\x00\x00\x80?\x00\x00\x80?\x00\x00\x80?\x00\x00\x80?\x00\x00\x80?\x00\x00\x80?\x00\x00\x80?\x00\x00\x80?\x00\x00\x80?\x00\x00\x80?\x00\x00\x80?\x00\x00\x80?\x00\x00\x80?\x00\x00\x80?\x00\x00\x80?\x00\x00\x80?\x00\x00\x80?\x00\x00\x80?\x00\x00\x80?\x00\x00\x80?\x00\x00\x80?\x00\x00\x80?\x00\x00\x80?\x00\x00\x80?\x00\x00\x80?\x00\x00\x80?\x00\x00\x80?\x00\x00\x80?\x00\x00\x80?\x00\x00\x80?\x00\x00\x80?\x00\x00\x80?\x00\x00\x80?\x00\x00\x80?\x00\x00\x80?\x00\x00\x80?\x00\x00\x80?\x00\x00\x80?\x00\x00\x80?\x00\x00\x80?\x00\x00\x80?\x00\x00\x80?\x00\x00\x80?\x00\x00\x80?\x00\x00\x80?\x00\x00\x80?\x00\x00\x80?\x00\x00\x80?\x00\x00\x80?\x00\x00\x80?\x00\x00\x80?\x00\x00\x80?\x00\x00\x80?\x00\x00\x80?\x00\x00\x80?\x00\x00\x80?\x00\x00\x80?\x00\x00\x80?\x00\x00\x80?\x00\x00\x80?\x00\x00\x80?\x00\x00\x80?\x00\x00\x80?\x00\x00\x80?\x00\x00\x80?\x00\x00\x80?\x00\x00\x80?\x00\x00\x80?\x00\x00\x80?\x00\x00\x80?\x00\x00\x80?\x00\x00\x80?\x00\x00\x80?\x00\x00\x80?\x00\x00\x80?\x00\x00\x80?\x00\x00\x80?\x00\x00\x80?\x00\x00\x80?\x00\x00\x80?\x00\x00\x80?\x00\x00\x80?\x00\x00\x80?\x00\x00\x80?\x00\x00\x80?\x00\x00\x80?\x00\x00\x80?\x00\x00\x80?\x00\x00\x80?\x00\x00\x80?\x00\x00\x80?\x00\x00\x80?\x00\x00\x80?\x00\x00\x80?\x00\x00\x80?\x00\x00\x80?\x00\x00\x80?\x00\x00\x80?\x00\x00\x80?\x00\x00\x80?\x00\x00\x80?\x00\x00\x80?\x00\x00\x80?\x00\x00\x80?\x00\x00\x80?\x00\x00\x80?\x00\x00\x80?\x00\x00\x80?\x00\x00\x80?\x00\x00\x80?\x00\x00\x80?\x00\x00\x80?\x00\x00\x80?\x00\x00\x80?\x00\x00\x80?\x00\x00\x80?\x00\x00\x80?\x00\x00\x80?\x00\x00\x80?\x00\x00\x80?\x00\x00\x80?\x00\x00\x80?\x00\x00\x80?\x00\x00\x80?\x00\x00\x80?\x00\x00\x80?\x00\x00\x80?\x00\x00\x80?\x00\x00\x80?\x00\x00\x80?\x00\x00\x80?\x00\x00\x80?\x00\x00\x80?\x00\x00\x80?\x00\x00\x80?\x00\x00\x80?\x00\x00\x80?\x00\x00\x80?\x00\x00\x80?\x00\x00\x80?\x00\x00\x80?\x00\x00\x80?\x00\x00\x80?\x00\x00\x80?\x00\x00\x80?\x00\x00\x80?\x00\x00\x80?\x00\x00\x80?\x00\x00\x80?\x00\x00\x80?\x00\x00\x80?\x00\x00\x80?\x00\x00\x80?\x00\x00\x80?\x00\x00\x80?\x00\x00\x80?\x00\x00\x80?\x00\x00\x80?\x00\x00\x80?\x00\x00\x80?\x00\x00\x80?\x00\x00\x80?\x00\x00\x80?\x00\x00\x80?\x00\x00\x80?\x00\x00\x80?\x00\x00\x80?\x00\x00\x80?\x00\x00\x80?\x00\x00\x80?\x00\x00\x80?\x00\x00\x80?\x00\x00\x80?\x00\x00\x80?\x00\x00\x80?\x00\x00\x80?\x00\x00\x80?\x00\x00\x80?\x00\x00\x80?\x00\x00\x80?\x00\x00\x80?\x00\x00\x80?\x00\x00\x80?\x00\x00\x80?\x00\x00\x80?\x00\x00\x80?\x00\x00\x80?\x00\x00\x80?\x00\x00\x80?\x00\x00\x80?\x00\x00\x80?\x00\x00\x80?\x00\x00\x80?\x00\x00\x80?\x00\x00\x80?\x00\x00\x80?\x00\x00\x80?\x00\x00\x80?\x00\x00\x80?\x00\x00\x80?\x00\x00\x80?\x00\x00\x80?\x00\x00\x80?\x00\x00\x80?\x00\x00\x80?\x00\x00\x80?\x00\x00\x80?\x00\x00\x80?\x00\x00\x80?\x00\x00\x80?\x00\x00\x80?\x00\x00\x80?\x00\x00\x80?\x00\x00\x80?\x00\x00\x80?\x00\x00\x80?\x00\x00\x80?\x00\x00\x80?\x00\x00\x80?\x00\x00\x80?\x00\x00\x80?\x00\x00\x80?\x00\x00\x80?\x00\x00\x80?\x00\x00\x80?\x00\x00\x80?\x00\x00\x80?\x00\x00\x80?\x00\x00\x80?\x00\x00\x80?\x00\x00\x80?\x00\x00\x80?\x00\x00\x80?\x00\x00\x80?\x00\x00\x80?\x00\x00\x80?\x00\x00\x80?\x00\x00\x80?\x00\x00\x80?\x00\x00\x80?\x00\x00\x80?\x00\x00\x80?\x00\x00\x80?\x00\x00\x80?\x00\x00\x80?\x00\x00\x80?\x00\x00\x80?\x00\x00\x80?\x00\x00\x80?\x00\x00\x80?\x00\x00\x80?\x00\x00\x80?\x00\x00\x80?\x00\x00\x80?\x00\x00\x80?\x00\x00\x80?\x00\x00\x80?\x00\x00\x80?\x00\x00\x80?\x00\x00\x80?\x00\x00\x80?\x00\x00\x80?\x00\x00\x80?\x00\x00\x80?\x00\x00\x80?\x00\x00\x80?\x00\x00\x80?\x00\x00\x80?\x00\x00\x80?\x00\x00\x80?\x00\x00\x80?\x00\x00\x80?\x00\x00\x80?\x00\x00\x80?\x00\x00\x80?\x00\x00\x80?\x00\x00\x80?\x00\x00\x80?\x00\x00\x80?\x00\x00\x80?\x00\x00\x80?\x00\x00\x80?\x00\x00\x80?\x00\x00\x80?\x00\x00\x80?\x00\x00\x80?\x00\x00\x80?\x00\x00\x80?\x00\x00\x80?\x00\x00\x80?\x00\x00\x80?\x00\x00\x80?\x00\x00\x80?\x00\x00\x80?\x00\x00\x80?\x00\x00\x80?\x00\x00\x80?\x00\x00\x80?\x00\x00\x80?\x00\x00\x80?\x00\x00\x80?\x00\x00\x80?\x00\x00\x80?\x00\x00\x80?\x00\x00\x80?\x00\x00\x80?'
S'\x00\x00\x00\x00\x00\x00\x00\x00\x00\x00\x00\x00\x00\x00\x00\x00\x00\x00\x00\x00\x00\x00\x00\x00\x00\x00\x00\x00\x00\x00\x00\x00\x00\x00\x00\x00\x00\x00\x00\x00\x00\x00\x00\x00\x00\x00\x00\x00\x00\x00\x00\x00\x00\x00\x00\x00\x00\x00\x00\x00\x00\x00\x00\x00\x00\x00\x00\x00\x00\x00\x00\x00\x00\x00\x00\x00\x00\x00\x00\x00\x00\x00\x00\x00\x00\x00\x00\x00\x00\x00\x00\x00\x00\x00\x00\x00\x00\x00\x00\x00\x00\x00\x00\x00\x00\x00\x00\x00\x00\x00\x00\x00\x00\x00\x00\x00\x00\x00\x00\x00\x00\x00\x00\x00\x00\x00\x00\x00\x00\x00\x00\x00\x00\x00\x00\x00\x00\x00\x00\x00\x00\x00\x00\x00\x00\x00\x00\x00\x00\x00\x00\x00\x00\x00\x00\x00\x00\x00\x00\x00\x00\x00\x00\x00\x00\x00\x00\x00\x00\x00\x00\x00\x00\x00\x00\x00\x00\x00\x00\x00\x00\x00\x00\x00\x00\x00\x00\x00\x00\x00\x00\x00\x00\x00\x00\x00\x00\x00\x00\x00\x00\x00\x00\x00\x00\x00\x00\x00\x00\x00\x00\x00\x00\x00\x00\x00\x00\x00\x00\x00\x00\x00\x00\x00\x00\x00\x00\x00\x00\x00\x00\x00\x00\x00\x00\x00\x00\x00\x00\x00\x00\x00\x00\x00\x00\x00\x00\x00\x00\x00\x00\x00\x00\x00\x00\x00\x00\x00\x00\x00\x00\x00\x00\x00\x00\x00\x00\x00\x00\x00\x00\x00\x00\x00\x00\x00\x00\x00\x00\x00\x00\x00\x00\x00\x00\x00\x00\x00\x00\x00\x00\x00\x00\x00\x00\x00\x00\x00\x00\x00\x00\x00\x00\x00\x00\x00\x00\x00\x00\x00\x00\x00\x00\x00\x00\x00\x00\x00\x00\x00\x00\x00\x00\x00\x00\x00\x00\x00\x00\x00\x00\x00\x00\x00\x00\x00\x00\x00\x00\x00\x00\x00\x00\x00\x00\x00\x00\x00\x00\x00\x00\x00\x00\x00\x00\x00\x00\x00\x00\x00\x00\x00\x00\x00\x00\x00\x00\x00\x00\x00\x00\x00\x00\x00\x00\x00\x00\x00\x00\x00\x00\x00\x00\x00\x00\x00\x00\x00\x00\x00\x00\x00\x00\x00\x00\x00\x00\x00\x00\x00\x00\x00\x00\x00\x00\x00\x00\x00\x00\x00\x00\x00\x00\x00\x00\x00\x00\x00\x00\x00\x00\x00\x00\x00\x00\x00\x00\x00\x00\x00\x00\x00\x00\x00\x00\x00\x00\x00\x00\x00\x00\x00\x00\x00\x00\x00\x00\x00\x00\x00\x00\x00\x00\x00\x00\x00\x00\x00\x00\x00\x00\x00\x00\x00\x00\x00\x00\x00\x00\x00\x00\x00\x00\x00\x00\x00\x00\x00\x00\x00\x00\x00\x00\x00\x00\x00\x00\x00\x00\x00\x00\x00\x00\x00\x00\x00\x00\x00\x00\x00\x00\x00\x00\x00\x00\x00\x00\x00\x00\x00\x00\x00\x00\x00\x00\x00\x00\x00\x00\x00\x00\x00\x00\x00\x00\x00\x00\x00\x00\x00\x00\x00\x00\x00\x00\x00\x00\x00\x00\x00\x00\x00\x00\x00\x00\x00\x00\x00\x00\x00\x00\x00\x00\x00\x00\x00\x00\x00\x00\x00\x00\x00\x00\x00\x00\x00\x00\x00\x00\x00\x00\x00\x00\x00\x00\x00\x00\x00\x00\x00\x00\x00\x00\x00\x00\x00\x00\x00\x00\x00\x00\x00\x00\x00\x00\x00\x00\x00\x00\x00'
Ntbsg55
g48
(g49
g50
g51
S'b'
tRp4704
(I1
(I600
I1
tg54
I00
S'\x00\x80\xe2C\x00\x00\x96C\x00\x80\x8cC\x00\x00\x13D\x00\x00\x90A\x00\x00\rC\x00\x00\xd2C\x00\x80\xa3C\x00\x80\xefC\x00\x80\xebC\x00\x00\xfcB\x00\x80\x02D\x00\x00~C\x00\x80\x98C\x00\xc0\x00D\x00\x00 C\x00\x00{C\x00\x80\xacC\x00\x00\x00D\x00\x00\xbaB\x00\x00GC\x00\x00\xaeB\x00\x80\xbaC\x00\x80\x11D\x00\x00aC\x00\x80\xa2C\x00\x00\xdcC\x00\x00JC\x00\x00<B\x00\x00bC\x00\x00\x01C\x00\x00\xf8A\x00\x00\xe2C\x00\x00\x8fC\x00\x00%C\x00\x00\xc0B\x00\x80\x8dC\x00\x00\xd0A\x00\x80\xd7C\x00\x00\x08D\x00\x80\x83C\x00\x00\xb3C\x00\x00\xacC\x00\xc0\x07D\x00\x00NC\x00\x00(B\x00\x000C\x00\x00\x11D\x00\x00\x97C\x00\x80\xeeC\x00\x80\xb5C\x00\x00\x84C\x00\x00}C\x00\x00\x8bC\x00\x80\x97C\x00\x00VC\x00\x80\x86C\x00\x00\xafC\x00\x00\xaaC\x00\x00\x08B\x00\x00\x92C\x00\x00\x1bC\x00\x80\x0cD\x00\x80\xe5C\x00\x00\xa1C\x00\x00\xa0B\x00\x80\x88C\x00\x80\xddC\x00\x00\x98B\x00\xc0\x0bD\x00\x80\xc7C\x00\x00\xdfC\x00\x80\x82C\x00\x00\xddC\x00\x00\xd6C\x00\x00\x03D\x00\xc0\x04D\x00\x00\xd4B\x00\x00=C\x00\x00\xf0B\x00\x00pA\x00\x00\xacB\x00\x00\xdeB\x00\x00\x0bC\x00\x00BC\x00\x80\xa4C\x00\x00XC\x00\x00fC\x00\xc0\x10D\x00\x00\x9dC\x00\x00\nC\x00\x00\xa6C\x00\x00\xb9C\x00\x00\x95C\x00\x80\xccC\x00@\x11D\x00\x00,C\x00\x80\xe9C\x00\x00\tC\x00\x00\xbcC\x00\x00\xb7C\x00\x00\xc6B\x00\x80\x00D\x00\x00\xaaB\x00\x80\xe3C\x00@\x12D\x00\x00\xa2C\x00\x00`A\x00\x80\xfbC\x00\x00\x03C\x00\x00nC\x00\x80\x0bD\x00@\x03D\x00\x00\x14C\x00\x00\x80B\x00\x80\xb8C\x00\x80\x87C\x00\x00&C\x00\x00\xa7C\x00\x00\xceB\x00\x00\x17C\x00\x00\x1cC\x00\x80\x14D\x00\x00\xc8A\x00\x00\x8cB\x00@\x0cD\x00\x00UC\x00\x00\xccB\x00\x00LC\x00\x00WC\x00\x00FC\x00\x00\x86C\x00\xc0\x02D\x00\x00\xbdC\x00\x00\xe9C\x00\x00\xa4C\x00\x00@@\x00\x00\x88A\x00\x00\xf2B\x00\x00\x91C\x00\x00xC\x00\x00\xdbC\x00\x00\x0eC\x00\x80\xe8C\x00\x00\xb0A\x00\x00\xd8A\x00\x00\x06C\x00\x80\x8fC\x00\x00yC\x00\x80\xb7C\x00\x00?C\x00\x80\xf0C\x00\x00\xe6C\x00\x00mC\x00\x005C\x00\x80\xadC\x00\x00cC\x00\x00\xb6B\x00\x00\xfbC\x00\x80\xd2C\x00\x00\x9cC\x00\x004C\x00\x00\x11C\x00\xc0\x05D\x00\x80\xd1C\x00\x80\x93C\x00\x00\x08C\x00\x00tC\x00\x00\xbfC\x00\x00\xe0@\x00\x00\x05D\x00\x00\x0fC\x00\x00eC\x00\x00\x04B\x00\x00\xe8A\x00\xc0\nD\x00\x00\x02D\x00\x00qC\x00\x00\x16C\x00\x00\x18C\x00\x00\xa2B\x00\x00DB\x00\x00dB\x00@\x0eD\x00\x00^C\x00\x00\xc7C\x00\x00\xb8A\x00\x80\x89C\x00\x001C\x00\x00\xcdC\x00\x00\xc6C\x00\x00\xf6B\x00\x00\xb4B\x00\x00PB\x00\x00\xe8C\x00\x00\x1fC\x00\x80\xd4C\x00\x00\xcaB\x00\x00AC\x00\x00[C\x00\x00\x00\x00\x00\x00\x13C\x00\x80\xd9C\x00\x80\xcaC\x00\x00\x12C\x00\x00\x9aB\x00\x80\rD\x00\x00\x96B\x00\x00OC\x00\xc0\x12D\x00\x00\x01D\x00\x80\x05D\x00\x00\xa6B\x00\x00\xf4C\x00\x80\xc2C\x00\x00\xe5C\x00\x00\xeaC\x00\x80\xa8C\x00\x00\xc2B\x00\x00\x19C\x00\x80\xa6C\x00\x80\x10D\x00\x00\xc8C\x00\x80\xcfC\x00\x00\xecB\x00\x80\xf4C\x00\x00\xfcC\x00@\x06D\x00\xc0\x11D\x00\x00\xe0B\x00\x80\x0eD\x00\x00\xb5C\x00\x00.C\x00\x00\x98A\x00\x008C\x00\x00\xd7C\x00\x00\xf3C\x00\x00oC\x00\xc0\x0fD\x00\x00\xffC\x00\xc0\x0eD\x00\x00$B\x00\x00\xf9C\x00\x80\xdaC\x00\x00\xa8A\x00\x80\xcbC\x00\x00\x9aC\x00\x00+C\x00\x80\xabC\x00\x00\xd6B\x00\x00\xf5C\x00\x00\xadC\x00\x80\x96C\x00\x00\x04D\x00\x00\xd8B\x00\x80\xbfC\x00\x00DC\x00\x00\\B\x00\x00\x9fC\x00\xc0\rD\x00\x00\xe1C\x00\x00(C\x00\x00\x98C\x00\x00tB\x00\x00\xa8C\x00\x80\xc0C\x00\x00\xefC\x00@\x00D\x00\x00\xf8B\x00\x00\xd5C\x00\x00\xb2C\x00\x00\xceC\x00\x00#C\x00\x00lC\x00\x80\xbeC\x00\x00!C\x00\x00|C\x00\x00\x7fC\x00@\x10D\x00\x00\xdaC\x00\x00\xbbC\x00\x00dC\x00\x00\xb2B\x00\x00YC\x00\x80\xd3C\x00\x00\x00B\x00\x00\xe4B\x00\x00lB\x00\x00LB\x00\x80\xdcC\x00\x00HB\x00\x80\xb9C\x00\x00PC\x00\x00\x07D\x00\x80\xd8C\x00\x00\\C\x00\x80\x94C\x00\x00\x07C\x00\x00;C\x00\x00CC\x00\x00\x00@\x00\x00\x86B\x00@\x0fD\x00\x00wC\x00@\x07D\x00\x00\x82B\x00\x00`C\x00\x80\x9fC\x00\x00\xd0C\x00\x80\xfcC\x00\x00@B\x00@\nD\x00\x00\x8eC\x00\x80\xecC\x00\x00\x92B\x00\x00hB\x00\x00\x9eB\x00\x00hC\x00\xc0\x06D\x00\x80\x90C\x00\x00\x90B\x00\x80\xb3C\x00\x00\x80?\x00\x000B\x00\x80\x9eC\x00\x00TC\x00\x00\xcbC\x00\x00\x8dC\x00\x00\xeeB\x00\x00\x0fD\x00\x80\xf6C\x00\x00\xf7C\x00\x00\xb4C\x00\x80\x9dC\x00\x00\xc0A\x00\x80\xd5C\x00\x80\xa9C\x00\x00\x02C\x00\x00\x00A\x00\x00\xb0C\x00\x80\xcdC\x00\x80\xc6C\x00\x80\xf7C\x00@\x08D\x00\x00IC\x00\x00\xd0B\x00\x00\x8aC\x00\x80\xe0C\x00\x008B\x00\x00\xc9C\x00\x00\xedC\x00\x80\xc3C\x00\x00\xe6B\x00\x00\xd9C\x00\x80\xb1C\x00\x00\xc5C\x00\x00\xb0B\x00\x00@A\x00\x00\rD\x00\x00@C\x00\x80\xc5C\x00\x80\x01D\x00\x00\xd8C\x00@\x15D\x00\x00rC\x00\x80\xffC\x00\x00\xa0C\x00\x00\xc4B\x00\x80\xaeC\x00\xc0\x14D\x00\xc0\x15D\x00\x80\xedC\x00\x80\x13D\x00\x00\xe0A\x00\x00\x9bC\x00\x00\xa8B\x00\x00\x12D\x00\x00\x1aC\x00\x80\xb0C\x00\x00\x15D\x00\x00\xecC\x00\x80\x06D\x00\x00PA\x00\x00\xe2B\x00\x00\x00C\x00\x80\xa7C\x00\x00\x0bD\x00\x00\xbaC\x00\x00\xf8C\x00\x00\xbeC\x00\x80\xceC\x00\x00\x8aB\x00\x80\xc4C\x00\x80\xf5C\x00\x00\x80A\x00\x80\xc9C\x00\x00\xbcB\x00\x80\xc1C\x00\x00\x18B\x00\x00EC\x00\x00\x83C\x00\x00\xe7C\x00\x80\xf1C\x00\x00\xbeB\x00\x00\x90C\x00\x00\xaeC\x00\x00\tD\x00\x00\x88B\x00\x00-C\x00\x00\xc8B\x00\x80\nD\x00\xc0\x13D\x00\x00\xfdC\x00\x00TB\x00\x80\x9cC\x00\x80\xe4C\x00\x00\x10C\x00\x00"C\x00\x80\x95C\x00\x00\x8cC\x00\x80\x12D\x00\x00SC\x00\x80\xaaC\x00\x00\x94C\x00\x80\x91C\x00\x00 A\x00\x00\xb8B\x00\x00)C\x00\x00<C\x00\x00xB\x00\x00]C\x00\x00\x06D\x00\x00\x9cB\x00\x00RC\x00@\x13D\x00\x00\xfeB\x00\x00$C\x00\x80\x8aC\x00\xc0\x0cD\x00\x80\xf3C\x00\x80\x9bC\x00\x80\x08D\x00\x00\x82C\x00\x00\x1eC\x00\x00\x0cC\x00\x006C\x00\xc0\x01D\x00\x00\xb8C\x00\x00\xdaB\x00\x00\xf6C\x00\x009C\x00\x80\tD\x00\x00\x15C\x00\x80\x04D\x00\x00\x93C\x00\x80\xd0C\x00\x00\x0eD\x00\x000A\x00\x00\xa5C\x00\x00\xc0@\x00@\x04D\x00\x007C\x00\x00\xa0A\x00\x00iC\x00\x80\xbbC\x00\x00\xa4B\x00\x00\x84B\x00\x00\xd4C\x00\x80\xf2C\x00\x00XB\x00\x00\x81C\x00\x80\x8bC\x00\x00gC\x00\x00\xf4B\x00\x00zC\x00\x00 B\x00\x00,B\x00\x00\x0cB\x00\x80\x81C\x00@\x14D\x00@\x05D\x00\x80\x0fD\x00\x00\x99C\x00\x00\x10D\x00\x00\x10B\x00\x80\xa0C\x00\x80\x03D\x00\x80\x80C\x00\x00\xcaC\x00\x00\xccC\x00\x00\x1dC\x00\x00|B\x00\x00\xd1C\x00\x00\xe4C\x00\x00\x05C\x00\x80\x07D\x00\x00jC\x00\x00\x89C\x00\x00\x10A\x00\x00\xabC\x00\x80\xa5C\x00\x80\x84C\x00\x00\x8eB\x00\x00\xc2C\x00\x80\xafC\x00\x80\xe6C\x00\x00\xfeC\x00\xc0\x03D\x00\x80\xdeC\x00\x80\xf8C\x00\x00\xc1C\x00\x00`B\x00\x00\x80@\x00\x00\xdeC\x00\x00\x14D\x00\x00\xfaB\x00@\tD\x00\x80\x9aC\x00\x80\xc8C\x00\xc0\tD\x00\x00\'C\x00\x00\xc4C\x00\x00\xeeC\x00\x00\x88C\x00\x80\x8eC\x00\x80\x15D\x00\x00\x80C\x00\x80\xd6C\x00\x00\xf2C\x00\x80\xbdC\x00\xc0\x08D\x00\x00vC\x00\x80\xb6C\x00\x00\xc0C\x00\x00MC\x00\x00pC\x00\x00\x85C\x00\x002C\x00\x00\xd3C\x00\x80\xfaC\x00\x80\xb2C\x00@\x0bD\x00\x00/C\x00\x00QC\x00\x00\xeaB\x00\x00\x04C\x00\x00\x14B\x00\x00\xe3C\x00@\rD\x00\x00\xd2B\x00\x80\xe7C\x00\x00\x1cB\x00\x00\xe0C\x00\x00\x87C\x00\x00\xf0C\x00\x80\x99C\x00\x00>C\x00\x00\xa9C\x00\x00ZC\x00\x00_C\x00\x80\xe1C\x00\x80\x92C\x00\x00pB\x00\x00\x0cD\x00\x00\xc3C\x00\x00\xa3C\x00\x80\xb4C\x00\x00\nD\x00\x00*C\x00\x00\xa0@\x00\x00:C\x00\x00\xe8B\x00\x00uC\x00\x00\xcfC\x00\x00\xb1C\x00\x80\xfdC\x00\x00\xb6C\x00\x003C\x00\x80\xf9C\x00\x00\xebC\x00@\x02D\x00\x00\xfaC\x00\x80\xbcC\x00\x00\x94B\x00@\x01D\x00\x004B\x00\x00HC\x00\x00kC\x00\x80\x85C\x00\x00\x9eC\x00\x00\xf1C\x00\x00\xf0A\x00\x00sC\x00\x80\xfeC\x00\x80\xdfC\x00\x80\xeaC\x00\x00KC\x00\x80\xa1C\x00\x80\xdbC\x00\x00\xdcB'
S'\x00\x00\x00\x00\x00\x00\x00\x00\x00\x00\x00\x00\x00\x00\x00\x00\x00\x00\x00\x00\x00\x00\x00\x00\x00\x00\x00\x00\x00\x00\x00\x00\x00\x00\x00\x00\x00\x00\x00\x00\x00\x00\x00\x00\x00\x00\x00\x00\x00\x00\x00\x00\x00\x00\x00\x00\x00\x00\x00\x00\x00\x00\x00\x00\x00\x00\x00\x00\x00\x00\x00\x00\x00\x00\x00\x00\x00\x00\x00\x00\x00\x00\x00\x00\x00\x00\x00\x00\x00\x00\x00\x00\x00\x00\x00\x00\x00\x00\x00\x00\x00\x00\x00\x00\x00\x00\x00\x00\x00\x00\x00\x00\x00\x00\x00\x00\x00\x00\x00\x00\x00\x00\x00\x00\x00\x00\x00\x00\x00\x00\x00\x00\x00\x00\x00\x00\x00\x00\x00\x00\x00\x00\x00\x00\x00\x00\x00\x00\x00\x00\x00\x00\x00\x00\x00\x00\x00\x00\x00\x00\x00\x00\x00\x00\x00\x00\x00\x00\x00\x00\x00\x00\x00\x00\x00\x00\x00\x00\x00\x00\x00\x00\x00\x00\x00\x00\x00\x00\x00\x00\x00\x00\x00\x00\x00\x00\x00\x00\x00\x00\x00\x00\x00\x00\x00\x00\x00\x00\x00\x00\x00\x00\x00\x00\x00\x00\x00\x00\x00\x00\x00\x00\x00\x00\x00\x00\x00\x00\x00\x00\x00\x00\x00\x00\x00\x00\x00\x00\x00\x00\x00\x00\x00\x00\x00\x00\x00\x00\x00\x00\x00\x00\x00\x00\x00\x00\x00\x00\x00\x00\x00\x00\x00\x00\x00\x00\x00\x00\x00\x00\x00\x00\x00\x00\x00\x00\x00\x00\x00\x00\x00\x00\x00\x00\x00\x00\x00\x00\x00\x00\x00\x00\x00\x00\x00\x00\x00\x00\x00\x00\x00\x00\x00\x00\x00\x00\x00\x00\x00\x00\x00\x00\x00\x00\x00\x00\x00\x00\x00\x00\x00\x00\x00\x00\x00\x00\x00\x00\x00\x00\x00\x00\x00\x00\x00\x00\x00\x00\x00\x00\x00\x00\x00\x00\x00\x00\x00\x00\x00\x00\x00\x00\x00\x00\x00\x00\x00\x00\x00\x00\x00\x00\x00\x00\x00\x00\x00\x00\x00\x00\x00\x00\x00\x00\x00\x00\x00\x00\x00\x00\x00\x00\x00\x00\x00\x00\x00\x00\x00\x00\x00\x00\x00\x00\x00\x00\x00\x00\x00\x00\x00\x00\x00\x00\x00\x00\x00\x00\x00\x00\x00\x00\x00\x00\x00\x00\x00\x00\x00\x00\x00\x00\x00\x00\x00\x00\x00\x00\x00\x00\x00\x00\x00\x00\x00\x00\x00\x00\x00\x00\x00\x00\x00\x00\x00\x00\x00\x00\x00\x00\x00\x00\x00\x00\x00\x00\x00\x00\x00\x00\x00\x00\x00\x00\x00\x00\x00\x00\x00\x00\x00\x00\x00\x00\x00\x00\x00\x00\x00\x00\x00\x00\x00\x00\x00\x00\x00\x00\x00\x00\x00\x00\x00\x00\x00\x00\x00\x00\x00\x00\x00\x00\x00\x00\x00\x00\x00\x00\x00\x00\x00\x00\x00\x00\x00\x00\x00\x00\x00\x00\x00\x00\x00\x00\x00\x00\x00\x00\x00\x00\x00\x00\x00\x00\x00\x00\x00\x00\x00\x00\x00\x00\x00\x00\x00\x00\x00\x00\x00\x00\x00\x00\x00\x00\x00\x00\x00\x00\x00\x00\x00\x00\x00\x00\x00\x00\x00\x00\x00\x00\x00\x00\x00\x00\x00\x00\x00\x00\x00\x00\x00\x00\x00\x00\x00\x00\x00\x00\x00\x00\x00\x00\x00\x00\x00\x00\x00\x00\x00\x00'
NtbstRp4705
(dp4706
g59
(dp4707
g47
I01
sg55
I01
ssg61
g4699
sg62
(lp4708
g47
ag55
asg64
(lp4709
I600
aI1
asbsg66
S'random'
p4710
sg68
g69
(g50
(I0
tS'b'
tRp4711
(I1
(I600
I1
tg53
(S'i4'
I0
I1
tRp4712
(I3
S'<'
NNNI-1
I-1
I0
tbI01
S'\xc8\x00\x00\x00B\x01\x00\x00,\x01\x00\x00\x88\x00\x00\x00\x00\x02\x00\x009\x02\x00\x00\xcb\x01\x00\x00\xa9\x00\x00\x00R\x01\x00\x00\xf2\x01\x00\x00\xa9\x01\x00\x00\xc9\x01\x00\x00e\x01\x00\x00~\x01\x00\x00k\x00\x00\x00P\x00\x00\x00\x8a\x01\x00\x00\x89\x00\x00\x00\x04\x00\x00\x00\xe9\x00\x00\x00\xce\x01\x00\x00\xf4\x00\x00\x00\x90\x00\x00\x00\xba\x00\x00\x00N\x01\x00\x00{\x00\x00\x00%\x00\x00\x00\x91\x00\x00\x00u\x01\x00\x00\xae\x00\x00\x00O\x02\x00\x00\x1f\x00\x00\x00\x1d\x01\x00\x00\xad\x00\x00\x00;\x00\x00\x00\xdd\x01\x00\x00\xe4\x01\x00\x00"\x02\x00\x00\x8e\x01\x00\x00\'\x02\x00\x00\xdb\x01\x00\x00\xf1\x00\x00\x00-\x00\x00\x00\xdc\x01\x00\x00C\x01\x00\x00I\x02\x00\x00\\\x01\x00\x00\x1c\x00\x00\x006\x01\x00\x00\xb5\x00\x00\x00"\x01\x00\x00 \x01\x00\x00\xc1\x00\x00\x00\x9d\x01\x00\x00\xd5\x01\x00\x00\x01\x01\x00\x00\xff\x01\x00\x00\xb6\x00\x00\x00;\x01\x00\x00\x1f\x01\x00\x002\x02\x00\x00\x07\x01\x00\x00\xad\x01\x00\x00\xeb\x01\x00\x00r\x00\x00\x001\x01\x00\x00\xd2\x01\x00\x00-\x01\x00\x00\x97\x01\x00\x00\x87\x01\x00\x00|\x00\x00\x00\xf6\x01\x00\x00@\x01\x00\x00:\x01\x00\x00G\x02\x00\x00\xcf\x00\x00\x00D\x00\x00\x00\xcd\x00\x00\x00\xb0\x01\x00\x00<\x01\x00\x00A\x00\x00\x00\xb4\x00\x00\x00\xd1\x01\x00\x00\xd4\x00\x00\x00w\x01\x00\x00g\x00\x00\x00Q\x00\x00\x00\x15\x00\x00\x00d\x01\x00\x00\x1a\x01\x00\x00\xc0\x00\x00\x00\x9d\x00\x00\x00\xaa\x01\x00\x00\x13\x00\x00\x00\x8c\x01\x00\x00\x93\x01\x00\x00#\x00\x00\x00\xda\x00\x00\x00o\x01\x00\x00e\x00\x00\x00\x99\x01\x00\x00\xc5\x00\x00\x00\x7f\x00\x00\x00w\x00\x00\x00Y\x01\x00\x00%\x02\x00\x00M\x00\x00\x00\xf9\x00\x00\x00\xfe\x00\x00\x00\xc0\x01\x00\x00W\x02\x00\x00R\x00\x00\x00\xe5\x00\x00\x00\x7f\x01\x00\x00\x1e\x01\x00\x00`\x01\x00\x00;\x02\x00\x00 \x02\x00\x00\xe0\x00\x00\x00H\x01\x00\x00O\x00\x00\x00\x8a\x00\x00\x00\xd9\x01\x00\x00\xbf\x00\x00\x00\x0c\x01\x00\x00\x03\x02\x00\x00\n\x00\x00\x00\xb3\x01\x00\x00\x80\x01\x00\x00\x1e\x00\x00\x00Q\x01\x00\x00m\x00\x00\x00!\x02\x00\x00\xee\x01\x00\x00\x92\x00\x00\x00)\x01\x00\x00\xa6\x00\x00\x00b\x00\x00\x00Z\x00\x00\x00S\x00\x00\x00\xbc\x01\x00\x00\x05\x00\x00\x00\x8e\x00\x00\x00\xab\x00\x00\x00\xa0\x01\x00\x00\xa2\x00\x00\x00\xcc\x00\x00\x00\xc9\x00\x00\x00q\x00\x00\x00\xc4\x01\x00\x00\xb2\x00\x00\x00x\x00\x00\x00\xb3\x00\x00\x00\xdb\x00\x00\x00y\x01\x00\x00=\x00\x00\x00y\x00\x00\x00\xea\x01\x00\x00\xbb\x01\x00\x00\xc3\x00\x00\x00\x0f\x00\x00\x00\x13\x01\x00\x00\xa1\x01\x00\x00\x10\x01\x00\x00\xb4\x01\x00\x00"\x00\x00\x00u\x00\x00\x00\x08\x02\x00\x00\x05\x01\x00\x00\xab\x01\x00\x008\x02\x00\x00\xf7\x00\x00\x00`\x00\x00\x00\x98\x01\x00\x00\xe8\x00\x00\x00\x1e\x02\x00\x00.\x00\x00\x00\xbc\x00\x00\x00\x19\x02\x00\x00A\x02\x00\x00\xa1\x00\x00\x00\x9a\x00\x00\x00\xbd\x01\x00\x00\xcd\x01\x00\x00\xea\x00\x00\x00\xc2\x01\x00\x00:\x02\x00\x00*\x01\x00\x00\xac\x01\x00\x00N\x00\x00\x00,\x02\x00\x00\x96\x00\x00\x00g\x01\x00\x00\xc6\x00\x00\x00T\x00\x00\x00+\x01\x00\x00\x00\x01\x00\x00\x8f\x01\x00\x00\x82\x00\x00\x00\x14\x00\x00\x00J\x02\x00\x00X\x01\x00\x00\x1b\x00\x00\x00T\x02\x00\x00\x80\x00\x00\x00\x16\x02\x00\x00,\x00\x00\x00\xd0\x00\x00\x00$\x01\x00\x00\x1f\x02\x00\x00\xb1\x01\x00\x00\xa5\x01\x00\x00E\x01\x00\x00~\x00\x00\x007\x00\x00\x00\x81\x00\x00\x00V\x00\x00\x00\x1b\x01\x00\x00.\x02\x00\x00\xc7\x00\x00\x00\'\x01\x00\x00\xae\x01\x00\x00\xb8\x00\x00\x00/\x02\x00\x002\x01\x00\x00\x18\x00\x00\x00\x1d\x00\x00\x00\x9c\x00\x00\x00\x19\x01\x00\x00\xac\x00\x00\x00W\x00\x00\x00\xd8\x01\x00\x00=\x01\x00\x00\xcf\x01\x00\x00\xf0\x01\x00\x00K\x02\x00\x00\x11\x01\x00\x00\x99\x00\x00\x00n\x00\x00\x00\xed\x00\x00\x00\x17\x02\x00\x00\xb1\x00\x00\x00l\x01\x00\x00P\x02\x00\x00\xa7\x00\x00\x00<\x02\x00\x00\x13\x02\x00\x00/\x01\x00\x00\x8c\x00\x00\x00\x94\x00\x00\x00\xda\x01\x00\x00\x10\x00\x00\x00\x14\x01\x00\x004\x00\x00\x00\x0c\x00\x00\x00\x15\x01\x00\x00\x0e\x02\x00\x00\xe7\x01\x00\x00\xd6\x01\x00\x00\xde\x01\x00\x00\xba\x01\x00\x00H\x00\x00\x00\x90\x01\x00\x00(\x00\x00\x003\x00\x00\x00\xf5\x01\x00\x00\x18\x02\x00\x00L\x02\x00\x00\x83\x00\x00\x008\x00\x00\x00)\x02\x00\x00t\x00\x00\x00\x0b\x02\x00\x00B\x00\x00\x00\xf1\x01\x00\x00\xbb\x00\x00\x00Z\x01\x00\x00\xb5\x01\x00\x005\x00\x00\x00\xd7\x01\x00\x00\xa3\x01\x00\x00\x02\x00\x00\x00G\x01\x00\x00$\x00\x00\x008\x01\x00\x00\x0c\x02\x00\x00!\x00\x00\x00\x93\x00\x00\x00\x94\x01\x00\x00?\x01\x00\x00\x8b\x00\x00\x00\xa8\x01\x00\x00<\x00\x00\x001\x02\x00\x00\xc6\x01\x00\x00\xa5\x00\x00\x00\xa7\x01\x00\x00(\x01\x00\x00]\x00\x00\x00\xa2\x01\x00\x00\x01\x00\x00\x00\xfc\x00\x00\x000\x00\x00\x006\x00\x00\x00\x06\x01\x00\x00\r\x00\x00\x00\xe2\x01\x00\x00+\x02\x00\x00\xf6\x00\x00\x00\x05\x02\x00\x00v\x01\x00\x00\xb8\x01\x00\x00\xa0\x00\x00\x00\x9e\x01\x00\x00Y\x00\x00\x00M\x01\x00\x00M\x02\x00\x00D\x01\x00\x00\x02\x01\x00\x003\x01\x00\x00n\x01\x00\x00\xe5\x01\x00\x00@\x00\x00\x00U\x02\x00\x00j\x00\x00\x00\x19\x00\x00\x005\x02\x00\x00\x07\x00\x00\x00\x87\x00\x00\x00U\x00\x00\x00\xca\x01\x00\x00\xf4\x01\x00\x00[\x00\x00\x00\xdc\x00\x00\x00v\x00\x00\x00\x81\x01\x00\x00\x08\x01\x00\x00\xd9\x00\x00\x00-\x02\x00\x00P\x01\x00\x00:\x00\x00\x00\xa6\x01\x00\x00\xf3\x01\x00\x00\xf8\x00\x00\x00*\x00\x00\x00\x11\x00\x00\x00\xfb\x00\x00\x00\x9b\x00\x00\x00\x95\x01\x00\x00p\x01\x00\x009\x00\x00\x00\xf8\x01\x00\x00S\x01\x00\x00z\x01\x00\x00>\x02\x00\x00b\x01\x00\x00\x0e\x01\x00\x00\x1c\x02\x00\x00)\x00\x00\x00A\x01\x00\x00L\x01\x00\x006\x02\x00\x00\xe7\x00\x00\x002\x00\x00\x00@\x02\x00\x00\x14\x02\x00\x00d\x00\x00\x00\x95\x00\x00\x00\xbf\x01\x00\x00s\x00\x00\x00\\\x00\x00\x00#\x01\x00\x00\x83\x01\x00\x00\x16\x00\x00\x00\x18\x01\x00\x00\xd0\x01\x00\x00c\x00\x00\x00F\x02\x00\x00\x85\x00\x00\x00\x11\x02\x00\x00\x85\x01\x00\x00\x12\x01\x00\x00\xa8\x00\x00\x00\xff\x00\x00\x00\x15\x02\x00\x00\t\x01\x00\x00\xfe\x01\x00\x00\x8d\x01\x00\x00\xf7\x01\x00\x00\xd6\x00\x00\x004\x02\x00\x00_\x01\x00\x00\t\x02\x00\x00\x88\x01\x00\x00c\x01\x00\x00h\x01\x00\x00\xbe\x00\x00\x00U\x01\x00\x00\xb9\x00\x00\x00F\x00\x00\x00\xde\x00\x00\x00\x06\x02\x00\x00]\x01\x00\x00\x8b\x01\x00\x00\xe8\x01\x00\x00\xcb\x00\x00\x00F\x01\x00\x00\xf5\x00\x00\x00\xe9\x01\x00\x00^\x00\x00\x00\xbd\x00\x00\x00T\x01\x00\x00\x0f\x01\x00\x00\x86\x01\x00\x00=\x02\x00\x00\xdf\x00\x00\x004\x01\x00\x00\xc7\x01\x00\x00\xec\x01\x00\x00\xa4\x00\x00\x00\x06\x00\x00\x00\x9f\x00\x00\x00\x1a\x02\x00\x00\x1c\x01\x00\x00\xd3\x01\x00\x00\xc4\x00\x00\x00\r\x01\x00\x00O\x01\x00\x00J\x00\x00\x00\x0f\x02\x00\x00\xeb\x00\x00\x00&\x00\x00\x00j\x01\x00\x00&\x01\x00\x00a\x01\x00\x00\xca\x00\x00\x00\x17\x01\x00\x00\xf3\x00\x00\x00\x8d\x00\x00\x00V\x02\x00\x00\x1a\x00\x00\x00!\x01\x00\x00I\x00\x00\x00C\x00\x00\x00\x01\x02\x00\x00\xfc\x01\x00\x00G\x00\x00\x00R\x02\x00\x00(\x02\x00\x00[\x01\x00\x00\x04\x01\x00\x000\x02\x00\x00 \x00\x00\x00\x00\x00\x00\x00#\x02\x00\x00h\x00\x00\x00\xed\x01\x00\x00\x9f\x01\x00\x00\xd7\x00\x00\x00?\x00\x00\x00\x98\x00\x00\x00\xf9\x01\x00\x00\x91\x01\x00\x00&\x02\x00\x00\xc2\x00\x00\x00\x8f\x00\x00\x00\x86\x00\x00\x00a\x00\x00\x00\xd8\x00\x00\x00S\x02\x00\x00C\x02\x00\x00\t\x00\x00\x00|\x01\x00\x009\x01\x00\x00^\x01\x00\x00s\x01\x00\x00\n\x02\x00\x001\x00\x00\x00\n\x01\x00\x00\x08\x00\x00\x00*\x02\x00\x00\x97\x00\x00\x00N\x02\x00\x00\x92\x01\x00\x00\x10\x02\x00\x00\xd4\x01\x00\x00\xec\x00\x00\x00\xb7\x01\x00\x00\xd5\x00\x00\x00\xe1\x00\x00\x00\xfa\x00\x00\x00\x89\x01\x00\x00\xc1\x01\x00\x00J\x01\x00\x00K\x01\x00\x00V\x01\x00\x00\x84\x01\x00\x00\xfd\x01\x00\x00\xf2\x00\x00\x00B\x02\x00\x00E\x02\x00\x00\x1b\x02\x00\x00\x9e\x00\x00\x00l\x00\x00\x00\xe2\x00\x00\x005\x01\x00\x00\x9c\x01\x00\x00?\x02\x00\x00\xfa\x01\x00\x00Q\x02\x00\x00\xef\x00\x00\x00m\x01\x00\x00\x12\x00\x00\x00\x0b\x01\x00\x00f\x00\x00\x00\x0e\x00\x00\x00\xd2\x00\x00\x00H\x02\x00\x00i\x01\x00\x00\xbe\x01\x00\x00\xb0\x00\x00\x00D\x02\x00\x00\x0b\x00\x00\x00\x84\x00\x00\x00K\x00\x00\x00p\x00\x00\x00\xe6\x01\x00\x00\xfb\x01\x00\x00\xfd\x00\x00\x00\xcc\x01\x00\x00\xc5\x01\x00\x00L\x00\x00\x00\xaa\x00\x00\x00\xe0\x01\x00\x00\xd3\x00\x00\x00\xa3\x00\x00\x00\xaf\x01\x00\x00\xe3\x00\x00\x00}\x01\x00\x00>\x01\x00\x00%\x01\x00\x000\x01\x00\x00\xef\x01\x00\x00+\x00\x00\x00\'\x00\x00\x00W\x01\x00\x00\xb9\x01\x00\x00\x12\x02\x00\x00\x96\x01\x00\x00\x04\x02\x00\x00\xc3\x01\x00\x00\x07\x02\x00\x007\x02\x00\x007\x01\x00\x00\x9a\x01\x00\x00\xaf\x00\x00\x00\x82\x01\x00\x00\x1d\x02\x00\x00o\x00\x00\x00E\x00\x00\x003\x02\x00\x00}\x00\x00\x00>\x00\x00\x00\xb6\x01\x00\x00f\x01\x00\x00$\x02\x00\x00\xce\x00\x00\x00\x03\x01\x00\x00\xc8\x01\x00\x00\xb7\x00\x00\x00\xe6\x00\x00\x00\xf0\x00\x00\x00I\x01\x00\x00.\x01\x00\x00\xe1\x01\x00\x00\xee\x00\x00\x00\xe3\x01\x00\x00\x16\x01\x00\x00\xdd\x00\x00\x00X\x00\x00\x00/\x00\x00\x00_\x00\x00\x00\x17\x00\x00\x00\xe4\x00\x00\x00x\x01\x00\x00i\x00\x00\x00\xa4\x01\x00\x00\xd1\x00\x00\x00\x03\x00\x00\x00\xb2\x01\x00\x00t\x01\x00\x00\x9b\x01\x00\x00\x02\x02\x00\x00\xdf\x01\x00\x00z\x00\x00\x00q\x01\x00\x00{\x01\x00\x00k\x01\x00\x00\r\x02\x00\x00r\x01\x00\x00'
tbsg73
I01
sg74
I1
sg75
I-1
sg76
(lp4713
I0
aI1
aI2
aI3
aI4
aI5
aI6
aI7
aI8
aI9
aI10
aI11
aI12
aI13
aI14
aI15
aI16
aI17
aI18
aI19
aI20
aI21
aI22
aI23
aI24
aI25
aI26
aI27
aI28
aI29
aI30
aI31
aI32
aI33
aI34
aI35
aI36
aI37
aI38
aI39
aI40
aI41
aI42
aI43
aI44
aI45
aI46
aI47
aI48
aI49
aI50
aI51
aI52
aI53
aI54
aI55
aI56
aI57
aI58
aI59
aI60
aI61
aI62
aI63
aI64
aI65
aI66
aI67
aI68
aI69
aI70
aI71
aI72
aI73
aI74
aI75
aI76
aI77
aI78
aI79
aI80
aI81
aI82
aI83
aI84
aI85
aI86
aI87
aI88
aI89
aI90
aI91
aI92
aI93
aI94
aI95
aI96
aI97
aI98
aI99
aI100
aI101
aI102
aI103
aI104
aI105
aI106
aI107
aI108
aI109
aI110
aI111
aI112
aI113
aI114
aI115
aI116
aI117
aI118
aI119
aI120
aI121
aI122
aI123
aI124
aI125
aI126
aI127
aI128
aI129
aI130
aI131
aI132
aI133
aI134
aI135
aI136
aI137
aI138
aI139
aI140
aI141
aI142
aI143
aI144
aI145
aI146
aI147
aI148
aI149
aI150
aI151
aI152
aI153
aI154
aI155
aI156
aI157
aI158
aI159
aI160
aI161
aI162
aI163
aI164
aI165
aI166
aI167
aI168
aI169
aI170
aI171
aI172
aI173
aI174
aI175
aI176
aI177
aI178
aI179
aI180
aI181
aI182
aI183
aI184
aI185
aI186
aI187
aI188
aI189
aI190
aI191
aI192
aI193
aI194
aI195
aI196
aI197
aI198
aI199
aI200
aI201
aI202
aI203
aI204
aI205
aI206
aI207
aI208
aI209
aI210
aI211
aI212
aI213
aI214
aI215
aI216
aI217
aI218
aI219
aI220
aI221
aI222
aI223
aI224
aI225
aI226
aI227
aI228
aI229
aI230
aI231
aI232
aI233
aI234
aI235
aI236
aI237
aI238
aI239
aI240
aI241
aI242
aI243
aI244
aI245
aI246
aI247
aI248
aI249
aI250
aI251
aI252
aI253
aI254
aI255
aI256
aI257
aI258
aI259
aI260
aI261
aI262
aI263
aI264
aI265
aI266
aI267
aI268
aI269
aI270
aI271
aI272
aI273
aI274
aI275
aI276
aI277
aI278
aI279
aI280
aI281
aI282
aI283
aI284
aI285
aI286
aI287
aI288
aI289
aI290
aI291
aI292
aI293
aI294
aI295
aI296
aI297
aI298
aI299
aI300
aI301
aI302
aI303
aI304
aI305
aI306
aI307
aI308
aI309
aI310
aI311
aI312
aI313
aI314
aI315
aI316
aI317
aI318
aI319
aI320
aI321
aI322
aI323
aI324
aI325
aI326
aI327
aI328
aI329
aI330
aI331
aI332
aI333
aI334
aI335
aI336
aI337
aI338
aI339
aI340
aI341
aI342
aI343
aI344
aI345
aI346
aI347
aI348
aI349
aI350
aI351
aI352
aI353
aI354
aI355
aI356
aI357
aI358
aI359
aI360
aI361
aI362
aI363
aI364
aI365
aI366
aI367
aI368
aI369
aI370
aI371
aI372
aI373
aI374
aI375
aI376
aI377
aI378
aI379
aI380
aI381
aI382
aI383
aI384
aI385
aI386
aI387
aI388
aI389
aI390
aI391
aI392
aI393
aI394
aI395
aI396
aI397
aI398
aI399
aI400
aI401
aI402
aI403
aI404
aI405
aI406
aI407
aI408
aI409
aI410
aI411
aI412
aI413
aI414
aI415
aI416
aI417
aI418
aI419
aI420
aI421
aI422
aI423
aI424
aI425
aI426
aI427
aI428
aI429
aI430
aI431
aI432
aI433
aI434
aI435
aI436
aI437
aI438
aI439
aI440
aI441
aI442
aI443
aI444
aI445
aI446
aI447
aI448
aI449
aI450
aI451
aI452
aI453
aI454
aI455
aI456
aI457
aI458
aI459
aI460
aI461
aI462
aI463
aI464
aI465
aI466
aI467
aI468
aI469
aI470
aI471
aI472
aI473
aI474
aI475
aI476
aI477
aI478
aI479
aI480
aI481
aI482
aI483
aI484
aI485
aI486
aI487
aI488
aI489
aI490
aI491
aI492
aI493
aI494
aI495
aI496
aI497
aI498
aI499
aI500
aI501
aI502
aI503
aI504
aI505
aI506
aI507
aI508
aI509
aI510
aI511
aI512
aI513
aI514
aI515
aI516
aI517
aI518
aI519
aI520
aI521
aI522
aI523
aI524
aI525
aI526
aI527
aI528
aI529
aI530
aI531
aI532
aI533
aI534
aI535
aI536
aI537
aI538
aI539
aI540
aI541
aI542
aI543
aI544
aI545
aI546
aI547
aI548
aI549
aI550
aI551
aI552
aI553
aI554
aI555
aI556
aI557
aI558
aI559
aI560
aI561
aI562
aI563
aI564
aI565
aI566
aI567
aI568
aI569
aI570
aI571
aI572
aI573
aI574
aI575
aI576
aI577
aI578
aI579
aI580
aI581
aI582
aI583
aI584
aI585
aI586
aI587
aI588
aI589
aI590
aI591
aI592
aI593
aI594
aI595
aI596
aI597
aI598
aI599
asg78
Nsg79
cnumpy.core.multiarray
scalar
p4714
(g4712
S'r\x01\x00\x00'
tRp4715
sg80
I600
sg81
I0
sg82
I600
sg83
I01
sbag36
asS'savePickle'
p4716
I00
sb.