ccopy_reg
_reconstructor
p1
(cpsychopy.data
ExperimentHandler
p2
c__builtin__
object
p3
NtRp4
(dp5
S'originPath'
p6
NsS'dataFileName'
p7
Vsubject814
p8
sS'runtimeInfo'
p9
NsS'name'
p10
VVERBALRBsubject 814
p11
sS'dataNames'
p12
(lp13
S'Block Number'
p14
aS'Key pressed'
p15
aS'Category'
p16
aS'Correct?'
p17
aS'Int Match?'
p18
aS'Int Response'
p19
aS'Int Correct?'
p20
aS'Line Accuracy'
p21
aS'Interference Accuracy'
p22
aS'Matching Interferences'
p23
aS'New instruction shown?'
p24
aS'Buttons switched?'
p25
aS'Fast?'
p26
asS'autoLog'
p27
I01
sS'extraInfo'
p28
(dp29
S'gender'
p30
Vfemale
p31
sS'age'
p32
V18
p33
ssS'loopsUnfinished'
p34
(lp35
g1
(cpsychopy.data
TrialHandler
p36
g3
NtRp37
(dp38
S'origin'
p39
NsS'thisTrial'
p40
I4
sS'_exp'
p41
I80728208
sg10
S''
sg6
S'C:\\Users\\Mike\\Desktop\\Dual2\\NEWVerbalii.py'
p42
sS'thisRepN'
p43
I54
sg27
I01
sg28
NsS'data'
p44
g1
(cpsychopy.data
DataHandler
p45
c__builtin__
dict
p46
(dp47
S'ran'
p48
cnumpy.ma.core
_mareconstruct
p49
(cnumpy.ma.core
MaskedArray
p50
cnumpy
ndarray
p51
(I0
tp52
S'b'
tRp53
(I1
(I11
I55
tcnumpy
dtype
p54
(S'f4'
I0
I1
tRp55
(I3
S'<'
NNNI-1
I-1
I0
tbI00
S'\x00\x00\x80?\x00\x00\x80?\x00\x00\x80?\x00\x00\x80?\x00\x00\x80?\x00\x00\x80?\x00\x00\x80?\x00\x00\x80?\x00\x00\x80?\x00\x00\x80?\x00\x00\x80?\x00\x00\x80?\x00\x00\x80?\x00\x00\x80?\x00\x00\x80?\x00\x00\x80?\x00\x00\x80?\x00\x00\x80?\x00\x00\x80?\x00\x00\x80?\x00\x00\x80?\x00\x00\x80?\x00\x00\x80?\x00\x00\x80?\x00\x00\x80?\x00\x00\x80?\x00\x00\x80?\x00\x00\x80?\x00\x00\x80?\x00\x00\x80?\x00\x00\x80?\x00\x00\x80?\x00\x00\x80?\x00\x00\x80?\x00\x00\x80?\x00\x00\x80?\x00\x00\x80?\x00\x00\x80?\x00\x00\x80?\x00\x00\x80?\x00\x00\x80?\x00\x00\x80?\x00\x00\x80?\x00\x00\x80?\x00\x00\x80?\x00\x00\x80?\x00\x00\x80?\x00\x00\x80?\x00\x00\x80?\x00\x00\x80?\x00\x00\x80?\x00\x00\x80?\x00\x00\x80?\x00\x00\x80?\x00\x00\x80?\x00\x00\x80?\x00\x00\x80?\x00\x00\x80?\x00\x00\x80?\x00\x00\x80?\x00\x00\x80?\x00\x00\x80?\x00\x00\x80?\x00\x00\x80?\x00\x00\x80?\x00\x00\x80?\x00\x00\x80?\x00\x00\x80?\x00\x00\x80?\x00\x00\x80?\x00\x00\x80?\x00\x00\x80?\x00\x00\x80?\x00\x00\x80?\x00\x00\x80?\x00\x00\x80?\x00\x00\x80?\x00\x00\x80?\x00\x00\x80?\x00\x00\x80?\x00\x00\x80?\x00\x00\x80?\x00\x00\x80?\x00\x00\x80?\x00\x00\x80?\x00\x00\x80?\x00\x00\x80?\x00\x00\x80?\x00\x00\x80?\x00\x00\x80?\x00\x00\x80?\x00\x00\x80?\x00\x00\x80?\x00\x00\x80?\x00\x00\x80?\x00\x00\x80?\x00\x00\x80?\x00\x00\x80?\x00\x00\x80?\x00\x00\x80?\x00\x00\x80?\x00\x00\x80?\x00\x00\x80?\x00\x00\x80?\x00\x00\x80?\x00\x00\x80?\x00\x00\x80?\x00\x00\x80?\x00\x00\x80?\x00\x00\x00\x00\x00\x00\x80?\x00\x00\x80?\x00\x00\x80?\x00\x00\x80?\x00\x00\x80?\x00\x00\x80?\x00\x00\x80?\x00\x00\x80?\x00\x00\x80?\x00\x00\x80?\x00\x00\x80?\x00\x00\x80?\x00\x00\x80?\x00\x00\x80?\x00\x00\x80?\x00\x00\x80?\x00\x00\x80?\x00\x00\x80?\x00\x00\x80?\x00\x00\x80?\x00\x00\x80?\x00\x00\x80?\x00\x00\x80?\x00\x00\x80?\x00\x00\x80?\x00\x00\x80?\x00\x00\x80?\x00\x00\x80?\x00\x00\x80?\x00\x00\x80?\x00\x00\x80?\x00\x00\x80?\x00\x00\x80?\x00\x00\x80?\x00\x00\x80?\x00\x00\x80?\x00\x00\x80?\x00\x00\x80?\x00\x00\x80?\x00\x00\x80?\x00\x00\x80?\x00\x00\x80?\x00\x00\x80?\x00\x00\x80?\x00\x00\x80?\x00\x00\x80?\x00\x00\x80?\x00\x00\x80?\x00\x00\x80?\x00\x00\x80?\x00\x00\x80?\x00\x00\x80?\x00\x00\x80?\x00\x00\x80?\x00\x00\x80?\x00\x00\x80?\x00\x00\x80?\x00\x00\x80?\x00\x00\x80?\x00\x00\x80?\x00\x00\x80?\x00\x00\x80?\x00\x00\x80?\x00\x00\x80?\x00\x00\x80?\x00\x00\x80?\x00\x00\x80?\x00\x00\x80?\x00\x00\x80?\x00\x00\x80?\x00\x00\x80?\x00\x00\x80?\x00\x00\x80?\x00\x00\x80?\x00\x00\x80?\x00\x00\x80?\x00\x00\x80?\x00\x00\x80?\x00\x00\x80?\x00\x00\x80?\x00\x00\x80?\x00\x00\x80?\x00\x00\x80?\x00\x00\x80?\x00\x00\x80?\x00\x00\x80?\x00\x00\x80?\x00\x00\x80?\x00\x00\x80?\x00\x00\x80?\x00\x00\x80?\x00\x00\x80?\x00\x00\x80?\x00\x00\x80?\x00\x00\x80?\x00\x00\x80?\x00\x00\x80?\x00\x00\x80?\x00\x00\x80?\x00\x00\x80?\x00\x00\x80?\x00\x00\x80?\x00\x00\x80?\x00\x00\x80?\x00\x00\x80?\x00\x00\x80?\x00\x00\x80?\x00\x00\x80?\x00\x00\x80?\x00\x00\x80?\x00\x00\x80?\x00\x00\x80?\x00\x00\x80?\x00\x00\x80?\x00\x00\x80?\x00\x00\x80?\x00\x00\x80?\x00\x00\x80?\x00\x00\x80?\x00\x00\x80?\x00\x00\x80?\x00\x00\x80?\x00\x00\x80?\x00\x00\x80?\x00\x00\x80?\x00\x00\x80?\x00\x00\x80?\x00\x00\x80?\x00\x00\x80?\x00\x00\x80?\x00\x00\x80?\x00\x00\x80?\x00\x00\x80?\x00\x00\x80?\x00\x00\x80?\x00\x00\x80?\x00\x00\x80?\x00\x00\x80?\x00\x00\x80?\x00\x00\x80?\x00\x00\x80?\x00\x00\x80?\x00\x00\x80?\x00\x00\x80?\x00\x00\x80?\x00\x00\x80?\x00\x00\x80?\x00\x00\x80?\x00\x00\x80?\x00\x00\x80?\x00\x00\x80?\x00\x00\x80?\x00\x00\x80?\x00\x00\x80?\x00\x00\x80?\x00\x00\x80?\x00\x00\x80?\x00\x00\x80?\x00\x00\x80?\x00\x00\x80?\x00\x00\x80?\x00\x00\x80?\x00\x00\x80?\x00\x00\x80?\x00\x00\x80?\x00\x00\x80?\x00\x00\x80?\x00\x00\x80?\x00\x00\x80?\x00\x00\x80?\x00\x00\x80?\x00\x00\x80?\x00\x00\x80?\x00\x00\x80?\x00\x00\x80?\x00\x00\x80?\x00\x00\x80?\x00\x00\x80?\x00\x00\x80?\x00\x00\x80?\x00\x00\x80?\x00\x00\x80?\x00\x00\x80?\x00\x00\x80?\x00\x00\x80?\x00\x00\x80?\x00\x00\x80?\x00\x00\x80?\x00\x00\x80?\x00\x00\x80?\x00\x00\x80?\x00\x00\x80?\x00\x00\x80?\x00\x00\x80?\x00\x00\x80?\x00\x00\x80?\x00\x00\x80?\x00\x00\x80?\x00\x00\x80?\x00\x00\x80?\x00\x00\x80?\x00\x00\x80?\x00\x00\x80?\x00\x00\x80?\x00\x00\x80?\x00\x00\x80?\x00\x00\x80?\x00\x00\x80?\x00\x00\x80?\x00\x00\x80?\x00\x00\x80?\x00\x00\x80?\x00\x00\x80?\x00\x00\x80?\x00\x00\x80?\x00\x00\x80?\x00\x00\x80?\x00\x00\x80?\x00\x00\x80?\x00\x00\x80?\x00\x00\x80?\x00\x00\x80?\x00\x00\x80?\x00\x00\x80?\x00\x00\x80?\x00\x00\x80?\x00\x00\x80?\x00\x00\x80?\x00\x00\x80?\x00\x00\x80?\x00\x00\x80?\x00\x00\x80?\x00\x00\x80?\x00\x00\x80?\x00\x00\x80?\x00\x00\x80?\x00\x00\x80?\x00\x00\x80?\x00\x00\x80?\x00\x00\x80?\x00\x00\x80?\x00\x00\x80?\x00\x00\x80?\x00\x00\x80?\x00\x00\x80?\x00\x00\x80?\x00\x00\x80?\x00\x00\x80?\x00\x00\x80?\x00\x00\x80?\x00\x00\x80?\x00\x00\x80?\x00\x00\x80?\x00\x00\x80?\x00\x00\x80?\x00\x00\x80?\x00\x00\x80?\x00\x00\x80?\x00\x00\x80?\x00\x00\x80?\x00\x00\x80?\x00\x00\x80?\x00\x00\x80?\x00\x00\x80?\x00\x00\x80?\x00\x00\x80?\x00\x00\x80?\x00\x00\x80?\x00\x00\x80?\x00\x00\x80?\x00\x00\x80?\x00\x00\x80?\x00\x00\x80?\x00\x00\x80?\x00\x00\x80?\x00\x00\x80?\x00\x00\x80?\x00\x00\x80?\x00\x00\x80?\x00\x00\x80?\x00\x00\x80?\x00\x00\x80?\x00\x00\x80?\x00\x00\x80?\x00\x00\x80?\x00\x00\x80?\x00\x00\x80?\x00\x00\x80?\x00\x00\x80?\x00\x00\x80?\x00\x00\x80?\x00\x00\x80?\x00\x00\x80?\x00\x00\x80?\x00\x00\x80?\x00\x00\x80?\x00\x00\x80?\x00\x00\x80?\x00\x00\x80?\x00\x00\x80?\x00\x00\x80?\x00\x00\x80?\x00\x00\x80?\x00\x00\x80?\x00\x00\x80?\x00\x00\x80?\x00\x00\x80?\x00\x00\x80?\x00\x00\x80?\x00\x00\x80?\x00\x00\x80?\x00\x00\x80?\x00\x00\x80?\x00\x00\x80?\x00\x00\x80?\x00\x00\x80?\x00\x00\x80?\x00\x00\x80?\x00\x00\x80?\x00\x00\x80?\x00\x00\x80?\x00\x00\x80?\x00\x00\x80?\x00\x00\x80?\x00\x00\x80?\x00\x00\x80?\x00\x00\x80?\x00\x00\x80?\x00\x00\x00\x00\x00\x00\x00\x00\x00\x00\x80?\x00\x00\x80?\x00\x00\x80?\x00\x00\x80?\x00\x00\x80?\x00\x00\x80?\x00\x00\x80?\x00\x00\x80?\x00\x00\x80?\x00\x00\x80?\x00\x00\x80?\x00\x00\x80?\x00\x00\x80?\x00\x00\x80?\x00\x00\x80?\x00\x00\x80?\x00\x00\x80?\x00\x00\x80?\x00\x00\x80?\x00\x00\x80?\x00\x00\x80?\x00\x00\x80?\x00\x00\x80?\x00\x00\x80?\x00\x00\x80?\x00\x00\x80?\x00\x00\x80?\x00\x00\x80?\x00\x00\x80?\x00\x00\x80?\x00\x00\x80?\x00\x00\x80?\x00\x00\x80?\x00\x00\x80?\x00\x00\x80?\x00\x00\x80?\x00\x00\x80?\x00\x00\x80?\x00\x00\x80?\x00\x00\x80?\x00\x00\x80?\x00\x00\x80?\x00\x00\x80?\x00\x00\x80?\x00\x00\x80?\x00\x00\x80?\x00\x00\x80?\x00\x00\x80?\x00\x00\x80?\x00\x00\x80?\x00\x00\x80?\x00\x00\x80?\x00\x00\x80?\x00\x00\x80?\x00\x00\x80?\x00\x00\x80?\x00\x00\x80?\x00\x00\x80?\x00\x00\x80?\x00\x00\x80?\x00\x00\x80?\x00\x00\x80?\x00\x00\x80?\x00\x00\x80?\x00\x00\x80?\x00\x00\x80?\x00\x00\x80?\x00\x00\x80?\x00\x00\x80?\x00\x00\x80?\x00\x00\x80?\x00\x00\x80?\x00\x00\x80?\x00\x00\x80?\x00\x00\x80?\x00\x00\x80?\x00\x00\x80?\x00\x00\x80?\x00\x00\x80?\x00\x00\x80?\x00\x00\x80?\x00\x00\x80?\x00\x00\x80?\x00\x00\x80?\x00\x00\x80?\x00\x00\x80?\x00\x00\x80?\x00\x00\x80?\x00\x00\x80?\x00\x00\x80?\x00\x00\x80?\x00\x00\x80?\x00\x00\x80?\x00\x00\x80?\x00\x00\x80?\x00\x00\x80?\x00\x00\x80?\x00\x00\x80?\x00\x00\x80?\x00\x00\x80?\x00\x00\x80?\x00\x00\x80?\x00\x00\x80?\x00\x00\x80?\x00\x00\x80?\x00\x00\x80?\x00\x00\x80?\x00\x00\x80?\x00\x00\x00\x00\x00\x00\x00\x00\x00\x00\x80?\x00\x00\x80?\x00\x00\x80?\x00\x00\x80?\x00\x00\x80?\x00\x00\x80?\x00\x00\x80?\x00\x00\x80?\x00\x00\x80?\x00\x00\x80?\x00\x00\x80?\x00\x00\x80?\x00\x00\x80?\x00\x00\x80?\x00\x00\x80?\x00\x00\x80?\x00\x00\x80?\x00\x00\x80?\x00\x00\x80?\x00\x00\x80?\x00\x00\x80?\x00\x00\x80?\x00\x00\x80?\x00\x00\x80?\x00\x00\x80?\x00\x00\x80?\x00\x00\x80?\x00\x00\x80?\x00\x00\x80?\x00\x00\x80?\x00\x00\x80?\x00\x00\x80?\x00\x00\x80?\x00\x00\x80?\x00\x00\x80?\x00\x00\x80?\x00\x00\x80?\x00\x00\x80?\x00\x00\x80?\x00\x00\x80?\x00\x00\x80?\x00\x00\x80?\x00\x00\x80?\x00\x00\x80?\x00\x00\x80?\x00\x00\x80?\x00\x00\x80?\x00\x00\x80?\x00\x00\x80?\x00\x00\x80?\x00\x00\x80?\x00\x00\x80?\x00\x00\x80?\x00\x00\x80?\x00\x00\x80?'
S'\x00\x00\x00\x00\x00\x00\x00\x00\x00\x00\x00\x00\x00\x00\x00\x00\x00\x00\x00\x00\x00\x00\x00\x00\x00\x00\x00\x00\x00\x00\x00\x00\x00\x00\x00\x00\x00\x00\x00\x00\x00\x00\x00\x00\x00\x00\x00\x00\x00\x00\x00\x00\x00\x00\x00\x00\x00\x00\x00\x00\x00\x00\x00\x00\x00\x00\x00\x00\x00\x00\x00\x00\x00\x00\x00\x00\x00\x00\x00\x00\x00\x00\x00\x00\x00\x00\x00\x00\x00\x00\x00\x00\x00\x00\x00\x00\x00\x00\x00\x00\x00\x00\x00\x00\x00\x00\x00\x00\x00\x00\x00\x00\x00\x00\x00\x00\x00\x00\x00\x00\x00\x00\x00\x00\x00\x00\x00\x00\x00\x00\x00\x00\x00\x00\x00\x00\x00\x00\x00\x00\x00\x00\x00\x00\x00\x00\x00\x00\x00\x00\x00\x00\x00\x00\x00\x00\x00\x00\x00\x00\x00\x00\x00\x00\x00\x00\x00\x00\x00\x00\x00\x00\x00\x00\x00\x00\x00\x00\x00\x00\x00\x00\x00\x00\x00\x00\x00\x00\x00\x00\x00\x00\x00\x00\x00\x00\x00\x00\x00\x00\x00\x00\x00\x00\x00\x00\x00\x00\x00\x00\x00\x00\x00\x00\x00\x00\x00\x00\x00\x00\x00\x00\x00\x00\x00\x00\x00\x00\x00\x00\x00\x00\x00\x00\x00\x00\x00\x00\x00\x00\x00\x00\x00\x00\x00\x00\x00\x00\x00\x00\x00\x00\x00\x00\x00\x00\x00\x00\x00\x00\x00\x00\x00\x00\x00\x00\x00\x00\x00\x00\x00\x00\x00\x00\x00\x00\x00\x00\x00\x00\x00\x00\x00\x00\x00\x00\x00\x00\x00\x00\x00\x00\x00\x00\x00\x00\x00\x00\x00\x00\x00\x00\x00\x00\x00\x00\x00\x00\x00\x00\x00\x00\x00\x00\x00\x00\x00\x00\x00\x00\x00\x00\x00\x00\x00\x00\x00\x00\x00\x00\x00\x00\x00\x00\x00\x00\x00\x00\x00\x00\x00\x00\x00\x00\x00\x00\x00\x00\x00\x00\x00\x00\x00\x00\x00\x00\x00\x00\x00\x00\x00\x00\x00\x00\x00\x00\x00\x00\x00\x00\x00\x00\x00\x00\x00\x00\x00\x00\x00\x00\x00\x00\x00\x00\x00\x00\x00\x00\x00\x00\x00\x00\x00\x00\x00\x00\x00\x00\x00\x00\x00\x00\x00\x00\x00\x00\x00\x00\x00\x00\x00\x00\x00\x00\x00\x00\x00\x00\x00\x00\x00\x00\x00\x00\x00\x00\x00\x00\x00\x00\x00\x00\x00\x00\x00\x00\x00\x00\x00\x00\x00\x00\x00\x00\x00\x00\x00\x00\x00\x00\x00\x00\x00\x00\x00\x00\x00\x00\x00\x00\x00\x00\x00\x00\x00\x00\x00\x00\x00\x00\x00\x00\x00\x00\x00\x00\x00\x00\x00\x00\x00\x00\x00\x00\x00\x00\x00\x00\x00\x00\x00\x00\x00\x00\x00\x00\x00\x00\x00\x00\x00\x00\x00\x00\x00\x00\x00\x00\x00\x00\x00\x00\x00\x00\x00\x00\x00\x00\x00\x00\x00\x00\x00\x00\x00\x00\x00\x00\x00\x00\x00\x00\x00\x00\x00\x00\x00\x00\x00\x00\x00\x00\x00\x00\x00\x00\x00\x00\x00\x00\x00\x00\x00\x00\x00\x00\x00\x00\x00\x00\x00\x00\x00\x00\x00\x00\x00\x00\x00\x00\x00\x00\x00\x00\x00\x00\x00\x00\x00\x00\x00\x00\x00\x00\x00\x00\x00\x00\x00\x00\x00\x00\x00\x00\x00\x00\x00\x00\x00\x00\x00\x00\x00\x00\x00'
NtbsS'order'
p56
g49
(g50
g51
g52
S'b'
tRp57
(I1
(I11
I55
tg55
I00
S'\x00\x00@A\x00\x00\xf8A\x00\x00\x14B\x00\x00(B\x00\x00,B\x00\x000B\x00\x00\x88B\x00\x00\x94B\x00\x00\x98B\x00\x00\x9eB\x00\x00\xcaB\x00\x00\xceB\x00\x00\xe8B\x00\x00\xf4B\x00\x00\x03C\x00\x00\x19C\x00\x00\x1dC\x00\x000C\x00\x00:C\x00\x00fC\x00\x00sC\x00\x00zC\x00\x80\x85C\x00\x80\x86C\x00\x00\x99C\x00\x80\x9bC\x00\x00\x9dC\x00\x80\x9dC\x00\x80\xa1C\x00\x80\xa6C\x00\x00\xadC\x00\x80\xaeC\x00\x00\xb3C\x00\x80\xb8C\x00\x80\xbbC\x00\x00\xc4C\x00\x80\xc6C\x00\x80\xcbC\x00\x80\xd1C\x00\x80\xd2C\x00\x00\xd5C\x00\x80\xdaC\x00\x00\xdfC\x00\x00\xe9C\x00\x00\xeeC\x00\x80\x01D\x00\x00\x04D\x00\x80\x06D\x00\x80\x07D\x00\xc0\x07D\x00@\x0cD\x00\x00\x10D\x00\x00\x11D\x00\x00\x15D\x00@\x15D\x00\x00\x80A\x00\x00\x88A\x00\x00\xb8A\x00\x00\xd0A\x00\x00 B\x00\x00\\B\x00\x00dB\x00\x00\x8aB\x00\x00\xb6B\x00\x00\xbaB\x00\x00\xc8B\x00\x00\xd4B\x00\x00\xfcB\x00\x00\x07C\x00\x00\x08C\x00\x00\x15C\x00\x00@C\x00\x00FC\x00\x00LC\x00\x00UC\x00\x00jC\x00\x00kC\x00\x80\x87C\x00\x00\x8dC\x00\x80\x91C\x00\x80\xa0C\x00\x80\xa2C\x00\x80\xa7C\x00\x80\xa9C\x00\x80\xabC\x00\x80\xb0C\x00\x80\xb4C\x00\x80\xbdC\x00\x00\xbfC\x00\x80\xc5C\x00\x00\xc8C\x00\x80\xc9C\x00\x00\xd4C\x00\x80\xd4C\x00\x80\xd6C\x00\x00\xd7C\x00\x00\xe2C\x00\x80\xe3C\x00\x00\xe4C\x00\x80\xe6C\x00\x80\xe8C\x00\x80\xefC\x00\x80\xf6C\x00\x80\xf7C\x00@\x01D\x00\x00\x07D\x00\x80\rD\x00\xc0\x10D\x00\x80\x13D\x00\x00\x00\x00\x00\x00@@\x00\x00\x00A\x00\x00pA\x00\x00\x90A\x00\x00\xc0A\x00\x00HB\x00\x00\x90B\x00\x00\xb4B\x00\x00\xb8B\x00\x00\xc4B\x00\x00\xf6B\x00\x00\x00C\x00\x00\x02C\x00\x00\x10C\x00\x00\x14C\x00\x00\x1eC\x00\x00 C\x00\x009C\x00\x00?C\x00\x00BC\x00\x00JC\x00\x00\x83C\x00\x00\x84C\x00\x80\x8aC\x00\x00\x96C\x00\x80\x9eC\x00\x80\xa5C\x00\x00\xacC\x00\x00\xafC\x00\x00\xb2C\x00\x80\xb3C\x00\x80\xb6C\x00\x80\xb7C\x00\x00\xbaC\x00\x80\xc0C\x00\x00\xc5C\x00\x00\xccC\x00\x80\xccC\x00\x80\xdcC\x00\x80\xddC\x00\x00\xeaC\x00\x80\xeaC\x00\x00\xf1C\x00\x80\xf4C\x00\x80\xf9C\x00\x80\xfaC\x00\x80\xfeC\x00\x80\xffC\x00\xc0\x00D\x00\x80\x08D\x00\xc0\tD\x00\xc0\x0bD\x00\x00\x0cD\x00\xc0\rD\x00\x00\x0fD\x00\x00\xa0@\x00\x00\xf0A\x00\x00\x00B\x00\x008B\x00\x00<B\x00\x00XB\x00\x00pB\x00\x00xB\x00\x00\x8cB\x00\x00\x12C\x00\x00\x1bC\x00\x00"C\x00\x00&C\x00\x00MC\x00\x00aC\x00\x00gC\x00\x00mC\x00\x00}C\x00\x00\x85C\x00\x00\x87C\x00\x80\x8bC\x00\x00\x95C\x00\x80\x96C\x00\x80\x98C\x00\x80\x9cC\x00\x80\x9fC\x00\x00\xa1C\x00\x00\xa3C\x00\x80\xa3C\x00\x80\xa8C\x00\x80\xb1C\x00\x00\xc0C\x00\x00\xc6C\x00\x00\xe0C\x00\x80\xe2C\x00\x00\xe3C\x00\x00\xe7C\x00\x80\xe9C\x00\x80\xedC\x00\x00\xefC\x00\x00\xf2C\x00\x00\xf9C\x00\x00\xfcC\x00\x00\xfdC\x00\x80\x02D\x00\xc0\x03D\x00\x00\x06D\x00\x00\tD\x00\x80\x0cD\x00\xc0\x0cD\x00\x00\rD\x00\x80\x0fD\x00\xc0\x12D\x00\xc0\x14D\x00\x80\x15D\x00\x00\xe8A\x00\x00$B\x00\x00TB\x00\x00`B\x00\x00\x86B\x00\x00\xb0B\x00\x00\xb2B\x00\x00\xbeB\x00\x00\xc2B\x00\x00\xe6B\x00\x00\xeaB\x00\x00\x04C\x00\x00(C\x00\x00.C\x00\x00/C\x00\x001C\x00\x008C\x00\x00AC\x00\x00GC\x00\x00IC\x00\x00]C\x00\x00^C\x00\x00eC\x00\x00lC\x00\x00uC\x00\x00\x7fC\x00\x00\x86C\x00\x00\x92C\x00\x80\x94C\x00\x80\x95C\x00\x80\x99C\x00\x80\xb2C\x00\x80\xbaC\x00\x00\xbbC\x00\x80\xc1C\x00\x00\xc7C\x00\x00\xd3C\x00\x00\xd9C\x00\x80\xd9C\x00\x00\xdeC\x00\x00\xe8C\x00\x00\xebC\x00\x00\xedC\x00\x80\xf1C\x00\x00\xf7C\x00\x80\xf8C\x00\xc0\x01D\x00@\x02D\x00\x80\tD\x00\x00\nD\x00@\x11D\x00\x00\x12D\x00\x80\x12D\x00\x00\x13D\x00\xc0\x15D\x00\x00\xe0@\x00\x00\xa0A\x00\x00\x1cB\x00\x004B\x00\x00@B\x00\x00|B\x00\x00\x8eB\x00\x00\x92B\x00\x00\xa2B\x00\x00\xa8B\x00\x00\xbcB\x00\x00\xfeB\x00\x00\x06C\x00\x00\x0cC\x00\x00\x0fC\x00\x002C\x00\x005C\x00\x007C\x00\x00<C\x00\x00=C\x00\x00HC\x00\x00KC\x00\x00NC\x00\x00WC\x00\x00YC\x00\x00oC\x00\x00vC\x00\x00xC\x00\x00{C\x00\x80\x81C\x00\x00\x8aC\x00\x80\x90C\x00\x80\x93C\x00\x00\x94C\x00\x00\x97C\x00\x80\xa4C\x00\x00\xaeC\x00\x00\xb7C\x00\x80\xbeC\x00\x80\xcdC\x00\x80\xd0C\x00\x80\xd7C\x00\x00\xddC\x00\x80\xe4C\x00\x00\x02D\x00\x80\x05D\x00\xc0\x05D\x00\xc0\x06D\x00@\x07D\x00\x00\x08D\x00\x80\x0bD\x00\xc0\x0eD\x00@\x0fD\x00\x80\x10D\x00@\x14D\x00\x00\x00@\x00\x00\x80@\x00\x00\x18B\x00\x00DB\x00\x00tB\x00\x00\x80B\x00\x00\xaaB\x00\x00\xaeB\x00\x00\xc0B\x00\x00\xf0B\x00\x00\xfaB\x00\x00\x05C\x00\x00\x16C\x00\x00\x1fC\x00\x00$C\x00\x00+C\x00\x00;C\x00\x00QC\x00\x00_C\x00\x00iC\x00\x00nC\x00\x00pC\x00\x00\x80C\x00\x80\x84C\x00\x80\x89C\x00\x00\x8bC\x00\x00\x8cC\x00\x00\x8eC\x00\x00\x91C\x00\x80\x97C\x00\x00\xa0C\x00\x00\xaaC\x00\x00\xb9C\x00\x80\xbcC\x00\x00\xbdC\x00\x80\xc2C\x00\x00\xcbC\x00\x00\xcdC\x00\x00\xd2C\x00\x00\xd8C\x00\x00\xdaC\x00\x80\xdeC\x00\x80\xebC\x00\x00\xf3C\x00\x00\xf8C\x00\x00\xfaC\x00\x00\xfeC\x00\x80\x00D\x00\x00\x01D\x00@\x06D\x00@\x08D\x00\xc0\nD\x00@\rD\x00@\x10D\x00\xc0\x11D\x00\x00 A\x00\x00PA\x00\x00\xe0A\x00\x00hB\x00\x00\x96B\x00\x00\x9cB\x00\x00\xa4B\x00\x00\xc6B\x00\x00\xecB\x00\x00\x01C\x00\x00\rC\x00\x00\x1aC\x00\x00!C\x00\x00)C\x00\x00*C\x00\x003C\x00\x00EC\x00\x00PC\x00\x00TC\x00\x00\\C\x00\x00bC\x00\x00yC\x00\x80\x8cC\x00\x80\x8dC\x00\x00\x90C\x00\x80\x92C\x00\x00\x9bC\x00\x00\xa8C\x00\x00\xabC\x00\x80\xacC\x00\x00\xb0C\x00\x00\xb1C\x00\x80\xb5C\x00\x80\xc3C\x00\x80\xc8C\x00\x00\xcaC\x00\x00\xceC\x00\x80\xceC\x00\x80\xcfC\x00\x80\xd3C\x00\x00\xdcC\x00\x80\xe0C\x00\x00\xe1C\x00\x00\xecC\x00\x80\xf3C\x00\x80\xfbC\x00@\x00D\x00\x80\x03D\x00\x00\x05D\x00@\x0bD\x00\x00\x0eD\x00\xc0\x0fD\x00@\x12D\x00\x00\x00\x00\x00\x00\x00\x00\x00\x00\x10A\x00\x00\x98A\x00\x00\xd8A\x00\x00\x04B\x00\x00\x08B\x00\x00\x0cB\x00\x00LB\x00\x00\xa0B\x00\x00\xa6B\x00\x00\xd8B\x00\x00\xdeB\x00\x00\xe4B\x00\x00\nC\x00\x00\x13C\x00\x00\x17C\x00\x00\x18C\x00\x00#C\x00\x00DC\x00\x00SC\x00\x00VC\x00\x00[C\x00\x00dC\x00\x00wC\x00\x00|C\x00\x80\x80C\x00\x00\x9cC\x00\x00\x9eC\x00\x00\xa4C\x00\x00\xa5C\x00\x00\xa7C\x00\x00\xa9C\x00\x00\xb8C\x00\x00\xbcC\x00\x80\xbfC\x00\x00\xc1C\x00\x80\xc7C\x00\x80\xcaC\x00\x00\xcfC\x00\x00\xd1C\x00\x00\xd6C\x00\x80\xdfC\x00\x00\xe5C\x00\x80\xeeC\x00\x00\xf0C\x00\x00\xfbC\x00\x00\xffC\x00\x00\x00D\x00\x00\x03D\x00@\x03D\x00\xc0\x04D\x00@\nD\x00\x00\x0bD\x00\x80\x0eD\x00\x80\x11D\x00\xc0\x13D\x00\x00\x00\x00\x00\x00\x80?\x00\x00\xc0@\x00\x00\x10B\x00\x00PB\x00\x00lB\x00\x00\xacB\x00\x00\xdcB\x00\x00\xf2B\x00\x00\xf8B\x00\x00\tC\x00\x00\x0eC\x00\x00\x11C\x00\x00%C\x00\x00,C\x00\x00-C\x00\x004C\x00\x006C\x00\x00OC\x00\x00RC\x00\x00ZC\x00\x00tC\x00\x00~C\x00\x00\x82C\x00\x80\x82C\x00\x80\x83C\x00\x00\x88C\x00\x80\x88C\x00\x00\x89C\x00\x00\x8fC\x00\x00\x98C\x00\x00\xa2C\x00\x80\xaaC\x00\x80\xadC\x00\x00\xb4C\x00\x80\xb9C\x00\x00\xbeC\x00\x00\xc2C\x00\x80\xc4C\x00\x00\xc9C\x00\x80\xd5C\x00\x80\xe1C\x00\x80\xe5C\x00\x00\xe6C\x00\x80\xf0C\x00\x00\xf4C\x00\x80\xfcC\x00\x80\xfdC\x00@\x04D\x00\x80\nD\x00@\x0eD\x00@\x13D\x00\x00\x14D\x00\x00\x00\x00\x00\x00\x00\x00\x00\x000A\x00\x00`A\x00\x00\xa8A\x00\x00\xb0A\x00\x00\xc8A\x00\x00\x82B\x00\x00\x84B\x00\x00\x9aB\x00\x00\xccB\x00\x00\xd0B\x00\x00\xd2B\x00\x00\xd6B\x00\x00\xdaB\x00\x00\xe0B\x00\x00\xe2B\x00\x00\xeeB\x00\x00\x0bC\x00\x00\x1cC\x00\x00\'C\x00\x00>C\x00\x00CC\x00\x00XC\x00\x00`C\x00\x00cC\x00\x00hC\x00\x00qC\x00\x00rC\x00\x00\x81C\x00\x80\x8eC\x00\x80\x8fC\x00\x00\x93C\x00\x00\x9aC\x00\x80\x9aC\x00\x00\x9fC\x00\x00\xa6C\x00\x80\xafC\x00\x00\xb5C\x00\x00\xb6C\x00\x00\xc3C\x00\x00\xd0C\x00\x80\xd8C\x00\x00\xdbC\x00\x80\xdbC\x00\x80\xe7C\x00\x80\xecC\x00\x80\xf2C\x00\x00\xf5C\x00\x80\xf5C\x00\x00\xf6C\x00\xc0\x02D\x00\x80\x04D\x00@\x05D\x00\xc0\x08D\x00@\tD\x00\x80\x14D'
S'\x00\x00\x00\x00\x00\x00\x00\x00\x00\x00\x00\x00\x00\x00\x00\x00\x00\x00\x00\x00\x00\x00\x00\x00\x00\x00\x00\x00\x00\x00\x00\x00\x00\x00\x00\x00\x00\x00\x00\x00\x00\x00\x00\x00\x00\x00\x00\x00\x00\x00\x00\x00\x00\x00\x00\x00\x00\x00\x00\x00\x00\x00\x00\x00\x00\x00\x00\x00\x00\x00\x00\x00\x00\x00\x00\x00\x00\x00\x00\x00\x00\x00\x00\x00\x00\x00\x00\x00\x00\x00\x00\x00\x00\x00\x00\x00\x00\x00\x00\x00\x00\x00\x00\x00\x00\x00\x00\x00\x00\x01\x00\x00\x00\x00\x00\x00\x00\x00\x00\x00\x00\x00\x00\x00\x00\x00\x00\x00\x00\x00\x00\x00\x00\x00\x00\x00\x00\x00\x00\x00\x00\x00\x00\x00\x00\x00\x00\x00\x00\x00\x00\x00\x00\x00\x00\x00\x00\x00\x00\x00\x00\x00\x00\x00\x00\x00\x00\x00\x00\x00\x00\x00\x00\x00\x00\x00\x00\x00\x00\x00\x00\x00\x00\x00\x00\x00\x00\x00\x00\x00\x00\x00\x00\x00\x00\x00\x00\x00\x00\x00\x00\x00\x00\x00\x00\x00\x00\x00\x00\x00\x00\x00\x00\x00\x00\x00\x00\x00\x00\x00\x00\x00\x00\x00\x00\x00\x00\x00\x00\x00\x00\x00\x00\x00\x00\x00\x00\x00\x00\x00\x00\x00\x00\x00\x00\x00\x00\x00\x00\x00\x00\x00\x00\x00\x00\x00\x00\x00\x00\x00\x00\x00\x00\x00\x00\x00\x00\x00\x00\x00\x00\x00\x00\x00\x00\x00\x00\x00\x00\x00\x00\x00\x00\x00\x00\x00\x00\x00\x00\x00\x00\x00\x00\x00\x00\x00\x00\x00\x00\x00\x00\x00\x00\x00\x00\x00\x00\x00\x00\x00\x00\x00\x00\x00\x00\x00\x00\x00\x00\x00\x00\x00\x00\x00\x00\x00\x00\x00\x00\x00\x00\x00\x00\x00\x00\x00\x00\x00\x00\x00\x00\x00\x00\x00\x00\x00\x00\x00\x00\x00\x00\x00\x00\x00\x00\x00\x00\x00\x00\x00\x00\x00\x00\x00\x00\x00\x00\x00\x00\x00\x00\x00\x00\x00\x00\x00\x00\x00\x00\x00\x00\x00\x00\x00\x00\x00\x00\x00\x00\x00\x00\x00\x00\x00\x00\x00\x00\x00\x00\x00\x00\x00\x00\x00\x00\x00\x00\x00\x00\x00\x00\x00\x00\x00\x00\x00\x00\x00\x00\x00\x00\x00\x00\x00\x00\x00\x00\x00\x00\x00\x00\x00\x00\x00\x00\x00\x00\x00\x01\x01\x00\x00\x00\x00\x00\x00\x00\x00\x00\x00\x00\x00\x00\x00\x00\x00\x00\x00\x00\x00\x00\x00\x00\x00\x00\x00\x00\x00\x00\x00\x00\x00\x00\x00\x00\x00\x00\x00\x00\x00\x00\x00\x00\x00\x00\x00\x00\x00\x00\x00\x00\x00\x00\x00\x00\x00\x00\x00\x00\x00\x00\x00\x00\x00\x00\x00\x00\x00\x00\x00\x00\x00\x00\x00\x00\x00\x00\x00\x00\x00\x00\x00\x00\x00\x00\x00\x00\x00\x00\x00\x00\x00\x00\x00\x00\x00\x00\x00\x00\x00\x00\x00\x00\x00\x00\x00\x00\x00\x01\x01\x00\x00\x00\x00\x00\x00\x00\x00\x00\x00\x00\x00\x00\x00\x00\x00\x00\x00\x00\x00\x00\x00\x00\x00\x00\x00\x00\x00\x00\x00\x00\x00\x00\x00\x00\x00\x00\x00\x00\x00\x00\x00\x00\x00\x00\x00\x00\x00\x00\x00\x00\x00\x00\x00\x00'
NtbstRp58
(dp59
S'isNumeric'
p60
(dp61
g48
I01
sg56
I01
ssS'trials'
p62
g37
sS'dataTypes'
p63
(lp64
g48
ag56
asS'dataShape'
p65
(lp66
I11
aI55
asbsS'method'
p67
S'fullRandom'
p68
sS'sequenceIndices'
p69
cnumpy.core.multiarray
_reconstruct
p70
(g51
(I0
tS'b'
tRp71
(I1
(I11
I55
tg54
(S'O4'
I0
I1
tRp72
(I3
S'|'
NNNI-1
I-1
I63
tbI00
(lp73
I9
aI10
aI10
aI8
aI0
aI1
aI10
aI10
aI4
aI7
aI9
aI9
aI4
aI5
aI7
aI9
aI0
aI6
aI1
aI6
aI7
aI3
aI10
aI3
aI2
aI6
aI9
aI4
aI10
aI3
aI8
aI9
aI7
aI7
aI4
aI2
aI3
aI0
aI8
aI1
aI7
aI9
aI3
aI10
aI3
aI1
aI3
aI1
aI0
aI5
aI4
aI0
aI2
aI6
aI10
aI9
aI0
aI1
aI8
aI5
aI4
aI4
aI7
aI4
aI1
aI8
aI0
aI6
aI2
aI3
aI3
aI4
aI5
aI4
aI9
aI4
aI10
aI0
aI9
aI6
aI5
aI10
aI3
aI10
aI6
aI2
aI7
aI1
aI10
aI0
aI8
aI0
aI2
aI0
aI1
aI2
aI1
aI10
aI4
aI10
aI6
aI9
aI0
aI9
aI1
aI2
aI3
aI5
aI4
aI3
aI6
aI7
aI2
aI8
aI3
aI1
aI0
aI0
aI2
aI0
aI10
aI2
aI5
aI9
aI10
aI10
aI5
aI5
aI5
aI8
aI4
aI6
aI9
aI4
aI3
aI2
aI7
aI4
aI7
aI1
aI10
aI1
aI7
aI2
aI8
aI4
aI4
aI2
aI6
aI5
aI5
aI3
aI4
aI3
aI6
aI4
aI6
aI4
aI10
aI5
aI4
aI3
aI3
aI7
aI0
aI2
aI10
aI10
aI9
aI3
aI7
aI1
aI8
aI1
aI10
aI10
aI9
aI1
aI3
aI0
aI4
aI7
aI10
aI4
aI7
aI6
aI1
aI4
aI6
aI0
aI6
aI5
aI2
aI0
aI3
aI0
aI2
aI3
aI5
aI6
aI9
aI8
aI6
aI0
aI6
aI2
aI3
aI1
aI0
aI7
aI3
aI2
aI5
aI8
aI0
aI8
aI3
aI7
aI4
aI0
aI6
aI2
aI1
aI0
aI5
aI9
aI3
aI5
aI2
aI0
aI8
aI6
aI1
aI8
aI2
aI7
aI9
aI2
aI2
aI1
aI10
aI1
aI5
aI8
aI4
aI3
aI6
aI3
aI8
aI0
aI8
aI7
aI2
aI2
aI6
aI6
aI1
aI5
aI4
aI10
aI4
aI1
aI0
aI8
aI9
aI2
aI8
aI4
aI7
aI0
aI9
aI6
aI0
aI3
aI3
aI3
aI1
aI8
aI6
aI6
aI3
aI5
aI7
aI1
aI10
aI4
aI1
aI9
aI2
aI6
aI7
aI5
aI1
aI5
aI8
aI3
aI4
aI8
aI10
aI0
aI6
aI1
aI5
aI3
aI9
aI1
aI0
aI4
aI8
aI1
aI10
aI7
aI7
aI7
aI4
aI6
aI1
aI3
aI3
aI2
aI6
aI2
aI3
aI10
aI5
aI6
aI1
aI6
aI4
aI4
aI9
aI1
aI7
aI5
aI2
aI6
aI2
aI8
aI5
aI10
aI0
aI5
aI8
aI1
aI2
aI6
aI9
aI4
aI1
aI5
aI7
aI3
aI5
aI5
aI3
aI7
aI4
aI6
aI0
aI1
aI7
aI9
aI0
aI0
aI9
aI7
aI9
aI7
aI1
aI4
aI0
aI5
aI2
aI1
aI10
aI2
aI8
aI10
aI5
aI6
aI8
aI2
aI5
aI9
aI9
aI5
aI2
aI4
aI1
aI8
aI3
aI5
aI5
aI4
aI1
aI4
aI2
aI10
aI6
aI7
aI9
aI5
aI2
aI3
aI10
aI10
aI6
aI7
aI9
aI1
aI1
aI7
aI9
aI0
aI3
aI3
aI5
aI2
aI6
aI5
aI0
aI1
aI8
aI1
aI6
aI8
aI8
aI2
aI8
aI10
aI8
aI7
aI8
aI5
aI2
aI7
aI7
aI1
aI1
aI7
aI2
aI8
aI3
aI4
aI9
aI5
aI0
aI6
aI6
aI10
aI7
aI7
aI5
aI8
aI3
aI9
aI4
aI10
aI5
aI5
aI8
aI5
aI0
aI9
aI9
aI7
aI10
aI3
aI8
aI3
aI8
aI0
aI9
aI9
aI1
aI9
aI7
aI7
aI0
aI0
aI3
aI9
aI4
aI9
aI10
aI7
aI6
aI8
aI3
aI10
aI5
aI9
aI0
aI8
aI1
aI8
aI5
aI0
aI0
aI4
aI6
aI7
aI9
aI4
aI8
aI10
aI2
aI7
aI8
aI8
aI4
aI2
aI8
aI9
aI9
aI4
aI6
aI5
aI2
aI9
aI6
aI5
aI0
aI2
aI8
aI1
aI2
aI1
aI2
aI8
aI2
aI8
aI10
aI9
aI10
aI7
aI9
aI6
aI2
aI1
aI3
aI2
aI7
aI6
aI3
aI2
aI8
aI4
aI9
aI7
aI7
aI10
aI3
aI0
aI3
aI10
aI0
aI6
aI2
aI10
aI6
aI0
aI9
aI0
aI6
aI4
aI0
aI7
aI7
aI8
aI0
aI10
aI8
aI9
aI9
aI10
aI5
aI4
aI10
aI5
aI6
aI10
aI10
aI4
aI3
aI1
aI6
aI5
aI8
aI10
aI7
aI1
aI7
aI4
aI4
aI9
aI6
aI3
aI0
aI10
aI2
aI5
aI8
aI5
aI9
atbsS'finished'
p74
I00
sS'nReps'
p75
I55
sS'nRemaining'
p76
I5
sS'trialList'
p77
(lp78
I0
aI1
aI2
aI3
aI4
aI5
aI6
aI7
aI8
aI9
aI10
asS'seed'
p79
NsS'thisIndex'
p80
I4
sS'thisN'
p81
I599
sS'thisTrialN'
p82
I5
sS'nTotal'
p83
I605
sS'_warnUseOfNext'
p84
I01
sbasS'saveWideText'
p85
I00
sS'thisEntry'
p86
(dp87
sS'version'
p88
S''
sS'_paramNamesSoFar'
p89
(lp90
sS'entries'
p91
(lp92
(dp93
g16
(lp94
S'k'
asS'.thisTrial'
p95
I9
sS'.thisRepN'
p96
I0
sg30
g31
sg32
g33
sS'.thisTrialN'
p97
I0
sS'.thisN'
p98
I0
sS'.thisIndex'
p99
I9
sg15
(lp100
S'k'
asg17
S'Y'
sg14
I1
sa(dp101
g16
(lp102
S'd'
asg95
I9
sS'.thisRepN'
p103
I0
sg30
g31
sg32
g33
sS'.thisTrialN'
p104
I1
sS'.thisN'
p105
I1
sS'.thisIndex'
p106
I9
sg15
(lp107
S'k'
asg17
S'N'
sg14
I1
sa(dp108
g16
(lp109
S'k'
asg18
S'Y'
sS'.thisRepN'
p110
I0
sg20
S'N'
sg32
g33
sS'.thisTrialN'
p111
I2
sS'.thisN'
p112
I2
sS'.thisIndex'
p113
I6
sg15
(lp114
S'k'
asg30
g31
sg17
S'Y'
sg14
I1
sg19
Nsg95
I6
sa(dp115
g16
(lp116
S'd'
asg18
S'N'
sS'.thisRepN'
p117
I0
sg20
S'Y'
sg32
g33
sS'.thisTrialN'
p118
I3
sS'.thisN'
p119
I3
sS'.thisIndex'
p120
I2
sg15
(lp121
S'd'
asg30
g31
sg17
S'Y'
sg14
I1
sg19
Nsg95
I2
sa(dp122
g16
(lp123
S'k'
asg18
S'N'
sS'.thisRepN'
p124
I0
sg20
S'N'
sg32
g33
sS'.thisTrialN'
p125
I4
sS'.thisN'
p126
I4
sS'.thisIndex'
p127
I6
sg15
(lp128
S'd'
asg30
g31
sg17
S'N'
sg14
I1
sg19
(lp129
S'd'
asg95
I6
sa(dp130
g16
(lp131
S'd'
asg18
S'Y'
sS'.thisRepN'
p132
I0
sg20
S'N'
sg32
g33
sS'.thisTrialN'
p133
I5
sS'.thisN'
p134
I5
sS'.thisIndex'
p135
I3
sg15
(lp136
S'k'
asg30
g31
sg17
S'N'
sg14
I1
sg19
(lp137
S'd'
asg95
I3
sa(dp138
g16
(lp139
S'd'
asg18
S'N'
sS'.thisRepN'
p140
I0
sg20
S'Y'
sg32
g33
sS'.thisTrialN'
p141
I6
sS'.thisN'
p142
I6
sS'.thisIndex'
p143
I9
sg15
(lp144
S'd'
asg30
g31
sg17
S'Y'
sg14
I1
sg19
Nsg95
I9
sa(dp145
g16
(lp146
S'k'
asg18
S'N'
sS'.thisRepN'
p147
I0
sg20
S'N'
sg32
g33
sS'.thisTrialN'
p148
I7
sS'.thisN'
p149
I7
sS'.thisIndex'
p150
I5
sg15
(lp151
S'k'
asg30
g31
sg17
S'Y'
sg14
I1
sg19
(lp152
S'space'
p153
asg95
I5
sa(dp154
g16
(lp155
S'k'
asg18
S'N'
sS'.thisRepN'
p156
I0
sg20
S'N'
sg32
g33
sS'.thisTrialN'
p157
I8
sS'.thisN'
p158
I8
sS'.thisIndex'
p159
I2
sg15
(lp160
S'k'
asg30
g31
sg17
S'Y'
sg14
I1
sg19
(lp161
S'd'
asg95
I2
sa(dp162
g16
(lp163
S'k'
asg18
S'Y'
sS'.thisRepN'
p164
I0
sg20
S'Y'
sg32
g33
sS'.thisTrialN'
p165
I9
sS'.thisN'
p166
I9
sS'.thisIndex'
p167
I8
sg15
(lp168
S'k'
asg30
g31
sg17
S'Y'
sg14
I1
sg19
(lp169
S'space'
p170
asg95
I8
sa(dp171
g16
(lp172
S'k'
asg18
S'N'
sS'.thisRepN'
p173
I0
sg20
S'N'
sg32
g33
sS'.thisTrialN'
p174
I10
sS'.thisN'
p175
I10
sS'.thisIndex'
p176
I7
sg15
(lp177
S'k'
asg30
g31
sg17
S'Y'
sg14
I1
sg19
(lp178
S'space'
p179
asg95
I7
sa(dp180
g16
(lp181
S'd'
asg18
S'N'
sS'.thisRepN'
p182
I1
sg20
S'Y'
sg32
g33
sS'.thisTrialN'
p183
I0
sS'.thisN'
p184
I11
sS'.thisIndex'
p185
I10
sg15
(lp186
S'd'
asg30
g31
sg17
S'Y'
sg14
I1
sg19
Nsg95
I10
sa(dp187
g16
(lp188
S'k'
asg18
S'Y'
sS'.thisRepN'
p189
I1
sg20
S'Y'
sg32
g33
sS'.thisTrialN'
p190
I1
sS'.thisN'
p191
I12
sS'.thisIndex'
p192
I0
sg15
(lp193
S'k'
asg30
g31
sg17
S'Y'
sg14
I1
sg19
(lp194
S'space'
p195
asg95
I0
sa(dp196
g16
(lp197
S'd'
asg18
S'N'
sS'.thisRepN'
p198
I1
sg20
S'Y'
sg32
g33
sS'.thisTrialN'
p199
I2
sS'.thisN'
p200
I13
sS'.thisIndex'
p201
I7
sg15
(lp202
S'd'
asg30
g31
sg17
S'Y'
sg14
I1
sg19
Nsg95
I7
sa(dp203
g16
(lp204
S'd'
asg18
S'Y'
sS'.thisRepN'
p205
I1
sg20
S'Y'
sg32
g33
sS'.thisTrialN'
p206
I3
sS'.thisN'
p207
I14
sS'.thisIndex'
p208
I10
sg15
(lp209
S'd'
asg30
g31
sg17
S'Y'
sg14
I1
sg19
(lp210
S'space'
p211
asg95
I10
sa(dp212
g16
(lp213
S'd'
asg18
S'Y'
sS'.thisRepN'
p214
I1
sg20
S'Y'
sg32
g33
sS'.thisTrialN'
p215
I4
sS'.thisN'
p216
I15
sS'.thisIndex'
p217
I2
sg15
(lp218
S'k'
asg30
g31
sg17
S'N'
sg14
I1
sg19
(lp219
S'space'
p220
asg95
I2
sa(dp221
g16
(lp222
S'd'
asg18
S'Y'
sS'.thisRepN'
p223
I1
sg20
S'Y'
sg32
g33
sS'.thisTrialN'
p224
I5
sS'.thisN'
p225
I16
sS'.thisIndex'
p226
I1
sg15
(lp227
S'd'
asg30
g31
sg17
S'Y'
sg14
I1
sg19
(lp228
S'space'
p229
asg95
I1
sa(dp230
g16
(lp231
S'k'
asg18
S'Y'
sS'.thisRepN'
p232
I1
sg20
S'Y'
sg32
g33
sS'.thisTrialN'
p233
I6
sS'.thisN'
p234
I17
sS'.thisIndex'
p235
I1
sg15
(lp236
S'd'
asg30
g31
sg17
S'N'
sg14
I1
sg19
(lp237
S'space'
p238
asg95
I1
sa(dp239
g16
(lp240
S'd'
asg18
S'N'
sS'.thisRepN'
p241
I1
sg20
S'N'
sg32
g33
sS'.thisTrialN'
p242
I7
sS'.thisN'
p243
I18
sS'.thisIndex'
p244
I2
sg15
(lp245
S'k'
asg30
g31
sg17
S'N'
sg14
I1
sg19
(lp246
S'space'
p247
asg95
I2
sa(dp248
g16
(lp249
S'd'
asg18
S'N'
sS'.thisRepN'
p250
I1
sg20
S'N'
sg32
g33
sS'.thisTrialN'
p251
I8
sS'.thisN'
p252
I19
sS'.thisIndex'
p253
I8
sg15
(lp254
S'd'
asg30
g31
sg17
S'Y'
sg14
I1
sg19
(lp255
S'd'
asg95
I8
sa(dp256
g16
(lp257
S'k'
asg18
S'Y'
sS'.thisRepN'
p258
I1
sg20
S'Y'
sg32
g33
sS'.thisTrialN'
p259
I9
sS'.thisN'
p260
I20
sS'.thisIndex'
p261
I5
sg15
(lp262
S'k'
asg30
g31
sg17
S'Y'
sg14
I1
sg19
(lp263
S'space'
p264
asg95
I5
sa(dp265
g16
(lp266
S'k'
asg18
S'Y'
sS'.thisRepN'
p267
I1
sg20
S'Y'
sg32
g33
sS'.thisTrialN'
p268
I10
sS'.thisN'
p269
I21
sS'.thisIndex'
p270
I10
sg15
(lp271
S'd'
asg30
g31
sg17
S'N'
sg14
I1
sg19
(lp272
S'space'
p273
asg95
I10
sa(dp274
g16
(lp275
S'k'
asg18
S'Y'
sS'.thisRepN'
p276
I2
sg20
S'Y'
sg32
g33
sS'.thisTrialN'
p277
I0
sS'.thisN'
p278
I22
sS'.thisIndex'
p279
I10
sg15
(lp280
S'k'
asg30
g31
sg17
S'Y'
sg14
I1
sg19
(lp281
S'space'
p282
asg95
I10
sa(dp283
g16
(lp284
S'k'
asg18
S'Y'
sS'.thisRepN'
p285
I2
sg20
S'Y'
sg32
g33
sS'.thisTrialN'
p286
I1
sS'.thisN'
p287
I23
sS'.thisIndex'
p288
I1
sg15
(lp289
S'k'
asg30
g31
sg17
S'Y'
sg14
I1
sg19
(lp290
S'space'
p291
asg95
I1
sa(dp292
g16
(lp293
S'k'
asg18
S'N'
sS'.thisRepN'
p294
I2
sg20
S'Y'
sg32
g33
sS'.thisTrialN'
p295
I2
sS'.thisN'
p296
I24
sS'.thisIndex'
p297
I2
sg15
(lp298
S'k'
asg30
g31
sg17
S'Y'
sg14
I1
sg19
Nsg95
I2
sa(dp299
g16
(lp300
S'k'
asg18
S'Y'
sS'.thisRepN'
p301
I2
sg20
S'N'
sg32
g33
sS'.thisTrialN'
p302
I3
sS'.thisN'
p303
I25
sS'.thisIndex'
p304
I10
sg15
(lp305
S'k'
asg30
g31
sg17
S'Y'
sg14
I1
sg19
Nsg95
I10
sa(dp306
g16
(lp307
S'k'
asg18
S'N'
sS'.thisRepN'
p308
I2
sg20
S'Y'
sg32
g33
sS'.thisTrialN'
p309
I4
sS'.thisN'
p310
I26
sS'.thisIndex'
p311
I1
sg15
(lp312
S'k'
asg30
g31
sg17
S'Y'
sg14
I1
sg19
Nsg95
I1
sa(dp313
g16
(lp314
S'k'
asg18
S'N'
sS'.thisRepN'
p315
I2
sg20
S'Y'
sg32
g33
sS'.thisTrialN'
p316
I5
sS'.thisN'
p317
I27
sS'.thisIndex'
p318
I8
sg15
(lp319
S'k'
asg30
g31
sg17
S'Y'
sg14
I1
sg19
Nsg95
I8
sa(dp320
g16
(lp321
S'k'
asg18
S'N'
sS'.thisRepN'
p322
I2
sg20
S'Y'
sg32
g33
sS'.thisTrialN'
p323
I6
sS'.thisN'
p324
I28
sS'.thisIndex'
p325
I7
sg15
(lp326
S'd'
asg30
g31
sg17
S'N'
sg14
I1
sg19
Nsg95
I7
sa(dp327
g16
(lp328
S'k'
asg18
S'Y'
sS'.thisRepN'
p329
I2
sg20
S'Y'
sg32
g33
sS'.thisTrialN'
p330
I7
sS'.thisN'
p331
I29
sS'.thisIndex'
p332
I4
sg15
(lp333
S'd'
asg30
g31
sg17
S'N'
sg14
I1
sg19
(lp334
S'space'
p335
asg95
I4
sa(dp336
g16
(lp337
S'd'
asg18
S'Y'
sS'.thisRepN'
p338
I2
sg20
S'N'
sg32
g33
sS'.thisTrialN'
p339
I8
sS'.thisN'
p340
I30
sS'.thisIndex'
p341
I3
sg15
(lp342
S'd'
asg30
g31
sg17
S'Y'
sg14
I1
sg19
Nsg95
I3
sa(dp343
g16
(lp344
S'k'
asg18
S'Y'
sS'.thisRepN'
p345
I2
sg20
S'N'
sg32
g33
sS'.thisTrialN'
p346
I9
sS'.thisN'
p347
I31
sS'.thisIndex'
p348
I0
sg15
(lp349
S'k'
asg30
g31
sg17
S'Y'
sg14
I1
sg19
Nsg95
I0
sa(dp350
g16
(lp351
S'k'
asg18
S'Y'
sS'.thisRepN'
p352
I2
sg20
S'Y'
sg32
g33
sS'.thisTrialN'
p353
I10
sS'.thisN'
p354
I32
sS'.thisIndex'
p355
I3
sg15
(lp356
S'd'
asg30
g31
sg17
S'N'
sg14
I1
sg19
(lp357
S'space'
p358
asg95
I3
sa(dp359
g16
(lp360
S'd'
asg18
S'N'
sS'.thisRepN'
p361
I3
sg20
S'Y'
sg32
g33
sS'.thisTrialN'
p362
I0
sS'.thisN'
p363
I33
sS'.thisIndex'
p364
I8
sg15
(lp365
S'd'
asg30
g31
sg17
S'Y'
sg14
I1
sg19
Nsg95
I8
sa(dp366
g16
(lp367
S'd'
asg18
S'N'
sS'.thisRepN'
p368
I3
sg20
S'Y'
sg32
g33
sS'.thisTrialN'
p369
I1
sS'.thisN'
p370
I34
sS'.thisIndex'
p371
I8
sg15
(lp372
S'd'
asg30
g31
sg17
S'Y'
sg14
I1
sg19
Nsg95
I8
sa(dp373
g16
(lp374
S'd'
asg18
S'N'
sS'.thisRepN'
p375
I3
sg20
S'Y'
sg32
g33
sS'.thisTrialN'
p376
I2
sS'.thisN'
p377
I35
sS'.thisIndex'
p378
I8
sg15
(lp379
S'd'
asg30
g31
sg17
S'Y'
sg14
I1
sg19
Nsg95
I8
sa(dp380
g16
(lp381
S'k'
asg18
S'Y'
sS'.thisRepN'
p382
I3
sg20
S'Y'
sg32
g33
sS'.thisTrialN'
p383
I3
sS'.thisN'
p384
I36
sS'.thisIndex'
p385
I9
sg15
(lp386
S'k'
asg30
g31
sg17
S'Y'
sg14
I1
sg19
(lp387
S'space'
p388
asg95
I9
sa(dp389
g16
(lp390
S'k'
asg18
S'Y'
sS'.thisRepN'
p391
I3
sg20
S'Y'
sg32
g33
sS'.thisTrialN'
p392
I4
sS'.thisN'
p393
I37
sS'.thisIndex'
p394
I0
sg15
(lp395
S'd'
asg30
g31
sg17
S'N'
sg14
I1
sg19
(lp396
S'space'
p397
asg95
I0
sa(dp398
g16
(lp399
S'k'
asg18
S'N'
sS'.thisRepN'
p400
I3
sg20
S'Y'
sg32
g33
sS'.thisTrialN'
p401
I5
sS'.thisN'
p402
I38
sS'.thisIndex'
p403
I6
sg15
(lp404
S'k'
asg30
g31
sg17
S'Y'
sg14
I1
sg19
Nsg95
I6
sa(dp405
g16
(lp406
S'k'
asg18
S'N'
sS'.thisRepN'
p407
I3
sg20
S'Y'
sg32
g33
sS'.thisTrialN'
p408
I6
sS'.thisN'
p409
I39
sS'.thisIndex'
p410
I5
sg15
(lp411
S'k'
asg30
g31
sg17
S'Y'
sg14
I1
sg19
Nsg95
I5
sa(dp412
g16
(lp413
S'k'
asg18
S'N'
sS'.thisRepN'
p414
I3
sg20
S'Y'
sg32
g33
sS'.thisTrialN'
p415
I7
sS'.thisN'
p416
I40
sS'.thisIndex'
p417
I1
sg15
(lp418
S'd'
asg30
g31
sg17
S'N'
sg14
I1
sg19
Nsg95
I1
sa(dp419
g16
(lp420
S'd'
asg18
S'N'
sS'.thisRepN'
p421
I3
sg20
S'Y'
sg32
g33
sS'.thisTrialN'
p422
I8
sS'.thisN'
p423
I41
sS'.thisIndex'
p424
I4
sg15
(lp425
S'd'
asg30
g31
sg17
S'Y'
sg14
I1
sg19
Nsg95
I4
sa(dp426
g16
(lp427
S'd'
asg18
S'N'
sS'.thisRepN'
p428
I3
sg20
S'Y'
sg32
g33
sS'.thisTrialN'
p429
I9
sS'.thisN'
p430
I42
sS'.thisIndex'
p431
I0
sg15
(lp432
S'd'
asg30
g31
sg17
S'Y'
sg14
I1
sg19
Nsg95
I0
sa(dp433
g16
(lp434
S'k'
asg18
S'Y'
sS'.thisRepN'
p435
I3
sg20
S'Y'
sg32
g33
sS'.thisTrialN'
p436
I10
sS'.thisN'
p437
I43
sS'.thisIndex'
p438
I0
sg15
(lp439
S'k'
asg30
g31
sg17
S'Y'
sg14
I1
sg19
(lp440
S'space'
p441
asg95
I0
sa(dp442
g16
(lp443
S'd'
asg18
S'Y'
sS'.thisRepN'
p444
I4
sg20
S'N'
sg32
g33
sS'.thisTrialN'
p445
I0
sS'.thisN'
p446
I44
sS'.thisIndex'
p447
I0
sg15
(lp448
S'd'
asg30
g31
sg17
S'Y'
sg14
I1
sg19
Nsg95
I0
sa(dp449
g16
(lp450
S'k'
asg18
S'Y'
sS'.thisRepN'
p451
I4
sg20
S'Y'
sg32
g33
sS'.thisTrialN'
p452
I1
sS'.thisN'
p453
I45
sS'.thisIndex'
p454
I5
sg15
(lp455
S'k'
asg30
g31
sg17
S'Y'
sg14
I1
sg19
(lp456
S'space'
p457
asg95
I5
sa(dp458
g16
(lp459
S'd'
asg18
S'Y'
sS'.thisRepN'
p460
I4
sg20
S'N'
sg32
g33
sS'.thisTrialN'
p461
I2
sS'.thisN'
p462
I46
sS'.thisIndex'
p463
I3
sg15
(lp464
S'd'
asg30
g31
sg17
S'Y'
sg14
I1
sg19
(lp465
S'k'
asg95
I3
sa(dp466
g16
(lp467
S'd'
asg18
S'N'
sS'.thisRepN'
p468
I4
sg20
S'Y'
sg32
g33
sS'.thisTrialN'
p469
I3
sS'.thisN'
p470
I47
sS'.thisIndex'
p471
I3
sg15
(lp472
S'd'
asg30
g31
sg17
S'Y'
sg14
I1
sg19
Nsg95
I3
sa(dp473
g16
(lp474
S'k'
asg18
S'N'
sS'.thisRepN'
p475
I4
sg20
S'Y'
sg32
g33
sS'.thisTrialN'
p476
I4
sS'.thisN'
p477
I48
sS'.thisIndex'
p478
I5
sg15
(lp479
S'd'
asg30
g31
sg17
S'N'
sg14
I1
sg19
Nsg95
I5
sa(dp480
g16
(lp481
S'k'
asg18
S'N'
sg22
I35
sS'.thisN'
p482
I49
sg20
S'Y'
sg32
g33
sS'.thisTrialN'
p483
I5
sS'.thisRepN'
p484
I4
sg21
I37
sS'.thisIndex'
p485
I6
sg23
I23
sg15
(lp486
S'k'
asg30
g31
sg17
S'Y'
sg14
I1
sg19
Nsg95
I6
sa(dp487
g16
(lp488
S'd'
asg95
I2
sS'.thisRepN'
p489
I4
sg30
g31
sg32
g33
sS'.thisTrialN'
p490
I6
sS'.thisN'
p491
I50
sS'.thisIndex'
p492
I2
sg15
(lp493
S'd'
asg17
S'Y'
sg14
I2
sa(dp494
g16
(lp495
S'd'
asg95
I8
sS'.thisRepN'
p496
I4
sg30
g31
sg32
g33
sS'.thisTrialN'
p497
I7
sS'.thisN'
p498
I51
sS'.thisIndex'
p499
I8
sg15
(lp500
S'd'
asg17
S'Y'
sg14
I2
sa(dp501
g16
(lp502
S'k'
asg18
S'N'
sS'.thisRepN'
p503
I4
sg20
S'Y'
sg32
g33
sS'.thisTrialN'
p504
I8
sS'.thisN'
p505
I52
sS'.thisIndex'
p506
I9
sg15
(lp507
S'k'
asg30
g31
sg17
S'Y'
sg14
I2
sg19
Nsg95
I9
sa(dp508
g16
(lp509
S'k'
asg18
S'N'
sS'.thisRepN'
p510
I4
sg20
S'Y'
sg32
g33
sS'.thisTrialN'
p511
I9
sS'.thisN'
p512
I53
sS'.thisIndex'
p513
I4
sg15
(lp514
S'k'
asg30
g31
sg17
S'Y'
sg14
I2
sg19
Nsg95
I4
sa(dp515
g16
(lp516
S'd'
asg18
S'Y'
sS'.thisRepN'
p517
I4
sg20
S'N'
sg32
g33
sS'.thisTrialN'
p518
I10
sS'.thisN'
p519
I54
sS'.thisIndex'
p520
I3
sg15
(lp521
S'd'
asg30
g31
sg17
S'Y'
sg14
I2
sg19
Nsg95
I3
sa(dp522
g16
(lp523
S'k'
asg18
S'N'
sS'.thisRepN'
p524
I5
sg20
S'Y'
sg32
g33
sS'.thisTrialN'
p525
I0
sS'.thisN'
p526
I55
sS'.thisIndex'
p527
I1
sg15
(lp528
S'k'
asg30
g31
sg17
S'Y'
sg14
I2
sg19
Nsg95
I1
sa(dp529
g16
(lp530
S'k'
asg18
S'Y'
sS'.thisRepN'
p531
I5
sg20
S'N'
sg32
g33
sS'.thisTrialN'
p532
I1
sS'.thisN'
p533
I56
sS'.thisIndex'
p534
I4
sg15
(lp535
S'k'
asg30
g31
sg17
S'Y'
sg14
I2
sg19
Nsg95
I4
sa(dp536
g16
(lp537
S'd'
asg18
S'N'
sS'.thisRepN'
p538
I5
sg20
S'Y'
sg32
g33
sS'.thisTrialN'
p539
I2
sS'.thisN'
p540
I57
sS'.thisIndex'
p541
I1
sg15
(lp542
S'k'
asg30
g31
sg17
S'N'
sg14
I2
sg19
Nsg95
I1
sa(dp543
g16
(lp544
S'k'
asg18
S'Y'
sS'.thisRepN'
p545
I5
sg20
S'N'
sg32
g33
sS'.thisTrialN'
p546
I3
sS'.thisN'
p547
I58
sS'.thisIndex'
p548
I7
sg15
(lp549
S'k'
asg30
g31
sg17
S'Y'
sg14
I2
sg19
Nsg95
I7
sa(dp550
g16
(lp551
S'd'
asg18
S'N'
sS'.thisRepN'
p552
I5
sg20
S'N'
sg32
g33
sS'.thisTrialN'
p553
I4
sS'.thisN'
p554
I59
sS'.thisIndex'
p555
I9
sg15
(lp556
S'd'
asg30
g31
sg17
S'Y'
sg14
I2
sg19
(lp557
S'space'
p558
asg95
I9
sa(dp559
g16
(lp560
S'd'
asg18
S'Y'
sS'.thisRepN'
p561
I5
sg20
S'N'
sg32
g33
sS'.thisTrialN'
p562
I5
sS'.thisN'
p563
I60
sS'.thisIndex'
p564
I3
sg15
(lp565
S'd'
asg30
g31
sg17
S'Y'
sg14
I2
sg19
Nsg95
I3
sa(dp566
g16
(lp567
S'd'
asg18
S'Y'
sS'.thisRepN'
p568
I5
sg20
S'Y'
sg32
g33
sS'.thisTrialN'
p569
I6
sS'.thisN'
p570
I61
sS'.thisIndex'
p571
I6
sg15
(lp572
S'd'
asg30
g31
sg17
S'Y'
sg14
I2
sg19
(lp573
S'space'
p574
asg95
I6
sa(dp575
g16
(lp576
S'd'
asg18
S'N'
sS'.thisRepN'
p577
I5
sg20
S'Y'
sg32
g33
sS'.thisTrialN'
p578
I7
sS'.thisN'
p579
I62
sS'.thisIndex'
p580
I3
sg15
(lp581
S'd'
asg30
g31
sg17
S'Y'
sg14
I2
sg19
Nsg95
I3
sa(dp582
g16
(lp583
S'd'
asg18
S'Y'
sS'.thisRepN'
p584
I5
sg20
S'Y'
sg32
g33
sS'.thisTrialN'
p585
I8
sS'.thisN'
p586
I63
sS'.thisIndex'
p587
I5
sg15
(lp588
S'd'
asg30
g31
sg17
S'Y'
sg14
I2
sg19
(lp589
S'space'
p590
asg95
I5
sa(dp591
g16
(lp592
S'd'
asg18
S'N'
sS'.thisRepN'
p593
I5
sg20
S'Y'
sg32
g33
sS'.thisTrialN'
p594
I9
sS'.thisN'
p595
I64
sS'.thisIndex'
p596
I6
sg15
(lp597
S'k'
asg30
g31
sg17
S'N'
sg14
I2
sg19
Nsg95
I6
sa(dp598
g16
(lp599
S'd'
asg18
S'N'
sS'.thisRepN'
p600
I5
sg20
S'N'
sg32
g33
sS'.thisTrialN'
p601
I10
sS'.thisN'
p602
I65
sS'.thisIndex'
p603
I10
sg15
(lp604
S'd'
asg30
g31
sg17
S'Y'
sg14
I2
sg19
(lp605
S'd'
asg95
I10
sa(dp606
g16
(lp607
S'k'
asg18
S'Y'
sS'.thisRepN'
p608
I6
sg20
S'N'
sg32
g33
sS'.thisTrialN'
p609
I0
sS'.thisN'
p610
I66
sS'.thisIndex'
p611
I10
sg15
(lp612
S'k'
asg30
g31
sg17
S'Y'
sg14
I2
sg19
Nsg95
I10
sa(dp613
g16
(lp614
S'k'
asg18
S'N'
sS'.thisRepN'
p615
I6
sg20
S'N'
sg32
g33
sS'.thisTrialN'
p616
I1
sS'.thisN'
p617
I67
sS'.thisIndex'
p618
I4
sg15
(lp619
S'k'
asg30
g31
sg17
S'Y'
sg14
I2
sg19
(lp620
S'd'
asg95
I4
sa(dp621
g16
(lp622
S'd'
asg18
S'N'
sS'.thisRepN'
p623
I6
sg20
S'Y'
sg32
g33
sS'.thisTrialN'
p624
I2
sS'.thisN'
p625
I68
sS'.thisIndex'
p626
I0
sg15
(lp627
S'd'
asg30
g31
sg17
S'Y'
sg14
I2
sg19
Nsg95
I0
sa(dp628
g16
(lp629
S'd'
asg18
S'Y'
sS'.thisRepN'
p630
I6
sg20
S'N'
sg32
g33
sS'.thisTrialN'
p631
I3
sS'.thisN'
p632
I69
sS'.thisIndex'
p633
I1
sg15
(lp634
S'k'
asg30
g31
sg17
S'N'
sg14
I2
sg19
Nsg95
I1
sa(dp635
g16
(lp636
S'k'
asg18
S'N'
sS'.thisRepN'
p637
I6
sg20
S'N'
sg32
g33
sS'.thisTrialN'
p638
I4
sS'.thisN'
p639
I70
sS'.thisIndex'
p640
I3
sg15
(lp641
S'k'
asg30
g31
sg17
S'Y'
sg14
I2
sg19
(lp642
S'd'
asg95
I3
sa(dp643
g16
(lp644
S'd'
asg18
S'N'
sS'.thisRepN'
p645
I6
sg20
S'Y'
sg32
g33
sS'.thisTrialN'
p646
I5
sS'.thisN'
p647
I71
sS'.thisIndex'
p648
I5
sg15
(lp649
S'd'
asg30
g31
sg17
S'Y'
sg14
I2
sg19
Nsg95
I5
sa(dp650
g16
(lp651
S'd'
asg18
S'N'
sS'.thisRepN'
p652
I6
sg20
S'Y'
sg32
g33
sS'.thisTrialN'
p653
I6
sS'.thisN'
p654
I72
sS'.thisIndex'
p655
I2
sg15
(lp656
S'd'
asg30
g31
sg17
S'Y'
sg14
I2
sg19
Nsg95
I2
sa(dp657
g16
(lp658
S'k'
asg18
S'N'
sS'.thisRepN'
p659
I6
sg20
S'Y'
sg32
g33
sS'.thisTrialN'
p660
I7
sS'.thisN'
p661
I73
sS'.thisIndex'
p662
I5
sg15
(lp663
S'k'
asg30
g31
sg17
S'Y'
sg14
I2
sg19
Nsg95
I5
sa(dp664
g16
(lp665
S'd'
asg18
S'Y'
sS'.thisRepN'
p666
I6
sg20
S'N'
sg32
g33
sS'.thisTrialN'
p667
I8
sS'.thisN'
p668
I74
sS'.thisIndex'
p669
I0
sg15
(lp670
S'd'
asg30
g31
sg17
S'Y'
sg14
I2
sg19
Nsg95
I0
sa(dp671
g16
(lp672
S'k'
asg18
S'Y'
sS'.thisRepN'
p673
I6
sg20
S'N'
sg32
g33
sS'.thisTrialN'
p674
I9
sS'.thisN'
p675
I75
sS'.thisIndex'
p676
I7
sg15
(lp677
S'd'
asg30
g31
sg17
S'N'
sg14
I2
sg19
Nsg95
I7
sa(dp678
g16
(lp679
S'k'
asg18
S'N'
sS'.thisRepN'
p680
I6
sg20
S'Y'
sg32
g33
sS'.thisTrialN'
p681
I10
sS'.thisN'
p682
I76
sS'.thisIndex'
p683
I0
sg15
(lp684
S'k'
asg30
g31
sg17
S'Y'
sg14
I2
sg19
Nsg95
I0
sa(dp685
g16
(lp686
S'd'
asg18
S'N'
sS'.thisRepN'
p687
I7
sg20
S'Y'
sg32
g33
sS'.thisTrialN'
p688
I0
sS'.thisN'
p689
I77
sS'.thisIndex'
p690
I10
sg15
(lp691
S'd'
asg30
g31
sg17
S'Y'
sg14
I2
sg19
Nsg95
I10
sa(dp692
g16
(lp693
S'k'
asg18
S'N'
sS'.thisRepN'
p694
I7
sg20
S'Y'
sg32
g33
sS'.thisTrialN'
p695
I1
sS'.thisN'
p696
I78
sS'.thisIndex'
p697
I7
sg15
(lp698
S'k'
asg30
g31
sg17
S'Y'
sg14
I2
sg19
Nsg95
I7
sa(dp699
g16
(lp700
S'k'
asg18
S'N'
sS'.thisRepN'
p701
I7
sg20
S'Y'
sg32
g33
sS'.thisTrialN'
p702
I2
sS'.thisN'
p703
I79
sS'.thisIndex'
p704
I0
sg15
(lp705
S'k'
asg30
g31
sg17
S'Y'
sg14
I2
sg19
Nsg95
I0
sa(dp706
g16
(lp707
S'k'
asg18
S'Y'
sS'.thisRepN'
p708
I7
sg20
S'N'
sg32
g33
sS'.thisTrialN'
p709
I3
sS'.thisN'
p710
I80
sS'.thisIndex'
p711
I8
sg15
(lp712
S'k'
asg30
g31
sg17
S'Y'
sg14
I2
sg19
Nsg95
I8
sa(dp713
g16
(lp714
S'd'
asg18
S'N'
sS'.thisRepN'
p715
I7
sg20
S'Y'
sg32
g33
sS'.thisTrialN'
p716
I4
sS'.thisN'
p717
I81
sS'.thisIndex'
p718
I5
sg15
(lp719
S'k'
asg30
g31
sg17
S'N'
sg14
I2
sg19
Nsg95
I5
sa(dp720
g16
(lp721
S'k'
asg18
S'Y'
sS'.thisRepN'
p722
I7
sg20
S'N'
sg32
g33
sS'.thisTrialN'
p723
I5
sS'.thisN'
p724
I82
sS'.thisIndex'
p725
I7
sg15
(lp726
S'k'
asg30
g31
sg17
S'Y'
sg14
I2
sg19
Nsg95
I7
sa(dp727
g16
(lp728
S'd'
asg18
S'Y'
sS'.thisRepN'
p729
I7
sg20
S'N'
sg32
g33
sS'.thisTrialN'
p730
I6
sS'.thisN'
p731
I83
sS'.thisIndex'
p732
I8
sg15
(lp733
S'd'
asg30
g31
sg17
S'Y'
sg14
I2
sg19
Nsg95
I8
sa(dp734
g16
(lp735
S'd'
asg18
S'Y'
sS'.thisRepN'
p736
I7
sg20
S'N'
sg32
g33
sS'.thisTrialN'
p737
I7
sS'.thisN'
p738
I84
sS'.thisIndex'
p739
I5
sg15
(lp740
S'k'
asg30
g31
sg17
S'N'
sg14
I2
sg19
Nsg95
I5
sa(dp741
g16
(lp742
S'd'
asg18
S'N'
sS'.thisRepN'
p743
I7
sg20
S'Y'
sg32
g33
sS'.thisTrialN'
p744
I8
sS'.thisN'
p745
I85
sS'.thisIndex'
p746
I6
sg15
(lp747
S'd'
asg30
g31
sg17
S'Y'
sg14
I2
sg19
Nsg95
I6
sa(dp748
g16
(lp749
S'k'
asg18
S'N'
sS'.thisRepN'
p750
I7
sg20
S'Y'
sg32
g33
sS'.thisTrialN'
p751
I9
sS'.thisN'
p752
I86
sS'.thisIndex'
p753
I9
sg15
(lp754
S'k'
asg30
g31
sg17
S'Y'
sg14
I2
sg19
Nsg95
I9
sa(dp755
g16
(lp756
S'k'
asg18
S'N'
sS'.thisRepN'
p757
I7
sg20
S'Y'
sg32
g33
sS'.thisTrialN'
p758
I10
sS'.thisN'
p759
I87
sS'.thisIndex'
p760
I6
sg15
(lp761
S'k'
asg30
g31
sg17
S'Y'
sg14
I2
sg19
Nsg95
I6
sa(dp762
g16
(lp763
S'd'
asg18
S'N'
sS'.thisRepN'
p764
I8
sg20
S'Y'
sg32
g33
sS'.thisTrialN'
p765
I0
sS'.thisN'
p766
I88
sS'.thisIndex'
p767
I4
sg15
(lp768
S'k'
asg30
g31
sg17
S'N'
sg14
I2
sg19
Nsg95
I4
sa(dp769
g16
(lp770
S'k'
asg18
S'Y'
sS'.thisRepN'
p771
I8
sg20
S'N'
sg32
g33
sS'.thisTrialN'
p772
I1
sS'.thisN'
p773
I89
sS'.thisIndex'
p774
I4
sg15
(lp775
S'k'
asg30
g31
sg17
S'Y'
sg14
I2
sg19
Nsg95
I4
sa(dp776
g16
(lp777
S'k'
asg18
S'N'
sS'.thisRepN'
p778
I8
sg20
S'Y'
sg32
g33
sS'.thisTrialN'
p779
I2
sS'.thisN'
p780
I90
sS'.thisIndex'
p781
I2
sg15
(lp782
S'k'
asg30
g31
sg17
S'Y'
sg14
I2
sg19
Nsg95
I2
sa(dp783
g16
(lp784
S'k'
asg18
S'N'
sS'.thisRepN'
p785
I8
sg20
S'Y'
sg32
g33
sS'.thisTrialN'
p786
I3
sS'.thisN'
p787
I91
sS'.thisIndex'
p788
I1
sg15
(lp789
S'd'
asg30
g31
sg17
S'N'
sg14
I2
sg19
Nsg95
I1
sa(dp790
g16
(lp791
S'd'
asg18
S'Y'
sS'.thisRepN'
p792
I8
sg20
S'N'
sg32
g33
sS'.thisTrialN'
p793
I4
sS'.thisN'
p794
I92
sS'.thisIndex'
p795
I2
sg15
(lp796
S'd'
asg30
g31
sg17
S'Y'
sg14
I2
sg19
Nsg95
I2
sa(dp797
g16
(lp798
S'k'
asg18
S'N'
sS'.thisRepN'
p799
I8
sg20
S'Y'
sg32
g33
sS'.thisTrialN'
p800
I5
sS'.thisN'
p801
I93
sS'.thisIndex'
p802
I1
sg15
(lp803
S'k'
asg30
g31
sg17
S'Y'
sg14
I2
sg19
Nsg95
I1
sa(dp804
g16
(lp805
S'd'
asg18
S'N'
sS'.thisRepN'
p806
I8
sg20
S'Y'
sg32
g33
sS'.thisTrialN'
p807
I6
sS'.thisN'
p808
I94
sS'.thisIndex'
p809
I5
sg15
(lp810
S'd'
asg30
g31
sg17
S'Y'
sg14
I2
sg19
Nsg95
I5
sa(dp811
g16
(lp812
S'k'
asg18
S'Y'
sS'.thisRepN'
p813
I8
sg20
S'N'
sg32
g33
sS'.thisTrialN'
p814
I7
sS'.thisN'
p815
I95
sS'.thisIndex'
p816
I4
sg15
(lp817
S'k'
asg30
g31
sg17
S'Y'
sg14
I2
sg19
Nsg95
I4
sa(dp818
g16
(lp819
S'd'
asg18
S'Y'
sS'.thisRepN'
p820
I8
sg20
S'N'
sg32
g33
sS'.thisTrialN'
p821
I8
sS'.thisN'
p822
I96
sS'.thisIndex'
p823
I6
sg15
(lp824
S'd'
asg30
g31
sg17
S'Y'
sg14
I2
sg19
Nsg95
I6
sa(dp825
g16
(lp826
S'k'
asg18
S'Y'
sS'.thisRepN'
p827
I8
sg20
S'N'
sg32
g33
sS'.thisTrialN'
p828
I9
sS'.thisN'
p829
I97
sS'.thisIndex'
p830
I4
sg15
(lp831
S'k'
asg30
g31
sg17
S'Y'
sg14
I2
sg19
Nsg95
I4
sa(dp832
g16
(lp833
S'd'
asg18
S'Y'
sS'.thisRepN'
p834
I8
sg20
S'Y'
sg32
g33
sS'.thisTrialN'
p835
I10
sS'.thisN'
p836
I98
sS'.thisIndex'
p837
I2
sg15
(lp838
S'd'
asg30
g31
sg17
S'Y'
sg14
I2
sg19
(lp839
S'space'
p840
asg95
I2
sa(dp841
g16
(lp842
S'd'
asg18
S'Y'
sg22
I26
sS'.thisN'
p843
I99
sg20
S'N'
sg32
g33
sS'.thisTrialN'
p844
I0
sS'.thisRepN'
p845
I9
sg21
I41
sS'.thisIndex'
p846
I7
sg23
I21
sg15
(lp847
S'k'
asg30
g31
sg17
S'N'
sg14
I2
sg19
Nsg95
I7
sa(dp848
g16
(lp849
S'k'
asg95
I1
sS'.thisRepN'
p850
I9
sg30
g31
sg32
g33
sS'.thisTrialN'
p851
I1
sS'.thisN'
p852
I100
sS'.thisIndex'
p853
I1
sg15
(lp854
S'k'
asg17
S'Y'
sg14
I3
sa(dp855
g16
(lp856
S'k'
asg95
I0
sS'.thisRepN'
p857
I9
sg30
g31
sg32
g33
sS'.thisTrialN'
p858
I2
sS'.thisN'
p859
I101
sS'.thisIndex'
p860
I0
sg15
(lp861
S'k'
asg17
S'Y'
sg14
I3
sa(dp862
g16
(lp863
S'd'
asg18
S'Y'
sS'.thisRepN'
p864
I9
sg20
S'Y'
sg32
g33
sS'.thisTrialN'
p865
I3
sS'.thisN'
p866
I102
sS'.thisIndex'
p867
I10
sg15
(lp868
S'd'
asg30
g31
sg17
S'Y'
sg14
I3
sg19
(lp869
S'space'
p870
asg95
I10
sa(dp871
g16
(lp872
S'k'
asg18
S'N'
sS'.thisRepN'
p873
I9
sg20
S'Y'
sg32
g33
sS'.thisTrialN'
p874
I4
sS'.thisN'
p875
I103
sS'.thisIndex'
p876
I0
sg15
(lp877
S'k'
asg30
g31
sg17
S'Y'
sg14
I3
sg19
Nsg95
I0
sa(dp878
g16
(lp879
S'k'
asg18
S'N'
sS'.thisRepN'
p880
I9
sg20
S'Y'
sg32
g33
sS'.thisTrialN'
p881
I5
sS'.thisN'
p882
I104
sS'.thisIndex'
p883
I10
sg15
(lp884
S'k'
asg30
g31
sg17
S'Y'
sg14
I3
sg19
Nsg95
I10
sa(dp885
g16
(lp886
S'd'
asg18
S'N'
sS'.thisRepN'
p887
I9
sg20
S'Y'
sg32
g33
sS'.thisTrialN'
p888
I6
sS'.thisN'
p889
I105
sS'.thisIndex'
p890
I10
sg15
(lp891
S'd'
asg30
g31
sg17
S'Y'
sg14
I3
sg19
Nsg95
I10
sa(dp892
g16
(lp893
S'd'
asg18
S'Y'
sS'.thisRepN'
p894
I9
sg20
S'Y'
sg32
g33
sS'.thisTrialN'
p895
I7
sS'.thisN'
p896
I106
sS'.thisIndex'
p897
I1
sg15
(lp898
S'd'
asg30
g31
sg17
S'Y'
sg14
I3
sg19
(lp899
S'space'
p900
asg95
I1
sa(dp901
g16
(lp902
S'd'
asg18
S'Y'
sS'.thisRepN'
p903
I9
sg20
S'Y'
sg32
g33
sS'.thisTrialN'
p904
I8
sS'.thisN'
p905
I107
sS'.thisIndex'
p906
I10
sg15
(lp907
S'd'
asg30
g31
sg17
S'Y'
sg14
I3
sg19
(lp908
S'space'
p909
asg95
I10
sa(dp910
g16
(lp911
S'k'
asg18
S'N'
sS'.thisRepN'
p912
I9
sg20
S'Y'
sg32
g33
sS'.thisTrialN'
p913
I9
sS'.thisN'
p914
I108
sS'.thisIndex'
p915
I8
sg15
(lp916
S'k'
asg30
g31
sg17
S'Y'
sg14
I3
sg19
Nsg95
I8
sa(dp917
g16
(lp918
S'k'
asg18
S'N'
sS'.thisRepN'
p919
I9
sg20
S'Y'
sg32
g33
sS'.thisTrialN'
p920
I10
sS'.thisN'
p921
I109
sS'.thisIndex'
p922
I10
sg15
(lp923
S'd'
asg30
g31
sg17
S'N'
sg14
I3
sg19
Nsg95
I10
sa(dp924
g16
(lp925
S'k'
asg18
S'N'
sS'.thisRepN'
p926
I10
sg20
S'Y'
sg32
g33
sS'.thisTrialN'
p927
I0
sS'.thisN'
p928
I110
sS'.thisIndex'
p929
I9
sg15
(lp930
S'k'
asg30
g31
sg17
S'Y'
sg14
I3
sg19
Nsg95
I9
sa(dp931
g16
(lp932
S'k'
asg18
S'N'
sS'.thisRepN'
p933
I10
sg20
S'Y'
sg32
g33
sS'.thisTrialN'
p934
I1
sS'.thisN'
p935
I111
sS'.thisIndex'
p936
I8
sg15
(lp937
S'k'
asg30
g31
sg17
S'Y'
sg14
I3
sg19
Nsg95
I8
sa(dp938
g16
(lp939
S'k'
asg18
S'Y'
sS'.thisRepN'
p940
I10
sg20
S'Y'
sg32
g33
sS'.thisTrialN'
p941
I2
sS'.thisN'
p942
I112
sS'.thisIndex'
p943
I10
sg15
(lp944
S'k'
asg30
g31
sg17
S'Y'
sg14
I3
sg19
(lp945
S'space'
p946
asg95
I10
sa(dp947
g16
(lp948
S'd'
asg18
S'Y'
sS'.thisRepN'
p949
I10
sg20
S'N'
sg32
g33
sS'.thisTrialN'
p950
I3
sS'.thisN'
p951
I113
sS'.thisIndex'
p952
I10
sg15
(lp953
S'k'
asg30
g31
sg17
S'N'
sg14
I3
sg19
Nsg95
I10
sa(dp954
g16
(lp955
S'k'
asg18
S'N'
sS'.thisRepN'
p956
I10
sg20
S'N'
sg32
g33
sS'.thisTrialN'
p957
I4
sS'.thisN'
p958
I114
sS'.thisIndex'
p959
I8
sg15
(lp960
S'k'
asg30
g31
sg17
S'Y'
sg14
I3
sg19
(lp961
S'space'
p962
asg95
I8
sa(dp963
g16
(lp964
S'k'
asg18
S'N'
sS'.thisRepN'
p965
I10
sg20
S'Y'
sg32
g33
sS'.thisTrialN'
p966
I5
sS'.thisN'
p967
I115
sS'.thisIndex'
p968
I4
sg15
(lp969
S'k'
asg30
g31
sg17
S'Y'
sg14
I3
sg19
Nsg95
I4
sa(dp970
g16
(lp971
S'k'
asg18
S'N'
sS'.thisRepN'
p972
I10
sg20
S'Y'
sg32
g33
sS'.thisTrialN'
p973
I6
sS'.thisN'
p974
I116
sS'.thisIndex'
p975
I0
sg15
(lp976
S'k'
asg30
g31
sg17
S'Y'
sg14
I3
sg19
Nsg95
I0
sa(dp977
g16
(lp978
S'k'
asg18
S'Y'
sS'.thisRepN'
p979
I10
sg20
S'Y'
sg32
g33
sS'.thisTrialN'
p980
I7
sS'.thisN'
p981
I117
sS'.thisIndex'
p982
I4
sg15
(lp983
S'k'
asg30
g31
sg17
S'Y'
sg14
I3
sg19
(lp984
S'space'
p985
asg95
I4
sa(dp986
g16
(lp987
S'k'
asg18
S'Y'
sS'.thisRepN'
p988
I10
sg20
S'Y'
sg32
g33
sS'.thisTrialN'
p989
I8
sS'.thisN'
p990
I118
sS'.thisIndex'
p991
I7
sg15
(lp992
S'k'
asg30
g31
sg17
S'Y'
sg14
I3
sg19
(lp993
S'space'
p994
asg95
I7
sa(dp995
g16
(lp996
S'd'
asg18
S'Y'
sS'.thisRepN'
p997
I10
sg20
S'Y'
sg32
g33
sS'.thisTrialN'
p998
I9
sS'.thisN'
p999
I119
sS'.thisIndex'
p1000
I10
sg15
(lp1001
S'k'
asg30
g31
sg17
S'N'
sg14
I3
sg19
(lp1002
S'space'
p1003
asg95
I10
sa(dp1004
g16
(lp1005
S'k'
asg18
S'N'
sS'.thisRepN'
p1006
I10
sg20
S'Y'
sg32
g33
sS'.thisTrialN'
p1007
I10
sS'.thisN'
p1008
I120
sS'.thisIndex'
p1009
I6
sg15
(lp1010
S'k'
asg30
g31
sg17
S'Y'
sg14
I3
sg19
Nsg95
I6
sa(dp1011
g16
(lp1012
S'k'
asg18
S'Y'
sS'.thisRepN'
p1013
I11
sg20
S'Y'
sg32
g33
sS'.thisTrialN'
p1014
I0
sS'.thisN'
p1015
I121
sS'.thisIndex'
p1016
I9
sg15
(lp1017
S'k'
asg30
g31
sg17
S'Y'
sg14
I3
sg19
(lp1018
S'space'
p1019
asg95
I9
sa(dp1020
g16
(lp1021
S'd'
asg18
S'Y'
sS'.thisRepN'
p1022
I11
sg20
S'Y'
sg32
g33
sS'.thisTrialN'
p1023
I1
sS'.thisN'
p1024
I122
sS'.thisIndex'
p1025
I0
sg15
(lp1026
S'd'
asg30
g31
sg17
S'Y'
sg14
I3
sg19
(lp1027
S'space'
p1028
asg95
I0
sa(dp1029
g16
(lp1030
S'k'
asg18
S'N'
sS'.thisRepN'
p1031
I11
sg20
S'Y'
sg32
g33
sS'.thisTrialN'
p1032
I2
sS'.thisN'
p1033
I123
sS'.thisIndex'
p1034
I2
sg15
(lp1035
S'k'
asg30
g31
sg17
S'Y'
sg14
I3
sg19
Nsg95
I2
sa(dp1036
g16
(lp1037
S'd'
asg18
S'Y'
sS'.thisRepN'
p1038
I11
sg20
S'Y'
sg32
g33
sS'.thisTrialN'
p1039
I3
sS'.thisN'
p1040
I124
sS'.thisIndex'
p1041
I9
sg15
(lp1042
S'd'
asg30
g31
sg17
S'Y'
sg14
I3
sg19
(lp1043
S'space'
p1044
asg95
I9
sa(dp1045
g16
(lp1046
S'd'
asg18
S'N'
sS'.thisRepN'
p1047
I11
sg20
S'Y'
sg32
g33
sS'.thisTrialN'
p1048
I4
sS'.thisN'
p1049
I125
sS'.thisIndex'
p1050
I6
sg15
(lp1051
S'd'
asg30
g31
sg17
S'Y'
sg14
I3
sg19
Nsg95
I6
sa(dp1052
g16
(lp1053
S'd'
asg18
S'N'
sS'.thisRepN'
p1054
I11
sg20
S'Y'
sg32
g33
sS'.thisTrialN'
p1055
I5
sS'.thisN'
p1056
I126
sS'.thisIndex'
p1057
I1
sg15
(lp1058
S'k'
asg30
g31
sg17
S'N'
sg14
I3
sg19
Nsg95
I1
sa(dp1059
g16
(lp1060
S'd'
asg18
S'N'
sS'.thisRepN'
p1061
I11
sg20
S'Y'
sg32
g33
sS'.thisTrialN'
p1062
I6
sS'.thisN'
p1063
I127
sS'.thisIndex'
p1064
I5
sg15
(lp1065
S'd'
asg30
g31
sg17
S'Y'
sg14
I3
sg19
Nsg95
I5
sa(dp1066
g16
(lp1067
S'k'
asg18
S'Y'
sS'.thisRepN'
p1068
I11
sg20
S'Y'
sg32
g33
sS'.thisTrialN'
p1069
I7
sS'.thisN'
p1070
I128
sS'.thisIndex'
p1071
I2
sg15
(lp1072
S'k'
asg30
g31
sg17
S'Y'
sg14
I3
sg19
(lp1073
S'space'
p1074
asg95
I2
sa(dp1075
g16
(lp1076
S'd'
asg18
S'Y'
sS'.thisRepN'
p1077
I11
sg20
S'Y'
sg32
g33
sS'.thisTrialN'
p1078
I8
sS'.thisN'
p1079
I129
sS'.thisIndex'
p1080
I7
sg15
(lp1081
S'd'
asg30
g31
sg17
S'Y'
sg14
I3
sg19
(lp1082
S'space'
p1083
asg95
I7
sa(dp1084
g16
(lp1085
S'd'
asg18
S'Y'
sS'.thisRepN'
p1086
I11
sg20
S'Y'
sg32
g33
sS'.thisTrialN'
p1087
I9
sS'.thisN'
p1088
I130
sS'.thisIndex'
p1089
I2
sg15
(lp1090
S'k'
asg30
g31
sg17
S'N'
sg14
I3
sg19
(lp1091
S'space'
p1092
asg95
I2
sa(dp1093
g16
(lp1094
S'd'
asg18
S'Y'
sS'.thisRepN'
p1095
I11
sg20
S'Y'
sg32
g33
sS'.thisTrialN'
p1096
I10
sS'.thisN'
p1097
I131
sS'.thisIndex'
p1098
I0
sg15
(lp1099
S'd'
asg30
g31
sg17
S'Y'
sg14
I3
sg19
(lp1100
S'space'
p1101
asg95
I0
sa(dp1102
g16
(lp1103
S'd'
asg18
S'N'
sS'.thisRepN'
p1104
I12
sg20
S'Y'
sg32
g33
sS'.thisTrialN'
p1105
I0
sS'.thisN'
p1106
I132
sS'.thisIndex'
p1107
I4
sg15
(lp1108
S'k'
asg30
g31
sg17
S'N'
sg14
I3
sg19
Nsg95
I4
sa(dp1109
g16
(lp1110
S'd'
asg18
S'N'
sS'.thisRepN'
p1111
I12
sg20
S'Y'
sg32
g33
sS'.thisTrialN'
p1112
I1
sS'.thisN'
p1113
I133
sS'.thisIndex'
p1114
I6
sg15
(lp1115
S'd'
asg30
g31
sg17
S'Y'
sg14
I3
sg19
Nsg95
I6
sa(dp1116
g16
(lp1117
S'k'
asg18
S'Y'
sS'.thisRepN'
p1118
I12
sg20
S'Y'
sg32
g33
sS'.thisTrialN'
p1119
I2
sS'.thisN'
p1120
I134
sS'.thisIndex'
p1121
I5
sg15
(lp1122
S'k'
asg30
g31
sg17
S'Y'
sg14
I3
sg19
(lp1123
S'space'
p1124
asg95
I5
sa(dp1125
g16
(lp1126
S'k'
asg18
S'Y'
sS'.thisRepN'
p1127
I12
sg20
S'Y'
sg32
g33
sS'.thisTrialN'
p1128
I3
sS'.thisN'
p1129
I135
sS'.thisIndex'
p1130
I1
sg15
(lp1131
S'k'
asg30
g31
sg17
S'Y'
sg14
I3
sg19
(lp1132
S'space'
p1133
asg95
I1
sa(dp1134
g16
(lp1135
S'k'
asg18
S'Y'
sS'.thisRepN'
p1136
I12
sg20
S'Y'
sg32
g33
sS'.thisTrialN'
p1137
I4
sS'.thisN'
p1138
I136
sS'.thisIndex'
p1139
I1
sg15
(lp1140
S'd'
asg30
g31
sg17
S'N'
sg14
I3
sg19
(lp1141
S'space'
p1142
asg95
I1
sa(dp1143
g16
(lp1144
S'k'
asg18
S'N'
sS'.thisRepN'
p1145
I12
sg20
S'Y'
sg32
g33
sS'.thisTrialN'
p1146
I5
sS'.thisN'
p1147
I137
sS'.thisIndex'
p1148
I9
sg15
(lp1149
S'k'
asg30
g31
sg17
S'Y'
sg14
I3
sg19
Nsg95
I9
sa(dp1150
g16
(lp1151
S'k'
asg18
S'Y'
sS'.thisRepN'
p1152
I12
sg20
S'N'
sg32
g33
sS'.thisTrialN'
p1153
I6
sS'.thisN'
p1154
I138
sS'.thisIndex'
p1155
I8
sg15
(lp1156
S'k'
asg30
g31
sg17
S'Y'
sg14
I3
sg19
Nsg95
I8
sa(dp1157
g16
(lp1158
S'k'
asg18
S'Y'
sS'.thisRepN'
p1159
I12
sg20
S'Y'
sg32
g33
sS'.thisTrialN'
p1160
I7
sS'.thisN'
p1161
I139
sS'.thisIndex'
p1162
I10
sg15
(lp1163
S'k'
asg30
g31
sg17
S'Y'
sg14
I3
sg19
(lp1164
S'space'
p1165
asg95
I10
sa(dp1166
g16
(lp1167
S'k'
asg18
S'N'
sS'.thisRepN'
p1168
I12
sg20
S'Y'
sg32
g33
sS'.thisTrialN'
p1169
I8
sS'.thisN'
p1170
I140
sS'.thisIndex'
p1171
I5
sg15
(lp1172
S'k'
asg30
g31
sg17
S'Y'
sg14
I3
sg19
Nsg95
I5
sa(dp1173
g16
(lp1174
S'd'
asg18
S'N'
sS'.thisRepN'
p1175
I12
sg20
S'Y'
sg32
g33
sS'.thisTrialN'
p1176
I9
sS'.thisN'
p1177
I141
sS'.thisIndex'
p1178
I7
sg15
(lp1179
S'd'
asg30
g31
sg17
S'Y'
sg14
I3
sg19
Nsg95
I7
sa(dp1180
g16
(lp1181
S'd'
asg18
S'Y'
sS'.thisRepN'
p1182
I12
sg20
S'Y'
sg32
g33
sS'.thisTrialN'
p1183
I10
sS'.thisN'
p1184
I142
sS'.thisIndex'
p1185
I9
sg15
(lp1186
S'k'
asg30
g31
sg17
S'N'
sg14
I3
sg19
(lp1187
S'space'
p1188
asg95
I9
sa(dp1189
g16
(lp1190
S'd'
asg18
S'N'
sS'.thisRepN'
p1191
I13
sg20
S'N'
sg32
g33
sS'.thisTrialN'
p1192
I0
sS'.thisN'
p1193
I143
sS'.thisIndex'
p1194
I5
sg15
(lp1195
S'k'
asg30
g31
sg17
S'N'
sg14
I3
sg19
(lp1196
S'space'
p1197
asg95
I5
sa(dp1198
g16
(lp1199
S'k'
asg18
S'N'
sS'.thisRepN'
p1200
I13
sg20
S'Y'
sg32
g33
sS'.thisTrialN'
p1201
I1
sS'.thisN'
p1202
I144
sS'.thisIndex'
p1203
I2
sg15
(lp1204
S'd'
asg30
g31
sg17
S'N'
sg14
I3
sg19
Nsg95
I2
sa(dp1205
g16
(lp1206
S'd'
asg18
S'N'
sS'.thisRepN'
p1207
I13
sg20
S'Y'
sg32
g33
sS'.thisTrialN'
p1208
I2
sS'.thisN'
p1209
I145
sS'.thisIndex'
p1210
I9
sg15
(lp1211
S'd'
asg30
g31
sg17
S'Y'
sg14
I3
sg19
Nsg95
I9
sa(dp1212
g16
(lp1213
S'k'
asg18
S'N'
sS'.thisRepN'
p1214
I13
sg20
S'N'
sg32
g33
sS'.thisTrialN'
p1215
I3
sS'.thisN'
p1216
I146
sS'.thisIndex'
p1217
I3
sg15
(lp1218
S'k'
asg30
g31
sg17
S'Y'
sg14
I3
sg19
(lp1219
S'space'
p1220
asg95
I3
sa(dp1221
g16
(lp1222
S'd'
asg18
S'N'
sS'.thisRepN'
p1223
I13
sg20
S'Y'
sg32
g33
sS'.thisTrialN'
p1224
I4
sS'.thisN'
p1225
I147
sS'.thisIndex'
p1226
I8
sg15
(lp1227
S'd'
asg30
g31
sg17
S'Y'
sg14
I3
sg19
Nsg95
I8
sa(dp1228
g16
(lp1229
S'k'
asg18
S'Y'
sS'.thisRepN'
p1230
I13
sg20
S'Y'
sg32
g33
sS'.thisTrialN'
p1231
I5
sS'.thisN'
p1232
I148
sS'.thisIndex'
p1233
I2
sg15
(lp1234
S'k'
asg30
g31
sg17
S'Y'
sg14
I3
sg19
(lp1235
S'space'
p1236
asg95
I2
sa(dp1237
g16
(lp1238
S'k'
asg18
S'N'
sg22
I43
sS'.thisN'
p1239
I149
sg20
S'Y'
sg32
g33
sS'.thisTrialN'
p1240
I6
sS'.thisRepN'
p1241
I13
sg21
I40
sS'.thisIndex'
p1242
I1
sg23
I22
sg15
(lp1243
S'k'
asg30
g31
sg17
S'Y'
sg14
I3
sg19
Nsg95
I1
sa(dp1244
g16
(lp1245
S'k'
asg95
I6
sS'.thisRepN'
p1246
I13
sg30
g31
sg32
g33
sS'.thisTrialN'
p1247
I7
sS'.thisN'
p1248
I150
sS'.thisIndex'
p1249
I6
sg15
(lp1250
S'k'
asg17
S'Y'
sg14
I4
sa(dp1251
g16
(lp1252
S'k'
asg95
I8
sS'.thisRepN'
p1253
I13
sg30
g31
sg32
g33
sS'.thisTrialN'
p1254
I8
sS'.thisN'
p1255
I151
sS'.thisIndex'
p1256
I8
sg15
(lp1257
S'd'
asg17
S'N'
sg14
I4
sa(dp1258
g16
(lp1259
S'k'
asg18
S'Y'
sS'.thisRepN'
p1260
I13
sg20
S'Y'
sg32
g33
sS'.thisTrialN'
p1261
I9
sS'.thisN'
p1262
I152
sS'.thisIndex'
p1263
I8
sg15
(lp1264
S'k'
asg30
g31
sg17
S'Y'
sg14
I4
sg19
(lp1265
S'space'
p1266
asg95
I8
sa(dp1267
g16
(lp1268
S'k'
asg18
S'Y'
sS'.thisRepN'
p1269
I13
sg20
S'Y'
sg32
g33
sS'.thisTrialN'
p1270
I10
sS'.thisN'
p1271
I153
sS'.thisIndex'
p1272
I0
sg15
(lp1273
S'k'
asg30
g31
sg17
S'Y'
sg14
I4
sg19
(lp1274
S'space'
p1275
asg95
I0
sa(dp1276
g16
(lp1277
S'k'
asg18
S'Y'
sS'.thisRepN'
p1278
I14
sg20
S'Y'
sg32
g33
sS'.thisTrialN'
p1279
I0
sS'.thisN'
p1280
I154
sS'.thisIndex'
p1281
I7
sg15
(lp1282
S'k'
asg30
g31
sg17
S'Y'
sg14
I4
sg19
(lp1283
S'space'
p1284
asg95
I7
sa(dp1285
g16
(lp1286
S'd'
asg18
S'Y'
sS'.thisRepN'
p1287
I14
sg20
S'N'
sg32
g33
sS'.thisTrialN'
p1288
I1
sS'.thisN'
p1289
I155
sS'.thisIndex'
p1290
I3
sg15
(lp1291
S'd'
asg30
g31
sg17
S'Y'
sg14
I4
sg19
Nsg95
I3
sa(dp1292
g16
(lp1293
S'd'
asg18
S'N'
sS'.thisRepN'
p1294
I14
sg20
S'Y'
sg32
g33
sS'.thisTrialN'
p1295
I2
sS'.thisN'
p1296
I156
sS'.thisIndex'
p1297
I10
sg15
(lp1298
S'd'
asg30
g31
sg17
S'Y'
sg14
I4
sg19
Nsg95
I10
sa(dp1299
g16
(lp1300
S'd'
asg18
S'N'
sS'.thisRepN'
p1301
I14
sg20
S'Y'
sg32
g33
sS'.thisTrialN'
p1302
I3
sS'.thisN'
p1303
I157
sS'.thisIndex'
p1304
I0
sg15
(lp1305
S'd'
asg30
g31
sg17
S'Y'
sg14
I4
sg19
Nsg95
I0
sa(dp1306
g16
(lp1307
S'd'
asg18
S'Y'
sS'.thisRepN'
p1308
I14
sg20
S'Y'
sg32
g33
sS'.thisTrialN'
p1309
I4
sS'.thisN'
p1310
I158
sS'.thisIndex'
p1311
I2
sg15
(lp1312
S'd'
asg30
g31
sg17
S'Y'
sg14
I4
sg19
(lp1313
S'space'
p1314
asg95
I2
sa(dp1315
g16
(lp1316
S'd'
asg18
S'Y'
sS'.thisRepN'
p1317
I14
sg20
S'Y'
sg32
g33
sS'.thisTrialN'
p1318
I5
sS'.thisN'
p1319
I159
sS'.thisIndex'
p1320
I6
sg15
(lp1321
S'k'
asg30
g31
sg17
S'N'
sg14
I4
sg19
(lp1322
S'space'
p1323
asg95
I6
sa(dp1324
g16
(lp1325
S'k'
asg18
S'Y'
sS'.thisRepN'
p1326
I14
sg20
S'Y'
sg32
g33
sS'.thisTrialN'
p1327
I6
sS'.thisN'
p1328
I160
sS'.thisIndex'
p1329
I2
sg15
(lp1330
S'k'
asg30
g31
sg17
S'Y'
sg14
I4
sg19
(lp1331
S'space'
p1332
asg95
I2
sa(dp1333
g16
(lp1334
S'k'
asg18
S'Y'
sS'.thisRepN'
p1335
I14
sg20
S'N'
sg32
g33
sS'.thisTrialN'
p1336
I7
sS'.thisN'
p1337
I161
sS'.thisIndex'
p1338
I7
sg15
(lp1339
S'k'
asg30
g31
sg17
S'Y'
sg14
I4
sg19
(lp1340
S'd'
asg95
I7
sa(dp1341
g16
(lp1342
S'k'
asg18
S'N'
sS'.thisRepN'
p1343
I14
sg20
S'Y'
sg32
g33
sS'.thisTrialN'
p1344
I8
sS'.thisN'
p1345
I162
sS'.thisIndex'
p1346
I3
sg15
(lp1347
S'k'
asg30
g31
sg17
S'Y'
sg14
I4
sg19
Nsg95
I3
sa(dp1348
g16
(lp1349
S'd'
asg18
S'N'
sS'.thisRepN'
p1350
I14
sg20
S'Y'
sg32
g33
sS'.thisTrialN'
p1351
I9
sS'.thisN'
p1352
I163
sS'.thisIndex'
p1353
I8
sg15
(lp1354
S'd'
asg30
g31
sg17
S'Y'
sg14
I4
sg19
Nsg95
I8
sa(dp1355
g16
(lp1356
S'd'
asg18
S'N'
sS'.thisRepN'
p1357
I14
sg20
S'Y'
sg32
g33
sS'.thisTrialN'
p1358
I10
sS'.thisN'
p1359
I164
sS'.thisIndex'
p1360
I6
sg15
(lp1361
S'k'
asg30
g31
sg17
S'N'
sg14
I4
sg19
Nsg95
I6
sa(dp1362
g16
(lp1363
S'k'
asg18
S'N'
sS'.thisRepN'
p1364
I15
sg20
S'Y'
sg32
g33
sS'.thisTrialN'
p1365
I0
sS'.thisN'
p1366
I165
sS'.thisIndex'
p1367
I9
sg15
(lp1368
S'k'
asg30
g31
sg17
S'Y'
sg14
I4
sg19
Nsg95
I9
sa(dp1369
g16
(lp1370
S'd'
asg18
S'Y'
sS'.thisRepN'
p1371
I15
sg20
S'Y'
sg32
g33
sS'.thisTrialN'
p1372
I1
sS'.thisN'
p1373
I166
sS'.thisIndex'
p1374
I3
sg15
(lp1375
S'd'
asg30
g31
sg17
S'Y'
sg14
I4
sg19
(lp1376
S'space'
p1377
asg95
I3
sa(dp1378
g16
(lp1379
S'd'
asg18
S'Y'
sS'.thisRepN'
p1380
I15
sg20
S'Y'
sg32
g33
sS'.thisTrialN'
p1381
I2
sS'.thisN'
p1382
I167
sS'.thisIndex'
p1383
I10
sg15
(lp1384
S'd'
asg30
g31
sg17
S'Y'
sg14
I4
sg19
(lp1385
S'space'
p1386
asg95
I10
sa(dp1387
g16
(lp1388
S'k'
asg18
S'Y'
sS'.thisRepN'
p1389
I15
sg20
S'Y'
sg32
g33
sS'.thisTrialN'
p1390
I3
sS'.thisN'
p1391
I168
sS'.thisIndex'
p1392
I4
sg15
(lp1393
S'k'
asg30
g31
sg17
S'Y'
sg14
I4
sg19
(lp1394
S'space'
p1395
asg95
I4
sa(dp1396
g16
(lp1397
S'k'
asg18
S'N'
sS'.thisRepN'
p1398
I15
sg20
S'Y'
sg32
g33
sS'.thisTrialN'
p1399
I4
sS'.thisN'
p1400
I169
sS'.thisIndex'
p1401
I7
sg15
(lp1402
S'k'
asg30
g31
sg17
S'Y'
sg14
I4
sg19
Nsg95
I7
sa(dp1403
g16
(lp1404
S'd'
asg18
S'N'
sS'.thisRepN'
p1405
I15
sg20
S'Y'
sg32
g33
sS'.thisTrialN'
p1406
I5
sS'.thisN'
p1407
I170
sS'.thisIndex'
p1408
I7
sg15
(lp1409
S'd'
asg30
g31
sg17
S'Y'
sg14
I4
sg19
Nsg95
I7
sa(dp1410
g16
(lp1411
S'd'
asg18
S'N'
sS'.thisRepN'
p1412
I15
sg20
S'Y'
sg32
g33
sS'.thisTrialN'
p1413
I6
sS'.thisN'
p1414
I171
sS'.thisIndex'
p1415
I6
sg15
(lp1416
S'k'
asg30
g31
sg17
S'N'
sg14
I4
sg19
Nsg95
I6
sa(dp1417
g16
(lp1418
S'd'
asg18
S'Y'
sS'.thisRepN'
p1419
I15
sg20
S'Y'
sg32
g33
sS'.thisTrialN'
p1420
I7
sS'.thisN'
p1421
I172
sS'.thisIndex'
p1422
I9
sg15
(lp1423
S'd'
asg30
g31
sg17
S'Y'
sg14
I4
sg19
(lp1424
S'space'
p1425
asg95
I9
sa(dp1426
g16
(lp1427
S'd'
asg18
S'Y'
sS'.thisRepN'
p1428
I15
sg20
S'Y'
sg32
g33
sS'.thisTrialN'
p1429
I8
sS'.thisN'
p1430
I173
sS'.thisIndex'
p1431
I9
sg15
(lp1432
S'd'
asg30
g31
sg17
S'Y'
sg14
I4
sg19
(lp1433
S'space'
p1434
asg95
I9
sa(dp1435
g16
(lp1436
S'd'
asg18
S'N'
sS'.thisRepN'
p1437
I15
sg20
S'Y'
sg32
g33
sS'.thisTrialN'
p1438
I9
sS'.thisN'
p1439
I174
sS'.thisIndex'
p1440
I4
sg15
(lp1441
S'd'
asg30
g31
sg17
S'Y'
sg14
I4
sg19
Nsg95
I4
sa(dp1442
g16
(lp1443
S'd'
asg18
S'Y'
sS'.thisRepN'
p1444
I15
sg20
S'Y'
sg32
g33
sS'.thisTrialN'
p1445
I10
sS'.thisN'
p1446
I175
sS'.thisIndex'
p1447
I4
sg15
(lp1448
S'd'
asg30
g31
sg17
S'Y'
sg14
I4
sg19
(lp1449
S'space'
p1450
asg95
I4
sa(dp1451
g16
(lp1452
S'd'
asg18
S'N'
sS'.thisRepN'
p1453
I16
sg20
S'Y'
sg32
g33
sS'.thisTrialN'
p1454
I0
sS'.thisN'
p1455
I176
sS'.thisIndex'
p1456
I0
sg15
(lp1457
S'd'
asg30
g31
sg17
S'Y'
sg14
I4
sg19
Nsg95
I0
sa(dp1458
g16
(lp1459
S'd'
asg18
S'N'
sS'.thisRepN'
p1460
I16
sg20
S'Y'
sg32
g33
sS'.thisTrialN'
p1461
I1
sS'.thisN'
p1462
I177
sS'.thisIndex'
p1463
I4
sg15
(lp1464
S'd'
asg30
g31
sg17
S'Y'
sg14
I4
sg19
Nsg95
I4
sa(dp1465
g16
(lp1466
S'k'
asg18
S'N'
sS'.thisRepN'
p1467
I16
sg20
S'Y'
sg32
g33
sS'.thisTrialN'
p1468
I2
sS'.thisN'
p1469
I178
sS'.thisIndex'
p1470
I5
sg15
(lp1471
S'k'
asg30
g31
sg17
S'Y'
sg14
I4
sg19
Nsg95
I5
sa(dp1472
g16
(lp1473
S'k'
asg18
S'Y'
sS'.thisRepN'
p1474
I16
sg20
S'Y'
sg32
g33
sS'.thisTrialN'
p1475
I3
sS'.thisN'
p1476
I179
sS'.thisIndex'
p1477
I7
sg15
(lp1478
S'k'
asg30
g31
sg17
S'Y'
sg14
I4
sg19
(lp1479
S'space'
p1480
asg95
I7
sa(dp1481
g16
(lp1482
S'd'
asg18
S'Y'
sS'.thisRepN'
p1483
I16
sg20
S'Y'
sg32
g33
sS'.thisTrialN'
p1484
I4
sS'.thisN'
p1485
I180
sS'.thisIndex'
p1486
I9
sg15
(lp1487
S'k'
asg30
g31
sg17
S'N'
sg14
I4
sg19
(lp1488
S'space'
p1489
asg95
I9
sa(dp1490
g16
(lp1491
S'd'
asg18
S'N'
sS'.thisRepN'
p1492
I16
sg20
S'Y'
sg32
g33
sS'.thisTrialN'
p1493
I5
sS'.thisN'
p1494
I181
sS'.thisIndex'
p1495
I5
sg15
(lp1496
S'd'
asg30
g31
sg17
S'Y'
sg14
I4
sg19
Nsg95
I5
sa(dp1497
g16
(lp1498
S'd'
asg18
S'Y'
sS'.thisRepN'
p1499
I16
sg20
S'Y'
sg32
g33
sS'.thisTrialN'
p1500
I6
sS'.thisN'
p1501
I182
sS'.thisIndex'
p1502
I9
sg15
(lp1503
S'd'
asg30
g31
sg17
S'Y'
sg14
I4
sg19
(lp1504
S'space'
p1505
asg95
I9
sa(dp1506
g16
(lp1507
S'd'
asg18
S'Y'
sS'.thisRepN'
p1508
I16
sg20
S'Y'
sg32
g33
sS'.thisTrialN'
p1509
I7
sS'.thisN'
p1510
I183
sS'.thisIndex'
p1511
I5
sg15
(lp1512
S'd'
asg30
g31
sg17
S'Y'
sg14
I4
sg19
(lp1513
S'space'
p1514
asg95
I5
sa(dp1515
g16
(lp1516
S'k'
asg18
S'N'
sS'.thisRepN'
p1517
I16
sg20
S'Y'
sg32
g33
sS'.thisTrialN'
p1518
I8
sS'.thisN'
p1519
I184
sS'.thisIndex'
p1520
I4
sg15
(lp1521
S'd'
asg30
g31
sg17
S'N'
sg14
I4
sg19
Nsg95
I4
sa(dp1522
g16
(lp1523
S'k'
asg18
S'N'
sS'.thisRepN'
p1524
I16
sg20
S'Y'
sg32
g33
sS'.thisTrialN'
p1525
I9
sS'.thisN'
p1526
I185
sS'.thisIndex'
p1527
I2
sg15
(lp1528
S'k'
asg30
g31
sg17
S'Y'
sg14
I4
sg19
Nsg95
I2
sa(dp1529
g16
(lp1530
S'd'
asg18
S'N'
sS'.thisRepN'
p1531
I16
sg20
S'Y'
sg32
g33
sS'.thisTrialN'
p1532
I10
sS'.thisN'
p1533
I186
sS'.thisIndex'
p1534
I0
sg15
(lp1535
S'd'
asg30
g31
sg17
S'Y'
sg14
I4
sg19
Nsg95
I0
sa(dp1536
g16
(lp1537
S'd'
asg18
S'N'
sS'.thisRepN'
p1538
I17
sg20
S'Y'
sg32
g33
sS'.thisTrialN'
p1539
I0
sS'.thisN'
p1540
I187
sS'.thisIndex'
p1541
I6
sg15
(lp1542
S'k'
asg30
g31
sg17
S'N'
sg14
I4
sg19
Nsg95
I6
sa(dp1543
g16
(lp1544
S'd'
asg18
S'N'
sS'.thisRepN'
p1545
I17
sg20
S'Y'
sg32
g33
sS'.thisTrialN'
p1546
I1
sS'.thisN'
p1547
I188
sS'.thisIndex'
p1548
I5
sg15
(lp1549
S'd'
asg30
g31
sg17
S'Y'
sg14
I4
sg19
Nsg95
I5
sa(dp1550
g16
(lp1551
S'k'
asg18
S'Y'
sS'.thisRepN'
p1552
I17
sg20
S'Y'
sg32
g33
sS'.thisTrialN'
p1553
I2
sS'.thisN'
p1554
I189
sS'.thisIndex'
p1555
I5
sg15
(lp1556
S'k'
asg30
g31
sg17
S'Y'
sg14
I4
sg19
(lp1557
S'space'
p1558
asg95
I5
sa(dp1559
g16
(lp1560
S'd'
asg18
S'Y'
sS'.thisRepN'
p1561
I17
sg20
S'Y'
sg32
g33
sS'.thisTrialN'
p1562
I3
sS'.thisN'
p1563
I190
sS'.thisIndex'
p1564
I10
sg15
(lp1565
S'd'
asg30
g31
sg17
S'Y'
sg14
I4
sg19
(lp1566
S'space'
p1567
asg95
I10
sa(dp1568
g16
(lp1569
S'd'
asg18
S'N'
sS'.thisRepN'
p1570
I17
sg20
S'Y'
sg32
g33
sS'.thisTrialN'
p1571
I4
sS'.thisN'
p1572
I191
sS'.thisIndex'
p1573
I2
sg15
(lp1574
S'd'
asg30
g31
sg17
S'Y'
sg14
I4
sg19
Nsg95
I2
sa(dp1575
g16
(lp1576
S'd'
asg18
S'N'
sS'.thisRepN'
p1577
I17
sg20
S'Y'
sg32
g33
sS'.thisTrialN'
p1578
I5
sS'.thisN'
p1579
I192
sS'.thisIndex'
p1580
I1
sg15
(lp1581
S'd'
asg30
g31
sg17
S'Y'
sg14
I4
sg19
Nsg95
I1
sa(dp1582
g16
(lp1583
S'k'
asg18
S'N'
sS'.thisRepN'
p1584
I17
sg20
S'Y'
sg32
g33
sS'.thisTrialN'
p1585
I6
sS'.thisN'
p1586
I193
sS'.thisIndex'
p1587
I4
sg15
(lp1588
S'd'
asg30
g31
sg17
S'N'
sg14
I4
sg19
Nsg95
I4
sa(dp1589
g16
(lp1590
S'd'
asg18
S'N'
sS'.thisRepN'
p1591
I17
sg20
S'Y'
sg32
g33
sS'.thisTrialN'
p1592
I7
sS'.thisN'
p1593
I194
sS'.thisIndex'
p1594
I2
sg15
(lp1595
S'd'
asg30
g31
sg17
S'Y'
sg14
I4
sg19
Nsg95
I2
sa(dp1596
g16
(lp1597
S'k'
asg18
S'Y'
sS'.thisRepN'
p1598
I17
sg20
S'Y'
sg32
g33
sS'.thisTrialN'
p1599
I8
sS'.thisN'
p1600
I195
sS'.thisIndex'
p1601
I10
sg15
(lp1602
S'k'
asg30
g31
sg17
S'Y'
sg14
I4
sg19
(lp1603
S'space'
p1604
asg95
I10
sa(dp1605
g16
(lp1606
S'd'
asg18
S'N'
sS'.thisRepN'
p1607
I17
sg20
S'Y'
sg32
g33
sS'.thisTrialN'
p1608
I9
sS'.thisN'
p1609
I196
sS'.thisIndex'
p1610
I8
sg15
(lp1611
S'd'
asg30
g31
sg17
S'Y'
sg14
I4
sg19
Nsg95
I8
sa(dp1612
g16
(lp1613
S'd'
asg18
S'Y'
sS'.thisRepN'
p1614
I17
sg20
S'Y'
sg32
g33
sS'.thisTrialN'
p1615
I10
sS'.thisN'
p1616
I197
sS'.thisIndex'
p1617
I7
sg15
(lp1618
S'd'
asg30
g31
sg17
S'Y'
sg14
I4
sg19
(lp1619
S'space'
p1620
asg95
I7
sa(dp1621
g16
(lp1622
S'k'
asg18
S'N'
sS'.thisRepN'
p1623
I18
sg20
S'Y'
sg32
g33
sS'.thisTrialN'
p1624
I0
sS'.thisN'
p1625
I198
sS'.thisIndex'
p1626
I1
sg15
(lp1627
S'k'
asg30
g31
sg17
S'Y'
sg14
I4
sg19
Nsg95
I1
sa(dp1628
g16
(lp1629
S'k'
asg18
S'N'
sg22
I46
sS'.thisN'
p1630
I199
sg20
S'Y'
sg32
g33
sS'.thisTrialN'
p1631
I1
sS'.thisRepN'
p1632
I18
sg21
I42
sS'.thisIndex'
p1633
I4
sg23
I22
sg15
(lp1634
S'k'
asg30
g31
sg17
S'Y'
sg14
I4
sg19
Nsg95
I4
sa(dp1635
g16
(lp1636
S'd'
asg95
I5
sS'.thisRepN'
p1637
I18
sg30
g31
sg32
g33
sS'.thisTrialN'
p1638
I2
sS'.thisN'
p1639
I200
sS'.thisIndex'
p1640
I5
sg15
(lp1641
S'k'
asg17
S'N'
sg14
I5
sa(dp1642
g16
(lp1643
S'k'
asg95
I4
sS'.thisRepN'
p1644
I18
sg30
g31
sg32
g33
sS'.thisTrialN'
p1645
I3
sS'.thisN'
p1646
I201
sS'.thisIndex'
p1647
I4
sg15
(lp1648
S'k'
asg17
S'Y'
sg14
I5
sa(dp1649
g16
(lp1650
S'k'
asg18
S'Y'
sS'.thisRepN'
p1651
I18
sg20
S'Y'
sg32
g33
sS'.thisTrialN'
p1652
I4
sS'.thisN'
p1653
I202
sS'.thisIndex'
p1654
I2
sg15
(lp1655
S'k'
asg30
g31
sg17
S'Y'
sg14
I5
sg19
(lp1656
S'space'
p1657
asg95
I2
sa(dp1658
g16
(lp1659
S'd'
asg18
S'Y'
sS'.thisRepN'
p1660
I18
sg20
S'Y'
sg32
g33
sS'.thisTrialN'
p1661
I5
sS'.thisN'
p1662
I203
sS'.thisIndex'
p1663
I5
sg15
(lp1664
S'k'
asg30
g31
sg17
S'N'
sg14
I5
sg19
(lp1665
S'space'
p1666
asg95
I5
sa(dp1667
g16
(lp1668
S'k'
asg18
S'Y'
sS'.thisRepN'
p1669
I18
sg20
S'Y'
sg32
g33
sS'.thisTrialN'
p1670
I6
sS'.thisN'
p1671
I204
sS'.thisIndex'
p1672
I1
sg15
(lp1673
S'k'
asg30
g31
sg17
S'Y'
sg14
I5
sg19
(lp1674
S'space'
p1675
asg95
I1
sa(dp1676
g16
(lp1677
S'd'
asg18
S'Y'
sS'.thisRepN'
p1678
I18
sg20
S'N'
sg32
g33
sS'.thisTrialN'
p1679
I7
sS'.thisN'
p1680
I205
sS'.thisIndex'
p1681
I3
sg15
(lp1682
S'k'
asg30
g31
sg17
S'N'
sg14
I5
sg19
(lp1683
S'd'
asg95
I3
sa(dp1684
g16
(lp1685
S'd'
asg18
S'Y'
sS'.thisRepN'
p1686
I18
sg20
S'Y'
sg32
g33
sS'.thisTrialN'
p1687
I8
sS'.thisN'
p1688
I206
sS'.thisIndex'
p1689
I5
sg15
(lp1690
S'k'
asg30
g31
sg17
S'N'
sg14
I5
sg19
(lp1691
S'space'
p1692
asg95
I5
sa(dp1693
g16
(lp1694
S'k'
asg18
S'N'
sS'.thisRepN'
p1695
I18
sg20
S'Y'
sg32
g33
sS'.thisTrialN'
p1696
I9
sS'.thisN'
p1697
I207
sS'.thisIndex'
p1698
I9
sg15
(lp1699
S'k'
asg30
g31
sg17
S'Y'
sg14
I5
sg19
Nsg95
I9
sa(dp1700
g16
(lp1701
S'k'
asg18
S'N'
sS'.thisRepN'
p1702
I18
sg20
S'Y'
sg32
g33
sS'.thisTrialN'
p1703
I10
sS'.thisN'
p1704
I208
sS'.thisIndex'
p1705
I7
sg15
(lp1706
S'k'
asg30
g31
sg17
S'Y'
sg14
I5
sg19
Nsg95
I7
sa(dp1707
g16
(lp1708
S'k'
asg18
S'N'
sS'.thisRepN'
p1709
I19
sg20
S'Y'
sg32
g33
sS'.thisTrialN'
p1710
I0
sS'.thisN'
p1711
I209
sS'.thisIndex'
p1712
I6
sg15
(lp1713
S'k'
asg30
g31
sg17
S'Y'
sg14
I5
sg19
Nsg95
I6
sa(dp1714
g16
(lp1715
S'd'
asg18
S'Y'
sS'.thisRepN'
p1716
I19
sg20
S'Y'
sg32
g33
sS'.thisTrialN'
p1717
I1
sS'.thisN'
p1718
I210
sS'.thisIndex'
p1719
I9
sg15
(lp1720
S'k'
asg30
g31
sg17
S'N'
sg14
I5
sg19
(lp1721
S'space'
p1722
asg95
I9
sa(dp1723
g16
(lp1724
S'd'
asg18
S'N'
sS'.thisRepN'
p1725
I19
sg20
S'Y'
sg32
g33
sS'.thisTrialN'
p1726
I2
sS'.thisN'
p1727
I211
sS'.thisIndex'
p1728
I8
sg15
(lp1729
S'd'
asg30
g31
sg17
S'Y'
sg14
I5
sg19
Nsg95
I8
sa(dp1730
g16
(lp1731
S'k'
asg18
S'N'
sS'.thisRepN'
p1732
I19
sg20
S'Y'
sg32
g33
sS'.thisTrialN'
p1733
I3
sS'.thisN'
p1734
I212
sS'.thisIndex'
p1735
I7
sg15
(lp1736
S'k'
asg30
g31
sg17
S'Y'
sg14
I5
sg19
Nsg95
I7
sa(dp1737
g16
(lp1738
S'k'
asg18
S'Y'
sS'.thisRepN'
p1739
I19
sg20
S'Y'
sg32
g33
sS'.thisTrialN'
p1740
I4
sS'.thisN'
p1741
I213
sS'.thisIndex'
p1742
I1
sg15
(lp1743
S'k'
asg30
g31
sg17
S'Y'
sg14
I5
sg19
(lp1744
S'space'
p1745
asg95
I1
sa(dp1746
g16
(lp1747
S'k'
asg18
S'Y'
sS'.thisRepN'
p1748
I19
sg20
S'N'
sg32
g33
sS'.thisTrialN'
p1749
I5
sS'.thisN'
p1750
I214
sS'.thisIndex'
p1751
I8
sg15
(lp1752
S'k'
asg30
g31
sg17
S'Y'
sg14
I5
sg19
(lp1753
S'k'
asg95
I8
sa(dp1754
g16
(lp1755
S'k'
asg18
S'N'
sS'.thisRepN'
p1756
I19
sg20
S'Y'
sg32
g33
sS'.thisTrialN'
p1757
I6
sS'.thisN'
p1758
I215
sS'.thisIndex'
p1759
I5
sg15
(lp1760
S'k'
asg30
g31
sg17
S'Y'
sg14
I5
sg19
Nsg95
I5
sa(dp1761
g16
(lp1762
S'k'
asg18
S'Y'
sS'.thisRepN'
p1763
I19
sg20
S'Y'
sg32
g33
sS'.thisTrialN'
p1764
I7
sS'.thisN'
p1765
I216
sS'.thisIndex'
p1766
I10
sg15
(lp1767
S'k'
asg30
g31
sg17
S'Y'
sg14
I5
sg19
(lp1768
S'space'
p1769
asg95
I10
sa(dp1770
g16
(lp1771
S'k'
asg18
S'N'
sS'.thisRepN'
p1772
I19
sg20
S'Y'
sg32
g33
sS'.thisTrialN'
p1773
I8
sS'.thisN'
p1774
I217
sS'.thisIndex'
p1775
I5
sg15
(lp1776
S'k'
asg30
g31
sg17
S'Y'
sg14
I5
sg19
Nsg95
I5
sa(dp1777
g16
(lp1778
S'k'
asg18
S'N'
sS'.thisRepN'
p1779
I19
sg20
S'Y'
sg32
g33
sS'.thisTrialN'
p1780
I9
sS'.thisN'
p1781
I218
sS'.thisIndex'
p1782
I9
sg15
(lp1783
S'k'
asg30
g31
sg17
S'Y'
sg14
I5
sg19
Nsg95
I9
sa(dp1784
g16
(lp1785
S'd'
asg18
S'N'
sS'.thisRepN'
p1786
I19
sg20
S'Y'
sg32
g33
sS'.thisTrialN'
p1787
I10
sS'.thisN'
p1788
I219
sS'.thisIndex'
p1789
I8
sg15
(lp1790
S'd'
asg30
g31
sg17
S'Y'
sg14
I5
sg19
Nsg95
I8
sa(dp1791
g16
(lp1792
S'd'
asg18
S'Y'
sS'.thisRepN'
p1793
I20
sg20
S'Y'
sg32
g33
sS'.thisTrialN'
p1794
I0
sS'.thisN'
p1795
I220
sS'.thisIndex'
p1796
I7
sg15
(lp1797
S'd'
asg30
g31
sg17
S'Y'
sg14
I5
sg19
(lp1798
S'space'
p1799
asg95
I7
sa(dp1800
g16
(lp1801
S'd'
asg18
S'Y'
sS'.thisRepN'
p1802
I20
sg20
S'Y'
sg32
g33
sS'.thisTrialN'
p1803
I1
sS'.thisN'
p1804
I221
sS'.thisIndex'
p1805
I4
sg15
(lp1806
S'k'
asg30
g31
sg17
S'N'
sg14
I5
sg19
(lp1807
S'space'
p1808
asg95
I4
sa(dp1809
g16
(lp1810
S'k'
asg18
S'Y'
sS'.thisRepN'
p1811
I20
sg20
S'Y'
sg32
g33
sS'.thisTrialN'
p1812
I2
sS'.thisN'
p1813
I222
sS'.thisIndex'
p1814
I4
sg15
(lp1815
S'k'
asg30
g31
sg17
S'Y'
sg14
I5
sg19
(lp1816
S'space'
p1817
asg95
I4
sa(dp1818
g16
(lp1819
S'd'
asg18
S'Y'
sS'.thisRepN'
p1820
I20
sg20
S'N'
sg32
g33
sS'.thisTrialN'
p1821
I3
sS'.thisN'
p1822
I223
sS'.thisIndex'
p1823
I6
sg15
(lp1824
S'd'
asg30
g31
sg17
S'Y'
sg14
I5
sg19
Nsg95
I6
sa(dp1825
g16
(lp1826
S'k'
asg18
S'N'
sS'.thisRepN'
p1827
I20
sg20
S'Y'
sg32
g33
sS'.thisTrialN'
p1828
I4
sS'.thisN'
p1829
I224
sS'.thisIndex'
p1830
I10
sg15
(lp1831
S'k'
asg30
g31
sg17
S'Y'
sg14
I5
sg19
Nsg95
I10
sa(dp1832
g16
(lp1833
S'd'
asg18
S'N'
sS'.thisRepN'
p1834
I20
sg20
S'Y'
sg32
g33
sS'.thisTrialN'
p1835
I5
sS'.thisN'
p1836
I225
sS'.thisIndex'
p1837
I3
sg15
(lp1838
S'd'
asg30
g31
sg17
S'Y'
sg14
I5
sg19
Nsg95
I3
sa(dp1839
g16
(lp1840
S'd'
asg18
S'N'
sS'.thisRepN'
p1841
I20
sg20
S'Y'
sg32
g33
sS'.thisTrialN'
p1842
I6
sS'.thisN'
p1843
I226
sS'.thisIndex'
p1844
I7
sg15
(lp1845
S'k'
asg30
g31
sg17
S'N'
sg14
I5
sg19
Nsg95
I7
sa(dp1846
g16
(lp1847
S'd'
asg18
S'Y'
sS'.thisRepN'
p1848
I20
sg20
S'Y'
sg32
g33
sS'.thisTrialN'
p1849
I7
sS'.thisN'
p1850
I227
sS'.thisIndex'
p1851
I10
sg15
(lp1852
S'd'
asg30
g31
sg17
S'Y'
sg14
I5
sg19
(lp1853
S'space'
p1854
asg95
I10
sa(dp1855
g16
(lp1856
S'd'
asg18
S'Y'
sS'.thisRepN'
p1857
I20
sg20
S'Y'
sg32
g33
sS'.thisTrialN'
p1858
I8
sS'.thisN'
p1859
I228
sS'.thisIndex'
p1860
I8
sg15
(lp1861
S'd'
asg30
g31
sg17
S'Y'
sg14
I5
sg19
(lp1862
S'space'
p1863
asg95
I8
sa(dp1864
g16
(lp1865
S'k'
asg18
S'Y'
sS'.thisRepN'
p1866
I20
sg20
S'Y'
sg32
g33
sS'.thisTrialN'
p1867
I9
sS'.thisN'
p1868
I229
sS'.thisIndex'
p1869
I4
sg15
(lp1870
S'k'
asg30
g31
sg17
S'Y'
sg14
I5
sg19
(lp1871
S'space'
p1872
asg95
I4
sa(dp1873
g16
(lp1874
S'k'
asg18
S'N'
sS'.thisRepN'
p1875
I20
sg20
S'Y'
sg32
g33
sS'.thisTrialN'
p1876
I10
sS'.thisN'
p1877
I230
sS'.thisIndex'
p1878
I0
sg15
(lp1879
S'k'
asg30
g31
sg17
S'Y'
sg14
I5
sg19
Nsg95
I0
sa(dp1880
g16
(lp1881
S'd'
asg18
S'Y'
sS'.thisRepN'
p1882
I21
sg20
S'N'
sg32
g33
sS'.thisTrialN'
p1883
I0
sS'.thisN'
p1884
I231
sS'.thisIndex'
p1885
I3
sg15
(lp1886
S'd'
asg30
g31
sg17
S'Y'
sg14
I5
sg19
Nsg95
I3
sa(dp1887
g16
(lp1888
S'd'
asg18
S'Y'
sS'.thisRepN'
p1889
I21
sg20
S'Y'
sg32
g33
sS'.thisTrialN'
p1890
I1
sS'.thisN'
p1891
I232
sS'.thisIndex'
p1892
I10
sg15
(lp1893
S'd'
asg30
g31
sg17
S'Y'
sg14
I5
sg19
(lp1894
S'space'
p1895
asg95
I10
sa(dp1896
g16
(lp1897
S'd'
asg18
S'N'
sS'.thisRepN'
p1898
I21
sg20
S'Y'
sg32
g33
sS'.thisTrialN'
p1899
I2
sS'.thisN'
p1900
I233
sS'.thisIndex'
p1901
I6
sg15
(lp1902
S'd'
asg30
g31
sg17
S'Y'
sg14
I5
sg19
Nsg95
I6
sa(dp1903
g16
(lp1904
S'k'
asg18
S'Y'
sS'.thisRepN'
p1905
I21
sg20
S'Y'
sg32
g33
sS'.thisTrialN'
p1906
I3
sS'.thisN'
p1907
I234
sS'.thisIndex'
p1908
I1
sg15
(lp1909
S'k'
asg30
g31
sg17
S'Y'
sg14
I5
sg19
(lp1910
S'space'
p1911
asg95
I1
sa(dp1912
g16
(lp1913
S'k'
asg18
S'Y'
sS'.thisRepN'
p1914
I21
sg20
S'Y'
sg32
g33
sS'.thisTrialN'
p1915
I4
sS'.thisN'
p1916
I235
sS'.thisIndex'
p1917
I1
sg15
(lp1918
S'k'
asg30
g31
sg17
S'Y'
sg14
I5
sg19
(lp1919
S'space'
p1920
asg95
I1
sa(dp1921
g16
(lp1922
S'd'
asg18
S'Y'
sS'.thisRepN'
p1923
I21
sg20
S'Y'
sg32
g33
sS'.thisTrialN'
p1924
I5
sS'.thisN'
p1925
I236
sS'.thisIndex'
p1926
I4
sg15
(lp1927
S'd'
asg30
g31
sg17
S'Y'
sg14
I5
sg19
(lp1928
S'space'
p1929
asg95
I4
sa(dp1930
g16
(lp1931
S'k'
asg18
S'N'
sS'.thisRepN'
p1932
I21
sg20
S'Y'
sg32
g33
sS'.thisTrialN'
p1933
I6
sS'.thisN'
p1934
I237
sS'.thisIndex'
p1935
I3
sg15
(lp1936
S'k'
asg30
g31
sg17
S'Y'
sg14
I5
sg19
Nsg95
I3
sa(dp1937
g16
(lp1938
S'd'
asg18
S'Y'
sS'.thisRepN'
p1939
I21
sg20
S'Y'
sg32
g33
sS'.thisTrialN'
p1940
I7
sS'.thisN'
p1941
I238
sS'.thisIndex'
p1942
I6
sg15
(lp1943
S'd'
asg30
g31
sg17
S'Y'
sg14
I5
sg19
(lp1944
S'space'
p1945
asg95
I6
sa(dp1946
g16
(lp1947
S'k'
asg18
S'N'
sS'.thisRepN'
p1948
I21
sg20
S'Y'
sg32
g33
sS'.thisTrialN'
p1949
I8
sS'.thisN'
p1950
I239
sS'.thisIndex'
p1951
I5
sg15
(lp1952
S'k'
asg30
g31
sg17
S'Y'
sg14
I5
sg19
Nsg95
I5
sa(dp1953
g16
(lp1954
S'd'
asg18
S'Y'
sS'.thisRepN'
p1955
I21
sg20
S'Y'
sg32
g33
sS'.thisTrialN'
p1956
I9
sS'.thisN'
p1957
I240
sS'.thisIndex'
p1958
I6
sg15
(lp1959
S'd'
asg30
g31
sg17
S'Y'
sg14
I5
sg19
(lp1960
S'space'
p1961
asg95
I6
sa(dp1962
g16
(lp1963
S'd'
asg18
S'Y'
sS'.thisRepN'
p1964
I21
sg20
S'Y'
sg32
g33
sS'.thisTrialN'
p1965
I10
sS'.thisN'
p1966
I241
sS'.thisIndex'
p1967
I10
sg15
(lp1968
S'd'
asg30
g31
sg17
S'Y'
sg14
I5
sg19
(lp1969
S'space'
p1970
asg95
I10
sa(dp1971
g16
(lp1972
S'k'
asg18
S'N'
sS'.thisRepN'
p1973
I22
sg20
S'Y'
sg32
g33
sS'.thisTrialN'
p1974
I0
sS'.thisN'
p1975
I242
sS'.thisIndex'
p1976
I10
sg15
(lp1977
S'k'
asg30
g31
sg17
S'Y'
sg14
I5
sg19
Nsg95
I10
sa(dp1978
g16
(lp1979
S'd'
asg18
S'Y'
sS'.thisRepN'
p1980
I22
sg20
S'Y'
sg32
g33
sS'.thisTrialN'
p1981
I1
sS'.thisN'
p1982
I243
sS'.thisIndex'
p1983
I0
sg15
(lp1984
S'd'
asg30
g31
sg17
S'Y'
sg14
I5
sg19
(lp1985
S'space'
p1986
asg95
I0
sa(dp1987
g16
(lp1988
S'k'
asg18
S'N'
sS'.thisRepN'
p1989
I22
sg20
S'Y'
sg32
g33
sS'.thisTrialN'
p1990
I2
sS'.thisN'
p1991
I244
sS'.thisIndex'
p1992
I9
sg15
(lp1993
S'd'
asg30
g31
sg17
S'N'
sg14
I5
sg19
Nsg95
I9
sa(dp1994
g16
(lp1995
S'k'
asg18
S'N'
sS'.thisRepN'
p1996
I22
sg20
S'Y'
sg32
g33
sS'.thisTrialN'
p1997
I3
sS'.thisN'
p1998
I245
sS'.thisIndex'
p1999
I4
sg15
(lp2000
S'k'
asg30
g31
sg17
S'Y'
sg14
I5
sg19
Nsg95
I4
sa(dp2001
g16
(lp2002
S'd'
asg18
S'N'
sS'.thisRepN'
p2003
I22
sg20
S'Y'
sg32
g33
sS'.thisTrialN'
p2004
I4
sS'.thisN'
p2005
I246
sS'.thisIndex'
p2006
I5
sg15
(lp2007
S'd'
asg30
g31
sg17
S'Y'
sg14
I5
sg19
Nsg95
I5
sa(dp2008
g16
(lp2009
S'd'
asg18
S'N'
sS'.thisRepN'
p2010
I22
sg20
S'Y'
sg32
g33
sS'.thisTrialN'
p2011
I5
sS'.thisN'
p2012
I247
sS'.thisIndex'
p2013
I8
sg15
(lp2014
S'k'
asg30
g31
sg17
S'N'
sg14
I5
sg19
Nsg95
I8
sa(dp2015
g16
(lp2016
S'k'
asg18
S'N'
sS'.thisRepN'
p2017
I22
sg20
S'Y'
sg32
g33
sS'.thisTrialN'
p2018
I6
sS'.thisN'
p2019
I248
sS'.thisIndex'
p2020
I5
sg15
(lp2021
S'k'
asg30
g31
sg17
S'Y'
sg14
I5
sg19
Nsg95
I5
sa(dp2022
g16
(lp2023
S'd'
asg18
S'N'
sg22
I44
sS'.thisN'
p2024
I249
sg20
S'Y'
sg32
g33
sS'.thisTrialN'
p2025
I7
sS'.thisRepN'
p2026
I22
sg21
I40
sS'.thisIndex'
p2027
I7
sg23
I25
sg15
(lp2028
S'k'
asg30
g31
sg17
S'N'
sg14
I5
sg19
Nsg95
I7
sa(dp2029
g16
(lp2030
S'k'
asg95
I0
sS'.thisRepN'
p2031
I22
sg30
g31
sg32
g33
sS'.thisTrialN'
p2032
I8
sS'.thisN'
p2033
I250
sS'.thisIndex'
p2034
I0
sg15
(lp2035
S'k'
asg17
S'Y'
sg14
I6
sa(dp2036
g16
(lp2037
S'd'
asg95
I5
sS'.thisRepN'
p2038
I22
sg30
g31
sg32
g33
sS'.thisTrialN'
p2039
I9
sS'.thisN'
p2040
I251
sS'.thisIndex'
p2041
I5
sg15
(lp2042
S'd'
asg17
S'Y'
sg14
I6
sa(dp2043
g16
(lp2044
S'k'
asg18
S'N'
sS'.thisRepN'
p2045
I22
sg20
S'Y'
sg32
g33
sS'.thisTrialN'
p2046
I10
sS'.thisN'
p2047
I252
sS'.thisIndex'
p2048
I8
sg15
(lp2049
S'k'
asg30
g31
sg17
S'Y'
sg14
I6
sg19
Nsg95
I8
sa(dp2050
g16
(lp2051
S'd'
asg18
S'N'
sS'.thisRepN'
p2052
I23
sg20
S'Y'
sg32
g33
sS'.thisTrialN'
p2053
I0
sS'.thisN'
p2054
I253
sS'.thisIndex'
p2055
I3
sg15
(lp2056
S'k'
asg30
g31
sg17
S'N'
sg14
I6
sg19
Nsg95
I3
sa(dp2057
g16
(lp2058
S'k'
asg18
S'N'
sS'.thisRepN'
p2059
I23
sg20
S'Y'
sg32
g33
sS'.thisTrialN'
p2060
I1
sS'.thisN'
p2061
I254
sS'.thisIndex'
p2062
I9
sg15
(lp2063
S'k'
asg30
g31
sg17
S'Y'
sg14
I6
sg19
Nsg95
I9
sa(dp2064
g16
(lp2065
S'k'
asg18
S'Y'
sS'.thisRepN'
p2066
I23
sg20
S'Y'
sg32
g33
sS'.thisTrialN'
p2067
I2
sS'.thisN'
p2068
I255
sS'.thisIndex'
p2069
I4
sg15
(lp2070
S'k'
asg30
g31
sg17
S'Y'
sg14
I6
sg19
(lp2071
S'space'
p2072
asg95
I4
sa(dp2073
g16
(lp2074
S'k'
asg18
S'N'
sS'.thisRepN'
p2075
I23
sg20
S'Y'
sg32
g33
sS'.thisTrialN'
p2076
I3
sS'.thisN'
p2077
I256
sS'.thisIndex'
p2078
I6
sg15
(lp2079
S'k'
asg30
g31
sg17
S'Y'
sg14
I6
sg19
Nsg95
I6
sa(dp2080
g16
(lp2081
S'k'
asg18
S'N'
sS'.thisRepN'
p2082
I23
sg20
S'Y'
sg32
g33
sS'.thisTrialN'
p2083
I4
sS'.thisN'
p2084
I257
sS'.thisIndex'
p2085
I8
sg15
(lp2086
S'k'
asg30
g31
sg17
S'Y'
sg14
I6
sg19
Nsg95
I8
sa(dp2087
g16
(lp2088
S'k'
asg18
S'N'
sS'.thisRepN'
p2089
I23
sg20
S'Y'
sg32
g33
sS'.thisTrialN'
p2090
I5
sS'.thisN'
p2091
I258
sS'.thisIndex'
p2092
I10
sg15
(lp2093
S'k'
asg30
g31
sg17
S'Y'
sg14
I6
sg19
Nsg95
I10
sa(dp2094
g16
(lp2095
S'k'
asg18
S'Y'
sS'.thisRepN'
p2096
I23
sg20
S'Y'
sg32
g33
sS'.thisTrialN'
p2097
I6
sS'.thisN'
p2098
I259
sS'.thisIndex'
p2099
I5
sg15
(lp2100
S'k'
asg30
g31
sg17
S'Y'
sg14
I6
sg19
(lp2101
S'space'
p2102
asg95
I5
sa(dp2103
g16
(lp2104
S'd'
asg18
S'Y'
sS'.thisRepN'
p2105
I23
sg20
S'N'
sg32
g33
sS'.thisTrialN'
p2106
I7
sS'.thisN'
p2107
I260
sS'.thisIndex'
p2108
I9
sg15
(lp2109
S'k'
asg30
g31
sg17
S'N'
sg14
I6
sg19
(lp2110
S'd'
asg95
I9
sa(dp2111
g16
(lp2112
S'k'
asg18
S'N'
sS'.thisRepN'
p2113
I23
sg20
S'Y'
sg32
g33
sS'.thisTrialN'
p2114
I8
sS'.thisN'
p2115
I261
sS'.thisIndex'
p2116
I9
sg15
(lp2117
S'k'
asg30
g31
sg17
S'Y'
sg14
I6
sg19
Nsg95
I9
sa(dp2118
g16
(lp2119
S'k'
asg18
S'N'
sS'.thisRepN'
p2120
I23
sg20
S'Y'
sg32
g33
sS'.thisTrialN'
p2121
I9
sS'.thisN'
p2122
I262
sS'.thisIndex'
p2123
I2
sg15
(lp2124
S'd'
asg30
g31
sg17
S'N'
sg14
I6
sg19
Nsg95
I2
sa(dp2125
g16
(lp2126
S'k'
asg18
S'N'
sS'.thisRepN'
p2127
I23
sg20
S'Y'
sg32
g33
sS'.thisTrialN'
p2128
I10
sS'.thisN'
p2129
I263
sS'.thisIndex'
p2130
I9
sg15
(lp2131
S'k'
asg30
g31
sg17
S'Y'
sg14
I6
sg19
Nsg95
I9
sa(dp2132
g16
(lp2133
S'd'
asg18
S'N'
sS'.thisRepN'
p2134
I24
sg20
S'N'
sg32
g33
sS'.thisTrialN'
p2135
I0
sS'.thisN'
p2136
I264
sS'.thisIndex'
p2137
I2
sg15
(lp2138
S'k'
asg30
g31
sg17
S'N'
sg14
I6
sg19
(lp2139
S'space'
p2140
asg95
I2
sa(dp2141
g16
(lp2142
S'd'
asg18
S'Y'
sS'.thisRepN'
p2143
I24
sg20
S'Y'
sg32
g33
sS'.thisTrialN'
p2144
I1
sS'.thisN'
p2145
I265
sS'.thisIndex'
p2146
I6
sg15
(lp2147
S'k'
asg30
g31
sg17
S'N'
sg14
I6
sg19
(lp2148
S'space'
p2149
asg95
I6
sa(dp2150
g16
(lp2151
S'k'
asg18
S'N'
sS'.thisRepN'
p2152
I24
sg20
S'Y'
sg32
g33
sS'.thisTrialN'
p2153
I2
sS'.thisN'
p2154
I266
sS'.thisIndex'
p2155
I3
sg15
(lp2156
S'k'
asg30
g31
sg17
S'Y'
sg14
I6
sg19
Nsg95
I3
sa(dp2157
g16
(lp2158
S'k'
asg18
S'Y'
sS'.thisRepN'
p2159
I24
sg20
S'Y'
sg32
g33
sS'.thisTrialN'
p2160
I3
sS'.thisN'
p2161
I267
sS'.thisIndex'
p2162
I0
sg15
(lp2163
S'k'
asg30
g31
sg17
S'Y'
sg14
I6
sg19
(lp2164
S'space'
p2165
asg95
I0
sa(dp2166
g16
(lp2167
S'k'
asg18
S'Y'
sS'.thisRepN'
p2168
I24
sg20
S'Y'
sg32
g33
sS'.thisTrialN'
p2169
I4
sS'.thisN'
p2170
I268
sS'.thisIndex'
p2171
I4
sg15
(lp2172
S'k'
asg30
g31
sg17
S'Y'
sg14
I6
sg19
(lp2173
S'space'
p2174
asg95
I4
sa(dp2175
g16
(lp2176
S'k'
asg18
S'N'
sS'.thisRepN'
p2177
I24
sg20
S'Y'
sg32
g33
sS'.thisTrialN'
p2178
I5
sS'.thisN'
p2179
I269
sS'.thisIndex'
p2180
I0
sg15
(lp2181
S'k'
asg30
g31
sg17
S'Y'
sg14
I6
sg19
Nsg95
I0
sa(dp2182
g16
(lp2183
S'k'
asg18
S'Y'
sS'.thisRepN'
p2184
I24
sg20
S'N'
sg32
g33
sS'.thisTrialN'
p2185
I6
sS'.thisN'
p2186
I270
sS'.thisIndex'
p2187
I3
sg15
(lp2188
S'k'
asg30
g31
sg17
S'Y'
sg14
I6
sg19
Nsg95
I3
sa(dp2189
g16
(lp2190
S'd'
asg18
S'N'
sS'.thisRepN'
p2191
I24
sg20
S'Y'
sg32
g33
sS'.thisTrialN'
p2192
I7
sS'.thisN'
p2193
I271
sS'.thisIndex'
p2194
I1
sg15
(lp2195
S'd'
asg30
g31
sg17
S'Y'
sg14
I6
sg19
Nsg95
I1
sa(dp2196
g16
(lp2197
S'k'
asg18
S'Y'
sS'.thisRepN'
p2198
I24
sg20
S'Y'
sg32
g33
sS'.thisTrialN'
p2199
I8
sS'.thisN'
p2200
I272
sS'.thisIndex'
p2201
I9
sg15
(lp2202
S'k'
asg30
g31
sg17
S'Y'
sg14
I6
sg19
(lp2203
S'space'
p2204
asg95
I9
sa(dp2205
g16
(lp2206
S'k'
asg18
S'Y'
sS'.thisRepN'
p2207
I24
sg20
S'Y'
sg32
g33
sS'.thisTrialN'
p2208
I9
sS'.thisN'
p2209
I273
sS'.thisIndex'
p2210
I9
sg15
(lp2211
S'k'
asg30
g31
sg17
S'Y'
sg14
I6
sg19
(lp2212
S'space'
p2213
asg95
I9
sa(dp2214
g16
(lp2215
S'k'
asg18
S'N'
sS'.thisRepN'
p2216
I24
sg20
S'Y'
sg32
g33
sS'.thisTrialN'
p2217
I10
sS'.thisN'
p2218
I274
sS'.thisIndex'
p2219
I9
sg15
(lp2220
S'k'
asg30
g31
sg17
S'Y'
sg14
I6
sg19
Nsg95
I9
sa(dp2221
g16
(lp2222
S'd'
asg18
S'N'
sS'.thisRepN'
p2223
I25
sg20
S'Y'
sg32
g33
sS'.thisTrialN'
p2224
I0
sS'.thisN'
p2225
I275
sS'.thisIndex'
p2226
I6
sg15
(lp2227
S'd'
asg30
g31
sg17
S'Y'
sg14
I6
sg19
Nsg95
I6
sa(dp2228
g16
(lp2229
S'd'
asg18
S'N'
sS'.thisRepN'
p2230
I25
sg20
S'Y'
sg32
g33
sS'.thisTrialN'
p2231
I1
sS'.thisN'
p2232
I276
sS'.thisIndex'
p2233
I5
sg15
(lp2234
S'd'
asg30
g31
sg17
S'Y'
sg14
I6
sg19
Nsg95
I5
sa(dp2235
g16
(lp2236
S'd'
asg18
S'Y'
sS'.thisRepN'
p2237
I25
sg20
S'N'
sg32
g33
sS'.thisTrialN'
p2238
I2
sS'.thisN'
p2239
I277
sS'.thisIndex'
p2240
I2
sg15
(lp2241
S'd'
asg30
g31
sg17
S'Y'
sg14
I6
sg19
Nsg95
I2
sa(dp2242
g16
(lp2243
S'd'
asg18
S'Y'
sS'.thisRepN'
p2244
I25
sg20
S'Y'
sg32
g33
sS'.thisTrialN'
p2245
I3
sS'.thisN'
p2246
I278
sS'.thisIndex'
p2247
I6
sg15
(lp2248
S'k'
asg30
g31
sg17
S'N'
sg14
I6
sg19
(lp2249
S'space'
p2250
asg95
I6
sa(dp2251
g16
(lp2252
S'd'
asg18
S'Y'
sS'.thisRepN'
p2253
I25
sg20
S'Y'
sg32
g33
sS'.thisTrialN'
p2254
I4
sS'.thisN'
p2255
I279
sS'.thisIndex'
p2256
I3
sg15
(lp2257
S'd'
asg30
g31
sg17
S'Y'
sg14
I6
sg19
(lp2258
S'space'
p2259
asg95
I3
sa(dp2260
g16
(lp2261
S'k'
asg18
S'Y'
sS'.thisRepN'
p2262
I25
sg20
S'Y'
sg32
g33
sS'.thisTrialN'
p2263
I5
sS'.thisN'
p2264
I280
sS'.thisIndex'
p2265
I6
sg15
(lp2266
S'k'
asg30
g31
sg17
S'Y'
sg14
I6
sg19
(lp2267
S'space'
p2268
asg95
I6
sa(dp2269
g16
(lp2270
S'k'
asg18
S'Y'
sS'.thisRepN'
p2271
I25
sg20
S'Y'
sg32
g33
sS'.thisTrialN'
p2272
I6
sS'.thisN'
p2273
I281
sS'.thisIndex'
p2274
I7
sg15
(lp2275
S'k'
asg30
g31
sg17
S'Y'
sg14
I6
sg19
(lp2276
S'space'
p2277
asg95
I7
sa(dp2278
g16
(lp2279
S'd'
asg18
S'Y'
sS'.thisRepN'
p2280
I25
sg20
S'Y'
sg32
g33
sS'.thisTrialN'
p2281
I7
sS'.thisN'
p2282
I282
sS'.thisIndex'
p2283
I1
sg15
(lp2284
S'd'
asg30
g31
sg17
S'Y'
sg14
I6
sg19
(lp2285
S'space'
p2286
asg95
I1
sa(dp2287
g16
(lp2288
S'd'
asg18
S'N'
sS'.thisRepN'
p2289
I25
sg20
S'Y'
sg32
g33
sS'.thisTrialN'
p2290
I8
sS'.thisN'
p2291
I283
sS'.thisIndex'
p2292
I7
sg15
(lp2293
S'd'
asg30
g31
sg17
S'Y'
sg14
I6
sg19
Nsg95
I7
sa(dp2294
g16
(lp2295
S'k'
asg18
S'Y'
sS'.thisRepN'
p2296
I25
sg20
S'Y'
sg32
g33
sS'.thisTrialN'
p2297
I9
sS'.thisN'
p2298
I284
sS'.thisIndex'
p2299
I6
sg15
(lp2300
S'k'
asg30
g31
sg17
S'Y'
sg14
I6
sg19
(lp2301
S'space'
p2302
asg95
I6
sa(dp2303
g16
(lp2304
S'd'
asg18
S'N'
sS'.thisRepN'
p2305
I25
sg20
S'Y'
sg32
g33
sS'.thisTrialN'
p2306
I10
sS'.thisN'
p2307
I285
sS'.thisIndex'
p2308
I10
sg15
(lp2309
S'd'
asg30
g31
sg17
S'Y'
sg14
I6
sg19
Nsg95
I10
sa(dp2310
g16
(lp2311
S'd'
asg18
S'N'
sS'.thisRepN'
p2312
I26
sg20
S'Y'
sg32
g33
sS'.thisTrialN'
p2313
I0
sS'.thisN'
p2314
I286
sS'.thisIndex'
p2315
I9
sg15
(lp2316
S'k'
asg30
g31
sg17
S'N'
sg14
I6
sg19
Nsg95
I9
sa(dp2317
g16
(lp2318
S'k'
asg18
S'N'
sS'.thisRepN'
p2319
I26
sg20
S'Y'
sg32
g33
sS'.thisTrialN'
p2320
I1
sS'.thisN'
p2321
I287
sS'.thisIndex'
p2322
I10
sg15
(lp2323
S'k'
asg30
g31
sg17
S'Y'
sg14
I6
sg19
Nsg95
I10
sa(dp2324
g16
(lp2325
S'd'
asg18
S'Y'
sS'.thisRepN'
p2326
I26
sg20
S'Y'
sg32
g33
sS'.thisTrialN'
p2327
I2
sS'.thisN'
p2328
I288
sS'.thisIndex'
p2329
I7
sg15
(lp2330
S'k'
asg30
g31
sg17
S'N'
sg14
I6
sg19
(lp2331
S'space'
p2332
asg95
I7
sa(dp2333
g16
(lp2334
S'k'
asg18
S'Y'
sS'.thisRepN'
p2335
I26
sg20
S'N'
sg32
g33
sS'.thisTrialN'
p2336
I3
sS'.thisN'
p2337
I289
sS'.thisIndex'
p2338
I5
sg15
(lp2339
S'k'
asg30
g31
sg17
S'Y'
sg14
I6
sg19
(lp2340
S'd'
asg95
I5
sa(dp2341
g16
(lp2342
S'k'
asg18
S'Y'
sS'.thisRepN'
p2343
I26
sg20
S'N'
sg32
g33
sS'.thisTrialN'
p2344
I4
sS'.thisN'
p2345
I290
sS'.thisIndex'
p2346
I6
sg15
(lp2347
S'k'
asg30
g31
sg17
S'Y'
sg14
I6
sg19
Nsg95
I6
sa(dp2348
g16
(lp2349
S'd'
asg18
S'N'
sS'.thisRepN'
p2350
I26
sg20
S'Y'
sg32
g33
sS'.thisTrialN'
p2351
I5
sS'.thisN'
p2352
I291
sS'.thisIndex'
p2353
I1
sg15
(lp2354
S'd'
asg30
g31
sg17
S'Y'
sg14
I6
sg19
Nsg95
I1
sa(dp2355
g16
(lp2356
S'd'
asg18
S'Y'
sS'.thisRepN'
p2357
I26
sg20
S'Y'
sg32
g33
sS'.thisTrialN'
p2358
I6
sS'.thisN'
p2359
I292
sS'.thisIndex'
p2360
I4
sg15
(lp2361
S'd'
asg30
g31
sg17
S'Y'
sg14
I6
sg19
(lp2362
S'space'
p2363
asg95
I4
sa(dp2364
g16
(lp2365
S'd'
asg18
S'Y'
sS'.thisRepN'
p2366
I26
sg20
S'Y'
sg32
g33
sS'.thisTrialN'
p2367
I7
sS'.thisN'
p2368
I293
sS'.thisIndex'
p2369
I7
sg15
(lp2370
S'd'
asg30
g31
sg17
S'Y'
sg14
I6
sg19
(lp2371
S'space'
p2372
asg95
I7
sa(dp2373
g16
(lp2374
S'd'
asg18
S'Y'
sS'.thisRepN'
p2375
I26
sg20
S'N'
sg32
g33
sS'.thisTrialN'
p2376
I8
sS'.thisN'
p2377
I294
sS'.thisIndex'
p2378
I10
sg15
(lp2379
S'k'
asg30
g31
sg17
S'N'
sg14
I6
sg19
(lp2380
S'd'
asg95
I10
sa(dp2381
g16
(lp2382
S'd'
asg18
S'N'
sS'.thisRepN'
p2383
I26
sg20
S'Y'
sg32
g33
sS'.thisTrialN'
p2384
I9
sS'.thisN'
p2385
I295
sS'.thisIndex'
p2386
I5
sg15
(lp2387
S'k'
asg30
g31
sg17
S'N'
sg14
I6
sg19
Nsg95
I5
sa(dp2388
g16
(lp2389
S'd'
asg18
S'N'
sS'.thisRepN'
p2390
I26
sg20
S'Y'
sg32
g33
sS'.thisTrialN'
p2391
I10
sS'.thisN'
p2392
I296
sS'.thisIndex'
p2393
I5
sg15
(lp2394
S'd'
asg30
g31
sg17
S'Y'
sg14
I6
sg19
Nsg95
I5
sa(dp2395
g16
(lp2396
S'd'
asg18
S'N'
sS'.thisRepN'
p2397
I27
sg20
S'Y'
sg32
g33
sS'.thisTrialN'
p2398
I0
sS'.thisN'
p2399
I297
sS'.thisIndex'
p2400
I4
sg15
(lp2401
S'k'
asg30
g31
sg17
S'N'
sg14
I6
sg19
Nsg95
I4
sa(dp2402
g16
(lp2403
S'd'
asg18
S'Y'
sS'.thisRepN'
p2404
I27
sg20
S'Y'
sg32
g33
sS'.thisTrialN'
p2405
I1
sS'.thisN'
p2406
I298
sS'.thisIndex'
p2407
I3
sg15
(lp2408
S'd'
asg30
g31
sg17
S'Y'
sg14
I6
sg19
(lp2409
S'space'
p2410
asg95
I3
sa(dp2411
g16
(lp2412
S'd'
asg18
S'Y'
sg22
I41
sS'.thisN'
p2413
I299
sg20
S'Y'
sg32
g33
sS'.thisTrialN'
p2414
I2
sS'.thisRepN'
p2415
I27
sg21
I39
sS'.thisIndex'
p2416
I4
sg23
I24
sg15
(lp2417
S'd'
asg30
g31
sg17
S'Y'
sg14
I6
sg19
(lp2418
S'space'
p2419
asg95
I4
sa(dp2420
g16
(lp2421
S'k'
asg95
I2
sS'.thisRepN'
p2422
I27
sg30
g31
sg32
g33
sS'.thisTrialN'
p2423
I3
sS'.thisN'
p2424
I300
sS'.thisIndex'
p2425
I2
sg15
(lp2426
S'k'
asg17
S'Y'
sg14
I7
sa(dp2427
g16
(lp2428
S'k'
asg95
I3
sS'.thisRepN'
p2429
I27
sg30
g31
sg32
g33
sS'.thisTrialN'
p2430
I4
sS'.thisN'
p2431
I301
sS'.thisIndex'
p2432
I3
sg15
(lp2433
S'k'
asg17
S'Y'
sg14
I7
sa(dp2434
g16
(lp2435
S'd'
asg18
S'N'
sS'.thisRepN'
p2436
I27
sg20
S'Y'
sg32
g33
sS'.thisTrialN'
p2437
I5
sS'.thisN'
p2438
I302
sS'.thisIndex'
p2439
I5
sg15
(lp2440
S'k'
asg30
g31
sg17
S'N'
sg14
I7
sg19
Nsg95
I5
sa(dp2441
g16
(lp2442
S'k'
asg18
S'N'
sS'.thisRepN'
p2443
I27
sg20
S'Y'
sg32
g33
sS'.thisTrialN'
p2444
I6
sS'.thisN'
p2445
I303
sS'.thisIndex'
p2446
I6
sg15
(lp2447
S'k'
asg30
g31
sg17
S'Y'
sg14
I7
sg19
Nsg95
I6
sa(dp2448
g16
(lp2449
S'd'
asg18
S'Y'
sS'.thisRepN'
p2450
I27
sg20
S'Y'
sg32
g33
sS'.thisTrialN'
p2451
I7
sS'.thisN'
p2452
I304
sS'.thisIndex'
p2453
I9
sg15
(lp2454
S'd'
asg30
g31
sg17
S'Y'
sg14
I7
sg19
(lp2455
S'space'
p2456
asg95
I9
sa(dp2457
g16
(lp2458
S'k'
asg18
S'Y'
sS'.thisRepN'
p2459
I27
sg20
S'N'
sg32
g33
sS'.thisTrialN'
p2460
I8
sS'.thisN'
p2461
I305
sS'.thisIndex'
p2462
I3
sg15
(lp2463
S'k'
asg30
g31
sg17
S'Y'
sg14
I7
sg19
(lp2464
S'd'
asg95
I3
sa(dp2465
g16
(lp2466
S'd'
asg18
S'N'
sS'.thisRepN'
p2467
I27
sg20
S'Y'
sg32
g33
sS'.thisTrialN'
p2468
I9
sS'.thisN'
p2469
I306
sS'.thisIndex'
p2470
I0
sg15
(lp2471
S'd'
asg30
g31
sg17
S'Y'
sg14
I7
sg19
Nsg95
I0
sa(dp2472
g16
(lp2473
S'd'
asg18
S'N'
sS'.thisRepN'
p2474
I27
sg20
S'Y'
sg32
g33
sS'.thisTrialN'
p2475
I10
sS'.thisN'
p2476
I307
sS'.thisIndex'
p2477
I4
sg15
(lp2478
S'd'
asg30
g31
sg17
S'Y'
sg14
I7
sg19
Nsg95
I4
sa(dp2479
g16
(lp2480
S'd'
asg18
S'Y'
sS'.thisRepN'
p2481
I28
sg20
S'Y'
sg32
g33
sS'.thisTrialN'
p2482
I0
sS'.thisN'
p2483
I308
sS'.thisIndex'
p2484
I10
sg15
(lp2485
S'd'
asg30
g31
sg17
S'Y'
sg14
I7
sg19
(lp2486
S'space'
p2487
asg95
I10
sa(dp2488
g16
(lp2489
S'k'
asg18
S'N'
sS'.thisRepN'
p2490
I28
sg20
S'Y'
sg32
g33
sS'.thisTrialN'
p2491
I1
sS'.thisN'
p2492
I309
sS'.thisIndex'
p2493
I10
sg15
(lp2494
S'k'
asg30
g31
sg17
S'Y'
sg14
I7
sg19
Nsg95
I10
sa(dp2495
g16
(lp2496
S'd'
asg18
S'N'
sS'.thisRepN'
p2497
I28
sg20
S'Y'
sg32
g33
sS'.thisTrialN'
p2498
I2
sS'.thisN'
p2499
I310
sS'.thisIndex'
p2500
I7
sg15
(lp2501
S'd'
asg30
g31
sg17
S'Y'
sg14
I7
sg19
Nsg95
I7
sa(dp2502
g16
(lp2503
S'd'
asg18
S'Y'
sS'.thisRepN'
p2504
I28
sg20
S'Y'
sg32
g33
sS'.thisTrialN'
p2505
I3
sS'.thisN'
p2506
I311
sS'.thisIndex'
p2507
I0
sg15
(lp2508
S'd'
asg30
g31
sg17
S'Y'
sg14
I7
sg19
(lp2509
S'space'
p2510
asg95
I0
sa(dp2511
g16
(lp2512
S'd'
asg18
S'N'
sS'.thisRepN'
p2513
I28
sg20
S'Y'
sg32
g33
sS'.thisTrialN'
p2514
I4
sS'.thisN'
p2515
I312
sS'.thisIndex'
p2516
I8
sg15
(lp2517
S'd'
asg30
g31
sg17
S'Y'
sg14
I7
sg19
Nsg95
I8
sa(dp2518
g16
(lp2519
S'd'
asg18
S'N'
sS'.thisRepN'
p2520
I28
sg20
S'Y'
sg32
g33
sS'.thisTrialN'
p2521
I5
sS'.thisN'
p2522
I313
sS'.thisIndex'
p2523
I3
sg15
(lp2524
S'd'
asg30
g31
sg17
S'Y'
sg14
I7
sg19
Nsg95
I3
sa(dp2525
g16
(lp2526
S'k'
asg18
S'N'
sS'.thisRepN'
p2527
I28
sg20
S'Y'
sg32
g33
sS'.thisTrialN'
p2528
I6
sS'.thisN'
p2529
I314
sS'.thisIndex'
p2530
I0
sg15
(lp2531
S'd'
asg30
g31
sg17
S'N'
sg14
I7
sg19
Nsg95
I0
sa(dp2532
g16
(lp2533
S'k'
asg18
S'Y'
sS'.thisRepN'
p2534
I28
sg20
S'Y'
sg32
g33
sS'.thisTrialN'
p2535
I7
sS'.thisN'
p2536
I315
sS'.thisIndex'
p2537
I0
sg15
(lp2538
S'd'
asg30
g31
sg17
S'N'
sg14
I7
sg19
(lp2539
S'space'
p2540
asg95
I0
sa(dp2541
g16
(lp2542
S'd'
asg18
S'N'
sS'.thisRepN'
p2543
I28
sg20
S'Y'
sg32
g33
sS'.thisTrialN'
p2544
I8
sS'.thisN'
p2545
I316
sS'.thisIndex'
p2546
I8
sg15
(lp2547
S'd'
asg30
g31
sg17
S'Y'
sg14
I7
sg19
Nsg95
I8
sa(dp2548
g16
(lp2549
S'd'
asg18
S'N'
sS'.thisRepN'
p2550
I28
sg20
S'Y'
sg32
g33
sS'.thisTrialN'
p2551
I9
sS'.thisN'
p2552
I317
sS'.thisIndex'
p2553
I2
sg15
(lp2554
S'd'
asg30
g31
sg17
S'Y'
sg14
I7
sg19
Nsg95
I2
sa(dp2555
g16
(lp2556
S'k'
asg18
S'Y'
sS'.thisRepN'
p2557
I28
sg20
S'Y'
sg32
g33
sS'.thisTrialN'
p2558
I10
sS'.thisN'
p2559
I318
sS'.thisIndex'
p2560
I10
sg15
(lp2561
S'k'
asg30
g31
sg17
S'Y'
sg14
I7
sg19
(lp2562
S'space'
p2563
asg95
I10
sa(dp2564
g16
(lp2565
S'd'
asg18
S'N'
sS'.thisRepN'
p2566
I29
sg20
S'Y'
sg32
g33
sS'.thisTrialN'
p2567
I0
sS'.thisN'
p2568
I319
sS'.thisIndex'
p2569
I3
sg15
(lp2570
S'd'
asg30
g31
sg17
S'Y'
sg14
I7
sg19
Nsg95
I3
sa(dp2571
g16
(lp2572
S'k'
asg18
S'N'
sS'.thisRepN'
p2573
I29
sg20
S'Y'
sg32
g33
sS'.thisTrialN'
p2574
I1
sS'.thisN'
p2575
I320
sS'.thisIndex'
p2576
I6
sg15
(lp2577
S'k'
asg30
g31
sg17
S'Y'
sg14
I7
sg19
Nsg95
I6
sa(dp2578
g16
(lp2579
S'k'
asg18
S'N'
sS'.thisRepN'
p2580
I29
sg20
S'Y'
sg32
g33
sS'.thisTrialN'
p2581
I2
sS'.thisN'
p2582
I321
sS'.thisIndex'
p2583
I1
sg15
(lp2584
S'd'
asg30
g31
sg17
S'N'
sg14
I7
sg19
Nsg95
I1
sa(dp2585
g16
(lp2586
S'd'
asg18
S'Y'
sS'.thisRepN'
p2587
I29
sg20
S'Y'
sg32
g33
sS'.thisTrialN'
p2588
I3
sS'.thisN'
p2589
I322
sS'.thisIndex'
p2590
I3
sg15
(lp2591
S'd'
asg30
g31
sg17
S'Y'
sg14
I7
sg19
(lp2592
S'space'
p2593
asg95
I3
sa(dp2594
g16
(lp2595
S'k'
asg18
S'N'
sS'.thisRepN'
p2596
I29
sg20
S'Y'
sg32
g33
sS'.thisTrialN'
p2597
I4
sS'.thisN'
p2598
I323
sS'.thisIndex'
p2599
I0
sg15
(lp2600
S'k'
asg30
g31
sg17
S'Y'
sg14
I7
sg19
Nsg95
I0
sa(dp2601
g16
(lp2602
S'k'
asg18
S'Y'
sS'.thisRepN'
p2603
I29
sg20
S'Y'
sg32
g33
sS'.thisTrialN'
p2604
I5
sS'.thisN'
p2605
I324
sS'.thisIndex'
p2606
I9
sg15
(lp2607
S'd'
asg30
g31
sg17
S'N'
sg14
I7
sg19
(lp2608
S'space'
p2609
asg95
I9
sa(dp2610
g16
(lp2611
S'k'
asg18
S'N'
sS'.thisRepN'
p2612
I29
sg20
S'Y'
sg32
g33
sS'.thisTrialN'
p2613
I6
sS'.thisN'
p2614
I325
sS'.thisIndex'
p2615
I1
sg15
(lp2616
S'k'
asg30
g31
sg17
S'Y'
sg14
I7
sg19
Nsg95
I1
sa(dp2617
g16
(lp2618
S'd'
asg18
S'Y'
sS'.thisRepN'
p2619
I29
sg20
S'Y'
sg32
g33
sS'.thisTrialN'
p2620
I7
sS'.thisN'
p2621
I326
sS'.thisIndex'
p2622
I3
sg15
(lp2623
S'd'
asg30
g31
sg17
S'Y'
sg14
I7
sg19
(lp2624
S'space'
p2625
asg95
I3
sa(dp2626
g16
(lp2627
S'k'
asg18
S'Y'
sS'.thisRepN'
p2628
I29
sg20
S'Y'
sg32
g33
sS'.thisTrialN'
p2629
I8
sS'.thisN'
p2630
I327
sS'.thisIndex'
p2631
I3
sg15
(lp2632
S'd'
asg30
g31
sg17
S'N'
sg14
I7
sg19
(lp2633
S'space'
p2634
asg95
I3
sa(dp2635
g16
(lp2636
S'd'
asg18
S'Y'
sS'.thisRepN'
p2637
I29
sg20
S'Y'
sg32
g33
sS'.thisTrialN'
p2638
I9
sS'.thisN'
p2639
I328
sS'.thisIndex'
p2640
I8
sg15
(lp2641
S'd'
asg30
g31
sg17
S'Y'
sg14
I7
sg19
(lp2642
S'space'
p2643
asg95
I8
sa(dp2644
g16
(lp2645
S'k'
asg18
S'Y'
sS'.thisRepN'
p2646
I29
sg20
S'N'
sg32
g33
sS'.thisTrialN'
p2647
I10
sS'.thisN'
p2648
I329
sS'.thisIndex'
p2649
I5
sg15
(lp2650
S'k'
asg30
g31
sg17
S'Y'
sg14
I7
sg19
Nsg95
I5
sa(dp2651
g16
(lp2652
S'k'
asg18
S'N'
sS'.thisRepN'
p2653
I30
sg20
S'Y'
sg32
g33
sS'.thisTrialN'
p2654
I0
sS'.thisN'
p2655
I330
sS'.thisIndex'
p2656
I8
sg15
(lp2657
S'k'
asg30
g31
sg17
S'Y'
sg14
I7
sg19
Nsg95
I8
sa(dp2658
g16
(lp2659
S'k'
asg18
S'Y'
sS'.thisRepN'
p2660
I30
sg20
S'Y'
sg32
g33
sS'.thisTrialN'
p2661
I1
sS'.thisN'
p2662
I331
sS'.thisIndex'
p2663
I2
sg15
(lp2664
S'k'
asg30
g31
sg17
S'Y'
sg14
I7
sg19
(lp2665
S'space'
p2666
asg95
I2
sa(dp2667
g16
(lp2668
S'k'
asg18
S'N'
sS'.thisRepN'
p2669
I30
sg20
S'Y'
sg32
g33
sS'.thisTrialN'
p2670
I2
sS'.thisN'
p2671
I332
sS'.thisIndex'
p2672
I10
sg15
(lp2673
S'k'
asg30
g31
sg17
S'Y'
sg14
I7
sg19
Nsg95
I10
sa(dp2674
g16
(lp2675
S'k'
asg18
S'Y'
sS'.thisRepN'
p2676
I30
sg20
S'Y'
sg32
g33
sS'.thisTrialN'
p2677
I3
sS'.thisN'
p2678
I333
sS'.thisIndex'
p2679
I0
sg15
(lp2680
S'k'
asg30
g31
sg17
S'Y'
sg14
I7
sg19
(lp2681
S'space'
p2682
asg95
I0
sa(dp2683
g16
(lp2684
S'd'
asg18
S'Y'
sS'.thisRepN'
p2685
I30
sg20
S'Y'
sg32
g33
sS'.thisTrialN'
p2686
I4
sS'.thisN'
p2687
I334
sS'.thisIndex'
p2688
I8
sg15
(lp2689
S'k'
asg30
g31
sg17
S'N'
sg14
I7
sg19
(lp2690
S'space'
p2691
asg95
I8
sa(dp2692
g16
(lp2693
S'k'
asg18
S'Y'
sS'.thisRepN'
p2694
I30
sg20
S'Y'
sg32
g33
sS'.thisTrialN'
p2695
I5
sS'.thisN'
p2696
I335
sS'.thisIndex'
p2697
I1
sg15
(lp2698
S'd'
asg30
g31
sg17
S'N'
sg14
I7
sg19
(lp2699
S'space'
p2700
asg95
I1
sa(dp2701
g16
(lp2702
S'd'
asg18
S'N'
sS'.thisRepN'
p2703
I30
sg20
S'Y'
sg32
g33
sS'.thisTrialN'
p2704
I6
sS'.thisN'
p2705
I336
sS'.thisIndex'
p2706
I7
sg15
(lp2707
S'd'
asg30
g31
sg17
S'Y'
sg14
I7
sg19
Nsg95
I7
sa(dp2708
g16
(lp2709
S'k'
asg18
S'Y'
sS'.thisRepN'
p2710
I30
sg20
S'Y'
sg32
g33
sS'.thisTrialN'
p2711
I7
sS'.thisN'
p2712
I337
sS'.thisIndex'
p2713
I3
sg15
(lp2714
S'k'
asg30
g31
sg17
S'Y'
sg14
I7
sg19
(lp2715
S'space'
p2716
asg95
I3
sa(dp2717
g16
(lp2718
S'd'
asg18
S'Y'
sS'.thisRepN'
p2719
I30
sg20
S'Y'
sg32
g33
sS'.thisTrialN'
p2720
I8
sS'.thisN'
p2721
I338
sS'.thisIndex'
p2722
I8
sg15
(lp2723
S'd'
asg30
g31
sg17
S'Y'
sg14
I7
sg19
(lp2724
S'space'
p2725
asg95
I8
sa(dp2726
g16
(lp2727
S'd'
asg18
S'N'
sS'.thisRepN'
p2728
I30
sg20
S'Y'
sg32
g33
sS'.thisTrialN'
p2729
I9
sS'.thisN'
p2730
I339
sS'.thisIndex'
p2731
I1
sg15
(lp2732
S'd'
asg30
g31
sg17
S'Y'
sg14
I7
sg19
Nsg95
I1
sa(dp2733
g16
(lp2734
S'd'
asg18
S'N'
sS'.thisRepN'
p2735
I30
sg20
S'Y'
sg32
g33
sS'.thisTrialN'
p2736
I10
sS'.thisN'
p2737
I340
sS'.thisIndex'
p2738
I6
sg15
(lp2739
S'd'
asg30
g31
sg17
S'Y'
sg14
I7
sg19
Nsg95
I6
sa(dp2740
g16
(lp2741
S'd'
asg18
S'N'
sS'.thisRepN'
p2742
I31
sg20
S'Y'
sg32
g33
sS'.thisTrialN'
p2743
I0
sS'.thisN'
p2744
I341
sS'.thisIndex'
p2745
I9
sg15
(lp2746
S'd'
asg30
g31
sg17
S'Y'
sg14
I7
sg19
Nsg95
I9
sa(dp2747
g16
(lp2748
S'k'
asg18
S'N'
sS'.thisRepN'
p2749
I31
sg20
S'Y'
sg32
g33
sS'.thisTrialN'
p2750
I1
sS'.thisN'
p2751
I342
sS'.thisIndex'
p2752
I7
sg15
(lp2753
S'k'
asg30
g31
sg17
S'Y'
sg14
I7
sg19
Nsg95
I7
sa(dp2754
g16
(lp2755
S'd'
asg18
S'Y'
sS'.thisRepN'
p2756
I31
sg20
S'Y'
sg32
g33
sS'.thisTrialN'
p2757
I2
sS'.thisN'
p2758
I343
sS'.thisIndex'
p2759
I1
sg15
(lp2760
S'd'
asg30
g31
sg17
S'Y'
sg14
I7
sg19
(lp2761
S'space'
p2762
asg95
I1
sa(dp2763
g16
(lp2764
S'd'
asg18
S'N'
sS'.thisRepN'
p2765
I31
sg20
S'Y'
sg32
g33
sS'.thisTrialN'
p2766
I3
sS'.thisN'
p2767
I344
sS'.thisIndex'
p2768
I2
sg15
(lp2769
S'd'
asg30
g31
sg17
S'Y'
sg14
I7
sg19
Nsg95
I2
sa(dp2770
g16
(lp2771
S'd'
asg18
S'Y'
sS'.thisRepN'
p2772
I31
sg20
S'Y'
sg32
g33
sS'.thisTrialN'
p2773
I4
sS'.thisN'
p2774
I345
sS'.thisIndex'
p2775
I7
sg15
(lp2776
S'd'
asg30
g31
sg17
S'Y'
sg14
I7
sg19
(lp2777
S'space'
p2778
asg95
I7
sa(dp2779
g16
(lp2780
S'k'
asg18
S'N'
sS'.thisRepN'
p2781
I31
sg20
S'Y'
sg32
g33
sS'.thisTrialN'
p2782
I5
sS'.thisN'
p2783
I346
sS'.thisIndex'
p2784
I0
sg15
(lp2785
S'k'
asg30
g31
sg17
S'Y'
sg14
I7
sg19
Nsg95
I0
sa(dp2786
g16
(lp2787
S'k'
asg18
S'N'
sS'.thisRepN'
p2788
I31
sg20
S'Y'
sg32
g33
sS'.thisTrialN'
p2789
I6
sS'.thisN'
p2790
I347
sS'.thisIndex'
p2791
I9
sg15
(lp2792
S'k'
asg30
g31
sg17
S'Y'
sg14
I7
sg19
Nsg95
I9
sa(dp2793
g16
(lp2794
S'd'
asg18
S'Y'
sS'.thisRepN'
p2795
I31
sg20
S'Y'
sg32
g33
sS'.thisTrialN'
p2796
I7
sS'.thisN'
p2797
I348
sS'.thisIndex'
p2798
I5
sg15
(lp2799
S'd'
asg30
g31
sg17
S'Y'
sg14
I7
sg19
(lp2800
S'space'
p2801
asg95
I5
sa(dp2802
g16
(lp2803
S'k'
asg18
S'N'
sg22
I46
sS'.thisN'
p2804
I349
sg20
S'Y'
sg32
g33
sS'.thisTrialN'
p2805
I8
sS'.thisRepN'
p2806
I31
sg21
I42
sS'.thisIndex'
p2807
I0
sg23
I21
sg15
(lp2808
S'k'
asg30
g31
sg17
S'Y'
sg14
I7
sg19
Nsg95
I0
sa(dp2809
g16
(lp2810
S'd'
asg95
I2
sS'.thisRepN'
p2811
I31
sg30
g31
sg32
g33
sS'.thisTrialN'
p2812
I9
sS'.thisN'
p2813
I350
sS'.thisIndex'
p2814
I2
sg15
(lp2815
S'd'
asg17
S'Y'
sg14
I8
sa(dp2816
g16
(lp2817
S'd'
asg95
I10
sS'.thisRepN'
p2818
I31
sg30
g31
sg32
g33
sS'.thisTrialN'
p2819
I10
sS'.thisN'
p2820
I351
sS'.thisIndex'
p2821
I10
sg15
(lp2822
S'd'
asg17
S'Y'
sg14
I8
sa(dp2823
g16
(lp2824
S'k'
asg18
S'Y'
sS'.thisRepN'
p2825
I32
sg20
S'Y'
sg32
g33
sS'.thisTrialN'
p2826
I0
sS'.thisN'
p2827
I352
sS'.thisIndex'
p2828
I7
sg15
(lp2829
S'k'
asg30
g31
sg17
S'Y'
sg14
I8
sg19
(lp2830
S'space'
p2831
asg95
I7
sa(dp2832
g16
(lp2833
S'd'
asg18
S'Y'
sS'.thisRepN'
p2834
I32
sg20
S'Y'
sg32
g33
sS'.thisTrialN'
p2835
I1
sS'.thisN'
p2836
I353
sS'.thisIndex'
p2837
I1
sg15
(lp2838
S'd'
asg30
g31
sg17
S'Y'
sg14
I8
sg19
(lp2839
S'space'
p2840
asg95
I1
sa(dp2841
g16
(lp2842
S'd'
asg18
S'Y'
sS'.thisRepN'
p2843
I32
sg20
S'Y'
sg32
g33
sS'.thisTrialN'
p2844
I2
sS'.thisN'
p2845
I354
sS'.thisIndex'
p2846
I7
sg15
(lp2847
S'k'
asg30
g31
sg17
S'N'
sg14
I8
sg19
(lp2848
S'space'
p2849
asg95
I7
sa(dp2850
g16
(lp2851
S'd'
asg18
S'Y'
sS'.thisRepN'
p2852
I32
sg20
S'Y'
sg32
g33
sS'.thisTrialN'
p2853
I3
sS'.thisN'
p2854
I355
sS'.thisIndex'
p2855
I3
sg15
(lp2856
S'd'
asg30
g31
sg17
S'Y'
sg14
I8
sg19
(lp2857
S'space'
p2858
asg95
I3
sa(dp2859
g16
(lp2860
S'd'
asg18
S'N'
sS'.thisRepN'
p2861
I32
sg20
S'N'
sg32
g33
sS'.thisTrialN'
p2862
I4
sS'.thisN'
p2863
I356
sS'.thisIndex'
p2864
I2
sg15
(lp2865
S'k'
asg30
g31
sg17
S'N'
sg14
I8
sg19
(lp2866
S'space'
p2867
asg95
I2
sa(dp2868
g16
(lp2869
S'k'
asg18
S'N'
sS'.thisRepN'
p2870
I32
sg20
S'Y'
sg32
g33
sS'.thisTrialN'
p2871
I5
sS'.thisN'
p2872
I357
sS'.thisIndex'
p2873
I4
sg15
(lp2874
S'k'
asg30
g31
sg17
S'Y'
sg14
I8
sg19
Nsg95
I4
sa(dp2875
g16
(lp2876
S'd'
asg18
S'N'
sS'.thisRepN'
p2877
I32
sg20
S'Y'
sg32
g33
sS'.thisTrialN'
p2878
I6
sS'.thisN'
p2879
I358
sS'.thisIndex'
p2880
I0
sg15
(lp2881
S'd'
asg30
g31
sg17
S'Y'
sg14
I8
sg19
Nsg95
I0
sa(dp2882
g16
(lp2883
S'd'
asg18
S'Y'
sS'.thisRepN'
p2884
I32
sg20
S'Y'
sg32
g33
sS'.thisTrialN'
p2885
I7
sS'.thisN'
p2886
I359
sS'.thisIndex'
p2887
I2
sg15
(lp2888
S'k'
asg30
g31
sg17
S'N'
sg14
I8
sg19
(lp2889
S'space'
p2890
asg95
I2
sa(dp2891
g16
(lp2892
S'k'
asg18
S'Y'
sS'.thisRepN'
p2893
I32
sg20
S'Y'
sg32
g33
sS'.thisTrialN'
p2894
I8
sS'.thisN'
p2895
I360
sS'.thisIndex'
p2896
I9
sg15
(lp2897
S'd'
asg30
g31
sg17
S'N'
sg14
I8
sg19
(lp2898
S'space'
p2899
asg95
I9
sa(dp2900
g16
(lp2901
S'k'
asg18
S'Y'
sS'.thisRepN'
p2902
I32
sg20
S'Y'
sg32
g33
sS'.thisTrialN'
p2903
I9
sS'.thisN'
p2904
I361
sS'.thisIndex'
p2905
I1
sg15
(lp2906
S'k'
asg30
g31
sg17
S'Y'
sg14
I8
sg19
(lp2907
S'space'
p2908
asg95
I1
sa(dp2909
g16
(lp2910
S'd'
asg18
S'Y'
sS'.thisRepN'
p2911
I32
sg20
S'Y'
sg32
g33
sS'.thisTrialN'
p2912
I10
sS'.thisN'
p2913
I362
sS'.thisIndex'
p2914
I10
sg15
(lp2915
S'd'
asg30
g31
sg17
S'Y'
sg14
I8
sg19
(lp2916
S'space'
p2917
asg95
I10
sa(dp2918
g16
(lp2919
S'd'
asg18
S'N'
sS'.thisRepN'
p2920
I33
sg20
S'Y'
sg32
g33
sS'.thisTrialN'
p2921
I0
sS'.thisN'
p2922
I363
sS'.thisIndex'
p2923
I7
sg15
(lp2924
S'k'
asg30
g31
sg17
S'N'
sg14
I8
sg19
Nsg95
I7
sa(dp2925
g16
(lp2926
S'k'
asg18
S'N'
sS'.thisRepN'
p2927
I33
sg20
S'Y'
sg32
g33
sS'.thisTrialN'
p2928
I1
sS'.thisN'
p2929
I364
sS'.thisIndex'
p2930
I10
sg15
(lp2931
S'k'
asg30
g31
sg17
S'Y'
sg14
I8
sg19
Nsg95
I10
sa(dp2932
g16
(lp2933
S'd'
asg18
S'N'
sS'.thisRepN'
p2934
I33
sg20
S'Y'
sg32
g33
sS'.thisTrialN'
p2935
I2
sS'.thisN'
p2936
I365
sS'.thisIndex'
p2937
I2
sg15
(lp2938
S'k'
asg30
g31
sg17
S'N'
sg14
I8
sg19
Nsg95
I2
sa(dp2939
g16
(lp2940
S'd'
asg18
S'N'
sS'.thisRepN'
p2941
I33
sg20
S'Y'
sg32
g33
sS'.thisTrialN'
p2942
I3
sS'.thisN'
p2943
I366
sS'.thisIndex'
p2944
I5
sg15
(lp2945
S'd'
asg30
g31
sg17
S'Y'
sg14
I8
sg19
Nsg95
I5
sa(dp2946
g16
(lp2947
S'k'
asg18
S'N'
sS'.thisRepN'
p2948
I33
sg20
S'Y'
sg32
g33
sS'.thisTrialN'
p2949
I4
sS'.thisN'
p2950
I367
sS'.thisIndex'
p2951
I2
sg15
(lp2952
S'd'
asg30
g31
sg17
S'N'
sg14
I8
sg19
Nsg95
I2
sa(dp2953
g16
(lp2954
S'd'
asg18
S'Y'
sS'.thisRepN'
p2955
I33
sg20
S'Y'
sg32
g33
sS'.thisTrialN'
p2956
I5
sS'.thisN'
p2957
I368
sS'.thisIndex'
p2958
I8
sg15
(lp2959
S'd'
asg30
g31
sg17
S'Y'
sg14
I8
sg19
(lp2960
S'space'
p2961
asg95
I8
sa(dp2962
g16
(lp2963
S'd'
asg18
S'Y'
sS'.thisRepN'
p2964
I33
sg20
S'Y'
sg32
g33
sS'.thisTrialN'
p2965
I6
sS'.thisN'
p2966
I369
sS'.thisIndex'
p2967
I0
sg15
(lp2968
S'd'
asg30
g31
sg17
S'Y'
sg14
I8
sg19
(lp2969
S'space'
p2970
asg95
I0
sa(dp2971
g16
(lp2972
S'd'
asg18
S'N'
sS'.thisRepN'
p2973
I33
sg20
S'Y'
sg32
g33
sS'.thisTrialN'
p2974
I7
sS'.thisN'
p2975
I370
sS'.thisIndex'
p2976
I6
sg15
(lp2977
S'd'
asg30
g31
sg17
S'Y'
sg14
I8
sg19
Nsg95
I6
sa(dp2978
g16
(lp2979
S'k'
asg18
S'Y'
sS'.thisRepN'
p2980
I33
sg20
S'N'
sg32
g33
sS'.thisTrialN'
p2981
I8
sS'.thisN'
p2982
I371
sS'.thisIndex'
p2983
I9
sg15
(lp2984
S'k'
asg30
g31
sg17
S'Y'
sg14
I8
sg19
Nsg95
I9
sa(dp2985
g16
(lp2986
S'k'
asg18
S'N'
sS'.thisRepN'
p2987
I33
sg20
S'Y'
sg32
g33
sS'.thisTrialN'
p2988
I9
sS'.thisN'
p2989
I372
sS'.thisIndex'
p2990
I2
sg15
(lp2991
S'd'
asg30
g31
sg17
S'N'
sg14
I8
sg19
Nsg95
I2
sa(dp2992
g16
(lp2993
S'k'
asg18
S'Y'
sS'.thisRepN'
p2994
I33
sg20
S'Y'
sg32
g33
sS'.thisTrialN'
p2995
I10
sS'.thisN'
p2996
I373
sS'.thisIndex'
p2997
I4
sg15
(lp2998
S'k'
asg30
g31
sg17
S'Y'
sg14
I8
sg19
(lp2999
S'space'
p3000
asg95
I4
sa(dp3001
g16
(lp3002
S'd'
asg18
S'N'
sS'.thisRepN'
p3003
I34
sg20
S'Y'
sg32
g33
sS'.thisTrialN'
p3004
I0
sS'.thisN'
p3005
I374
sS'.thisIndex'
p3006
I4
sg15
(lp3007
S'd'
asg30
g31
sg17
S'Y'
sg14
I8
sg19
Nsg95
I4
sa(dp3008
g16
(lp3009
S'k'
asg18
S'N'
sS'.thisRepN'
p3010
I34
sg20
S'Y'
sg32
g33
sS'.thisTrialN'
p3011
I1
sS'.thisN'
p3012
I375
sS'.thisIndex'
p3013
I0
sg15
(lp3014
S'k'
asg30
g31
sg17
S'Y'
sg14
I8
sg19
Nsg95
I0
sa(dp3015
g16
(lp3016
S'k'
asg18
S'Y'
sS'.thisRepN'
p3017
I34
sg20
S'Y'
sg32
g33
sS'.thisTrialN'
p3018
I2
sS'.thisN'
p3019
I376
sS'.thisIndex'
p3020
I8
sg15
(lp3021
S'k'
asg30
g31
sg17
S'Y'
sg14
I8
sg19
(lp3022
S'space'
p3023
asg95
I8
sa(dp3024
g16
(lp3025
S'k'
asg18
S'Y'
sS'.thisRepN'
p3026
I34
sg20
S'Y'
sg32
g33
sS'.thisTrialN'
p3027
I3
sS'.thisN'
p3028
I377
sS'.thisIndex'
p3029
I6
sg15
(lp3030
S'k'
asg30
g31
sg17
S'Y'
sg14
I8
sg19
(lp3031
S'space'
p3032
asg95
I6
sa(dp3033
g16
(lp3034
S'd'
asg18
S'N'
sS'.thisRepN'
p3035
I34
sg20
S'Y'
sg32
g33
sS'.thisTrialN'
p3036
I4
sS'.thisN'
p3037
I378
sS'.thisIndex'
p3038
I6
sg15
(lp3039
S'd'
asg30
g31
sg17
S'Y'
sg14
I8
sg19
Nsg95
I6
sa(dp3040
g16
(lp3041
S'k'
asg18
S'N'
sS'.thisRepN'
p3042
I34
sg20
S'Y'
sg32
g33
sS'.thisTrialN'
p3043
I5
sS'.thisN'
p3044
I379
sS'.thisIndex'
p3045
I1
sg15
(lp3046
S'k'
asg30
g31
sg17
S'Y'
sg14
I8
sg19
Nsg95
I1
sa(dp3047
g16
(lp3048
S'k'
asg18
S'N'
sS'.thisRepN'
p3049
I34
sg20
S'Y'
sg32
g33
sS'.thisTrialN'
p3050
I6
sS'.thisN'
p3051
I380
sS'.thisIndex'
p3052
I9
sg15
(lp3053
S'k'
asg30
g31
sg17
S'Y'
sg14
I8
sg19
Nsg95
I9
sa(dp3054
g16
(lp3055
S'k'
asg18
S'N'
sS'.thisRepN'
p3056
I34
sg20
S'Y'
sg32
g33
sS'.thisTrialN'
p3057
I7
sS'.thisN'
p3058
I381
sS'.thisIndex'
p3059
I5
sg15
(lp3060
S'k'
asg30
g31
sg17
S'Y'
sg14
I8
sg19
Nsg95
I5
sa(dp3061
g16
(lp3062
S'k'
asg18
S'N'
sS'.thisRepN'
p3063
I34
sg20
S'Y'
sg32
g33
sS'.thisTrialN'
p3064
I8
sS'.thisN'
p3065
I382
sS'.thisIndex'
p3066
I1
sg15
(lp3067
S'k'
asg30
g31
sg17
S'Y'
sg14
I8
sg19
Nsg95
I1
sa(dp3068
g16
(lp3069
S'd'
asg18
S'N'
sS'.thisRepN'
p3070
I34
sg20
S'Y'
sg32
g33
sS'.thisTrialN'
p3071
I9
sS'.thisN'
p3072
I383
sS'.thisIndex'
p3073
I8
sg15
(lp3074
S'd'
asg30
g31
sg17
S'Y'
sg14
I8
sg19
Nsg95
I8
sa(dp3075
g16
(lp3076
S'k'
asg18
S'Y'
sS'.thisRepN'
p3077
I34
sg20
S'Y'
sg32
g33
sS'.thisTrialN'
p3078
I10
sS'.thisN'
p3079
I384
sS'.thisIndex'
p3080
I3
sg15
(lp3081
S'k'
asg30
g31
sg17
S'Y'
sg14
I8
sg19
(lp3082
S'space'
p3083
asg95
I3
sa(dp3084
g16
(lp3085
S'k'
asg18
S'N'
sS'.thisRepN'
p3086
I35
sg20
S'Y'
sg32
g33
sS'.thisTrialN'
p3087
I0
sS'.thisN'
p3088
I385
sS'.thisIndex'
p3089
I2
sg15
(lp3090
S'k'
asg30
g31
sg17
S'Y'
sg14
I8
sg19
Nsg95
I2
sa(dp3091
g16
(lp3092
S'd'
asg18
S'Y'
sS'.thisRepN'
p3093
I35
sg20
S'N'
sg32
g33
sS'.thisTrialN'
p3094
I1
sS'.thisN'
p3095
I386
sS'.thisIndex'
p3096
I8
sg15
(lp3097
S'd'
asg30
g31
sg17
S'Y'
sg14
I8
sg19
Nsg95
I8
sa(dp3098
g16
(lp3099
S'd'
asg18
S'N'
sS'.thisRepN'
p3100
I35
sg20
S'Y'
sg32
g33
sS'.thisTrialN'
p3101
I2
sS'.thisN'
p3102
I387
sS'.thisIndex'
p3103
I4
sg15
(lp3104
S'd'
asg30
g31
sg17
S'Y'
sg14
I8
sg19
Nsg95
I4
sa(dp3105
g16
(lp3106
S'd'
asg18
S'Y'
sS'.thisRepN'
p3107
I35
sg20
S'Y'
sg32
g33
sS'.thisTrialN'
p3108
I3
sS'.thisN'
p3109
I388
sS'.thisIndex'
p3110
I9
sg15
(lp3111
S'd'
asg30
g31
sg17
S'Y'
sg14
I8
sg19
(lp3112
S'space'
p3113
asg95
I9
sa(dp3114
g16
(lp3115
S'k'
asg18
S'Y'
sS'.thisRepN'
p3116
I35
sg20
S'Y'
sg32
g33
sS'.thisTrialN'
p3117
I4
sS'.thisN'
p3118
I389
sS'.thisIndex'
p3119
I6
sg15
(lp3120
S'k'
asg30
g31
sg17
S'Y'
sg14
I8
sg19
(lp3121
S'space'
p3122
asg95
I6
sa(dp3123
g16
(lp3124
S'k'
asg18
S'N'
sS'.thisRepN'
p3125
I35
sg20
S'Y'
sg32
g33
sS'.thisTrialN'
p3126
I5
sS'.thisN'
p3127
I390
sS'.thisIndex'
p3128
I10
sg15
(lp3129
S'k'
asg30
g31
sg17
S'Y'
sg14
I8
sg19
Nsg95
I10
sa(dp3130
g16
(lp3131
S'd'
asg18
S'N'
sS'.thisRepN'
p3132
I35
sg20
S'Y'
sg32
g33
sS'.thisTrialN'
p3133
I6
sS'.thisN'
p3134
I391
sS'.thisIndex'
p3135
I7
sg15
(lp3136
S'd'
asg30
g31
sg17
S'Y'
sg14
I8
sg19
Nsg95
I7
sa(dp3137
g16
(lp3138
S'k'
asg18
S'N'
sS'.thisRepN'
p3139
I35
sg20
S'Y'
sg32
g33
sS'.thisTrialN'
p3140
I7
sS'.thisN'
p3141
I392
sS'.thisIndex'
p3142
I0
sg15
(lp3143
S'k'
asg30
g31
sg17
S'Y'
sg14
I8
sg19
Nsg95
I0
sa(dp3144
g16
(lp3145
S'd'
asg18
S'N'
sS'.thisRepN'
p3146
I35
sg20
S'Y'
sg32
g33
sS'.thisTrialN'
p3147
I8
sS'.thisN'
p3148
I393
sS'.thisIndex'
p3149
I9
sg15
(lp3150
S'd'
asg30
g31
sg17
S'Y'
sg14
I8
sg19
Nsg95
I9
sa(dp3151
g16
(lp3152
S'd'
asg18
S'N'
sS'.thisRepN'
p3153
I35
sg20
S'Y'
sg32
g33
sS'.thisTrialN'
p3154
I9
sS'.thisN'
p3155
I394
sS'.thisIndex'
p3156
I2
sg15
(lp3157
S'k'
asg30
g31
sg17
S'N'
sg14
I8
sg19
Nsg95
I2
sa(dp3158
g16
(lp3159
S'd'
asg18
S'N'
sS'.thisRepN'
p3160
I35
sg20
S'Y'
sg32
g33
sS'.thisTrialN'
p3161
I10
sS'.thisN'
p3162
I395
sS'.thisIndex'
p3163
I1
sg15
(lp3164
S'k'
asg30
g31
sg17
S'N'
sg14
I8
sg19
Nsg95
I1
sa(dp3165
g16
(lp3166
S'k'
asg18
S'N'
sS'.thisRepN'
p3167
I36
sg20
S'Y'
sg32
g33
sS'.thisTrialN'
p3168
I0
sS'.thisN'
p3169
I396
sS'.thisIndex'
p3170
I3
sg15
(lp3171
S'k'
asg30
g31
sg17
S'Y'
sg14
I8
sg19
Nsg95
I3
sa(dp3172
g16
(lp3173
S'k'
asg18
S'N'
sS'.thisRepN'
p3174
I36
sg20
S'Y'
sg32
g33
sS'.thisTrialN'
p3175
I1
sS'.thisN'
p3176
I397
sS'.thisIndex'
p3177
I0
sg15
(lp3178
S'k'
asg30
g31
sg17
S'Y'
sg14
I8
sg19
Nsg95
I0
sa(dp3179
g16
(lp3180
S'k'
asg18
S'Y'
sS'.thisRepN'
p3181
I36
sg20
S'Y'
sg32
g33
sS'.thisTrialN'
p3182
I2
sS'.thisN'
p3183
I398
sS'.thisIndex'
p3184
I4
sg15
(lp3185
S'k'
asg30
g31
sg17
S'Y'
sg14
I8
sg19
(lp3186
S'space'
p3187
asg95
I4
sa(dp3188
g16
(lp3189
S'k'
asg18
S'N'
sg22
I45
sS'.thisN'
p3190
I399
sg20
S'Y'
sg32
g33
sS'.thisTrialN'
p3191
I3
sS'.thisRepN'
p3192
I36
sg21
I40
sS'.thisIndex'
p3193
I8
sg23
I19
sg15
(lp3194
S'k'
asg30
g31
sg17
S'Y'
sg14
I8
sg19
Nsg95
I8
sa(dp3195
g16
(lp3196
S'k'
asg95
I1
sS'.thisRepN'
p3197
I36
sg30
g31
sg32
g33
sS'.thisTrialN'
p3198
I4
sS'.thisN'
p3199
I400
sS'.thisIndex'
p3200
I1
sg15
(lp3201
S'k'
asg17
S'Y'
sg14
I9
sa(dp3202
g16
(lp3203
S'd'
asg95
I7
sS'.thisRepN'
p3204
I36
sg30
g31
sg32
g33
sS'.thisTrialN'
p3205
I5
sS'.thisN'
p3206
I401
sS'.thisIndex'
p3207
I7
sg15
(lp3208
S'k'
asg17
S'N'
sg14
I9
sa(dp3209
g16
(lp3210
S'd'
asg18
S'Y'
sS'.thisRepN'
p3211
I36
sg20
S'Y'
sg32
g33
sS'.thisTrialN'
p3212
I6
sS'.thisN'
p3213
I402
sS'.thisIndex'
p3214
I9
sg15
(lp3215
S'd'
asg30
g31
sg17
S'Y'
sg14
I9
sg19
(lp3216
S'space'
p3217
asg95
I9
sa(dp3218
g16
(lp3219
S'k'
asg18
S'N'
sS'.thisRepN'
p3220
I36
sg20
S'Y'
sg32
g33
sS'.thisTrialN'
p3221
I7
sS'.thisN'
p3222
I403
sS'.thisIndex'
p3223
I1
sg15
(lp3224
S'k'
asg30
g31
sg17
S'Y'
sg14
I9
sg19
Nsg95
I1
sa(dp3225
g16
(lp3226
S'k'
asg18
S'Y'
sS'.thisRepN'
p3227
I36
sg20
S'N'
sg32
g33
sS'.thisTrialN'
p3228
I8
sS'.thisN'
p3229
I404
sS'.thisIndex'
p3230
I7
sg15
(lp3231
S'k'
asg30
g31
sg17
S'Y'
sg14
I9
sg19
(lp3232
S'k'
asg95
I7
sa(dp3233
g16
(lp3234
S'k'
asg18
S'Y'
sS'.thisRepN'
p3235
I36
sg20
S'Y'
sg32
g33
sS'.thisTrialN'
p3236
I9
sS'.thisN'
p3237
I405
sS'.thisIndex'
p3238
I8
sg15
(lp3239
S'k'
asg30
g31
sg17
S'Y'
sg14
I9
sg19
(lp3240
S'space'
p3241
asg95
I8
sa(dp3242
g16
(lp3243
S'k'
asg18
S'N'
sS'.thisRepN'
p3244
I36
sg20
S'Y'
sg32
g33
sS'.thisTrialN'
p3245
I10
sS'.thisN'
p3246
I406
sS'.thisIndex'
p3247
I6
sg15
(lp3248
S'k'
asg30
g31
sg17
S'Y'
sg14
I9
sg19
Nsg95
I6
sa(dp3249
g16
(lp3250
S'd'
asg18
S'N'
sS'.thisRepN'
p3251
I37
sg20
S'Y'
sg32
g33
sS'.thisTrialN'
p3252
I0
sS'.thisN'
p3253
I407
sS'.thisIndex'
p3254
I0
sg15
(lp3255
S'd'
asg30
g31
sg17
S'Y'
sg14
I9
sg19
Nsg95
I0
sa(dp3256
g16
(lp3257
S'd'
asg18
S'N'
sS'.thisRepN'
p3258
I37
sg20
S'Y'
sg32
g33
sS'.thisTrialN'
p3259
I1
sS'.thisN'
p3260
I408
sS'.thisIndex'
p3261
I2
sg15
(lp3262
S'd'
asg30
g31
sg17
S'Y'
sg14
I9
sg19
Nsg95
I2
sa(dp3263
g16
(lp3264
S'k'
asg18
S'N'
sS'.thisRepN'
p3265
I37
sg20
S'Y'
sg32
g33
sS'.thisTrialN'
p3266
I2
sS'.thisN'
p3267
I409
sS'.thisIndex'
p3268
I2
sg15
(lp3269
S'k'
asg30
g31
sg17
S'Y'
sg14
I9
sg19
Nsg95
I2
sa(dp3270
g16
(lp3271
S'k'
asg18
S'N'
sS'.thisRepN'
p3272
I37
sg20
S'Y'
sg32
g33
sS'.thisTrialN'
p3273
I3
sS'.thisN'
p3274
I410
sS'.thisIndex'
p3275
I6
sg15
(lp3276
S'k'
asg30
g31
sg17
S'Y'
sg14
I9
sg19
Nsg95
I6
sa(dp3277
g16
(lp3278
S'k'
asg18
S'Y'
sS'.thisRepN'
p3279
I37
sg20
S'Y'
sg32
g33
sS'.thisTrialN'
p3280
I4
sS'.thisN'
p3281
I411
sS'.thisIndex'
p3282
I5
sg15
(lp3283
S'k'
asg30
g31
sg17
S'Y'
sg14
I9
sg19
(lp3284
S'space'
p3285
asg95
I5
sa(dp3286
g16
(lp3287
S'k'
asg18
S'N'
sS'.thisRepN'
p3288
I37
sg20
S'Y'
sg32
g33
sS'.thisTrialN'
p3289
I5
sS'.thisN'
p3290
I412
sS'.thisIndex'
p3291
I7
sg15
(lp3292
S'k'
asg30
g31
sg17
S'Y'
sg14
I9
sg19
Nsg95
I7
sa(dp3293
g16
(lp3294
S'd'
asg18
S'Y'
sS'.thisRepN'
p3295
I37
sg20
S'Y'
sg32
g33
sS'.thisTrialN'
p3296
I6
sS'.thisN'
p3297
I413
sS'.thisIndex'
p3298
I7
sg15
(lp3299
S'd'
asg30
g31
sg17
S'Y'
sg14
I9
sg19
(lp3300
S'space'
p3301
asg95
I7
sa(dp3302
g16
(lp3303
S'd'
asg18
S'Y'
sS'.thisRepN'
p3304
I37
sg20
S'Y'
sg32
g33
sS'.thisTrialN'
p3305
I7
sS'.thisN'
p3306
I414
sS'.thisIndex'
p3307
I8
sg15
(lp3308
S'd'
asg30
g31
sg17
S'Y'
sg14
I9
sg19
(lp3309
S'space'
p3310
asg95
I8
sa(dp3311
g16
(lp3312
S'k'
asg18
S'N'
sS'.thisRepN'
p3313
I37
sg20
S'Y'
sg32
g33
sS'.thisTrialN'
p3314
I8
sS'.thisN'
p3315
I415
sS'.thisIndex'
p3316
I7
sg15
(lp3317
S'k'
asg30
g31
sg17
S'Y'
sg14
I9
sg19
Nsg95
I7
sa(dp3318
g16
(lp3319
S'k'
asg18
S'Y'
sS'.thisRepN'
p3320
I37
sg20
S'Y'
sg32
g33
sS'.thisTrialN'
p3321
I9
sS'.thisN'
p3322
I416
sS'.thisIndex'
p3323
I10
sg15
(lp3324
S'k'
asg30
g31
sg17
S'Y'
sg14
I9
sg19
(lp3325
S'space'
p3326
asg95
I10
sa(dp3327
g16
(lp3328
S'd'
asg18
S'Y'
sS'.thisRepN'
p3329
I37
sg20
S'Y'
sg32
g33
sS'.thisTrialN'
p3330
I10
sS'.thisN'
p3331
I417
sS'.thisIndex'
p3332
I5
sg15
(lp3333
S'k'
asg30
g31
sg17
S'N'
sg14
I9
sg19
(lp3334
S'space'
p3335
asg95
I5
sa(dp3336
g16
(lp3337
S'd'
asg18
S'Y'
sS'.thisRepN'
p3338
I38
sg20
S'Y'
sg32
g33
sS'.thisTrialN'
p3339
I0
sS'.thisN'
p3340
I418
sS'.thisIndex'
p3341
I8
sg15
(lp3342
S'd'
asg30
g31
sg17
S'Y'
sg14
I9
sg19
(lp3343
S'space'
p3344
asg95
I8
sa(dp3345
g16
(lp3346
S'k'
asg18
S'Y'
sS'.thisRepN'
p3347
I38
sg20
S'Y'
sg32
g33
sS'.thisTrialN'
p3348
I1
sS'.thisN'
p3349
I419
sS'.thisIndex'
p3350
I0
sg15
(lp3351
S'k'
asg30
g31
sg17
S'Y'
sg14
I9
sg19
(lp3352
S'space'
p3353
asg95
I0
sa(dp3354
g16
(lp3355
S'd'
asg18
S'Y'
sS'.thisRepN'
p3356
I38
sg20
S'Y'
sg32
g33
sS'.thisTrialN'
p3357
I2
sS'.thisN'
p3358
I420
sS'.thisIndex'
p3359
I6
sg15
(lp3360
S'd'
asg30
g31
sg17
S'Y'
sg14
I9
sg19
(lp3361
S'space'
p3362
asg95
I6
sa(dp3363
g16
(lp3364
S'k'
asg18
S'N'
sS'.thisRepN'
p3365
I38
sg20
S'Y'
sg32
g33
sS'.thisTrialN'
p3366
I3
sS'.thisN'
p3367
I421
sS'.thisIndex'
p3368
I0
sg15
(lp3369
S'd'
asg30
g31
sg17
S'N'
sg14
I9
sg19
Nsg95
I0
sa(dp3370
g16
(lp3371
S'k'
asg18
S'N'
sS'.thisRepN'
p3372
I38
sg20
S'Y'
sg32
g33
sS'.thisTrialN'
p3373
I4
sS'.thisN'
p3374
I422
sS'.thisIndex'
p3375
I4
sg15
(lp3376
S'k'
asg30
g31
sg17
S'Y'
sg14
I9
sg19
Nsg95
I4
sa(dp3377
g16
(lp3378
S'd'
asg18
S'N'
sS'.thisRepN'
p3379
I38
sg20
S'Y'
sg32
g33
sS'.thisTrialN'
p3380
I5
sS'.thisN'
p3381
I423
sS'.thisIndex'
p3382
I7
sg15
(lp3383
S'k'
asg30
g31
sg17
S'N'
sg14
I9
sg19
Nsg95
I7
sa(dp3384
g16
(lp3385
S'd'
asg18
S'Y'
sS'.thisRepN'
p3386
I38
sg20
S'Y'
sg32
g33
sS'.thisTrialN'
p3387
I6
sS'.thisN'
p3388
I424
sS'.thisIndex'
p3389
I1
sg15
(lp3390
S'd'
asg30
g31
sg17
S'Y'
sg14
I9
sg19
(lp3391
S'space'
p3392
asg95
I1
sa(dp3393
g16
(lp3394
S'k'
asg18
S'N'
sS'.thisRepN'
p3395
I38
sg20
S'Y'
sg32
g33
sS'.thisTrialN'
p3396
I7
sS'.thisN'
p3397
I425
sS'.thisIndex'
p3398
I1
sg15
(lp3399
S'k'
asg30
g31
sg17
S'Y'
sg14
I9
sg19
Nsg95
I1
sa(dp3400
g16
(lp3401
S'k'
asg18
S'N'
sS'.thisRepN'
p3402
I38
sg20
S'Y'
sg32
g33
sS'.thisTrialN'
p3403
I8
sS'.thisN'
p3404
I426
sS'.thisIndex'
p3405
I0
sg15
(lp3406
S'k'
asg30
g31
sg17
S'Y'
sg14
I9
sg19
Nsg95
I0
sa(dp3407
g16
(lp3408
S'k'
asg18
S'N'
sS'.thisRepN'
p3409
I38
sg20
S'Y'
sg32
g33
sS'.thisTrialN'
p3410
I9
sS'.thisN'
p3411
I427
sS'.thisIndex'
p3412
I9
sg15
(lp3413
S'k'
asg30
g31
sg17
S'Y'
sg14
I9
sg19
Nsg95
I9
sa(dp3414
g16
(lp3415
S'k'
asg18
S'Y'
sS'.thisRepN'
p3416
I38
sg20
S'Y'
sg32
g33
sS'.thisTrialN'
p3417
I10
sS'.thisN'
p3418
I428
sS'.thisIndex'
p3419
I8
sg15
(lp3420
S'd'
asg30
g31
sg17
S'N'
sg14
I9
sg19
(lp3421
S'space'
p3422
asg95
I8
sa(dp3423
g16
(lp3424
S'k'
asg18
S'N'
sS'.thisRepN'
p3425
I39
sg20
S'N'
sg32
g33
sS'.thisTrialN'
p3426
I0
sS'.thisN'
p3427
I429
sS'.thisIndex'
p3428
I1
sg15
(lp3429
S'k'
asg30
g31
sg17
S'Y'
sg14
I9
sg19
(lp3430
S'k'
asg95
I1
sa(dp3431
g16
(lp3432
S'k'
asg18
S'N'
sS'.thisRepN'
p3433
I39
sg20
S'N'
sg32
g33
sS'.thisTrialN'
p3434
I1
sS'.thisN'
p3435
I430
sS'.thisIndex'
p3436
I1
sg15
(lp3437
S'k'
asg30
g31
sg17
S'Y'
sg14
I9
sg19
(lp3438
S'space'
p3439
asg95
I1
sa(dp3440
g16
(lp3441
S'd'
asg18
S'N'
sS'.thisRepN'
p3442
I39
sg20
S'Y'
sg32
g33
sS'.thisTrialN'
p3443
I2
sS'.thisN'
p3444
I431
sS'.thisIndex'
p3445
I5
sg15
(lp3446
S'd'
asg30
g31
sg17
S'Y'
sg14
I9
sg19
Nsg95
I5
sa(dp3447
g16
(lp3448
S'd'
asg18
S'N'
sS'.thisRepN'
p3449
I39
sg20
S'Y'
sg32
g33
sS'.thisTrialN'
p3450
I3
sS'.thisN'
p3451
I432
sS'.thisIndex'
p3452
I6
sg15
(lp3453
S'd'
asg30
g31
sg17
S'Y'
sg14
I9
sg19
Nsg95
I6
sa(dp3454
g16
(lp3455
S'k'
asg18
S'N'
sS'.thisRepN'
p3456
I39
sg20
S'Y'
sg32
g33
sS'.thisTrialN'
p3457
I4
sS'.thisN'
p3458
I433
sS'.thisIndex'
p3459
I10
sg15
(lp3460
S'k'
asg30
g31
sg17
S'Y'
sg14
I9
sg19
Nsg95
I10
sa(dp3461
g16
(lp3462
S'd'
asg18
S'Y'
sS'.thisRepN'
p3463
I39
sg20
S'Y'
sg32
g33
sS'.thisTrialN'
p3464
I5
sS'.thisN'
p3465
I434
sS'.thisIndex'
p3466
I4
sg15
(lp3467
S'k'
asg30
g31
sg17
S'N'
sg14
I9
sg19
(lp3468
S'space'
p3469
asg95
I4
sa(dp3470
g16
(lp3471
S'k'
asg18
S'N'
sS'.thisRepN'
p3472
I39
sg20
S'N'
sg32
g33
sS'.thisTrialN'
p3473
I6
sS'.thisN'
p3474
I435
sS'.thisIndex'
p3475
I4
sg15
(lp3476
S'k'
asg30
g31
sg17
S'Y'
sg14
I9
sg19
(lp3477
S'space'
p3478
asg95
I4
sa(dp3479
g16
(lp3480
S'd'
asg18
S'N'
sS'.thisRepN'
p3481
I39
sg20
S'Y'
sg32
g33
sS'.thisTrialN'
p3482
I7
sS'.thisN'
p3483
I436
sS'.thisIndex'
p3484
I6
sg15
(lp3485
S'k'
asg30
g31
sg17
S'N'
sg14
I9
sg19
Nsg95
I6
sa(dp3486
g16
(lp3487
S'd'
asg18
S'N'
sS'.thisRepN'
p3488
I39
sg20
S'Y'
sg32
g33
sS'.thisTrialN'
p3489
I8
sS'.thisN'
p3490
I437
sS'.thisIndex'
p3491
I0
sg15
(lp3492
S'd'
asg30
g31
sg17
S'Y'
sg14
I9
sg19
Nsg95
I0
sa(dp3493
g16
(lp3494
S'd'
asg18
S'N'
sS'.thisRepN'
p3495
I39
sg20
S'Y'
sg32
g33
sS'.thisTrialN'
p3496
I9
sS'.thisN'
p3497
I438
sS'.thisIndex'
p3498
I10
sg15
(lp3499
S'k'
asg30
g31
sg17
S'N'
sg14
I9
sg19
Nsg95
I10
sa(dp3500
g16
(lp3501
S'd'
asg18
S'Y'
sS'.thisRepN'
p3502
I39
sg20
S'Y'
sg32
g33
sS'.thisTrialN'
p3503
I10
sS'.thisN'
p3504
I439
sS'.thisIndex'
p3505
I10
sg15
(lp3506
S'd'
asg30
g31
sg17
S'Y'
sg14
I9
sg19
(lp3507
S'space'
p3508
asg95
I10
sa(dp3509
g16
(lp3510
S'k'
asg18
S'N'
sS'.thisRepN'
p3511
I40
sg20
S'Y'
sg32
g33
sS'.thisTrialN'
p3512
I0
sS'.thisN'
p3513
I440
sS'.thisIndex'
p3514
I7
sg15
(lp3515
S'k'
asg30
g31
sg17
S'Y'
sg14
I9
sg19
Nsg95
I7
sa(dp3516
g16
(lp3517
S'k'
asg18
S'Y'
sS'.thisRepN'
p3518
I40
sg20
S'Y'
sg32
g33
sS'.thisTrialN'
p3519
I1
sS'.thisN'
p3520
I441
sS'.thisIndex'
p3521
I2
sg15
(lp3522
S'k'
asg30
g31
sg17
S'Y'
sg14
I9
sg19
(lp3523
S'space'
p3524
asg95
I2
sa(dp3525
g16
(lp3526
S'd'
asg18
S'Y'
sS'.thisRepN'
p3527
I40
sg20
S'Y'
sg32
g33
sS'.thisTrialN'
p3528
I2
sS'.thisN'
p3529
I442
sS'.thisIndex'
p3530
I5
sg15
(lp3531
S'k'
asg30
g31
sg17
S'N'
sg14
I9
sg19
(lp3532
S'space'
p3533
asg95
I5
sa(dp3534
g16
(lp3535
S'k'
asg18
S'Y'
sS'.thisRepN'
p3536
I40
sg20
S'Y'
sg32
g33
sS'.thisTrialN'
p3537
I3
sS'.thisN'
p3538
I443
sS'.thisIndex'
p3539
I2
sg15
(lp3540
S'd'
asg30
g31
sg17
S'N'
sg14
I9
sg19
(lp3541
S'space'
p3542
asg95
I2
sa(dp3543
g16
(lp3544
S'k'
asg18
S'Y'
sS'.thisRepN'
p3545
I40
sg20
S'Y'
sg32
g33
sS'.thisTrialN'
p3546
I4
sS'.thisN'
p3547
I444
sS'.thisIndex'
p3548
I4
sg15
(lp3549
S'k'
asg30
g31
sg17
S'Y'
sg14
I9
sg19
(lp3550
S'space'
p3551
asg95
I4
sa(dp3552
g16
(lp3553
S'd'
asg18
S'Y'
sS'.thisRepN'
p3554
I40
sg20
S'N'
sg32
g33
sS'.thisTrialN'
p3555
I5
sS'.thisN'
p3556
I445
sS'.thisIndex'
p3557
I6
sg15
(lp3558
S'd'
asg30
g31
sg17
S'Y'
sg14
I9
sg19
(lp3559
S'k'
asg95
I6
sa(dp3560
g16
(lp3561
S'd'
asg18
S'N'
sS'.thisRepN'
p3562
I40
sg20
S'Y'
sg32
g33
sS'.thisTrialN'
p3563
I6
sS'.thisN'
p3564
I446
sS'.thisIndex'
p3565
I0
sg15
(lp3566
S'd'
asg30
g31
sg17
S'Y'
sg14
I9
sg19
Nsg95
I0
sa(dp3567
g16
(lp3568
S'd'
asg18
S'Y'
sS'.thisRepN'
p3569
I40
sg20
S'N'
sg32
g33
sS'.thisTrialN'
p3570
I7
sS'.thisN'
p3571
I447
sS'.thisIndex'
p3572
I8
sg15
(lp3573
S'd'
asg30
g31
sg17
S'Y'
sg14
I9
sg19
(lp3574
S'd'
asg95
I8
sa(dp3575
g16
(lp3576
S'k'
asg18
S'Y'
sS'.thisRepN'
p3577
I40
sg20
S'Y'
sg32
g33
sS'.thisTrialN'
p3578
I8
sS'.thisN'
p3579
I448
sS'.thisIndex'
p3580
I3
sg15
(lp3581
S'k'
asg30
g31
sg17
S'Y'
sg14
I9
sg19
(lp3582
S'space'
p3583
asg95
I3
sa(dp3584
g16
(lp3585
S'd'
asg18
S'N'
sg22
I41
sS'.thisN'
p3586
I449
sg20
S'N'
sg32
g33
sS'.thisTrialN'
p3587
I9
sS'.thisRepN'
p3588
I40
sg21
I40
sS'.thisIndex'
p3589
I7
sg23
I22
sg15
(lp3590
S'd'
asg30
g31
sg17
S'Y'
sg14
I9
sg19
(lp3591
S'space'
p3592
asg95
I7
sa(dp3593
g16
(lp3594
S'd'
asg95
I7
sS'.thisRepN'
p3595
I40
sg30
g31
sg32
g33
sS'.thisTrialN'
p3596
I10
sS'.thisN'
p3597
I450
sS'.thisIndex'
p3598
I7
sg15
(lp3599
S'd'
asg17
S'Y'
sg14
I10
sa(dp3600
g16
(lp3601
S'k'
asg95
I9
sS'.thisRepN'
p3602
I41
sg30
g31
sg32
g33
sS'.thisTrialN'
p3603
I0
sS'.thisN'
p3604
I451
sS'.thisIndex'
p3605
I9
sg15
(lp3606
S'k'
asg17
S'Y'
sg14
I10
sa(dp3607
g16
(lp3608
S'd'
asg18
S'Y'
sS'.thisRepN'
p3609
I41
sg20
S'Y'
sg32
g33
sS'.thisTrialN'
p3610
I1
sS'.thisN'
p3611
I452
sS'.thisIndex'
p3612
I1
sg15
(lp3613
S'd'
asg30
g31
sg17
S'Y'
sg14
I10
sg19
(lp3614
S'space'
p3615
asg95
I1
sa(dp3616
g16
(lp3617
S'd'
asg18
S'Y'
sS'.thisRepN'
p3618
I41
sg20
S'Y'
sg32
g33
sS'.thisTrialN'
p3619
I2
sS'.thisN'
p3620
I453
sS'.thisIndex'
p3621
I3
sg15
(lp3622
S'd'
asg30
g31
sg17
S'Y'
sg14
I10
sg19
(lp3623
S'space'
p3624
asg95
I3
sa(dp3625
g16
(lp3626
S'd'
asg18
S'N'
sS'.thisRepN'
p3627
I41
sg20
S'N'
sg32
g33
sS'.thisTrialN'
p3628
I3
sS'.thisN'
p3629
I454
sS'.thisIndex'
p3630
I3
sg15
(lp3631
S'd'
asg30
g31
sg17
S'Y'
sg14
I10
sg19
(lp3632
S'space'
p3633
asg95
I3
sa(dp3634
g16
(lp3635
S'd'
asg18
S'Y'
sS'.thisRepN'
p3636
I41
sg20
S'Y'
sg32
g33
sS'.thisTrialN'
p3637
I4
sS'.thisN'
p3638
I455
sS'.thisIndex'
p3639
I1
sg15
(lp3640
S'd'
asg30
g31
sg17
S'Y'
sg14
I10
sg19
(lp3641
S'space'
p3642
asg95
I1
sa(dp3643
g16
(lp3644
S'd'
asg18
S'N'
sS'.thisRepN'
p3645
I41
sg20
S'Y'
sg32
g33
sS'.thisTrialN'
p3646
I5
sS'.thisN'
p3647
I456
sS'.thisIndex'
p3648
I1
sg15
(lp3649
S'd'
asg30
g31
sg17
S'Y'
sg14
I10
sg19
Nsg95
I1
sa(dp3650
g16
(lp3651
S'd'
asg18
S'N'
sS'.thisRepN'
p3652
I41
sg20
S'Y'
sg32
g33
sS'.thisTrialN'
p3653
I6
sS'.thisN'
p3654
I457
sS'.thisIndex'
p3655
I5
sg15
(lp3656
S'd'
asg30
g31
sg17
S'Y'
sg14
I10
sg19
Nsg95
I5
sa(dp3657
g16
(lp3658
S'k'
asg18
S'N'
sS'.thisRepN'
p3659
I41
sg20
S'Y'
sg32
g33
sS'.thisTrialN'
p3660
I7
sS'.thisN'
p3661
I458
sS'.thisIndex'
p3662
I8
sg15
(lp3663
S'k'
asg30
g31
sg17
S'Y'
sg14
I10
sg19
Nsg95
I8
sa(dp3664
g16
(lp3665
S'd'
asg18
S'N'
sS'.thisRepN'
p3666
I41
sg20
S'Y'
sg32
g33
sS'.thisTrialN'
p3667
I8
sS'.thisN'
p3668
I459
sS'.thisIndex'
p3669
I9
sg15
(lp3670
S'k'
asg30
g31
sg17
S'N'
sg14
I10
sg19
Nsg95
I9
sa(dp3671
g16
(lp3672
S'k'
asg18
S'N'
sS'.thisRepN'
p3673
I41
sg20
S'N'
sg32
g33
sS'.thisTrialN'
p3674
I9
sS'.thisN'
p3675
I460
sS'.thisIndex'
p3676
I9
sg15
(lp3677
S'k'
asg30
g31
sg17
S'Y'
sg14
I10
sg19
(lp3678
S'space'
p3679
asg95
I9
sa(dp3680
g16
(lp3681
S'd'
asg18
S'Y'
sS'.thisRepN'
p3682
I41
sg20
S'N'
sg32
g33
sS'.thisTrialN'
p3683
I10
sS'.thisN'
p3684
I461
sS'.thisIndex'
p3685
I1
sg15
(lp3686
S'd'
asg30
g31
sg17
S'Y'
sg14
I10
sg19
Nsg95
I1
sa(dp3687
g16
(lp3688
S'k'
asg18
S'N'
sS'.thisRepN'
p3689
I42
sg20
S'Y'
sg32
g33
sS'.thisTrialN'
p3690
I0
sS'.thisN'
p3691
I462
sS'.thisIndex'
p3692
I3
sg15
(lp3693
S'k'
asg30
g31
sg17
S'Y'
sg14
I10
sg19
Nsg95
I3
sa(dp3694
g16
(lp3695
S'd'
asg18
S'Y'
sS'.thisRepN'
p3696
I42
sg20
S'Y'
sg32
g33
sS'.thisTrialN'
p3697
I1
sS'.thisN'
p3698
I463
sS'.thisIndex'
p3699
I10
sg15
(lp3700
S'd'
asg30
g31
sg17
S'Y'
sg14
I10
sg19
(lp3701
S'space'
p3702
asg95
I10
sa(dp3703
g16
(lp3704
S'k'
asg18
S'N'
sS'.thisRepN'
p3705
I42
sg20
S'Y'
sg32
g33
sS'.thisTrialN'
p3706
I2
sS'.thisN'
p3707
I464
sS'.thisIndex'
p3708
I4
sg15
(lp3709
S'k'
asg30
g31
sg17
S'Y'
sg14
I10
sg19
Nsg95
I4
sa(dp3710
g16
(lp3711
S'd'
asg18
S'N'
sS'.thisRepN'
p3712
I42
sg20
S'Y'
sg32
g33
sS'.thisTrialN'
p3713
I3
sS'.thisN'
p3714
I465
sS'.thisIndex'
p3715
I1
sg15
(lp3716
S'k'
asg30
g31
sg17
S'N'
sg14
I10
sg19
Nsg95
I1
sa(dp3717
g16
(lp3718
S'k'
asg18
S'Y'
sS'.thisRepN'
p3719
I42
sg20
S'Y'
sg32
g33
sS'.thisTrialN'
p3720
I4
sS'.thisN'
p3721
I466
sS'.thisIndex'
p3722
I0
sg15
(lp3723
S'k'
asg30
g31
sg17
S'Y'
sg14
I10
sg19
(lp3724
S'space'
p3725
asg95
I0
sa(dp3726
g16
(lp3727
S'd'
asg18
S'N'
sS'.thisRepN'
p3728
I42
sg20
S'Y'
sg32
g33
sS'.thisTrialN'
p3729
I5
sS'.thisN'
p3730
I467
sS'.thisIndex'
p3731
I3
sg15
(lp3732
S'd'
asg30
g31
sg17
S'Y'
sg14
I10
sg19
Nsg95
I3
sa(dp3733
g16
(lp3734
S'k'
asg18
S'N'
sS'.thisRepN'
p3735
I42
sg20
S'Y'
sg32
g33
sS'.thisTrialN'
p3736
I6
sS'.thisN'
p3737
I468
sS'.thisIndex'
p3738
I2
sg15
(lp3739
S'k'
asg30
g31
sg17
S'Y'
sg14
I10
sg19
Nsg95
I2
sa(dp3740
g16
(lp3741
S'k'
asg18
S'Y'
sS'.thisRepN'
p3742
I42
sg20
S'Y'
sg32
g33
sS'.thisTrialN'
p3743
I7
sS'.thisN'
p3744
I469
sS'.thisIndex'
p3745
I2
sg15
(lp3746
S'k'
asg30
g31
sg17
S'Y'
sg14
I10
sg19
(lp3747
S'space'
p3748
asg95
I2
sa(dp3749
g16
(lp3750
S'd'
asg18
S'Y'
sS'.thisRepN'
p3751
I42
sg20
S'Y'
sg32
g33
sS'.thisTrialN'
p3752
I8
sS'.thisN'
p3753
I470
sS'.thisIndex'
p3754
I4
sg15
(lp3755
S'd'
asg30
g31
sg17
S'Y'
sg14
I10
sg19
(lp3756
S'space'
p3757
asg95
I4
sa(dp3758
g16
(lp3759
S'k'
asg18
S'Y'
sS'.thisRepN'
p3760
I42
sg20
S'Y'
sg32
g33
sS'.thisTrialN'
p3761
I9
sS'.thisN'
p3762
I471
sS'.thisIndex'
p3763
I6
sg15
(lp3764
S'k'
asg30
g31
sg17
S'Y'
sg14
I10
sg19
(lp3765
S'space'
p3766
asg95
I6
sa(dp3767
g16
(lp3768
S'd'
asg18
S'Y'
sS'.thisRepN'
p3769
I42
sg20
S'Y'
sg32
g33
sS'.thisTrialN'
p3770
I10
sS'.thisN'
p3771
I472
sS'.thisIndex'
p3772
I7
sg15
(lp3773
S'd'
asg30
g31
sg17
S'Y'
sg14
I10
sg19
(lp3774
S'space'
p3775
asg95
I7
sa(dp3776
g16
(lp3777
S'd'
asg18
S'Y'
sS'.thisRepN'
p3778
I43
sg20
S'N'
sg32
g33
sS'.thisTrialN'
p3779
I0
sS'.thisN'
p3780
I473
sS'.thisIndex'
p3781
I10
sg15
(lp3782
S'd'
asg30
g31
sg17
S'Y'
sg14
I10
sg19
Nsg95
I10
sa(dp3783
g16
(lp3784
S'd'
asg18
S'Y'
sS'.thisRepN'
p3785
I43
sg20
S'Y'
sg32
g33
sS'.thisTrialN'
p3786
I1
sS'.thisN'
p3787
I474
sS'.thisIndex'
p3788
I4
sg15
(lp3789
S'k'
asg30
g31
sg17
S'N'
sg14
I10
sg19
(lp3790
S'space'
p3791
asg95
I4
sa(dp3792
g16
(lp3793
S'k'
asg18
S'Y'
sS'.thisRepN'
p3794
I43
sg20
S'Y'
sg32
g33
sS'.thisTrialN'
p3795
I2
sS'.thisN'
p3796
I475
sS'.thisIndex'
p3797
I3
sg15
(lp3798
S'k'
asg30
g31
sg17
S'Y'
sg14
I10
sg19
(lp3799
S'space'
p3800
asg95
I3
sa(dp3801
g16
(lp3802
S'd'
asg18
S'N'
sS'.thisRepN'
p3803
I43
sg20
S'Y'
sg32
g33
sS'.thisTrialN'
p3804
I3
sS'.thisN'
p3805
I476
sS'.thisIndex'
p3806
I0
sg15
(lp3807
S'k'
asg30
g31
sg17
S'N'
sg14
I10
sg19
Nsg95
I0
sa(dp3808
g16
(lp3809
S'k'
asg18
S'N'
sS'.thisRepN'
p3810
I43
sg20
S'Y'
sg32
g33
sS'.thisTrialN'
p3811
I4
sS'.thisN'
p3812
I477
sS'.thisIndex'
p3813
I8
sg15
(lp3814
S'k'
asg30
g31
sg17
S'Y'
sg14
I10
sg19
Nsg95
I8
sa(dp3815
g16
(lp3816
S'd'
asg18
S'N'
sS'.thisRepN'
p3817
I43
sg20
S'Y'
sg32
g33
sS'.thisTrialN'
p3818
I5
sS'.thisN'
p3819
I478
sS'.thisIndex'
p3820
I3
sg15
(lp3821
S'd'
asg30
g31
sg17
S'Y'
sg14
I10
sg19
Nsg95
I3
sa(dp3822
g16
(lp3823
S'd'
asg18
S'N'
sS'.thisRepN'
p3824
I43
sg20
S'Y'
sg32
g33
sS'.thisTrialN'
p3825
I6
sS'.thisN'
p3826
I479
sS'.thisIndex'
p3827
I1
sg15
(lp3828
S'd'
asg30
g31
sg17
S'Y'
sg14
I10
sg19
Nsg95
I1
sa(dp3829
g16
(lp3830
S'k'
asg18
S'N'
sS'.thisRepN'
p3831
I43
sg20
S'Y'
sg32
g33
sS'.thisTrialN'
p3832
I7
sS'.thisN'
p3833
I480
sS'.thisIndex'
p3834
I8
sg15
(lp3835
S'k'
asg30
g31
sg17
S'Y'
sg14
I10
sg19
Nsg95
I8
sa(dp3836
g16
(lp3837
S'd'
asg18
S'Y'
sS'.thisRepN'
p3838
I43
sg20
S'Y'
sg32
g33
sS'.thisTrialN'
p3839
I8
sS'.thisN'
p3840
I481
sS'.thisIndex'
p3841
I9
sg15
(lp3842
S'd'
asg30
g31
sg17
S'Y'
sg14
I10
sg19
(lp3843
S'space'
p3844
asg95
I9
sa(dp3845
g16
(lp3846
S'k'
asg18
S'N'
sS'.thisRepN'
p3847
I43
sg20
S'Y'
sg32
g33
sS'.thisTrialN'
p3848
I9
sS'.thisN'
p3849
I482
sS'.thisIndex'
p3850
I2
sg15
(lp3851
S'd'
asg30
g31
sg17
S'N'
sg14
I10
sg19
Nsg95
I2
sa(dp3852
g16
(lp3853
S'd'
asg18
S'N'
sS'.thisRepN'
p3854
I43
sg20
S'Y'
sg32
g33
sS'.thisTrialN'
p3855
I10
sS'.thisN'
p3856
I483
sS'.thisIndex'
p3857
I4
sg15
(lp3858
S'd'
asg30
g31
sg17
S'Y'
sg14
I10
sg19
Nsg95
I4
sa(dp3859
g16
(lp3860
S'd'
asg18
S'Y'
sS'.thisRepN'
p3861
I44
sg20
S'Y'
sg32
g33
sS'.thisTrialN'
p3862
I0
sS'.thisN'
p3863
I484
sS'.thisIndex'
p3864
I3
sg15
(lp3865
S'k'
asg30
g31
sg17
S'N'
sg14
I10
sg19
(lp3866
S'space'
p3867
asg95
I3
sa(dp3868
g16
(lp3869
S'k'
asg18
S'Y'
sS'.thisRepN'
p3870
I44
sg20
S'Y'
sg32
g33
sS'.thisTrialN'
p3871
I1
sS'.thisN'
p3872
I485
sS'.thisIndex'
p3873
I10
sg15
(lp3874
S'd'
asg30
g31
sg17
S'N'
sg14
I10
sg19
(lp3875
S'space'
p3876
asg95
I10
sa(dp3877
g16
(lp3878
S'k'
asg18
S'Y'
sS'.thisRepN'
p3879
I44
sg20
S'Y'
sg32
g33
sS'.thisTrialN'
p3880
I2
sS'.thisN'
p3881
I486
sS'.thisIndex'
p3882
I6
sg15
(lp3883
S'k'
asg30
g31
sg17
S'Y'
sg14
I10
sg19
(lp3884
S'space'
p3885
asg95
I6
sa(dp3886
g16
(lp3887
S'k'
asg18
S'N'
sS'.thisRepN'
p3888
I44
sg20
S'Y'
sg32
g33
sS'.thisTrialN'
p3889
I3
sS'.thisN'
p3890
I487
sS'.thisIndex'
p3891
I7
sg15
(lp3892
S'k'
asg30
g31
sg17
S'Y'
sg14
I10
sg19
Nsg95
I7
sa(dp3893
g16
(lp3894
S'k'
asg18
S'Y'
sS'.thisRepN'
p3895
I44
sg20
S'N'
sg32
g33
sS'.thisTrialN'
p3896
I4
sS'.thisN'
p3897
I488
sS'.thisIndex'
p3898
I9
sg15
(lp3899
S'k'
asg30
g31
sg17
S'Y'
sg14
I10
sg19
Nsg95
I9
sa(dp3900
g16
(lp3901
S'k'
asg18
S'N'
sS'.thisRepN'
p3902
I44
sg20
S'Y'
sg32
g33
sS'.thisTrialN'
p3903
I5
sS'.thisN'
p3904
I489
sS'.thisIndex'
p3905
I2
sg15
(lp3906
S'k'
asg30
g31
sg17
S'Y'
sg14
I10
sg19
Nsg95
I2
sa(dp3907
g16
(lp3908
S'k'
asg18
S'Y'
sS'.thisRepN'
p3909
I44
sg20
S'N'
sg32
g33
sS'.thisTrialN'
p3910
I6
sS'.thisN'
p3911
I490
sS'.thisIndex'
p3912
I10
sg15
(lp3913
S'k'
asg30
g31
sg17
S'Y'
sg14
I10
sg19
Nsg95
I10
sa(dp3914
g16
(lp3915
S'd'
asg18
S'Y'
sS'.thisRepN'
p3916
I44
sg20
S'N'
sg32
g33
sS'.thisTrialN'
p3917
I7
sS'.thisN'
p3918
I491
sS'.thisIndex'
p3919
I10
sg15
(lp3920
S'd'
asg30
g31
sg17
S'Y'
sg14
I10
sg19
Nsg95
I10
sa(dp3921
g16
(lp3922
S'd'
asg18
S'Y'
sS'.thisRepN'
p3923
I44
sg20
S'N'
sg32
g33
sS'.thisTrialN'
p3924
I8
sS'.thisN'
p3925
I492
sS'.thisIndex'
p3926
I10
sg15
(lp3927
S'k'
asg30
g31
sg17
S'N'
sg14
I10
sg19
Nsg95
I10
sa(dp3928
g16
(lp3929
S'k'
asg18
S'N'
sS'.thisRepN'
p3930
I44
sg20
S'Y'
sg32
g33
sS'.thisTrialN'
p3931
I9
sS'.thisN'
p3932
I493
sS'.thisIndex'
p3933
I1
sg15
(lp3934
S'k'
asg30
g31
sg17
S'Y'
sg14
I10
sg19
Nsg95
I1
sa(dp3935
g16
(lp3936
S'k'
asg18
S'Y'
sS'.thisRepN'
p3937
I44
sg20
S'N'
sg32
g33
sS'.thisTrialN'
p3938
I10
sS'.thisN'
p3939
I494
sS'.thisIndex'
p3940
I4
sg15
(lp3941
S'd'
asg30
g31
sg17
S'N'
sg14
I10
sg19
Nsg95
I4
sa(dp3942
g16
(lp3943
S'd'
asg18
S'Y'
sS'.thisRepN'
p3944
I45
sg20
S'N'
sg32
g33
sS'.thisTrialN'
p3945
I0
sS'.thisN'
p3946
I495
sS'.thisIndex'
p3947
I1
sg15
(lp3948
S'd'
asg30
g31
sg17
S'Y'
sg14
I10
sg19
Nsg95
I1
sa(dp3949
g16
(lp3950
S'k'
asg18
S'Y'
sS'.thisRepN'
p3951
I45
sg20
S'N'
sg32
g33
sS'.thisTrialN'
p3952
I1
sS'.thisN'
p3953
I496
sS'.thisIndex'
p3954
I6
sg15
(lp3955
S'k'
asg30
g31
sg17
S'Y'
sg14
I10
sg19
Nsg95
I6
sa(dp3956
g16
(lp3957
S'd'
asg18
S'N'
sS'.thisRepN'
p3958
I45
sg20
S'Y'
sg32
g33
sS'.thisTrialN'
p3959
I2
sS'.thisN'
p3960
I497
sS'.thisIndex'
p3961
I4
sg15
(lp3962
S'd'
asg30
g31
sg17
S'Y'
sg14
I10
sg19
Nsg95
I4
sa(dp3963
g16
(lp3964
S'd'
asg18
S'Y'
sS'.thisRepN'
p3965
I45
sg20
S'N'
sg32
g33
sS'.thisTrialN'
p3966
I3
sS'.thisN'
p3967
I498
sS'.thisIndex'
p3968
I3
sg15
(lp3969
S'd'
asg30
g31
sg17
S'Y'
sg14
I10
sg19
Nsg95
I3
sa(dp3970
g16
(lp3971
S'k'
asg18
S'N'
sg22
I36
sS'.thisN'
p3972
I499
sg20
S'Y'
sg32
g33
sS'.thisTrialN'
p3973
I4
sS'.thisRepN'
p3974
I45
sg21
I41
sS'.thisIndex'
p3975
I2
sg23
I25
sg15
(lp3976
S'k'
asg30
g31
sg17
S'Y'
sg14
I10
sg19
Nsg95
I2
sa(dp3977
g16
(lp3978
S'k'
asS'.thisIndex'
p3979
I6
sS'.thisRepN'
p3980
I45
sg26
S'Y'
sg30
g31
sg32
g33
sS'.thisTrialN'
p3981
I5
sS'.thisN'
p3982
I500
sg25
S'Y'
sg24
S'Y'
sg15
(lp3983
S'd'
asg17
S'Y'
sg14
I11
sg95
I6
sa(dp3984
g16
(lp3985
S'd'
asS'.thisIndex'
p3986
I2
sS'.thisRepN'
p3987
I45
sg26
S'Y'
sg30
g31
sg32
g33
sS'.thisTrialN'
p3988
I6
sS'.thisN'
p3989
I501
sg25
S'Y'
sg15
(lp3990
S'd'
asg17
S'N'
sg14
I11
sg95
I2
sa(dp3991
g16
(lp3992
S'd'
asg18
S'Y'
sS'.thisRepN'
p3993
I45
sg26
S'Y'
sg20
S'N'
sg32
g33
sS'.thisTrialN'
p3994
I7
sS'.thisN'
p3995
I502
sg25
S'Y'
sg15
(lp3996
S'd'
asg30
g31
sg17
S'N'
sg14
I11
sg19
Nsg95
I8
sS'.thisIndex'
p3997
I8
sa(dp3998
g16
(lp3999
S'd'
asg18
S'Y'
sS'.thisRepN'
p4000
I45
sg26
S'Y'
sg20
S'N'
sg32
g33
sS'.thisTrialN'
p4001
I8
sS'.thisN'
p4002
I503
sg25
S'Y'
sg15
(lp4003
S'd'
asg30
g31
sg17
S'N'
sg14
I11
sg19
Nsg95
I7
sS'.thisIndex'
p4004
I7
sa(dp4005
g16
(lp4006
S'd'
asg18
S'N'
sS'.thisRepN'
p4007
I45
sg26
S'Y'
sg20
S'Y'
sg32
g33
sS'.thisTrialN'
p4008
I9
sS'.thisN'
p4009
I504
sg25
S'Y'
sg15
(lp4010
S'k'
asg30
g31
sg17
S'Y'
sg14
I11
sg19
Nsg95
I3
sS'.thisIndex'
p4011
I3
sa(dp4012
g16
(lp4013
S'd'
asg18
S'Y'
sS'.thisRepN'
p4014
I45
sg26
S'Y'
sg20
S'N'
sg32
g33
sS'.thisTrialN'
p4015
I10
sS'.thisN'
p4016
I505
sg25
S'Y'
sg15
(lp4017
S'd'
asg30
g31
sg17
S'N'
sg14
I11
sg19
Nsg95
I9
sS'.thisIndex'
p4018
I9
sa(dp4019
g16
(lp4020
S'k'
asg18
S'N'
sS'.thisRepN'
p4021
I46
sg26
S'Y'
sg20
S'Y'
sg32
g33
sS'.thisTrialN'
p4022
I0
sS'.thisN'
p4023
I506
sg25
S'Y'
sg15
(lp4024
S'd'
asg30
g31
sg17
S'Y'
sg14
I11
sg19
Nsg95
I3
sS'.thisIndex'
p4025
I3
sa(dp4026
g16
(lp4027
S'k'
asg18
S'Y'
sS'.thisRepN'
p4028
I46
sg26
S'Y'
sg20
S'N'
sg32
g33
sS'.thisTrialN'
p4029
I1
sS'.thisN'
p4030
I507
sg25
S'Y'
sg15
(lp4031
S'd'
asg30
g31
sg17
S'Y'
sg14
I11
sg19
Nsg95
I9
sS'.thisIndex'
p4032
I9
sa(dp4033
g16
(lp4034
S'd'
asg18
S'Y'
sS'.thisRepN'
p4035
I46
sg26
S'Y'
sg20
S'N'
sg32
g33
sS'.thisTrialN'
p4036
I2
sS'.thisN'
p4037
I508
sg25
S'Y'
sg15
(lp4038
S'k'
asg30
g31
sg17
S'Y'
sg14
I11
sg19
Nsg95
I6
sS'.thisIndex'
p4039
I6
sa(dp4040
g16
(lp4041
S'd'
asg18
S'Y'
sS'.thisRepN'
p4042
I46
sg26
S'Y'
sg20
S'N'
sg32
g33
sS'.thisTrialN'
p4043
I3
sS'.thisN'
p4044
I509
sg25
S'Y'
sg15
(lp4045
S'd'
asg30
g31
sg17
S'N'
sg14
I11
sg19
Nsg95
I2
sS'.thisIndex'
p4046
I2
sa(dp4047
g16
(lp4048
S'k'
asg18
S'Y'
sS'.thisRepN'
p4049
I46
sg26
S'Y'
sg20
S'N'
sg32
g33
sS'.thisTrialN'
p4050
I4
sS'.thisN'
p4051
I510
sg25
S'Y'
sg15
(lp4052
S'd'
asg30
g31
sg17
S'Y'
sg14
I11
sg19
Nsg95
I8
sS'.thisIndex'
p4053
I8
sa(dp4054
g16
(lp4055
S'k'
asg18
S'N'
sS'.thisRepN'
p4056
I46
sg26
S'Y'
sg20
S'Y'
sg32
g33
sS'.thisTrialN'
p4057
I5
sS'.thisN'
p4058
I511
sg25
S'Y'
sg15
(lp4059
S'd'
asg30
g31
sg17
S'Y'
sg14
I11
sg19
Nsg95
I2
sS'.thisIndex'
p4060
I2
sa(dp4061
g16
(lp4062
S'd'
asg18
S'N'
sS'.thisRepN'
p4063
I46
sg26
S'Y'
sg20
S'Y'
sg32
g33
sS'.thisTrialN'
p4064
I6
sS'.thisN'
p4065
I512
sg25
S'Y'
sg15
(lp4066
S'k'
asg30
g31
sg17
S'Y'
sg14
I11
sg19
Nsg95
I8
sS'.thisIndex'
p4067
I8
sa(dp4068
g16
(lp4069
S'd'
asg18
S'Y'
sS'.thisRepN'
p4070
I46
sg26
S'Y'
sg20
S'N'
sg32
g33
sS'.thisTrialN'
p4071
I7
sS'.thisN'
p4072
I513
sg25
S'Y'
sg15
(lp4073
S'd'
asg30
g31
sg17
S'N'
sg14
I11
sg19
Nsg95
I7
sS'.thisIndex'
p4074
I7
sa(dp4075
g16
(lp4076
S'k'
asg18
S'Y'
sS'.thisRepN'
p4077
I46
sg26
S'Y'
sg20
S'N'
sg32
g33
sS'.thisTrialN'
p4078
I8
sS'.thisN'
p4079
I514
sg25
S'Y'
sg15
(lp4080
S'k'
asg30
g31
sg17
S'N'
sg14
I11
sg19
Nsg95
I6
sS'.thisIndex'
p4081
I6
sa(dp4082
g16
(lp4083
S'k'
asg18
S'Y'
sS'.thisRepN'
p4084
I46
sg26
S'Y'
sg20
S'N'
sg32
g33
sS'.thisTrialN'
p4085
I9
sS'.thisN'
p4086
I515
sg25
S'Y'
sg15
(lp4087
S'd'
asg30
g31
sg17
S'Y'
sg14
I11
sg19
Nsg95
I2
sS'.thisIndex'
p4088
I2
sa(dp4089
g16
(lp4090
S'd'
asg18
S'N'
sS'.thisRepN'
p4091
I46
sg26
S'Y'
sg20
S'Y'
sg32
g33
sS'.thisTrialN'
p4092
I10
sS'.thisN'
p4093
I516
sg25
S'Y'
sg15
(lp4094
S'k'
asg30
g31
sg17
S'Y'
sg14
I11
sg19
Nsg95
I6
sS'.thisIndex'
p4095
I6
sa(dp4096
g16
(lp4097
S'k'
asg18
S'N'
sS'.thisRepN'
p4098
I47
sg26
S'Y'
sg20
S'Y'
sg32
g33
sS'.thisTrialN'
p4099
I0
sS'.thisN'
p4100
I517
sg25
S'Y'
sg15
(lp4101
S'd'
asg30
g31
sg17
S'Y'
sg14
I11
sg19
Nsg95
I1
sS'.thisIndex'
p4102
I1
sa(dp4103
g16
(lp4104
S'd'
asg18
S'Y'
sS'.thisRepN'
p4105
I47
sg26
S'Y'
sg20
S'N'
sg32
g33
sS'.thisTrialN'
p4106
I1
sS'.thisN'
p4107
I518
sg25
S'Y'
sg15
(lp4108
S'k'
asg30
g31
sg17
S'Y'
sg14
I11
sg19
Nsg95
I0
sS'.thisIndex'
p4109
I0
sa(dp4110
g16
(lp4111
S'd'
asg18
S'Y'
sS'.thisRepN'
p4112
I47
sg26
S'Y'
sg20
S'N'
sg32
g33
sS'.thisTrialN'
p4113
I2
sS'.thisN'
p4114
I519
sg25
S'Y'
sg15
(lp4115
S'k'
asg30
g31
sg17
S'Y'
sg14
I11
sg19
Nsg95
I4
sS'.thisIndex'
p4116
I4
sa(dp4117
g16
(lp4118
S'd'
asg18
S'Y'
sS'.thisRepN'
p4119
I47
sg26
S'Y'
sg20
S'N'
sg32
g33
sS'.thisTrialN'
p4120
I3
sS'.thisN'
p4121
I520
sg25
S'Y'
sg15
(lp4122
S'k'
asg30
g31
sg17
S'Y'
sg14
I11
sg19
Nsg95
I5
sS'.thisIndex'
p4123
I5
sa(dp4124
g16
(lp4125
S'd'
asg18
S'N'
sS'.thisRepN'
p4126
I47
sg26
S'Y'
sg20
S'Y'
sg32
g33
sS'.thisTrialN'
p4127
I4
sS'.thisN'
p4128
I521
sg25
S'Y'
sg15
(lp4129
S'k'
asg30
g31
sg17
S'Y'
sg14
I11
sg19
Nsg95
I4
sS'.thisIndex'
p4130
I4
sa(dp4131
g16
(lp4132
S'k'
asg18
S'N'
sS'.thisRepN'
p4133
I47
sg26
S'Y'
sg20
S'Y'
sg32
g33
sS'.thisTrialN'
p4134
I5
sS'.thisN'
p4135
I522
sg25
S'Y'
sg15
(lp4136
S'd'
asg30
g31
sg17
S'Y'
sg14
I11
sg19
Nsg95
I3
sS'.thisIndex'
p4137
I3
sa(dp4138
g16
(lp4139
S'd'
asg18
S'N'
sS'.thisRepN'
p4140
I47
sg26
S'Y'
sg20
S'Y'
sg32
g33
sS'.thisTrialN'
p4141
I6
sS'.thisN'
p4142
I523
sg25
S'Y'
sg15
(lp4143
S'k'
asg30
g31
sg17
S'Y'
sg14
I11
sg19
Nsg95
I10
sS'.thisIndex'
p4144
I10
sa(dp4145
g16
(lp4146
S'd'
asg18
S'N'
sS'.thisRepN'
p4147
I47
sg26
S'Y'
sg20
S'Y'
sg32
g33
sS'.thisTrialN'
p4148
I7
sS'.thisN'
p4149
I524
sg25
S'Y'
sg15
(lp4150
S'k'
asg30
g31
sg17
S'Y'
sg14
I11
sg19
Nsg95
I8
sS'.thisIndex'
p4151
I8
sa(dp4152
g16
(lp4153
S'k'
asg18
S'N'
sS'.thisRepN'
p4154
I47
sg26
S'Y'
sg20
S'Y'
sg32
g33
sS'.thisTrialN'
p4155
I8
sS'.thisN'
p4156
I525
sg25
S'Y'
sg15
(lp4157
S'd'
asg30
g31
sg17
S'Y'
sg14
I11
sg19
Nsg95
I8
sS'.thisIndex'
p4158
I8
sa(dp4159
g16
(lp4160
S'd'
asg18
S'N'
sS'.thisRepN'
p4161
I47
sg26
S'Y'
sg20
S'Y'
sg32
g33
sS'.thisTrialN'
p4162
I9
sS'.thisN'
p4163
I526
sg25
S'Y'
sg15
(lp4164
S'k'
asg30
g31
sg17
S'Y'
sg14
I11
sg19
Nsg95
I7
sS'.thisIndex'
p4165
I7
sa(dp4166
g16
(lp4167
S'd'
asg18
S'N'
sS'.thisRepN'
p4168
I47
sg26
S'Y'
sg20
S'Y'
sg32
g33
sS'.thisTrialN'
p4169
I10
sS'.thisN'
p4170
I527
sg25
S'Y'
sg15
(lp4171
S'd'
asg30
g31
sg17
S'N'
sg14
I11
sg19
Nsg95
I3
sS'.thisIndex'
p4172
I3
sa(dp4173
g16
(lp4174
S'd'
asg18
S'Y'
sS'.thisRepN'
p4175
I48
sg26
S'Y'
sg20
S'Y'
sg32
g33
sS'.thisTrialN'
p4176
I0
sS'.thisN'
p4177
I528
sg25
S'Y'
sg15
(lp4178
S'k'
asg30
g31
sg17
S'Y'
sg14
I11
sg19
(lp4179
S'space'
p4180
asg95
I0
sS'.thisIndex'
p4181
I0
sa(dp4182
g16
(lp4183
S'd'
asg18
S'Y'
sS'.thisRepN'
p4184
I48
sg26
S'Y'
sg20
S'Y'
sg32
g33
sS'.thisTrialN'
p4185
I1
sS'.thisN'
p4186
I529
sg25
S'Y'
sg15
(lp4187
S'k'
asg30
g31
sg17
S'Y'
sg14
I11
sg19
(lp4188
S'space'
p4189
asg95
I9
sS'.thisIndex'
p4190
I9
sa(dp4191
g16
(lp4192
S'd'
asg18
S'Y'
sS'.thisRepN'
p4193
I48
sg26
S'Y'
sg20
S'N'
sg32
g33
sS'.thisTrialN'
p4194
I2
sS'.thisN'
p4195
I530
sg25
S'Y'
sg15
(lp4196
S'd'
asg30
g31
sg17
S'N'
sg14
I11
sg19
Nsg95
I10
sS'.thisIndex'
p4197
I10
sa(dp4198
g16
(lp4199
S'd'
asg18
S'Y'
sS'.thisRepN'
p4200
I48
sg26
S'Y'
sg20
S'N'
sg32
g33
sS'.thisTrialN'
p4201
I3
sS'.thisN'
p4202
I531
sg25
S'Y'
sg15
(lp4203
S'k'
asg30
g31
sg17
S'Y'
sg14
I11
sg19
Nsg95
I8
sS'.thisIndex'
p4204
I8
sa(dp4205
g16
(lp4206
S'd'
asg18
S'N'
sS'.thisRepN'
p4207
I48
sg26
S'Y'
sg20
S'Y'
sg32
g33
sS'.thisTrialN'
p4208
I4
sS'.thisN'
p4209
I532
sg25
S'Y'
sg15
(lp4210
S'k'
asg30
g31
sg17
S'Y'
sg14
I11
sg19
Nsg95
I7
sS'.thisIndex'
p4211
I7
sa(dp4212
g16
(lp4213
S'k'
asg18
S'N'
sS'.thisRepN'
p4214
I48
sg26
S'Y'
sg20
S'Y'
sg32
g33
sS'.thisTrialN'
p4215
I5
sS'.thisN'
p4216
I533
sg25
S'Y'
sg15
(lp4217
S'k'
asg30
g31
sg17
S'N'
sg14
I11
sg19
Nsg95
I10
sS'.thisIndex'
p4218
I10
sa(dp4219
g16
(lp4220
S'k'
asg18
S'N'
sS'.thisRepN'
p4221
I48
sg26
S'Y'
sg20
S'Y'
sg32
g33
sS'.thisTrialN'
p4222
I6
sS'.thisN'
p4223
I534
sg25
S'Y'
sg15
(lp4224
S'd'
asg30
g31
sg17
S'Y'
sg14
I11
sg19
Nsg95
I5
sS'.thisIndex'
p4225
I5
sa(dp4226
g16
(lp4227
S'd'
asg18
S'Y'
sS'.thisRepN'
p4228
I48
sg26
S'Y'
sg20
S'Y'
sg32
g33
sS'.thisTrialN'
p4229
I7
sS'.thisN'
p4230
I535
sg25
S'Y'
sg15
(lp4231
S'k'
asg30
g31
sg17
S'Y'
sg14
I11
sg19
(lp4232
S'space'
p4233
asg95
I5
sS'.thisIndex'
p4234
I5
sa(dp4235
g16
(lp4236
S'k'
asg18
S'N'
sS'.thisRepN'
p4237
I48
sg26
S'Y'
sg20
S'Y'
sg32
g33
sS'.thisTrialN'
p4238
I8
sS'.thisN'
p4239
I536
sg25
S'Y'
sg15
(lp4240
S'd'
asg30
g31
sg17
S'Y'
sg14
I11
sg19
Nsg95
I3
sS'.thisIndex'
p4241
I3
sa(dp4242
g16
(lp4243
S'd'
asg18
S'N'
sS'.thisRepN'
p4244
I48
sg26
S'Y'
sg20
S'Y'
sg32
g33
sS'.thisTrialN'
p4245
I9
sS'.thisN'
p4246
I537
sg25
S'Y'
sg15
(lp4247
S'k'
asg30
g31
sg17
S'Y'
sg14
I11
sg19
Nsg95
I6
sS'.thisIndex'
p4248
I6
sa(dp4249
g16
(lp4250
S'd'
asg18
S'N'
sS'.thisRepN'
p4251
I48
sg26
S'Y'
sg20
S'Y'
sg32
g33
sS'.thisTrialN'
p4252
I10
sS'.thisN'
p4253
I538
sg25
S'Y'
sg15
(lp4254
S'k'
asg30
g31
sg17
S'Y'
sg14
I11
sg19
Nsg95
I0
sS'.thisIndex'
p4255
I0
sa(dp4256
g16
(lp4257
S'k'
asg18
S'N'
sS'.thisRepN'
p4258
I49
sg26
S'Y'
sg20
S'Y'
sg32
g33
sS'.thisTrialN'
p4259
I0
sS'.thisN'
p4260
I539
sg25
S'Y'
sg15
(lp4261
S'k'
asg30
g31
sg17
S'N'
sg14
I11
sg19
Nsg95
I5
sS'.thisIndex'
p4262
I5
sa(dp4263
g16
(lp4264
S'd'
asg18
S'N'
sS'.thisRepN'
p4265
I49
sg26
S'Y'
sg20
S'Y'
sg32
g33
sS'.thisTrialN'
p4266
I1
sS'.thisN'
p4267
I540
sg25
S'Y'
sg15
(lp4268
S'd'
asg30
g31
sg17
S'N'
sg14
I11
sg19
Nsg95
I1
sS'.thisIndex'
p4269
I1
sa(dp4270
g16
(lp4271
S'd'
asg18
S'N'
sS'.thisRepN'
p4272
I49
sg26
S'Y'
sg20
S'Y'
sg32
g33
sS'.thisTrialN'
p4273
I2
sS'.thisN'
p4274
I541
sg25
S'Y'
sg15
(lp4275
S'k'
asg30
g31
sg17
S'Y'
sg14
I11
sg19
Nsg95
I5
sS'.thisIndex'
p4276
I5
sa(dp4277
g16
(lp4278
S'k'
asg18
S'N'
sS'.thisRepN'
p4279
I49
sg26
S'Y'
sg20
S'Y'
sg32
g33
sS'.thisTrialN'
p4280
I3
sS'.thisN'
p4281
I542
sg25
S'Y'
sg15
(lp4282
S'd'
asg30
g31
sg17
S'Y'
sg14
I11
sg19
Nsg95
I0
sS'.thisIndex'
p4283
I0
sa(dp4284
g16
(lp4285
S'k'
asg18
S'Y'
sS'.thisRepN'
p4286
I49
sg26
S'Y'
sg20
S'Y'
sg32
g33
sS'.thisTrialN'
p4287
I4
sS'.thisN'
p4288
I543
sg25
S'Y'
sg15
(lp4289
S'k'
asg30
g31
sg17
S'N'
sg14
I11
sg19
(lp4290
S'space'
p4291
asg95
I0
sS'.thisIndex'
p4292
I0
sa(dp4293
g16
(lp4294
S'k'
asg18
S'N'
sS'.thisRepN'
p4295
I49
sg26
S'Y'
sg20
S'Y'
sg32
g33
sS'.thisTrialN'
p4296
I5
sS'.thisN'
p4297
I544
sg25
S'Y'
sg15
(lp4298
S'k'
asg30
g31
sg17
S'N'
sg14
I11
sg19
Nsg95
I5
sS'.thisIndex'
p4299
I5
sa(dp4300
g16
(lp4301
S'd'
asg18
S'N'
sS'.thisRepN'
p4302
I49
sg26
S'Y'
sg20
S'Y'
sg32
g33
sS'.thisTrialN'
p4303
I6
sS'.thisN'
p4304
I545
sg25
S'Y'
sg15
(lp4305
S'k'
asg30
g31
sg17
S'Y'
sg14
I11
sg19
Nsg95
I6
sS'.thisIndex'
p4306
I6
sa(dp4307
g16
(lp4308
S'd'
asg18
S'Y'
sS'.thisRepN'
p4309
I49
sg26
S'Y'
sg20
S'Y'
sg32
g33
sS'.thisTrialN'
p4310
I7
sS'.thisN'
p4311
I546
sg25
S'Y'
sg15
(lp4312
S'k'
asg30
g31
sg17
S'Y'
sg14
I11
sg19
(lp4313
S'space'
p4314
asg95
I2
sS'.thisIndex'
p4315
I2
sa(dp4316
g16
(lp4317
S'k'
asg18
S'N'
sS'.thisRepN'
p4318
I49
sg26
S'Y'
sg20
S'Y'
sg32
g33
sS'.thisTrialN'
p4319
I8
sS'.thisN'
p4320
I547
sg25
S'Y'
sg15
(lp4321
S'k'
asg30
g31
sg17
S'N'
sg14
I11
sg19
Nsg95
I10
sS'.thisIndex'
p4322
I10
sa(dp4323
g16
(lp4324
S'k'
asg18
S'Y'
sS'.thisRepN'
p4325
I49
sg26
S'Y'
sg20
S'Y'
sg32
g33
sS'.thisTrialN'
p4326
I9
sS'.thisN'
p4327
I548
sg25
S'Y'
sg15
(lp4328
S'd'
asg30
g31
sg17
S'Y'
sg14
I11
sg19
(lp4329
S'space'
p4330
asg95
I3
sS'.thisIndex'
p4331
I3
sa(dp4332
g16
(lp4333
S'd'
asg18
S'N'
sg22
I32
sg26
S'Y'
sS'.thisN'
p4334
I549
sg20
S'N'
sg32
g33
sS'.thisTrialN'
p4335
I10
sS'.thisRepN'
p4336
I49
sg21
I35
sg25
S'Y'
sg23
I21
sg15
(lp4337
S'k'
asg30
g31
sg17
S'Y'
sg14
I11
sg19
(lp4338
S'space'
p4339
asg95
I10
sS'.thisIndex'
p4340
I10
sa(dp4341
g16
(lp4342
S'k'
asS'.thisIndex'
p4343
I4
sS'.thisRepN'
p4344
I50
sg26
S'Y'
sg30
g31
sg32
g33
sS'.thisTrialN'
p4345
I0
sS'.thisN'
p4346
I550
sg25
S'Y'
sg15
(lp4347
S'k'
asg17
S'N'
sg14
I12
sg95
I4
sa(dp4348
g16
(lp4349
S'k'
asS'.thisIndex'
p4350
I2
sS'.thisRepN'
p4351
I50
sg26
S'Y'
sg30
g31
sg32
g33
sS'.thisTrialN'
p4352
I1
sS'.thisN'
p4353
I551
sg25
S'Y'
sg15
(lp4354
S'd'
asg17
S'Y'
sg14
I12
sg95
I2
sa(dp4355
g16
(lp4356
S'k'
asg18
S'N'
sS'.thisRepN'
p4357
I50
sg26
S'Y'
sg20
S'Y'
sg32
g33
sS'.thisTrialN'
p4358
I2
sS'.thisN'
p4359
I552
sg25
S'Y'
sg15
(lp4360
S'd'
asg30
g31
sg17
S'Y'
sg14
I12
sg19
Nsg95
I4
sS'.thisIndex'
p4361
I4
sa(dp4362
g16
(lp4363
S'k'
asg18
S'N'
sS'.thisRepN'
p4364
I50
sg26
S'Y'
sg20
S'Y'
sg32
g33
sS'.thisTrialN'
p4365
I3
sS'.thisN'
p4366
I553
sg25
S'Y'
sg15
(lp4367
S'd'
asg30
g31
sg17
S'Y'
sg14
I12
sg19
Nsg95
I8
sS'.thisIndex'
p4368
I8
sa(dp4369
g16
(lp4370
S'k'
asg18
S'N'
sS'.thisRepN'
p4371
I50
sg26
S'Y'
sg20
S'Y'
sg32
g33
sS'.thisTrialN'
p4372
I4
sS'.thisN'
p4373
I554
sg25
S'Y'
sg15
(lp4374
S'd'
asg30
g31
sg17
S'Y'
sg14
I12
sg19
Nsg95
I9
sS'.thisIndex'
p4375
I9
sa(dp4376
g16
(lp4377
S'k'
asg18
S'Y'
sS'.thisRepN'
p4378
I50
sg26
S'Y'
sg20
S'Y'
sg32
g33
sS'.thisTrialN'
p4379
I5
sS'.thisN'
p4380
I555
sg25
S'Y'
sg15
(lp4381
S'd'
asg30
g31
sg17
S'Y'
sg14
I12
sg19
(lp4382
S'space'
p4383
asg95
I6
sS'.thisIndex'
p4384
I6
sa(dp4385
g16
(lp4386
S'k'
asg18
S'Y'
sS'.thisRepN'
p4387
I50
sg26
S'Y'
sg20
S'Y'
sg32
g33
sS'.thisTrialN'
p4388
I6
sS'.thisN'
p4389
I556
sg25
S'Y'
sg15
(lp4390
S'd'
asg30
g31
sg17
S'Y'
sg14
I12
sg19
(lp4391
S'space'
p4392
asg95
I8
sS'.thisIndex'
p4393
I8
sa(dp4394
g16
(lp4395
S'k'
asg18
S'N'
sS'.thisRepN'
p4396
I50
sg26
S'Y'
sg20
S'Y'
sg32
g33
sS'.thisTrialN'
p4397
I7
sS'.thisN'
p4398
I557
sg25
S'Y'
sg15
(lp4399
S'k'
asg30
g31
sg17
S'N'
sg14
I12
sg19
Nsg95
I7
sS'.thisIndex'
p4400
I7
sa(dp4401
g16
(lp4402
S'k'
asg18
S'Y'
sS'.thisRepN'
p4403
I50
sg26
S'Y'
sg20
S'N'
sg32
g33
sS'.thisTrialN'
p4404
I8
sS'.thisN'
p4405
I558
sg25
S'Y'
sg15
(lp4406
S'd'
asg30
g31
sg17
S'Y'
sg14
I12
sg19
Nsg95
I5
sS'.thisIndex'
p4407
I5
sa(dp4408
g16
(lp4409
S'd'
asg18
S'Y'
sS'.thisRepN'
p4410
I50
sg26
S'Y'
sg20
S'Y'
sg32
g33
sS'.thisTrialN'
p4411
I9
sS'.thisN'
p4412
I559
sg25
S'Y'
sg15
(lp4413
S'k'
asg30
g31
sg17
S'Y'
sg14
I12
sg19
(lp4414
S'space'
p4415
asg95
I2
sS'.thisIndex'
p4416
I2
sa(dp4417
g16
(lp4418
S'd'
asg18
S'Y'
sS'.thisRepN'
p4419
I50
sg26
S'Y'
sg20
S'N'
sg32
g33
sS'.thisTrialN'
p4420
I10
sS'.thisN'
p4421
I560
sg25
S'Y'
sg15
(lp4422
S'd'
asg30
g31
sg17
S'N'
sg14
I12
sg19
(lp4423
S'd'
asg95
I2
sS'.thisIndex'
p4424
I2
sa(dp4425
g16
(lp4426
S'd'
asg18
S'N'
sS'.thisRepN'
p4427
I51
sg26
S'Y'
sg20
S'Y'
sg32
g33
sS'.thisTrialN'
p4428
I0
sS'.thisN'
p4429
I561
sg25
S'Y'
sg15
(lp4430
S'k'
asg30
g31
sg17
S'Y'
sg14
I12
sg19
Nsg95
I0
sS'.thisIndex'
p4431
I0
sa(dp4432
g16
(lp4433
S'd'
asg18
S'N'
sS'.thisRepN'
p4434
I51
sg26
S'Y'
sg20
S'N'
sg32
g33
sS'.thisTrialN'
p4435
I1
sS'.thisN'
p4436
I562
sg25
S'Y'
sg15
(lp4437
S'k'
asg30
g31
sg17
S'Y'
sg14
I12
sg19
(lp4438
S'd'
asg95
I3
sS'.thisIndex'
p4439
I3
sa(dp4440
g16
(lp4441
S'k'
asg18
S'N'
sS'.thisRepN'
p4442
I51
sg26
S'Y'
sg20
S'Y'
sg32
g33
sS'.thisTrialN'
p4443
I2
sS'.thisN'
p4444
I563
sg25
S'Y'
sg15
(lp4445
S'd'
asg30
g31
sg17
S'Y'
sg14
I12
sg19
Nsg95
I3
sS'.thisIndex'
p4446
I3
sa(dp4447
g16
(lp4448
S'k'
asg18
S'N'
sS'.thisRepN'
p4449
I51
sg26
S'Y'
sg20
S'Y'
sg32
g33
sS'.thisTrialN'
p4450
I3
sS'.thisN'
p4451
I564
sg25
S'Y'
sg15
(lp4452
S'd'
asg30
g31
sg17
S'Y'
sg14
I12
sg19
Nsg95
I3
sS'.thisIndex'
p4453
I3
sa(dp4454
g16
(lp4455
S'k'
asg18
S'N'
sS'.thisRepN'
p4456
I51
sg26
S'Y'
sg20
S'Y'
sg32
g33
sS'.thisTrialN'
p4457
I4
sS'.thisN'
p4458
I565
sg25
S'Y'
sg15
(lp4459
S'k'
asg30
g31
sg17
S'N'
sg14
I12
sg19
Nsg95
I6
sS'.thisIndex'
p4460
I6
sa(dp4461
g16
(lp4462
S'k'
asg18
S'Y'
sS'.thisRepN'
p4463
I51
sg26
S'Y'
sg20
S'Y'
sg32
g33
sS'.thisTrialN'
p4464
I5
sS'.thisN'
p4465
I566
sg25
S'Y'
sg15
(lp4466
S'd'
asg30
g31
sg17
S'Y'
sg14
I12
sg19
(lp4467
S'space'
p4468
asg95
I1
sS'.thisIndex'
p4469
I1
sa(dp4470
g16
(lp4471
S'd'
asg18
S'N'
sS'.thisRepN'
p4472
I51
sg26
S'Y'
sg20
S'Y'
sg32
g33
sS'.thisTrialN'
p4473
I6
sS'.thisN'
p4474
I567
sg25
S'Y'
sg15
(lp4475
S'd'
asg30
g31
sg17
S'N'
sg14
I12
sg19
Nsg95
I2
sS'.thisIndex'
p4476
I2
sa(dp4477
g16
(lp4478
S'd'
asg18
S'Y'
sS'.thisRepN'
p4479
I51
sg26
S'Y'
sg20
S'N'
sg32
g33
sS'.thisTrialN'
p4480
I7
sS'.thisN'
p4481
I568
sg25
S'Y'
sg15
(lp4482
S'k'
asg30
g31
sg17
S'Y'
sg14
I12
sg19
Nsg95
I7
sS'.thisIndex'
p4483
I7
sa(dp4484
g16
(lp4485
S'k'
asg18
S'N'
sS'.thisRepN'
p4486
I51
sg26
S'Y'
sg20
S'N'
sg32
g33
sS'.thisTrialN'
p4487
I8
sS'.thisN'
p4488
I569
sg25
S'Y'
sg15
(lp4489
S'd'
asg30
g31
sg17
S'Y'
sg14
I12
sg19
(lp4490
S'k'
asg95
I9
sS'.thisIndex'
p4491
I9
sa(dp4492
g16
(lp4493
S'd'
asg18
S'N'
sS'.thisRepN'
p4494
I51
sg26
S'Y'
sg20
S'N'
sg32
g33
sS'.thisTrialN'
p4495
I9
sS'.thisN'
p4496
I570
sg25
S'Y'
sg15
(lp4497
S'd'
asg30
g31
sg17
S'N'
sg14
I12
sg19
(lp4498
S'k'
asg95
I8
sS'.thisIndex'
p4499
I8
sa(dp4500
g16
(lp4501
S'd'
asg18
S'N'
sS'.thisRepN'
p4502
I51
sg26
S'Y'
sg20
S'Y'
sg32
g33
sS'.thisTrialN'
p4503
I10
sS'.thisN'
p4504
I571
sg25
S'Y'
sg15
(lp4505
S'd'
asg30
g31
sg17
S'N'
sg14
I12
sg19
Nsg95
I5
sS'.thisIndex'
p4506
I5
sa(dp4507
g16
(lp4508
S'k'
asg18
S'Y'
sS'.thisRepN'
p4509
I52
sg26
S'Y'
sg20
S'N'
sg32
g33
sS'.thisTrialN'
p4510
I0
sS'.thisN'
p4511
I572
sg25
S'Y'
sg15
(lp4512
S'd'
asg30
g31
sg17
S'Y'
sg14
I12
sg19
Nsg95
I2
sS'.thisIndex'
p4513
I2
sa(dp4514
g16
(lp4515
S'd'
asg18
S'Y'
sS'.thisRepN'
p4516
I52
sg26
S'Y'
sg20
S'N'
sg32
g33
sS'.thisTrialN'
p4517
I1
sS'.thisN'
p4518
I573
sg25
S'Y'
sg15
(lp4519
S'k'
asg30
g31
sg17
S'Y'
sg14
I12
sg19
Nsg95
I5
sS'.thisIndex'
p4520
I5
sa(dp4521
g16
(lp4522
S'd'
asg18
S'N'
sS'.thisRepN'
p4523
I52
sg26
S'Y'
sg20
S'Y'
sg32
g33
sS'.thisTrialN'
p4524
I2
sS'.thisN'
p4525
I574
sg25
S'Y'
sg15
(lp4526
S'd'
asg30
g31
sg17
S'N'
sg14
I12
sg19
Nsg95
I3
sS'.thisIndex'
p4527
I3
sa(dp4528
g16
(lp4529
S'd'
asg18
S'Y'
sS'.thisRepN'
p4530
I52
sg26
S'Y'
sg20
S'Y'
sg32
g33
sS'.thisTrialN'
p4531
I3
sS'.thisN'
p4532
I575
sg25
S'Y'
sg15
(lp4533
S'k'
asg30
g31
sg17
S'Y'
sg14
I12
sg19
(lp4534
S'space'
p4535
asg95
I7
sS'.thisIndex'
p4536
I7
sa(dp4537
g16
(lp4538
S'k'
asg18
S'N'
sS'.thisRepN'
p4539
I52
sg26
S'Y'
sg20
S'Y'
sg32
g33
sS'.thisTrialN'
p4540
I4
sS'.thisN'
p4541
I576
sg25
S'Y'
sg15
(lp4542
S'k'
asg30
g31
sg17
S'N'
sg14
I12
sg19
Nsg95
I0
sS'.thisIndex'
p4543
I0
sa(dp4544
g16
(lp4545
S'd'
asg18
S'N'
sS'.thisRepN'
p4546
I52
sg26
S'Y'
sg20
S'Y'
sg32
g33
sS'.thisTrialN'
p4547
I5
sS'.thisN'
p4548
I577
sg25
S'Y'
sg15
(lp4549
S'k'
asg30
g31
sg17
S'Y'
sg14
I12
sg19
Nsg95
I6
sS'.thisIndex'
p4550
I6
sa(dp4551
g16
(lp4552
S'd'
asg18
S'Y'
sS'.thisRepN'
p4553
I52
sg26
S'Y'
sg20
S'Y'
sg32
g33
sS'.thisTrialN'
p4554
I6
sS'.thisN'
p4555
I578
sg25
S'Y'
sg15
(lp4556
S'k'
asg30
g31
sg17
S'Y'
sg14
I12
sg19
(lp4557
S'space'
p4558
asg95
I5
sS'.thisIndex'
p4559
I5
sa(dp4560
g16
(lp4561
S'k'
asg18
S'Y'
sS'.thisRepN'
p4562
I52
sg26
S'Y'
sg20
S'Y'
sg32
g33
sS'.thisTrialN'
p4563
I7
sS'.thisN'
p4564
I579
sg25
S'Y'
sg15
(lp4565
S'k'
asg30
g31
sg17
S'N'
sg14
I12
sg19
(lp4566
S'space'
p4567
asg95
I1
sS'.thisIndex'
p4568
I1
sa(dp4569
g16
(lp4570
S'k'
asg18
S'Y'
sS'.thisRepN'
p4571
I52
sg26
S'Y'
sg20
S'Y'
sg32
g33
sS'.thisTrialN'
p4572
I8
sS'.thisN'
p4573
I580
sg25
S'Y'
sg15
(lp4574
S'k'
asg30
g31
sg17
S'N'
sg14
I12
sg19
(lp4575
S'space'
p4576
asg95
I0
sS'.thisIndex'
p4577
I0
sa(dp4578
g16
(lp4579
S'd'
asg18
S'N'
sS'.thisRepN'
p4580
I52
sg26
S'Y'
sg20
S'Y'
sg32
g33
sS'.thisTrialN'
p4581
I9
sS'.thisN'
p4582
I581
sg25
S'Y'
sg15
(lp4583
S'k'
asg30
g31
sg17
S'Y'
sg14
I12
sg19
Nsg95
I4
sS'.thisIndex'
p4584
I4
sa(dp4585
g16
(lp4586
S'd'
asg18
S'Y'
sS'.thisRepN'
p4587
I52
sg26
S'Y'
sg20
S'N'
sg32
g33
sS'.thisTrialN'
p4588
I10
sS'.thisN'
p4589
I582
sg25
S'Y'
sg15
(lp4590
S'k'
asg30
g31
sg17
S'Y'
sg14
I12
sg19
Nsg95
I8
sS'.thisIndex'
p4591
I8
sa(dp4592
g16
(lp4593
S'k'
asg18
S'Y'
sS'.thisRepN'
p4594
I53
sg26
S'Y'
sg20
S'N'
sg32
g33
sS'.thisTrialN'
p4595
I0
sS'.thisN'
p4596
I583
sg25
S'Y'
sg15
(lp4597
S'k'
asg30
g31
sg17
S'N'
sg14
I12
sg19
Nsg95
I6
sS'.thisIndex'
p4598
I6
sa(dp4599
g16
(lp4600
S'k'
asg18
S'Y'
sS'.thisRepN'
p4601
I53
sg26
S'Y'
sg20
S'N'
sg32
g33
sS'.thisTrialN'
p4602
I1
sS'.thisN'
p4603
I584
sg25
S'Y'
sg15
(lp4604
S'd'
asg30
g31
sg17
S'Y'
sg14
I12
sg19
Nsg95
I4
sS'.thisIndex'
p4605
I4
sa(dp4606
g16
(lp4607
S'k'
asg18
S'N'
sS'.thisRepN'
p4608
I53
sg26
S'Y'
sg20
S'Y'
sg32
g33
sS'.thisTrialN'
p4609
I2
sS'.thisN'
p4610
I585
sg25
S'Y'
sg15
(lp4611
S'k'
asg30
g31
sg17
S'N'
sg14
I12
sg19
Nsg95
I7
sS'.thisIndex'
p4612
I7
sa(dp4613
g16
(lp4614
S'd'
asg18
S'Y'
sS'.thisRepN'
p4615
I53
sg26
S'Y'
sg20
S'N'
sg32
g33
sS'.thisTrialN'
p4616
I3
sS'.thisN'
p4617
I586
sg25
S'Y'
sg15
(lp4618
S'k'
asg30
g31
sg17
S'Y'
sg14
I12
sg19
Nsg95
I4
sS'.thisIndex'
p4619
I4
sa(dp4620
g16
(lp4621
S'd'
asg18
S'N'
sS'.thisRepN'
p4622
I53
sg26
S'Y'
sg20
S'Y'
sg32
g33
sS'.thisTrialN'
p4623
I4
sS'.thisN'
p4624
I587
sg25
S'Y'
sg15
(lp4625
S'k'
asg30
g31
sg17
S'Y'
sg14
I12
sg19
Nsg95
I3
sS'.thisIndex'
p4626
I3
sa(dp4627
g16
(lp4628
S'k'
asg18
S'N'
sS'.thisRepN'
p4629
I53
sg26
S'Y'
sg20
S'Y'
sg32
g33
sS'.thisTrialN'
p4630
I5
sS'.thisN'
p4631
I588
sg25
S'Y'
sg15
(lp4632
S'd'
asg30
g31
sg17
S'Y'
sg14
I12
sg19
Nsg95
I4
sS'.thisIndex'
p4633
I4
sa(dp4634
g16
(lp4635
S'k'
asg18
S'Y'
sS'.thisRepN'
p4636
I53
sg26
S'Y'
sg20
S'N'
sg32
g33
sS'.thisTrialN'
p4637
I6
sS'.thisN'
p4638
I589
sg25
S'Y'
sg15
(lp4639
S'd'
asg30
g31
sg17
S'Y'
sg14
I12
sg19
Nsg95
I9
sS'.thisIndex'
p4640
I9
sa(dp4641
g16
(lp4642
S'd'
asg18
S'Y'
sS'.thisRepN'
p4643
I53
sg26
S'Y'
sg20
S'Y'
sg32
g33
sS'.thisTrialN'
p4644
I7
sS'.thisN'
p4645
I590
sg25
S'Y'
sg15
(lp4646
S'k'
asg30
g31
sg17
S'Y'
sg14
I12
sg19
(lp4647
S'space'
p4648
asg95
I1
sS'.thisIndex'
p4649
I1
sa(dp4650
g16
(lp4651
S'k'
asg18
S'Y'
sS'.thisRepN'
p4652
I53
sg26
S'Y'
sg20
S'N'
sg32
g33
sS'.thisTrialN'
p4653
I8
sS'.thisN'
p4654
I591
sg25
S'Y'
sg15
(lp4655
S'd'
asg30
g31
sg17
S'Y'
sg14
I12
sg19
(lp4656
S'd'
asg95
I8
sS'.thisIndex'
p4657
I8
sa(dp4658
g16
(lp4659
S'd'
asg18
S'N'
sS'.thisRepN'
p4660
I53
sg26
S'Y'
sg20
S'Y'
sg32
g33
sS'.thisTrialN'
p4661
I9
sS'.thisN'
p4662
I592
sg25
S'Y'
sg15
(lp4663
S'd'
asg30
g31
sg17
S'N'
sg14
I12
sg19
Nsg95
I9
sS'.thisIndex'
p4664
I9
sa(dp4665
g16
(lp4666
S'k'
asg18
S'Y'
sS'.thisRepN'
p4667
I53
sg26
S'Y'
sg20
S'N'
sg32
g33
sS'.thisTrialN'
p4668
I10
sS'.thisN'
p4669
I593
sg25
S'Y'
sg15
(lp4670
S'd'
asg30
g31
sg17
S'Y'
sg14
I12
sg19
Nsg95
I5
sS'.thisIndex'
p4671
I5
sa(dp4672
g16
(lp4673
S'k'
asg18
S'N'
sS'.thisRepN'
p4674
I54
sg26
S'Y'
sg20
S'Y'
sg32
g33
sS'.thisTrialN'
p4675
I0
sS'.thisN'
p4676
I594
sg25
S'Y'
sg15
(lp4677
S'k'
asg30
g31
sg17
S'N'
sg14
I12
sg19
Nsg95
I10
sS'.thisIndex'
p4678
I10
sa(dp4679
g16
(lp4680
S'k'
asg18
S'Y'
sS'.thisRepN'
p4681
I54
sg26
S'Y'
sg20
S'Y'
sg32
g33
sS'.thisTrialN'
p4682
I1
sS'.thisN'
p4683
I595
sg25
S'Y'
sg15
(lp4684
S'd'
asg30
g31
sg17
S'Y'
sg14
I12
sg19
(lp4685
S'space'
p4686
asg95
I3
sS'.thisIndex'
p4687
I3
sa(dp4688
g16
(lp4689
S'k'
asg18
S'N'
sS'.thisRepN'
p4690
I54
sg26
S'Y'
sg20
S'Y'
sg32
g33
sS'.thisTrialN'
p4691
I2
sS'.thisN'
p4692
I596
sg25
S'Y'
sg15
(lp4693
S'k'
asg30
g31
sg17
S'N'
sg14
I12
sg19
Nsg95
I0
sS'.thisIndex'
p4694
I0
sa(dp4695
g16
(lp4696
S'd'
asg18
S'Y'
sS'.thisRepN'
p4697
I54
sg26
S'Y'
sg20
S'Y'
sg32
g33
sS'.thisTrialN'
p4698
I3
sS'.thisN'
p4699
I597
sg25
S'Y'
sg15
(lp4700
S'd'
asg30
g31
sg17
S'N'
sg14
I12
sg19
(lp4701
S'space'
p4702
asg95
I0
sS'.thisIndex'
p4703
I0
sa(dp4704
g16
(lp4705
S'd'
asg18
S'N'
sS'.thisRepN'
p4706
I54
sg26
S'Y'
sg20
S'Y'
sg32
g33
sS'.thisTrialN'
p4707
I4
sS'.thisN'
p4708
I598
sg25
S'Y'
sg15
(lp4709
S'k'
asg30
g31
sg17
S'Y'
sg14
I12
sg19
Nsg95
I3
sS'.thisIndex'
p4710
I3
sa(dp4711
g16
(lp4712
S'k'
asg18
S'Y'
sg22
I33
sg26
S'Y'
sS'.thisN'
p4713
I599
sg20
S'Y'
sg32
g33
sS'.thisTrialN'
p4714
I5
sS'.thisRepN'
p4715
I54
sg21
I33
sg25
S'Y'
sg23
I24
sg15
(lp4716
S'd'
asg30
g31
sg17
S'Y'
sg14
I12
sg19
(lp4717
S'space'
p4718
asg95
I4
sS'.thisIndex'
p4719
I4
sasS'loops'
p4720
(lp4721
g1
(g36
g3
NtRp4722
(dp4723
g39
Nsg40
(lp4724
sg41
I80728208
sg10
S''
sg6
g42
sg43
I1
sg27
I01
sg28
Nsg44
g1
(g45
g46
(dp4725
g48
g49
(g50
g51
g52
S'b'
tRp4726
(I1
(I600
I1
tg55
I00
S'\x00\x00\x80?\x00\x00\x80?\x00\x00\x80?\x00\x00\x80?\x00\x00\x80?\x00\x00\x80?\x00\x00\x80?\x00\x00\x80?\x00\x00\x80?\x00\x00\x80?\x00\x00\x80?\x00\x00\x80?\x00\x00\x80?\x00\x00\x80?\x00\x00\x80?\x00\x00\x80?\x00\x00\x80?\x00\x00\x80?\x00\x00\x80?\x00\x00\x80?\x00\x00\x80?\x00\x00\x80?\x00\x00\x80?\x00\x00\x80?\x00\x00\x80?\x00\x00\x80?\x00\x00\x80?\x00\x00\x80?\x00\x00\x80?\x00\x00\x80?\x00\x00\x80?\x00\x00\x80?\x00\x00\x80?\x00\x00\x80?\x00\x00\x80?\x00\x00\x80?\x00\x00\x80?\x00\x00\x80?\x00\x00\x80?\x00\x00\x80?\x00\x00\x80?\x00\x00\x80?\x00\x00\x80?\x00\x00\x80?\x00\x00\x80?\x00\x00\x80?\x00\x00\x80?\x00\x00\x80?\x00\x00\x80?\x00\x00\x80?\x00\x00\x80?\x00\x00\x80?\x00\x00\x80?\x00\x00\x80?\x00\x00\x80?\x00\x00\x80?\x00\x00\x80?\x00\x00\x80?\x00\x00\x80?\x00\x00\x80?\x00\x00\x80?\x00\x00\x80?\x00\x00\x80?\x00\x00\x80?\x00\x00\x80?\x00\x00\x80?\x00\x00\x80?\x00\x00\x80?\x00\x00\x80?\x00\x00\x80?\x00\x00\x80?\x00\x00\x80?\x00\x00\x80?\x00\x00\x80?\x00\x00\x80?\x00\x00\x80?\x00\x00\x80?\x00\x00\x80?\x00\x00\x80?\x00\x00\x80?\x00\x00\x80?\x00\x00\x80?\x00\x00\x80?\x00\x00\x80?\x00\x00\x80?\x00\x00\x80?\x00\x00\x80?\x00\x00\x80?\x00\x00\x80?\x00\x00\x80?\x00\x00\x80?\x00\x00\x80?\x00\x00\x80?\x00\x00\x80?\x00\x00\x80?\x00\x00\x80?\x00\x00\x80?\x00\x00\x80?\x00\x00\x80?\x00\x00\x80?\x00\x00\x80?\x00\x00\x80?\x00\x00\x80?\x00\x00\x80?\x00\x00\x80?\x00\x00\x80?\x00\x00\x80?\x00\x00\x80?\x00\x00\x80?\x00\x00\x80?\x00\x00\x80?\x00\x00\x80?\x00\x00\x80?\x00\x00\x80?\x00\x00\x80?\x00\x00\x80?\x00\x00\x80?\x00\x00\x80?\x00\x00\x80?\x00\x00\x80?\x00\x00\x80?\x00\x00\x80?\x00\x00\x80?\x00\x00\x80?\x00\x00\x80?\x00\x00\x80?\x00\x00\x80?\x00\x00\x80?\x00\x00\x80?\x00\x00\x80?\x00\x00\x80?\x00\x00\x80?\x00\x00\x80?\x00\x00\x80?\x00\x00\x80?\x00\x00\x80?\x00\x00\x80?\x00\x00\x80?\x00\x00\x80?\x00\x00\x80?\x00\x00\x80?\x00\x00\x80?\x00\x00\x80?\x00\x00\x80?\x00\x00\x80?\x00\x00\x80?\x00\x00\x80?\x00\x00\x80?\x00\x00\x80?\x00\x00\x80?\x00\x00\x80?\x00\x00\x80?\x00\x00\x80?\x00\x00\x80?\x00\x00\x80?\x00\x00\x80?\x00\x00\x80?\x00\x00\x80?\x00\x00\x80?\x00\x00\x80?\x00\x00\x80?\x00\x00\x80?\x00\x00\x80?\x00\x00\x80?\x00\x00\x80?\x00\x00\x80?\x00\x00\x80?\x00\x00\x80?\x00\x00\x80?\x00\x00\x80?\x00\x00\x80?\x00\x00\x80?\x00\x00\x80?\x00\x00\x80?\x00\x00\x80?\x00\x00\x80?\x00\x00\x80?\x00\x00\x80?\x00\x00\x80?\x00\x00\x80?\x00\x00\x80?\x00\x00\x80?\x00\x00\x80?\x00\x00\x80?\x00\x00\x80?\x00\x00\x80?\x00\x00\x80?\x00\x00\x80?\x00\x00\x80?\x00\x00\x80?\x00\x00\x80?\x00\x00\x80?\x00\x00\x80?\x00\x00\x80?\x00\x00\x80?\x00\x00\x80?\x00\x00\x80?\x00\x00\x80?\x00\x00\x80?\x00\x00\x80?\x00\x00\x80?\x00\x00\x80?\x00\x00\x80?\x00\x00\x80?\x00\x00\x80?\x00\x00\x80?\x00\x00\x80?\x00\x00\x80?\x00\x00\x80?\x00\x00\x80?\x00\x00\x80?\x00\x00\x80?\x00\x00\x80?\x00\x00\x80?\x00\x00\x80?\x00\x00\x80?\x00\x00\x80?\x00\x00\x80?\x00\x00\x80?\x00\x00\x80?\x00\x00\x80?\x00\x00\x80?\x00\x00\x80?\x00\x00\x80?\x00\x00\x80?\x00\x00\x80?\x00\x00\x80?\x00\x00\x80?\x00\x00\x80?\x00\x00\x80?\x00\x00\x80?\x00\x00\x80?\x00\x00\x80?\x00\x00\x80?\x00\x00\x80?\x00\x00\x80?\x00\x00\x80?\x00\x00\x80?\x00\x00\x80?\x00\x00\x80?\x00\x00\x80?\x00\x00\x80?\x00\x00\x80?\x00\x00\x80?\x00\x00\x80?\x00\x00\x80?\x00\x00\x80?\x00\x00\x80?\x00\x00\x80?\x00\x00\x80?\x00\x00\x80?\x00\x00\x80?\x00\x00\x80?\x00\x00\x80?\x00\x00\x80?\x00\x00\x80?\x00\x00\x80?\x00\x00\x80?\x00\x00\x80?\x00\x00\x80?\x00\x00\x80?\x00\x00\x80?\x00\x00\x80?\x00\x00\x80?\x00\x00\x80?\x00\x00\x80?\x00\x00\x80?\x00\x00\x80?\x00\x00\x80?\x00\x00\x80?\x00\x00\x80?\x00\x00\x80?\x00\x00\x80?\x00\x00\x80?\x00\x00\x80?\x00\x00\x80?\x00\x00\x80?\x00\x00\x80?\x00\x00\x80?\x00\x00\x80?\x00\x00\x80?\x00\x00\x80?\x00\x00\x80?\x00\x00\x80?\x00\x00\x80?\x00\x00\x80?\x00\x00\x80?\x00\x00\x80?\x00\x00\x80?\x00\x00\x80?\x00\x00\x80?\x00\x00\x80?\x00\x00\x80?\x00\x00\x80?\x00\x00\x80?\x00\x00\x80?\x00\x00\x80?\x00\x00\x80?\x00\x00\x80?\x00\x00\x80?\x00\x00\x80?\x00\x00\x80?\x00\x00\x80?\x00\x00\x80?\x00\x00\x80?\x00\x00\x80?\x00\x00\x80?\x00\x00\x80?\x00\x00\x80?\x00\x00\x80?\x00\x00\x80?\x00\x00\x80?\x00\x00\x80?\x00\x00\x80?\x00\x00\x80?\x00\x00\x80?\x00\x00\x80?\x00\x00\x80?\x00\x00\x80?\x00\x00\x80?\x00\x00\x80?\x00\x00\x80?\x00\x00\x80?\x00\x00\x80?\x00\x00\x80?\x00\x00\x80?\x00\x00\x80?\x00\x00\x80?\x00\x00\x80?\x00\x00\x80?\x00\x00\x80?\x00\x00\x80?\x00\x00\x80?\x00\x00\x80?\x00\x00\x80?\x00\x00\x80?\x00\x00\x80?\x00\x00\x80?\x00\x00\x80?\x00\x00\x80?\x00\x00\x80?\x00\x00\x80?\x00\x00\x80?\x00\x00\x80?\x00\x00\x80?\x00\x00\x80?\x00\x00\x80?\x00\x00\x80?\x00\x00\x80?\x00\x00\x80?\x00\x00\x80?\x00\x00\x80?\x00\x00\x80?\x00\x00\x80?\x00\x00\x80?\x00\x00\x80?\x00\x00\x80?\x00\x00\x80?\x00\x00\x80?\x00\x00\x80?\x00\x00\x80?\x00\x00\x80?\x00\x00\x80?\x00\x00\x80?\x00\x00\x80?\x00\x00\x80?\x00\x00\x80?\x00\x00\x80?\x00\x00\x80?\x00\x00\x80?\x00\x00\x80?\x00\x00\x80?\x00\x00\x80?\x00\x00\x80?\x00\x00\x80?\x00\x00\x80?\x00\x00\x80?\x00\x00\x80?\x00\x00\x80?\x00\x00\x80?\x00\x00\x80?\x00\x00\x80?\x00\x00\x80?\x00\x00\x80?\x00\x00\x80?\x00\x00\x80?\x00\x00\x80?\x00\x00\x80?\x00\x00\x80?\x00\x00\x80?\x00\x00\x80?\x00\x00\x80?\x00\x00\x80?\x00\x00\x80?\x00\x00\x80?\x00\x00\x80?\x00\x00\x80?\x00\x00\x80?\x00\x00\x80?\x00\x00\x80?\x00\x00\x80?\x00\x00\x80?\x00\x00\x80?\x00\x00\x80?\x00\x00\x80?\x00\x00\x80?\x00\x00\x80?\x00\x00\x80?\x00\x00\x80?\x00\x00\x80?\x00\x00\x80?\x00\x00\x80?\x00\x00\x80?\x00\x00\x80?\x00\x00\x80?\x00\x00\x80?\x00\x00\x80?\x00\x00\x80?\x00\x00\x80?\x00\x00\x80?\x00\x00\x80?\x00\x00\x80?\x00\x00\x80?\x00\x00\x80?\x00\x00\x80?\x00\x00\x80?\x00\x00\x80?\x00\x00\x80?\x00\x00\x80?\x00\x00\x80?\x00\x00\x80?\x00\x00\x80?\x00\x00\x80?\x00\x00\x80?\x00\x00\x80?\x00\x00\x80?\x00\x00\x80?\x00\x00\x80?\x00\x00\x80?\x00\x00\x80?\x00\x00\x80?\x00\x00\x80?\x00\x00\x80?\x00\x00\x80?\x00\x00\x80?\x00\x00\x80?\x00\x00\x80?\x00\x00\x80?\x00\x00\x80?\x00\x00\x80?\x00\x00\x80?\x00\x00\x80?\x00\x00\x80?\x00\x00\x80?\x00\x00\x80?\x00\x00\x80?\x00\x00\x80?\x00\x00\x80?\x00\x00\x80?\x00\x00\x80?\x00\x00\x80?\x00\x00\x80?\x00\x00\x80?\x00\x00\x80?\x00\x00\x80?\x00\x00\x80?\x00\x00\x80?\x00\x00\x80?\x00\x00\x80?\x00\x00\x80?\x00\x00\x80?\x00\x00\x80?\x00\x00\x80?\x00\x00\x80?\x00\x00\x80?\x00\x00\x80?\x00\x00\x80?\x00\x00\x80?\x00\x00\x80?\x00\x00\x80?\x00\x00\x80?\x00\x00\x80?\x00\x00\x80?\x00\x00\x80?\x00\x00\x80?\x00\x00\x80?\x00\x00\x80?\x00\x00\x80?\x00\x00\x80?\x00\x00\x80?\x00\x00\x80?\x00\x00\x80?\x00\x00\x80?\x00\x00\x80?\x00\x00\x80?\x00\x00\x80?\x00\x00\x80?\x00\x00\x80?\x00\x00\x80?\x00\x00\x80?\x00\x00\x80?\x00\x00\x80?\x00\x00\x80?\x00\x00\x80?\x00\x00\x80?\x00\x00\x80?\x00\x00\x80?\x00\x00\x80?\x00\x00\x80?\x00\x00\x80?\x00\x00\x80?\x00\x00\x80?\x00\x00\x80?\x00\x00\x80?\x00\x00\x80?\x00\x00\x80?\x00\x00\x80?\x00\x00\x80?\x00\x00\x80?\x00\x00\x80?\x00\x00\x80?\x00\x00\x80?\x00\x00\x80?\x00\x00\x80?\x00\x00\x80?\x00\x00\x80?\x00\x00\x80?\x00\x00\x80?\x00\x00\x80?\x00\x00\x80?\x00\x00\x80?\x00\x00\x80?\x00\x00\x80?\x00\x00\x80?\x00\x00\x80?\x00\x00\x80?\x00\x00\x80?\x00\x00\x80?\x00\x00\x80?\x00\x00\x80?\x00\x00\x80?\x00\x00\x80?\x00\x00\x80?\x00\x00\x80?\x00\x00\x80?\x00\x00\x80?\x00\x00\x80?\x00\x00\x80?\x00\x00\x80?\x00\x00\x80?\x00\x00\x80?\x00\x00\x80?\x00\x00\x80?\x00\x00\x80?\x00\x00\x80?\x00\x00\x80?\x00\x00\x80?\x00\x00\x80?\x00\x00\x80?\x00\x00\x80?\x00\x00\x80?\x00\x00\x80?\x00\x00\x80?\x00\x00\x80?\x00\x00\x80?\x00\x00\x80?\x00\x00\x80?\x00\x00\x80?\x00\x00\x80?\x00\x00\x80?\x00\x00\x80?\x00\x00\x80?\x00\x00\x80?\x00\x00\x80?\x00\x00\x80?\x00\x00\x80?\x00\x00\x80?\x00\x00\x80?\x00\x00\x80?\x00\x00\x80?\x00\x00\x80?\x00\x00\x80?\x00\x00\x80?\x00\x00\x80?\x00\x00\x80?\x00\x00\x80?\x00\x00\x80?\x00\x00\x80?\x00\x00\x80?\x00\x00\x80?\x00\x00\x80?\x00\x00\x80?\x00\x00\x80?\x00\x00\x80?\x00\x00\x80?\x00\x00\x80?\x00\x00\x80?\x00\x00\x80?\x00\x00\x80?\x00\x00\x80?'
S'\x00\x00\x00\x00\x00\x00\x00\x00\x00\x00\x00\x00\x00\x00\x00\x00\x00\x00\x00\x00\x00\x00\x00\x00\x00\x00\x00\x00\x00\x00\x00\x00\x00\x00\x00\x00\x00\x00\x00\x00\x00\x00\x00\x00\x00\x00\x00\x00\x00\x00\x00\x00\x00\x00\x00\x00\x00\x00\x00\x00\x00\x00\x00\x00\x00\x00\x00\x00\x00\x00\x00\x00\x00\x00\x00\x00\x00\x00\x00\x00\x00\x00\x00\x00\x00\x00\x00\x00\x00\x00\x00\x00\x00\x00\x00\x00\x00\x00\x00\x00\x00\x00\x00\x00\x00\x00\x00\x00\x00\x00\x00\x00\x00\x00\x00\x00\x00\x00\x00\x00\x00\x00\x00\x00\x00\x00\x00\x00\x00\x00\x00\x00\x00\x00\x00\x00\x00\x00\x00\x00\x00\x00\x00\x00\x00\x00\x00\x00\x00\x00\x00\x00\x00\x00\x00\x00\x00\x00\x00\x00\x00\x00\x00\x00\x00\x00\x00\x00\x00\x00\x00\x00\x00\x00\x00\x00\x00\x00\x00\x00\x00\x00\x00\x00\x00\x00\x00\x00\x00\x00\x00\x00\x00\x00\x00\x00\x00\x00\x00\x00\x00\x00\x00\x00\x00\x00\x00\x00\x00\x00\x00\x00\x00\x00\x00\x00\x00\x00\x00\x00\x00\x00\x00\x00\x00\x00\x00\x00\x00\x00\x00\x00\x00\x00\x00\x00\x00\x00\x00\x00\x00\x00\x00\x00\x00\x00\x00\x00\x00\x00\x00\x00\x00\x00\x00\x00\x00\x00\x00\x00\x00\x00\x00\x00\x00\x00\x00\x00\x00\x00\x00\x00\x00\x00\x00\x00\x00\x00\x00\x00\x00\x00\x00\x00\x00\x00\x00\x00\x00\x00\x00\x00\x00\x00\x00\x00\x00\x00\x00\x00\x00\x00\x00\x00\x00\x00\x00\x00\x00\x00\x00\x00\x00\x00\x00\x00\x00\x00\x00\x00\x00\x00\x00\x00\x00\x00\x00\x00\x00\x00\x00\x00\x00\x00\x00\x00\x00\x00\x00\x00\x00\x00\x00\x00\x00\x00\x00\x00\x00\x00\x00\x00\x00\x00\x00\x00\x00\x00\x00\x00\x00\x00\x00\x00\x00\x00\x00\x00\x00\x00\x00\x00\x00\x00\x00\x00\x00\x00\x00\x00\x00\x00\x00\x00\x00\x00\x00\x00\x00\x00\x00\x00\x00\x00\x00\x00\x00\x00\x00\x00\x00\x00\x00\x00\x00\x00\x00\x00\x00\x00\x00\x00\x00\x00\x00\x00\x00\x00\x00\x00\x00\x00\x00\x00\x00\x00\x00\x00\x00\x00\x00\x00\x00\x00\x00\x00\x00\x00\x00\x00\x00\x00\x00\x00\x00\x00\x00\x00\x00\x00\x00\x00\x00\x00\x00\x00\x00\x00\x00\x00\x00\x00\x00\x00\x00\x00\x00\x00\x00\x00\x00\x00\x00\x00\x00\x00\x00\x00\x00\x00\x00\x00\x00\x00\x00\x00\x00\x00\x00\x00\x00\x00\x00\x00\x00\x00\x00\x00\x00\x00\x00\x00\x00\x00\x00\x00\x00\x00\x00\x00\x00\x00\x00\x00\x00\x00\x00\x00\x00\x00\x00\x00\x00\x00\x00\x00\x00\x00\x00\x00\x00\x00\x00\x00\x00\x00\x00\x00\x00\x00\x00\x00\x00\x00\x00\x00\x00\x00\x00\x00\x00\x00\x00\x00\x00\x00\x00\x00\x00\x00\x00\x00\x00\x00\x00\x00\x00\x00\x00\x00\x00\x00\x00\x00\x00\x00\x00\x00\x00\x00\x00\x00\x00\x00\x00\x00\x00\x00\x00\x00\x00\x00\x00\x00\x00\x00\x00\x00\x00\x00'
Ntbsg56
g49
(g50
g51
g52
S'b'
tRp4727
(I1
(I600
I1
tg55
I00
S'\x00@\x0fD\x00\x80\xafC\x00\x00NC\x00\x00\xa6B\x00\x00pB\x00\x008B\x00\x00\x8dC\x00\x80\x9cC\x00\x00\x99C\x00\x80\x0fD\x00\xc0\x01D\x00\x80\xf7C\x00\x80\x9eC\x00\x00\xa9C\x00\x80\xceC\x00\x00nC\x00\x00dC\x00\x00\xfaB\x00\x00\x05D\x00\x00_C\x00\x80\x95C\x00@\x11D\x00\x00wC\x00\x00\xe2B\x00\x00HC\x00\x00BC\x00\x00\x80B\x00\x00\x97C\x00\x00\xc6B\x00\x00\xe1C\x00\x00[C\x00\x00\x88B\x00\x00\xfbC\x00\x00>C\x00\x00\x01D\x00\x00\x04D\x00\x00\x98C\x00\x80\xe6C\x00\x00`A\x00\x00\x0fC\x00@\tD\x00\x00{C\x00\x00\x80A\x00\x00\x8bC\x00\x80\xabC\x00\x00\x8aC\x00\x80\x8bC\x00\x00\xa1C\x00\x80\xc1C\x00@\x08D\x00\x00\xa4C\x00\x00\x00D\x00\x00\x0eD\x00\x00dB\x00\x00?C\x00\x00\xdfC\x00\x00bC\x00\x00\x01C\x00\x00\x93C\x00\x80\xd3C\x00\x80\x92C\x00\x80\x8aC\x00\x00\xa0@\x00\x80\xe2C\x00\x80\xdaC\x00\x00\xd1C\x00\x00\xefC\x00\x80\xaaC\x00\x80\x99C\x00\x006C\x00\x00\xd9C\x00\x80\x84C\x00@\x06D\x00\x00MC\x00\x00,C\x00\x00LB\x00\x00gC\x00\x00\xe4C\x00\x00\xddC\x00\x00sC\x00\x00\x05C\x00\x00\xa2B\x00\x00\xd8C\x00\x00\x80?\x00\x80\xfbC\x00\x00\x8aB\x00\x00+C\x00@\x02D\x00\x00\xb8B\x00\x80\x06D\x00\x00\x82C\x00\x00\x1bC\x00\x00\xa8B\x00\x00\x90B\x00\x80\xf1C\x00\x80\xc4C\x00\x80\x01D\x00\x00\rC\x00\x00\xa8C\x00\x80\x87C\x00\x80\x8eC\x00@\x00D\x00\x000C\x00\x80\x91C\x00\x80\xe9C\x00\x00\x8eB\x00\x80\xfaC\x00\x00\x13C\x00\x00\xd6B\x00\x00\xacC\x00\x00&C\x00\x80\xecC\x00\x00DC\x00\x000B\x00\x00\x9bC\x00\x80\x12D\x00\x00iC\x00\x00\x07D\x00\x00\xaaB\x00\x00\xafC\x00\x00yC\x00\x80\xefC\x00\x00\x90A\x00\x00\xf4B\x00\x00hC\x00\x00xB\x00\x00\xc4B\x00\x00(B\x00\x00\x92C\x00\x00\x1fC\x00\x80\xb3C\x00\x80\xcbC\x00\x00\xf9C\x00\x00\x94C\x00\x00\xf8B\x00\x00\xecC\x00\x00\xccC\x00\x00\xf6C\x00\x80\xc8C\x00\x80\x8dC\x00\x00vC\x00\x00\xbcB\x00\x00\xc1C\x00\x00XB\x00\x00-C\x00\x00*C\x00\x80\xe7C\x00\x00\xd2B\x00\x00\x1dC\x00\x00\x90C\x00\x001C\x00\x00\xeeC\x00\x00;C\x00\x00\x8fC\x00\x00\x95C\x00\x80\x04D\x00\x00\x11C\x00\x00:C\x00\x80\xdfC\x00\x80\xacC\x00\x80\xc3C\x00\x00HB\x00\x80\xd7C\x00\x007C\x00\x00SC\x00\x80\x15D\x00\x00\x08B\x00\x00\x14D\x00\x00\xb5C\x00\x80\xb1C\x00\x00\x0cB\x00\x00\\C\x00\x00\xbbC\x00\x00\x03D\x00\x00\xebC\x00\xc0\x03D\x00\x00\x02D\x00\x80\x03D\x00\x00\xe3C\x00\x80\x10D\x00\x80\xbfC\x00\x00\x0eC\x00@\x15D\x00\x80\x9bC\x00\x00\xdbC\x00\x00\x84C\x00\x80\xb6C\x00\x00\x04B\x00\x80\xe3C\x00\x80\xe5C\x00\x00}C\x00\x00\xfeC\x00\x00lC\x00@\x0cD\x00\x00$C\x00\x00\xaeC\x00\x80\xb5C\x00\x00\xbdC\x00\x00\xfeB\x00\x00\'C\x00\x00<C\x00\x00\x04C\x00\x00\xd4B\x00\x00qC\x00\x00\xaaC\x00\x80\xdeC\x00\x004C\x00\x00\x98A\x00\x00\xa7C\x00\x80\x0eD\x00\x80\xdbC\x00\x00\x0cD\x00\x00\xb0B\x00\x00/C\x00\x00PA\x00\xc0\x04D\x00\x00\xfcC\x00\x00\xfcB\x00\x00\xccB\x00\x80\xfeC\x00\x00\xf0A\x00\x00|B\x00\x80\x94C\x00\x00\xb7C\x00\x00lB\x00\x80\xd0C\x00\x00\xc2C\x00\x80\xfcC\x00\x00\xe2C\x00\x80\x11D\x00\x80\xb8C\x00\xc0\rD\x00\x00<B\x00\x00\x02C\x00\x00aC\x00\x00\xb9C\x00\x00\xc0B\x00\x00RC\x00\x00\x9aB\x00\x80\xe4C\x00\x00#C\x00\x80\x13D\x00\x00\xedC\x00\xc0\x12D\x00\x80\xb0C\x00\x00\x82B\x00\x00\x9cC\x00\x00\xd2C\x00\x00EC\x00\x00.C\x00\x00\xd4C\x00\x00\x9aC\x00\x00@C\x00\x00]C\x00\x00$B\x00\x00pA\x00\x80\xa9C\x00\x00pC\x00\x80\xc5C\x00\xc0\x0fD\x00\x80\x0cD\x00\x005C\x00\xc0\x0eD\x00@\x04D\x00\x00\x03C\x00\x00tB\x00\x00\xeeB\x00\x00\xa3C\x00\x00\xcfC\x00\x80\x9fC\x00\x00\xc5C\x00\x80\xe0C\x00\x80\x93C\x00\x000A\x00\x00\xb3C\x00\xc0\x0bD\x00\x80\xf0C\x00\x00cC\x00\x00\x9eC\x00\xc0\x02D\x00@\x10D\x00@\x07D\x00\x80\xf5C\x00\x00\xb1C\x00\x00@@\x00\x00KC\x00\x00\x1eC\x00\x00\xb8C\x00\x80\xe8C\x00\x80\x08D\x00\xc0\x05D\x00\x00\xf2C\x00\x00\xb2C\x00\x00\x94B\x00\x80\x89C\x00\x00\xc0@\x00\x80\xf8C\x00\x00\x1cC\x00\x00\xdaC\x00\x00\xc9C\x00\x80\xccC\x00\x00\xd0B\x00\x00\xb2B\x00\x00\xc4C\x00\x00ZC\x00\x80\x96C\x00\x80\xa3C\x00\xc0\nD\x00\x80\xbdC\x00\x00\x9eB\x00\x00\xbaB\x00\x80\xddC\x00\xc0\tD\x00\x00\xa6C\x00\x00\xe0B\x00\x00\x08D\x00\x00\xaeB\x00\x00\xe4B\x00\x00\nC\x00\x00(C\x00\x00uC\x00\xc0\x06D\x00\x00\xf0B\x00\x80\xa7C\x00@\nD\x00\x00\xcaB\x00\x00AC\x00\x00XC\x00\x80\xc2C\x00\x00\xdcC\x00\x80\xa1C\x00\x00\xf5C\x00\x00\xcaC\x00\x00\xb0C\x00\x00\x0bC\x00\x009C\x00\x80\xcaC\x00\x00\x06D\x00\x80\x82C\x00\x00\xc8B\x00@\x0eD\x00\x00\x88A\x00\x00OC\x00\x00\xf0C\x00\x00,B\x00\x00\xc8A\x00\x00\xf1C\x00\x00\xadC\x00\x00\xdeB\x00\x00\x9dC\x00\x00\xeaC\x00\x00\x10B\x00\x80\xe1C\x00\x80\x98C\x00\x00\x00@\x00\x00rC\x00\x00IC\x00\x00\xdaB\x00\x80\x86C\x00\x00\xc7C\x00\x00JC\x00\x00^C\x00\x00\xb6C\x00\x00\xa4B\x00\xc0\x11D\x00\x00\x89C\x00\x00\x80C\x00\x00\xe9C\x00\x00\x96C\x00\x80\x05D\x00\x80\xbcC\x00\x003C\x00\x00\xd8B\x00\x00\x08C\x00\x00\x18C\x00\x00\xa0B\x00\x00DB\x00\x00@A\x00\x00 A\x00\x80\x07D\x00\x00`B\x00\x80\x83C\x00\x00\tD\x00\xc0\x14D\x00\x00\x12C\x00\x00\x8cB\x00\x00\xe6C\x00\x80\xedC\x00\x80\xf4C\x00\x00\xf3C\x00\x00\xa8A\x00\x80\xdcC\x00\x00!C\x00\x00\nD\x00\x00\xf6B\x00\x00\x0fD\x00\x00YC\x00\x00\x10C\x00\x00\xe5C\x00\x00TC\x00\x80\xfdC\x00\x00\xd0A\x00\x00QC\x00\x80\xb7C\x00\x008C\x00\x80\x14D\x00\x00\x86C\x00\x00\xcbC\x00\x00\xd3C\x00\x80\xb4C\x00\x00fC\x00\x00\x88C\x00\x00oC\x00\x00\xa0A\x00\x80\xa5C\x00@\x13D\x00\x00\x14C\x00\x00"C\x00\x00\rD\x00\x00\x07C\x00\x80\xf3C\x00\x80\xf9C\x00\x00%C\x00\x00\x9fC\x00\x00\xd7C\x00\x00=C\x00\x00)C\x00\x00\xc0A\x00\x00\xf8A\x00\x80\xa8C\x00\x002C\x00\x00\xb8A\x00\x00\x00A\x00\x80\x9dC\x00\x80\xd8C\x00\x00\xeaB\x00@\x14D\x00\x00\\B\x00\x80\xc9C\x00\x00\xbaC\x00\x00\x92B\x00\x80\x8fC\x00\x80\xcfC\x00\x00\xb6B\x00\xc0\x00D\x00\x00mC\x00\x80\rD\x00\x00\x9cB\x00\x00LC\x00\x80\xa6C\x00\x00tC\x00\x80\xb2C\x00\x00\xb4B\x00\x00\xe6B\x00\x00\xabC\x00\x00\x96B\x00\x00\xe8B\x00\x00\x98B\x00\x00\x00C\x00\x00\xcdC\x00\x80\xeeC\x00\x00\x12D\x00\x00\xa2C\x00\x00\xf2B\x00\x80\xffC\x00\x00\xceB\x00\x00\xbeC\x00\x00\x19C\x00\x00UC\x00\x00\xdcB\x00\x00\x0bD\x00\x00PB\x00\x80\xc7C\x00\x80\x9aC\x00\x00\x87C\x00\xc0\x15D\x00\x00\xfdC\x00@\x0bD\x00\x00zC\x00\x80\xaeC\x00\xc0\x0cD\x00\x00\x00\x00\x00\x00\xacB\x00\x00\x17C\x00\x80\nD\x00\x80\xd6C\x00\x00xC\x00@\x05D\x00\x00\x81C\x00\x80\xf2C\x00\x00\xc0C\x00\x00\x15C\x00\x00\xffC\x00\x80\xd4C\x00\x00\xb0A\x00\x00\tC\x00\x00\x0cC\x00\x80\xeaC\x00\x00\xd8A\x00\x00hB\x00\x00\xf7C\x00\xc0\x13D\x00\x80\x80C\x00\x80\x88C\x00\x00~C\x00\x80\xd2C\x00\x00|C\x00\x00\xf8C\x00\x00\xceC\x00\x00\xdeC\x00\x00\x18B\x00\x00\xbfC\x00\x00\xe8C\x00\x80\xa2C\x00\x00@B\x00\x80\xebC\x00\x80\xa4C\x00@\rD\x00\x80\xd5C\x00\x80\xc6C\x00\x00\xa0C\x00\x00\xf4C\x00\x00 B\x00\x00WC\x00\x00CC\x00\x00\x16C\x00\x00\xc2B\x00\x00\x84B\x00\x80\tD\x00\x00\xe8A\x00\x00\x14B\x00@\x03D\x00\x00eC\x00\x00\x1aC\x00\x80\x90C\x00\x00\xe0C\x00\x00\xbcC\x00\xc0\x08D\x00@\x12D\x00\x00kC\x00\x80\x8cC\x00\x00\xd0C\x00\x00PC\x00\x00`C\x00\x00 C\x00\x00\xe7C\x00\x80\xf6C\x00\x00\xc8C\x00\x00\xfaC\x00\x00\x8eC\x00\x80\xcdC\x00\x80\x81C\x00\x80\xadC\x00\xc0\x07D\x00\x00\x10D\x00\x00\x91C\x00\x80\x85C\x00\x00\x06C\x00\x00\x10A\x00\x00\x11D\x00\x00\x1cB\x00\x00\x13D\x00@\x01D\x00\x00FC\x00\x80\xc0C\x00\x00\x8cC\x00\x00\xe0@\x00\x80\xa0C\x00\x00\xb4C\x00\x00GC\x00\x00\x7fC\x00\x00jC\x00\x80\x00D\x00\x00\xc3C\x00\x80\xd9C\x00\x00\xa5C\x00\x00\xd5C\x00\x00\x80@\x00\x00\xbeB\x00\x00\x83C\x00\x00TB\x00\x80\xbeC\x00\x80\xbaC\x00\x004B\x00\x80\xd1C\x00\x00\x86B\x00\x80\x02D\x00\xc0\x10D\x00\x00\xd6C\x00\x80\x0bD\x00\x00\xc6C\x00\x00\x00B\x00\x80\x97C\x00\x00\x15D\x00\x80\xb9C\x00\x80\xbbC\x00\x00VC\x00\x00\x85C\x00\x00\xecB\x00\x00\xe0A'
S'\x00\x00\x00\x00\x00\x00\x00\x00\x00\x00\x00\x00\x00\x00\x00\x00\x00\x00\x00\x00\x00\x00\x00\x00\x00\x00\x00\x00\x00\x00\x00\x00\x00\x00\x00\x00\x00\x00\x00\x00\x00\x00\x00\x00\x00\x00\x00\x00\x00\x00\x00\x00\x00\x00\x00\x00\x00\x00\x00\x00\x00\x00\x00\x00\x00\x00\x00\x00\x00\x00\x00\x00\x00\x00\x00\x00\x00\x00\x00\x00\x00\x00\x00\x00\x00\x00\x00\x00\x00\x00\x00\x00\x00\x00\x00\x00\x00\x00\x00\x00\x00\x00\x00\x00\x00\x00\x00\x00\x00\x00\x00\x00\x00\x00\x00\x00\x00\x00\x00\x00\x00\x00\x00\x00\x00\x00\x00\x00\x00\x00\x00\x00\x00\x00\x00\x00\x00\x00\x00\x00\x00\x00\x00\x00\x00\x00\x00\x00\x00\x00\x00\x00\x00\x00\x00\x00\x00\x00\x00\x00\x00\x00\x00\x00\x00\x00\x00\x00\x00\x00\x00\x00\x00\x00\x00\x00\x00\x00\x00\x00\x00\x00\x00\x00\x00\x00\x00\x00\x00\x00\x00\x00\x00\x00\x00\x00\x00\x00\x00\x00\x00\x00\x00\x00\x00\x00\x00\x00\x00\x00\x00\x00\x00\x00\x00\x00\x00\x00\x00\x00\x00\x00\x00\x00\x00\x00\x00\x00\x00\x00\x00\x00\x00\x00\x00\x00\x00\x00\x00\x00\x00\x00\x00\x00\x00\x00\x00\x00\x00\x00\x00\x00\x00\x00\x00\x00\x00\x00\x00\x00\x00\x00\x00\x00\x00\x00\x00\x00\x00\x00\x00\x00\x00\x00\x00\x00\x00\x00\x00\x00\x00\x00\x00\x00\x00\x00\x00\x00\x00\x00\x00\x00\x00\x00\x00\x00\x00\x00\x00\x00\x00\x00\x00\x00\x00\x00\x00\x00\x00\x00\x00\x00\x00\x00\x00\x00\x00\x00\x00\x00\x00\x00\x00\x00\x00\x00\x00\x00\x00\x00\x00\x00\x00\x00\x00\x00\x00\x00\x00\x00\x00\x00\x00\x00\x00\x00\x00\x00\x00\x00\x00\x00\x00\x00\x00\x00\x00\x00\x00\x00\x00\x00\x00\x00\x00\x00\x00\x00\x00\x00\x00\x00\x00\x00\x00\x00\x00\x00\x00\x00\x00\x00\x00\x00\x00\x00\x00\x00\x00\x00\x00\x00\x00\x00\x00\x00\x00\x00\x00\x00\x00\x00\x00\x00\x00\x00\x00\x00\x00\x00\x00\x00\x00\x00\x00\x00\x00\x00\x00\x00\x00\x00\x00\x00\x00\x00\x00\x00\x00\x00\x00\x00\x00\x00\x00\x00\x00\x00\x00\x00\x00\x00\x00\x00\x00\x00\x00\x00\x00\x00\x00\x00\x00\x00\x00\x00\x00\x00\x00\x00\x00\x00\x00\x00\x00\x00\x00\x00\x00\x00\x00\x00\x00\x00\x00\x00\x00\x00\x00\x00\x00\x00\x00\x00\x00\x00\x00\x00\x00\x00\x00\x00\x00\x00\x00\x00\x00\x00\x00\x00\x00\x00\x00\x00\x00\x00\x00\x00\x00\x00\x00\x00\x00\x00\x00\x00\x00\x00\x00\x00\x00\x00\x00\x00\x00\x00\x00\x00\x00\x00\x00\x00\x00\x00\x00\x00\x00\x00\x00\x00\x00\x00\x00\x00\x00\x00\x00\x00\x00\x00\x00\x00\x00\x00\x00\x00\x00\x00\x00\x00\x00\x00\x00\x00\x00\x00\x00\x00\x00\x00\x00\x00\x00\x00\x00\x00\x00\x00\x00\x00\x00\x00\x00\x00\x00\x00\x00\x00\x00\x00\x00\x00\x00\x00\x00\x00\x00\x00\x00\x00'
NtbstRp4728
(dp4729
g60
(dp4730
g48
I01
sg56
I01
ssg62
g4722
sg63
(lp4731
g48
ag56
asg65
(lp4732
I600
aI1
asbsg67
S'random'
p4733
sg69
g70
(g51
(I0
tS'b'
tRp4734
(I1
(I600
I1
tg54
(S'i4'
I0
I1
tRp4735
(I3
S'<'
NNNI-1
I-1
I0
tbI01
S'\xe1\x01\x00\x00S\x00\x00\x00b\x01\x00\x00\x1c\x01\x00\x00A\x02\x00\x00>\x00\x00\x00\'\x01\x00\x006\x02\x00\x00\xb0\x01\x00\x00.\x02\x00\x00z\x01\x00\x00\x11\x01\x00\x00y\x01\x00\x00\xd6\x00\x00\x00&\x00\x00\x00\xff\x00\x00\x00*\x00\x00\x00U\x01\x00\x00z\x00\x00\x00\xcf\x00\x00\x00\x9d\x01\x00\x00\x86\x01\x00\x00\xee\x01\x00\x00\xaf\x01\x00\x00\xab\x01\x00\x00Y\x01\x00\x00\x91\x01\x00\x00\xf2\x01\x00\x00W\x02\x00\x00\x11\x02\x00\x00\xdc\x00\x00\x00\xac\x01\x00\x00O\x02\x00\x00\xbb\x00\x00\x00\xa6\x00\x00\x00\xaa\x00\x00\x00_\x01\x00\x00\x12\x02\x00\x00\xfe\x01\x00\x000\x02\x00\x00\n\x02\x00\x00\xfe\x00\x00\x00\x7f\x00\x00\x00X\x01\x00\x00q\x00\x00\x00G\x02\x00\x00\x05\x00\x00\x00\xe8\x00\x00\x00\x02\x02\x00\x00x\x01\x00\x00\xa1\x00\x00\x00K\x00\x00\x00\xd7\x01\x00\x00D\x02\x00\x00\x8f\x00\x00\x00\xb5\x01\x00\x00|\x01\x00\x005\x00\x00\x00\xf3\x01\x00\x00\xe0\x00\x00\x00\x04\x00\x00\x00\t\x01\x00\x00}\x00\x00\x00\xdd\x00\x00\x00\x1a\x00\x00\x00\xf5\x00\x00\x00\x0f\x02\x00\x00I\x02\x00\x00\x1f\x00\x00\x00U\x00\x00\x00\x81\x01\x00\x00i\x00\x00\x00]\x00\x00\x00\xb8\x01\x00\x00%\x01\x00\x00\xc7\x01\x00\x00\xc9\x01\x00\x00\xee\x00\x00\x00\xbf\x01\x00\x005\x01\x00\x00w\x01\x00\x00Q\x00\x00\x00k\x01\x00\x00\x03\x00\x00\x00\\\x00\x00\x00v\x00\x00\x00\xe2\x01\x00\x00<\x01\x00\x00\xd4\x00\x00\x00.\x01\x00\x00\xc4\x01\x00\x00\xbb\x01\x00\x00X\x00\x00\x006\x01\x00\x00\x8d\x00\x00\x00B\x02\x00\x00\xec\x00\x00\x00\x0e\x02\x00\x00~\x00\x00\x00\x1c\x00\x00\x00S\x01\x00\x00E\x01\x00\x00\xda\x00\x00\x00\xd1\x01\x00\x00-\x01\x00\x00\x93\x00\x00\x00\xca\x00\x00\x00l\x00\x00\x00t\x01\x00\x00e\x01\x00\x00\xd5\x01\x00\x00\\\x01\x00\x00:\x01\x00\x00\x17\x00\x00\x00=\x01\x00\x00\xc5\x01\x00\x00\xc8\x01\x00\x00\xb3\x01\x00\x00V\x02\x00\x00\n\x01\x00\x00B\x01\x00\x00\xcf\x01\x00\x00{\x00\x00\x00\x8a\x01\x00\x00\x86\x00\x00\x00\x11\x00\x00\x00\xd9\x00\x00\x00\xc6\x00\x00\x00\xca\x01\x00\x009\x00\x00\x00\xe9\x00\x00\x00\x08\x01\x00\x00\xc9\x00\x00\x00P\x00\x00\x00-\x02\x00\x00\xa3\x01\x00\x00u\x01\x00\x00\xef\x01\x00\x00>\x01\x00\x00N\x01\x00\x00\xf0\x01\x00\x00a\x00\x00\x00\xb5\x00\x00\x00\'\x00\x00\x00\x8d\x01\x00\x00\x9c\x00\x00\x00\x80\x01\x00\x00k\x00\x00\x00\xa0\x01\x00\x00\xeb\x01\x00\x00\r\x02\x00\x00\xe3\x01\x00\x00v\x01\x00\x00\xd3\x01\x00\x00\x15\x02\x00\x00[\x00\x00\x00)\x01\x00\x00\x94\x00\x00\x00\x1e\x01\x00\x00\x81\x00\x00\x00 \x02\x00\x00\x88\x01\x00\x00\xa1\x01\x00\x00\xf0\x00\x00\x00\xc2\x00\x00\x00\xa6\x01\x00\x00n\x00\x00\x00\xc7\x00\x00\x00?\x01\x00\x00\xaa\x01\x00\x00\x91\x00\x00\x00V\x00\x00\x00J\x00\x00\x00\x90\x00\x00\x00\xf9\x00\x00\x00\xd5\x00\x00\x00f\x00\x00\x00\x96\x00\x00\x00\xae\x01\x00\x00s\x01\x00\x00\xce\x00\x00\x00\x05\x01\x00\x00E\x00\x00\x00\xa3\x00\x00\x00\x94\x01\x00\x00O\x01\x00\x00\x9d\x00\x00\x00\x98\x00\x00\x00\xc8\x00\x00\x00\xa9\x01\x00\x00!\x00\x00\x006\x00\x00\x00\xfc\x00\x00\x00F\x01\x00\x00\x19\x00\x00\x00\x0c\x02\x00\x00p\x00\x00\x00\xf8\x00\x00\x003\x02\x00\x009\x02\x00\x00\x18\x00\x00\x00d\x01\x00\x00h\x01\x00\x00\x1d\x01\x00\x00\xc0\x01\x00\x00I\x00\x00\x00\x02\x00\x00\x00V\x01\x00\x00\x1e\x02\x00\x00\x92\x01\x00\x00\xed\x00\x00\x00\xa4\x00\x00\x00\x8f\x01\x00\x00\xd4\x01\x00\x00T\x02\x00\x00\x0b\x02\x00\x00G\x01\x00\x00\x8c\x01\x00\x000\x01\x00\x00\x1e\x00\x00\x00\xab\x00\x00\x00\xfd\x00\x00\x00i\x01\x00\x00\x13\x00\x00\x00\x1f\x02\x00\x00\xea\x00\x00\x008\x00\x00\x00\x15\x01\x00\x00\x10\x00\x00\x00\x14\x02\x00\x00\x9a\x01\x00\x00L\x00\x00\x00|\x00\x00\x00t\x00\x00\x00;\x02\x00\x00\x1b\x02\x00\x00\xc0\x00\x00\x00\xbd\x01\x00\x00\x0f\x00\x00\x00\x9c\x01\x00\x00\x01\x01\x00\x00\xcb\x00\x00\x00c\x01\x00\x00O\x00\x00\x00\xc2\x01\x00\x00@\x01\x00\x00\x8c\x00\x00\x00\x16\x00\x00\x00\xe6\x01\x00\x00x\x00\x00\x00\xde\x01\x00\x00)\x00\x00\x00\xfa\x01\x00\x00\xbe\x00\x00\x00\xf8\x01\x00\x00:\x02\x00\x00n\x01\x00\x00\xf6\x01\x00\x00\xe8\x01\x00\x00\'\x02\x00\x00Z\x00\x00\x00R\x01\x00\x00C\x02\x00\x00}\x01\x00\x00\xb9\x00\x00\x00G\x00\x00\x00U\x02\x00\x00,\x02\x00\x00\x96\x01\x00\x00f\x01\x00\x00\xda\x01\x00\x00c\x00\x00\x00\x9b\x01\x00\x00\xf7\x01\x00\x00m\x01\x00\x00&\x01\x00\x00-\x00\x00\x00=\x00\x00\x00+\x00\x00\x00.\x00\x00\x005\x02\x00\x00\x1c\x02\x00\x00\x06\x00\x00\x00\x8b\x00\x00\x00%\x02\x00\x00d\x00\x00\x00\x99\x00\x00\x00\xb9\x01\x00\x00\x95\x00\x00\x00\x16\x02\x00\x00+\x02\x00\x00g\x00\x00\x00\x80\x00\x00\x00<\x00\x00\x00:\x00\x00\x00\x10\x01\x00\x00\x85\x00\x00\x00\xde\x00\x00\x00\x9a\x00\x00\x00\x14\x00\x00\x00p\x01\x00\x001\x01\x00\x00\x1b\x00\x00\x00P\x02\x00\x00$\x00\x00\x00a\x01\x00\x00\x08\x00\x00\x00D\x00\x00\x00\xfb\x00\x00\x00\xd9\x01\x00\x00r\x00\x00\x00\xb7\x00\x00\x00\xf6\x00\x00\x00\x07\x00\x00\x00]\x01\x00\x00\xb1\x01\x00\x00\x16\x01\x00\x00\x0c\x00\x00\x00\xa7\x01\x00\x00\r\x01\x00\x00\x08\x02\x00\x007\x02\x00\x00/\x00\x00\x00J\x01\x00\x00\xce\x01\x00\x00\x01\x02\x00\x00\x0b\x01\x00\x002\x01\x00\x002\x00\x00\x00\x04\x02\x00\x00?\x02\x00\x00\x9e\x01\x00\x009\x01\x00\x00\xc1\x01\x00\x00\xd0\x00\x00\x00C\x01\x00\x00b\x00\x00\x00\xad\x01\x00\x00\r\x00\x00\x00\x00\x01\x00\x00\xcc\x00\x00\x00C\x00\x00\x00\xc6\x01\x00\x00,\x00\x00\x00m\x00\x00\x00\x9f\x00\x00\x00[\x01\x00\x00(\x02\x00\x00\xc3\x00\x00\x00\xdf\x01\x00\x00w\x00\x00\x00\x01\x00\x00\x00M\x01\x00\x00\xf4\x00\x00\x00\x1b\x01\x00\x00\xa9\x00\x00\x00$\x01\x00\x00\xc3\x01\x00\x00\x12\x01\x00\x00\x82\x00\x00\x008\x02\x00\x00\x99\x01\x00\x00\xa8\x00\x00\x00\xc4\x00\x00\x00j\x01\x00\x00\xba\x00\x00\x00\xdf\x00\x00\x00\x93\x01\x00\x00\x1f\x01\x00\x00\xe6\x00\x00\x00\xeb\x00\x00\x00R\x02\x00\x00\xb7\x01\x00\x00F\x02\x00\x00\xac\x00\x00\x00S\x02\x00\x00\x18\x02\x00\x00r\x01\x00\x00\xc5\x00\x00\x004\x01\x00\x00\xd2\x01\x00\x00E\x02\x00\x00\xff\x01\x00\x00\xb4\x00\x00\x00\xea\x01\x00\x004\x02\x00\x00\x8e\x00\x00\x000\x00\x00\x00\xe2\x00\x00\x00H\x01\x00\x00=\x02\x00\x00\xa0\x00\x00\x00/\x01\x00\x00_\x00\x00\x00\x0e\x01\x00\x00\x02\x01\x00\x00N\x02\x00\x00\x07\x02\x00\x00g\x01\x00\x00\xd8\x01\x00\x00#\x02\x00\x00\x8a\x00\x00\x00+\x01\x00\x00\xb6\x01\x00\x00L\x01\x00\x00P\x01\x00\x00\x97\x01\x00\x00\x83\x00\x00\x00\x88\x00\x00\x00,\x01\x00\x00\xcb\x01\x00\x00&\x02\x00\x00\xfc\x01\x00\x00\x0e\x00\x00\x00\x0c\x01\x00\x00\xba\x01\x00\x00\x1d\x02\x00\x00\xe1\x00\x00\x00A\x00\x00\x00H\x02\x00\x00\xf7\x00\x00\x00\xf9\x01\x00\x00\x98\x01\x00\x00;\x00\x00\x00\xfa\x00\x00\x00\xed\x01\x00\x00@\x02\x00\x00\x06\x02\x00\x00L\x02\x00\x00\xe5\x01\x00\x00\xa8\x01\x00\x00\xa2\x00\x00\x00R\x00\x00\x00\xb2\x01\x00\x00F\x00\x00\x00>\x02\x00\x00*\x01\x00\x00@\x00\x00\x00\xb8\x00\x00\x00\xd2\x00\x00\x00I\x01\x00\x00\x87\x01\x00\x00N\x00\x00\x007\x01\x00\x00\xfd\x01\x00\x00\xcd\x00\x00\x007\x00\x00\x00\x9e\x00\x00\x00\x17\x02\x00\x00\x0f\x01\x00\x00\x1d\x00\x00\x00`\x01\x00\x00\xe4\x00\x00\x00?\x00\x00\x00\xb2\x00\x00\x00\xbc\x00\x00\x00M\x00\x00\x00\xef\x00\x00\x00\x8e\x01\x00\x00\xbd\x00\x00\x00\x82\x01\x00\x00%\x00\x00\x00!\x02\x00\x00\x92\x00\x00\x00\x00\x02\x00\x00 \x01\x00\x00o\x01\x00\x00h\x00\x00\x00^\x01\x00\x00\xf1\x01\x00\x00\xae\x00\x00\x00\x03\x02\x00\x00\x87\x00\x00\x00o\x00\x00\x00\xf2\x00\x00\x00\x83\x01\x00\x00\x97\x00\x00\x00\xcc\x01\x00\x00B\x00\x00\x00y\x00\x00\x00W\x01\x00\x00\x14\x01\x00\x00Z\x01\x00\x00^\x00\x00\x00#\x01\x00\x00\xe9\x01\x00\x00\x85\x01\x00\x00\xa4\x01\x00\x00\t\x02\x00\x00\x84\x01\x00\x00K\x01\x00\x00\x1a\x01\x00\x00\x89\x00\x00\x00"\x02\x00\x00\xf4\x01\x00\x00\x0b\x00\x00\x00\xfb\x01\x00\x00(\x01\x00\x00\x84\x00\x00\x00\xa5\x01\x00\x00$\x02\x00\x00j\x00\x00\x00 \x00\x00\x00T\x00\x00\x00\xd8\x00\x00\x00\xe3\x00\x00\x00\xdc\x01\x00\x00\x90\x01\x00\x00\xbf\x00\x00\x00\xdb\x00\x00\x00\xec\x01\x00\x00\xd0\x01\x00\x003\x00\x00\x00e\x00\x00\x00<\x02\x00\x00\xbc\x01\x00\x00"\x00\x00\x002\x02\x00\x00`\x00\x00\x00\n\x00\x00\x00\xb0\x00\x00\x00W\x00\x00\x00J\x02\x00\x00\x17\x01\x00\x00\xad\x00\x00\x00\x13\x02\x00\x00\xb1\x00\x00\x00\xaf\x00\x00\x00#\x00\x00\x00\x07\x01\x00\x00\x9b\x00\x00\x00\xd7\x00\x00\x00\x12\x00\x00\x00\xe7\x01\x00\x00q\x01\x00\x00"\x01\x00\x00Q\x01\x00\x00H\x00\x00\x00Y\x00\x00\x00A\x01\x00\x00u\x00\x00\x00\x19\x01\x00\x00{\x01\x00\x00)\x02\x00\x00;\x01\x00\x001\x00\x00\x00!\x01\x00\x00\x19\x02\x00\x00~\x01\x00\x00(\x00\x00\x00\x10\x02\x00\x008\x01\x00\x00\x89\x01\x00\x00D\x01\x00\x00\xe4\x01\x00\x003\x01\x00\x00\xd6\x01\x00\x00\xdd\x01\x00\x00M\x02\x00\x00\x13\x01\x00\x00\xd3\x00\x00\x00\xc1\x00\x00\x00\x04\x01\x00\x00\xe0\x01\x00\x00\xa2\x01\x00\x00\x05\x02\x00\x00\xbe\x01\x00\x00\xe7\x00\x00\x004\x00\x00\x00T\x01\x00\x00\xd1\x00\x00\x00\x06\x01\x00\x00\x8b\x01\x00\x00\x00\x00\x00\x00\t\x00\x00\x00\x03\x01\x00\x00*\x02\x00\x00\x18\x01\x00\x00\xb3\x00\x00\x00K\x02\x00\x00/\x02\x00\x00\x15\x00\x00\x00\xe5\x00\x00\x00l\x01\x00\x00\xcd\x01\x00\x00\x1a\x02\x00\x00s\x00\x00\x00\xf3\x00\x00\x001\x02\x00\x00\x9f\x01\x00\x00\xf1\x00\x00\x00\xf5\x01\x00\x00\xa7\x00\x00\x00\xb4\x01\x00\x00\x95\x01\x00\x00\x7f\x01\x00\x00Q\x02\x00\x00\xb6\x00\x00\x00\xa5\x00\x00\x00\xdb\x01\x00\x00'
tbsg74
I01
sg75
I1
sg76
I-1
sg77
(lp4736
I0
aI1
aI2
aI3
aI4
aI5
aI6
aI7
aI8
aI9
aI10
aI11
aI12
aI13
aI14
aI15
aI16
aI17
aI18
aI19
aI20
aI21
aI22
aI23
aI24
aI25
aI26
aI27
aI28
aI29
aI30
aI31
aI32
aI33
aI34
aI35
aI36
aI37
aI38
aI39
aI40
aI41
aI42
aI43
aI44
aI45
aI46
aI47
aI48
aI49
aI50
aI51
aI52
aI53
aI54
aI55
aI56
aI57
aI58
aI59
aI60
aI61
aI62
aI63
aI64
aI65
aI66
aI67
aI68
aI69
aI70
aI71
aI72
aI73
aI74
aI75
aI76
aI77
aI78
aI79
aI80
aI81
aI82
aI83
aI84
aI85
aI86
aI87
aI88
aI89
aI90
aI91
aI92
aI93
aI94
aI95
aI96
aI97
aI98
aI99
aI100
aI101
aI102
aI103
aI104
aI105
aI106
aI107
aI108
aI109
aI110
aI111
aI112
aI113
aI114
aI115
aI116
aI117
aI118
aI119
aI120
aI121
aI122
aI123
aI124
aI125
aI126
aI127
aI128
aI129
aI130
aI131
aI132
aI133
aI134
aI135
aI136
aI137
aI138
aI139
aI140
aI141
aI142
aI143
aI144
aI145
aI146
aI147
aI148
aI149
aI150
aI151
aI152
aI153
aI154
aI155
aI156
aI157
aI158
aI159
aI160
aI161
aI162
aI163
aI164
aI165
aI166
aI167
aI168
aI169
aI170
aI171
aI172
aI173
aI174
aI175
aI176
aI177
aI178
aI179
aI180
aI181
aI182
aI183
aI184
aI185
aI186
aI187
aI188
aI189
aI190
aI191
aI192
aI193
aI194
aI195
aI196
aI197
aI198
aI199
aI200
aI201
aI202
aI203
aI204
aI205
aI206
aI207
aI208
aI209
aI210
aI211
aI212
aI213
aI214
aI215
aI216
aI217
aI218
aI219
aI220
aI221
aI222
aI223
aI224
aI225
aI226
aI227
aI228
aI229
aI230
aI231
aI232
aI233
aI234
aI235
aI236
aI237
aI238
aI239
aI240
aI241
aI242
aI243
aI244
aI245
aI246
aI247
aI248
aI249
aI250
aI251
aI252
aI253
aI254
aI255
aI256
aI257
aI258
aI259
aI260
aI261
aI262
aI263
aI264
aI265
aI266
aI267
aI268
aI269
aI270
aI271
aI272
aI273
aI274
aI275
aI276
aI277
aI278
aI279
aI280
aI281
aI282
aI283
aI284
aI285
aI286
aI287
aI288
aI289
aI290
aI291
aI292
aI293
aI294
aI295
aI296
aI297
aI298
aI299
aI300
aI301
aI302
aI303
aI304
aI305
aI306
aI307
aI308
aI309
aI310
aI311
aI312
aI313
aI314
aI315
aI316
aI317
aI318
aI319
aI320
aI321
aI322
aI323
aI324
aI325
aI326
aI327
aI328
aI329
aI330
aI331
aI332
aI333
aI334
aI335
aI336
aI337
aI338
aI339
aI340
aI341
aI342
aI343
aI344
aI345
aI346
aI347
aI348
aI349
aI350
aI351
aI352
aI353
aI354
aI355
aI356
aI357
aI358
aI359
aI360
aI361
aI362
aI363
aI364
aI365
aI366
aI367
aI368
aI369
aI370
aI371
aI372
aI373
aI374
aI375
aI376
aI377
aI378
aI379
aI380
aI381
aI382
aI383
aI384
aI385
aI386
aI387
aI388
aI389
aI390
aI391
aI392
aI393
aI394
aI395
aI396
aI397
aI398
aI399
aI400
aI401
aI402
aI403
aI404
aI405
aI406
aI407
aI408
aI409
aI410
aI411
aI412
aI413
aI414
aI415
aI416
aI417
aI418
aI419
aI420
aI421
aI422
aI423
aI424
aI425
aI426
aI427
aI428
aI429
aI430
aI431
aI432
aI433
aI434
aI435
aI436
aI437
aI438
aI439
aI440
aI441
aI442
aI443
aI444
aI445
aI446
aI447
aI448
aI449
aI450
aI451
aI452
aI453
aI454
aI455
aI456
aI457
aI458
aI459
aI460
aI461
aI462
aI463
aI464
aI465
aI466
aI467
aI468
aI469
aI470
aI471
aI472
aI473
aI474
aI475
aI476
aI477
aI478
aI479
aI480
aI481
aI482
aI483
aI484
aI485
aI486
aI487
aI488
aI489
aI490
aI491
aI492
aI493
aI494
aI495
aI496
aI497
aI498
aI499
aI500
aI501
aI502
aI503
aI504
aI505
aI506
aI507
aI508
aI509
aI510
aI511
aI512
aI513
aI514
aI515
aI516
aI517
aI518
aI519
aI520
aI521
aI522
aI523
aI524
aI525
aI526
aI527
aI528
aI529
aI530
aI531
aI532
aI533
aI534
aI535
aI536
aI537
aI538
aI539
aI540
aI541
aI542
aI543
aI544
aI545
aI546
aI547
aI548
aI549
aI550
aI551
aI552
aI553
aI554
aI555
aI556
aI557
aI558
aI559
aI560
aI561
aI562
aI563
aI564
aI565
aI566
aI567
aI568
aI569
aI570
aI571
aI572
aI573
aI574
aI575
aI576
aI577
aI578
aI579
aI580
aI581
aI582
aI583
aI584
aI585
aI586
aI587
aI588
aI589
aI590
aI591
aI592
aI593
aI594
aI595
aI596
aI597
aI598
aI599
asg79
Nsg80
cnumpy.core.multiarray
scalar
p4737
(g4735
S'\xdb\x01\x00\x00'
tRp4738
sg81
I600
sg82
I0
sg83
I600
sg84
I01
sbag37
asS'savePickle'
p4739
I00
sb.