ccopy_reg
_reconstructor
p1
(cpsychopy.data
ExperimentHandler
p2
c__builtin__
object
p3
NtRp4
(dp5
S'originPath'
p6
NsS'dataFileName'
p7
Vsubject656
p8
sS'runtimeInfo'
p9
NsS'name'
p10
VVERBALRBsubject 656
p11
sS'dataNames'
p12
(lp13
S'Block Number'
p14
aS'Key pressed'
p15
aS'Correct?'
p16
aS'Int Match?'
p17
aS'Int Response'
p18
aS'Int Correct?'
p19
aS'Category'
p20
aS'Line Accuracy'
p21
aS'Interference Accuracy'
p22
aS'Matching Interferences'
p23
aS'New instruction shown?'
p24
aS'Buttons switched?'
p25
aS'Fast?'
p26
asS'autoLog'
p27
I01
sS'extraInfo'
p28
(dp29
S'gender'
p30
Vf
sS'age'
p31
V19
p32
ssS'loopsUnfinished'
p33
(lp34
g1
(cpsychopy.data
TrialHandler
p35
g3
NtRp36
(dp37
S'origin'
p38
NsS'thisTrial'
p39
I6
sS'_exp'
p40
I80883856
sg10
S''
sg6
S'C:\\Users\\Mike\\Desktop\\Dual2\\NEWVerbalRB.py'
p41
sS'thisRepN'
p42
I54
sg27
I01
sg28
NsS'data'
p43
g1
(cpsychopy.data
DataHandler
p44
c__builtin__
dict
p45
(dp46
S'ran'
p47
cnumpy.ma.core
_mareconstruct
p48
(cnumpy.ma.core
MaskedArray
p49
cnumpy
ndarray
p50
(I0
tp51
S'b'
tRp52
(I1
(I11
I55
tcnumpy
dtype
p53
(S'f4'
I0
I1
tRp54
(I3
S'<'
NNNI-1
I-1
I0
tbI00
S'\x00\x00\x80?\x00\x00\x80?\x00\x00\x80?\x00\x00\x80?\x00\x00\x80?\x00\x00\x80?\x00\x00\x80?\x00\x00\x80?\x00\x00\x80?\x00\x00\x80?\x00\x00\x80?\x00\x00\x80?\x00\x00\x80?\x00\x00\x80?\x00\x00\x80?\x00\x00\x80?\x00\x00\x80?\x00\x00\x80?\x00\x00\x80?\x00\x00\x80?\x00\x00\x80?\x00\x00\x80?\x00\x00\x80?\x00\x00\x80?\x00\x00\x80?\x00\x00\x80?\x00\x00\x80?\x00\x00\x80?\x00\x00\x80?\x00\x00\x80?\x00\x00\x80?\x00\x00\x80?\x00\x00\x80?\x00\x00\x80?\x00\x00\x80?\x00\x00\x80?\x00\x00\x80?\x00\x00\x80?\x00\x00\x80?\x00\x00\x80?\x00\x00\x80?\x00\x00\x80?\x00\x00\x80?\x00\x00\x80?\x00\x00\x80?\x00\x00\x80?\x00\x00\x80?\x00\x00\x80?\x00\x00\x80?\x00\x00\x80?\x00\x00\x80?\x00\x00\x80?\x00\x00\x80?\x00\x00\x80?\x00\x00\x80?\x00\x00\x80?\x00\x00\x80?\x00\x00\x80?\x00\x00\x80?\x00\x00\x80?\x00\x00\x80?\x00\x00\x80?\x00\x00\x80?\x00\x00\x80?\x00\x00\x80?\x00\x00\x80?\x00\x00\x80?\x00\x00\x80?\x00\x00\x80?\x00\x00\x80?\x00\x00\x80?\x00\x00\x80?\x00\x00\x80?\x00\x00\x80?\x00\x00\x80?\x00\x00\x80?\x00\x00\x80?\x00\x00\x80?\x00\x00\x80?\x00\x00\x80?\x00\x00\x80?\x00\x00\x80?\x00\x00\x80?\x00\x00\x80?\x00\x00\x80?\x00\x00\x80?\x00\x00\x80?\x00\x00\x80?\x00\x00\x80?\x00\x00\x80?\x00\x00\x80?\x00\x00\x80?\x00\x00\x80?\x00\x00\x80?\x00\x00\x80?\x00\x00\x80?\x00\x00\x80?\x00\x00\x80?\x00\x00\x80?\x00\x00\x80?\x00\x00\x80?\x00\x00\x80?\x00\x00\x80?\x00\x00\x80?\x00\x00\x80?\x00\x00\x80?\x00\x00\x80?\x00\x00\x80?\x00\x00\x80?\x00\x00\x80?\x00\x00\x80?\x00\x00\x80?\x00\x00\x80?\x00\x00\x80?\x00\x00\x80?\x00\x00\x80?\x00\x00\x80?\x00\x00\x80?\x00\x00\x80?\x00\x00\x80?\x00\x00\x80?\x00\x00\x80?\x00\x00\x80?\x00\x00\x80?\x00\x00\x80?\x00\x00\x80?\x00\x00\x80?\x00\x00\x80?\x00\x00\x80?\x00\x00\x80?\x00\x00\x80?\x00\x00\x80?\x00\x00\x80?\x00\x00\x80?\x00\x00\x80?\x00\x00\x80?\x00\x00\x80?\x00\x00\x80?\x00\x00\x80?\x00\x00\x80?\x00\x00\x80?\x00\x00\x80?\x00\x00\x80?\x00\x00\x80?\x00\x00\x80?\x00\x00\x80?\x00\x00\x80?\x00\x00\x80?\x00\x00\x80?\x00\x00\x80?\x00\x00\x80?\x00\x00\x80?\x00\x00\x80?\x00\x00\x80?\x00\x00\x80?\x00\x00\x80?\x00\x00\x80?\x00\x00\x80?\x00\x00\x80?\x00\x00\x80?\x00\x00\x80?\x00\x00\x80?\x00\x00\x80?\x00\x00\x80?\x00\x00\x80?\x00\x00\x80?\x00\x00\x80?\x00\x00\x80?\x00\x00\x80?\x00\x00\x80?\x00\x00\x80?\x00\x00\x80?\x00\x00\x80?\x00\x00\x80?\x00\x00\x80?\x00\x00\x80?\x00\x00\x80?\x00\x00\x80?\x00\x00\x80?\x00\x00\x80?\x00\x00\x80?\x00\x00\x80?\x00\x00\x80?\x00\x00\x80?\x00\x00\x80?\x00\x00\x80?\x00\x00\x80?\x00\x00\x80?\x00\x00\x80?\x00\x00\x80?\x00\x00\x80?\x00\x00\x80?\x00\x00\x80?\x00\x00\x80?\x00\x00\x80?\x00\x00\x80?\x00\x00\x80?\x00\x00\x80?\x00\x00\x80?\x00\x00\x80?\x00\x00\x80?\x00\x00\x80?\x00\x00\x80?\x00\x00\x80?\x00\x00\x80?\x00\x00\x80?\x00\x00\x80?\x00\x00\x80?\x00\x00\x80?\x00\x00\x80?\x00\x00\x80?\x00\x00\x80?\x00\x00\x80?\x00\x00\x80?\x00\x00\x80?\x00\x00\x80?\x00\x00\x80?\x00\x00\x80?\x00\x00\x80?\x00\x00\x80?\x00\x00\x80?\x00\x00\x80?\x00\x00\x80?\x00\x00\x80?\x00\x00\x80?\x00\x00\x80?\x00\x00\x80?\x00\x00\x80?\x00\x00\x80?\x00\x00\x80?\x00\x00\x80?\x00\x00\x80?\x00\x00\x80?\x00\x00\x80?\x00\x00\x80?\x00\x00\x80?\x00\x00\x80?\x00\x00\x80?\x00\x00\x80?\x00\x00\x80?\x00\x00\x80?\x00\x00\x80?\x00\x00\x80?\x00\x00\x80?\x00\x00\x80?\x00\x00\x80?\x00\x00\x80?\x00\x00\x80?\x00\x00\x80?\x00\x00\x80?\x00\x00\x80?\x00\x00\x80?\x00\x00\x80?\x00\x00\x80?\x00\x00\x80?\x00\x00\x80?\x00\x00\x80?\x00\x00\x80?\x00\x00\x80?\x00\x00\x80?\x00\x00\x80?\x00\x00\x80?\x00\x00\x80?\x00\x00\x80?\x00\x00\x80?\x00\x00\x80?\x00\x00\x80?\x00\x00\x80?\x00\x00\x80?\x00\x00\x80?\x00\x00\x80?\x00\x00\x80?\x00\x00\x80?\x00\x00\x00\x00\x00\x00\x00\x00\x00\x00\x80?\x00\x00\x80?\x00\x00\x80?\x00\x00\x80?\x00\x00\x80?\x00\x00\x80?\x00\x00\x80?\x00\x00\x80?\x00\x00\x80?\x00\x00\x80?\x00\x00\x80?\x00\x00\x80?\x00\x00\x80?\x00\x00\x80?\x00\x00\x80?\x00\x00\x80?\x00\x00\x80?\x00\x00\x80?\x00\x00\x80?\x00\x00\x80?\x00\x00\x80?\x00\x00\x80?\x00\x00\x80?\x00\x00\x80?\x00\x00\x80?\x00\x00\x80?\x00\x00\x80?\x00\x00\x80?\x00\x00\x80?\x00\x00\x80?\x00\x00\x80?\x00\x00\x80?\x00\x00\x80?\x00\x00\x80?\x00\x00\x80?\x00\x00\x80?\x00\x00\x80?\x00\x00\x80?\x00\x00\x80?\x00\x00\x80?\x00\x00\x80?\x00\x00\x80?\x00\x00\x80?\x00\x00\x80?\x00\x00\x80?\x00\x00\x80?\x00\x00\x80?\x00\x00\x80?\x00\x00\x80?\x00\x00\x80?\x00\x00\x80?\x00\x00\x80?\x00\x00\x80?\x00\x00\x80?\x00\x00\x80?\x00\x00\x80?\x00\x00\x80?\x00\x00\x80?\x00\x00\x80?\x00\x00\x80?\x00\x00\x80?\x00\x00\x80?\x00\x00\x80?\x00\x00\x80?\x00\x00\x80?\x00\x00\x80?\x00\x00\x80?\x00\x00\x80?\x00\x00\x80?\x00\x00\x80?\x00\x00\x80?\x00\x00\x80?\x00\x00\x80?\x00\x00\x80?\x00\x00\x80?\x00\x00\x80?\x00\x00\x80?\x00\x00\x80?\x00\x00\x80?\x00\x00\x80?\x00\x00\x80?\x00\x00\x80?\x00\x00\x80?\x00\x00\x80?\x00\x00\x80?\x00\x00\x80?\x00\x00\x80?\x00\x00\x80?\x00\x00\x80?\x00\x00\x80?\x00\x00\x80?\x00\x00\x80?\x00\x00\x80?\x00\x00\x80?\x00\x00\x80?\x00\x00\x80?\x00\x00\x80?\x00\x00\x80?\x00\x00\x80?\x00\x00\x80?\x00\x00\x80?\x00\x00\x80?\x00\x00\x80?\x00\x00\x80?\x00\x00\x80?\x00\x00\x80?\x00\x00\x80?\x00\x00\x80?\x00\x00\x80?\x00\x00\x80?\x00\x00\x80?\x00\x00\x80?\x00\x00\x80?\x00\x00\x80?\x00\x00\x80?\x00\x00\x80?\x00\x00\x80?\x00\x00\x80?\x00\x00\x80?\x00\x00\x80?\x00\x00\x80?\x00\x00\x80?\x00\x00\x80?\x00\x00\x80?\x00\x00\x80?\x00\x00\x80?\x00\x00\x80?\x00\x00\x80?\x00\x00\x80?\x00\x00\x80?\x00\x00\x80?\x00\x00\x80?\x00\x00\x80?\x00\x00\x80?\x00\x00\x80?\x00\x00\x80?\x00\x00\x80?\x00\x00\x80?\x00\x00\x80?\x00\x00\x80?\x00\x00\x80?\x00\x00\x80?\x00\x00\x80?\x00\x00\x80?\x00\x00\x80?\x00\x00\x80?\x00\x00\x80?\x00\x00\x80?\x00\x00\x80?\x00\x00\x80?\x00\x00\x80?\x00\x00\x80?\x00\x00\x80?\x00\x00\x80?\x00\x00\x80?\x00\x00\x80?\x00\x00\x80?\x00\x00\x80?\x00\x00\x80?\x00\x00\x80?\x00\x00\x80?\x00\x00\x80?\x00\x00\x80?\x00\x00\x80?\x00\x00\x00\x00\x00\x00\x80?\x00\x00\x80?\x00\x00\x80?\x00\x00\x80?\x00\x00\x80?\x00\x00\x80?\x00\x00\x80?\x00\x00\x80?\x00\x00\x80?\x00\x00\x80?\x00\x00\x80?\x00\x00\x80?\x00\x00\x80?\x00\x00\x80?\x00\x00\x80?\x00\x00\x80?\x00\x00\x80?\x00\x00\x80?\x00\x00\x80?\x00\x00\x80?\x00\x00\x80?\x00\x00\x80?\x00\x00\x80?\x00\x00\x80?\x00\x00\x80?\x00\x00\x80?\x00\x00\x80?\x00\x00\x80?\x00\x00\x80?\x00\x00\x80?\x00\x00\x80?\x00\x00\x80?\x00\x00\x80?\x00\x00\x80?\x00\x00\x80?\x00\x00\x80?\x00\x00\x80?\x00\x00\x80?\x00\x00\x80?\x00\x00\x80?\x00\x00\x80?\x00\x00\x80?\x00\x00\x80?\x00\x00\x80?\x00\x00\x80?\x00\x00\x80?\x00\x00\x80?\x00\x00\x80?\x00\x00\x80?\x00\x00\x80?\x00\x00\x80?\x00\x00\x80?\x00\x00\x80?\x00\x00\x80?\x00\x00\x80?\x00\x00\x80?\x00\x00\x80?\x00\x00\x80?\x00\x00\x80?\x00\x00\x80?\x00\x00\x80?\x00\x00\x80?\x00\x00\x80?\x00\x00\x80?\x00\x00\x80?\x00\x00\x80?\x00\x00\x80?\x00\x00\x80?\x00\x00\x80?\x00\x00\x80?\x00\x00\x80?\x00\x00\x80?\x00\x00\x80?\x00\x00\x80?\x00\x00\x80?\x00\x00\x80?\x00\x00\x80?\x00\x00\x80?\x00\x00\x80?\x00\x00\x80?\x00\x00\x80?\x00\x00\x80?\x00\x00\x80?\x00\x00\x80?\x00\x00\x80?\x00\x00\x80?\x00\x00\x80?\x00\x00\x80?\x00\x00\x80?\x00\x00\x80?\x00\x00\x80?\x00\x00\x80?\x00\x00\x80?\x00\x00\x80?\x00\x00\x80?\x00\x00\x80?\x00\x00\x80?\x00\x00\x80?\x00\x00\x80?\x00\x00\x80?\x00\x00\x80?\x00\x00\x80?\x00\x00\x80?\x00\x00\x80?\x00\x00\x80?\x00\x00\x80?\x00\x00\x80?\x00\x00\x80?\x00\x00\x80?\x00\x00\x00\x00\x00\x00\x80?\x00\x00\x80?\x00\x00\x80?\x00\x00\x80?\x00\x00\x80?\x00\x00\x80?\x00\x00\x80?\x00\x00\x80?\x00\x00\x80?\x00\x00\x80?\x00\x00\x80?\x00\x00\x80?\x00\x00\x80?\x00\x00\x80?\x00\x00\x80?\x00\x00\x80?\x00\x00\x80?\x00\x00\x80?\x00\x00\x80?\x00\x00\x80?\x00\x00\x80?\x00\x00\x80?\x00\x00\x80?\x00\x00\x80?\x00\x00\x80?\x00\x00\x80?\x00\x00\x80?\x00\x00\x80?\x00\x00\x80?\x00\x00\x80?\x00\x00\x80?\x00\x00\x80?\x00\x00\x80?\x00\x00\x80?\x00\x00\x80?\x00\x00\x80?\x00\x00\x80?\x00\x00\x80?\x00\x00\x80?\x00\x00\x80?\x00\x00\x80?\x00\x00\x80?\x00\x00\x80?\x00\x00\x80?\x00\x00\x80?\x00\x00\x80?\x00\x00\x80?\x00\x00\x80?\x00\x00\x80?\x00\x00\x80?\x00\x00\x80?\x00\x00\x80?\x00\x00\x80?\x00\x00\x80?\x00\x00\x00\x00'
S'\x00\x00\x00\x00\x00\x00\x00\x00\x00\x00\x00\x00\x00\x00\x00\x00\x00\x00\x00\x00\x00\x00\x00\x00\x00\x00\x00\x00\x00\x00\x00\x00\x00\x00\x00\x00\x00\x00\x00\x00\x00\x00\x00\x00\x00\x00\x00\x00\x00\x00\x00\x00\x00\x00\x00\x00\x00\x00\x00\x00\x00\x00\x00\x00\x00\x00\x00\x00\x00\x00\x00\x00\x00\x00\x00\x00\x00\x00\x00\x00\x00\x00\x00\x00\x00\x00\x00\x00\x00\x00\x00\x00\x00\x00\x00\x00\x00\x00\x00\x00\x00\x00\x00\x00\x00\x00\x00\x00\x00\x00\x00\x00\x00\x00\x00\x00\x00\x00\x00\x00\x00\x00\x00\x00\x00\x00\x00\x00\x00\x00\x00\x00\x00\x00\x00\x00\x00\x00\x00\x00\x00\x00\x00\x00\x00\x00\x00\x00\x00\x00\x00\x00\x00\x00\x00\x00\x00\x00\x00\x00\x00\x00\x00\x00\x00\x00\x00\x00\x00\x00\x00\x00\x00\x00\x00\x00\x00\x00\x00\x00\x00\x00\x00\x00\x00\x00\x00\x00\x00\x00\x00\x00\x00\x00\x00\x00\x00\x00\x00\x00\x00\x00\x00\x00\x00\x00\x00\x00\x00\x00\x00\x00\x00\x00\x00\x00\x00\x00\x00\x00\x00\x00\x00\x00\x00\x00\x00\x00\x00\x00\x00\x00\x00\x00\x00\x00\x00\x00\x00\x00\x00\x00\x00\x00\x00\x00\x00\x00\x00\x00\x00\x00\x00\x00\x00\x00\x00\x00\x00\x00\x00\x00\x00\x00\x00\x00\x00\x00\x00\x00\x00\x00\x00\x00\x00\x00\x00\x00\x00\x00\x00\x00\x00\x00\x00\x00\x00\x00\x00\x00\x00\x00\x00\x00\x00\x00\x00\x00\x00\x00\x00\x00\x00\x00\x00\x00\x00\x00\x00\x00\x00\x00\x00\x00\x00\x00\x00\x00\x00\x00\x00\x00\x00\x00\x00\x00\x00\x00\x00\x00\x00\x00\x00\x00\x00\x00\x00\x00\x00\x00\x00\x00\x00\x00\x00\x00\x00\x00\x00\x00\x00\x00\x00\x00\x00\x00\x00\x00\x00\x00\x00\x00\x00\x00\x00\x00\x00\x00\x00\x00\x00\x00\x00\x00\x00\x00\x00\x00\x00\x00\x00\x00\x00\x00\x00\x00\x00\x00\x00\x00\x00\x00\x00\x00\x00\x00\x00\x00\x00\x00\x00\x00\x00\x00\x00\x00\x00\x00\x00\x00\x00\x00\x00\x00\x00\x00\x00\x00\x00\x00\x00\x00\x00\x00\x00\x00\x00\x00\x00\x00\x00\x00\x00\x00\x00\x00\x00\x00\x00\x00\x00\x00\x00\x00\x00\x00\x00\x00\x00\x00\x00\x00\x00\x00\x00\x00\x00\x00\x00\x00\x00\x00\x00\x00\x00\x00\x00\x00\x00\x00\x00\x00\x00\x00\x00\x00\x00\x00\x00\x00\x00\x00\x00\x00\x00\x00\x00\x00\x00\x00\x00\x00\x00\x00\x00\x00\x00\x00\x00\x00\x00\x00\x00\x00\x00\x00\x00\x00\x00\x00\x00\x00\x00\x00\x00\x00\x00\x00\x00\x00\x00\x00\x00\x00\x00\x00\x00\x00\x00\x00\x00\x00\x00\x00\x00\x00\x00\x00\x00\x00\x00\x00\x00\x00\x00\x00\x00\x00\x00\x00\x00\x00\x00\x00\x00\x00\x00\x00\x00\x00\x00\x00\x00\x00\x00\x00\x00\x00\x00\x00\x00\x00\x00\x00\x00\x00\x00\x00\x00\x00\x00\x00\x00\x00\x00\x00\x00\x00\x00\x00\x00\x00\x00\x00\x00\x00\x00\x00\x00\x00\x00\x00\x00\x00\x00'
NtbsS'order'
p55
g48
(g49
g50
g51
S'b'
tRp56
(I1
(I11
I55
tg54
I00
S'\x00\x00\x00\x00\x00\x00\x90A\x00\x00\x00B\x00\x00\x04B\x00\x00xB\x00\x00\x84B\x00\x00\xbcB\x00\x00\xc0B\x00\x00\xc6B\x00\x00\xcaB\x00\x00\xd4B\x00\x00\xe8B\x00\x00\x08C\x00\x00\x0bC\x00\x00\'C\x00\x00TC\x00\x00WC\x00\x00ZC\x00\x00[C\x00\x00gC\x00\x00hC\x00\x00\x80C\x00\x80\x85C\x00\x00\x8aC\x00\x80\x8eC\x00\x00\x8fC\x00\x00\x94C\x00\x00\x98C\x00\x80\x9dC\x00\x00\xa6C\x00\x80\xa6C\x00\x80\xa8C\x00\x00\xa9C\x00\x00\xb0C\x00\x80\xbbC\x00\x00\xbcC\x00\x00\xc9C\x00\x80\xceC\x00\x00\xd0C\x00\x00\xd3C\x00\x00\xd6C\x00\x00\xe1C\x00\x80\xe3C\x00\x80\xe4C\x00\x80\xe7C\x00\x80\xeaC\x00\x00\xebC\x00\x80\xebC\x00\x80\xf1C\x00\x80\xfbC\x00\x00\xfcC\x00\x80\x04D\x00@\x06D\x00\x80\nD\x00\xc0\x11D\x00\x00 A\x00\x00@B\x00\x00tB\x00\x00|B\x00\x00\x86B\x00\x00\x90B\x00\x00\x9cB\x00\x00\xa2B\x00\x00\xb6B\x00\x00\xc2B\x00\x00\xdcB\x00\x00\xdeB\x00\x00\xf8B\x00\x00\x11C\x00\x00 C\x00\x008C\x00\x00JC\x00\x00UC\x00\x00nC\x00\x00\x81C\x00\x80\x83C\x00\x80\x8aC\x00\x00\x90C\x00\x00\x95C\x00\x80\x99C\x00\x80\x9fC\x00\x00\xa4C\x00\x00\xa5C\x00\x80\xaeC\x00\x00\xafC\x00\x80\xafC\x00\x80\xb0C\x00\x80\xb4C\x00\x80\xb7C\x00\x00\xbeC\x00\x00\xcdC\x00\x80\xd3C\x00\x80\xd7C\x00\x00\xdbC\x00\x00\xe2C\x00\x00\xeaC\x00\x80\xf2C\x00\x00\x00D\x00@\x00D\x00\x80\x00D\x00\x80\x01D\x00\x80\x03D\x00\xc0\x04D\x00\x00\nD\x00\x80\x0cD\x00\xc0\x0eD\x00@\x0fD\x00\xc0\x12D\x00\x00\x15D\x00@\x15D\x00\x00@@\x00\x00\xc8A\x00\x00 B\x00\x00$B\x00\x00<B\x00\x00\x80B\x00\x00\x94B\x00\x00\xd6B\x00\x00\xfeB\x00\x00\x05C\x00\x00\nC\x00\x00\x16C\x00\x00\x18C\x00\x00\x1dC\x00\x00!C\x00\x00&C\x00\x009C\x00\x00@C\x00\x00DC\x00\x00FC\x00\x00\\C\x00\x00iC\x00\x00}C\x00\x80\x89C\x00\x00\x8bC\x00\x80\x8cC\x00\x00\x8eC\x00\x80\x8fC\x00\x00\x92C\x00\x80\x92C\x00\x00\x93C\x00\x80\x95C\x00\x00\x97C\x00\x00\x9dC\x00\x80\xa5C\x00\x00\xabC\x00\x80\xb9C\x00\x80\xbaC\x00\x00\xcaC\x00\x80\xcaC\x00\x00\xcbC\x00\x00\xcfC\x00\x80\xd6C\x00\x80\xe8C\x00\x80\xefC\x00\x00\xf4C\x00\x00\xf6C\x00\x00\x03D\x00@\x0cD\x00@\rD\x00\x80\rD\x00\xc0\rD\x00\x80\x0eD\x00@\x11D\x00@\x12D\x00\x00\xe0@\x00\x00\xa0A\x00\x00\x14B\x00\x00LB\x00\x00`B\x00\x00\x88B\x00\x00\xb4B\x00\x00\tC\x00\x00\x0cC\x00\x00\rC\x00\x00\x12C\x00\x00\x17C\x00\x00"C\x00\x00$C\x00\x00%C\x00\x00*C\x00\x00+C\x00\x000C\x00\x00^C\x00\x00_C\x00\x00rC\x00\x00uC\x00\x00zC\x00\x00\x89C\x00\x80\x8bC\x00\x00\x8cC\x00\x80\x8dC\x00\x80\x90C\x00\x00\x91C\x00\x80\x97C\x00\x00\xa8C\x00\x00\xc0C\x00\x80\xc4C\x00\x00\xc6C\x00\x00\xc7C\x00\x80\xcbC\x00\x00\xceC\x00\x00\xd7C\x00\x00\xd8C\x00\x80\xdbC\x00\x00\xdeC\x00\x00\xe7C\x00\x80\xeeC\x00\x80\xf7C\x00\xc0\x00D\x00\x00\x01D\x00\xc0\x02D\x00\xc0\x07D\x00@\tD\x00\x80\tD\x00@\nD\x00@\x0eD\x00\x00\x0fD\x00\x80\x13D\x00\xc0\x14D\x00\x00\xb0A\x00\x00\x18B\x00\x004B\x00\x00\xa4B\x00\x00\xaeB\x00\x00\xb8B\x00\x00\xc4B\x00\x00\xd2B\x00\x00\xdaB\x00\x00\x01C\x00\x00\x07C\x00\x00\x14C\x00\x00\x15C\x00\x00,C\x00\x00.C\x00\x004C\x00\x00EC\x00\x00LC\x00\x00MC\x00\x00QC\x00\x00SC\x00\x00XC\x00\x00]C\x00\x00fC\x00\x00sC\x00\x00vC\x00\x00\x82C\x00\x00\x88C\x00\x80\x91C\x00\x80\x9eC\x00\x80\xabC\x00\x80\xadC\x00\x00\xaeC\x00\x00\xb2C\x00\x80\xb6C\x00\x80\xb8C\x00\x00\xb9C\x00\x80\xc5C\x00\x80\xc8C\x00\x80\xd8C\x00\x80\xdfC\x00\x80\xe1C\x00\x00\xe3C\x00\x00\xe5C\x00\x00\xf1C\x00\x80\xf4C\x00\x80\xf5C\x00\x00\xf9C\x00\xc0\x05D\x00\xc0\x06D\x00\xc0\x08D\x00\x00\x0bD\x00\xc0\x10D\x00\x00\x00\x00\x00\x00\x00\x00\x00\x00\x00A\x00\x00\x10B\x00\x00\x1cB\x00\x00\x96B\x00\x00\x98B\x00\x00\xc8B\x00\x00\xe6B\x00\x00\xf0B\x00\x00\x02C\x00\x00\x04C\x00\x00\x1aC\x00\x00\x1cC\x00\x00\x1eC\x00\x00)C\x00\x00/C\x00\x00<C\x00\x00=C\x00\x00>C\x00\x00IC\x00\x00aC\x00\x00bC\x00\x00cC\x00\x00yC\x00\x80\x81C\x00\x00\x87C\x00\x80\x87C\x00\x00\x8dC\x00\x00\x99C\x00\x00\x9aC\x00\x80\xa2C\x00\x00\xa7C\x00\x00\xadC\x00\x80\xb5C\x00\x80\xbcC\x00\x80\xc1C\x00\x80\xc9C\x00\x80\xccC\x00\x80\xd2C\x00\x80\xd4C\x00\x80\xd5C\x00\x00\xdaC\x00\x80\xdaC\x00\x80\xddC\x00\x00\xecC\x00\x00\xf3C\x00\x00\xf5C\x00\x80\xf6C\x00\x00\xfdC\x00\x80\xfdC\x00\xc0\x03D\x00\x80\x07D\x00\x80\x0fD\x00@\x10D\x00\x00\x13D\x00@\x14D\x00\x00\x80@\x00\x00\xa8A\x00\x00\xe8A\x00\x000B\x00\x008B\x00\x00dB\x00\x00\xbeB\x00\x00\xe2B\x00\x00\xf2B\x00\x00\xfaB\x00\x00\x10C\x00\x00\x13C\x00\x007C\x00\x00;C\x00\x00?C\x00\x00NC\x00\x00tC\x00\x00wC\x00\x00xC\x00\x00\x83C\x00\x80\x96C\x00\x80\x9bC\x00\x00\xa1C\x00\x80\xa1C\x00\x00\xa2C\x00\x80\xaaC\x00\x80\xacC\x00\x80\xb1C\x00\x80\xb2C\x00\x00\xbaC\x00\x00\xbbC\x00\x80\xbdC\x00\x00\xc2C\x00\x80\xc2C\x00\x80\xc3C\x00\x00\xc5C\x00\x80\xc6C\x00\x80\xcfC\x00\x80\xd1C\x00\x00\xd2C\x00\x00\xd5C\x00\x00\xe0C\x00\x80\xedC\x00\x00\xf2C\x00\x00\xfbC\x00\x00\xfeC\x00\x80\xffC\x00\x00\x06D\x00@\x07D\x00@\x08D\x00\xc0\tD\x00@\x0bD\x00\x80\x0bD\x00\x80\x10D\x00\xc0\x15D\x00\x00\x00@\x00\x000A\x00\x00pA\x00\x00\x80A\x00\x00\x88A\x00\x00\xd8A\x00\x00\xe0A\x00\x00\x08B\x00\x00PB\x00\x00\\B\x00\x00hB\x00\x00lB\x00\x00pB\x00\x00\x92B\x00\x00\xacB\x00\x00\xfcB\x00\x00\x0fC\x00\x00\x1bC\x00\x006C\x00\x00HC\x00\x00KC\x00\x00dC\x00\x00eC\x00\x00kC\x00\x00{C\x00\x00\x96C\x00\x00\x9cC\x00\x80\x9cC\x00\x80\xa0C\x00\x80\xa4C\x00\x00\xb3C\x00\x00\xb6C\x00\x00\xb7C\x00\x00\xbfC\x00\x00\xc1C\x00\x80\xc7C\x00\x00\xd9C\x00\x00\xdcC\x00\x00\xddC\x00\x00\xdfC\x00\x00\xe4C\x00\x80\xe6C\x00\x00\xe8C\x00\x00\xedC\x00\x00\xf0C\x00\x00\xf7C\x00\x80\xf8C\x00\x00\xfaC\x00\x80\xfaC\x00\x00\x02D\x00\x00\tD\x00\x00\rD\x00\x00\x0eD\x00\x80\x14D\x00\x00\x00\x00\x00\x00\xa0@\x00\x00\x10A\x00\x00PA\x00\x00\xc0A\x00\x00\xf8A\x00\x00,B\x00\x00XB\x00\x00\x82B\x00\x00\x9eB\x00\x00\xa0B\x00\x00\xa8B\x00\x00\xaaB\x00\x00\xf6B\x00\x00\x19C\x00\x00\x1fC\x00\x00(C\x00\x005C\x00\x00PC\x00\x00YC\x00\x00lC\x00\x00mC\x00\x00pC\x00\x80\x80C\x00\x00\x84C\x00\x80\x84C\x00\x00\x85C\x00\x80\x86C\x00\x80\x93C\x00\x80\x94C\x00\x80\x9aC\x00\x00\x9bC\x00\x00\xa3C\x00\x80\xa3C\x00\x80\xa9C\x00\x80\xb3C\x00\x00\xb4C\x00\x80\xbfC\x00\x00\xc4C\x00\x00\xccC\x00\x00\xd1C\x00\x00\xd4C\x00\x80\xd9C\x00\x80\xe0C\x00\x80\xe5C\x00\x00\xefC\x00\x80\xf0C\x00\xc0\x01D\x00\x80\x02D\x00@\x05D\x00\xc0\nD\x00\x00\x0cD\x00\xc0\x0fD\x00\x80\x12D\x00@\x13D\x00\xc0\x13D\x00\x00\x80?\x00\x00\xc0@\x00\x00\x98A\x00\x00\xf0A\x00\x00\x0cB\x00\x00(B\x00\x00\x9aB\x00\x00\xb0B\x00\x00\xb2B\x00\x00\xbaB\x00\x00\xceB\x00\x00\xd0B\x00\x00\xd8B\x00\x00\xe0B\x00\x00\xf4B\x00\x00\x00C\x00\x00\x03C\x00\x001C\x00\x003C\x00\x00:C\x00\x00RC\x00\x00jC\x00\x00qC\x00\x80\x88C\x00\x80\x98C\x00\x00\x9eC\x00\x00\x9fC\x00\x00\xa0C\x00\x80\xa7C\x00\x00\xaaC\x00\x00\xb1C\x00\x00\xb5C\x00\x80\xbeC\x00\x80\xc0C\x00\x80\xcdC\x00\x80\xdcC\x00\x80\xe2C\x00\x80\xe9C\x00\x80\xecC\x00\x80\xf9C\x00\x80\xfeC\x00@\x01D\x00@\x02D\x00@\x03D\x00\x00\x04D\x00\x80\x06D\x00\x00\x07D\x00\x80\x08D\x00\xc0\x0bD\x00\xc0\x0cD\x00\x00\x10D\x00\x00\x11D\x00\x80\x11D\x00\x00\x14D\x00\x00\x00\x00\x00\x00@A\x00\x00`A\x00\x00\xb8A\x00\x00\xd0A\x00\x00DB\x00\x00HB\x00\x00TB\x00\x00\x8aB\x00\x00\x8cB\x00\x00\x8eB\x00\x00\xa6B\x00\x00\xccB\x00\x00\xe4B\x00\x00\xeaB\x00\x00\xecB\x00\x00\xeeB\x00\x00\x06C\x00\x00\x0eC\x00\x00#C\x00\x00-C\x00\x002C\x00\x00AC\x00\x00BC\x00\x00CC\x00\x00GC\x00\x00OC\x00\x00VC\x00\x00`C\x00\x00oC\x00\x00|C\x00\x00~C\x00\x00\x7fC\x00\x80\x82C\x00\x00\x86C\x00\x00\xacC\x00\x00\xb8C\x00\x00\xbdC\x00\x00\xc3C\x00\x00\xc8C\x00\x80\xd0C\x00\x80\xdeC\x00\x00\xe6C\x00\x00\xe9C\x00\x00\xeeC\x00\x80\xf3C\x00\x00\xf8C\x00\x80\xfcC\x00\x00\xffC\x00@\x04D\x00\x00\x05D\x00\x80\x05D\x00\x00\x08D\x00\x00\x12D\x00\x80\x15D\x00\x00\x00\x00'
S'\x00\x00\x00\x00\x00\x00\x00\x00\x00\x00\x00\x00\x00\x00\x00\x00\x00\x00\x00\x00\x00\x00\x00\x00\x00\x00\x00\x00\x00\x00\x00\x00\x00\x00\x00\x00\x00\x00\x00\x00\x00\x00\x00\x00\x00\x00\x00\x00\x00\x00\x00\x00\x00\x00\x00\x00\x00\x00\x00\x00\x00\x00\x00\x00\x00\x00\x00\x00\x00\x00\x00\x00\x00\x00\x00\x00\x00\x00\x00\x00\x00\x00\x00\x00\x00\x00\x00\x00\x00\x00\x00\x00\x00\x00\x00\x00\x00\x00\x00\x00\x00\x00\x00\x00\x00\x00\x00\x00\x00\x00\x00\x00\x00\x00\x00\x00\x00\x00\x00\x00\x00\x00\x00\x00\x00\x00\x00\x00\x00\x00\x00\x00\x00\x00\x00\x00\x00\x00\x00\x00\x00\x00\x00\x00\x00\x00\x00\x00\x00\x00\x00\x00\x00\x00\x00\x00\x00\x00\x00\x00\x00\x00\x00\x00\x00\x00\x00\x00\x00\x00\x00\x00\x00\x00\x00\x00\x00\x00\x00\x00\x00\x00\x00\x00\x00\x00\x00\x00\x00\x00\x00\x00\x00\x00\x00\x00\x00\x00\x00\x00\x00\x00\x00\x00\x00\x00\x00\x00\x00\x00\x00\x00\x00\x00\x00\x00\x00\x00\x00\x00\x00\x00\x00\x00\x00\x00\x00\x00\x00\x00\x00\x00\x00\x00\x00\x00\x00\x00\x00\x00\x00\x00\x00\x00\x00\x00\x00\x00\x00\x00\x00\x00\x00\x00\x00\x00\x00\x00\x00\x00\x00\x00\x00\x00\x00\x00\x00\x00\x00\x00\x00\x00\x00\x01\x01\x00\x00\x00\x00\x00\x00\x00\x00\x00\x00\x00\x00\x00\x00\x00\x00\x00\x00\x00\x00\x00\x00\x00\x00\x00\x00\x00\x00\x00\x00\x00\x00\x00\x00\x00\x00\x00\x00\x00\x00\x00\x00\x00\x00\x00\x00\x00\x00\x00\x00\x00\x00\x00\x00\x00\x00\x00\x00\x00\x00\x00\x00\x00\x00\x00\x00\x00\x00\x00\x00\x00\x00\x00\x00\x00\x00\x00\x00\x00\x00\x00\x00\x00\x00\x00\x00\x00\x00\x00\x00\x00\x00\x00\x00\x00\x00\x00\x00\x00\x00\x00\x00\x00\x00\x00\x00\x00\x00\x00\x00\x00\x00\x00\x00\x00\x00\x00\x00\x00\x00\x00\x00\x00\x00\x00\x00\x00\x00\x00\x00\x00\x00\x00\x00\x00\x00\x00\x00\x00\x00\x00\x00\x00\x00\x00\x00\x00\x00\x00\x00\x00\x00\x00\x00\x00\x00\x00\x00\x00\x00\x00\x00\x00\x00\x01\x00\x00\x00\x00\x00\x00\x00\x00\x00\x00\x00\x00\x00\x00\x00\x00\x00\x00\x00\x00\x00\x00\x00\x00\x00\x00\x00\x00\x00\x00\x00\x00\x00\x00\x00\x00\x00\x00\x00\x00\x00\x00\x00\x00\x00\x00\x00\x00\x00\x00\x00\x00\x00\x00\x00\x00\x00\x00\x00\x00\x00\x00\x00\x00\x00\x00\x00\x00\x00\x00\x00\x00\x00\x00\x00\x00\x00\x00\x00\x00\x00\x00\x00\x00\x00\x00\x00\x00\x00\x00\x00\x00\x00\x00\x00\x00\x00\x00\x00\x00\x00\x00\x00\x00\x00\x00\x00\x00\x00\x01\x00\x00\x00\x00\x00\x00\x00\x00\x00\x00\x00\x00\x00\x00\x00\x00\x00\x00\x00\x00\x00\x00\x00\x00\x00\x00\x00\x00\x00\x00\x00\x00\x00\x00\x00\x00\x00\x00\x00\x00\x00\x00\x00\x00\x00\x00\x00\x00\x00\x00\x00\x00\x00\x00\x01'
NtbstRp57
(dp58
S'isNumeric'
p59
(dp60
g47
I01
sg55
I01
ssS'trials'
p61
g36
sS'dataTypes'
p62
(lp63
g47
ag55
asS'dataShape'
p64
(lp65
I11
aI55
asbsS'method'
p66
S'fullRandom'
p67
sS'sequenceIndices'
p68
cnumpy.core.multiarray
_reconstruct
p69
(g50
(I0
tS'b'
tRp70
(I1
(I11
I55
tg53
(S'O4'
I0
I1
tRp71
(I3
S'|'
NNNI-1
I-1
I63
tbI00
(lp72
I0
aI7
aI4
aI0
aI6
aI7
aI0
aI9
aI9
aI0
aI1
aI6
aI5
aI7
aI5
aI3
aI3
aI6
aI2
aI4
aI2
aI0
aI3
aI2
aI8
aI2
aI0
aI8
aI5
aI1
aI1
aI6
aI0
aI5
aI6
aI9
aI3
aI3
aI8
aI2
aI7
aI4
aI3
aI9
aI6
aI3
aI5
aI9
aI9
aI4
aI3
aI2
aI3
aI0
aI7
aI9
aI10
aI10
aI7
aI4
aI3
aI1
aI1
aI9
aI5
aI1
aI9
aI2
aI6
aI7
aI2
aI9
aI5
aI10
aI9
aI4
aI0
aI4
aI10
aI8
aI0
aI2
aI1
aI8
aI9
aI2
aI2
aI1
aI7
aI0
aI7
aI6
aI8
aI6
aI3
aI9
aI1
aI0
aI7
aI1
aI10
aI5
aI1
aI10
aI9
aI6
aI1
aI1
aI10
aI3
aI7
aI8
aI8
aI9
aI6
aI6
aI3
aI8
aI3
aI0
aI9
aI8
aI10
aI1
aI5
aI0
aI10
aI5
aI7
aI4
aI3
aI2
aI6
aI10
aI8
aI1
aI1
aI2
aI8
aI7
aI0
aI4
aI9
aI4
aI0
aI5
aI3
aI5
aI6
aI1
aI7
aI9
aI7
aI6
aI5
aI7
aI6
aI8
aI0
aI6
aI1
aI9
aI5
aI2
aI1
aI2
aI10
aI2
aI5
aI2
aI7
aI10
aI8
aI1
aI10
aI6
aI1
aI4
aI3
aI2
aI8
aI9
aI5
aI5
aI0
aI3
aI9
aI3
aI0
aI0
aI2
aI3
aI7
aI6
aI6
aI0
aI10
aI6
aI7
aI5
aI6
aI7
aI1
aI5
aI3
aI5
aI4
aI2
aI10
aI10
aI4
aI9
aI7
aI1
aI5
aI3
aI7
aI8
aI8
aI1
aI6
aI7
aI10
aI3
aI1
aI7
aI10
aI1
aI4
aI9
aI10
aI6
aI0
aI6
aI5
aI5
aI4
aI6
aI1
aI1
aI10
aI7
aI4
aI8
aI10
aI3
aI3
aI6
aI7
aI6
aI5
aI6
aI4
aI1
aI10
aI6
aI10
aI9
aI0
aI4
aI3
aI0
aI10
aI3
aI2
aI9
aI10
aI9
aI10
aI3
aI0
aI2
aI9
aI1
aI10
aI8
aI7
aI7
aI4
aI10
aI7
aI10
aI4
aI9
aI9
aI5
aI7
aI3
aI4
aI8
aI3
aI8
aI2
aI7
aI10
aI5
aI8
aI6
aI1
aI8
aI3
aI4
aI2
aI7
aI6
aI9
aI5
aI6
aI10
aI6
aI10
aI4
aI3
aI1
aI7
aI10
aI7
aI9
aI8
aI4
aI7
aI6
aI8
aI8
aI10
aI8
aI2
aI5
aI5
aI6
aI9
aI7
aI7
aI5
aI10
aI1
aI1
aI10
aI0
aI4
aI0
aI2
aI2
aI4
aI1
aI3
aI7
aI10
aI4
aI0
aI5
aI8
aI6
aI5
aI5
aI2
aI2
aI3
aI2
aI5
aI3
aI4
aI7
aI4
aI1
aI6
aI0
aI0
aI8
aI8
aI7
aI0
aI1
aI2
aI5
aI7
aI1
aI3
aI10
aI6
aI4
aI2
aI6
aI8
aI7
aI3
aI0
aI6
aI2
aI3
aI0
aI7
aI8
aI6
aI0
aI10
aI9
aI0
aI2
aI2
aI4
aI6
aI10
aI4
aI4
aI5
aI1
aI5
aI4
aI5
aI5
aI2
aI0
aI0
aI8
aI0
aI4
aI8
aI4
aI9
aI8
aI5
aI2
aI5
aI5
aI4
aI4
aI0
aI7
aI4
aI6
aI1
aI2
aI4
aI9
aI6
aI7
aI4
aI3
aI4
aI5
aI9
aI9
aI2
aI7
aI1
aI2
aI8
aI0
aI2
aI10
aI4
aI3
aI3
aI3
aI10
aI1
aI10
aI6
aI8
aI7
aI10
aI3
aI10
aI4
aI3
aI2
aI9
aI9
aI8
aI0
aI1
aI8
aI2
aI7
aI3
aI2
aI6
aI6
aI5
aI6
aI8
aI0
aI8
aI2
aI0
aI1
aI9
aI6
aI4
aI6
aI3
aI9
aI8
aI4
aI8
aI3
aI8
aI9
aI10
aI2
aI5
aI7
aI1
aI9
aI10
aI5
aI3
aI2
aI10
aI4
aI2
aI2
aI10
aI0
aI7
aI8
aI7
aI6
aI9
aI2
aI8
aI5
aI4
aI1
aI8
aI1
aI1
aI6
aI8
aI6
aI2
aI0
aI5
aI1
aI8
aI10
aI0
aI4
aI5
aI0
aI3
aI1
aI0
aI7
aI9
aI2
aI2
aI9
aI10
aI1
aI6
aI0
aI8
aI8
aI8
aI5
aI4
aI4
aI4
aI5
aI9
aI10
aI8
aI3
aI5
aI9
aI4
aI8
aI0
aI4
aI9
aI10
aI1
aI3
aI0
aI0
aI1
aI9
aI7
aI9
aI1
aI9
aI2
aI3
aI4
aI2
aI10
aI0
aI3
aI0
aI7
aI5
aI0
aI7
aI10
aI3
aI5
aI9
aI3
aI8
aI1
aI9
aI5
aI9
atbsS'finished'
p73
I00
sS'nReps'
p74
I55
sS'nRemaining'
p75
I5
sS'trialList'
p76
(lp77
I0
aI1
aI2
aI3
aI4
aI5
aI6
aI7
aI8
aI9
aI10
asS'seed'
p78
NsS'thisIndex'
p79
I6
sS'thisN'
p80
I599
sS'thisTrialN'
p81
I5
sS'nTotal'
p82
I605
sS'_warnUseOfNext'
p83
I01
sbasS'saveWideText'
p84
I00
sS'thisEntry'
p85
(dp86
sS'version'
p87
S''
sS'_paramNamesSoFar'
p88
(lp89
sS'entries'
p90
(lp91
(dp92
S'.thisTrial'
p93
I0
sS'.thisN'
p94
I0
sg30
Vf
sg31
g32
sS'.thisTrialN'
p95
I0
sS'.thisRepN'
p96
I0
sS'.thisIndex'
p97
I0
sg15
Nsg16
S'Timed out'
p98
sg14
I1
sa(dp99
g93
I9
sS'.thisN'
p100
I1
sg30
Vf
sg31
g32
sS'.thisTrialN'
p101
I1
sS'.thisRepN'
p102
I0
sS'.thisIndex'
p103
I9
sg15
Nsg16
g98
sg14
I1
sa(dp104
g17
S'Y'
sS'.thisRepN'
p105
I0
sg19
S'N'
sg31
g32
sS'.thisTrialN'
p106
I2
sS'.thisN'
p107
I2
sS'.thisIndex'
p108
I7
sg15
Nsg30
Vf
sg16
g98
sg14
I1
sg18
Nsg93
I7
sa(dp109
g20
(lp110
S'd'
asg17
S'N'
sS'.thisRepN'
p111
I0
sg19
S'Y'
sg31
g32
sS'.thisTrialN'
p112
I3
sS'.thisN'
p113
I3
sS'.thisIndex'
p114
I2
sg15
(lp115
S'd'
asg30
Vf
sg16
S'Y'
sg14
I1
sg18
Nsg93
I2
sa(dp116
g20
(lp117
S'd'
asg17
S'Y'
sS'.thisRepN'
p118
I0
sg19
S'N'
sg31
g32
sS'.thisTrialN'
p119
I4
sS'.thisN'
p120
I4
sS'.thisIndex'
p121
I6
sg15
(lp122
S'd'
asg30
Vf
sg16
S'Y'
sg14
I1
sg18
Nsg93
I6
sa(dp123
g20
(lp124
S'd'
asg17
S'N'
sS'.thisRepN'
p125
I0
sg19
S'Y'
sg31
g32
sS'.thisTrialN'
p126
I5
sS'.thisN'
p127
I5
sS'.thisIndex'
p128
I8
sg15
(lp129
S'k'
asg30
Vf
sg16
S'N'
sg14
I1
sg18
Nsg93
I8
sa(dp130
g20
(lp131
S'k'
asg17
S'N'
sS'.thisRepN'
p132
I0
sg19
S'Y'
sg31
g32
sS'.thisTrialN'
p133
I6
sS'.thisN'
p134
I6
sS'.thisIndex'
p135
I9
sg15
(lp136
S'd'
asg30
Vf
sg16
S'N'
sg14
I1
sg18
Nsg93
I9
sa(dp137
g20
(lp138
S'd'
asg17
S'N'
sS'.thisRepN'
p139
I0
sg19
S'Y'
sg31
g32
sS'.thisTrialN'
p140
I7
sS'.thisN'
p141
I7
sS'.thisIndex'
p142
I3
sg15
(lp143
S'd'
asg30
Vf
sg16
S'Y'
sg14
I1
sg18
Nsg93
I3
sa(dp144
g20
(lp145
S'k'
asg17
S'N'
sS'.thisRepN'
p146
I0
sg19
S'Y'
sg31
g32
sS'.thisTrialN'
p147
I8
sS'.thisN'
p148
I8
sS'.thisIndex'
p149
I5
sg15
(lp150
S'k'
asg30
Vf
sg16
S'Y'
sg14
I1
sg18
Nsg93
I5
sa(dp151
g20
(lp152
S'k'
asg17
S'N'
sS'.thisRepN'
p153
I0
sg19
S'Y'
sg31
g32
sS'.thisTrialN'
p154
I9
sS'.thisN'
p155
I9
sS'.thisIndex'
p156
I8
sg15
(lp157
S'd'
asg30
Vf
sg16
S'N'
sg14
I1
sg18
Nsg93
I8
sa(dp158
g20
(lp159
S'd'
asg17
S'N'
sS'.thisRepN'
p160
I0
sg19
S'Y'
sg31
g32
sS'.thisTrialN'
p161
I10
sS'.thisN'
p162
I10
sS'.thisIndex'
p163
I1
sg15
(lp164
S'd'
asg30
Vf
sg16
S'Y'
sg14
I1
sg18
Nsg93
I1
sa(dp165
g20
(lp166
S'k'
asg17
S'Y'
sS'.thisRepN'
p167
I1
sg19
S'N'
sg31
g32
sS'.thisTrialN'
p168
I0
sS'.thisN'
p169
I11
sS'.thisIndex'
p170
I7
sg15
(lp171
S'd'
asg30
Vf
sg16
S'N'
sg14
I1
sg18
Nsg93
I7
sa(dp172
g20
(lp173
S'k'
asg17
S'N'
sS'.thisRepN'
p174
I1
sg19
S'Y'
sg31
g32
sS'.thisTrialN'
p175
I1
sS'.thisN'
p176
I12
sS'.thisIndex'
p177
I10
sg15
(lp178
S'd'
asg30
Vf
sg16
S'N'
sg14
I1
sg18
Nsg93
I10
sa(dp179
g20
(lp180
S'd'
asg17
S'Y'
sS'.thisRepN'
p181
I1
sg19
S'N'
sg31
g32
sS'.thisTrialN'
p182
I2
sS'.thisN'
p183
I13
sS'.thisIndex'
p184
I8
sg15
(lp185
S'k'
asg30
Vf
sg16
S'N'
sg14
I1
sg18
Nsg93
I8
sa(dp186
g20
(lp187
S'd'
asg17
S'N'
sS'.thisRepN'
p188
I1
sg19
S'Y'
sg31
g32
sS'.thisTrialN'
p189
I3
sS'.thisN'
p190
I14
sS'.thisIndex'
p191
I10
sg15
(lp192
S'd'
asg30
Vf
sg16
S'Y'
sg14
I1
sg18
Nsg93
I10
sa(dp193
g20
(lp194
S'd'
asg17
S'N'
sS'.thisRepN'
p195
I1
sg19
S'Y'
sg31
g32
sS'.thisTrialN'
p196
I4
sS'.thisN'
p197
I15
sS'.thisIndex'
p198
I7
sg15
(lp199
S'd'
asg30
Vf
sg16
S'Y'
sg14
I1
sg18
Nsg93
I7
sa(dp200
g20
(lp201
S'd'
asg17
S'Y'
sS'.thisRepN'
p202
I1
sg19
S'N'
sg31
g32
sS'.thisTrialN'
p203
I5
sS'.thisN'
p204
I16
sS'.thisIndex'
p205
I7
sg15
(lp206
S'k'
asg30
Vf
sg16
S'N'
sg14
I1
sg18
Nsg93
I7
sa(dp207
g20
(lp208
S'k'
asg17
S'N'
sS'.thisRepN'
p209
I1
sg19
S'Y'
sg31
g32
sS'.thisTrialN'
p210
I6
sS'.thisN'
p211
I17
sS'.thisIndex'
p212
I7
sg15
(lp213
S'k'
asg30
Vf
sg16
S'Y'
sg14
I1
sg18
Nsg93
I7
sa(dp214
g20
(lp215
S'k'
asg17
S'N'
sS'.thisRepN'
p216
I1
sg19
S'Y'
sg31
g32
sS'.thisTrialN'
p217
I7
sS'.thisN'
p218
I18
sS'.thisIndex'
p219
I0
sg15
(lp220
S'd'
asg30
Vf
sg16
S'N'
sg14
I1
sg18
Nsg93
I0
sa(dp221
g20
(lp222
S'd'
asg17
S'Y'
sS'.thisRepN'
p223
I1
sg19
S'N'
sg31
g32
sS'.thisTrialN'
p224
I8
sS'.thisN'
p225
I19
sS'.thisIndex'
p226
I9
sg15
(lp227
S'k'
asg30
Vf
sg16
S'N'
sg14
I1
sg18
Nsg93
I9
sa(dp228
g20
(lp229
S'd'
asg17
S'N'
sS'.thisRepN'
p230
I1
sg19
S'Y'
sg31
g32
sS'.thisTrialN'
p231
I9
sS'.thisN'
p232
I20
sS'.thisIndex'
p233
I3
sg15
(lp234
S'd'
asg30
Vf
sg16
S'Y'
sg14
I1
sg18
Nsg93
I3
sa(dp235
g20
(lp236
S'k'
asg17
S'N'
sS'.thisRepN'
p237
I1
sg19
S'Y'
sg31
g32
sS'.thisTrialN'
p238
I10
sS'.thisN'
p239
I21
sS'.thisIndex'
p240
I6
sg15
(lp241
S'k'
asg30
Vf
sg16
S'Y'
sg14
I1
sg18
Nsg93
I6
sa(dp242
g20
(lp243
S'k'
asg17
S'Y'
sS'.thisRepN'
p244
I2
sg19
S'N'
sg31
g32
sS'.thisTrialN'
p245
I0
sS'.thisN'
p246
I22
sS'.thisIndex'
p247
I4
sg15
(lp248
S'd'
asg30
Vf
sg16
S'N'
sg14
I1
sg18
Nsg93
I4
sa(dp249
g20
(lp250
S'k'
asg17
S'N'
sS'.thisRepN'
p251
I2
sg19
S'Y'
sg31
g32
sS'.thisTrialN'
p252
I1
sS'.thisN'
p253
I23
sS'.thisIndex'
p254
I10
sg15
(lp255
S'k'
asg30
Vf
sg16
S'Y'
sg14
I1
sg18
Nsg93
I10
sa(dp256
g20
(lp257
S'k'
asg17
S'N'
sS'.thisRepN'
p258
I2
sg19
S'Y'
sg31
g32
sS'.thisTrialN'
p259
I2
sS'.thisN'
p260
I24
sS'.thisIndex'
p261
I8
sg15
(lp262
S'd'
asg30
Vf
sg16
S'N'
sg14
I1
sg18
Nsg93
I8
sa(dp263
g17
S'Y'
sS'.thisRepN'
p264
I2
sg19
S'N'
sg31
g32
sS'.thisTrialN'
p265
I3
sS'.thisN'
p266
I25
sS'.thisIndex'
p267
I2
sg15
Nsg30
Vf
sg16
g98
sg14
I1
sg18
Nsg93
I2
sa(dp268
g20
(lp269
S'd'
asg17
S'Y'
sS'.thisRepN'
p270
I2
sg19
S'N'
sg31
g32
sS'.thisTrialN'
p271
I4
sS'.thisN'
p272
I26
sS'.thisIndex'
p273
I10
sg15
(lp274
S'k'
asg30
Vf
sg16
S'N'
sg14
I1
sg18
Nsg93
I10
sa(dp275
g20
(lp276
S'd'
asg17
S'Y'
sS'.thisRepN'
p277
I2
sg19
S'N'
sg31
g32
sS'.thisTrialN'
p278
I5
sS'.thisN'
p279
I27
sS'.thisIndex'
p280
I7
sg15
(lp281
S'd'
asg30
Vf
sg16
S'Y'
sg14
I1
sg18
Nsg93
I7
sa(dp282
g20
(lp283
S'k'
asg17
S'N'
sS'.thisRepN'
p284
I2
sg19
S'Y'
sg31
g32
sS'.thisTrialN'
p285
I6
sS'.thisN'
p286
I28
sS'.thisIndex'
p287
I7
sg15
(lp288
S'k'
asg30
Vf
sg16
S'Y'
sg14
I1
sg18
Nsg93
I7
sa(dp289
g20
(lp290
S'd'
asg17
S'Y'
sS'.thisRepN'
p291
I2
sg19
S'N'
sg31
g32
sS'.thisTrialN'
p292
I7
sS'.thisN'
p293
I29
sS'.thisIndex'
p294
I6
sg15
(lp295
S'd'
asg30
Vf
sg16
S'Y'
sg14
I1
sg18
Nsg93
I6
sa(dp296
g20
(lp297
S'k'
asg17
S'N'
sS'.thisRepN'
p298
I2
sg19
S'Y'
sg31
g32
sS'.thisTrialN'
p299
I8
sS'.thisN'
p300
I30
sS'.thisIndex'
p301
I9
sg15
(lp302
S'd'
asg30
Vf
sg16
S'N'
sg14
I1
sg18
Nsg93
I9
sa(dp303
g20
(lp304
S'k'
asg17
S'Y'
sS'.thisRepN'
p305
I2
sg19
S'N'
sg31
g32
sS'.thisTrialN'
p306
I9
sS'.thisN'
p307
I31
sS'.thisIndex'
p308
I8
sg15
(lp309
S'd'
asg30
Vf
sg16
S'N'
sg14
I1
sg18
Nsg93
I8
sa(dp310
g20
(lp311
S'k'
asg17
S'Y'
sS'.thisRepN'
p312
I2
sg19
S'N'
sg31
g32
sS'.thisTrialN'
p313
I10
sS'.thisN'
p314
I32
sS'.thisIndex'
p315
I0
sg15
(lp316
S'k'
asg30
Vf
sg16
S'Y'
sg14
I1
sg18
Nsg93
I0
sa(dp317
g20
(lp318
S'k'
asg17
S'N'
sS'.thisRepN'
p319
I3
sg19
S'Y'
sg31
g32
sS'.thisTrialN'
p320
I0
sS'.thisN'
p321
I33
sS'.thisIndex'
p322
I0
sg15
(lp323
S'k'
asg30
Vf
sg16
S'Y'
sg14
I1
sg18
Nsg93
I0
sa(dp324
g20
(lp325
S'd'
asg17
S'N'
sS'.thisRepN'
p326
I3
sg19
S'Y'
sg31
g32
sS'.thisTrialN'
p327
I1
sS'.thisN'
p328
I34
sS'.thisIndex'
p329
I7
sg15
(lp330
S'k'
asg30
Vf
sg16
S'N'
sg14
I1
sg18
Nsg93
I7
sa(dp331
g20
(lp332
S'd'
asg17
S'N'
sS'.thisRepN'
p333
I3
sg19
S'Y'
sg31
g32
sS'.thisTrialN'
p334
I2
sS'.thisN'
p335
I35
sS'.thisIndex'
p336
I9
sg15
(lp337
S'd'
asg30
Vf
sg16
S'Y'
sg14
I1
sg18
Nsg93
I9
sa(dp338
g20
(lp339
S'k'
asg17
S'N'
sS'.thisRepN'
p340
I3
sg19
S'Y'
sg31
g32
sS'.thisTrialN'
p341
I3
sS'.thisN'
p342
I36
sS'.thisIndex'
p343
I5
sg15
(lp344
S'd'
asg30
Vf
sg16
S'N'
sg14
I1
sg18
Nsg93
I5
sa(dp345
g20
(lp346
S'd'
asg17
S'Y'
sS'.thisRepN'
p347
I3
sg19
S'N'
sg31
g32
sS'.thisTrialN'
p348
I4
sS'.thisN'
p349
I37
sS'.thisIndex'
p350
I3
sg15
(lp351
S'k'
asg30
Vf
sg16
S'N'
sg14
I1
sg18
Nsg93
I3
sa(dp352
g20
(lp353
S'k'
asg17
S'Y'
sS'.thisRepN'
p354
I3
sg19
S'N'
sg31
g32
sS'.thisTrialN'
p355
I5
sS'.thisN'
p356
I38
sS'.thisIndex'
p357
I4
sg15
(lp358
S'd'
asg30
Vf
sg16
S'N'
sg14
I1
sg18
Nsg93
I4
sa(dp359
g20
(lp360
S'd'
asg17
S'Y'
sS'.thisRepN'
p361
I3
sg19
S'N'
sg31
g32
sS'.thisTrialN'
p362
I6
sS'.thisN'
p363
I39
sS'.thisIndex'
p364
I5
sg15
(lp365
S'd'
asg30
Vf
sg16
S'Y'
sg14
I1
sg18
Nsg93
I5
sa(dp366
g20
(lp367
S'd'
asg17
S'Y'
sS'.thisRepN'
p368
I3
sg19
S'N'
sg31
g32
sS'.thisTrialN'
p369
I7
sS'.thisN'
p370
I40
sS'.thisIndex'
p371
I2
sg15
(lp372
S'k'
asg30
Vf
sg16
S'N'
sg14
I1
sg18
Nsg93
I2
sa(dp373
g20
(lp374
S'k'
asg17
S'N'
sS'.thisRepN'
p375
I3
sg19
S'Y'
sg31
g32
sS'.thisTrialN'
p376
I8
sS'.thisN'
p377
I41
sS'.thisIndex'
p378
I2
sg15
(lp379
S'd'
asg30
Vf
sg16
S'N'
sg14
I1
sg18
Nsg93
I2
sa(dp380
g20
(lp381
S'k'
asg17
S'Y'
sS'.thisRepN'
p382
I3
sg19
S'N'
sg31
g32
sS'.thisTrialN'
p383
I9
sS'.thisN'
p384
I42
sS'.thisIndex'
p385
I9
sg15
(lp386
S'd'
asg30
Vf
sg16
S'N'
sg14
I1
sg18
Nsg93
I9
sa(dp387
g20
(lp388
S'd'
asg17
S'N'
sS'.thisRepN'
p389
I3
sg19
S'Y'
sg31
g32
sS'.thisTrialN'
p390
I10
sS'.thisN'
p391
I43
sS'.thisIndex'
p392
I8
sg15
(lp393
S'k'
asg30
Vf
sg16
S'N'
sg14
I1
sg18
Nsg93
I8
sa(dp394
g20
(lp395
S'k'
asg17
S'N'
sS'.thisRepN'
p396
I4
sg19
S'Y'
sg31
g32
sS'.thisTrialN'
p397
I0
sS'.thisN'
p398
I44
sS'.thisIndex'
p399
I6
sg15
(lp400
S'd'
asg30
Vf
sg16
S'N'
sg14
I1
sg18
Nsg93
I6
sa(dp401
g20
(lp402
S'k'
asg17
S'N'
sS'.thisRepN'
p403
I4
sg19
S'Y'
sg31
g32
sS'.thisTrialN'
p404
I1
sS'.thisN'
p405
I45
sS'.thisIndex'
p406
I4
sg15
(lp407
S'k'
asg30
Vf
sg16
S'Y'
sg14
I1
sg18
Nsg93
I4
sa(dp408
g20
(lp409
S'k'
asg17
S'Y'
sS'.thisRepN'
p410
I4
sg19
S'N'
sg31
g32
sS'.thisTrialN'
p411
I2
sS'.thisN'
p412
I46
sS'.thisIndex'
p413
I6
sg15
(lp414
S'd'
asg30
Vf
sg16
S'N'
sg14
I1
sg18
Nsg93
I6
sa(dp415
g20
(lp416
S'd'
asg17
S'N'
sS'.thisRepN'
p417
I4
sg19
S'Y'
sg31
g32
sS'.thisTrialN'
p418
I3
sS'.thisN'
p419
I47
sS'.thisIndex'
p420
I2
sg15
(lp421
S'd'
asg30
Vf
sg16
S'Y'
sg14
I1
sg18
Nsg93
I2
sa(dp422
g20
(lp423
S'k'
asg17
S'Y'
sS'.thisRepN'
p424
I4
sg19
S'N'
sg31
g32
sS'.thisTrialN'
p425
I4
sS'.thisN'
p426
I48
sS'.thisIndex'
p427
I1
sg15
(lp428
S'k'
asg30
Vf
sg16
S'Y'
sg14
I1
sg18
Nsg93
I1
sa(dp429
g20
(lp430
S'k'
asg17
S'Y'
sg22
I27
sS'.thisN'
p431
I49
sg19
S'N'
sg31
g32
sS'.thisTrialN'
p432
I5
sS'.thisRepN'
p433
I4
sg21
I21
sS'.thisIndex'
p434
I10
sg23
I21
sg15
(lp435
S'd'
asg30
Vf
sg16
S'N'
sg14
I1
sg18
Nsg93
I10
sa(dp436
g20
(lp437
S'd'
asg93
I10
sS'.thisRepN'
p438
I4
sg30
Vf
sg31
g32
sS'.thisTrialN'
p439
I6
sS'.thisN'
p440
I50
sS'.thisIndex'
p441
I10
sg15
(lp442
S'd'
asg16
S'Y'
sg14
I2
sa(dp443
g20
(lp444
S'k'
asg93
I3
sS'.thisRepN'
p445
I4
sg30
Vf
sg31
g32
sS'.thisTrialN'
p446
I7
sS'.thisN'
p447
I51
sS'.thisIndex'
p448
I3
sg15
(lp449
S'd'
asg16
S'N'
sg14
I2
sa(dp450
g20
(lp451
S'k'
asg17
S'Y'
sS'.thisRepN'
p452
I4
sg19
S'N'
sg31
g32
sS'.thisTrialN'
p453
I8
sS'.thisN'
p454
I52
sS'.thisIndex'
p455
I7
sg15
(lp456
S'd'
asg30
Vf
sg16
S'N'
sg14
I2
sg18
Nsg93
I7
sa(dp457
g20
(lp458
S'k'
asg17
S'Y'
sS'.thisRepN'
p459
I4
sg19
S'N'
sg31
g32
sS'.thisTrialN'
p460
I9
sS'.thisN'
p461
I53
sS'.thisIndex'
p462
I10
sg15
(lp463
S'k'
asg30
Vf
sg16
S'Y'
sg14
I2
sg18
Nsg93
I10
sa(dp464
g20
(lp465
S'k'
asg17
S'Y'
sS'.thisRepN'
p466
I4
sg19
S'N'
sg31
g32
sS'.thisTrialN'
p467
I10
sS'.thisN'
p468
I54
sS'.thisIndex'
p469
I8
sg15
(lp470
S'k'
asg30
Vf
sg16
S'Y'
sg14
I2
sg18
Nsg93
I8
sa(dp471
g20
(lp472
S'k'
asg17
S'Y'
sS'.thisRepN'
p473
I5
sg19
S'N'
sg31
g32
sS'.thisTrialN'
p474
I0
sS'.thisN'
p475
I55
sS'.thisIndex'
p476
I7
sg15
(lp477
S'k'
asg30
Vf
sg16
S'Y'
sg14
I2
sg18
Nsg93
I7
sa(dp478
g20
(lp479
S'k'
asg17
S'Y'
sS'.thisRepN'
p480
I5
sg19
S'N'
sg31
g32
sS'.thisTrialN'
p481
I1
sS'.thisN'
p482
I56
sS'.thisIndex'
p483
I3
sg15
(lp484
S'k'
asg30
Vf
sg16
S'Y'
sg14
I2
sg18
Nsg93
I3
sa(dp485
g20
(lp486
S'd'
asg17
S'Y'
sS'.thisRepN'
p487
I5
sg19
S'N'
sg31
g32
sS'.thisTrialN'
p488
I2
sS'.thisN'
p489
I57
sS'.thisIndex'
p490
I6
sg15
(lp491
S'd'
asg30
Vf
sg16
S'Y'
sg14
I2
sg18
Nsg93
I6
sa(dp492
g20
(lp493
S'k'
asg17
S'Y'
sS'.thisRepN'
p494
I5
sg19
S'N'
sg31
g32
sS'.thisTrialN'
p495
I3
sS'.thisN'
p496
I58
sS'.thisIndex'
p497
I7
sg15
(lp498
S'd'
asg30
Vf
sg16
S'N'
sg14
I2
sg18
Nsg93
I7
sa(dp499
g20
(lp500
S'd'
asg17
S'Y'
sS'.thisRepN'
p501
I5
sg19
S'N'
sg31
g32
sS'.thisTrialN'
p502
I4
sS'.thisN'
p503
I59
sS'.thisIndex'
p504
I7
sg15
(lp505
S'd'
asg30
Vf
sg16
S'Y'
sg14
I2
sg18
Nsg93
I7
sa(dp506
g20
(lp507
S'k'
asg17
S'N'
sS'.thisRepN'
p508
I5
sg19
S'Y'
sg31
g32
sS'.thisTrialN'
p509
I5
sS'.thisN'
p510
I60
sS'.thisIndex'
p511
I7
sg15
(lp512
S'd'
asg30
Vf
sg16
S'N'
sg14
I2
sg18
Nsg93
I7
sa(dp513
g20
(lp514
S'd'
asg17
S'Y'
sS'.thisRepN'
p515
I5
sg19
S'N'
sg31
g32
sS'.thisTrialN'
p516
I6
sS'.thisN'
p517
I61
sS'.thisIndex'
p518
I1
sg15
(lp519
S'k'
asg30
Vf
sg16
S'N'
sg14
I2
sg18
Nsg93
I1
sa(dp520
g20
(lp521
S'd'
asg17
S'N'
sS'.thisRepN'
p522
I5
sg19
S'Y'
sg31
g32
sS'.thisTrialN'
p523
I7
sS'.thisN'
p524
I62
sS'.thisIndex'
p525
I0
sg15
(lp526
S'k'
asg30
Vf
sg16
S'N'
sg14
I2
sg18
Nsg93
I0
sa(dp527
g20
(lp528
S'd'
asg17
S'Y'
sS'.thisRepN'
p529
I5
sg19
S'N'
sg31
g32
sS'.thisTrialN'
p530
I8
sS'.thisN'
p531
I63
sS'.thisIndex'
p532
I1
sg15
(lp533
S'd'
asg30
Vf
sg16
S'Y'
sg14
I2
sg18
Nsg93
I1
sa(dp534
g20
(lp535
S'd'
asg17
S'Y'
sS'.thisRepN'
p536
I5
sg19
S'N'
sg31
g32
sS'.thisTrialN'
p537
I9
sS'.thisN'
p538
I64
sS'.thisIndex'
p539
I2
sg15
(lp540
S'd'
asg30
Vf
sg16
S'Y'
sg14
I2
sg18
Nsg93
I2
sa(dp541
g20
(lp542
S'd'
asg17
S'N'
sS'.thisRepN'
p543
I5
sg19
S'Y'
sg31
g32
sS'.thisTrialN'
p544
I10
sS'.thisN'
p545
I65
sS'.thisIndex'
p546
I8
sg15
(lp547
S'd'
asg30
Vf
sg16
S'Y'
sg14
I2
sg18
Nsg93
I8
sa(dp548
g20
(lp549
S'k'
asg17
S'N'
sS'.thisRepN'
p550
I6
sg19
S'Y'
sg31
g32
sS'.thisTrialN'
p551
I0
sS'.thisN'
p552
I66
sS'.thisIndex'
p553
I0
sg15
(lp554
S'k'
asg30
Vf
sg16
S'Y'
sg14
I2
sg18
Nsg93
I0
sa(dp555
g20
(lp556
S'k'
asg17
S'N'
sS'.thisRepN'
p557
I6
sg19
S'Y'
sg31
g32
sS'.thisTrialN'
p558
I1
sS'.thisN'
p559
I67
sS'.thisIndex'
p560
I1
sg15
(lp561
S'k'
asg30
Vf
sg16
S'Y'
sg14
I2
sg18
Nsg93
I1
sa(dp562
g20
(lp563
S'k'
asg17
S'N'
sS'.thisRepN'
p564
I6
sg19
S'Y'
sg31
g32
sS'.thisTrialN'
p565
I2
sS'.thisN'
p566
I68
sS'.thisIndex'
p567
I3
sg15
(lp568
S'd'
asg30
Vf
sg16
S'N'
sg14
I2
sg18
Nsg93
I3
sa(dp569
g20
(lp570
S'd'
asg17
S'Y'
sS'.thisRepN'
p571
I6
sg19
S'N'
sg31
g32
sS'.thisTrialN'
p572
I3
sS'.thisN'
p573
I69
sS'.thisIndex'
p574
I10
sg15
(lp575
S'd'
asg30
Vf
sg16
S'Y'
sg14
I2
sg18
Nsg93
I10
sa(dp576
g20
(lp577
S'k'
asg17
S'N'
sS'.thisRepN'
p578
I6
sg19
S'Y'
sg31
g32
sS'.thisTrialN'
p579
I4
sS'.thisN'
p580
I70
sS'.thisIndex'
p581
I10
sg15
(lp582
S'k'
asg30
Vf
sg16
S'Y'
sg14
I2
sg18
Nsg93
I10
sa(dp583
g20
(lp584
S'k'
asg17
S'N'
sS'.thisRepN'
p585
I6
sg19
S'Y'
sg31
g32
sS'.thisTrialN'
p586
I5
sS'.thisN'
p587
I71
sS'.thisIndex'
p588
I10
sg15
(lp589
S'k'
asg30
Vf
sg16
S'Y'
sg14
I2
sg18
Nsg93
I10
sa(dp590
g20
(lp591
S'k'
asg17
S'N'
sS'.thisRepN'
p592
I6
sg19
S'Y'
sg31
g32
sS'.thisTrialN'
p593
I6
sS'.thisN'
p594
I72
sS'.thisIndex'
p595
I1
sg15
(lp596
S'k'
asg30
Vf
sg16
S'Y'
sg14
I2
sg18
Nsg93
I1
sa(dp597
g20
(lp598
S'k'
asg17
S'Y'
sS'.thisRepN'
p599
I6
sg19
S'N'
sg31
g32
sS'.thisTrialN'
p600
I7
sS'.thisN'
p601
I73
sS'.thisIndex'
p602
I7
sg15
(lp603
S'd'
asg30
Vf
sg16
S'N'
sg14
I2
sg18
Nsg93
I7
sa(dp604
g20
(lp605
S'k'
asg17
S'Y'
sS'.thisRepN'
p606
I6
sg19
S'N'
sg31
g32
sS'.thisTrialN'
p607
I8
sS'.thisN'
p608
I74
sS'.thisIndex'
p609
I2
sg15
(lp610
S'k'
asg30
Vf
sg16
S'Y'
sg14
I2
sg18
Nsg93
I2
sa(dp611
g20
(lp612
S'k'
asg17
S'N'
sS'.thisRepN'
p613
I6
sg19
S'Y'
sg31
g32
sS'.thisTrialN'
p614
I9
sS'.thisN'
p615
I75
sS'.thisIndex'
p616
I5
sg15
(lp617
S'd'
asg30
Vf
sg16
S'N'
sg14
I2
sg18
Nsg93
I5
sa(dp618
g20
(lp619
S'd'
asg17
S'N'
sS'.thisRepN'
p620
I6
sg19
S'Y'
sg31
g32
sS'.thisTrialN'
p621
I10
sS'.thisN'
p622
I76
sS'.thisIndex'
p623
I5
sg15
(lp624
S'k'
asg30
Vf
sg16
S'N'
sg14
I2
sg18
Nsg93
I5
sa(dp625
g20
(lp626
S'k'
asg17
S'Y'
sS'.thisRepN'
p627
I7
sg19
S'N'
sg31
g32
sS'.thisTrialN'
p628
I0
sS'.thisN'
p629
I77
sS'.thisIndex'
p630
I9
sg15
(lp631
S'd'
asg30
Vf
sg16
S'N'
sg14
I2
sg18
Nsg93
I9
sa(dp632
g20
(lp633
S'k'
asg17
S'Y'
sS'.thisRepN'
p634
I7
sg19
S'N'
sg31
g32
sS'.thisTrialN'
p635
I1
sS'.thisN'
p636
I78
sS'.thisIndex'
p637
I1
sg15
(lp638
S'd'
asg30
Vf
sg16
S'N'
sg14
I2
sg18
Nsg93
I1
sa(dp639
g20
(lp640
S'd'
asg17
S'Y'
sS'.thisRepN'
p641
I7
sg19
S'N'
sg31
g32
sS'.thisTrialN'
p642
I2
sS'.thisN'
p643
I79
sS'.thisIndex'
p644
I8
sg15
(lp645
S'k'
asg30
Vf
sg16
S'N'
sg14
I2
sg18
Nsg93
I8
sa(dp646
g20
(lp647
S'k'
asg17
S'Y'
sS'.thisRepN'
p648
I7
sg19
S'N'
sg31
g32
sS'.thisTrialN'
p649
I3
sS'.thisN'
p650
I80
sS'.thisIndex'
p651
I8
sg15
(lp652
S'k'
asg30
Vf
sg16
S'Y'
sg14
I2
sg18
Nsg93
I8
sa(dp653
g20
(lp654
S'd'
asg17
S'N'
sS'.thisRepN'
p655
I7
sg19
S'Y'
sg31
g32
sS'.thisTrialN'
p656
I4
sS'.thisN'
p657
I81
sS'.thisIndex'
p658
I1
sg15
(lp659
S'k'
asg30
Vf
sg16
S'N'
sg14
I2
sg18
Nsg93
I1
sa(dp660
g20
(lp661
S'k'
asg17
S'Y'
sS'.thisRepN'
p662
I7
sg19
S'N'
sg31
g32
sS'.thisTrialN'
p663
I5
sS'.thisN'
p664
I82
sS'.thisIndex'
p665
I4
sg15
(lp666
S'd'
asg30
Vf
sg16
S'N'
sg14
I2
sg18
Nsg93
I4
sa(dp667
g20
(lp668
S'k'
asg17
S'N'
sS'.thisRepN'
p669
I7
sg19
S'Y'
sg31
g32
sS'.thisTrialN'
p670
I6
sS'.thisN'
p671
I83
sS'.thisIndex'
p672
I10
sg15
(lp673
S'k'
asg30
Vf
sg16
S'Y'
sg14
I2
sg18
Nsg93
I10
sa(dp674
g20
(lp675
S'k'
asg17
S'N'
sS'.thisRepN'
p676
I7
sg19
S'Y'
sg31
g32
sS'.thisTrialN'
p677
I7
sS'.thisN'
p678
I84
sS'.thisIndex'
p679
I8
sg15
(lp680
S'k'
asg30
Vf
sg16
S'Y'
sg14
I2
sg18
Nsg93
I8
sa(dp681
g20
(lp682
S'k'
asg17
S'Y'
sS'.thisRepN'
p683
I7
sg19
S'N'
sg31
g32
sS'.thisTrialN'
p684
I8
sS'.thisN'
p685
I85
sS'.thisIndex'
p686
I8
sg15
(lp687
S'd'
asg30
Vf
sg16
S'N'
sg14
I2
sg18
Nsg93
I8
sa(dp688
g20
(lp689
S'd'
asg17
S'N'
sS'.thisRepN'
p690
I7
sg19
S'Y'
sg31
g32
sS'.thisTrialN'
p691
I9
sS'.thisN'
p692
I86
sS'.thisIndex'
p693
I7
sg15
(lp694
S'k'
asg30
Vf
sg16
S'N'
sg14
I2
sg18
Nsg93
I7
sa(dp695
g20
(lp696
S'd'
asg17
S'N'
sS'.thisRepN'
p697
I7
sg19
S'Y'
sg31
g32
sS'.thisTrialN'
p698
I10
sS'.thisN'
p699
I87
sS'.thisIndex'
p700
I4
sg15
(lp701
S'k'
asg30
Vf
sg16
S'N'
sg14
I2
sg18
Nsg93
I4
sa(dp702
g20
(lp703
S'd'
asg17
S'Y'
sS'.thisRepN'
p704
I8
sg19
S'N'
sg31
g32
sS'.thisTrialN'
p705
I0
sS'.thisN'
p706
I88
sS'.thisIndex'
p707
I9
sg15
(lp708
S'd'
asg30
Vf
sg16
S'Y'
sg14
I2
sg18
Nsg93
I9
sa(dp709
g20
(lp710
S'k'
asg17
S'N'
sS'.thisRepN'
p711
I8
sg19
S'Y'
sg31
g32
sS'.thisTrialN'
p712
I1
sS'.thisN'
p713
I89
sS'.thisIndex'
p714
I9
sg15
(lp715
S'd'
asg30
Vf
sg16
S'N'
sg14
I2
sg18
Nsg93
I9
sa(dp716
g20
(lp717
S'k'
asg17
S'Y'
sS'.thisRepN'
p718
I8
sg19
S'N'
sg31
g32
sS'.thisTrialN'
p719
I2
sS'.thisN'
p720
I90
sS'.thisIndex'
p721
I3
sg15
(lp722
S'd'
asg30
Vf
sg16
S'N'
sg14
I2
sg18
Nsg93
I3
sa(dp723
g20
(lp724
S'd'
asg17
S'Y'
sS'.thisRepN'
p725
I8
sg19
S'N'
sg31
g32
sS'.thisTrialN'
p726
I3
sS'.thisN'
p727
I91
sS'.thisIndex'
p728
I1
sg15
(lp729
S'd'
asg30
Vf
sg16
S'Y'
sg14
I2
sg18
Nsg93
I1
sa(dp730
g20
(lp731
S'd'
asg17
S'N'
sS'.thisRepN'
p732
I8
sg19
S'Y'
sg31
g32
sS'.thisTrialN'
p733
I4
sS'.thisN'
p734
I92
sS'.thisIndex'
p735
I4
sg15
(lp736
S'k'
asg30
Vf
sg16
S'N'
sg14
I2
sg18
Nsg93
I4
sa(dp737
g20
(lp738
S'd'
asg17
S'N'
sS'.thisRepN'
p739
I8
sg19
S'Y'
sg31
g32
sS'.thisTrialN'
p740
I5
sS'.thisN'
p741
I93
sS'.thisIndex'
p742
I9
sg15
(lp743
S'd'
asg30
Vf
sg16
S'Y'
sg14
I2
sg18
Nsg93
I9
sa(dp744
g20
(lp745
S'd'
asg17
S'N'
sS'.thisRepN'
p746
I8
sg19
S'Y'
sg31
g32
sS'.thisTrialN'
p747
I6
sS'.thisN'
p748
I94
sS'.thisIndex'
p749
I0
sg15
(lp750
S'k'
asg30
Vf
sg16
S'N'
sg14
I2
sg18
Nsg93
I0
sa(dp751
g20
(lp752
S'd'
asg17
S'N'
sS'.thisRepN'
p753
I8
sg19
S'Y'
sg31
g32
sS'.thisTrialN'
p754
I7
sS'.thisN'
p755
I95
sS'.thisIndex'
p756
I6
sg15
(lp757
S'd'
asg30
Vf
sg16
S'Y'
sg14
I2
sg18
Nsg93
I6
sa(dp758
g20
(lp759
S'd'
asg17
S'N'
sS'.thisRepN'
p760
I8
sg19
S'Y'
sg31
g32
sS'.thisTrialN'
p761
I8
sS'.thisN'
p762
I96
sS'.thisIndex'
p763
I0
sg15
(lp764
S'd'
asg30
Vf
sg16
S'Y'
sg14
I2
sg18
Nsg93
I0
sa(dp765
g20
(lp766
S'd'
asg17
S'N'
sS'.thisRepN'
p767
I8
sg19
S'Y'
sg31
g32
sS'.thisTrialN'
p768
I9
sS'.thisN'
p769
I97
sS'.thisIndex'
p770
I1
sg15
(lp771
S'd'
asg30
Vf
sg16
S'Y'
sg14
I2
sg18
Nsg93
I1
sa(dp772
g20
(lp773
S'k'
asg17
S'Y'
sS'.thisRepN'
p774
I8
sg19
S'N'
sg31
g32
sS'.thisTrialN'
p775
I10
sS'.thisN'
p776
I98
sS'.thisIndex'
p777
I4
sg15
(lp778
S'd'
asg30
Vf
sg16
S'N'
sg14
I2
sg18
Nsg93
I4
sa(dp779
g20
(lp780
S'd'
asg17
S'N'
sg22
I24
sS'.thisN'
p781
I99
sg19
S'Y'
sg31
g32
sS'.thisTrialN'
p782
I0
sS'.thisRepN'
p783
I9
sg21
I27
sS'.thisIndex'
p784
I0
sg23
I24
sg15
(lp785
S'd'
asg30
Vf
sg16
S'Y'
sg14
I2
sg18
Nsg93
I0
sa(dp786
g20
(lp787
S'k'
asg93
I5
sS'.thisRepN'
p788
I9
sg30
Vf
sg31
g32
sS'.thisTrialN'
p789
I1
sS'.thisN'
p790
I100
sS'.thisIndex'
p791
I5
sg15
(lp792
S'd'
asg16
S'N'
sg14
I3
sa(dp793
g20
(lp794
S'd'
asg93
I0
sS'.thisRepN'
p795
I9
sg30
Vf
sg31
g32
sS'.thisTrialN'
p796
I2
sS'.thisN'
p797
I101
sS'.thisIndex'
p798
I0
sg15
(lp799
S'd'
asg16
S'Y'
sg14
I3
sa(dp800
g20
(lp801
S'd'
asg17
S'Y'
sS'.thisRepN'
p802
I9
sg19
S'N'
sg31
g32
sS'.thisTrialN'
p803
I3
sS'.thisN'
p804
I102
sS'.thisIndex'
p805
I10
sg15
(lp806
S'd'
asg30
Vf
sg16
S'Y'
sg14
I3
sg18
Nsg93
I10
sa(dp807
g20
(lp808
S'd'
asg17
S'N'
sS'.thisRepN'
p809
I9
sg19
S'Y'
sg31
g32
sS'.thisTrialN'
p810
I4
sS'.thisN'
p811
I103
sS'.thisIndex'
p812
I9
sg15
(lp813
S'k'
asg30
Vf
sg16
S'N'
sg14
I3
sg18
Nsg93
I9
sa(dp814
g20
(lp815
S'k'
asg17
S'Y'
sS'.thisRepN'
p816
I9
sg19
S'N'
sg31
g32
sS'.thisTrialN'
p817
I5
sS'.thisN'
p818
I104
sS'.thisIndex'
p819
I9
sg15
(lp820
S'd'
asg30
Vf
sg16
S'N'
sg14
I3
sg18
Nsg93
I9
sa(dp821
g20
(lp822
S'd'
asg17
S'Y'
sS'.thisRepN'
p823
I9
sg19
S'N'
sg31
g32
sS'.thisTrialN'
p824
I6
sS'.thisN'
p825
I105
sS'.thisIndex'
p826
I4
sg15
(lp827
S'd'
asg30
Vf
sg16
S'Y'
sg14
I3
sg18
Nsg93
I4
sa(dp828
g20
(lp829
S'k'
asg17
S'Y'
sS'.thisRepN'
p830
I9
sg19
S'N'
sg31
g32
sS'.thisTrialN'
p831
I7
sS'.thisN'
p832
I106
sS'.thisIndex'
p833
I0
sg15
(lp834
S'd'
asg30
Vf
sg16
S'N'
sg14
I3
sg18
Nsg93
I0
sa(dp835
g20
(lp836
S'k'
asg17
S'Y'
sS'.thisRepN'
p837
I9
sg19
S'N'
sg31
g32
sS'.thisTrialN'
p838
I8
sS'.thisN'
p839
I107
sS'.thisIndex'
p840
I2
sg15
(lp841
S'k'
asg30
Vf
sg16
S'Y'
sg14
I3
sg18
Nsg93
I2
sa(dp842
g20
(lp843
S'k'
asg17
S'N'
sS'.thisRepN'
p844
I9
sg19
S'Y'
sg31
g32
sS'.thisTrialN'
p845
I9
sS'.thisN'
p846
I108
sS'.thisIndex'
p847
I9
sg15
(lp848
S'd'
asg30
Vf
sg16
S'N'
sg14
I3
sg18
Nsg93
I9
sa(dp849
g20
(lp850
S'k'
asg17
S'Y'
sS'.thisRepN'
p851
I9
sg19
S'N'
sg31
g32
sS'.thisTrialN'
p852
I10
sS'.thisN'
p853
I109
sS'.thisIndex'
p854
I4
sg15
(lp855
S'd'
asg30
Vf
sg16
S'N'
sg14
I3
sg18
Nsg93
I4
sa(dp856
g20
(lp857
S'k'
asg17
S'Y'
sS'.thisRepN'
p858
I10
sg19
S'N'
sg31
g32
sS'.thisTrialN'
p859
I0
sS'.thisN'
p860
I110
sS'.thisIndex'
p861
I1
sg15
(lp862
S'k'
asg30
Vf
sg16
S'Y'
sg14
I3
sg18
Nsg93
I1
sa(dp863
g20
(lp864
S'k'
asg17
S'Y'
sS'.thisRepN'
p865
I10
sg19
S'N'
sg31
g32
sS'.thisTrialN'
p866
I1
sS'.thisN'
p867
I111
sS'.thisIndex'
p868
I1
sg15
(lp869
S'd'
asg30
Vf
sg16
S'N'
sg14
I3
sg18
Nsg93
I1
sa(dp870
g20
(lp871
S'd'
asg17
S'N'
sS'.thisRepN'
p872
I10
sg19
S'Y'
sg31
g32
sS'.thisTrialN'
p873
I2
sS'.thisN'
p874
I112
sS'.thisIndex'
p875
I9
sg15
(lp876
S'd'
asg30
Vf
sg16
S'Y'
sg14
I3
sg18
Nsg93
I9
sa(dp877
g20
(lp878
S'd'
asg17
S'Y'
sS'.thisRepN'
p879
I10
sg19
S'N'
sg31
g32
sS'.thisTrialN'
p880
I3
sS'.thisN'
p881
I113
sS'.thisIndex'
p882
I6
sg15
(lp883
S'k'
asg30
Vf
sg16
S'N'
sg14
I3
sg18
Nsg93
I6
sa(dp884
g20
(lp885
S'k'
asg17
S'Y'
sS'.thisRepN'
p886
I10
sg19
S'N'
sg31
g32
sS'.thisTrialN'
p887
I4
sS'.thisN'
p888
I114
sS'.thisIndex'
p889
I10
sg15
(lp890
S'd'
asg30
Vf
sg16
S'N'
sg14
I3
sg18
Nsg93
I10
sa(dp891
g20
(lp892
S'd'
asg17
S'Y'
sS'.thisRepN'
p893
I10
sg19
S'N'
sg31
g32
sS'.thisTrialN'
p894
I5
sS'.thisN'
p895
I115
sS'.thisIndex'
p896
I5
sg15
(lp897
S'd'
asg30
Vf
sg16
S'Y'
sg14
I3
sg18
Nsg93
I5
sa(dp898
g20
(lp899
S'k'
asg17
S'Y'
sS'.thisRepN'
p900
I10
sg19
S'N'
sg31
g32
sS'.thisTrialN'
p901
I6
sS'.thisN'
p902
I116
sS'.thisIndex'
p903
I0
sg15
(lp904
S'k'
asg30
Vf
sg16
S'Y'
sg14
I3
sg18
Nsg93
I0
sa(dp905
g20
(lp906
S'k'
asg17
S'N'
sS'.thisRepN'
p907
I10
sg19
S'Y'
sg31
g32
sS'.thisTrialN'
p908
I7
sS'.thisN'
p909
I117
sS'.thisIndex'
p910
I10
sg15
(lp911
S'd'
asg30
Vf
sg16
S'N'
sg14
I3
sg18
Nsg93
I10
sa(dp912
g20
(lp913
S'k'
asg17
S'Y'
sS'.thisRepN'
p914
I10
sg19
S'N'
sg31
g32
sS'.thisTrialN'
p915
I8
sS'.thisN'
p916
I118
sS'.thisIndex'
p917
I10
sg15
(lp918
S'd'
asg30
Vf
sg16
S'N'
sg14
I3
sg18
Nsg93
I10
sa(dp919
g20
(lp920
S'd'
asg17
S'Y'
sS'.thisRepN'
p921
I10
sg19
S'N'
sg31
g32
sS'.thisTrialN'
p922
I9
sS'.thisN'
p923
I119
sS'.thisIndex'
p924
I10
sg15
(lp925
S'k'
asg30
Vf
sg16
S'N'
sg14
I3
sg18
Nsg93
I10
sa(dp926
g20
(lp927
S'd'
asg17
S'N'
sS'.thisRepN'
p928
I10
sg19
S'Y'
sg31
g32
sS'.thisTrialN'
p929
I10
sS'.thisN'
p930
I120
sS'.thisIndex'
p931
I5
sg15
(lp932
S'k'
asg30
Vf
sg16
S'N'
sg14
I3
sg18
Nsg93
I5
sa(dp933
g20
(lp934
S'd'
asg17
S'Y'
sS'.thisRepN'
p935
I11
sg19
S'N'
sg31
g32
sS'.thisTrialN'
p936
I0
sS'.thisN'
p937
I121
sS'.thisIndex'
p938
I6
sg15
(lp939
S'd'
asg30
Vf
sg16
S'Y'
sg14
I3
sg18
Nsg93
I6
sa(dp940
g20
(lp941
S'd'
asg17
S'N'
sS'.thisRepN'
p942
I11
sg19
S'Y'
sg31
g32
sS'.thisTrialN'
p943
I1
sS'.thisN'
p944
I122
sS'.thisIndex'
p945
I9
sg15
(lp946
S'd'
asg30
Vf
sg16
S'Y'
sg14
I3
sg18
Nsg93
I9
sa(dp947
g20
(lp948
S'k'
asg17
S'Y'
sS'.thisRepN'
p949
I11
sg19
S'N'
sg31
g32
sS'.thisTrialN'
p950
I2
sS'.thisN'
p951
I123
sS'.thisIndex'
p952
I8
sg15
(lp953
S'k'
asg30
Vf
sg16
S'Y'
sg14
I3
sg18
Nsg93
I8
sa(dp954
g20
(lp955
S'd'
asg17
S'Y'
sS'.thisRepN'
p956
I11
sg19
S'N'
sg31
g32
sS'.thisTrialN'
p957
I3
sS'.thisN'
p958
I124
sS'.thisIndex'
p959
I1
sg15
(lp960
S'd'
asg30
Vf
sg16
S'Y'
sg14
I3
sg18
Nsg93
I1
sa(dp961
g20
(lp962
S'k'
asg17
S'N'
sS'.thisRepN'
p963
I11
sg19
S'Y'
sg31
g32
sS'.thisTrialN'
p964
I4
sS'.thisN'
p965
I125
sS'.thisIndex'
p966
I6
sg15
(lp967
S'k'
asg30
Vf
sg16
S'Y'
sg14
I3
sg18
Nsg93
I6
sa(dp968
g20
(lp969
S'd'
asg17
S'Y'
sS'.thisRepN'
p970
I11
sg19
S'N'
sg31
g32
sS'.thisTrialN'
p971
I5
sS'.thisN'
p972
I126
sS'.thisIndex'
p973
I7
sg15
(lp974
S'd'
asg30
Vf
sg16
S'Y'
sg14
I3
sg18
Nsg93
I7
sa(dp975
g20
(lp976
S'k'
asg17
S'Y'
sS'.thisRepN'
p977
I11
sg19
S'N'
sg31
g32
sS'.thisTrialN'
p978
I6
sS'.thisN'
p979
I127
sS'.thisIndex'
p980
I2
sg15
(lp981
S'k'
asg30
Vf
sg16
S'Y'
sg14
I3
sg18
Nsg93
I2
sa(dp982
g20
(lp983
S'd'
asg17
S'Y'
sS'.thisRepN'
p984
I11
sg19
S'N'
sg31
g32
sS'.thisTrialN'
p985
I7
sS'.thisN'
p986
I128
sS'.thisIndex'
p987
I9
sg15
(lp988
S'k'
asg30
Vf
sg16
S'N'
sg14
I3
sg18
Nsg93
I9
sa(dp989
g20
(lp990
S'd'
asg17
S'Y'
sS'.thisRepN'
p991
I11
sg19
S'N'
sg31
g32
sS'.thisTrialN'
p992
I8
sS'.thisN'
p993
I129
sS'.thisIndex'
p994
I4
sg15
(lp995
S'd'
asg30
Vf
sg16
S'Y'
sg14
I3
sg18
Nsg93
I4
sa(dp996
g20
(lp997
S'd'
asg17
S'Y'
sS'.thisRepN'
p998
I11
sg19
S'N'
sg31
g32
sS'.thisTrialN'
p999
I9
sS'.thisN'
p1000
I130
sS'.thisIndex'
p1001
I5
sg15
(lp1002
S'k'
asg30
Vf
sg16
S'N'
sg14
I3
sg18
Nsg93
I5
sa(dp1003
g20
(lp1004
S'k'
asg17
S'N'
sS'.thisRepN'
p1005
I11
sg19
S'Y'
sg31
g32
sS'.thisTrialN'
p1006
I10
sS'.thisN'
p1007
I131
sS'.thisIndex'
p1008
I9
sg15
(lp1009
S'k'
asg30
Vf
sg16
S'Y'
sg14
I3
sg18
Nsg93
I9
sa(dp1010
g20
(lp1011
S'd'
asg17
S'Y'
sS'.thisRepN'
p1012
I12
sg19
S'N'
sg31
g32
sS'.thisTrialN'
p1013
I0
sS'.thisN'
p1014
I132
sS'.thisIndex'
p1015
I5
sg15
(lp1016
S'd'
asg30
Vf
sg16
S'Y'
sg14
I3
sg18
Nsg93
I5
sa(dp1017
g20
(lp1018
S'd'
asg17
S'N'
sS'.thisRepN'
p1019
I12
sg19
S'Y'
sg31
g32
sS'.thisTrialN'
p1020
I1
sS'.thisN'
p1021
I133
sS'.thisIndex'
p1022
I2
sg15
(lp1023
S'k'
asg30
Vf
sg16
S'N'
sg14
I3
sg18
Nsg93
I2
sa(dp1024
g20
(lp1025
S'k'
asg17
S'N'
sS'.thisRepN'
p1026
I12
sg19
S'Y'
sg31
g32
sS'.thisTrialN'
p1027
I2
sS'.thisN'
p1028
I134
sS'.thisIndex'
p1029
I10
sg15
(lp1030
S'd'
asg30
Vf
sg16
S'N'
sg14
I3
sg18
Nsg93
I10
sa(dp1031
g20
(lp1032
S'k'
asg17
S'N'
sS'.thisRepN'
p1033
I12
sg19
S'Y'
sg31
g32
sS'.thisTrialN'
p1034
I3
sS'.thisN'
p1035
I135
sS'.thisIndex'
p1036
I4
sg15
(lp1037
S'k'
asg30
Vf
sg16
S'Y'
sg14
I3
sg18
Nsg93
I4
sa(dp1038
g20
(lp1039
S'd'
asg17
S'Y'
sS'.thisRepN'
p1040
I12
sg19
S'N'
sg31
g32
sS'.thisTrialN'
p1041
I4
sS'.thisN'
p1042
I136
sS'.thisIndex'
p1043
I0
sg15
(lp1044
S'k'
asg30
Vf
sg16
S'N'
sg14
I3
sg18
Nsg93
I0
sa(dp1045
g20
(lp1046
S'd'
asg17
S'Y'
sS'.thisRepN'
p1047
I12
sg19
S'N'
sg31
g32
sS'.thisTrialN'
p1048
I5
sS'.thisN'
p1049
I137
sS'.thisIndex'
p1050
I3
sg15
(lp1051
S'd'
asg30
Vf
sg16
S'Y'
sg14
I3
sg18
Nsg93
I3
sa(dp1052
g20
(lp1053
S'd'
asg17
S'N'
sS'.thisRepN'
p1054
I12
sg19
S'Y'
sg31
g32
sS'.thisTrialN'
p1055
I6
sS'.thisN'
p1056
I138
sS'.thisIndex'
p1057
I2
sg15
(lp1058
S'd'
asg30
Vf
sg16
S'Y'
sg14
I3
sg18
Nsg93
I2
sa(dp1059
g20
(lp1060
S'k'
asg17
S'N'
sS'.thisRepN'
p1061
I12
sg19
S'Y'
sg31
g32
sS'.thisTrialN'
p1062
I7
sS'.thisN'
p1063
I139
sS'.thisIndex'
p1064
I0
sg15
(lp1065
S'd'
asg30
Vf
sg16
S'N'
sg14
I3
sg18
Nsg93
I0
sa(dp1066
g20
(lp1067
S'k'
asg17
S'N'
sS'.thisRepN'
p1068
I12
sg19
S'Y'
sg31
g32
sS'.thisTrialN'
p1069
I8
sS'.thisN'
p1070
I140
sS'.thisIndex'
p1071
I3
sg15
(lp1072
S'd'
asg30
Vf
sg16
S'N'
sg14
I3
sg18
Nsg93
I3
sa(dp1073
g20
(lp1074
S'k'
asg17
S'N'
sS'.thisRepN'
p1075
I12
sg19
S'Y'
sg31
g32
sS'.thisTrialN'
p1076
I9
sS'.thisN'
p1077
I141
sS'.thisIndex'
p1078
I3
sg15
(lp1079
S'k'
asg30
Vf
sg16
S'Y'
sg14
I3
sg18
Nsg93
I3
sa(dp1080
g20
(lp1081
S'd'
asg17
S'N'
sS'.thisRepN'
p1082
I12
sg19
S'Y'
sg31
g32
sS'.thisTrialN'
p1083
I10
sS'.thisN'
p1084
I142
sS'.thisIndex'
p1085
I10
sg15
(lp1086
S'd'
asg30
Vf
sg16
S'Y'
sg14
I3
sg18
Nsg93
I10
sa(dp1087
g20
(lp1088
S'k'
asg17
S'N'
sS'.thisRepN'
p1089
I13
sg19
S'Y'
sg31
g32
sS'.thisTrialN'
p1090
I0
sS'.thisN'
p1091
I143
sS'.thisIndex'
p1092
I7
sg15
(lp1093
S'k'
asg30
Vf
sg16
S'Y'
sg14
I3
sg18
Nsg93
I7
sa(dp1094
g20
(lp1095
S'k'
asg17
S'N'
sS'.thisRepN'
p1096
I13
sg19
S'Y'
sg31
g32
sS'.thisTrialN'
p1097
I1
sS'.thisN'
p1098
I144
sS'.thisIndex'
p1099
I6
sg15
(lp1100
S'd'
asg30
Vf
sg16
S'N'
sg14
I3
sg18
Nsg93
I6
sa(dp1101
g20
(lp1102
S'd'
asg17
S'N'
sS'.thisRepN'
p1103
I13
sg19
S'Y'
sg31
g32
sS'.thisTrialN'
p1104
I2
sS'.thisN'
p1105
I145
sS'.thisIndex'
p1106
I1
sg15
(lp1107
S'k'
asg30
Vf
sg16
S'N'
sg14
I3
sg18
Nsg93
I1
sa(dp1108
g20
(lp1109
S'k'
asg17
S'N'
sS'.thisRepN'
p1110
I13
sg19
S'Y'
sg31
g32
sS'.thisTrialN'
p1111
I3
sS'.thisN'
p1112
I146
sS'.thisIndex'
p1113
I3
sg15
(lp1114
S'd'
asg30
Vf
sg16
S'N'
sg14
I3
sg18
Nsg93
I3
sa(dp1115
g20
(lp1116
S'd'
asg17
S'N'
sS'.thisRepN'
p1117
I13
sg19
S'Y'
sg31
g32
sS'.thisTrialN'
p1118
I4
sS'.thisN'
p1119
I147
sS'.thisIndex'
p1120
I6
sg15
(lp1121
S'k'
asg30
Vf
sg16
S'N'
sg14
I3
sg18
Nsg93
I6
sa(dp1122
g20
(lp1123
S'd'
asg17
S'N'
sS'.thisRepN'
p1124
I13
sg19
S'Y'
sg31
g32
sS'.thisTrialN'
p1125
I5
sS'.thisN'
p1126
I148
sS'.thisIndex'
p1127
I4
sg15
(lp1128
S'k'
asg30
Vf
sg16
S'N'
sg14
I3
sg18
Nsg93
I4
sa(dp1129
g20
(lp1130
S'k'
asg17
S'N'
sg22
I23
sS'.thisN'
p1131
I149
sg19
S'Y'
sg31
g32
sS'.thisTrialN'
p1132
I6
sS'.thisRepN'
p1133
I13
sg21
I24
sS'.thisIndex'
p1134
I4
sg23
I25
sg15
(lp1135
S'd'
asg30
Vf
sg16
S'N'
sg14
I3
sg18
Nsg93
I4
sa(dp1136
g20
(lp1137
S'k'
asg93
I2
sS'.thisRepN'
p1138
I13
sg30
Vf
sg31
g32
sS'.thisTrialN'
p1139
I7
sS'.thisN'
p1140
I150
sS'.thisIndex'
p1141
I2
sg15
(lp1142
S'd'
asg16
S'N'
sg14
I4
sa(dp1143
g20
(lp1144
S'k'
asg93
I3
sS'.thisRepN'
p1145
I13
sg30
Vf
sg31
g32
sS'.thisTrialN'
p1146
I8
sS'.thisN'
p1147
I151
sS'.thisIndex'
p1148
I3
sg15
(lp1149
S'k'
asg16
S'Y'
sg14
I4
sa(dp1150
g20
(lp1151
S'k'
asg17
S'Y'
sS'.thisRepN'
p1152
I13
sg19
S'N'
sg31
g32
sS'.thisTrialN'
p1153
I9
sS'.thisN'
p1154
I152
sS'.thisIndex'
p1155
I2
sg15
(lp1156
S'd'
asg30
Vf
sg16
S'N'
sg14
I4
sg18
Nsg93
I2
sa(dp1157
g20
(lp1158
S'd'
asg17
S'N'
sS'.thisRepN'
p1159
I13
sg19
S'Y'
sg31
g32
sS'.thisTrialN'
p1160
I10
sS'.thisN'
p1161
I153
sS'.thisIndex'
p1162
I8
sg15
(lp1163
S'k'
asg30
Vf
sg16
S'N'
sg14
I4
sg18
Nsg93
I8
sa(dp1164
g20
(lp1165
S'd'
asg17
S'N'
sS'.thisRepN'
p1166
I14
sg19
S'Y'
sg31
g32
sS'.thisTrialN'
p1167
I0
sS'.thisN'
p1168
I154
sS'.thisIndex'
p1169
I5
sg15
(lp1170
S'k'
asg30
Vf
sg16
S'N'
sg14
I4
sg18
Nsg93
I5
sa(dp1171
g20
(lp1172
S'd'
asg17
S'Y'
sS'.thisRepN'
p1173
I14
sg19
S'N'
sg31
g32
sS'.thisTrialN'
p1174
I1
sS'.thisN'
p1175
I155
sS'.thisIndex'
p1176
I7
sg15
(lp1177
S'd'
asg30
Vf
sg16
S'Y'
sg14
I4
sg18
Nsg93
I7
sa(dp1178
g20
(lp1179
S'd'
asg17
S'N'
sS'.thisRepN'
p1180
I14
sg19
S'Y'
sg31
g32
sS'.thisTrialN'
p1181
I2
sS'.thisN'
p1182
I156
sS'.thisIndex'
p1183
I5
sg15
(lp1184
S'd'
asg30
Vf
sg16
S'Y'
sg14
I4
sg18
Nsg93
I5
sa(dp1185
g20
(lp1186
S'k'
asg17
S'Y'
sS'.thisRepN'
p1187
I14
sg19
S'N'
sg31
g32
sS'.thisTrialN'
p1188
I3
sS'.thisN'
p1189
I157
sS'.thisIndex'
p1190
I2
sg15
(lp1191
S'd'
asg30
Vf
sg16
S'N'
sg14
I4
sg18
Nsg93
I2
sa(dp1192
g20
(lp1193
S'k'
asg17
S'N'
sS'.thisRepN'
p1194
I14
sg19
S'Y'
sg31
g32
sS'.thisTrialN'
p1195
I4
sS'.thisN'
p1196
I158
sS'.thisIndex'
p1197
I5
sg15
(lp1198
S'k'
asg30
Vf
sg16
S'Y'
sg14
I4
sg18
Nsg93
I5
sa(dp1199
g20
(lp1200
S'k'
asg17
S'Y'
sS'.thisRepN'
p1201
I14
sg19
S'N'
sg31
g32
sS'.thisTrialN'
p1202
I5
sS'.thisN'
p1203
I159
sS'.thisIndex'
p1204
I8
sg15
(lp1205
S'k'
asg30
Vf
sg16
S'Y'
sg14
I4
sg18
Nsg93
I8
sa(dp1206
g20
(lp1207
S'k'
asg17
S'N'
sS'.thisRepN'
p1208
I14
sg19
S'Y'
sg31
g32
sS'.thisTrialN'
p1209
I6
sS'.thisN'
p1210
I160
sS'.thisIndex'
p1211
I1
sg15
(lp1212
S'k'
asg30
Vf
sg16
S'Y'
sg14
I4
sg18
Nsg93
I1
sa(dp1213
g20
(lp1214
S'k'
asg17
S'N'
sS'.thisRepN'
p1215
I14
sg19
S'Y'
sg31
g32
sS'.thisTrialN'
p1216
I7
sS'.thisN'
p1217
I161
sS'.thisIndex'
p1218
I2
sg15
(lp1219
S'd'
asg30
Vf
sg16
S'N'
sg14
I4
sg18
Nsg93
I2
sa(dp1220
g20
(lp1221
S'd'
asg17
S'N'
sS'.thisRepN'
p1222
I14
sg19
S'Y'
sg31
g32
sS'.thisTrialN'
p1223
I8
sS'.thisN'
p1224
I162
sS'.thisIndex'
p1225
I3
sg15
(lp1226
S'k'
asg30
Vf
sg16
S'N'
sg14
I4
sg18
Nsg93
I3
sa(dp1227
g20
(lp1228
S'd'
asg17
S'N'
sS'.thisRepN'
p1229
I14
sg19
S'Y'
sg31
g32
sS'.thisTrialN'
p1230
I9
sS'.thisN'
p1231
I163
sS'.thisIndex'
p1232
I10
sg15
(lp1233
S'd'
asg30
Vf
sg16
S'Y'
sg14
I4
sg18
Nsg93
I10
sa(dp1234
g20
(lp1235
S'd'
asg17
S'N'
sS'.thisRepN'
p1236
I14
sg19
S'Y'
sg31
g32
sS'.thisTrialN'
p1237
I10
sS'.thisN'
p1238
I164
sS'.thisIndex'
p1239
I3
sg15
(lp1240
S'd'
asg30
Vf
sg16
S'Y'
sg14
I4
sg18
Nsg93
I3
sa(dp1241
g20
(lp1242
S'd'
asg17
S'N'
sS'.thisRepN'
p1243
I15
sg19
S'Y'
sg31
g32
sS'.thisTrialN'
p1244
I0
sS'.thisN'
p1245
I165
sS'.thisIndex'
p1246
I3
sg15
(lp1247
S'd'
asg30
Vf
sg16
S'Y'
sg14
I4
sg18
Nsg93
I3
sa(dp1248
g20
(lp1249
S'd'
asg17
S'N'
sS'.thisRepN'
p1250
I15
sg19
S'Y'
sg31
g32
sS'.thisTrialN'
p1251
I1
sS'.thisN'
p1252
I166
sS'.thisIndex'
p1253
I2
sg15
(lp1254
S'd'
asg30
Vf
sg16
S'Y'
sg14
I4
sg18
Nsg93
I2
sa(dp1255
g20
(lp1256
S'd'
asg17
S'Y'
sS'.thisRepN'
p1257
I15
sg19
S'N'
sg31
g32
sS'.thisTrialN'
p1258
I2
sS'.thisN'
p1259
I167
sS'.thisIndex'
p1260
I0
sg15
(lp1261
S'd'
asg30
Vf
sg16
S'Y'
sg14
I4
sg18
Nsg93
I0
sa(dp1262
g20
(lp1263
S'k'
asg17
S'N'
sS'.thisRepN'
p1264
I15
sg19
S'Y'
sg31
g32
sS'.thisTrialN'
p1265
I3
sS'.thisN'
p1266
I168
sS'.thisIndex'
p1267
I8
sg15
(lp1268
S'k'
asg30
Vf
sg16
S'Y'
sg14
I4
sg18
Nsg93
I8
sa(dp1269
g20
(lp1270
S'k'
asg17
S'Y'
sS'.thisRepN'
p1271
I15
sg19
S'N'
sg31
g32
sS'.thisTrialN'
p1272
I4
sS'.thisN'
p1273
I169
sS'.thisIndex'
p1274
I5
sg15
(lp1275
S'd'
asg30
Vf
sg16
S'N'
sg14
I4
sg18
Nsg93
I5
sa(dp1276
g20
(lp1277
S'd'
asg17
S'Y'
sS'.thisRepN'
p1278
I15
sg19
S'N'
sg31
g32
sS'.thisTrialN'
p1279
I5
sS'.thisN'
p1280
I170
sS'.thisIndex'
p1281
I3
sg15
(lp1282
S'k'
asg30
Vf
sg16
S'N'
sg14
I4
sg18
Nsg93
I3
sa(dp1283
g20
(lp1284
S'k'
asg17
S'Y'
sS'.thisRepN'
p1285
I15
sg19
S'N'
sg31
g32
sS'.thisTrialN'
p1286
I6
sS'.thisN'
p1287
I171
sS'.thisIndex'
p1288
I3
sg15
(lp1289
S'd'
asg30
Vf
sg16
S'N'
sg14
I4
sg18
Nsg93
I3
sa(dp1290
g20
(lp1291
S'd'
asg17
S'Y'
sS'.thisRepN'
p1292
I15
sg19
S'N'
sg31
g32
sS'.thisTrialN'
p1293
I7
sS'.thisN'
p1294
I172
sS'.thisIndex'
p1295
I4
sg15
(lp1296
S'd'
asg30
Vf
sg16
S'Y'
sg14
I4
sg18
Nsg93
I4
sa(dp1297
g20
(lp1298
S'd'
asg17
S'Y'
sS'.thisRepN'
p1299
I15
sg19
S'N'
sg31
g32
sS'.thisTrialN'
p1300
I8
sS'.thisN'
p1301
I173
sS'.thisIndex'
p1302
I10
sg15
(lp1303
S'd'
asg30
Vf
sg16
S'Y'
sg14
I4
sg18
Nsg93
I10
sa(dp1304
g20
(lp1305
S'd'
asg17
S'Y'
sS'.thisRepN'
p1306
I15
sg19
S'N'
sg31
g32
sS'.thisTrialN'
p1307
I9
sS'.thisN'
p1308
I174
sS'.thisIndex'
p1309
I4
sg15
(lp1310
S'k'
asg30
Vf
sg16
S'N'
sg14
I4
sg18
Nsg93
I4
sa(dp1311
g20
(lp1312
S'k'
asg17
S'N'
sS'.thisRepN'
p1313
I15
sg19
S'Y'
sg31
g32
sS'.thisTrialN'
p1314
I10
sS'.thisN'
p1315
I175
sS'.thisIndex'
p1316
I5
sg15
(lp1317
S'd'
asg30
Vf
sg16
S'N'
sg14
I4
sg18
Nsg93
I5
sa(dp1318
g20
(lp1319
S'k'
asg17
S'N'
sS'.thisRepN'
p1320
I16
sg19
S'Y'
sg31
g32
sS'.thisTrialN'
p1321
I0
sS'.thisN'
p1322
I176
sS'.thisIndex'
p1323
I3
sg15
(lp1324
S'd'
asg30
Vf
sg16
S'N'
sg14
I4
sg18
Nsg93
I3
sa(dp1325
g20
(lp1326
S'd'
asg17
S'N'
sS'.thisRepN'
p1327
I16
sg19
S'Y'
sg31
g32
sS'.thisTrialN'
p1328
I1
sS'.thisN'
p1329
I177
sS'.thisIndex'
p1330
I9
sg15
(lp1331
S'k'
asg30
Vf
sg16
S'N'
sg14
I4
sg18
Nsg93
I9
sa(dp1332
g20
(lp1333
S'k'
asg17
S'N'
sS'.thisRepN'
p1334
I16
sg19
S'Y'
sg31
g32
sS'.thisTrialN'
p1335
I2
sS'.thisN'
p1336
I178
sS'.thisIndex'
p1337
I10
sg15
(lp1338
S'k'
asg30
Vf
sg16
S'Y'
sg14
I4
sg18
Nsg93
I10
sa(dp1339
g20
(lp1340
S'k'
asg17
S'Y'
sS'.thisRepN'
p1341
I16
sg19
S'N'
sg31
g32
sS'.thisTrialN'
p1342
I3
sS'.thisN'
p1343
I179
sS'.thisIndex'
p1344
I9
sg15
(lp1345
S'd'
asg30
Vf
sg16
S'N'
sg14
I4
sg18
Nsg93
I9
sa(dp1346
g20
(lp1347
S'd'
asg17
S'N'
sS'.thisRepN'
p1348
I16
sg19
S'Y'
sg31
g32
sS'.thisTrialN'
p1349
I4
sS'.thisN'
p1350
I180
sS'.thisIndex'
p1351
I4
sg15
(lp1352
S'd'
asg30
Vf
sg16
S'Y'
sg14
I4
sg18
Nsg93
I4
sa(dp1353
g20
(lp1354
S'k'
asg17
S'N'
sS'.thisRepN'
p1355
I16
sg19
S'Y'
sg31
g32
sS'.thisTrialN'
p1356
I5
sS'.thisN'
p1357
I181
sS'.thisIndex'
p1358
I8
sg15
(lp1359
S'd'
asg30
Vf
sg16
S'N'
sg14
I4
sg18
Nsg93
I8
sa(dp1360
g20
(lp1361
S'k'
asg17
S'Y'
sS'.thisRepN'
p1362
I16
sg19
S'N'
sg31
g32
sS'.thisTrialN'
p1363
I6
sS'.thisN'
p1364
I182
sS'.thisIndex'
p1365
I7
sg15
(lp1366
S'k'
asg30
Vf
sg16
S'Y'
sg14
I4
sg18
Nsg93
I7
sa(dp1367
g20
(lp1368
S'k'
asg17
S'N'
sS'.thisRepN'
p1369
I16
sg19
S'Y'
sg31
g32
sS'.thisTrialN'
p1370
I7
sS'.thisN'
p1371
I183
sS'.thisIndex'
p1372
I6
sg15
(lp1373
S'k'
asg30
Vf
sg16
S'Y'
sg14
I4
sg18
Nsg93
I6
sa(dp1374
g20
(lp1375
S'd'
asg17
S'N'
sS'.thisRepN'
p1376
I16
sg19
S'Y'
sg31
g32
sS'.thisTrialN'
p1377
I8
sS'.thisN'
p1378
I184
sS'.thisIndex'
p1379
I1
sg15
(lp1380
S'd'
asg30
Vf
sg16
S'Y'
sg14
I4
sg18
Nsg93
I1
sa(dp1381
g20
(lp1382
S'k'
asg17
S'Y'
sS'.thisRepN'
p1383
I16
sg19
S'N'
sg31
g32
sS'.thisTrialN'
p1384
I9
sS'.thisN'
p1385
I185
sS'.thisIndex'
p1386
I2
sg15
(lp1387
S'd'
asg30
Vf
sg16
S'N'
sg14
I4
sg18
Nsg93
I2
sa(dp1388
g20
(lp1389
S'k'
asg17
S'N'
sS'.thisRepN'
p1390
I16
sg19
S'Y'
sg31
g32
sS'.thisTrialN'
p1391
I10
sS'.thisN'
p1392
I186
sS'.thisIndex'
p1393
I9
sg15
(lp1394
S'k'
asg30
Vf
sg16
S'Y'
sg14
I4
sg18
Nsg93
I9
sa(dp1395
g20
(lp1396
S'k'
asg17
S'Y'
sS'.thisRepN'
p1397
I17
sg19
S'N'
sg31
g32
sS'.thisTrialN'
p1398
I0
sS'.thisN'
p1399
I187
sS'.thisIndex'
p1400
I6
sg15
(lp1401
S'k'
asg30
Vf
sg16
S'Y'
sg14
I4
sg18
Nsg93
I6
sa(dp1402
g20
(lp1403
S'd'
asg17
S'N'
sS'.thisRepN'
p1404
I17
sg19
S'Y'
sg31
g32
sS'.thisTrialN'
p1405
I1
sS'.thisN'
p1406
I188
sS'.thisIndex'
p1407
I5
sg15
(lp1408
S'd'
asg30
Vf
sg16
S'Y'
sg14
I4
sg18
Nsg93
I5
sa(dp1409
g20
(lp1410
S'd'
asg17
S'Y'
sS'.thisRepN'
p1411
I17
sg19
S'N'
sg31
g32
sS'.thisTrialN'
p1412
I2
sS'.thisN'
p1413
I189
sS'.thisIndex'
p1414
I5
sg15
(lp1415
S'd'
asg30
Vf
sg16
S'Y'
sg14
I4
sg18
Nsg93
I5
sa(dp1416
g20
(lp1417
S'd'
asg17
S'N'
sS'.thisRepN'
p1418
I17
sg19
S'Y'
sg31
g32
sS'.thisTrialN'
p1419
I3
sS'.thisN'
p1420
I190
sS'.thisIndex'
p1421
I5
sg15
(lp1422
S'k'
asg30
Vf
sg16
S'N'
sg14
I4
sg18
Nsg93
I5
sa(dp1423
g20
(lp1424
S'k'
asg17
S'Y'
sS'.thisRepN'
p1425
I17
sg19
S'N'
sg31
g32
sS'.thisTrialN'
p1426
I4
sS'.thisN'
p1427
I191
sS'.thisIndex'
p1428
I6
sg15
(lp1429
S'd'
asg30
Vf
sg16
S'N'
sg14
I4
sg18
Nsg93
I6
sa(dp1430
g20
(lp1431
S'd'
asg17
S'Y'
sS'.thisRepN'
p1432
I17
sg19
S'N'
sg31
g32
sS'.thisTrialN'
p1433
I5
sS'.thisN'
p1434
I192
sS'.thisIndex'
p1435
I2
sg15
(lp1436
S'k'
asg30
Vf
sg16
S'N'
sg14
I4
sg18
Nsg93
I2
sa(dp1437
g20
(lp1438
S'd'
asg17
S'N'
sS'.thisRepN'
p1439
I17
sg19
S'Y'
sg31
g32
sS'.thisTrialN'
p1440
I6
sS'.thisN'
p1441
I193
sS'.thisIndex'
p1442
I10
sg15
(lp1443
S'd'
asg30
Vf
sg16
S'Y'
sg14
I4
sg18
Nsg93
I10
sa(dp1444
g20
(lp1445
S'd'
asg17
S'Y'
sS'.thisRepN'
p1446
I17
sg19
S'N'
sg31
g32
sS'.thisTrialN'
p1447
I7
sS'.thisN'
p1448
I194
sS'.thisIndex'
p1449
I10
sg15
(lp1450
S'd'
asg30
Vf
sg16
S'Y'
sg14
I4
sg18
Nsg93
I10
sa(dp1451
g20
(lp1452
S'k'
asg17
S'N'
sS'.thisRepN'
p1453
I17
sg19
S'Y'
sg31
g32
sS'.thisTrialN'
p1454
I8
sS'.thisN'
p1455
I195
sS'.thisIndex'
p1456
I10
sg15
(lp1457
S'd'
asg30
Vf
sg16
S'N'
sg14
I4
sg18
Nsg93
I10
sa(dp1458
g20
(lp1459
S'd'
asg17
S'Y'
sS'.thisRepN'
p1460
I17
sg19
S'N'
sg31
g32
sS'.thisTrialN'
p1461
I9
sS'.thisN'
p1462
I196
sS'.thisIndex'
p1463
I2
sg15
(lp1464
S'd'
asg30
Vf
sg16
S'Y'
sg14
I4
sg18
Nsg93
I2
sa(dp1465
g20
(lp1466
S'd'
asg17
S'N'
sS'.thisRepN'
p1467
I17
sg19
S'Y'
sg31
g32
sS'.thisTrialN'
p1468
I10
sS'.thisN'
p1469
I197
sS'.thisIndex'
p1470
I4
sg15
(lp1471
S'k'
asg30
Vf
sg16
S'N'
sg14
I4
sg18
Nsg93
I4
sa(dp1472
g20
(lp1473
S'd'
asg17
S'N'
sS'.thisRepN'
p1474
I18
sg19
S'Y'
sg31
g32
sS'.thisTrialN'
p1475
I0
sS'.thisN'
p1476
I198
sS'.thisIndex'
p1477
I2
sg15
(lp1478
S'd'
asg30
Vf
sg16
S'Y'
sg14
I4
sg18
Nsg93
I2
sa(dp1479
g20
(lp1480
S'd'
asg17
S'Y'
sg22
I27
sS'.thisN'
p1481
I199
sg19
S'N'
sg31
g32
sS'.thisTrialN'
p1482
I1
sS'.thisRepN'
p1483
I18
sg21
I27
sS'.thisIndex'
p1484
I10
sg23
I21
sg15
(lp1485
S'k'
asg30
Vf
sg16
S'N'
sg14
I4
sg18
Nsg93
I10
sa(dp1486
g20
(lp1487
S'k'
asg93
I7
sS'.thisRepN'
p1488
I18
sg30
Vf
sg31
g32
sS'.thisTrialN'
p1489
I2
sS'.thisN'
p1490
I200
sS'.thisIndex'
p1491
I7
sg15
(lp1492
S'd'
asg16
S'N'
sg14
I5
sa(dp1493
g20
(lp1494
S'k'
asg93
I5
sS'.thisRepN'
p1495
I18
sg30
Vf
sg31
g32
sS'.thisTrialN'
p1496
I3
sS'.thisN'
p1497
I201
sS'.thisIndex'
p1498
I5
sg15
(lp1499
S'd'
asg16
S'N'
sg14
I5
sa(dp1500
g20
(lp1501
S'k'
asg17
S'N'
sS'.thisRepN'
p1502
I18
sg19
S'Y'
sg31
g32
sS'.thisTrialN'
p1503
I4
sS'.thisN'
p1504
I202
sS'.thisIndex'
p1505
I1
sg15
(lp1506
S'd'
asg30
Vf
sg16
S'N'
sg14
I5
sg18
Nsg93
I1
sa(dp1507
g20
(lp1508
S'd'
asg17
S'N'
sS'.thisRepN'
p1509
I18
sg19
S'Y'
sg31
g32
sS'.thisTrialN'
p1510
I5
sS'.thisN'
p1511
I203
sS'.thisIndex'
p1512
I7
sg15
(lp1513
S'k'
asg30
Vf
sg16
S'N'
sg14
I5
sg18
Nsg93
I7
sa(dp1514
g20
(lp1515
S'k'
asg17
S'N'
sS'.thisRepN'
p1516
I18
sg19
S'Y'
sg31
g32
sS'.thisTrialN'
p1517
I6
sS'.thisN'
p1518
I204
sS'.thisIndex'
p1519
I4
sg15
(lp1520
S'k'
asg30
Vf
sg16
S'Y'
sg14
I5
sg18
Nsg93
I4
sa(dp1521
g20
(lp1522
S'k'
asg17
S'Y'
sS'.thisRepN'
p1523
I18
sg19
S'N'
sg31
g32
sS'.thisTrialN'
p1524
I7
sS'.thisN'
p1525
I205
sS'.thisIndex'
p1526
I4
sg15
(lp1527
S'd'
asg30
Vf
sg16
S'N'
sg14
I5
sg18
Nsg93
I4
sa(dp1528
g20
(lp1529
S'k'
asg17
S'Y'
sS'.thisRepN'
p1530
I18
sg19
S'N'
sg31
g32
sS'.thisTrialN'
p1531
I8
sS'.thisN'
p1532
I206
sS'.thisIndex'
p1533
I6
sg15
(lp1534
S'd'
asg30
Vf
sg16
S'N'
sg14
I5
sg18
Nsg93
I6
sa(dp1535
g20
(lp1536
S'k'
asg17
S'N'
sS'.thisRepN'
p1537
I18
sg19
S'Y'
sg31
g32
sS'.thisTrialN'
p1538
I9
sS'.thisN'
p1539
I207
sS'.thisIndex'
p1540
I10
sg15
(lp1541
S'd'
asg30
Vf
sg16
S'N'
sg14
I5
sg18
Nsg93
I10
sa(dp1542
g20
(lp1543
S'd'
asg17
S'N'
sS'.thisRepN'
p1544
I18
sg19
S'Y'
sg31
g32
sS'.thisTrialN'
p1545
I10
sS'.thisN'
p1546
I208
sS'.thisIndex'
p1547
I8
sg15
(lp1548
S'k'
asg30
Vf
sg16
S'N'
sg14
I5
sg18
Nsg93
I8
sa(dp1549
g20
(lp1550
S'd'
asg17
S'N'
sS'.thisRepN'
p1551
I19
sg19
S'Y'
sg31
g32
sS'.thisTrialN'
p1552
I0
sS'.thisN'
p1553
I209
sS'.thisIndex'
p1554
I4
sg15
(lp1555
S'd'
asg30
Vf
sg16
S'Y'
sg14
I5
sg18
Nsg93
I4
sa(dp1556
g20
(lp1557
S'k'
asg17
S'Y'
sS'.thisRepN'
p1558
I19
sg19
S'N'
sg31
g32
sS'.thisTrialN'
p1559
I1
sS'.thisN'
p1560
I210
sS'.thisIndex'
p1561
I9
sg15
(lp1562
S'd'
asg30
Vf
sg16
S'N'
sg14
I5
sg18
Nsg93
I9
sa(dp1563
g20
(lp1564
S'd'
asg17
S'Y'
sS'.thisRepN'
p1565
I19
sg19
S'N'
sg31
g32
sS'.thisTrialN'
p1566
I2
sS'.thisN'
p1567
I211
sS'.thisIndex'
p1568
I4
sg15
(lp1569
S'k'
asg30
Vf
sg16
S'N'
sg14
I5
sg18
Nsg93
I4
sa(dp1570
g20
(lp1571
S'd'
asg17
S'N'
sS'.thisRepN'
p1572
I19
sg19
S'Y'
sg31
g32
sS'.thisTrialN'
p1573
I3
sS'.thisN'
p1574
I212
sS'.thisIndex'
p1575
I0
sg15
(lp1576
S'd'
asg30
Vf
sg16
S'Y'
sg14
I5
sg18
Nsg93
I0
sa(dp1577
g20
(lp1578
S'k'
asg17
S'Y'
sS'.thisRepN'
p1579
I19
sg19
S'N'
sg31
g32
sS'.thisTrialN'
p1580
I4
sS'.thisN'
p1581
I213
sS'.thisIndex'
p1582
I1
sg15
(lp1583
S'd'
asg30
Vf
sg16
S'N'
sg14
I5
sg18
Nsg93
I1
sa(dp1584
g20
(lp1585
S'd'
asg17
S'N'
sS'.thisRepN'
p1586
I19
sg19
S'Y'
sg31
g32
sS'.thisTrialN'
p1587
I5
sS'.thisN'
p1588
I214
sS'.thisIndex'
p1589
I10
sg15
(lp1590
S'd'
asg30
Vf
sg16
S'Y'
sg14
I5
sg18
Nsg93
I10
sa(dp1591
g20
(lp1592
S'd'
asg17
S'Y'
sS'.thisRepN'
p1593
I19
sg19
S'N'
sg31
g32
sS'.thisTrialN'
p1594
I6
sS'.thisN'
p1595
I215
sS'.thisIndex'
p1596
I0
sg15
(lp1597
S'd'
asg30
Vf
sg16
S'Y'
sg14
I5
sg18
Nsg93
I0
sa(dp1598
g20
(lp1599
S'k'
asg17
S'Y'
sS'.thisRepN'
p1600
I19
sg19
S'N'
sg31
g32
sS'.thisTrialN'
p1601
I7
sS'.thisN'
p1602
I216
sS'.thisIndex'
p1603
I4
sg15
(lp1604
S'k'
asg30
Vf
sg16
S'Y'
sg14
I5
sg18
Nsg93
I4
sa(dp1605
g20
(lp1606
S'k'
asg17
S'N'
sS'.thisRepN'
p1607
I19
sg19
S'Y'
sg31
g32
sS'.thisTrialN'
p1608
I8
sS'.thisN'
p1609
I217
sS'.thisIndex'
p1610
I8
sg15
(lp1611
S'd'
asg30
Vf
sg16
S'N'
sg14
I5
sg18
Nsg93
I8
sa(dp1612
g20
(lp1613
S'd'
asg17
S'Y'
sS'.thisRepN'
p1614
I19
sg19
S'N'
sg31
g32
sS'.thisTrialN'
p1615
I9
sS'.thisN'
p1616
I218
sS'.thisIndex'
p1617
I0
sg15
(lp1618
S'k'
asg30
Vf
sg16
S'N'
sg14
I5
sg18
Nsg93
I0
sa(dp1619
g20
(lp1620
S'k'
asg17
S'Y'
sS'.thisRepN'
p1621
I19
sg19
S'N'
sg31
g32
sS'.thisTrialN'
p1622
I10
sS'.thisN'
p1623
I219
sS'.thisIndex'
p1624
I0
sg15
(lp1625
S'k'
asg30
Vf
sg16
S'Y'
sg14
I5
sg18
Nsg93
I0
sa(dp1626
g20
(lp1627
S'd'
asg17
S'Y'
sS'.thisRepN'
p1628
I20
sg19
S'N'
sg31
g32
sS'.thisTrialN'
p1629
I0
sS'.thisN'
p1630
I220
sS'.thisIndex'
p1631
I2
sg15
(lp1632
S'd'
asg30
Vf
sg16
S'Y'
sg14
I5
sg18
Nsg93
I2
sa(dp1633
g20
(lp1634
S'k'
asg17
S'Y'
sS'.thisRepN'
p1635
I20
sg19
S'N'
sg31
g32
sS'.thisTrialN'
p1636
I1
sS'.thisN'
p1637
I221
sS'.thisIndex'
p1638
I4
sg15
(lp1639
S'd'
asg30
Vf
sg16
S'N'
sg14
I5
sg18
Nsg93
I4
sa(dp1640
g20
(lp1641
S'd'
asg17
S'Y'
sS'.thisRepN'
p1642
I20
sg19
S'N'
sg31
g32
sS'.thisTrialN'
p1643
I2
sS'.thisN'
p1644
I222
sS'.thisIndex'
p1645
I3
sg15
(lp1646
S'd'
asg30
Vf
sg16
S'Y'
sg14
I5
sg18
Nsg93
I3
sa(dp1647
g20
(lp1648
S'd'
asg17
S'N'
sS'.thisRepN'
p1649
I20
sg19
S'Y'
sg31
g32
sS'.thisTrialN'
p1650
I3
sS'.thisN'
p1651
I223
sS'.thisIndex'
p1652
I3
sg15
(lp1653
S'k'
asg30
Vf
sg16
S'N'
sg14
I5
sg18
Nsg93
I3
sa(dp1654
g20
(lp1655
S'd'
asg17
S'Y'
sS'.thisRepN'
p1656
I20
sg19
S'N'
sg31
g32
sS'.thisTrialN'
p1657
I4
sS'.thisN'
p1658
I224
sS'.thisIndex'
p1659
I10
sg15
(lp1660
S'd'
asg30
Vf
sg16
S'Y'
sg14
I5
sg18
Nsg93
I10
sa(dp1661
g20
(lp1662
S'k'
asg17
S'Y'
sS'.thisRepN'
p1663
I20
sg19
S'N'
sg31
g32
sS'.thisTrialN'
p1664
I5
sS'.thisN'
p1665
I225
sS'.thisIndex'
p1666
I5
sg15
(lp1667
S'd'
asg30
Vf
sg16
S'N'
sg14
I5
sg18
Nsg93
I5
sa(dp1668
g20
(lp1669
S'k'
asg17
S'N'
sS'.thisRepN'
p1670
I20
sg19
S'Y'
sg31
g32
sS'.thisTrialN'
p1671
I6
sS'.thisN'
p1672
I226
sS'.thisIndex'
p1673
I5
sg15
(lp1674
S'd'
asg30
Vf
sg16
S'N'
sg14
I5
sg18
Nsg93
I5
sa(dp1675
g20
(lp1676
S'd'
asg17
S'Y'
sS'.thisRepN'
p1677
I20
sg19
S'N'
sg31
g32
sS'.thisTrialN'
p1678
I7
sS'.thisN'
p1679
I227
sS'.thisIndex'
p1680
I5
sg15
(lp1681
S'd'
asg30
Vf
sg16
S'Y'
sg14
I5
sg18
Nsg93
I5
sa(dp1682
g20
(lp1683
S'd'
asg17
S'Y'
sS'.thisRepN'
p1684
I20
sg19
S'N'
sg31
g32
sS'.thisTrialN'
p1685
I8
sS'.thisN'
p1686
I228
sS'.thisIndex'
p1687
I7
sg15
(lp1688
S'k'
asg30
Vf
sg16
S'N'
sg14
I5
sg18
Nsg93
I7
sa(dp1689
g20
(lp1690
S'k'
asg17
S'Y'
sS'.thisRepN'
p1691
I20
sg19
S'N'
sg31
g32
sS'.thisTrialN'
p1692
I9
sS'.thisN'
p1693
I229
sS'.thisIndex'
p1694
I7
sg15
(lp1695
S'd'
asg30
Vf
sg16
S'N'
sg14
I5
sg18
Nsg93
I7
sa(dp1696
g20
(lp1697
S'd'
asg17
S'Y'
sS'.thisRepN'
p1698
I20
sg19
S'N'
sg31
g32
sS'.thisTrialN'
p1699
I10
sS'.thisN'
p1700
I230
sS'.thisIndex'
p1701
I4
sg15
(lp1702
S'd'
asg30
Vf
sg16
S'Y'
sg14
I5
sg18
Nsg93
I4
sa(dp1703
g20
(lp1704
S'k'
asg17
S'Y'
sS'.thisRepN'
p1705
I21
sg19
S'N'
sg31
g32
sS'.thisTrialN'
p1706
I0
sS'.thisN'
p1707
I231
sS'.thisIndex'
p1708
I0
sg15
(lp1709
S'd'
asg30
Vf
sg16
S'N'
sg14
I5
sg18
Nsg93
I0
sa(dp1710
g20
(lp1711
S'k'
asg17
S'Y'
sS'.thisRepN'
p1712
I21
sg19
S'N'
sg31
g32
sS'.thisTrialN'
p1713
I1
sS'.thisN'
p1714
I232
sS'.thisIndex'
p1715
I0
sg15
(lp1716
S'k'
asg30
Vf
sg16
S'Y'
sg14
I5
sg18
Nsg93
I0
sa(dp1717
g20
(lp1718
S'k'
asg17
S'N'
sS'.thisRepN'
p1719
I21
sg19
S'Y'
sg31
g32
sS'.thisTrialN'
p1720
I2
sS'.thisN'
p1721
I233
sS'.thisIndex'
p1722
I2
sg15
(lp1723
S'd'
asg30
Vf
sg16
S'N'
sg14
I5
sg18
Nsg93
I2
sa(dp1724
g20
(lp1725
S'd'
asg17
S'N'
sS'.thisRepN'
p1726
I21
sg19
S'Y'
sg31
g32
sS'.thisTrialN'
p1727
I3
sS'.thisN'
p1728
I234
sS'.thisIndex'
p1729
I9
sg15
(lp1730
S'd'
asg30
Vf
sg16
S'Y'
sg14
I5
sg18
Nsg93
I9
sa(dp1731
g20
(lp1732
S'k'
asg17
S'Y'
sS'.thisRepN'
p1733
I21
sg19
S'N'
sg31
g32
sS'.thisTrialN'
p1734
I4
sS'.thisN'
p1735
I235
sS'.thisIndex'
p1736
I7
sg15
(lp1737
S'k'
asg30
Vf
sg16
S'Y'
sg14
I5
sg18
Nsg93
I7
sa(dp1738
g20
(lp1739
S'k'
asg17
S'Y'
sS'.thisRepN'
p1740
I21
sg19
S'N'
sg31
g32
sS'.thisTrialN'
p1741
I5
sS'.thisN'
p1742
I236
sS'.thisIndex'
p1743
I8
sg15
(lp1744
S'k'
asg30
Vf
sg16
S'Y'
sg14
I5
sg18
Nsg93
I8
sa(dp1745
g20
(lp1746
S'd'
asg17
S'N'
sS'.thisRepN'
p1747
I21
sg19
S'Y'
sg31
g32
sS'.thisTrialN'
p1748
I6
sS'.thisN'
p1749
I237
sS'.thisIndex'
p1750
I8
sg15
(lp1751
S'k'
asg30
Vf
sg16
S'N'
sg14
I5
sg18
Nsg93
I8
sa(dp1752
g20
(lp1753
S'd'
asg17
S'N'
sS'.thisRepN'
p1754
I21
sg19
S'Y'
sg31
g32
sS'.thisTrialN'
p1755
I7
sS'.thisN'
p1756
I238
sS'.thisIndex'
p1757
I1
sg15
(lp1758
S'k'
asg30
Vf
sg16
S'N'
sg14
I5
sg18
Nsg93
I1
sa(dp1759
g20
(lp1760
S'd'
asg17
S'Y'
sS'.thisRepN'
p1761
I21
sg19
S'N'
sg31
g32
sS'.thisTrialN'
p1762
I8
sS'.thisN'
p1763
I239
sS'.thisIndex'
p1764
I10
sg15
(lp1765
S'd'
asg30
Vf
sg16
S'Y'
sg14
I5
sg18
Nsg93
I10
sa(dp1766
g20
(lp1767
S'k'
asg17
S'N'
sS'.thisRepN'
p1768
I21
sg19
S'Y'
sg31
g32
sS'.thisTrialN'
p1769
I9
sS'.thisN'
p1770
I240
sS'.thisIndex'
p1771
I8
sg15
(lp1772
S'd'
asg30
Vf
sg16
S'N'
sg14
I5
sg18
Nsg93
I8
sa(dp1773
g20
(lp1774
S'd'
asg17
S'Y'
sS'.thisRepN'
p1775
I21
sg19
S'N'
sg31
g32
sS'.thisTrialN'
p1776
I10
sS'.thisN'
p1777
I241
sS'.thisIndex'
p1778
I9
sg15
(lp1779
S'd'
asg30
Vf
sg16
S'Y'
sg14
I5
sg18
Nsg93
I9
sa(dp1780
g20
(lp1781
S'd'
asg17
S'N'
sS'.thisRepN'
p1782
I22
sg19
S'Y'
sg31
g32
sS'.thisTrialN'
p1783
I0
sS'.thisN'
p1784
I242
sS'.thisIndex'
p1785
I3
sg15
(lp1786
S'k'
asg30
Vf
sg16
S'N'
sg14
I5
sg18
Nsg93
I3
sa(dp1787
g20
(lp1788
S'd'
asg17
S'N'
sS'.thisRepN'
p1789
I22
sg19
S'Y'
sg31
g32
sS'.thisTrialN'
p1790
I1
sS'.thisN'
p1791
I243
sS'.thisIndex'
p1792
I4
sg15
(lp1793
S'd'
asg30
Vf
sg16
S'Y'
sg14
I5
sg18
Nsg93
I4
sa(dp1794
g20
(lp1795
S'd'
asg17
S'N'
sS'.thisRepN'
p1796
I22
sg19
S'Y'
sg31
g32
sS'.thisTrialN'
p1797
I2
sS'.thisN'
p1798
I244
sS'.thisIndex'
p1799
I6
sg15
(lp1800
S'd'
asg30
Vf
sg16
S'Y'
sg14
I5
sg18
Nsg93
I6
sa(dp1801
g20
(lp1802
S'k'
asg17
S'N'
sS'.thisRepN'
p1803
I22
sg19
S'Y'
sg31
g32
sS'.thisTrialN'
p1804
I3
sS'.thisN'
p1805
I245
sS'.thisIndex'
p1806
I3
sg15
(lp1807
S'd'
asg30
Vf
sg16
S'N'
sg14
I5
sg18
Nsg93
I3
sa(dp1808
g20
(lp1809
S'd'
asg17
S'Y'
sS'.thisRepN'
p1810
I22
sg19
S'N'
sg31
g32
sS'.thisTrialN'
p1811
I4
sS'.thisN'
p1812
I246
sS'.thisIndex'
p1813
I4
sg15
(lp1814
S'k'
asg30
Vf
sg16
S'N'
sg14
I5
sg18
Nsg93
I4
sa(dp1815
g20
(lp1816
S'd'
asg17
S'N'
sS'.thisRepN'
p1817
I22
sg19
S'Y'
sg31
g32
sS'.thisTrialN'
p1818
I5
sS'.thisN'
p1819
I247
sS'.thisIndex'
p1820
I6
sg15
(lp1821
S'd'
asg30
Vf
sg16
S'Y'
sg14
I5
sg18
Nsg93
I6
sa(dp1822
g20
(lp1823
S'k'
asg17
S'N'
sS'.thisRepN'
p1824
I22
sg19
S'Y'
sg31
g32
sS'.thisTrialN'
p1825
I6
sS'.thisN'
p1826
I248
sS'.thisIndex'
p1827
I6
sg15
(lp1828
S'd'
asg30
Vf
sg16
S'N'
sg14
I5
sg18
Nsg93
I6
sa(dp1829
g20
(lp1830
S'd'
asg17
S'N'
sg22
I23
sS'.thisN'
p1831
I249
sg19
S'Y'
sg31
g32
sS'.thisTrialN'
p1832
I7
sS'.thisRepN'
p1833
I22
sg21
I21
sS'.thisIndex'
p1834
I5
sg23
I25
sg15
(lp1835
S'k'
asg30
Vf
sg16
S'N'
sg14
I5
sg18
Nsg93
I5
sa(dp1836
g20
(lp1837
S'd'
asg93
I3
sS'.thisRepN'
p1838
I22
sg30
Vf
sg31
g32
sS'.thisTrialN'
p1839
I8
sS'.thisN'
p1840
I250
sS'.thisIndex'
p1841
I3
sg15
(lp1842
S'd'
asg16
S'Y'
sg14
I6
sa(dp1843
g20
(lp1844
S'k'
asg93
I7
sS'.thisRepN'
p1845
I22
sg30
Vf
sg31
g32
sS'.thisTrialN'
p1846
I9
sS'.thisN'
p1847
I251
sS'.thisIndex'
p1848
I7
sg15
(lp1849
S'd'
asg16
S'N'
sg14
I6
sa(dp1850
g20
(lp1851
S'k'
asg17
S'N'
sS'.thisRepN'
p1852
I22
sg19
S'Y'
sg31
g32
sS'.thisTrialN'
p1853
I10
sS'.thisN'
p1854
I252
sS'.thisIndex'
p1855
I10
sg15
(lp1856
S'd'
asg30
Vf
sg16
S'N'
sg14
I6
sg18
Nsg93
I10
sa(dp1857
g20
(lp1858
S'k'
asg17
S'N'
sS'.thisRepN'
p1859
I23
sg19
S'Y'
sg31
g32
sS'.thisTrialN'
p1860
I0
sS'.thisN'
p1861
I253
sS'.thisIndex'
p1862
I2
sg15
(lp1863
S'k'
asg30
Vf
sg16
S'Y'
sg14
I6
sg18
Nsg93
I2
sa(dp1864
g20
(lp1865
S'd'
asg17
S'Y'
sS'.thisRepN'
p1866
I23
sg19
S'N'
sg31
g32
sS'.thisTrialN'
p1867
I1
sS'.thisN'
p1868
I254
sS'.thisIndex'
p1869
I10
sg15
(lp1870
S'd'
asg30
Vf
sg16
S'Y'
sg14
I6
sg18
Nsg93
I10
sa(dp1871
g20
(lp1872
S'd'
asg17
S'Y'
sS'.thisRepN'
p1873
I23
sg19
S'N'
sg31
g32
sS'.thisTrialN'
p1874
I2
sS'.thisN'
p1875
I255
sS'.thisIndex'
p1876
I10
sg15
(lp1877
S'd'
asg30
Vf
sg16
S'Y'
sg14
I6
sg18
Nsg93
I10
sa(dp1878
g20
(lp1879
S'd'
asg17
S'Y'
sS'.thisRepN'
p1880
I23
sg19
S'N'
sg31
g32
sS'.thisTrialN'
p1881
I3
sS'.thisN'
p1882
I256
sS'.thisIndex'
p1883
I0
sg15
(lp1884
S'k'
asg30
Vf
sg16
S'N'
sg14
I6
sg18
Nsg93
I0
sa(dp1885
g20
(lp1886
S'd'
asg17
S'N'
sS'.thisRepN'
p1887
I23
sg19
S'Y'
sg31
g32
sS'.thisTrialN'
p1888
I4
sS'.thisN'
p1889
I257
sS'.thisIndex'
p1890
I8
sg15
(lp1891
S'd'
asg30
Vf
sg16
S'Y'
sg14
I6
sg18
Nsg93
I8
sa(dp1892
g20
(lp1893
S'd'
asg17
S'Y'
sS'.thisRepN'
p1894
I23
sg19
S'N'
sg31
g32
sS'.thisTrialN'
p1895
I5
sS'.thisN'
p1896
I258
sS'.thisIndex'
p1897
I1
sg15
(lp1898
S'd'
asg30
Vf
sg16
S'Y'
sg14
I6
sg18
Nsg93
I1
sa(dp1899
g20
(lp1900
S'k'
asg17
S'Y'
sS'.thisRepN'
p1901
I23
sg19
S'N'
sg31
g32
sS'.thisTrialN'
p1902
I6
sS'.thisN'
p1903
I259
sS'.thisIndex'
p1904
I5
sg15
(lp1905
S'd'
asg30
Vf
sg16
S'N'
sg14
I6
sg18
Nsg93
I5
sa(dp1906
g20
(lp1907
S'k'
asg17
S'N'
sS'.thisRepN'
p1908
I23
sg19
S'Y'
sg31
g32
sS'.thisTrialN'
p1909
I7
sS'.thisN'
p1910
I260
sS'.thisIndex'
p1911
I4
sg15
(lp1912
S'k'
asg30
Vf
sg16
S'Y'
sg14
I6
sg18
Nsg93
I4
sa(dp1913
g20
(lp1914
S'd'
asg17
S'Y'
sS'.thisRepN'
p1915
I23
sg19
S'N'
sg31
g32
sS'.thisTrialN'
p1916
I8
sS'.thisN'
p1917
I261
sS'.thisIndex'
p1918
I10
sg15
(lp1919
S'k'
asg30
Vf
sg16
S'N'
sg14
I6
sg18
Nsg93
I10
sa(dp1920
g20
(lp1921
S'k'
asg17
S'N'
sS'.thisRepN'
p1922
I23
sg19
S'Y'
sg31
g32
sS'.thisTrialN'
p1923
I9
sS'.thisN'
p1924
I262
sS'.thisIndex'
p1925
I6
sg15
(lp1926
S'd'
asg30
Vf
sg16
S'N'
sg14
I6
sg18
Nsg93
I6
sa(dp1927
g20
(lp1928
S'k'
asg17
S'N'
sS'.thisRepN'
p1929
I23
sg19
S'Y'
sg31
g32
sS'.thisTrialN'
p1930
I10
sS'.thisN'
p1931
I263
sS'.thisIndex'
p1932
I1
sg15
(lp1933
S'd'
asg30
Vf
sg16
S'N'
sg14
I6
sg18
Nsg93
I1
sa(dp1934
g20
(lp1935
S'k'
asg17
S'N'
sS'.thisRepN'
p1936
I24
sg19
S'Y'
sg31
g32
sS'.thisTrialN'
p1937
I0
sS'.thisN'
p1938
I264
sS'.thisIndex'
p1939
I8
sg15
(lp1940
S'k'
asg30
Vf
sg16
S'Y'
sg14
I6
sg18
Nsg93
I8
sa(dp1941
g20
(lp1942
S'k'
asg17
S'N'
sS'.thisRepN'
p1943
I24
sg19
S'Y'
sg31
g32
sS'.thisTrialN'
p1944
I1
sS'.thisN'
p1945
I265
sS'.thisIndex'
p1946
I8
sg15
(lp1947
S'd'
asg30
Vf
sg16
S'N'
sg14
I6
sg18
Nsg93
I8
sa(dp1948
g20
(lp1949
S'd'
asg17
S'Y'
sS'.thisRepN'
p1950
I24
sg19
S'N'
sg31
g32
sS'.thisTrialN'
p1951
I2
sS'.thisN'
p1952
I266
sS'.thisIndex'
p1953
I8
sg15
(lp1954
S'k'
asg30
Vf
sg16
S'N'
sg14
I6
sg18
Nsg93
I8
sa(dp1955
g20
(lp1956
S'k'
asg17
S'N'
sS'.thisRepN'
p1957
I24
sg19
S'Y'
sg31
g32
sS'.thisTrialN'
p1958
I3
sS'.thisN'
p1959
I267
sS'.thisIndex'
p1960
I0
sg15
(lp1961
S'k'
asg30
Vf
sg16
S'Y'
sg14
I6
sg18
Nsg93
I0
sa(dp1962
g20
(lp1963
S'd'
asg17
S'N'
sS'.thisRepN'
p1964
I24
sg19
S'Y'
sg31
g32
sS'.thisTrialN'
p1965
I4
sS'.thisN'
p1966
I268
sS'.thisIndex'
p1967
I10
sg15
(lp1968
S'd'
asg30
Vf
sg16
S'Y'
sg14
I6
sg18
Nsg93
I10
sa(dp1969
g20
(lp1970
S'd'
asg17
S'N'
sS'.thisRepN'
p1971
I24
sg19
S'Y'
sg31
g32
sS'.thisTrialN'
p1972
I5
sS'.thisN'
p1973
I269
sS'.thisIndex'
p1974
I8
sg15
(lp1975
S'd'
asg30
Vf
sg16
S'Y'
sg14
I6
sg18
Nsg93
I8
sa(dp1976
g20
(lp1977
S'd'
asg17
S'N'
sS'.thisRepN'
p1978
I24
sg19
S'Y'
sg31
g32
sS'.thisTrialN'
p1979
I6
sS'.thisN'
p1980
I270
sS'.thisIndex'
p1981
I5
sg15
(lp1982
S'd'
asg30
Vf
sg16
S'Y'
sg14
I6
sg18
Nsg93
I5
sa(dp1983
g20
(lp1984
S'd'
asg17
S'Y'
sS'.thisRepN'
p1985
I24
sg19
S'N'
sg31
g32
sS'.thisTrialN'
p1986
I7
sS'.thisN'
p1987
I271
sS'.thisIndex'
p1988
I5
sg15
(lp1989
S'd'
asg30
Vf
sg16
S'Y'
sg14
I6
sg18
Nsg93
I5
sa(dp1990
g20
(lp1991
S'd'
asg17
S'N'
sS'.thisRepN'
p1992
I24
sg19
S'Y'
sg31
g32
sS'.thisTrialN'
p1993
I8
sS'.thisN'
p1994
I272
sS'.thisIndex'
p1995
I4
sg15
(lp1996
S'd'
asg30
Vf
sg16
S'Y'
sg14
I6
sg18
Nsg93
I4
sa(dp1997
g20
(lp1998
S'd'
asg17
S'N'
sS'.thisRepN'
p1999
I24
sg19
S'Y'
sg31
g32
sS'.thisTrialN'
p2000
I9
sS'.thisN'
p2001
I273
sS'.thisIndex'
p2002
I9
sg15
(lp2003
S'd'
asg30
Vf
sg16
S'Y'
sg14
I6
sg18
Nsg93
I9
sa(dp2004
g20
(lp2005
S'd'
asg17
S'N'
sS'.thisRepN'
p2006
I24
sg19
S'Y'
sg31
g32
sS'.thisTrialN'
p2007
I10
sS'.thisN'
p2008
I274
sS'.thisIndex'
p2009
I3
sg15
(lp2010
S'd'
asg30
Vf
sg16
S'Y'
sg14
I6
sg18
Nsg93
I3
sa(dp2011
g20
(lp2012
S'k'
asg17
S'Y'
sS'.thisRepN'
p2013
I25
sg19
S'N'
sg31
g32
sS'.thisTrialN'
p2014
I0
sS'.thisN'
p2015
I275
sS'.thisIndex'
p2016
I2
sg15
(lp2017
S'k'
asg30
Vf
sg16
S'Y'
sg14
I6
sg18
Nsg93
I2
sa(dp2018
g20
(lp2019
S'd'
asg17
S'Y'
sS'.thisRepN'
p2020
I25
sg19
S'N'
sg31
g32
sS'.thisTrialN'
p2021
I1
sS'.thisN'
p2022
I276
sS'.thisIndex'
p2023
I0
sg15
(lp2024
S'k'
asg30
Vf
sg16
S'N'
sg14
I6
sg18
Nsg93
I0
sa(dp2025
g20
(lp2026
S'k'
asg17
S'N'
sS'.thisRepN'
p2027
I25
sg19
S'Y'
sg31
g32
sS'.thisTrialN'
p2028
I2
sS'.thisN'
p2029
I277
sS'.thisIndex'
p2030
I1
sg15
(lp2031
S'k'
asg30
Vf
sg16
S'Y'
sg14
I6
sg18
Nsg93
I1
sa(dp2032
g20
(lp2033
S'd'
asg17
S'Y'
sS'.thisRepN'
p2034
I25
sg19
S'N'
sg31
g32
sS'.thisTrialN'
p2035
I3
sS'.thisN'
p2036
I278
sS'.thisIndex'
p2037
I2
sg15
(lp2038
S'd'
asg30
Vf
sg16
S'Y'
sg14
I6
sg18
Nsg93
I2
sa(dp2039
g20
(lp2040
S'd'
asg17
S'Y'
sS'.thisRepN'
p2041
I25
sg19
S'N'
sg31
g32
sS'.thisTrialN'
p2042
I4
sS'.thisN'
p2043
I279
sS'.thisIndex'
p2044
I3
sg15
(lp2045
S'k'
asg30
Vf
sg16
S'N'
sg14
I6
sg18
Nsg93
I3
sa(dp2046
g20
(lp2047
S'k'
asg17
S'N'
sS'.thisRepN'
p2048
I25
sg19
S'Y'
sg31
g32
sS'.thisTrialN'
p2049
I5
sS'.thisN'
p2050
I280
sS'.thisIndex'
p2051
I3
sg15
(lp2052
S'd'
asg30
Vf
sg16
S'N'
sg14
I6
sg18
Nsg93
I3
sa(dp2053
g20
(lp2054
S'k'
asg17
S'N'
sS'.thisRepN'
p2055
I25
sg19
S'Y'
sg31
g32
sS'.thisTrialN'
p2056
I6
sS'.thisN'
p2057
I281
sS'.thisIndex'
p2058
I2
sg15
(lp2059
S'k'
asg30
Vf
sg16
S'Y'
sg14
I6
sg18
Nsg93
I2
sa(dp2060
g20
(lp2061
S'd'
asg17
S'N'
sS'.thisRepN'
p2062
I25
sg19
S'Y'
sg31
g32
sS'.thisTrialN'
p2063
I7
sS'.thisN'
p2064
I282
sS'.thisIndex'
p2065
I5
sg15
(lp2066
S'd'
asg30
Vf
sg16
S'Y'
sg14
I6
sg18
Nsg93
I5
sa(dp2067
g20
(lp2068
S'k'
asg17
S'Y'
sS'.thisRepN'
p2069
I25
sg19
S'N'
sg31
g32
sS'.thisTrialN'
p2070
I8
sS'.thisN'
p2071
I283
sS'.thisIndex'
p2072
I3
sg15
(lp2073
S'd'
asg30
Vf
sg16
S'N'
sg14
I6
sg18
Nsg93
I3
sa(dp2074
g20
(lp2075
S'd'
asg17
S'N'
sS'.thisRepN'
p2076
I25
sg19
S'Y'
sg31
g32
sS'.thisTrialN'
p2077
I9
sS'.thisN'
p2078
I284
sS'.thisIndex'
p2079
I2
sg15
(lp2080
S'd'
asg30
Vf
sg16
S'Y'
sg14
I6
sg18
Nsg93
I2
sa(dp2081
g20
(lp2082
S'd'
asg17
S'Y'
sS'.thisRepN'
p2083
I25
sg19
S'N'
sg31
g32
sS'.thisTrialN'
p2084
I10
sS'.thisN'
p2085
I285
sS'.thisIndex'
p2086
I0
sg15
(lp2087
S'd'
asg30
Vf
sg16
S'Y'
sg14
I6
sg18
Nsg93
I0
sa(dp2088
g20
(lp2089
S'd'
asg17
S'N'
sS'.thisRepN'
p2090
I26
sg19
S'Y'
sg31
g32
sS'.thisTrialN'
p2091
I0
sS'.thisN'
p2092
I286
sS'.thisIndex'
p2093
I0
sg15
(lp2094
S'd'
asg30
Vf
sg16
S'Y'
sg14
I6
sg18
Nsg93
I0
sa(dp2095
g20
(lp2096
S'd'
asg17
S'N'
sS'.thisRepN'
p2097
I26
sg19
S'Y'
sg31
g32
sS'.thisTrialN'
p2098
I1
sS'.thisN'
p2099
I287
sS'.thisIndex'
p2100
I2
sg15
(lp2101
S'd'
asg30
Vf
sg16
S'Y'
sg14
I6
sg18
Nsg93
I2
sa(dp2102
g20
(lp2103
S'k'
asg17
S'N'
sS'.thisRepN'
p2104
I26
sg19
S'Y'
sg31
g32
sS'.thisTrialN'
p2105
I2
sS'.thisN'
p2106
I288
sS'.thisIndex'
p2107
I1
sg15
(lp2108
S'k'
asg30
Vf
sg16
S'Y'
sg14
I6
sg18
Nsg93
I1
sa(dp2109
g20
(lp2110
S'k'
asg17
S'N'
sS'.thisRepN'
p2111
I26
sg19
S'Y'
sg31
g32
sS'.thisTrialN'
p2112
I3
sS'.thisN'
p2113
I289
sS'.thisIndex'
p2114
I3
sg15
(lp2115
S'd'
asg30
Vf
sg16
S'N'
sg14
I6
sg18
Nsg93
I3
sa(dp2116
g20
(lp2117
S'k'
asg17
S'Y'
sS'.thisRepN'
p2118
I26
sg19
S'N'
sg31
g32
sS'.thisTrialN'
p2119
I4
sS'.thisN'
p2120
I290
sS'.thisIndex'
p2121
I3
sg15
(lp2122
S'd'
asg30
Vf
sg16
S'N'
sg14
I6
sg18
Nsg93
I3
sa(dp2123
g20
(lp2124
S'd'
asg17
S'N'
sS'.thisRepN'
p2125
I26
sg19
S'Y'
sg31
g32
sS'.thisTrialN'
p2126
I5
sS'.thisN'
p2127
I291
sS'.thisIndex'
p2128
I4
sg15
(lp2129
S'd'
asg30
Vf
sg16
S'Y'
sg14
I6
sg18
Nsg93
I4
sa(dp2130
g20
(lp2131
S'd'
asg17
S'N'
sS'.thisRepN'
p2132
I26
sg19
S'Y'
sg31
g32
sS'.thisTrialN'
p2133
I6
sS'.thisN'
p2134
I292
sS'.thisIndex'
p2135
I2
sg15
(lp2136
S'k'
asg30
Vf
sg16
S'N'
sg14
I6
sg18
Nsg93
I2
sa(dp2137
g20
(lp2138
S'k'
asg17
S'N'
sS'.thisRepN'
p2139
I26
sg19
S'Y'
sg31
g32
sS'.thisTrialN'
p2140
I7
sS'.thisN'
p2141
I293
sS'.thisIndex'
p2142
I2
sg15
(lp2143
S'd'
asg30
Vf
sg16
S'N'
sg14
I6
sg18
Nsg93
I2
sa(dp2144
g20
(lp2145
S'd'
asg17
S'N'
sS'.thisRepN'
p2146
I26
sg19
S'Y'
sg31
g32
sS'.thisTrialN'
p2147
I8
sS'.thisN'
p2148
I294
sS'.thisIndex'
p2149
I2
sg15
(lp2150
S'k'
asg30
Vf
sg16
S'N'
sg14
I6
sg18
Nsg93
I2
sa(dp2151
g20
(lp2152
S'd'
asg17
S'Y'
sS'.thisRepN'
p2153
I26
sg19
S'N'
sg31
g32
sS'.thisTrialN'
p2154
I9
sS'.thisN'
p2155
I295
sS'.thisIndex'
p2156
I8
sg15
(lp2157
S'd'
asg30
Vf
sg16
S'Y'
sg14
I6
sg18
Nsg93
I8
sa(dp2158
g20
(lp2159
S'd'
asg17
S'N'
sS'.thisRepN'
p2160
I26
sg19
S'Y'
sg31
g32
sS'.thisTrialN'
p2161
I10
sS'.thisN'
p2162
I296
sS'.thisIndex'
p2163
I0
sg15
(lp2164
S'd'
asg30
Vf
sg16
S'Y'
sg14
I6
sg18
Nsg93
I0
sa(dp2165
g20
(lp2166
S'd'
asg17
S'N'
sS'.thisRepN'
p2167
I27
sg19
S'Y'
sg31
g32
sS'.thisTrialN'
p2168
I0
sS'.thisN'
p2169
I297
sS'.thisIndex'
p2170
I8
sg15
(lp2171
S'd'
asg30
Vf
sg16
S'Y'
sg14
I6
sg18
Nsg93
I8
sa(dp2172
g20
(lp2173
S'd'
asg17
S'N'
sS'.thisRepN'
p2174
I27
sg19
S'Y'
sg31
g32
sS'.thisTrialN'
p2175
I1
sS'.thisN'
p2176
I298
sS'.thisIndex'
p2177
I1
sg15
(lp2178
S'd'
asg30
Vf
sg16
S'Y'
sg14
I6
sg18
Nsg93
I1
sa(dp2179
g20
(lp2180
S'k'
asg17
S'Y'
sg22
I31
sS'.thisN'
p2181
I299
sg19
S'N'
sg31
g32
sS'.thisTrialN'
p2182
I2
sS'.thisRepN'
p2183
I27
sg21
I32
sS'.thisIndex'
p2184
I2
sg23
I17
sg15
(lp2185
S'k'
asg30
Vf
sg16
S'Y'
sg14
I6
sg18
Nsg93
I2
sa(dp2186
g20
(lp2187
S'd'
asg93
I7
sS'.thisRepN'
p2188
I27
sg30
Vf
sg31
g32
sS'.thisTrialN'
p2189
I3
sS'.thisN'
p2190
I300
sS'.thisIndex'
p2191
I7
sg15
(lp2192
S'd'
asg16
S'Y'
sg14
I7
sa(dp2193
g20
(lp2194
S'd'
asg93
I6
sS'.thisRepN'
p2195
I27
sg30
Vf
sg31
g32
sS'.thisTrialN'
p2196
I4
sS'.thisN'
p2197
I301
sS'.thisIndex'
p2198
I6
sg15
(lp2199
S'd'
asg16
S'Y'
sg14
I7
sa(dp2200
g20
(lp2201
S'k'
asg17
S'Y'
sS'.thisRepN'
p2202
I27
sg19
S'N'
sg31
g32
sS'.thisTrialN'
p2203
I5
sS'.thisN'
p2204
I302
sS'.thisIndex'
p2205
I2
sg15
(lp2206
S'd'
asg30
Vf
sg16
S'N'
sg14
I7
sg18
Nsg93
I2
sa(dp2207
g20
(lp2208
S'd'
asg17
S'N'
sS'.thisRepN'
p2209
I27
sg19
S'Y'
sg31
g32
sS'.thisTrialN'
p2210
I6
sS'.thisN'
p2211
I303
sS'.thisIndex'
p2212
I3
sg15
(lp2213
S'k'
asg30
Vf
sg16
S'N'
sg14
I7
sg18
Nsg93
I3
sa(dp2214
g20
(lp2215
S'd'
asg17
S'Y'
sS'.thisRepN'
p2216
I27
sg19
S'N'
sg31
g32
sS'.thisTrialN'
p2217
I7
sS'.thisN'
p2218
I304
sS'.thisIndex'
p2219
I0
sg15
(lp2220
S'd'
asg30
Vf
sg16
S'Y'
sg14
I7
sg18
Nsg93
I0
sa(dp2221
g20
(lp2222
S'k'
asg17
S'Y'
sS'.thisRepN'
p2223
I27
sg19
S'N'
sg31
g32
sS'.thisTrialN'
p2224
I8
sS'.thisN'
p2225
I305
sS'.thisIndex'
p2226
I9
sg15
(lp2227
S'd'
asg30
Vf
sg16
S'N'
sg14
I7
sg18
Nsg93
I9
sa(dp2228
g20
(lp2229
S'd'
asg17
S'N'
sS'.thisRepN'
p2230
I27
sg19
S'Y'
sg31
g32
sS'.thisTrialN'
p2231
I9
sS'.thisN'
p2232
I306
sS'.thisIndex'
p2233
I5
sg15
(lp2234
S'd'
asg30
Vf
sg16
S'Y'
sg14
I7
sg18
Nsg93
I5
sa(dp2235
g20
(lp2236
S'd'
asg17
S'N'
sS'.thisRepN'
p2237
I27
sg19
S'Y'
sg31
g32
sS'.thisTrialN'
p2238
I10
sS'.thisN'
p2239
I307
sS'.thisIndex'
p2240
I1
sg15
(lp2241
S'k'
asg30
Vf
sg16
S'N'
sg14
I7
sg18
Nsg93
I1
sa(dp2242
g20
(lp2243
S'k'
asg17
S'N'
sS'.thisRepN'
p2244
I28
sg19
S'Y'
sg31
g32
sS'.thisTrialN'
p2245
I0
sS'.thisN'
p2246
I308
sS'.thisIndex'
p2247
I5
sg15
(lp2248
S'd'
asg30
Vf
sg16
S'N'
sg14
I7
sg18
Nsg93
I5
sa(dp2249
g20
(lp2250
S'k'
asg17
S'Y'
sS'.thisRepN'
p2251
I28
sg19
S'N'
sg31
g32
sS'.thisTrialN'
p2252
I1
sS'.thisN'
p2253
I309
sS'.thisIndex'
p2254
I8
sg15
(lp2255
S'd'
asg30
Vf
sg16
S'N'
sg14
I7
sg18
Nsg93
I8
sa(dp2256
g20
(lp2257
S'd'
asg17
S'N'
sS'.thisRepN'
p2258
I28
sg19
S'Y'
sg31
g32
sS'.thisTrialN'
p2259
I2
sS'.thisN'
p2260
I310
sS'.thisIndex'
p2261
I8
sg15
(lp2262
S'd'
asg30
Vf
sg16
S'Y'
sg14
I7
sg18
Nsg93
I8
sa(dp2263
g20
(lp2264
S'k'
asg17
S'N'
sS'.thisRepN'
p2265
I28
sg19
S'Y'
sg31
g32
sS'.thisTrialN'
p2266
I3
sS'.thisN'
p2267
I311
sS'.thisIndex'
p2268
I6
sg15
(lp2269
S'k'
asg30
Vf
sg16
S'Y'
sg14
I7
sg18
Nsg93
I6
sa(dp2270
g20
(lp2271
S'd'
asg17
S'Y'
sS'.thisRepN'
p2272
I28
sg19
S'N'
sg31
g32
sS'.thisTrialN'
p2273
I4
sS'.thisN'
p2274
I312
sS'.thisIndex'
p2275
I7
sg15
(lp2276
S'd'
asg30
Vf
sg16
S'Y'
sg14
I7
sg18
Nsg93
I7
sa(dp2277
g20
(lp2278
S'k'
asg17
S'Y'
sS'.thisRepN'
p2279
I28
sg19
S'N'
sg31
g32
sS'.thisTrialN'
p2280
I5
sS'.thisN'
p2281
I313
sS'.thisIndex'
p2282
I7
sg15
(lp2283
S'k'
asg30
Vf
sg16
S'Y'
sg14
I7
sg18
Nsg93
I7
sa(dp2284
g20
(lp2285
S'k'
asg17
S'N'
sS'.thisRepN'
p2286
I28
sg19
S'Y'
sg31
g32
sS'.thisTrialN'
p2287
I6
sS'.thisN'
p2288
I314
sS'.thisIndex'
p2289
I2
sg15
(lp2290
S'd'
asg30
Vf
sg16
S'N'
sg14
I7
sg18
Nsg93
I2
sa(dp2291
g20
(lp2292
S'k'
asg17
S'N'
sS'.thisRepN'
p2293
I28
sg19
S'Y'
sg31
g32
sS'.thisTrialN'
p2294
I7
sS'.thisN'
p2295
I315
sS'.thisIndex'
p2296
I0
sg15
(lp2297
S'k'
asg30
Vf
sg16
S'Y'
sg14
I7
sg18
Nsg93
I0
sa(dp2298
g20
(lp2299
S'd'
asg17
S'N'
sS'.thisRepN'
p2300
I28
sg19
S'Y'
sg31
g32
sS'.thisTrialN'
p2301
I8
sS'.thisN'
p2302
I316
sS'.thisIndex'
p2303
I9
sg15
(lp2304
S'k'
asg30
Vf
sg16
S'N'
sg14
I7
sg18
Nsg93
I9
sa(dp2305
g20
(lp2306
S'k'
asg17
S'Y'
sS'.thisRepN'
p2307
I28
sg19
S'N'
sg31
g32
sS'.thisTrialN'
p2308
I9
sS'.thisN'
p2309
I317
sS'.thisIndex'
p2310
I4
sg15
(lp2311
S'd'
asg30
Vf
sg16
S'N'
sg14
I7
sg18
Nsg93
I4
sa(dp2312
g20
(lp2313
S'k'
asg17
S'N'
sS'.thisRepN'
p2314
I28
sg19
S'Y'
sg31
g32
sS'.thisTrialN'
p2315
I10
sS'.thisN'
p2316
I318
sS'.thisIndex'
p2317
I9
sg15
(lp2318
S'd'
asg30
Vf
sg16
S'N'
sg14
I7
sg18
Nsg93
I9
sa(dp2319
g20
(lp2320
S'k'
asg17
S'N'
sS'.thisRepN'
p2321
I29
sg19
S'Y'
sg31
g32
sS'.thisTrialN'
p2322
I0
sS'.thisN'
p2323
I319
sS'.thisIndex'
p2324
I1
sg15
(lp2325
S'd'
asg30
Vf
sg16
S'N'
sg14
I7
sg18
Nsg93
I1
sa(dp2326
g20
(lp2327
S'd'
asg17
S'N'
sS'.thisRepN'
p2328
I29
sg19
S'Y'
sg31
g32
sS'.thisTrialN'
p2329
I1
sS'.thisN'
p2330
I320
sS'.thisIndex'
p2331
I9
sg15
(lp2332
S'd'
asg30
Vf
sg16
S'Y'
sg14
I7
sg18
Nsg93
I9
sa(dp2333
g20
(lp2334
S'd'
asg17
S'Y'
sS'.thisRepN'
p2335
I29
sg19
S'N'
sg31
g32
sS'.thisTrialN'
p2336
I2
sS'.thisN'
p2337
I321
sS'.thisIndex'
p2338
I7
sg15
(lp2339
S'd'
asg30
Vf
sg16
S'Y'
sg14
I7
sg18
Nsg93
I7
sa(dp2340
g20
(lp2341
S'k'
asg17
S'N'
sS'.thisRepN'
p2342
I29
sg19
S'Y'
sg31
g32
sS'.thisTrialN'
p2343
I3
sS'.thisN'
p2344
I322
sS'.thisIndex'
p2345
I6
sg15
(lp2346
S'd'
asg30
Vf
sg16
S'N'
sg14
I7
sg18
Nsg93
I6
sa(dp2347
g20
(lp2348
S'd'
asg17
S'N'
sS'.thisRepN'
p2349
I29
sg19
S'Y'
sg31
g32
sS'.thisTrialN'
p2350
I4
sS'.thisN'
p2351
I323
sS'.thisIndex'
p2352
I6
sg15
(lp2353
S'd'
asg30
Vf
sg16
S'Y'
sg14
I7
sg18
Nsg93
I6
sa(dp2354
g20
(lp2355
S'k'
asg17
S'N'
sS'.thisRepN'
p2356
I29
sg19
S'Y'
sg31
g32
sS'.thisTrialN'
p2357
I5
sS'.thisN'
p2358
I324
sS'.thisIndex'
p2359
I6
sg15
(lp2360
S'd'
asg30
Vf
sg16
S'N'
sg14
I7
sg18
Nsg93
I6
sa(dp2361
g20
(lp2362
S'k'
asg17
S'N'
sS'.thisRepN'
p2363
I29
sg19
S'Y'
sg31
g32
sS'.thisTrialN'
p2364
I6
sS'.thisN'
p2365
I325
sS'.thisIndex'
p2366
I5
sg15
(lp2367
S'k'
asg30
Vf
sg16
S'Y'
sg14
I7
sg18
Nsg93
I5
sa(dp2368
g20
(lp2369
S'd'
asg17
S'N'
sS'.thisRepN'
p2370
I29
sg19
S'Y'
sg31
g32
sS'.thisTrialN'
p2371
I7
sS'.thisN'
p2372
I326
sS'.thisIndex'
p2373
I8
sg15
(lp2374
S'k'
asg30
Vf
sg16
S'N'
sg14
I7
sg18
Nsg93
I8
sa(dp2375
g20
(lp2376
S'k'
asg17
S'Y'
sS'.thisRepN'
p2377
I29
sg19
S'N'
sg31
g32
sS'.thisTrialN'
p2378
I8
sS'.thisN'
p2379
I327
sS'.thisIndex'
p2380
I8
sg15
(lp2381
S'd'
asg30
Vf
sg16
S'N'
sg14
I7
sg18
Nsg93
I8
sa(dp2382
g20
(lp2383
S'k'
asg17
S'Y'
sS'.thisRepN'
p2384
I29
sg19
S'N'
sg31
g32
sS'.thisTrialN'
p2385
I9
sS'.thisN'
p2386
I328
sS'.thisIndex'
p2387
I1
sg15
(lp2388
S'k'
asg30
Vf
sg16
S'Y'
sg14
I7
sg18
Nsg93
I1
sa(dp2389
g20
(lp2390
S'd'
asg17
S'Y'
sS'.thisRepN'
p2391
I29
sg19
S'N'
sg31
g32
sS'.thisTrialN'
p2392
I10
sS'.thisN'
p2393
I329
sS'.thisIndex'
p2394
I7
sg15
(lp2395
S'd'
asg30
Vf
sg16
S'Y'
sg14
I7
sg18
Nsg93
I7
sa(dp2396
g20
(lp2397
S'k'
asg17
S'N'
sS'.thisRepN'
p2398
I30
sg19
S'Y'
sg31
g32
sS'.thisTrialN'
p2399
I0
sS'.thisN'
p2400
I330
sS'.thisIndex'
p2401
I1
sg15
(lp2402
S'k'
asg30
Vf
sg16
S'Y'
sg14
I7
sg18
Nsg93
I1
sa(dp2403
g20
(lp2404
S'k'
asg17
S'N'
sS'.thisRepN'
p2405
I30
sg19
S'Y'
sg31
g32
sS'.thisTrialN'
p2406
I1
sS'.thisN'
p2407
I331
sS'.thisIndex'
p2408
I2
sg15
(lp2409
S'k'
asg30
Vf
sg16
S'Y'
sg14
I7
sg18
Nsg93
I2
sa(dp2410
g20
(lp2411
S'k'
asg17
S'N'
sS'.thisRepN'
p2412
I30
sg19
S'Y'
sg31
g32
sS'.thisTrialN'
p2413
I2
sS'.thisN'
p2414
I332
sS'.thisIndex'
p2415
I0
sg15
(lp2416
S'k'
asg30
Vf
sg16
S'Y'
sg14
I7
sg18
Nsg93
I0
sa(dp2417
g20
(lp2418
S'k'
asg17
S'Y'
sS'.thisRepN'
p2419
I30
sg19
S'N'
sg31
g32
sS'.thisTrialN'
p2420
I3
sS'.thisN'
p2421
I333
sS'.thisIndex'
p2422
I0
sg15
(lp2423
S'k'
asg30
Vf
sg16
S'Y'
sg14
I7
sg18
Nsg93
I0
sa(dp2424
g20
(lp2425
S'd'
asg17
S'Y'
sS'.thisRepN'
p2426
I30
sg19
S'N'
sg31
g32
sS'.thisTrialN'
p2427
I4
sS'.thisN'
p2428
I334
sS'.thisIndex'
p2429
I5
sg15
(lp2430
S'd'
asg30
Vf
sg16
S'Y'
sg14
I7
sg18
Nsg93
I5
sa(dp2431
g20
(lp2432
S'k'
asg17
S'Y'
sS'.thisRepN'
p2433
I30
sg19
S'N'
sg31
g32
sS'.thisTrialN'
p2434
I5
sS'.thisN'
p2435
I335
sS'.thisIndex'
p2436
I9
sg15
(lp2437
S'k'
asg30
Vf
sg16
S'Y'
sg14
I7
sg18
Nsg93
I9
sa(dp2438
g20
(lp2439
S'k'
asg17
S'Y'
sS'.thisRepN'
p2440
I30
sg19
S'N'
sg31
g32
sS'.thisTrialN'
p2441
I6
sS'.thisN'
p2442
I336
sS'.thisIndex'
p2443
I3
sg15
(lp2444
S'k'
asg30
Vf
sg16
S'Y'
sg14
I7
sg18
Nsg93
I3
sa(dp2445
g20
(lp2446
S'd'
asg17
S'Y'
sS'.thisRepN'
p2447
I30
sg19
S'N'
sg31
g32
sS'.thisTrialN'
p2448
I7
sS'.thisN'
p2449
I337
sS'.thisIndex'
p2450
I0
sg15
(lp2451
S'd'
asg30
Vf
sg16
S'Y'
sg14
I7
sg18
Nsg93
I0
sa(dp2452
g20
(lp2453
S'k'
asg17
S'Y'
sS'.thisRepN'
p2454
I30
sg19
S'N'
sg31
g32
sS'.thisTrialN'
p2455
I8
sS'.thisN'
p2456
I338
sS'.thisIndex'
p2457
I0
sg15
(lp2458
S'k'
asg30
Vf
sg16
S'Y'
sg14
I7
sg18
Nsg93
I0
sa(dp2459
g20
(lp2460
S'k'
asg17
S'Y'
sS'.thisRepN'
p2461
I30
sg19
S'N'
sg31
g32
sS'.thisTrialN'
p2462
I9
sS'.thisN'
p2463
I339
sS'.thisIndex'
p2464
I8
sg15
(lp2465
S'k'
asg30
Vf
sg16
S'Y'
sg14
I7
sg18
Nsg93
I8
sa(dp2466
g20
(lp2467
S'd'
asg17
S'N'
sS'.thisRepN'
p2468
I30
sg19
S'Y'
sg31
g32
sS'.thisTrialN'
p2469
I10
sS'.thisN'
p2470
I340
sS'.thisIndex'
p2471
I9
sg15
(lp2472
S'k'
asg30
Vf
sg16
S'N'
sg14
I7
sg18
Nsg93
I9
sa(dp2473
g20
(lp2474
S'd'
asg17
S'N'
sS'.thisRepN'
p2475
I31
sg19
S'Y'
sg31
g32
sS'.thisTrialN'
p2476
I0
sS'.thisN'
p2477
I341
sS'.thisIndex'
p2478
I6
sg15
(lp2479
S'd'
asg30
Vf
sg16
S'Y'
sg14
I7
sg18
Nsg93
I6
sa(dp2480
g20
(lp2481
S'k'
asg17
S'Y'
sS'.thisRepN'
p2482
I31
sg19
S'N'
sg31
g32
sS'.thisTrialN'
p2483
I1
sS'.thisN'
p2484
I342
sS'.thisIndex'
p2485
I2
sg15
(lp2486
S'k'
asg30
Vf
sg16
S'Y'
sg14
I7
sg18
Nsg93
I2
sa(dp2487
g20
(lp2488
S'd'
asg17
S'Y'
sS'.thisRepN'
p2489
I31
sg19
S'N'
sg31
g32
sS'.thisTrialN'
p2490
I2
sS'.thisN'
p2491
I343
sS'.thisIndex'
p2492
I4
sg15
(lp2493
S'd'
asg30
Vf
sg16
S'Y'
sg14
I7
sg18
Nsg93
I4
sa(dp2494
g20
(lp2495
S'k'
asg17
S'Y'
sS'.thisRepN'
p2496
I31
sg19
S'N'
sg31
g32
sS'.thisTrialN'
p2497
I3
sS'.thisN'
p2498
I344
sS'.thisIndex'
p2499
I10
sg15
(lp2500
S'k'
asg30
Vf
sg16
S'Y'
sg14
I7
sg18
Nsg93
I10
sa(dp2501
g20
(lp2502
S'k'
asg17
S'N'
sS'.thisRepN'
p2503
I31
sg19
S'Y'
sg31
g32
sS'.thisTrialN'
p2504
I4
sS'.thisN'
p2505
I345
sS'.thisIndex'
p2506
I6
sg15
(lp2507
S'd'
asg30
Vf
sg16
S'N'
sg14
I7
sg18
Nsg93
I6
sa(dp2508
g20
(lp2509
S'd'
asg17
S'Y'
sS'.thisRepN'
p2510
I31
sg19
S'N'
sg31
g32
sS'.thisTrialN'
p2511
I5
sS'.thisN'
p2512
I346
sS'.thisIndex'
p2513
I5
sg15
(lp2514
S'd'
asg30
Vf
sg16
S'Y'
sg14
I7
sg18
Nsg93
I5
sa(dp2515
g20
(lp2516
S'd'
asg17
S'Y'
sS'.thisRepN'
p2517
I31
sg19
S'N'
sg31
g32
sS'.thisTrialN'
p2518
I6
sS'.thisN'
p2519
I347
sS'.thisIndex'
p2520
I4
sg15
(lp2521
S'd'
asg30
Vf
sg16
S'Y'
sg14
I7
sg18
Nsg93
I4
sa(dp2522
g20
(lp2523
S'd'
asg17
S'N'
sS'.thisRepN'
p2524
I31
sg19
S'Y'
sg31
g32
sS'.thisTrialN'
p2525
I7
sS'.thisN'
p2526
I348
sS'.thisIndex'
p2527
I4
sg15
(lp2528
S'k'
asg30
Vf
sg16
S'N'
sg14
I7
sg18
Nsg93
I4
sa(dp2529
g20
(lp2530
S'd'
asg17
S'Y'
sg22
I24
sS'.thisN'
p2531
I349
sg19
S'N'
sg31
g32
sS'.thisTrialN'
p2532
I8
sS'.thisRepN'
p2533
I31
sg21
I32
sS'.thisIndex'
p2534
I1
sg23
I24
sg15
(lp2535
S'd'
asg30
Vf
sg16
S'Y'
sg14
I7
sg18
Nsg93
I1
sa(dp2536
g20
(lp2537
S'k'
asg93
I1
sS'.thisRepN'
p2538
I31
sg30
Vf
sg31
g32
sS'.thisTrialN'
p2539
I9
sS'.thisN'
p2540
I350
sS'.thisIndex'
p2541
I1
sg15
(lp2542
S'k'
asg16
S'Y'
sg14
I8
sa(dp2543
g20
(lp2544
S'k'
asg93
I1
sS'.thisRepN'
p2545
I31
sg30
Vf
sg31
g32
sS'.thisTrialN'
p2546
I10
sS'.thisN'
p2547
I351
sS'.thisIndex'
p2548
I1
sg15
(lp2549
S'k'
asg16
S'Y'
sg14
I8
sa(dp2550
g20
(lp2551
S'd'
asg17
S'Y'
sS'.thisRepN'
p2552
I32
sg19
S'N'
sg31
g32
sS'.thisTrialN'
p2553
I0
sS'.thisN'
p2554
I352
sS'.thisIndex'
p2555
I0
sg15
(lp2556
S'd'
asg30
Vf
sg16
S'Y'
sg14
I8
sg18
Nsg93
I0
sa(dp2557
g20
(lp2558
S'd'
asg17
S'N'
sS'.thisRepN'
p2559
I32
sg19
S'Y'
sg31
g32
sS'.thisTrialN'
p2560
I1
sS'.thisN'
p2561
I353
sS'.thisIndex'
p2562
I1
sg15
(lp2563
S'd'
asg30
Vf
sg16
S'Y'
sg14
I8
sg18
Nsg93
I1
sa(dp2564
g20
(lp2565
S'k'
asg17
S'Y'
sS'.thisRepN'
p2566
I32
sg19
S'N'
sg31
g32
sS'.thisTrialN'
p2567
I2
sS'.thisN'
p2568
I354
sS'.thisIndex'
p2569
I9
sg15
(lp2570
S'k'
asg30
Vf
sg16
S'Y'
sg14
I8
sg18
Nsg93
I9
sa(dp2571
g20
(lp2572
S'd'
asg17
S'Y'
sS'.thisRepN'
p2573
I32
sg19
S'N'
sg31
g32
sS'.thisTrialN'
p2574
I3
sS'.thisN'
p2575
I355
sS'.thisIndex'
p2576
I6
sg15
(lp2577
S'd'
asg30
Vf
sg16
S'Y'
sg14
I8
sg18
Nsg93
I6
sa(dp2578
g20
(lp2579
S'k'
asg17
S'N'
sS'.thisRepN'
p2580
I32
sg19
S'Y'
sg31
g32
sS'.thisTrialN'
p2581
I4
sS'.thisN'
p2582
I356
sS'.thisIndex'
p2583
I4
sg15
(lp2584
S'k'
asg30
Vf
sg16
S'Y'
sg14
I8
sg18
Nsg93
I4
sa(dp2585
g20
(lp2586
S'k'
asg17
S'N'
sS'.thisRepN'
p2587
I32
sg19
S'Y'
sg31
g32
sS'.thisTrialN'
p2588
I5
sS'.thisN'
p2589
I357
sS'.thisIndex'
p2590
I6
sg15
(lp2591
S'd'
asg30
Vf
sg16
S'N'
sg14
I8
sg18
Nsg93
I6
sa(dp2592
g20
(lp2593
S'd'
asg17
S'N'
sS'.thisRepN'
p2594
I32
sg19
S'Y'
sg31
g32
sS'.thisTrialN'
p2595
I6
sS'.thisN'
p2596
I358
sS'.thisIndex'
p2597
I7
sg15
(lp2598
S'k'
asg30
Vf
sg16
S'N'
sg14
I8
sg18
Nsg93
I7
sa(dp2599
g20
(lp2600
S'd'
asg17
S'Y'
sS'.thisRepN'
p2601
I32
sg19
S'N'
sg31
g32
sS'.thisTrialN'
p2602
I7
sS'.thisN'
p2603
I359
sS'.thisIndex'
p2604
I8
sg15
(lp2605
S'd'
asg30
Vf
sg16
S'Y'
sg14
I8
sg18
Nsg93
I8
sa(dp2606
g20
(lp2607
S'd'
asg17
S'N'
sS'.thisRepN'
p2608
I32
sg19
S'Y'
sg31
g32
sS'.thisTrialN'
p2609
I8
sS'.thisN'
p2610
I360
sS'.thisIndex'
p2611
I8
sg15
(lp2612
S'd'
asg30
Vf
sg16
S'Y'
sg14
I8
sg18
Nsg93
I8
sa(dp2613
g20
(lp2614
S'k'
asg17
S'Y'
sS'.thisRepN'
p2615
I32
sg19
S'N'
sg31
g32
sS'.thisTrialN'
p2616
I9
sS'.thisN'
p2617
I361
sS'.thisIndex'
p2618
I1
sg15
(lp2619
S'k'
asg30
Vf
sg16
S'Y'
sg14
I8
sg18
Nsg93
I1
sa(dp2620
g20
(lp2621
S'k'
asg17
S'Y'
sS'.thisRepN'
p2622
I32
sg19
S'N'
sg31
g32
sS'.thisTrialN'
p2623
I10
sS'.thisN'
p2624
I362
sS'.thisIndex'
p2625
I9
sg15
(lp2626
S'k'
asg30
Vf
sg16
S'Y'
sg14
I8
sg18
Nsg93
I9
sa(dp2627
g20
(lp2628
S'd'
asg17
S'N'
sS'.thisRepN'
p2629
I33
sg19
S'Y'
sg31
g32
sS'.thisTrialN'
p2630
I0
sS'.thisN'
p2631
I363
sS'.thisIndex'
p2632
I5
sg15
(lp2633
S'd'
asg30
Vf
sg16
S'Y'
sg14
I8
sg18
Nsg93
I5
sa(dp2634
g20
(lp2635
S'd'
asg17
S'N'
sS'.thisRepN'
p2636
I33
sg19
S'Y'
sg31
g32
sS'.thisTrialN'
p2637
I1
sS'.thisN'
p2638
I364
sS'.thisIndex'
p2639
I7
sg15
(lp2640
S'd'
asg30
Vf
sg16
S'Y'
sg14
I8
sg18
Nsg93
I7
sa(dp2641
g20
(lp2642
S'd'
asg17
S'N'
sS'.thisRepN'
p2643
I33
sg19
S'Y'
sg31
g32
sS'.thisTrialN'
p2644
I2
sS'.thisN'
p2645
I365
sS'.thisIndex'
p2646
I4
sg15
(lp2647
S'd'
asg30
Vf
sg16
S'Y'
sg14
I8
sg18
Nsg93
I4
sa(dp2648
g20
(lp2649
S'd'
asg17
S'N'
sS'.thisRepN'
p2650
I33
sg19
S'Y'
sg31
g32
sS'.thisTrialN'
p2651
I3
sS'.thisN'
p2652
I366
sS'.thisIndex'
p2653
I7
sg15
(lp2654
S'k'
asg30
Vf
sg16
S'N'
sg14
I8
sg18
Nsg93
I7
sa(dp2655
g20
(lp2656
S'd'
asg17
S'N'
sS'.thisRepN'
p2657
I33
sg19
S'Y'
sg31
g32
sS'.thisTrialN'
p2658
I4
sS'.thisN'
p2659
I367
sS'.thisIndex'
p2660
I1
sg15
(lp2661
S'd'
asg30
Vf
sg16
S'Y'
sg14
I8
sg18
Nsg93
I1
sa(dp2662
g20
(lp2663
S'd'
asg17
S'N'
sS'.thisRepN'
p2664
I33
sg19
S'Y'
sg31
g32
sS'.thisTrialN'
p2665
I5
sS'.thisN'
p2666
I368
sS'.thisIndex'
p2667
I10
sg15
(lp2668
S'd'
asg30
Vf
sg16
S'Y'
sg14
I8
sg18
Nsg93
I10
sa(dp2669
g20
(lp2670
S'd'
asg17
S'N'
sS'.thisRepN'
p2671
I33
sg19
S'Y'
sg31
g32
sS'.thisTrialN'
p2672
I6
sS'.thisN'
p2673
I369
sS'.thisIndex'
p2674
I4
sg15
(lp2675
S'd'
asg30
Vf
sg16
S'Y'
sg14
I8
sg18
Nsg93
I4
sa(dp2676
g20
(lp2677
S'k'
asg17
S'N'
sS'.thisRepN'
p2678
I33
sg19
S'Y'
sg31
g32
sS'.thisTrialN'
p2679
I7
sS'.thisN'
p2680
I370
sS'.thisIndex'
p2681
I4
sg15
(lp2682
S'd'
asg30
Vf
sg16
S'N'
sg14
I8
sg18
Nsg93
I4
sa(dp2683
g20
(lp2684
S'd'
asg17
S'Y'
sS'.thisRepN'
p2685
I33
sg19
S'N'
sg31
g32
sS'.thisTrialN'
p2686
I8
sS'.thisN'
p2687
I371
sS'.thisIndex'
p2688
I2
sg15
(lp2689
S'd'
asg30
Vf
sg16
S'Y'
sg14
I8
sg18
Nsg93
I2
sa(dp2690
g20
(lp2691
S'd'
asg17
S'Y'
sS'.thisRepN'
p2692
I33
sg19
S'N'
sg31
g32
sS'.thisTrialN'
p2693
I9
sS'.thisN'
p2694
I372
sS'.thisIndex'
p2695
I6
sg15
(lp2696
S'd'
asg30
Vf
sg16
S'Y'
sg14
I8
sg18
Nsg93
I6
sa(dp2697
g20
(lp2698
S'd'
asg17
S'N'
sS'.thisRepN'
p2699
I33
sg19
S'Y'
sg31
g32
sS'.thisTrialN'
p2700
I10
sS'.thisN'
p2701
I373
sS'.thisIndex'
p2702
I2
sg15
(lp2703
S'd'
asg30
Vf
sg16
S'Y'
sg14
I8
sg18
Nsg93
I2
sa(dp2704
g20
(lp2705
S'd'
asg17
S'Y'
sS'.thisRepN'
p2706
I34
sg19
S'N'
sg31
g32
sS'.thisTrialN'
p2707
I0
sS'.thisN'
p2708
I374
sS'.thisIndex'
p2709
I6
sg15
(lp2710
S'd'
asg30
Vf
sg16
S'Y'
sg14
I8
sg18
Nsg93
I6
sa(dp2711
g20
(lp2712
S'd'
asg17
S'Y'
sS'.thisRepN'
p2713
I34
sg19
S'N'
sg31
g32
sS'.thisTrialN'
p2714
I1
sS'.thisN'
p2715
I375
sS'.thisIndex'
p2716
I0
sg15
(lp2717
S'd'
asg30
Vf
sg16
S'Y'
sg14
I8
sg18
Nsg93
I0
sa(dp2718
g20
(lp2719
S'k'
asg17
S'Y'
sS'.thisRepN'
p2720
I34
sg19
S'N'
sg31
g32
sS'.thisTrialN'
p2721
I2
sS'.thisN'
p2722
I376
sS'.thisIndex'
p2723
I0
sg15
(lp2724
S'k'
asg30
Vf
sg16
S'Y'
sg14
I8
sg18
Nsg93
I0
sa(dp2725
g20
(lp2726
S'd'
asg17
S'N'
sS'.thisRepN'
p2727
I34
sg19
S'Y'
sg31
g32
sS'.thisTrialN'
p2728
I3
sS'.thisN'
p2729
I377
sS'.thisIndex'
p2730
I5
sg15
(lp2731
S'd'
asg30
Vf
sg16
S'Y'
sg14
I8
sg18
Nsg93
I5
sa(dp2732
g20
(lp2733
S'd'
asg17
S'N'
sS'.thisRepN'
p2734
I34
sg19
S'Y'
sg31
g32
sS'.thisTrialN'
p2735
I4
sS'.thisN'
p2736
I378
sS'.thisIndex'
p2737
I10
sg15
(lp2738
S'd'
asg30
Vf
sg16
S'Y'
sg14
I8
sg18
Nsg93
I10
sa(dp2739
g20
(lp2740
S'k'
asg17
S'N'
sS'.thisRepN'
p2741
I34
sg19
S'Y'
sg31
g32
sS'.thisTrialN'
p2742
I5
sS'.thisN'
p2743
I379
sS'.thisIndex'
p2744
I6
sg15
(lp2745
S'k'
asg30
Vf
sg16
S'Y'
sg14
I8
sg18
Nsg93
I6
sa(dp2746
g20
(lp2747
S'k'
asg17
S'Y'
sS'.thisRepN'
p2748
I34
sg19
S'N'
sg31
g32
sS'.thisTrialN'
p2749
I6
sS'.thisN'
p2750
I380
sS'.thisIndex'
p2751
I1
sg15
(lp2752
S'k'
asg30
Vf
sg16
S'Y'
sg14
I8
sg18
Nsg93
I1
sa(dp2753
g20
(lp2754
S'k'
asg17
S'N'
sS'.thisRepN'
p2755
I34
sg19
S'Y'
sg31
g32
sS'.thisTrialN'
p2756
I7
sS'.thisN'
p2757
I381
sS'.thisIndex'
p2758
I9
sg15
(lp2759
S'k'
asg30
Vf
sg16
S'Y'
sg14
I8
sg18
Nsg93
I9
sa(dp2760
g20
(lp2761
S'k'
asg17
S'N'
sS'.thisRepN'
p2762
I34
sg19
S'Y'
sg31
g32
sS'.thisTrialN'
p2763
I8
sS'.thisN'
p2764
I382
sS'.thisIndex'
p2765
I7
sg15
(lp2766
S'k'
asg30
Vf
sg16
S'Y'
sg14
I8
sg18
Nsg93
I7
sa(dp2767
g20
(lp2768
S'k'
asg17
S'Y'
sS'.thisRepN'
p2769
I34
sg19
S'N'
sg31
g32
sS'.thisTrialN'
p2770
I9
sS'.thisN'
p2771
I383
sS'.thisIndex'
p2772
I8
sg15
(lp2773
S'k'
asg30
Vf
sg16
S'Y'
sg14
I8
sg18
Nsg93
I8
sa(dp2774
g20
(lp2775
S'd'
asg17
S'N'
sS'.thisRepN'
p2776
I34
sg19
S'Y'
sg31
g32
sS'.thisTrialN'
p2777
I10
sS'.thisN'
p2778
I384
sS'.thisIndex'
p2779
I3
sg15
(lp2780
S'd'
asg30
Vf
sg16
S'Y'
sg14
I8
sg18
Nsg93
I3
sa(dp2781
g20
(lp2782
S'k'
asg17
S'Y'
sS'.thisRepN'
p2783
I35
sg19
S'N'
sg31
g32
sS'.thisTrialN'
p2784
I0
sS'.thisN'
p2785
I385
sS'.thisIndex'
p2786
I9
sg15
(lp2787
S'k'
asg30
Vf
sg16
S'Y'
sg14
I8
sg18
Nsg93
I9
sa(dp2788
g20
(lp2789
S'k'
asg17
S'Y'
sS'.thisRepN'
p2790
I35
sg19
S'N'
sg31
g32
sS'.thisTrialN'
p2791
I1
sS'.thisN'
p2792
I386
sS'.thisIndex'
p2793
I7
sg15
(lp2794
S'k'
asg30
Vf
sg16
S'Y'
sg14
I8
sg18
Nsg93
I7
sa(dp2795
g20
(lp2796
S'd'
asg17
S'N'
sS'.thisRepN'
p2797
I35
sg19
S'Y'
sg31
g32
sS'.thisTrialN'
p2798
I2
sS'.thisN'
p2799
I387
sS'.thisIndex'
p2800
I5
sg15
(lp2801
S'd'
asg30
Vf
sg16
S'Y'
sg14
I8
sg18
Nsg93
I5
sa(dp2802
g20
(lp2803
S'k'
asg17
S'Y'
sS'.thisRepN'
p2804
I35
sg19
S'N'
sg31
g32
sS'.thisTrialN'
p2805
I3
sS'.thisN'
p2806
I388
sS'.thisIndex'
p2807
I6
sg15
(lp2808
S'k'
asg30
Vf
sg16
S'Y'
sg14
I8
sg18
Nsg93
I6
sa(dp2809
g20
(lp2810
S'k'
asg17
S'Y'
sS'.thisRepN'
p2811
I35
sg19
S'N'
sg31
g32
sS'.thisTrialN'
p2812
I4
sS'.thisN'
p2813
I389
sS'.thisIndex'
p2814
I6
sg15
(lp2815
S'k'
asg30
Vf
sg16
S'Y'
sg14
I8
sg18
Nsg93
I6
sa(dp2816
g20
(lp2817
S'd'
asg17
S'N'
sS'.thisRepN'
p2818
I35
sg19
S'Y'
sg31
g32
sS'.thisTrialN'
p2819
I5
sS'.thisN'
p2820
I390
sS'.thisIndex'
p2821
I10
sg15
(lp2822
S'd'
asg30
Vf
sg16
S'Y'
sg14
I8
sg18
Nsg93
I10
sa(dp2823
g20
(lp2824
S'd'
asg17
S'N'
sS'.thisRepN'
p2825
I35
sg19
S'Y'
sg31
g32
sS'.thisTrialN'
p2826
I6
sS'.thisN'
p2827
I391
sS'.thisIndex'
p2828
I6
sg15
(lp2829
S'd'
asg30
Vf
sg16
S'Y'
sg14
I8
sg18
Nsg93
I6
sa(dp2830
g20
(lp2831
S'd'
asg17
S'N'
sS'.thisRepN'
p2832
I35
sg19
S'Y'
sg31
g32
sS'.thisTrialN'
p2833
I7
sS'.thisN'
p2834
I392
sS'.thisIndex'
p2835
I8
sg15
(lp2836
S'd'
asg30
Vf
sg16
S'Y'
sg14
I8
sg18
Nsg93
I8
sa(dp2837
g20
(lp2838
S'd'
asg17
S'N'
sS'.thisRepN'
p2839
I35
sg19
S'Y'
sg31
g32
sS'.thisTrialN'
p2840
I8
sS'.thisN'
p2841
I393
sS'.thisIndex'
p2842
I3
sg15
(lp2843
S'k'
asg30
Vf
sg16
S'N'
sg14
I8
sg18
Nsg93
I3
sa(dp2844
g20
(lp2845
S'd'
asg17
S'Y'
sS'.thisRepN'
p2846
I35
sg19
S'N'
sg31
g32
sS'.thisTrialN'
p2847
I9
sS'.thisN'
p2848
I394
sS'.thisIndex'
p2849
I6
sg15
(lp2850
S'd'
asg30
Vf
sg16
S'Y'
sg14
I8
sg18
Nsg93
I6
sa(dp2851
g20
(lp2852
S'd'
asg17
S'Y'
sS'.thisRepN'
p2853
I35
sg19
S'N'
sg31
g32
sS'.thisTrialN'
p2854
I10
sS'.thisN'
p2855
I395
sS'.thisIndex'
p2856
I4
sg15
(lp2857
S'd'
asg30
Vf
sg16
S'Y'
sg14
I8
sg18
Nsg93
I4
sa(dp2858
g20
(lp2859
S'k'
asg17
S'N'
sS'.thisRepN'
p2860
I36
sg19
S'Y'
sg31
g32
sS'.thisTrialN'
p2861
I0
sS'.thisN'
p2862
I396
sS'.thisIndex'
p2863
I3
sg15
(lp2864
S'k'
asg30
Vf
sg16
S'Y'
sg14
I8
sg18
Nsg93
I3
sa(dp2865
g20
(lp2866
S'k'
asg17
S'N'
sS'.thisRepN'
p2867
I36
sg19
S'Y'
sg31
g32
sS'.thisTrialN'
p2868
I1
sS'.thisN'
p2869
I397
sS'.thisIndex'
p2870
I6
sg15
(lp2871
S'k'
asg30
Vf
sg16
S'Y'
sg14
I8
sg18
Nsg93
I6
sa(dp2872
g20
(lp2873
S'k'
asg17
S'N'
sS'.thisRepN'
p2874
I36
sg19
S'Y'
sg31
g32
sS'.thisTrialN'
p2875
I2
sS'.thisN'
p2876
I398
sS'.thisIndex'
p2877
I3
sg15
(lp2878
S'k'
asg30
Vf
sg16
S'Y'
sg14
I8
sg18
Nsg93
I3
sa(dp2879
g20
(lp2880
S'k'
asg17
S'Y'
sg22
I28
sS'.thisN'
p2881
I399
sg19
S'N'
sg31
g32
sS'.thisTrialN'
p2882
I3
sS'.thisRepN'
p2883
I36
sg21
I45
sS'.thisIndex'
p2884
I7
sg23
I20
sg15
(lp2885
S'k'
asg30
Vf
sg16
S'Y'
sg14
I8
sg18
Nsg93
I7
sa(dp2886
g20
(lp2887
S'k'
asg93
I10
sS'.thisRepN'
p2888
I36
sg30
Vf
sg31
g32
sS'.thisTrialN'
p2889
I4
sS'.thisN'
p2890
I400
sS'.thisIndex'
p2891
I10
sg15
(lp2892
S'k'
asg16
S'Y'
sg14
I9
sa(dp2893
g20
(lp2894
S'd'
asg93
I4
sS'.thisRepN'
p2895
I36
sg30
Vf
sg31
g32
sS'.thisTrialN'
p2896
I5
sS'.thisN'
p2897
I401
sS'.thisIndex'
p2898
I4
sg15
(lp2899
S'd'
asg16
S'Y'
sg14
I9
sa(dp2900
g20
(lp2901
S'd'
asg17
S'N'
sS'.thisRepN'
p2902
I36
sg19
S'Y'
sg31
g32
sS'.thisTrialN'
p2903
I6
sS'.thisN'
p2904
I402
sS'.thisIndex'
p2905
I0
sg15
(lp2906
S'd'
asg30
Vf
sg16
S'Y'
sg14
I9
sg18
Nsg93
I0
sa(dp2907
g20
(lp2908
S'k'
asg17
S'Y'
sS'.thisRepN'
p2909
I36
sg19
S'N'
sg31
g32
sS'.thisTrialN'
p2910
I7
sS'.thisN'
p2911
I403
sS'.thisIndex'
p2912
I5
sg15
(lp2913
S'k'
asg30
Vf
sg16
S'Y'
sg14
I9
sg18
Nsg93
I5
sa(dp2914
g20
(lp2915
S'k'
asg17
S'Y'
sS'.thisRepN'
p2916
I36
sg19
S'N'
sg31
g32
sS'.thisTrialN'
p2917
I8
sS'.thisN'
p2918
I404
sS'.thisIndex'
p2919
I2
sg15
(lp2920
S'k'
asg30
Vf
sg16
S'Y'
sg14
I9
sg18
Nsg93
I2
sa(dp2921
g20
(lp2922
S'd'
asg17
S'N'
sS'.thisRepN'
p2923
I36
sg19
S'Y'
sg31
g32
sS'.thisTrialN'
p2924
I9
sS'.thisN'
p2925
I405
sS'.thisIndex'
p2926
I2
sg15
(lp2927
S'd'
asg30
Vf
sg16
S'Y'
sg14
I9
sg18
Nsg93
I2
sa(dp2928
g20
(lp2929
S'k'
asg17
S'Y'
sS'.thisRepN'
p2930
I36
sg19
S'N'
sg31
g32
sS'.thisTrialN'
p2931
I10
sS'.thisN'
p2932
I406
sS'.thisIndex'
p2933
I2
sg15
(lp2934
S'k'
asg30
Vf
sg16
S'Y'
sg14
I9
sg18
Nsg93
I2
sa(dp2935
g20
(lp2936
S'k'
asg17
S'N'
sS'.thisRepN'
p2937
I37
sg19
S'Y'
sg31
g32
sS'.thisTrialN'
p2938
I0
sS'.thisN'
p2939
I407
sS'.thisIndex'
p2940
I3
sg15
(lp2941
S'k'
asg30
Vf
sg16
S'Y'
sg14
I9
sg18
Nsg93
I3
sa(dp2942
g20
(lp2943
S'k'
asg17
S'Y'
sS'.thisRepN'
p2944
I37
sg19
S'N'
sg31
g32
sS'.thisTrialN'
p2945
I1
sS'.thisN'
p2946
I408
sS'.thisIndex'
p2947
I8
sg15
(lp2948
S'k'
asg30
Vf
sg16
S'Y'
sg14
I9
sg18
Nsg93
I8
sa(dp2949
g20
(lp2950
S'd'
asg17
S'N'
sS'.thisRepN'
p2951
I37
sg19
S'Y'
sg31
g32
sS'.thisTrialN'
p2952
I2
sS'.thisN'
p2953
I409
sS'.thisIndex'
p2954
I5
sg15
(lp2955
S'd'
asg30
Vf
sg16
S'Y'
sg14
I9
sg18
Nsg93
I5
sa(dp2956
g20
(lp2957
S'd'
asg17
S'N'
sS'.thisRepN'
p2958
I37
sg19
S'Y'
sg31
g32
sS'.thisTrialN'
p2959
I3
sS'.thisN'
p2960
I410
sS'.thisIndex'
p2961
I1
sg15
(lp2962
S'd'
asg30
Vf
sg16
S'Y'
sg14
I9
sg18
Nsg93
I1
sa(dp2963
g20
(lp2964
S'k'
asg17
S'Y'
sS'.thisRepN'
p2965
I37
sg19
S'N'
sg31
g32
sS'.thisTrialN'
p2966
I4
sS'.thisN'
p2967
I411
sS'.thisIndex'
p2968
I9
sg15
(lp2969
S'k'
asg30
Vf
sg16
S'Y'
sg14
I9
sg18
Nsg93
I9
sa(dp2970
g20
(lp2971
S'k'
asg17
S'Y'
sS'.thisRepN'
p2972
I37
sg19
S'N'
sg31
g32
sS'.thisTrialN'
p2973
I5
sS'.thisN'
p2974
I412
sS'.thisIndex'
p2975
I3
sg15
(lp2976
S'k'
asg30
Vf
sg16
S'Y'
sg14
I9
sg18
Nsg93
I3
sa(dp2977
g20
(lp2978
S'k'
asg17
S'N'
sS'.thisRepN'
p2979
I37
sg19
S'Y'
sg31
g32
sS'.thisTrialN'
p2980
I6
sS'.thisN'
p2981
I413
sS'.thisIndex'
p2982
I0
sg15
(lp2983
S'k'
asg30
Vf
sg16
S'Y'
sg14
I9
sg18
Nsg93
I0
sa(dp2984
g20
(lp2985
S'k'
asg17
S'Y'
sS'.thisRepN'
p2986
I37
sg19
S'N'
sg31
g32
sS'.thisTrialN'
p2987
I7
sS'.thisN'
p2988
I414
sS'.thisIndex'
p2989
I2
sg15
(lp2990
S'k'
asg30
Vf
sg16
S'Y'
sg14
I9
sg18
Nsg93
I2
sa(dp2991
g20
(lp2992
S'd'
asg17
S'N'
sS'.thisRepN'
p2993
I37
sg19
S'Y'
sg31
g32
sS'.thisTrialN'
p2994
I8
sS'.thisN'
p2995
I415
sS'.thisIndex'
p2996
I6
sg15
(lp2997
S'k'
asg30
Vf
sg16
S'N'
sg14
I9
sg18
Nsg93
I6
sa(dp2998
g20
(lp2999
S'k'
asg17
S'N'
sS'.thisRepN'
p3000
I37
sg19
S'Y'
sg31
g32
sS'.thisTrialN'
p3001
I9
sS'.thisN'
p3002
I416
sS'.thisIndex'
p3003
I0
sg15
(lp3004
S'k'
asg30
Vf
sg16
S'Y'
sg14
I9
sg18
Nsg93
I0
sa(dp3005
g20
(lp3006
S'd'
asg17
S'Y'
sS'.thisRepN'
p3007
I37
sg19
S'N'
sg31
g32
sS'.thisTrialN'
p3008
I10
sS'.thisN'
p3009
I417
sS'.thisIndex'
p3010
I10
sg15
(lp3011
S'd'
asg30
Vf
sg16
S'Y'
sg14
I9
sg18
Nsg93
I10
sa(dp3012
g20
(lp3013
S'k'
asg17
S'Y'
sS'.thisRepN'
p3014
I38
sg19
S'N'
sg31
g32
sS'.thisTrialN'
p3015
I0
sS'.thisN'
p3016
I418
sS'.thisIndex'
p3017
I8
sg15
(lp3018
S'k'
asg30
Vf
sg16
S'Y'
sg14
I9
sg18
Nsg93
I8
sa(dp3019
g20
(lp3020
S'd'
asg17
S'N'
sS'.thisRepN'
p3021
I38
sg19
S'Y'
sg31
g32
sS'.thisTrialN'
p3022
I1
sS'.thisN'
p3023
I419
sS'.thisIndex'
p3024
I6
sg15
(lp3025
S'd'
asg30
Vf
sg16
S'Y'
sg14
I9
sg18
Nsg93
I6
sa(dp3026
g20
(lp3027
S'd'
asg17
S'Y'
sS'.thisRepN'
p3028
I38
sg19
S'N'
sg31
g32
sS'.thisTrialN'
p3029
I2
sS'.thisN'
p3030
I420
sS'.thisIndex'
p3031
I6
sg15
(lp3032
S'd'
asg30
Vf
sg16
S'Y'
sg14
I9
sg18
Nsg93
I6
sa(dp3033
g20
(lp3034
S'k'
asg17
S'Y'
sS'.thisRepN'
p3035
I38
sg19
S'N'
sg31
g32
sS'.thisTrialN'
p3036
I3
sS'.thisN'
p3037
I421
sS'.thisIndex'
p3038
I5
sg15
(lp3039
S'k'
asg30
Vf
sg16
S'Y'
sg14
I9
sg18
Nsg93
I5
sa(dp3040
g20
(lp3041
S'd'
asg17
S'N'
sS'.thisRepN'
p3042
I38
sg19
S'Y'
sg31
g32
sS'.thisTrialN'
p3043
I4
sS'.thisN'
p3044
I422
sS'.thisIndex'
p3045
I0
sg15
(lp3046
S'd'
asg30
Vf
sg16
S'Y'
sg14
I9
sg18
Nsg93
I0
sa(dp3047
g20
(lp3048
S'k'
asg17
S'Y'
sS'.thisRepN'
p3049
I38
sg19
S'N'
sg31
g32
sS'.thisTrialN'
p3050
I5
sS'.thisN'
p3051
I423
sS'.thisIndex'
p3052
I1
sg15
(lp3053
S'k'
asg30
Vf
sg16
S'Y'
sg14
I9
sg18
Nsg93
I1
sa(dp3054
g20
(lp3055
S'k'
asg17
S'N'
sS'.thisRepN'
p3056
I38
sg19
S'Y'
sg31
g32
sS'.thisTrialN'
p3057
I6
sS'.thisN'
p3058
I424
sS'.thisIndex'
p3059
I8
sg15
(lp3060
S'k'
asg30
Vf
sg16
S'Y'
sg14
I9
sg18
Nsg93
I8
sa(dp3061
g20
(lp3062
S'd'
asg17
S'Y'
sS'.thisRepN'
p3063
I38
sg19
S'N'
sg31
g32
sS'.thisTrialN'
p3064
I7
sS'.thisN'
p3065
I425
sS'.thisIndex'
p3066
I5
sg15
(lp3067
S'd'
asg30
Vf
sg16
S'Y'
sg14
I9
sg18
Nsg93
I5
sa(dp3068
g20
(lp3069
S'k'
asg17
S'Y'
sS'.thisRepN'
p3070
I38
sg19
S'N'
sg31
g32
sS'.thisTrialN'
p3071
I8
sS'.thisN'
p3072
I426
sS'.thisIndex'
p3073
I6
sg15
(lp3074
S'k'
asg30
Vf
sg16
S'Y'
sg14
I9
sg18
Nsg93
I6
sa(dp3075
g20
(lp3076
S'd'
asg17
S'N'
sS'.thisRepN'
p3077
I38
sg19
S'Y'
sg31
g32
sS'.thisTrialN'
p3078
I9
sS'.thisN'
p3079
I427
sS'.thisIndex'
p3080
I5
sg15
(lp3081
S'd'
asg30
Vf
sg16
S'Y'
sg14
I9
sg18
Nsg93
I5
sa(dp3082
g20
(lp3083
S'k'
asg17
S'Y'
sS'.thisRepN'
p3084
I38
sg19
S'N'
sg31
g32
sS'.thisTrialN'
p3085
I10
sS'.thisN'
p3086
I428
sS'.thisIndex'
p3087
I0
sg15
(lp3088
S'k'
asg30
Vf
sg16
S'Y'
sg14
I9
sg18
Nsg93
I0
sa(dp3089
g20
(lp3090
S'd'
asg17
S'N'
sS'.thisRepN'
p3091
I39
sg19
S'Y'
sg31
g32
sS'.thisTrialN'
p3092
I0
sS'.thisN'
p3093
I429
sS'.thisIndex'
p3094
I2
sg15
(lp3095
S'd'
asg30
Vf
sg16
S'Y'
sg14
I9
sg18
Nsg93
I2
sa(dp3096
g20
(lp3097
S'd'
asg17
S'N'
sS'.thisRepN'
p3098
I39
sg19
S'Y'
sg31
g32
sS'.thisTrialN'
p3099
I1
sS'.thisN'
p3100
I430
sS'.thisIndex'
p3101
I3
sg15
(lp3102
S'd'
asg30
Vf
sg16
S'Y'
sg14
I9
sg18
Nsg93
I3
sa(dp3103
g20
(lp3104
S'd'
asg17
S'Y'
sS'.thisRepN'
p3105
I39
sg19
S'N'
sg31
g32
sS'.thisTrialN'
p3106
I2
sS'.thisN'
p3107
I431
sS'.thisIndex'
p3108
I1
sg15
(lp3109
S'd'
asg30
Vf
sg16
S'Y'
sg14
I9
sg18
Nsg93
I1
sa(dp3110
g20
(lp3111
S'k'
asg17
S'Y'
sS'.thisRepN'
p3112
I39
sg19
S'N'
sg31
g32
sS'.thisTrialN'
p3113
I3
sS'.thisN'
p3114
I432
sS'.thisIndex'
p3115
I3
sg15
(lp3116
S'k'
asg30
Vf
sg16
S'Y'
sg14
I9
sg18
Nsg93
I3
sa(dp3117
g20
(lp3118
S'k'
asg17
S'N'
sS'.thisRepN'
p3119
I39
sg19
S'Y'
sg31
g32
sS'.thisTrialN'
p3120
I4
sS'.thisN'
p3121
I433
sS'.thisIndex'
p3122
I4
sg15
(lp3123
S'k'
asg30
Vf
sg16
S'Y'
sg14
I9
sg18
Nsg93
I4
sa(dp3124
g20
(lp3125
S'k'
asg17
S'N'
sS'.thisRepN'
p3126
I39
sg19
S'Y'
sg31
g32
sS'.thisTrialN'
p3127
I5
sS'.thisN'
p3128
I434
sS'.thisIndex'
p3129
I7
sg15
(lp3130
S'k'
asg30
Vf
sg16
S'Y'
sg14
I9
sg18
Nsg93
I7
sa(dp3131
g20
(lp3132
S'd'
asg17
S'Y'
sS'.thisRepN'
p3133
I39
sg19
S'N'
sg31
g32
sS'.thisTrialN'
p3134
I6
sS'.thisN'
p3135
I435
sS'.thisIndex'
p3136
I8
sg15
(lp3137
S'd'
asg30
Vf
sg16
S'Y'
sg14
I9
sg18
Nsg93
I8
sa(dp3138
g20
(lp3139
S'd'
asg17
S'N'
sS'.thisRepN'
p3140
I39
sg19
S'Y'
sg31
g32
sS'.thisTrialN'
p3141
I7
sS'.thisN'
p3142
I436
sS'.thisIndex'
p3143
I5
sg15
(lp3144
S'd'
asg30
Vf
sg16
S'Y'
sg14
I9
sg18
Nsg93
I5
sa(dp3145
g20
(lp3146
S'd'
asg17
S'N'
sS'.thisRepN'
p3147
I39
sg19
S'Y'
sg31
g32
sS'.thisTrialN'
p3148
I8
sS'.thisN'
p3149
I437
sS'.thisIndex'
p3150
I5
sg15
(lp3151
S'd'
asg30
Vf
sg16
S'Y'
sg14
I9
sg18
Nsg93
I5
sa(dp3152
g20
(lp3153
S'k'
asg17
S'Y'
sS'.thisRepN'
p3154
I39
sg19
S'N'
sg31
g32
sS'.thisTrialN'
p3155
I9
sS'.thisN'
p3156
I438
sS'.thisIndex'
p3157
I1
sg15
(lp3158
S'k'
asg30
Vf
sg16
S'Y'
sg14
I9
sg18
Nsg93
I1
sa(dp3159
g20
(lp3160
S'k'
asg17
S'Y'
sS'.thisRepN'
p3161
I39
sg19
S'N'
sg31
g32
sS'.thisTrialN'
p3162
I10
sS'.thisN'
p3163
I439
sS'.thisIndex'
p3164
I3
sg15
(lp3165
S'k'
asg30
Vf
sg16
S'Y'
sg14
I9
sg18
Nsg93
I3
sa(dp3166
g20
(lp3167
S'd'
asg17
S'Y'
sS'.thisRepN'
p3168
I40
sg19
S'N'
sg31
g32
sS'.thisTrialN'
p3169
I0
sS'.thisN'
p3170
I440
sS'.thisIndex'
p3171
I7
sg15
(lp3172
S'd'
asg30
Vf
sg16
S'Y'
sg14
I9
sg18
Nsg93
I7
sa(dp3173
g20
(lp3174
S'd'
asg17
S'N'
sS'.thisRepN'
p3175
I40
sg19
S'Y'
sg31
g32
sS'.thisTrialN'
p3176
I1
sS'.thisN'
p3177
I441
sS'.thisIndex'
p3178
I9
sg15
(lp3179
S'd'
asg30
Vf
sg16
S'Y'
sg14
I9
sg18
Nsg93
I9
sa(dp3180
g20
(lp3181
S'k'
asg17
S'N'
sS'.thisRepN'
p3182
I40
sg19
S'Y'
sg31
g32
sS'.thisTrialN'
p3183
I2
sS'.thisN'
p3184
I442
sS'.thisIndex'
p3185
I7
sg15
(lp3186
S'k'
asg30
Vf
sg16
S'Y'
sg14
I9
sg18
Nsg93
I7
sa(dp3187
g20
(lp3188
S'd'
asg17
S'Y'
sS'.thisRepN'
p3189
I40
sg19
S'N'
sg31
g32
sS'.thisTrialN'
p3190
I3
sS'.thisN'
p3191
I443
sS'.thisIndex'
p3192
I5
sg15
(lp3193
S'd'
asg30
Vf
sg16
S'Y'
sg14
I9
sg18
Nsg93
I5
sa(dp3194
g20
(lp3195
S'k'
asg17
S'N'
sS'.thisRepN'
p3196
I40
sg19
S'Y'
sg31
g32
sS'.thisTrialN'
p3197
I4
sS'.thisN'
p3198
I444
sS'.thisIndex'
p3199
I3
sg15
(lp3200
S'k'
asg30
Vf
sg16
S'Y'
sg14
I9
sg18
Nsg93
I3
sa(dp3201
g20
(lp3202
S'd'
asg17
S'N'
sS'.thisRepN'
p3203
I40
sg19
S'Y'
sg31
g32
sS'.thisTrialN'
p3204
I5
sS'.thisN'
p3205
I445
sS'.thisIndex'
p3206
I10
sg15
(lp3207
S'd'
asg30
Vf
sg16
S'Y'
sg14
I9
sg18
Nsg93
I10
sa(dp3208
g20
(lp3209
S'k'
asg17
S'N'
sS'.thisRepN'
p3210
I40
sg19
S'Y'
sg31
g32
sS'.thisTrialN'
p3211
I6
sS'.thisN'
p3212
I446
sS'.thisIndex'
p3213
I7
sg15
(lp3214
S'k'
asg30
Vf
sg16
S'Y'
sg14
I9
sg18
Nsg93
I7
sa(dp3215
g20
(lp3216
S'd'
asg17
S'Y'
sS'.thisRepN'
p3217
I40
sg19
S'N'
sg31
g32
sS'.thisTrialN'
p3218
I7
sS'.thisN'
p3219
I447
sS'.thisIndex'
p3220
I4
sg15
(lp3221
S'd'
asg30
Vf
sg16
S'Y'
sg14
I9
sg18
Nsg93
I4
sa(dp3222
g20
(lp3223
S'd'
asg17
S'N'
sS'.thisRepN'
p3224
I40
sg19
S'Y'
sg31
g32
sS'.thisTrialN'
p3225
I8
sS'.thisN'
p3226
I448
sS'.thisIndex'
p3227
I6
sg15
(lp3228
S'd'
asg30
Vf
sg16
S'Y'
sg14
I9
sg18
Nsg93
I6
sa(dp3229
g20
(lp3230
S'k'
asg17
S'Y'
sg22
I24
sS'.thisN'
p3231
I449
sg19
S'N'
sg31
g32
sS'.thisTrialN'
p3232
I9
sS'.thisRepN'
p3233
I40
sg21
I49
sS'.thisIndex'
p3234
I8
sg23
I24
sg15
(lp3235
S'k'
asg30
Vf
sg16
S'Y'
sg14
I9
sg18
Nsg93
I8
sa(dp3236
g20
(lp3237
S'd'
asg93
I0
sS'.thisRepN'
p3238
I40
sg30
Vf
sg31
g32
sS'.thisTrialN'
p3239
I10
sS'.thisN'
p3240
I450
sS'.thisIndex'
p3241
I0
sg15
(lp3242
S'd'
asg16
S'Y'
sg14
I10
sa(dp3243
g20
(lp3244
S'k'
asg93
I4
sS'.thisRepN'
p3245
I41
sg30
Vf
sg31
g32
sS'.thisTrialN'
p3246
I0
sS'.thisN'
p3247
I451
sS'.thisIndex'
p3248
I4
sg15
(lp3249
S'k'
asg16
S'Y'
sg14
I10
sa(dp3250
g20
(lp3251
S'd'
asg17
S'Y'
sS'.thisRepN'
p3252
I41
sg19
S'N'
sg31
g32
sS'.thisTrialN'
p3253
I1
sS'.thisN'
p3254
I452
sS'.thisIndex'
p3255
I1
sg15
(lp3256
S'd'
asg30
Vf
sg16
S'Y'
sg14
I10
sg18
Nsg93
I1
sa(dp3257
g20
(lp3258
S'd'
asg17
S'Y'
sS'.thisRepN'
p3259
I41
sg19
S'N'
sg31
g32
sS'.thisTrialN'
p3260
I2
sS'.thisN'
p3261
I453
sS'.thisIndex'
p3262
I9
sg15
(lp3263
S'k'
asg30
Vf
sg16
S'N'
sg14
I10
sg18
Nsg93
I9
sa(dp3264
g20
(lp3265
S'k'
asg17
S'N'
sS'.thisRepN'
p3266
I41
sg19
S'Y'
sg31
g32
sS'.thisTrialN'
p3267
I3
sS'.thisN'
p3268
I454
sS'.thisIndex'
p3269
I4
sg15
(lp3270
S'k'
asg30
Vf
sg16
S'Y'
sg14
I10
sg18
Nsg93
I4
sa(dp3271
g20
(lp3272
S'k'
asg17
S'N'
sS'.thisRepN'
p3273
I41
sg19
S'Y'
sg31
g32
sS'.thisTrialN'
p3274
I4
sS'.thisN'
p3275
I455
sS'.thisIndex'
p3276
I0
sg15
(lp3277
S'k'
asg30
Vf
sg16
S'Y'
sg14
I10
sg18
Nsg93
I0
sa(dp3278
g20
(lp3279
S'k'
asg17
S'N'
sS'.thisRepN'
p3280
I41
sg19
S'Y'
sg31
g32
sS'.thisTrialN'
p3281
I5
sS'.thisN'
p3282
I456
sS'.thisIndex'
p3283
I7
sg15
(lp3284
S'k'
asg30
Vf
sg16
S'Y'
sg14
I10
sg18
Nsg93
I7
sa(dp3285
g20
(lp3286
S'd'
asg17
S'N'
sS'.thisRepN'
p3287
I41
sg19
S'Y'
sg31
g32
sS'.thisTrialN'
p3288
I6
sS'.thisN'
p3289
I457
sS'.thisIndex'
p3290
I0
sg15
(lp3291
S'd'
asg30
Vf
sg16
S'Y'
sg14
I10
sg18
Nsg93
I0
sa(dp3292
g20
(lp3293
S'd'
asg17
S'Y'
sS'.thisRepN'
p3294
I41
sg19
S'N'
sg31
g32
sS'.thisTrialN'
p3295
I7
sS'.thisN'
p3296
I458
sS'.thisIndex'
p3297
I4
sg15
(lp3298
S'd'
asg30
Vf
sg16
S'Y'
sg14
I10
sg18
Nsg93
I4
sa(dp3299
g20
(lp3300
S'k'
asg17
S'N'
sS'.thisRepN'
p3301
I41
sg19
S'Y'
sg31
g32
sS'.thisTrialN'
p3302
I8
sS'.thisN'
p3303
I459
sS'.thisIndex'
p3304
I8
sg15
(lp3305
S'k'
asg30
Vf
sg16
S'Y'
sg14
I10
sg18
Nsg93
I8
sa(dp3306
g20
(lp3307
S'k'
asg17
S'Y'
sS'.thisRepN'
p3308
I41
sg19
S'N'
sg31
g32
sS'.thisTrialN'
p3309
I9
sS'.thisN'
p3310
I460
sS'.thisIndex'
p3311
I10
sg15
(lp3312
S'd'
asg30
Vf
sg16
S'N'
sg14
I10
sg18
Nsg93
I10
sa(dp3313
g20
(lp3314
S'd'
asg17
S'N'
sS'.thisRepN'
p3315
I41
sg19
S'Y'
sg31
g32
sS'.thisTrialN'
p3316
I10
sS'.thisN'
p3317
I461
sS'.thisIndex'
p3318
I7
sg15
(lp3319
S'd'
asg30
Vf
sg16
S'Y'
sg14
I10
sg18
Nsg93
I7
sa(dp3320
g20
(lp3321
S'k'
asg17
S'N'
sS'.thisRepN'
p3322
I42
sg19
S'Y'
sg31
g32
sS'.thisTrialN'
p3323
I0
sS'.thisN'
p3324
I462
sS'.thisIndex'
p3325
I3
sg15
(lp3326
S'k'
asg30
Vf
sg16
S'Y'
sg14
I10
sg18
Nsg93
I3
sa(dp3327
g20
(lp3328
S'k'
asg17
S'Y'
sS'.thisRepN'
p3329
I42
sg19
S'N'
sg31
g32
sS'.thisTrialN'
p3330
I1
sS'.thisN'
p3331
I463
sS'.thisIndex'
p3332
I0
sg15
(lp3333
S'k'
asg30
Vf
sg16
S'Y'
sg14
I10
sg18
Nsg93
I0
sa(dp3334
g20
(lp3335
S'k'
asg17
S'Y'
sS'.thisRepN'
p3336
I42
sg19
S'N'
sg31
g32
sS'.thisTrialN'
p3337
I2
sS'.thisN'
p3338
I464
sS'.thisIndex'
p3339
I7
sg15
(lp3340
S'k'
asg30
Vf
sg16
S'Y'
sg14
I10
sg18
Nsg93
I7
sa(dp3341
g20
(lp3342
S'k'
asg17
S'Y'
sS'.thisRepN'
p3343
I42
sg19
S'N'
sg31
g32
sS'.thisTrialN'
p3344
I3
sS'.thisN'
p3345
I465
sS'.thisIndex'
p3346
I2
sg15
(lp3347
S'k'
asg30
Vf
sg16
S'Y'
sg14
I10
sg18
Nsg93
I2
sa(dp3348
g20
(lp3349
S'k'
asg17
S'Y'
sS'.thisRepN'
p3350
I42
sg19
S'N'
sg31
g32
sS'.thisTrialN'
p3351
I4
sS'.thisN'
p3352
I466
sS'.thisIndex'
p3353
I10
sg15
(lp3354
S'k'
asg30
Vf
sg16
S'Y'
sg14
I10
sg18
Nsg93
I10
sa(dp3355
g20
(lp3356
S'k'
asg17
S'N'
sS'.thisRepN'
p3357
I42
sg19
S'Y'
sg31
g32
sS'.thisTrialN'
p3358
I5
sS'.thisN'
p3359
I467
sS'.thisIndex'
p3360
I9
sg15
(lp3361
S'k'
asg30
Vf
sg16
S'Y'
sg14
I10
sg18
Nsg93
I9
sa(dp3362
g20
(lp3363
S'd'
asg17
S'N'
sS'.thisRepN'
p3364
I42
sg19
S'Y'
sg31
g32
sS'.thisTrialN'
p3365
I6
sS'.thisN'
p3366
I468
sS'.thisIndex'
p3367
I1
sg15
(lp3368
S'd'
asg30
Vf
sg16
S'Y'
sg14
I10
sg18
Nsg93
I1
sa(dp3369
g20
(lp3370
S'k'
asg17
S'N'
sS'.thisRepN'
p3371
I42
sg19
S'Y'
sg31
g32
sS'.thisTrialN'
p3372
I7
sS'.thisN'
p3373
I469
sS'.thisIndex'
p3374
I0
sg15
(lp3375
S'k'
asg30
Vf
sg16
S'Y'
sg14
I10
sg18
Nsg93
I0
sa(dp3376
g20
(lp3377
S'k'
asg17
S'N'
sS'.thisRepN'
p3378
I42
sg19
S'Y'
sg31
g32
sS'.thisTrialN'
p3379
I8
sS'.thisN'
p3380
I470
sS'.thisIndex'
p3381
I0
sg15
(lp3382
S'k'
asg30
Vf
sg16
S'Y'
sg14
I10
sg18
Nsg93
I0
sa(dp3383
g20
(lp3384
S'k'
asg17
S'N'
sS'.thisRepN'
p3385
I42
sg19
S'Y'
sg31
g32
sS'.thisTrialN'
p3386
I9
sS'.thisN'
p3387
I471
sS'.thisIndex'
p3388
I0
sg15
(lp3389
S'k'
asg30
Vf
sg16
S'Y'
sg14
I10
sg18
Nsg93
I0
sa(dp3390
g20
(lp3391
S'd'
asg17
S'N'
sS'.thisRepN'
p3392
I42
sg19
S'Y'
sg31
g32
sS'.thisTrialN'
p3393
I10
sS'.thisN'
p3394
I472
sS'.thisIndex'
p3395
I5
sg15
(lp3396
S'd'
asg30
Vf
sg16
S'Y'
sg14
I10
sg18
Nsg93
I5
sa(dp3397
g20
(lp3398
S'k'
asg17
S'Y'
sS'.thisRepN'
p3399
I43
sg19
S'N'
sg31
g32
sS'.thisTrialN'
p3400
I0
sS'.thisN'
p3401
I473
sS'.thisIndex'
p3402
I9
sg15
(lp3403
S'k'
asg30
Vf
sg16
S'Y'
sg14
I10
sg18
Nsg93
I9
sa(dp3404
g20
(lp3405
S'd'
asg17
S'N'
sS'.thisRepN'
p3406
I43
sg19
S'Y'
sg31
g32
sS'.thisTrialN'
p3407
I1
sS'.thisN'
p3408
I474
sS'.thisIndex'
p3409
I7
sg15
(lp3410
S'd'
asg30
Vf
sg16
S'Y'
sg14
I10
sg18
Nsg93
I7
sa(dp3411
g20
(lp3412
S'k'
asg17
S'Y'
sS'.thisRepN'
p3413
I43
sg19
S'N'
sg31
g32
sS'.thisTrialN'
p3414
I2
sS'.thisN'
p3415
I475
sS'.thisIndex'
p3416
I6
sg15
(lp3417
S'k'
asg30
Vf
sg16
S'Y'
sg14
I10
sg18
Nsg93
I6
sa(dp3418
g20
(lp3419
S'k'
asg17
S'Y'
sS'.thisRepN'
p3420
I43
sg19
S'N'
sg31
g32
sS'.thisTrialN'
p3421
I3
sS'.thisN'
p3422
I476
sS'.thisIndex'
p3423
I10
sg15
(lp3424
S'k'
asg30
Vf
sg16
S'Y'
sg14
I10
sg18
Nsg93
I10
sa(dp3425
g20
(lp3426
S'd'
asg17
S'Y'
sS'.thisRepN'
p3427
I43
sg19
S'N'
sg31
g32
sS'.thisTrialN'
p3428
I4
sS'.thisN'
p3429
I477
sS'.thisIndex'
p3430
I3
sg15
(lp3431
S'd'
asg30
Vf
sg16
S'Y'
sg14
I10
sg18
Nsg93
I3
sa(dp3432
g20
(lp3433
S'k'
asg17
S'Y'
sS'.thisRepN'
p3434
I43
sg19
S'N'
sg31
g32
sS'.thisTrialN'
p3435
I5
sS'.thisN'
p3436
I478
sS'.thisIndex'
p3437
I8
sg15
(lp3438
S'k'
asg30
Vf
sg16
S'Y'
sg14
I10
sg18
Nsg93
I8
sa(dp3439
g20
(lp3440
S'd'
asg17
S'N'
sS'.thisRepN'
p3441
I43
sg19
S'Y'
sg31
g32
sS'.thisTrialN'
p3442
I6
sS'.thisN'
p3443
I479
sS'.thisIndex'
p3444
I2
sg15
(lp3445
S'd'
asg30
Vf
sg16
S'Y'
sg14
I10
sg18
Nsg93
I2
sa(dp3446
g20
(lp3447
S'd'
asg17
S'N'
sS'.thisRepN'
p3448
I43
sg19
S'Y'
sg31
g32
sS'.thisTrialN'
p3449
I7
sS'.thisN'
p3450
I480
sS'.thisIndex'
p3451
I7
sg15
(lp3452
S'd'
asg30
Vf
sg16
S'Y'
sg14
I10
sg18
Nsg93
I7
sa(dp3453
g20
(lp3454
S'k'
asg17
S'Y'
sS'.thisRepN'
p3455
I43
sg19
S'N'
sg31
g32
sS'.thisTrialN'
p3456
I8
sS'.thisN'
p3457
I481
sS'.thisIndex'
p3458
I8
sg15
(lp3459
S'k'
asg30
Vf
sg16
S'Y'
sg14
I10
sg18
Nsg93
I8
sa(dp3460
g20
(lp3461
S'd'
asg17
S'N'
sS'.thisRepN'
p3462
I43
sg19
S'Y'
sg31
g32
sS'.thisTrialN'
p3463
I9
sS'.thisN'
p3464
I482
sS'.thisIndex'
p3465
I4
sg15
(lp3466
S'd'
asg30
Vf
sg16
S'Y'
sg14
I10
sg18
Nsg93
I4
sa(dp3467
g20
(lp3468
S'k'
asg17
S'Y'
sS'.thisRepN'
p3469
I43
sg19
S'N'
sg31
g32
sS'.thisTrialN'
p3470
I10
sS'.thisN'
p3471
I483
sS'.thisIndex'
p3472
I0
sg15
(lp3473
S'd'
asg30
Vf
sg16
S'N'
sg14
I10
sg18
Nsg93
I0
sa(dp3474
g20
(lp3475
S'd'
asg17
S'N'
sS'.thisRepN'
p3476
I44
sg19
S'Y'
sg31
g32
sS'.thisTrialN'
p3477
I0
sS'.thisN'
p3478
I484
sS'.thisIndex'
p3479
I6
sg15
(lp3480
S'd'
asg30
Vf
sg16
S'Y'
sg14
I10
sg18
Nsg93
I6
sa(dp3481
g20
(lp3482
S'k'
asg17
S'Y'
sS'.thisRepN'
p3483
I44
sg19
S'N'
sg31
g32
sS'.thisTrialN'
p3484
I1
sS'.thisN'
p3485
I485
sS'.thisIndex'
p3486
I1
sg15
(lp3487
S'k'
asg30
Vf
sg16
S'Y'
sg14
I10
sg18
Nsg93
I1
sa(dp3488
g20
(lp3489
S'd'
asg17
S'Y'
sS'.thisRepN'
p3490
I44
sg19
S'N'
sg31
g32
sS'.thisTrialN'
p3491
I2
sS'.thisN'
p3492
I486
sS'.thisIndex'
p3493
I5
sg15
(lp3494
S'd'
asg30
Vf
sg16
S'Y'
sg14
I10
sg18
Nsg93
I5
sa(dp3495
g20
(lp3496
S'd'
asg17
S'N'
sS'.thisRepN'
p3497
I44
sg19
S'Y'
sg31
g32
sS'.thisTrialN'
p3498
I3
sS'.thisN'
p3499
I487
sS'.thisIndex'
p3500
I10
sg15
(lp3501
S'd'
asg30
Vf
sg16
S'Y'
sg14
I10
sg18
Nsg93
I10
sa(dp3502
g20
(lp3503
S'k'
asg17
S'Y'
sS'.thisRepN'
p3504
I44
sg19
S'N'
sg31
g32
sS'.thisTrialN'
p3505
I4
sS'.thisN'
p3506
I488
sS'.thisIndex'
p3507
I2
sg15
(lp3508
S'k'
asg30
Vf
sg16
S'Y'
sg14
I10
sg18
Nsg93
I2
sa(dp3509
g20
(lp3510
S'k'
asg17
S'N'
sS'.thisRepN'
p3511
I44
sg19
S'Y'
sg31
g32
sS'.thisTrialN'
p3512
I5
sS'.thisN'
p3513
I489
sS'.thisIndex'
p3514
I4
sg15
(lp3515
S'k'
asg30
Vf
sg16
S'Y'
sg14
I10
sg18
Nsg93
I4
sa(dp3516
g20
(lp3517
S'd'
asg17
S'Y'
sS'.thisRepN'
p3518
I44
sg19
S'N'
sg31
g32
sS'.thisTrialN'
p3519
I6
sS'.thisN'
p3520
I490
sS'.thisIndex'
p3521
I5
sg15
(lp3522
S'd'
asg30
Vf
sg16
S'Y'
sg14
I10
sg18
Nsg93
I5
sa(dp3523
g20
(lp3524
S'k'
asg17
S'Y'
sS'.thisRepN'
p3525
I44
sg19
S'N'
sg31
g32
sS'.thisTrialN'
p3526
I7
sS'.thisN'
p3527
I491
sS'.thisIndex'
p3528
I4
sg15
(lp3529
S'k'
asg30
Vf
sg16
S'Y'
sg14
I10
sg18
Nsg93
I4
sa(dp3530
g20
(lp3531
S'd'
asg17
S'N'
sS'.thisRepN'
p3532
I44
sg19
S'Y'
sg31
g32
sS'.thisTrialN'
p3533
I8
sS'.thisN'
p3534
I492
sS'.thisIndex'
p3535
I2
sg15
(lp3536
S'd'
asg30
Vf
sg16
S'Y'
sg14
I10
sg18
Nsg93
I2
sa(dp3537
g20
(lp3538
S'k'
asg17
S'Y'
sS'.thisRepN'
p3539
I44
sg19
S'N'
sg31
g32
sS'.thisTrialN'
p3540
I9
sS'.thisN'
p3541
I493
sS'.thisIndex'
p3542
I5
sg15
(lp3543
S'k'
asg30
Vf
sg16
S'Y'
sg14
I10
sg18
Nsg93
I5
sa(dp3544
g20
(lp3545
S'd'
asg17
S'N'
sS'.thisRepN'
p3546
I44
sg19
S'Y'
sg31
g32
sS'.thisTrialN'
p3547
I10
sS'.thisN'
p3548
I494
sS'.thisIndex'
p3549
I7
sg15
(lp3550
S'd'
asg30
Vf
sg16
S'Y'
sg14
I10
sg18
Nsg93
I7
sa(dp3551
g20
(lp3552
S'd'
asg17
S'N'
sS'.thisRepN'
p3553
I45
sg19
S'Y'
sg31
g32
sS'.thisTrialN'
p3554
I0
sS'.thisN'
p3555
I495
sS'.thisIndex'
p3556
I3
sg15
(lp3557
S'd'
asg30
Vf
sg16
S'Y'
sg14
I10
sg18
Nsg93
I3
sa(dp3558
g20
(lp3559
S'k'
asg17
S'N'
sS'.thisRepN'
p3560
I45
sg19
S'Y'
sg31
g32
sS'.thisTrialN'
p3561
I1
sS'.thisN'
p3562
I496
sS'.thisIndex'
p3563
I10
sg15
(lp3564
S'k'
asg30
Vf
sg16
S'Y'
sg14
I10
sg18
Nsg93
I10
sa(dp3565
g20
(lp3566
S'k'
asg17
S'Y'
sS'.thisRepN'
p3567
I45
sg19
S'N'
sg31
g32
sS'.thisTrialN'
p3568
I2
sS'.thisN'
p3569
I497
sS'.thisIndex'
p3570
I7
sg15
(lp3571
S'k'
asg30
Vf
sg16
S'Y'
sg14
I10
sg18
Nsg93
I7
sa(dp3572
g20
(lp3573
S'd'
asg17
S'N'
sS'.thisRepN'
p3574
I45
sg19
S'Y'
sg31
g32
sS'.thisTrialN'
p3575
I3
sS'.thisN'
p3576
I498
sS'.thisIndex'
p3577
I4
sg15
(lp3578
S'd'
asg30
Vf
sg16
S'Y'
sg14
I10
sg18
Nsg93
I4
sa(dp3579
g20
(lp3580
S'd'
asg17
S'Y'
sg22
I25
sS'.thisN'
p3581
I499
sg19
S'N'
sg31
g32
sS'.thisTrialN'
p3582
I4
sS'.thisRepN'
p3583
I45
sg21
I47
sS'.thisIndex'
p3584
I9
sg23
I23
sg15
(lp3585
S'd'
asg30
Vf
sg16
S'Y'
sg14
I10
sg18
Nsg93
I9
sa(dp3586
g20
(lp3587
S'd'
asS'.thisIndex'
p3588
I7
sS'.thisRepN'
p3589
I45
sg26
S'Y'
sg30
Vf
sg31
g32
sS'.thisTrialN'
p3590
I5
sS'.thisN'
p3591
I500
sg25
S'Y'
sg24
S'Y'
sg15
(lp3592
S'd'
asg16
S'N'
sg14
I11
sg93
I7
sa(dp3593
g20
(lp3594
S'd'
asS'.thisIndex'
p3595
I7
sS'.thisRepN'
p3596
I45
sg26
S'Y'
sg30
Vf
sg31
g32
sS'.thisTrialN'
p3597
I6
sS'.thisN'
p3598
I501
sg25
S'Y'
sg15
(lp3599
S'k'
asg16
S'Y'
sg14
I11
sg93
I7
sa(dp3600
g20
(lp3601
S'd'
asg17
S'N'
sS'.thisRepN'
p3602
I45
sg26
S'Y'
sg19
S'Y'
sg31
g32
sS'.thisTrialN'
p3603
I7
sS'.thisN'
p3604
I502
sg25
S'Y'
sg15
(lp3605
S'k'
asg30
Vf
sg16
S'Y'
sg14
I11
sg18
Nsg93
I6
sS'.thisIndex'
p3606
I6
sa(dp3607
g20
(lp3608
S'k'
asg17
S'Y'
sS'.thisRepN'
p3609
I45
sg26
S'Y'
sg19
S'N'
sg31
g32
sS'.thisTrialN'
p3610
I8
sS'.thisN'
p3611
I503
sg25
S'Y'
sg15
(lp3612
S'd'
asg30
Vf
sg16
S'Y'
sg14
I11
sg18
Nsg93
I0
sS'.thisIndex'
p3613
I0
sa(dp3614
g20
(lp3615
S'k'
asg17
S'N'
sS'.thisRepN'
p3616
I45
sg26
S'Y'
sg19
S'Y'
sg31
g32
sS'.thisTrialN'
p3617
I9
sS'.thisN'
p3618
I504
sg25
S'Y'
sg15
(lp3619
S'd'
asg30
Vf
sg16
S'Y'
sg14
I11
sg18
Nsg93
I0
sS'.thisIndex'
p3620
I0
sa(dp3621
g20
(lp3622
S'k'
asg17
S'N'
sS'.thisRepN'
p3623
I45
sg26
S'Y'
sg19
S'Y'
sg31
g32
sS'.thisTrialN'
p3624
I10
sS'.thisN'
p3625
I505
sg25
S'Y'
sg15
(lp3626
S'd'
asg30
Vf
sg16
S'Y'
sg14
I11
sg18
Nsg93
I10
sS'.thisIndex'
p3627
I10
sa(dp3628
g20
(lp3629
S'k'
asg17
S'Y'
sS'.thisRepN'
p3630
I46
sg26
S'Y'
sg19
S'N'
sg31
g32
sS'.thisTrialN'
p3631
I0
sS'.thisN'
p3632
I506
sg25
S'Y'
sg15
(lp3633
S'd'
asg30
Vf
sg16
S'Y'
sg14
I11
sg18
Nsg93
I5
sS'.thisIndex'
p3634
I5
sa(dp3635
g20
(lp3636
S'k'
asg17
S'N'
sS'.thisRepN'
p3637
I46
sg26
S'Y'
sg19
S'Y'
sg31
g32
sS'.thisTrialN'
p3638
I1
sS'.thisN'
p3639
I507
sg25
S'Y'
sg15
(lp3640
S'd'
asg30
Vf
sg16
S'Y'
sg14
I11
sg18
Nsg93
I5
sS'.thisIndex'
p3641
I5
sa(dp3642
g20
(lp3643
S'd'
asg17
S'Y'
sS'.thisRepN'
p3644
I46
sg26
S'Y'
sg19
S'N'
sg31
g32
sS'.thisTrialN'
p3645
I2
sS'.thisN'
p3646
I508
sg25
S'Y'
sg15
(lp3647
S'd'
asg30
Vf
sg16
S'N'
sg14
I11
sg18
Nsg93
I6
sS'.thisIndex'
p3648
I6
sa(dp3649
g20
(lp3650
S'k'
asg17
S'Y'
sS'.thisRepN'
p3651
I46
sg26
S'Y'
sg19
S'N'
sg31
g32
sS'.thisTrialN'
p3652
I3
sS'.thisN'
p3653
I509
sg25
S'Y'
sg15
(lp3654
S'd'
asg30
Vf
sg16
S'Y'
sg14
I11
sg18
Nsg93
I9
sS'.thisIndex'
p3655
I9
sa(dp3656
g20
(lp3657
S'd'
asg17
S'N'
sS'.thisRepN'
p3658
I46
sg26
S'Y'
sg19
S'Y'
sg31
g32
sS'.thisTrialN'
p3659
I4
sS'.thisN'
p3660
I510
sg25
S'Y'
sg15
(lp3661
S'd'
asg30
Vf
sg16
S'N'
sg14
I11
sg18
Nsg93
I10
sS'.thisIndex'
p3662
I10
sa(dp3663
g20
(lp3664
S'd'
asg17
S'N'
sS'.thisRepN'
p3665
I46
sg26
S'Y'
sg19
S'Y'
sg31
g32
sS'.thisTrialN'
p3666
I5
sS'.thisN'
p3667
I511
sg25
S'Y'
sg15
(lp3668
S'k'
asg30
Vf
sg16
S'Y'
sg14
I11
sg18
Nsg93
I6
sS'.thisIndex'
p3669
I6
sa(dp3670
g20
(lp3671
S'k'
asg17
S'N'
sS'.thisRepN'
p3672
I46
sg26
S'Y'
sg19
S'Y'
sg31
g32
sS'.thisTrialN'
p3673
I6
sS'.thisN'
p3674
I512
sg25
S'Y'
sg15
(lp3675
S'd'
asg30
Vf
sg16
S'Y'
sg14
I11
sg18
Nsg93
I1
sS'.thisIndex'
p3676
I1
sa(dp3677
g20
(lp3678
S'd'
asg17
S'Y'
sS'.thisRepN'
p3679
I46
sg26
S'Y'
sg19
S'N'
sg31
g32
sS'.thisTrialN'
p3680
I7
sS'.thisN'
p3681
I513
sg25
S'Y'
sg15
(lp3682
S'k'
asg30
Vf
sg16
S'Y'
sg14
I11
sg18
Nsg93
I1
sS'.thisIndex'
p3683
I1
sa(dp3684
g20
(lp3685
S'k'
asg17
S'Y'
sS'.thisRepN'
p3686
I46
sg26
S'Y'
sg19
S'N'
sg31
g32
sS'.thisTrialN'
p3687
I8
sS'.thisN'
p3688
I514
sg25
S'Y'
sg15
(lp3689
S'd'
asg30
Vf
sg16
S'Y'
sg14
I11
sg18
Nsg93
I1
sS'.thisIndex'
p3690
I1
sa(dp3691
g20
(lp3692
S'k'
asg17
S'Y'
sS'.thisRepN'
p3693
I46
sg26
S'Y'
sg19
S'N'
sg31
g32
sS'.thisTrialN'
p3694
I9
sS'.thisN'
p3695
I515
sg25
S'Y'
sg15
(lp3696
S'd'
asg30
Vf
sg16
S'Y'
sg14
I11
sg18
Nsg93
I3
sS'.thisIndex'
p3697
I3
sa(dp3698
g20
(lp3699
S'k'
asg17
S'N'
sS'.thisRepN'
p3700
I46
sg26
S'Y'
sg19
S'Y'
sg31
g32
sS'.thisTrialN'
p3701
I10
sS'.thisN'
p3702
I516
sg25
S'Y'
sg15
(lp3703
S'd'
asg30
Vf
sg16
S'Y'
sg14
I11
sg18
Nsg93
I3
sS'.thisIndex'
p3704
I3
sa(dp3705
g20
(lp3706
S'k'
asg17
S'Y'
sS'.thisRepN'
p3707
I47
sg26
S'Y'
sg19
S'N'
sg31
g32
sS'.thisTrialN'
p3708
I0
sS'.thisN'
p3709
I517
sg25
S'Y'
sg15
(lp3710
S'd'
asg30
Vf
sg16
S'Y'
sg14
I11
sg18
Nsg93
I9
sS'.thisIndex'
p3711
I9
sa(dp3712
g20
(lp3713
S'k'
asg17
S'N'
sS'.thisRepN'
p3714
I47
sg26
S'Y'
sg19
S'Y'
sg31
g32
sS'.thisTrialN'
p3715
I1
sS'.thisN'
p3716
I518
sg25
S'Y'
sg15
(lp3717
S'd'
asg30
Vf
sg16
S'Y'
sg14
I11
sg18
Nsg93
I1
sS'.thisIndex'
p3718
I1
sa(dp3719
g20
(lp3720
S'k'
asg17
S'Y'
sS'.thisRepN'
p3721
I47
sg26
S'Y'
sg19
S'N'
sg31
g32
sS'.thisTrialN'
p3722
I2
sS'.thisN'
p3723
I519
sg25
S'Y'
sg15
(lp3724
S'd'
asg30
Vf
sg16
S'Y'
sg14
I11
sg18
Nsg93
I8
sS'.thisIndex'
p3725
I8
sa(dp3726
g20
(lp3727
S'd'
asg17
S'Y'
sS'.thisRepN'
p3728
I47
sg26
S'Y'
sg19
S'N'
sg31
g32
sS'.thisTrialN'
p3729
I3
sS'.thisN'
p3730
I520
sg25
S'Y'
sg15
(lp3731
S'k'
asg30
Vf
sg16
S'Y'
sg14
I11
sg18
Nsg93
I7
sS'.thisIndex'
p3732
I7
sa(dp3733
g20
(lp3734
S'd'
asg17
S'Y'
sS'.thisRepN'
p3735
I47
sg26
S'Y'
sg19
S'N'
sg31
g32
sS'.thisTrialN'
p3736
I4
sS'.thisN'
p3737
I521
sg25
S'Y'
sg15
(lp3738
S'd'
asg30
Vf
sg16
S'N'
sg14
I11
sg18
Nsg93
I9
sS'.thisIndex'
p3739
I9
sa(dp3740
g20
(lp3741
S'k'
asg17
S'Y'
sS'.thisRepN'
p3742
I47
sg26
S'Y'
sg19
S'N'
sg31
g32
sS'.thisTrialN'
p3743
I5
sS'.thisN'
p3744
I522
sg25
S'Y'
sg15
(lp3745
S'd'
asg30
Vf
sg16
S'Y'
sg14
I11
sg18
Nsg93
I8
sS'.thisIndex'
p3746
I8
sa(dp3747
g20
(lp3748
S'd'
asg17
S'Y'
sS'.thisRepN'
p3749
I47
sg26
S'Y'
sg19
S'N'
sg31
g32
sS'.thisTrialN'
p3750
I6
sS'.thisN'
p3751
I523
sg25
S'Y'
sg15
(lp3752
S'k'
asg30
Vf
sg16
S'Y'
sg14
I11
sg18
Nsg93
I3
sS'.thisIndex'
p3753
I3
sa(dp3754
g20
(lp3755
S'd'
asg17
S'N'
sS'.thisRepN'
p3756
I47
sg26
S'Y'
sg19
S'Y'
sg31
g32
sS'.thisTrialN'
p3757
I7
sS'.thisN'
p3758
I524
sg25
S'Y'
sg15
(lp3759
S'k'
asg30
Vf
sg16
S'Y'
sg14
I11
sg18
Nsg93
I2
sS'.thisIndex'
p3760
I2
sa(dp3761
g20
(lp3762
S'k'
asg17
S'N'
sS'.thisRepN'
p3763
I47
sg26
S'Y'
sg19
S'Y'
sg31
g32
sS'.thisTrialN'
p3764
I8
sS'.thisN'
p3765
I525
sg25
S'Y'
sg15
(lp3766
S'd'
asg30
Vf
sg16
S'Y'
sg14
I11
sg18
Nsg93
I9
sS'.thisIndex'
p3767
I9
sa(dp3768
g20
(lp3769
S'k'
asg17
S'Y'
sS'.thisRepN'
p3770
I47
sg26
S'Y'
sg19
S'N'
sg31
g32
sS'.thisTrialN'
p3771
I9
sS'.thisN'
p3772
I526
sg25
S'Y'
sg15
(lp3773
S'd'
asg30
Vf
sg16
S'Y'
sg14
I11
sg18
Nsg93
I1
sS'.thisIndex'
p3774
I1
sa(dp3775
g20
(lp3776
S'k'
asg17
S'Y'
sS'.thisRepN'
p3777
I47
sg26
S'Y'
sg19
S'N'
sg31
g32
sS'.thisTrialN'
p3778
I10
sS'.thisN'
p3779
I527
sg25
S'Y'
sg15
(lp3780
S'd'
asg30
Vf
sg16
S'Y'
sg14
I11
sg18
Nsg93
I5
sS'.thisIndex'
p3781
I5
sa(dp3782
g20
(lp3783
S'd'
asg17
S'N'
sS'.thisRepN'
p3784
I48
sg26
S'Y'
sg19
S'Y'
sg31
g32
sS'.thisTrialN'
p3785
I0
sS'.thisN'
p3786
I528
sg25
S'Y'
sg15
(lp3787
S'k'
asg30
Vf
sg16
S'Y'
sg14
I11
sg18
Nsg93
I9
sS'.thisIndex'
p3788
I9
sa(dp3789
g20
(lp3790
S'd'
asg17
S'Y'
sS'.thisRepN'
p3791
I48
sg26
S'Y'
sg19
S'N'
sg31
g32
sS'.thisTrialN'
p3792
I1
sS'.thisN'
p3793
I529
sg25
S'Y'
sg15
(lp3794
S'k'
asg30
Vf
sg16
S'Y'
sg14
I11
sg18
Nsg93
I10
sS'.thisIndex'
p3795
I10
sa(dp3796
g17
S'N'
sS'.thisRepN'
p3797
I48
sg26
S'Y'
sg19
S'Y'
sg31
g32
sS'.thisTrialN'
p3798
I2
sS'.thisN'
p3799
I530
sg25
S'Y'
sg15
Nsg30
Vf
sg16
g98
sg14
I11
sg18
Nsg93
I0
sS'.thisIndex'
p3800
I0
sa(dp3801
g20
(lp3802
S'k'
asg17
S'N'
sS'.thisRepN'
p3803
I48
sg26
S'Y'
sg19
S'Y'
sg31
g32
sS'.thisTrialN'
p3804
I3
sS'.thisN'
p3805
I531
sg25
S'Y'
sg15
(lp3806
S'k'
asg30
Vf
sg16
S'N'
sg14
I11
sg18
Nsg93
I1
sS'.thisIndex'
p3807
I1
sa(dp3808
g20
(lp3809
S'd'
asg17
S'Y'
sS'.thisRepN'
p3810
I48
sg26
S'Y'
sg19
S'N'
sg31
g32
sS'.thisTrialN'
p3811
I4
sS'.thisN'
p3812
I532
sg25
S'Y'
sg15
(lp3813
S'k'
asg30
Vf
sg16
S'Y'
sg14
I11
sg18
Nsg93
I10
sS'.thisIndex'
p3814
I10
sa(dp3815
g20
(lp3816
S'd'
asg17
S'N'
sS'.thisRepN'
p3817
I48
sg26
S'Y'
sg19
S'Y'
sg31
g32
sS'.thisTrialN'
p3818
I5
sS'.thisN'
p3819
I533
sg25
S'Y'
sg15
(lp3820
S'k'
asg30
Vf
sg16
S'Y'
sg14
I11
sg18
Nsg93
I8
sS'.thisIndex'
p3821
I8
sa(dp3822
g20
(lp3823
S'd'
asg17
S'N'
sS'.thisRepN'
p3824
I48
sg26
S'Y'
sg19
S'Y'
sg31
g32
sS'.thisTrialN'
p3825
I6
sS'.thisN'
p3826
I534
sg25
S'Y'
sg15
(lp3827
S'k'
asg30
Vf
sg16
S'Y'
sg14
I11
sg18
Nsg93
I10
sS'.thisIndex'
p3828
I10
sa(dp3829
g20
(lp3830
S'd'
asg17
S'Y'
sS'.thisRepN'
p3831
I48
sg26
S'Y'
sg19
S'N'
sg31
g32
sS'.thisTrialN'
p3832
I7
sS'.thisN'
p3833
I535
sg25
S'Y'
sg15
(lp3834
S'k'
asg30
Vf
sg16
S'Y'
sg14
I11
sg18
Nsg93
I4
sS'.thisIndex'
p3835
I4
sa(dp3836
g20
(lp3837
S'd'
asg17
S'Y'
sS'.thisRepN'
p3838
I48
sg26
S'Y'
sg19
S'N'
sg31
g32
sS'.thisTrialN'
p3839
I8
sS'.thisN'
p3840
I536
sg25
S'Y'
sg15
(lp3841
S'k'
asg30
Vf
sg16
S'Y'
sg14
I11
sg18
Nsg93
I6
sS'.thisIndex'
p3842
I6
sa(dp3843
g20
(lp3844
S'k'
asg17
S'Y'
sS'.thisRepN'
p3845
I48
sg26
S'Y'
sg19
S'N'
sg31
g32
sS'.thisTrialN'
p3846
I9
sS'.thisN'
p3847
I537
sg25
S'Y'
sg15
(lp3848
S'd'
asg30
Vf
sg16
S'Y'
sg14
I11
sg18
Nsg93
I0
sS'.thisIndex'
p3849
I0
sa(dp3850
g20
(lp3851
S'k'
asg17
S'N'
sS'.thisRepN'
p3852
I48
sg26
S'Y'
sg19
S'Y'
sg31
g32
sS'.thisTrialN'
p3853
I10
sS'.thisN'
p3854
I538
sg25
S'Y'
sg15
(lp3855
S'd'
asg30
Vf
sg16
S'Y'
sg14
I11
sg18
Nsg93
I9
sS'.thisIndex'
p3856
I9
sa(dp3857
g20
(lp3858
S'd'
asg17
S'N'
sS'.thisRepN'
p3859
I49
sg26
S'Y'
sg19
S'Y'
sg31
g32
sS'.thisTrialN'
p3860
I0
sS'.thisN'
p3861
I539
sg25
S'Y'
sg15
(lp3862
S'k'
asg30
Vf
sg16
S'Y'
sg14
I11
sg18
Nsg93
I4
sS'.thisIndex'
p3863
I4
sa(dp3864
g20
(lp3865
S'k'
asg17
S'Y'
sS'.thisRepN'
p3866
I49
sg26
S'Y'
sg19
S'N'
sg31
g32
sS'.thisTrialN'
p3867
I1
sS'.thisN'
p3868
I540
sg25
S'Y'
sg15
(lp3869
S'd'
asg30
Vf
sg16
S'Y'
sg14
I11
sg18
Nsg93
I9
sS'.thisIndex'
p3870
I9
sa(dp3871
g20
(lp3872
S'k'
asg17
S'Y'
sS'.thisRepN'
p3873
I49
sg26
S'Y'
sg19
S'N'
sg31
g32
sS'.thisTrialN'
p3874
I2
sS'.thisN'
p3875
I541
sg25
S'Y'
sg15
(lp3876
S'd'
asg30
Vf
sg16
S'Y'
sg14
I11
sg18
Nsg93
I6
sS'.thisIndex'
p3877
I6
sa(dp3878
g20
(lp3879
S'k'
asg17
S'Y'
sS'.thisRepN'
p3880
I49
sg26
S'Y'
sg19
S'N'
sg31
g32
sS'.thisTrialN'
p3881
I3
sS'.thisN'
p3882
I542
sg25
S'Y'
sg15
(lp3883
S'k'
asg30
Vf
sg16
S'N'
sg14
I11
sg18
Nsg93
I5
sS'.thisIndex'
p3884
I5
sa(dp3885
g20
(lp3886
S'd'
asg17
S'Y'
sS'.thisRepN'
p3887
I49
sg26
S'Y'
sg19
S'N'
sg31
g32
sS'.thisTrialN'
p3888
I4
sS'.thisN'
p3889
I543
sg25
S'Y'
sg15
(lp3890
S'k'
asg30
Vf
sg16
S'Y'
sg14
I11
sg18
Nsg93
I3
sS'.thisIndex'
p3891
I3
sa(dp3892
g20
(lp3893
S'k'
asg17
S'Y'
sS'.thisRepN'
p3894
I49
sg26
S'Y'
sg19
S'N'
sg31
g32
sS'.thisTrialN'
p3895
I5
sS'.thisN'
p3896
I544
sg25
S'Y'
sg15
(lp3897
S'd'
asg30
Vf
sg16
S'Y'
sg14
I11
sg18
Nsg93
I10
sS'.thisIndex'
p3898
I10
sa(dp3899
g20
(lp3900
S'k'
asg17
S'N'
sS'.thisRepN'
p3901
I49
sg26
S'Y'
sg19
S'Y'
sg31
g32
sS'.thisTrialN'
p3902
I6
sS'.thisN'
p3903
I545
sg25
S'Y'
sg15
(lp3904
S'd'
asg30
Vf
sg16
S'Y'
sg14
I11
sg18
Nsg93
I6
sS'.thisIndex'
p3905
I6
sa(dp3906
g20
(lp3907
S'k'
asg17
S'N'
sS'.thisRepN'
p3908
I49
sg26
S'Y'
sg19
S'Y'
sg31
g32
sS'.thisTrialN'
p3909
I7
sS'.thisN'
p3910
I546
sg25
S'Y'
sg15
(lp3911
S'd'
asg30
Vf
sg16
S'Y'
sg14
I11
sg18
Nsg93
I9
sS'.thisIndex'
p3912
I9
sa(dp3913
g20
(lp3914
S'k'
asg17
S'N'
sS'.thisRepN'
p3915
I49
sg26
S'Y'
sg19
S'Y'
sg31
g32
sS'.thisTrialN'
p3916
I8
sS'.thisN'
p3917
I547
sg25
S'Y'
sg15
(lp3918
S'd'
asg30
Vf
sg16
S'Y'
sg14
I11
sg18
Nsg93
I4
sS'.thisIndex'
p3919
I4
sa(dp3920
g20
(lp3921
S'd'
asg17
S'N'
sS'.thisRepN'
p3922
I49
sg26
S'Y'
sg19
S'Y'
sg31
g32
sS'.thisTrialN'
p3923
I9
sS'.thisN'
p3924
I548
sg25
S'Y'
sg15
(lp3925
S'k'
asg30
Vf
sg16
S'Y'
sg14
I11
sg18
Nsg93
I7
sS'.thisIndex'
p3926
I7
sa(dp3927
g20
(lp3928
S'd'
asg17
S'N'
sg22
I23
sg26
S'Y'
sS'.thisN'
p3929
I549
sg19
S'Y'
sg31
g32
sS'.thisTrialN'
p3930
I10
sS'.thisRepN'
p3931
I49
sg21
I43
sg25
S'Y'
sg23
I25
sg15
(lp3932
S'k'
asg30
Vf
sg16
S'Y'
sg14
I11
sg18
Nsg93
I3
sS'.thisIndex'
p3933
I3
sa(dp3934
g20
(lp3935
S'd'
asS'.thisIndex'
p3936
I3
sS'.thisRepN'
p3937
I50
sg26
S'Y'
sg30
Vf
sg31
g32
sS'.thisTrialN'
p3938
I0
sS'.thisN'
p3939
I550
sg25
S'Y'
sg15
(lp3940
S'k'
asg16
S'Y'
sg14
I12
sg93
I3
sa(dp3941
g20
(lp3942
S'd'
asS'.thisIndex'
p3943
I6
sS'.thisRepN'
p3944
I50
sg26
S'Y'
sg30
Vf
sg31
g32
sS'.thisTrialN'
p3945
I1
sS'.thisN'
p3946
I551
sg25
S'Y'
sg15
(lp3947
S'k'
asg16
S'Y'
sg14
I12
sg93
I6
sa(dp3948
g20
(lp3949
S'k'
asg17
S'Y'
sS'.thisRepN'
p3950
I50
sg26
S'Y'
sg19
S'N'
sg31
g32
sS'.thisTrialN'
p3951
I2
sS'.thisN'
p3952
I552
sg25
S'Y'
sg15
(lp3953
S'd'
asg30
Vf
sg16
S'Y'
sg14
I12
sg18
Nsg93
I1
sS'.thisIndex'
p3954
I1
sa(dp3955
g20
(lp3956
S'k'
asg17
S'N'
sS'.thisRepN'
p3957
I50
sg26
S'Y'
sg19
S'Y'
sg31
g32
sS'.thisTrialN'
p3958
I3
sS'.thisN'
p3959
I553
sg25
S'Y'
sg15
(lp3960
S'd'
asg30
Vf
sg16
S'Y'
sg14
I12
sg18
Nsg93
I3
sS'.thisIndex'
p3961
I3
sa(dp3962
g20
(lp3963
S'd'
asg17
S'Y'
sS'.thisRepN'
p3964
I50
sg26
S'Y'
sg19
S'N'
sg31
g32
sS'.thisTrialN'
p3965
I4
sS'.thisN'
p3966
I554
sg25
S'Y'
sg15
(lp3967
S'k'
asg30
Vf
sg16
S'Y'
sg14
I12
sg18
Nsg93
I0
sS'.thisIndex'
p3968
I0
sa(dp3969
g20
(lp3970
S'k'
asg17
S'N'
sS'.thisRepN'
p3971
I50
sg26
S'Y'
sg19
S'Y'
sg31
g32
sS'.thisTrialN'
p3972
I5
sS'.thisN'
p3973
I555
sg25
S'Y'
sg15
(lp3974
S'd'
asg30
Vf
sg16
S'Y'
sg14
I12
sg18
Nsg93
I8
sS'.thisIndex'
p3975
I8
sa(dp3976
g20
(lp3977
S'd'
asg17
S'Y'
sS'.thisRepN'
p3978
I50
sg26
S'Y'
sg19
S'N'
sg31
g32
sS'.thisTrialN'
p3979
I6
sS'.thisN'
p3980
I556
sg25
S'Y'
sg15
(lp3981
S'k'
asg30
Vf
sg16
S'Y'
sg14
I12
sg18
Nsg93
I4
sS'.thisIndex'
p3982
I4
sa(dp3983
g20
(lp3984
S'd'
asg17
S'Y'
sS'.thisRepN'
p3985
I50
sg26
S'Y'
sg19
S'N'
sg31
g32
sS'.thisTrialN'
p3986
I7
sS'.thisN'
p3987
I557
sg25
S'Y'
sg15
(lp3988
S'k'
asg30
Vf
sg16
S'Y'
sg14
I12
sg18
Nsg93
I6
sS'.thisIndex'
p3989
I6
sa(dp3990
g20
(lp3991
S'k'
asg17
S'N'
sS'.thisRepN'
p3992
I50
sg26
S'Y'
sg19
S'Y'
sg31
g32
sS'.thisTrialN'
p3993
I8
sS'.thisN'
p3994
I558
sg25
S'Y'
sg15
(lp3995
S'd'
asg30
Vf
sg16
S'Y'
sg14
I12
sg18
Nsg93
I6
sS'.thisIndex'
p3996
I6
sa(dp3997
g20
(lp3998
S'k'
asg17
S'N'
sS'.thisRepN'
p3999
I50
sg26
S'Y'
sg19
S'Y'
sg31
g32
sS'.thisTrialN'
p4000
I9
sS'.thisN'
p4001
I559
sg25
S'Y'
sg15
(lp4002
S'd'
asg30
Vf
sg16
S'Y'
sg14
I12
sg18
Nsg93
I9
sS'.thisIndex'
p4003
I9
sa(dp4004
g20
(lp4005
S'd'
asg17
S'Y'
sS'.thisRepN'
p4006
I50
sg26
S'Y'
sg19
S'N'
sg31
g32
sS'.thisTrialN'
p4007
I10
sS'.thisN'
p4008
I560
sg25
S'Y'
sg15
(lp4009
S'k'
asg30
Vf
sg16
S'Y'
sg14
I12
sg18
Nsg93
I8
sS'.thisIndex'
p4010
I8
sa(dp4011
g20
(lp4012
S'k'
asg17
S'N'
sS'.thisRepN'
p4013
I51
sg26
S'Y'
sg19
S'Y'
sg31
g32
sS'.thisTrialN'
p4014
I0
sS'.thisN'
p4015
I561
sg25
S'Y'
sg15
(lp4016
S'd'
asg30
Vf
sg16
S'Y'
sg14
I12
sg18
Nsg93
I2
sS'.thisIndex'
p4017
I2
sa(dp4018
g20
(lp4019
S'k'
asg17
S'Y'
sS'.thisRepN'
p4020
I51
sg26
S'Y'
sg19
S'N'
sg31
g32
sS'.thisTrialN'
p4021
I1
sS'.thisN'
p4022
I562
sg25
S'Y'
sg15
(lp4023
S'd'
asg30
Vf
sg16
S'Y'
sg14
I12
sg18
Nsg93
I1
sS'.thisIndex'
p4024
I1
sa(dp4025
g20
(lp4026
S'k'
asg17
S'Y'
sS'.thisRepN'
p4027
I51
sg26
S'Y'
sg19
S'N'
sg31
g32
sS'.thisTrialN'
p4028
I2
sS'.thisN'
p4029
I563
sg25
S'Y'
sg15
(lp4030
S'd'
asg30
Vf
sg16
S'Y'
sg14
I12
sg18
Nsg93
I9
sS'.thisIndex'
p4031
I9
sa(dp4032
g20
(lp4033
S'd'
asg17
S'Y'
sS'.thisRepN'
p4034
I51
sg26
S'Y'
sg19
S'N'
sg31
g32
sS'.thisTrialN'
p4035
I3
sS'.thisN'
p4036
I564
sg25
S'Y'
sg15
(lp4037
S'k'
asg30
Vf
sg16
S'Y'
sg14
I12
sg18
Nsg93
I7
sS'.thisIndex'
p4038
I7
sa(dp4039
g20
(lp4040
S'd'
asg17
S'N'
sS'.thisRepN'
p4041
I51
sg26
S'Y'
sg19
S'Y'
sg31
g32
sS'.thisTrialN'
p4042
I4
sS'.thisN'
p4043
I565
sg25
S'Y'
sg15
(lp4044
S'd'
asg30
Vf
sg16
S'N'
sg14
I12
sg18
Nsg93
I2
sS'.thisIndex'
p4045
I2
sa(dp4046
g20
(lp4047
S'k'
asg17
S'N'
sS'.thisRepN'
p4048
I51
sg26
S'Y'
sg19
S'Y'
sg31
g32
sS'.thisTrialN'
p4049
I5
sS'.thisN'
p4050
I566
sg25
S'Y'
sg15
(lp4051
S'd'
asg30
Vf
sg16
S'Y'
sg14
I12
sg18
Nsg93
I2
sS'.thisIndex'
p4052
I2
sa(dp4053
g20
(lp4054
S'k'
asg17
S'Y'
sS'.thisRepN'
p4055
I51
sg26
S'Y'
sg19
S'N'
sg31
g32
sS'.thisTrialN'
p4056
I6
sS'.thisN'
p4057
I567
sg25
S'Y'
sg15
(lp4058
S'd'
asg30
Vf
sg16
S'Y'
sg14
I12
sg18
Nsg93
I2
sS'.thisIndex'
p4059
I2
sa(dp4060
g20
(lp4061
S'k'
asg17
S'N'
sS'.thisRepN'
p4062
I51
sg26
S'Y'
sg19
S'Y'
sg31
g32
sS'.thisTrialN'
p4063
I7
sS'.thisN'
p4064
I568
sg25
S'Y'
sg15
(lp4065
S'd'
asg30
Vf
sg16
S'Y'
sg14
I12
sg18
Nsg93
I7
sS'.thisIndex'
p4066
I7
sa(dp4067
g20
(lp4068
S'k'
asg17
S'N'
sS'.thisRepN'
p4069
I51
sg26
S'Y'
sg19
S'Y'
sg31
g32
sS'.thisTrialN'
p4070
I8
sS'.thisN'
p4071
I569
sg25
S'Y'
sg15
(lp4072
S'd'
asg30
Vf
sg16
S'Y'
sg14
I12
sg18
Nsg93
I3
sS'.thisIndex'
p4073
I3
sa(dp4074
g20
(lp4075
S'k'
asg17
S'N'
sS'.thisRepN'
p4076
I51
sg26
S'Y'
sg19
S'Y'
sg31
g32
sS'.thisTrialN'
p4077
I9
sS'.thisN'
p4078
I570
sg25
S'Y'
sg15
(lp4079
S'd'
asg30
Vf
sg16
S'Y'
sg14
I12
sg18
Nsg93
I2
sS'.thisIndex'
p4080
I2
sa(dp4081
g20
(lp4082
S'd'
asg17
S'N'
sS'.thisRepN'
p4083
I51
sg26
S'Y'
sg19
S'Y'
sg31
g32
sS'.thisTrialN'
p4084
I10
sS'.thisN'
p4085
I571
sg25
S'Y'
sg15
(lp4086
S'k'
asg30
Vf
sg16
S'Y'
sg14
I12
sg18
Nsg93
I1
sS'.thisIndex'
p4087
I1
sa(dp4088
g20
(lp4089
S'd'
asg17
S'N'
sS'.thisRepN'
p4090
I52
sg26
S'Y'
sg19
S'Y'
sg31
g32
sS'.thisTrialN'
p4091
I0
sS'.thisN'
p4092
I572
sg25
S'Y'
sg15
(lp4093
S'k'
asg30
Vf
sg16
S'Y'
sg14
I12
sg18
Nsg93
I3
sS'.thisIndex'
p4094
I3
sa(dp4095
g20
(lp4096
S'd'
asg17
S'N'
sS'.thisRepN'
p4097
I52
sg26
S'Y'
sg19
S'Y'
sg31
g32
sS'.thisTrialN'
p4098
I1
sS'.thisN'
p4099
I573
sg25
S'Y'
sg15
(lp4100
S'k'
asg30
Vf
sg16
S'Y'
sg14
I12
sg18
Nsg93
I1
sS'.thisIndex'
p4101
I1
sa(dp4102
g20
(lp4103
S'd'
asg17
S'Y'
sS'.thisRepN'
p4104
I52
sg26
S'Y'
sg19
S'N'
sg31
g32
sS'.thisTrialN'
p4105
I2
sS'.thisN'
p4106
I574
sg25
S'Y'
sg15
(lp4107
S'k'
asg30
Vf
sg16
S'Y'
sg14
I12
sg18
Nsg93
I5
sS'.thisIndex'
p4108
I5
sa(dp4109
g20
(lp4110
S'k'
asg17
S'N'
sS'.thisRepN'
p4111
I52
sg26
S'Y'
sg19
S'Y'
sg31
g32
sS'.thisTrialN'
p4112
I3
sS'.thisN'
p4113
I575
sg25
S'Y'
sg15
(lp4114
S'd'
asg30
Vf
sg16
S'Y'
sg14
I12
sg18
Nsg93
I8
sS'.thisIndex'
p4115
I8
sa(dp4116
g20
(lp4117
S'd'
asg17
S'N'
sS'.thisRepN'
p4118
I52
sg26
S'Y'
sg19
S'Y'
sg31
g32
sS'.thisTrialN'
p4119
I4
sS'.thisN'
p4120
I576
sg25
S'Y'
sg15
(lp4121
S'k'
asg30
Vf
sg16
S'Y'
sg14
I12
sg18
Nsg93
I9
sS'.thisIndex'
p4122
I9
sa(dp4123
g20
(lp4124
S'k'
asg17
S'N'
sS'.thisRepN'
p4125
I52
sg26
S'Y'
sg19
S'Y'
sg31
g32
sS'.thisTrialN'
p4126
I5
sS'.thisN'
p4127
I577
sg25
S'Y'
sg15
(lp4128
S'd'
asg30
Vf
sg16
S'Y'
sg14
I12
sg18
Nsg93
I5
sS'.thisIndex'
p4129
I5
sa(dp4130
g20
(lp4131
S'd'
asg17
S'N'
sS'.thisRepN'
p4132
I52
sg26
S'Y'
sg19
S'Y'
sg31
g32
sS'.thisTrialN'
p4133
I6
sS'.thisN'
p4134
I578
sg25
S'Y'
sg15
(lp4135
S'k'
asg30
Vf
sg16
S'Y'
sg14
I12
sg18
Nsg93
I6
sS'.thisIndex'
p4136
I6
sa(dp4137
g20
(lp4138
S'd'
asg17
S'N'
sS'.thisRepN'
p4139
I52
sg26
S'Y'
sg19
S'Y'
sg31
g32
sS'.thisTrialN'
p4140
I7
sS'.thisN'
p4141
I579
sg25
S'Y'
sg15
(lp4142
S'k'
asg30
Vf
sg16
S'Y'
sg14
I12
sg18
Nsg93
I4
sS'.thisIndex'
p4143
I4
sa(dp4144
g17
S'N'
sS'.thisRepN'
p4145
I52
sg26
S'Y'
sg19
S'Y'
sg31
g32
sS'.thisTrialN'
p4146
I8
sS'.thisN'
p4147
I580
sg25
S'Y'
sg15
Nsg30
Vf
sg16
g98
sg14
I12
sg18
Nsg93
I9
sS'.thisIndex'
p4148
I9
sa(dp4149
g20
(lp4150
S'd'
asg17
S'Y'
sS'.thisRepN'
p4151
I52
sg26
S'Y'
sg19
S'N'
sg31
g32
sS'.thisTrialN'
p4152
I9
sS'.thisN'
p4153
I581
sg25
S'Y'
sg15
(lp4154
S'k'
asg30
Vf
sg16
S'Y'
sg14
I12
sg18
Nsg93
I2
sS'.thisIndex'
p4155
I2
sa(dp4156
g20
(lp4157
S'k'
asg17
S'N'
sS'.thisRepN'
p4158
I52
sg26
S'Y'
sg19
S'Y'
sg31
g32
sS'.thisTrialN'
p4159
I10
sS'.thisN'
p4160
I582
sg25
S'Y'
sg15
(lp4161
S'd'
asg30
Vf
sg16
S'Y'
sg14
I12
sg18
Nsg93
I9
sS'.thisIndex'
p4162
I9
sa(dp4163
g20
(lp4164
S'd'
asg17
S'N'
sS'.thisRepN'
p4165
I53
sg26
S'Y'
sg19
S'Y'
sg31
g32
sS'.thisTrialN'
p4166
I0
sS'.thisN'
p4167
I583
sg25
S'Y'
sg15
(lp4168
S'k'
asg30
Vf
sg16
S'Y'
sg14
I12
sg18
Nsg93
I0
sS'.thisIndex'
p4169
I0
sa(dp4170
g20
(lp4171
S'k'
asg17
S'N'
sS'.thisRepN'
p4172
I53
sg26
S'Y'
sg19
S'Y'
sg31
g32
sS'.thisTrialN'
p4173
I1
sS'.thisN'
p4174
I584
sg25
S'Y'
sg15
(lp4175
S'd'
asg30
Vf
sg16
S'Y'
sg14
I12
sg18
Nsg93
I10
sS'.thisIndex'
p4176
I10
sa(dp4177
g20
(lp4178
S'd'
asg17
S'N'
sS'.thisRepN'
p4179
I53
sg26
S'Y'
sg19
S'Y'
sg31
g32
sS'.thisTrialN'
p4180
I2
sS'.thisN'
p4181
I585
sg25
S'Y'
sg15
(lp4182
S'k'
asg30
Vf
sg16
S'Y'
sg14
I12
sg18
Nsg93
I2
sS'.thisIndex'
p4183
I2
sa(dp4184
g20
(lp4185
S'd'
asg17
S'N'
sS'.thisRepN'
p4186
I53
sg26
S'Y'
sg19
S'Y'
sg31
g32
sS'.thisTrialN'
p4187
I3
sS'.thisN'
p4188
I586
sg25
S'Y'
sg15
(lp4189
S'k'
asg30
Vf
sg16
S'Y'
sg14
I12
sg18
Nsg93
I8
sS'.thisIndex'
p4190
I8
sa(dp4191
g20
(lp4192
S'k'
asg17
S'N'
sS'.thisRepN'
p4193
I53
sg26
S'Y'
sg19
S'Y'
sg31
g32
sS'.thisTrialN'
p4194
I4
sS'.thisN'
p4195
I587
sg25
S'Y'
sg15
(lp4196
S'd'
asg30
Vf
sg16
S'Y'
sg14
I12
sg18
Nsg93
I1
sS'.thisIndex'
p4197
I1
sa(dp4198
g20
(lp4199
S'k'
asg17
S'Y'
sS'.thisRepN'
p4200
I53
sg26
S'Y'
sg19
S'N'
sg31
g32
sS'.thisTrialN'
p4201
I5
sS'.thisN'
p4202
I588
sg25
S'Y'
sg15
(lp4203
S'd'
asg30
Vf
sg16
S'Y'
sg14
I12
sg18
Nsg93
I5
sS'.thisIndex'
p4204
I5
sa(dp4205
g20
(lp4206
S'd'
asg17
S'Y'
sS'.thisRepN'
p4207
I53
sg26
S'Y'
sg19
S'N'
sg31
g32
sS'.thisTrialN'
p4208
I6
sS'.thisN'
p4209
I589
sg25
S'Y'
sg15
(lp4210
S'k'
asg30
Vf
sg16
S'Y'
sg14
I12
sg18
Nsg93
I8
sS'.thisIndex'
p4211
I8
sa(dp4212
g20
(lp4213
S'd'
asg17
S'N'
sS'.thisRepN'
p4214
I53
sg26
S'Y'
sg19
S'Y'
sg31
g32
sS'.thisTrialN'
p4215
I7
sS'.thisN'
p4216
I590
sg25
S'Y'
sg15
(lp4217
S'k'
asg30
Vf
sg16
S'Y'
sg14
I12
sg18
Nsg93
I3
sS'.thisIndex'
p4218
I3
sa(dp4219
g20
(lp4220
S'd'
asg17
S'N'
sS'.thisRepN'
p4221
I53
sg26
S'Y'
sg19
S'Y'
sg31
g32
sS'.thisTrialN'
p4222
I8
sS'.thisN'
p4223
I591
sg25
S'Y'
sg15
(lp4224
S'k'
asg30
Vf
sg16
S'Y'
sg14
I12
sg18
Nsg93
I8
sS'.thisIndex'
p4225
I8
sa(dp4226
g20
(lp4227
S'd'
asg17
S'Y'
sS'.thisRepN'
p4228
I53
sg26
S'Y'
sg19
S'N'
sg31
g32
sS'.thisTrialN'
p4229
I9
sS'.thisN'
p4230
I592
sg25
S'Y'
sg15
(lp4231
S'k'
asg30
Vf
sg16
S'Y'
sg14
I12
sg18
Nsg93
I9
sS'.thisIndex'
p4232
I9
sa(dp4233
g20
(lp4234
S'd'
asg17
S'N'
sS'.thisRepN'
p4235
I53
sg26
S'Y'
sg19
S'Y'
sg31
g32
sS'.thisTrialN'
p4236
I10
sS'.thisN'
p4237
I593
sg25
S'Y'
sg15
(lp4238
S'k'
asg30
Vf
sg16
S'Y'
sg14
I12
sg18
Nsg93
I5
sS'.thisIndex'
p4239
I5
sa(dp4240
g20
(lp4241
S'd'
asg17
S'N'
sS'.thisRepN'
p4242
I54
sg26
S'Y'
sg19
S'Y'
sg31
g32
sS'.thisTrialN'
p4243
I0
sS'.thisN'
p4244
I594
sg25
S'Y'
sg15
(lp4245
S'k'
asg30
Vf
sg16
S'Y'
sg14
I12
sg18
Nsg93
I7
sS'.thisIndex'
p4246
I7
sa(dp4247
g20
(lp4248
S'd'
asg17
S'Y'
sS'.thisRepN'
p4249
I54
sg26
S'Y'
sg19
S'N'
sg31
g32
sS'.thisTrialN'
p4250
I1
sS'.thisN'
p4251
I595
sg25
S'Y'
sg15
(lp4252
S'k'
asg30
Vf
sg16
S'Y'
sg14
I12
sg18
Nsg93
I3
sS'.thisIndex'
p4253
I3
sa(dp4254
g20
(lp4255
S'k'
asg17
S'Y'
sS'.thisRepN'
p4256
I54
sg26
S'Y'
sg19
S'N'
sg31
g32
sS'.thisTrialN'
p4257
I2
sS'.thisN'
p4258
I596
sg25
S'Y'
sg15
(lp4259
S'k'
asg30
Vf
sg16
S'N'
sg14
I12
sg18
Nsg93
I1
sS'.thisIndex'
p4260
I1
sa(dp4261
g20
(lp4262
S'd'
asg17
S'N'
sS'.thisRepN'
p4263
I54
sg26
S'Y'
sg19
S'Y'
sg31
g32
sS'.thisTrialN'
p4264
I3
sS'.thisN'
p4265
I597
sg25
S'Y'
sg15
(lp4266
S'k'
asg30
Vf
sg16
S'Y'
sg14
I12
sg18
Nsg93
I1
sS'.thisIndex'
p4267
I1
sa(dp4268
g20
(lp4269
S'k'
asg17
S'Y'
sS'.thisRepN'
p4270
I54
sg26
S'Y'
sg19
S'N'
sg31
g32
sS'.thisTrialN'
p4271
I4
sS'.thisN'
p4272
I598
sg25
S'Y'
sg15
(lp4273
S'd'
asg30
Vf
sg16
S'Y'
sg14
I12
sg18
Nsg93
I10
sS'.thisIndex'
p4274
I10
sa(dp4275
g20
(lp4276
S'k'
asg17
S'N'
sg22
I31
sg26
S'Y'
sS'.thisN'
p4277
I599
sg19
S'Y'
sg31
g32
sS'.thisTrialN'
p4278
I5
sS'.thisRepN'
p4279
I54
sg21
I47
sg25
S'Y'
sg23
I17
sg15
(lp4280
S'd'
asg30
Vf
sg16
S'Y'
sg14
I12
sg18
Nsg93
I6
sS'.thisIndex'
p4281
I6
sasS'loops'
p4282
(lp4283
g1
(g35
g3
NtRp4284
(dp4285
g38
Nsg39
(lp4286
sg40
I80883856
sg10
S''
sg6
g41
sg42
I1
sg27
I01
sg28
Nsg43
g1
(g44
g45
(dp4287
g47
g48
(g49
g50
g51
S'b'
tRp4288
(I1
(I600
I1
tg54
I00
S'\x00\x00\x80?\x00\x00\x80?\x00\x00\x80?\x00\x00\x80?\x00\x00\x80?\x00\x00\x80?\x00\x00\x80?\x00\x00\x80?\x00\x00\x80?\x00\x00\x80?\x00\x00\x80?\x00\x00\x80?\x00\x00\x80?\x00\x00\x80?\x00\x00\x80?\x00\x00\x80?\x00\x00\x80?\x00\x00\x80?\x00\x00\x80?\x00\x00\x80?\x00\x00\x80?\x00\x00\x80?\x00\x00\x80?\x00\x00\x80?\x00\x00\x80?\x00\x00\x80?\x00\x00\x80?\x00\x00\x80?\x00\x00\x80?\x00\x00\x80?\x00\x00\x80?\x00\x00\x80?\x00\x00\x80?\x00\x00\x80?\x00\x00\x80?\x00\x00\x80?\x00\x00\x80?\x00\x00\x80?\x00\x00\x80?\x00\x00\x80?\x00\x00\x80?\x00\x00\x80?\x00\x00\x80?\x00\x00\x80?\x00\x00\x80?\x00\x00\x80?\x00\x00\x80?\x00\x00\x80?\x00\x00\x80?\x00\x00\x80?\x00\x00\x80?\x00\x00\x80?\x00\x00\x80?\x00\x00\x80?\x00\x00\x80?\x00\x00\x80?\x00\x00\x80?\x00\x00\x80?\x00\x00\x80?\x00\x00\x80?\x00\x00\x80?\x00\x00\x80?\x00\x00\x80?\x00\x00\x80?\x00\x00\x80?\x00\x00\x80?\x00\x00\x80?\x00\x00\x80?\x00\x00\x80?\x00\x00\x80?\x00\x00\x80?\x00\x00\x80?\x00\x00\x80?\x00\x00\x80?\x00\x00\x80?\x00\x00\x80?\x00\x00\x80?\x00\x00\x80?\x00\x00\x80?\x00\x00\x80?\x00\x00\x80?\x00\x00\x80?\x00\x00\x80?\x00\x00\x80?\x00\x00\x80?\x00\x00\x80?\x00\x00\x80?\x00\x00\x80?\x00\x00\x80?\x00\x00\x80?\x00\x00\x80?\x00\x00\x80?\x00\x00\x80?\x00\x00\x80?\x00\x00\x80?\x00\x00\x80?\x00\x00\x80?\x00\x00\x80?\x00\x00\x80?\x00\x00\x80?\x00\x00\x80?\x00\x00\x80?\x00\x00\x80?\x00\x00\x80?\x00\x00\x80?\x00\x00\x80?\x00\x00\x80?\x00\x00\x80?\x00\x00\x80?\x00\x00\x80?\x00\x00\x80?\x00\x00\x80?\x00\x00\x80?\x00\x00\x80?\x00\x00\x80?\x00\x00\x80?\x00\x00\x80?\x00\x00\x80?\x00\x00\x80?\x00\x00\x80?\x00\x00\x80?\x00\x00\x80?\x00\x00\x80?\x00\x00\x80?\x00\x00\x80?\x00\x00\x80?\x00\x00\x80?\x00\x00\x80?\x00\x00\x80?\x00\x00\x80?\x00\x00\x80?\x00\x00\x80?\x00\x00\x80?\x00\x00\x80?\x00\x00\x80?\x00\x00\x80?\x00\x00\x80?\x00\x00\x80?\x00\x00\x80?\x00\x00\x80?\x00\x00\x80?\x00\x00\x80?\x00\x00\x80?\x00\x00\x80?\x00\x00\x80?\x00\x00\x80?\x00\x00\x80?\x00\x00\x80?\x00\x00\x80?\x00\x00\x80?\x00\x00\x80?\x00\x00\x80?\x00\x00\x80?\x00\x00\x80?\x00\x00\x80?\x00\x00\x80?\x00\x00\x80?\x00\x00\x80?\x00\x00\x80?\x00\x00\x80?\x00\x00\x80?\x00\x00\x80?\x00\x00\x80?\x00\x00\x80?\x00\x00\x80?\x00\x00\x80?\x00\x00\x80?\x00\x00\x80?\x00\x00\x80?\x00\x00\x80?\x00\x00\x80?\x00\x00\x80?\x00\x00\x80?\x00\x00\x80?\x00\x00\x80?\x00\x00\x80?\x00\x00\x80?\x00\x00\x80?\x00\x00\x80?\x00\x00\x80?\x00\x00\x80?\x00\x00\x80?\x00\x00\x80?\x00\x00\x80?\x00\x00\x80?\x00\x00\x80?\x00\x00\x80?\x00\x00\x80?\x00\x00\x80?\x00\x00\x80?\x00\x00\x80?\x00\x00\x80?\x00\x00\x80?\x00\x00\x80?\x00\x00\x80?\x00\x00\x80?\x00\x00\x80?\x00\x00\x80?\x00\x00\x80?\x00\x00\x80?\x00\x00\x80?\x00\x00\x80?\x00\x00\x80?\x00\x00\x80?\x00\x00\x80?\x00\x00\x80?\x00\x00\x80?\x00\x00\x80?\x00\x00\x80?\x00\x00\x80?\x00\x00\x80?\x00\x00\x80?\x00\x00\x80?\x00\x00\x80?\x00\x00\x80?\x00\x00\x80?\x00\x00\x80?\x00\x00\x80?\x00\x00\x80?\x00\x00\x80?\x00\x00\x80?\x00\x00\x80?\x00\x00\x80?\x00\x00\x80?\x00\x00\x80?\x00\x00\x80?\x00\x00\x80?\x00\x00\x80?\x00\x00\x80?\x00\x00\x80?\x00\x00\x80?\x00\x00\x80?\x00\x00\x80?\x00\x00\x80?\x00\x00\x80?\x00\x00\x80?\x00\x00\x80?\x00\x00\x80?\x00\x00\x80?\x00\x00\x80?\x00\x00\x80?\x00\x00\x80?\x00\x00\x80?\x00\x00\x80?\x00\x00\x80?\x00\x00\x80?\x00\x00\x80?\x00\x00\x80?\x00\x00\x80?\x00\x00\x80?\x00\x00\x80?\x00\x00\x80?\x00\x00\x80?\x00\x00\x80?\x00\x00\x80?\x00\x00\x80?\x00\x00\x80?\x00\x00\x80?\x00\x00\x80?\x00\x00\x80?\x00\x00\x80?\x00\x00\x80?\x00\x00\x80?\x00\x00\x80?\x00\x00\x80?\x00\x00\x80?\x00\x00\x80?\x00\x00\x80?\x00\x00\x80?\x00\x00\x80?\x00\x00\x80?\x00\x00\x80?\x00\x00\x80?\x00\x00\x80?\x00\x00\x80?\x00\x00\x80?\x00\x00\x80?\x00\x00\x80?\x00\x00\x80?\x00\x00\x80?\x00\x00\x80?\x00\x00\x80?\x00\x00\x80?\x00\x00\x80?\x00\x00\x80?\x00\x00\x80?\x00\x00\x80?\x00\x00\x80?\x00\x00\x80?\x00\x00\x80?\x00\x00\x80?\x00\x00\x80?\x00\x00\x80?\x00\x00\x80?\x00\x00\x80?\x00\x00\x80?\x00\x00\x80?\x00\x00\x80?\x00\x00\x80?\x00\x00\x80?\x00\x00\x80?\x00\x00\x80?\x00\x00\x80?\x00\x00\x80?\x00\x00\x80?\x00\x00\x80?\x00\x00\x80?\x00\x00\x80?\x00\x00\x80?\x00\x00\x80?\x00\x00\x80?\x00\x00\x80?\x00\x00\x80?\x00\x00\x80?\x00\x00\x80?\x00\x00\x80?\x00\x00\x80?\x00\x00\x80?\x00\x00\x80?\x00\x00\x80?\x00\x00\x80?\x00\x00\x80?\x00\x00\x80?\x00\x00\x80?\x00\x00\x80?\x00\x00\x80?\x00\x00\x80?\x00\x00\x80?\x00\x00\x80?\x00\x00\x80?\x00\x00\x80?\x00\x00\x80?\x00\x00\x80?\x00\x00\x80?\x00\x00\x80?\x00\x00\x80?\x00\x00\x80?\x00\x00\x80?\x00\x00\x80?\x00\x00\x80?\x00\x00\x80?\x00\x00\x80?\x00\x00\x80?\x00\x00\x80?\x00\x00\x80?\x00\x00\x80?\x00\x00\x80?\x00\x00\x80?\x00\x00\x80?\x00\x00\x80?\x00\x00\x80?\x00\x00\x80?\x00\x00\x80?\x00\x00\x80?\x00\x00\x80?\x00\x00\x80?\x00\x00\x80?\x00\x00\x80?\x00\x00\x80?\x00\x00\x80?\x00\x00\x80?\x00\x00\x80?\x00\x00\x80?\x00\x00\x80?\x00\x00\x80?\x00\x00\x80?\x00\x00\x80?\x00\x00\x80?\x00\x00\x80?\x00\x00\x80?\x00\x00\x80?\x00\x00\x80?\x00\x00\x80?\x00\x00\x80?\x00\x00\x80?\x00\x00\x80?\x00\x00\x80?\x00\x00\x80?\x00\x00\x80?\x00\x00\x80?\x00\x00\x80?\x00\x00\x80?\x00\x00\x80?\x00\x00\x80?\x00\x00\x80?\x00\x00\x80?\x00\x00\x80?\x00\x00\x80?\x00\x00\x80?\x00\x00\x80?\x00\x00\x80?\x00\x00\x80?\x00\x00\x80?\x00\x00\x80?\x00\x00\x80?\x00\x00\x80?\x00\x00\x80?\x00\x00\x80?\x00\x00\x80?\x00\x00\x80?\x00\x00\x80?\x00\x00\x80?\x00\x00\x80?\x00\x00\x80?\x00\x00\x80?\x00\x00\x80?\x00\x00\x80?\x00\x00\x80?\x00\x00\x80?\x00\x00\x80?\x00\x00\x80?\x00\x00\x80?\x00\x00\x80?\x00\x00\x80?\x00\x00\x80?\x00\x00\x80?\x00\x00\x80?\x00\x00\x80?\x00\x00\x80?\x00\x00\x80?\x00\x00\x80?\x00\x00\x80?\x00\x00\x80?\x00\x00\x80?\x00\x00\x80?\x00\x00\x80?\x00\x00\x80?\x00\x00\x80?\x00\x00\x80?\x00\x00\x80?\x00\x00\x80?\x00\x00\x80?\x00\x00\x80?\x00\x00\x80?\x00\x00\x80?\x00\x00\x80?\x00\x00\x80?\x00\x00\x80?\x00\x00\x80?\x00\x00\x80?\x00\x00\x80?\x00\x00\x80?\x00\x00\x80?\x00\x00\x80?\x00\x00\x80?\x00\x00\x80?\x00\x00\x80?\x00\x00\x80?\x00\x00\x80?\x00\x00\x80?\x00\x00\x80?\x00\x00\x80?\x00\x00\x80?\x00\x00\x80?\x00\x00\x80?\x00\x00\x80?\x00\x00\x80?\x00\x00\x80?\x00\x00\x80?\x00\x00\x80?\x00\x00\x80?\x00\x00\x80?\x00\x00\x80?\x00\x00\x80?\x00\x00\x80?\x00\x00\x80?\x00\x00\x80?\x00\x00\x80?\x00\x00\x80?\x00\x00\x80?\x00\x00\x80?\x00\x00\x80?\x00\x00\x80?\x00\x00\x80?\x00\x00\x80?\x00\x00\x80?\x00\x00\x80?\x00\x00\x80?\x00\x00\x80?\x00\x00\x80?\x00\x00\x80?\x00\x00\x80?\x00\x00\x80?\x00\x00\x80?\x00\x00\x80?\x00\x00\x80?\x00\x00\x80?\x00\x00\x80?\x00\x00\x80?\x00\x00\x80?\x00\x00\x80?\x00\x00\x80?\x00\x00\x80?\x00\x00\x80?\x00\x00\x80?\x00\x00\x80?\x00\x00\x80?\x00\x00\x80?\x00\x00\x80?\x00\x00\x80?\x00\x00\x80?\x00\x00\x80?\x00\x00\x80?\x00\x00\x80?\x00\x00\x80?\x00\x00\x80?\x00\x00\x80?\x00\x00\x80?\x00\x00\x80?\x00\x00\x80?\x00\x00\x80?\x00\x00\x80?\x00\x00\x80?\x00\x00\x80?\x00\x00\x80?\x00\x00\x80?\x00\x00\x80?\x00\x00\x80?\x00\x00\x80?\x00\x00\x80?\x00\x00\x80?\x00\x00\x80?\x00\x00\x80?\x00\x00\x80?\x00\x00\x80?\x00\x00\x80?\x00\x00\x80?\x00\x00\x80?\x00\x00\x80?\x00\x00\x80?\x00\x00\x80?\x00\x00\x80?\x00\x00\x80?\x00\x00\x80?\x00\x00\x80?\x00\x00\x80?\x00\x00\x80?\x00\x00\x80?\x00\x00\x80?\x00\x00\x80?\x00\x00\x80?\x00\x00\x80?\x00\x00\x80?\x00\x00\x80?\x00\x00\x80?\x00\x00\x80?\x00\x00\x80?\x00\x00\x80?\x00\x00\x80?\x00\x00\x80?\x00\x00\x80?\x00\x00\x80?\x00\x00\x80?\x00\x00\x80?\x00\x00\x80?\x00\x00\x80?\x00\x00\x80?\x00\x00\x80?\x00\x00\x80?\x00\x00\x80?\x00\x00\x80?\x00\x00\x80?\x00\x00\x80?\x00\x00\x80?\x00\x00\x80?\x00\x00\x80?\x00\x00\x80?\x00\x00\x80?\x00\x00\x80?\x00\x00\x80?\x00\x00\x80?\x00\x00\x80?\x00\x00\x80?\x00\x00\x80?\x00\x00\x80?\x00\x00\x80?\x00\x00\x80?\x00\x00\x80?\x00\x00\x80?\x00\x00\x80?\x00\x00\x80?\x00\x00\x80?\x00\x00\x80?\x00\x00\x80?\x00\x00\x80?\x00\x00\x80?\x00\x00\x80?\x00\x00\x80?\x00\x00\x80?\x00\x00\x80?\x00\x00\x80?\x00\x00\x80?\x00\x00\x80?\x00\x00\x80?\x00\x00\x80?\x00\x00\x80?\x00\x00\x80?\x00\x00\x80?\x00\x00\x80?\x00\x00\x80?'
S'\x00\x00\x00\x00\x00\x00\x00\x00\x00\x00\x00\x00\x00\x00\x00\x00\x00\x00\x00\x00\x00\x00\x00\x00\x00\x00\x00\x00\x00\x00\x00\x00\x00\x00\x00\x00\x00\x00\x00\x00\x00\x00\x00\x00\x00\x00\x00\x00\x00\x00\x00\x00\x00\x00\x00\x00\x00\x00\x00\x00\x00\x00\x00\x00\x00\x00\x00\x00\x00\x00\x00\x00\x00\x00\x00\x00\x00\x00\x00\x00\x00\x00\x00\x00\x00\x00\x00\x00\x00\x00\x00\x00\x00\x00\x00\x00\x00\x00\x00\x00\x00\x00\x00\x00\x00\x00\x00\x00\x00\x00\x00\x00\x00\x00\x00\x00\x00\x00\x00\x00\x00\x00\x00\x00\x00\x00\x00\x00\x00\x00\x00\x00\x00\x00\x00\x00\x00\x00\x00\x00\x00\x00\x00\x00\x00\x00\x00\x00\x00\x00\x00\x00\x00\x00\x00\x00\x00\x00\x00\x00\x00\x00\x00\x00\x00\x00\x00\x00\x00\x00\x00\x00\x00\x00\x00\x00\x00\x00\x00\x00\x00\x00\x00\x00\x00\x00\x00\x00\x00\x00\x00\x00\x00\x00\x00\x00\x00\x00\x00\x00\x00\x00\x00\x00\x00\x00\x00\x00\x00\x00\x00\x00\x00\x00\x00\x00\x00\x00\x00\x00\x00\x00\x00\x00\x00\x00\x00\x00\x00\x00\x00\x00\x00\x00\x00\x00\x00\x00\x00\x00\x00\x00\x00\x00\x00\x00\x00\x00\x00\x00\x00\x00\x00\x00\x00\x00\x00\x00\x00\x00\x00\x00\x00\x00\x00\x00\x00\x00\x00\x00\x00\x00\x00\x00\x00\x00\x00\x00\x00\x00\x00\x00\x00\x00\x00\x00\x00\x00\x00\x00\x00\x00\x00\x00\x00\x00\x00\x00\x00\x00\x00\x00\x00\x00\x00\x00\x00\x00\x00\x00\x00\x00\x00\x00\x00\x00\x00\x00\x00\x00\x00\x00\x00\x00\x00\x00\x00\x00\x00\x00\x00\x00\x00\x00\x00\x00\x00\x00\x00\x00\x00\x00\x00\x00\x00\x00\x00\x00\x00\x00\x00\x00\x00\x00\x00\x00\x00\x00\x00\x00\x00\x00\x00\x00\x00\x00\x00\x00\x00\x00\x00\x00\x00\x00\x00\x00\x00\x00\x00\x00\x00\x00\x00\x00\x00\x00\x00\x00\x00\x00\x00\x00\x00\x00\x00\x00\x00\x00\x00\x00\x00\x00\x00\x00\x00\x00\x00\x00\x00\x00\x00\x00\x00\x00\x00\x00\x00\x00\x00\x00\x00\x00\x00\x00\x00\x00\x00\x00\x00\x00\x00\x00\x00\x00\x00\x00\x00\x00\x00\x00\x00\x00\x00\x00\x00\x00\x00\x00\x00\x00\x00\x00\x00\x00\x00\x00\x00\x00\x00\x00\x00\x00\x00\x00\x00\x00\x00\x00\x00\x00\x00\x00\x00\x00\x00\x00\x00\x00\x00\x00\x00\x00\x00\x00\x00\x00\x00\x00\x00\x00\x00\x00\x00\x00\x00\x00\x00\x00\x00\x00\x00\x00\x00\x00\x00\x00\x00\x00\x00\x00\x00\x00\x00\x00\x00\x00\x00\x00\x00\x00\x00\x00\x00\x00\x00\x00\x00\x00\x00\x00\x00\x00\x00\x00\x00\x00\x00\x00\x00\x00\x00\x00\x00\x00\x00\x00\x00\x00\x00\x00\x00\x00\x00\x00\x00\x00\x00\x00\x00\x00\x00\x00\x00\x00\x00\x00\x00\x00\x00\x00\x00\x00\x00\x00\x00\x00\x00\x00\x00\x00\x00\x00\x00\x00\x00\x00\x00\x00\x00\x00\x00\x00\x00\x00\x00\x00\x00\x00\x00\x00'
Ntbsg55
g48
(g49
g50
g51
S'b'
tRp4289
(I1
(I600
I1
tg54
I00
S'\x00\x80\xaaC\x00\x80\xdcC\x00\x00\xe1C\x00\x80\xc4C\x00\x80\xd9C\x00\x00\xf0C\x00\x00zC\x00\x00\x19C\x00\x00\xacB\x00\x00\xc2B\x00\x00oC\x00\xc0\tD\x00\x00FC\x00@\x05D\x00\x00mC\x00\x80\xb0C\x00\x80\xbbC\x00\x80\x94C\x00\x80\xa8C\x00\x00\xb6B\x00\x00@C\x00\x00\x8fC\x00\x00\x8eC\x00\x00\x0cD\x00\x80\xb7C\x00\x00,C\x00\xc0\x13D\x00\x00\xeaC\x00\xc0\x14D\x00\x80\x8bC\x00\x80\xcaC\x00\x00$C\x00\x00\xa0C\x00\x00\xd7C\x00\x00\xf2B\x00\x00AC\x00\x00\x0eC\x00\x00lB\x00\x80\x97C\x00\x80\x93C\x00\x00\x88C\x00\x00\x14D\x00\x00\xf5C\x00\x00\x01C\x00\x00\xd2C\x00\x00\xc5C\x00@\x02D\x00\x00\x00\x00\x00\x00\xa2B\x00\x80\xd7C\x00\x80\xa4C\x00\x00\tC\x00\x80\xb1C\x00\x00\x08C\x00@\x12D\x00\xc0\x0eD\x00\x80\x13D\x00\x80\xf9C\x00\x00sC\x00\x80\xbaC\x00\x00\xb4C\x00\x00DC\x00@\rD\x00\x00\xe8A\x00\x00xB\x00\x00\xf4B\x00\x00\x93C\x00\x00\x03D\x00\x00\xbdC\x00\x00\x00C\x00\x00tB\x00\x80\tD\x00\x00\x0cB\x00\x00\xf9C\x00\x00\x82B\x00\x00_C\x00\x00\x98A\x00\x80\xb6C\x00\x00|B\x00\xc0\x10D\x00\x00#C\x00@\tD\x00\x00\x08B\x00\x00\x7fC\x00\x80\xc5C\x00\x00\xd2B\x00\x00QC\x00\x00\xf0B\x00\x00\x05C\x00\x00*C\x00\x80\xaeC\x00\x00>C\x00\x80\xe6C\x00\x00\xaeB\x00\x00vC\x00\x00-C\x00\x00\x81C\x00\x00\x80C\x00\x00\'C\x00\x80\xadC\x00\x00,B\x00@\x15D\x00\x00\x06D\x00@\x0bD\x00\x80\x14D\x00\x80\xd5C\x00\x80\xbcC\x00\x80\x05D\x00\x008C\x00\x80\xc3C\x00\xc0\x06D\x00\x80\xeeC\x00\x80\x80C\x00\xc0\x02D\x00\xc0\x07D\x00\x00"C\x00\x00\xcdC\x00\x00BC\x00\x80\xdaC\x00\x00\x04D\x00\x00\x0bD\x00@\x14D\x00\x00^C\x00\x00\xf2C\x00\x00\x98B\x00\x00`A\x00\x80\xa0C\x00\x80\xd4C\x00\x00\xe2C\x00\x80\xdfC\x00\x00\x8aB\x00\x00=C\x00\x00\x96C\x00\x00\xbcB\x00\x80\xe2C\x00\x00\xbeB\x00\x00\x98C\x00\x00\xc0C\x00\xc0\x11D\x00\x00\xccB\x00\x00yC\x00\x80\xddC\x00\x80\xa1C\x00\x00\nC\x00\x00\x14B\x00\x00TC\x00\x00\x8bC\x00\x00\x13C\x00\x00\xfcB\x00\x00\x9eB\x00\x00\xbaB\x00\x80\x91C\x00\x00\x80A\x00\x00 B\x00\x80\xccC\x00\x00\xb8B\x00\x80\xd6C\x00@\x13D\x00\x00fC\x00\x00\xa3C\x00\x80\xfaC\x00\x00\x11C\x00\x00\x80?\x00\x00\xc9C\x00\x00jC\x00\x00\x80@\x00\x00SC\x00\x00\xfeC\x00\x00\xbbC\x00\x00\xadC\x00\x80\x99C\x00\x80\xc1C\x00\x00\xb7C\x00\x00%C\x00\x00\xc0B\x00\x00WC\x00\x00KC\x00\x00\xcaB\x00\x80\xb8C\x00\x00\x89C\x00\x00\xa7C\x00\x80\xb5C\x00@\x11D\x00\x00dB\x00\x00\x04C\x00\x00\\C\x00\x00\x02D\x00\x80\xcfC\x00\x00\x1aC\x00\x00\xd3C\x00\x80\x8fC\x00\x80\x12D\x00\x001C\x00\x00\x9eC\x00\x00\xf1C\x00\x00\xe0@\x00\x80\x87C\x00\x00\x1cC\x00\x00\xedC\x00\x00\xecC\x00\x80\x0fD\x00\x00\xf3C\x00\x00\tD\x00\x00\xf6C\x00\x00\xc3C\x00\x00\xc6B\x00\x00GC\x00\x80\xdeC\x00\x00\xeeB\x00\x00rC\x00\x80\xd0C\x00\x00<C\x00\x00\x9bC\x00\x00pA\x00\x00\x8aC\x00\x00PA\x00\x00ZC\x00\x00\xffC\x00\x00nC\x00\x80\xd1C\x00\x00VC\x00\x00\x8dC\x00\x00\xfaC\x00\x00PC\x00\x00\xb3C\x00\x00\x1bC\x00\x00\xb8C\x00\x00&C\x00\x00@@\x00\x00<B\x00\x00\x02C\x00\x00\xa0@\x00\x00cC\x00\x00EC\x00\x80\xe4C\x00\x004C\x00\x00\x92C\x00\x00\xdaC\x00\x00\x14C\x00\x00~C\x00\x00`C\x00\x00\xb6C\x00\x80\xffC\x00\x80\x82C\x00@\x00D\x00\x00\xdcC\x00\x00\x94C\x00\x80\xf7C\x00\x00\xe2B\x00\xc0\x05D\x00\x00tC\x00\x80\xf3C\x00\x00.C\x00\x80\x96C\x00\x00\xc4C\x00\x00\x95C\x00\x00\xbaC\x00\x00\xa0A\x00\x00\xb0B\x00\x80\nD\x00\x00HB\x00\x00 A\x00\x00\xb0C\x00\x80\xc8C\x00\x80\xb9C\x00\x00\x10D\x00\x80\xb3C\x00\x00\x9cC\x00\x80\xabC\x00\x00\xe5C\x00\x00qC\x00\x80\x86C\x00\x00dC\x00\x00\x05D\x00\x80\x10D\x00\x80\x88C\x00\x00\xaeC\x00\x00\xd8A\x00\x00\xe6B\x00\x00\x80B\x00\x00\x87C\x00\x00\xfbC\x00\x00\xf7C\x00\x00\x1cB\x00\x00\xaaC\x00@\x0fD\x00\x80\xefC\x00\x00\x85C\x00\x00\rD\x00\x00\xe0B\x00\x00\x86C\x00\x00wC\x00\x00\xf8B\x00\x00\xe0C\x00\x00\xd0A\x00\x00\x0fD\x00@\x04D\x00\x00\xceB\x00\x80\x8eC\x00\x00\x99C\x00\x80\xfeC\x00\x00\x90A\x00\x00LC\x00\x00\xfaB\x00\x00{C\x00\x00\x00@\x00\x000A\x00\x00\xdfC\x00\x80\x90C\x00\x00RC\x00\x00\x0cC\x00@\x10D\x00\x80\x07D\x00\x00\x8eB\x00\x00!C\x00@\x07D\x00\x80\xa6C\x00@\x06D\x00\x00 C\x00\x00\x96B\x00\x00kC\x00\x80\xd8C\x00\x80\xc9C\x00\x00\xe4C\x00\x00\x9cB\x00\x80\x98C\x00\x00\x12C\x00\x00\xd4B\x00\x80\x83C\x00\x00\xb2B\x00\x00\xd6B\x00\x80\xe0C\x00\x009C\x00\x00pB\x00\x80\xf2C\x00\x006C\x00\x00\xb4B\x00\x00JC\x00\x00hB\x00\x80\x06D\x00\x00hC\x00\x00eC\x00\x00\x92B\x00\x80\x01D\x00\x00\xd9C\x00\x00;C\x00\x00\xc0A\x00\x007C\x00\x00TB\x00\x00\xf8C\x00\x00\xa6B\x00\x00\xbcC\x00\x00\x84B\x00\x00\xb0A\x00@\x01D\x00\x00\xa8C\x00\xc0\nD\x00\x80\xc2C\x00\x80\xbdC\x00\x00\x03C\x00\x00\xb2C\x00\x00\xa9C\x00\x80\xdbC\x00\x00}C\x00\x005C\x00\x00PB\x00\x008B\x00\x00\xcbC\x00\x00\x9fC\x00\x80\xbfC\x00\x00(B\x00\x80\xd3C\x00\xc0\x12D\x00\x00\xebC\x00\x000C\x00\x00\xd8B\x00\x00\xcfC\x00\x00\x97C\x00\x00\xd4C\x00\x00\xa2C\x00\x00\x06C\x00\x00\x00B\x00\x00\xd0C\x00\x00\x84C\x00\x00\xbeC\x00\x80\xc7C\x00\x00aC\x00\x00DB\x00\x80\x9cC\x00\x80\xcdC\x00\x80\x9eC\x00\x00@B\x00\x00\xccC\x00\x00\x07D\x00\x80\x8dC\x00\x80\xc0C\x00\x00\xddC\x00\x00\xe3C\x00\x80\x8aC\x00\x00\x82C\x00\x00\x1dC\x00\x80\x8cC\x00\x00\x08D\x00\x00\x17C\x00\x00uC\x00\x00\xf6B\x00\x00\x1fC\x00\xc0\x15D\x00\x000B\x00\x00\xa8B\x00\x00\xd0B\x00\x80\xa7C\x00\x80\x11D\x00\x00(C\x00\x80\x85C\x00\x00\xc8A\x00\x00\xabC\x00\x00\xecB\x00\x80\x0cD\x00\x00\x18C\x00\x00\x9dC\x00\xc0\x0bD\x00\x80\xa5C\x00\x00\x0bC\x00\x00\x90B\x00\x80\xf5C\x00\x00:C\x00\x00XB\x00\x80\xd2C\x00\x00\x16C\x00\x80\xf1C\x00\x00HC\x00\x00LB\x00\x80\xa2C\x00\x003C\x00\x80\xacC\x00\x00UC\x00\x00\xaaB\x00\x00\x04B\x00\x80\x81C\x00\x00\x00A\x00\x80\xe1C\x00\x00\xe8B\x00\x80\xeaC\x00\x80\xa9C\x00\xc0\x00D\x00\x00\xd1C\x00\xc0\rD\x00\x00\xc0@\x00\x00\x15C\x00\x00\xdeB\x00\x80\xb4C\x00\x00\xc1C\x00\x80\x02D\x00\x00\xf0A\x00\x00\xd5C\x00\x80\x9dC\x00\x80\xcbC\x00\x00\xe8C\x00\x00\xf4C\x00\x00\xa5C\x00@\x0eD\x00\x00\xeaB\x00\x00\xacC\x00\x80\xceC\x00\x00\x07C\x00\x00YC\x00@\x03D\x00\x80\xc6C\x00\x00\x8cB\x00\xc0\x08D\x00\x00xC\x00\x00\xb5C\x00\xc0\x03D\x00\x80\xf8C\x00\x00+C\x00\x00\x01D\x00\x80\xbeC\x00\x80\xedC\x00\x80\xafC\x00\x00\xa8A\x00\x00\x83C\x00\x00\x13D\x00\xc0\x04D\x00\x80\xe8C\x00\x00`B\x00\x00\xc6C\x00\x00\xafC\x00\x00\x18B\x00\x00\xfdC\x00\x80\x04D\x00\x00\\B\x00\x00)C\x00\x00]C\x00\x00iC\x00\x80\x89C\x00\x00MC\x00\x80\x95C\x00\x00\xe9C\x00\x00\xdaB\x00\x00\x00D\x00\x80\x9fC\x00\x00\x8cC\x00\x00\xa0B\x00\x80\x03D\x00\x00\x10C\x00\x80\x08D\x00\xc0\x0cD\x00\x004B\x00\x00\rC\x00\x80\x84C\x00\x00\xdbC\x00\x00\x10A\x00\x00\x9aB\x00\x00\xdeC\x00\x00\xc4B\x00\x80\xf0C\x00\x00\xbfC\x00\x00XC\x00\x00\x88B\x00\x80\x0bD\x00\x00[C\x00\x80\xfdC\x00\x80\x92C\x00\x00\xceC\x00\x80\rD\x00\x00\xa6C\x00\x80\xe9C\x00\x00\xc8B\x00\x00pC\x00\x00\x1eC\x00\x00|C\x00\x00\x10B\x00\x00@A\x00\x00/C\x00\x00\xfeB\x00@\x0cD\x00\x00\x94B\x00\x00\x0fC\x00\x00\x9aC\x00\x00gC\x00\x00\xa4B\x00\x80\x00D\x00\xc0\x01D\x00\x80\xfbC\x00\x00\x90C\x00\x80\x0eD\x00\x80\xf4C\x00\x00\xa1C\x00\x00\xdcB\x00@\nD\x00\x80\xe3C\x00\x00\x86B\x00\x80\xa3C\x00\x00\xfcC\x00\x80\xecC\x00\x80\xebC\x00\x002C\x00\x80\xf6C\x00\x80\xb2C\x00\x00\xa4C\x00\x00\xefC\x00@\x08D\x00\x80\x15D\x00\x00\x11D\x00\x00\xb1C\x00\x00\xc7C\x00\x00\xd8C\x00\x00CC\x00\x00\x15D\x00\x00\xe4B\x00\x80\x9bC\x00\x00\xe0A\x00\x00\xd6C\x00\x00\xeeC\x00\x00OC\x00\x00NC\x00\x80\x9aC\x00\x00?C\x00\x80\xfcC\x00\x00lC\x00\x00IC\x00\x00\x91C\x00\x00\x0eD\x00\x00\xe7C\x00\x80\xe5C\x00\xc0\x0fD\x00\x00\xb8A\x00\x00\xe6C\x00\x00\nD\x00\x00\xc2C\x00\x80\xe7C\x00\x00\xc8C\x00\x00\x88A\x00\x00$B\x00\x00bC\x00\x00\xf8A\x00\x00\xb9C\x00\x00\xcaC\x00\x00\x12D'
S'\x00\x00\x00\x00\x00\x00\x00\x00\x00\x00\x00\x00\x00\x00\x00\x00\x00\x00\x00\x00\x00\x00\x00\x00\x00\x00\x00\x00\x00\x00\x00\x00\x00\x00\x00\x00\x00\x00\x00\x00\x00\x00\x00\x00\x00\x00\x00\x00\x00\x00\x00\x00\x00\x00\x00\x00\x00\x00\x00\x00\x00\x00\x00\x00\x00\x00\x00\x00\x00\x00\x00\x00\x00\x00\x00\x00\x00\x00\x00\x00\x00\x00\x00\x00\x00\x00\x00\x00\x00\x00\x00\x00\x00\x00\x00\x00\x00\x00\x00\x00\x00\x00\x00\x00\x00\x00\x00\x00\x00\x00\x00\x00\x00\x00\x00\x00\x00\x00\x00\x00\x00\x00\x00\x00\x00\x00\x00\x00\x00\x00\x00\x00\x00\x00\x00\x00\x00\x00\x00\x00\x00\x00\x00\x00\x00\x00\x00\x00\x00\x00\x00\x00\x00\x00\x00\x00\x00\x00\x00\x00\x00\x00\x00\x00\x00\x00\x00\x00\x00\x00\x00\x00\x00\x00\x00\x00\x00\x00\x00\x00\x00\x00\x00\x00\x00\x00\x00\x00\x00\x00\x00\x00\x00\x00\x00\x00\x00\x00\x00\x00\x00\x00\x00\x00\x00\x00\x00\x00\x00\x00\x00\x00\x00\x00\x00\x00\x00\x00\x00\x00\x00\x00\x00\x00\x00\x00\x00\x00\x00\x00\x00\x00\x00\x00\x00\x00\x00\x00\x00\x00\x00\x00\x00\x00\x00\x00\x00\x00\x00\x00\x00\x00\x00\x00\x00\x00\x00\x00\x00\x00\x00\x00\x00\x00\x00\x00\x00\x00\x00\x00\x00\x00\x00\x00\x00\x00\x00\x00\x00\x00\x00\x00\x00\x00\x00\x00\x00\x00\x00\x00\x00\x00\x00\x00\x00\x00\x00\x00\x00\x00\x00\x00\x00\x00\x00\x00\x00\x00\x00\x00\x00\x00\x00\x00\x00\x00\x00\x00\x00\x00\x00\x00\x00\x00\x00\x00\x00\x00\x00\x00\x00\x00\x00\x00\x00\x00\x00\x00\x00\x00\x00\x00\x00\x00\x00\x00\x00\x00\x00\x00\x00\x00\x00\x00\x00\x00\x00\x00\x00\x00\x00\x00\x00\x00\x00\x00\x00\x00\x00\x00\x00\x00\x00\x00\x00\x00\x00\x00\x00\x00\x00\x00\x00\x00\x00\x00\x00\x00\x00\x00\x00\x00\x00\x00\x00\x00\x00\x00\x00\x00\x00\x00\x00\x00\x00\x00\x00\x00\x00\x00\x00\x00\x00\x00\x00\x00\x00\x00\x00\x00\x00\x00\x00\x00\x00\x00\x00\x00\x00\x00\x00\x00\x00\x00\x00\x00\x00\x00\x00\x00\x00\x00\x00\x00\x00\x00\x00\x00\x00\x00\x00\x00\x00\x00\x00\x00\x00\x00\x00\x00\x00\x00\x00\x00\x00\x00\x00\x00\x00\x00\x00\x00\x00\x00\x00\x00\x00\x00\x00\x00\x00\x00\x00\x00\x00\x00\x00\x00\x00\x00\x00\x00\x00\x00\x00\x00\x00\x00\x00\x00\x00\x00\x00\x00\x00\x00\x00\x00\x00\x00\x00\x00\x00\x00\x00\x00\x00\x00\x00\x00\x00\x00\x00\x00\x00\x00\x00\x00\x00\x00\x00\x00\x00\x00\x00\x00\x00\x00\x00\x00\x00\x00\x00\x00\x00\x00\x00\x00\x00\x00\x00\x00\x00\x00\x00\x00\x00\x00\x00\x00\x00\x00\x00\x00\x00\x00\x00\x00\x00\x00\x00\x00\x00\x00\x00\x00\x00\x00\x00\x00\x00\x00\x00\x00\x00\x00\x00\x00\x00\x00\x00\x00\x00\x00\x00\x00\x00\x00\x00\x00'
NtbstRp4290
(dp4291
g59
(dp4292
g47
I01
sg55
I01
ssg61
g4284
sg62
(lp4293
g47
ag55
asg64
(lp4294
I600
aI1
asbsg66
S'random'
p4295
sg68
g69
(g50
(I0
tS'b'
tRp4296
(I1
(I600
I1
tg53
(S'i4'
I0
I1
tRp4297
(I3
S'<'
NNNI-1
I-1
I0
tbI01
S'/\x00\x00\x00\xa2\x00\x00\x001\x01\x00\x00\xe4\x00\x00\x00\xa5\x00\x00\x00\xe7\x00\x00\x00\xc0\x01\x00\x00\xc3\x00\x00\x00\xb8\x01\x00\x00\x00\x02\x00\x00\x05\x01\x00\x002\x01\x00\x00\x15\x02\x00\x00\xd7\x00\x00\x00}\x00\x00\x00\xd5\x00\x00\x00\x98\x00\x00\x00Q\x02\x00\x00-\x01\x00\x00L\x00\x00\x00\x01\x01\x00\x00\xe0\x01\x00\x00a\x01\x00\x00K\x02\x00\x00Z\x01\x00\x00\x9f\x01\x00\x00&\x01\x00\x00\x15\x01\x00\x00<\x02\x00\x00?\x00\x00\x00\xc6\x01\x00\x00T\x02\x00\x00}\x01\x00\x00\xb6\x01\x00\x00R\x00\x00\x00H\x00\x00\x00\x14\x02\x00\x00\x90\x00\x00\x00\xe8\x01\x00\x00\x1b\x01\x00\x00\x99\x00\x00\x00R\x02\x00\x00r\x01\x00\x00d\x00\x00\x00\x98\x01\x00\x00\xfc\x01\x00\x00n\x01\x00\x00\xe5\x00\x00\x00\x87\x01\x00\x00\x83\x01\x00\x00\x04\x01\x00\x00\xb0\x01\x00\x00m\x01\x00\x00\\\x01\x00\x00\xab\x01\x00\x00\xeb\x01\x00\x00\xe5\x01\x00\x00\xb7\x00\x00\x00R\x01\x00\x00%\x00\x00\x00M\x01\x00\x00F\x00\x00\x00@\x00\x00\x00N\x00\x00\x00\x17\x01\x00\x00J\x00\x00\x00`\x01\x00\x00(\x02\x00\x00\x07\x02\x00\x00\x82\x00\x00\x00\xd5\x01\x00\x009\x01\x00\x00\xa8\x01\x00\x00V\x01\x00\x00\x19\x02\x00\x00?\x01\x00\x00|\x00\x00\x00\x01\x02\x00\x00D\x01\x00\x00\x95\x00\x00\x00\xf7\x01\x00\x000\x00\x00\x00\x1d\x02\x00\x00^\x01\x00\x00\x99\x01\x00\x00\xb5\x01\x00\x00\x08\x00\x00\x00]\x00\x00\x00\x02\x01\x00\x00I\x01\x00\x00P\x01\x00\x00\x13\x00\x00\x00\x9b\x00\x00\x00\x96\x00\x00\x00\x85\x00\x00\x00\x87\x00\x00\x00\xae\x00\x00\x00\t\x00\x00\x00\x03\x02\x00\x00\xcd\x00\x00\x00\x10\x02\x00\x00\xb1\x00\x00\x00\x8b\x00\x00\x00)\x01\x00\x00\x9a\x01\x00\x00U\x00\x00\x00G\x01\x00\x00J\x01\x00\x00w\x01\x00\x00\xf3\x01\x00\x00%\x02\x00\x00\xc2\x01\x00\x00!\x01\x00\x00\xf8\x00\x00\x00:\x02\x00\x00\x16\x01\x00\x00\xba\x01\x00\x00\xce\x01\x00\x00\xa1\x01\x00\x00\xd0\x00\x00\x00W\x00\x00\x00"\x00\x00\x00A\x00\x00\x00\x95\x01\x00\x00$\x01\x00\x00/\x01\x00\x00\x94\x00\x00\x00\x17\x02\x00\x00E\x00\x00\x00+\x00\x00\x00\xe6\x00\x00\x00g\x01\x00\x00\xb8\x00\x00\x00X\x00\x00\x00|\x01\x00\x00\xd1\x01\x00\x005\x00\x00\x003\x00\x00\x00\x8f\x00\x00\x00\xa7\x01\x00\x006\x01\x00\x00\xfd\x01\x00\x00$\x00\x00\x00\x1a\x02\x00\x00\xf9\x01\x00\x00\xa1\x00\x00\x00F\x01\x00\x00\x93\x00\x00\x00\xee\x00\x00\x00\xc1\x01\x00\x00\xad\x01\x00\x00\x93\x01\x00\x00\xa3\x01\x00\x00\x07\x00\x00\x00\xbc\x00\x00\x00\xe1\x00\x00\x00\xc5\x00\x00\x00\x90\x01\x00\x00\x12\x02\x00\x00\x96\x01\x00\x00>\x01\x00\x00:\x01\x00\x00s\x00\x00\x00P\x00\x00\x00\x1f\x00\x00\x00\xad\x00\x00\x00\xe3\x00\x00\x00b\x00\x00\x00\x9d\x01\x00\x00\xec\x01\x00\x00Y\x00\x00\x00\xdb\x01\x00\x00\x19\x00\x00\x00_\x00\x00\x00\xfc\x00\x00\x00\x16\x02\x00\x00v\x01\x00\x00\xc0\x00\x00\x00-\x02\x00\x00\xb2\x01\x00\x00\xeb\x00\x00\x00l\x01\x00\x00O\x01\x00\x00[\x01\x00\x00l\x00\x00\x00L\x01\x00\x00\xaa\x01\x00\x00Y\x01\x00\x00\xd3\x00\x00\x00\x83\x00\x00\x00[\x00\x00\x00B\x02\x00\x00\x14\x00\x00\x00#\x00\x00\x00u\x00\x00\x008\x02\x00\x00=\x00\x00\x00\xe9\x00\x00\x00\x0c\x00\x00\x00\xce\x00\x00\x00\xaf\x01\x00\x00E\x02\x00\x00Q\x01\x00\x00\xb0\x00\x00\x00.\x01\x00\x00\xf0\x01\x00\x00@\x02\x00\x00?\x02\x00\x00\xdf\x00\x00\x00V\x00\x00\x005\x01\x00\x00\xa6\x00\x00\x00\x91\x00\x00\x00\xb4\x01\x00\x00\xdc\x00\x00\x00\xaf\x00\x00\x00\x06\x02\x00\x00\xd2\x01\x00\x00\xd8\x00\x00\x00\t\x02\x00\x00\xb9\x00\x00\x00\xed\x01\x00\x00z\x00\x00\x00K\x00\x00\x00\xf0\x00\x00\x00\x82\x01\x00\x00S\x02\x00\x00\xe8\x00\x00\x00\x10\x01\x00\x00U\x01\x00\x00\x9e\x00\x00\x00\x1c\x02\x00\x00T\x01\x00\x00\xee\x01\x00\x00\xa4\x00\x00\x00@\x01\x00\x00D\x02\x00\x00\x0e\x00\x00\x00\xda\x00\x00\x00\n\x00\x00\x00\x11\x02\x00\x00\x0e\x01\x00\x00\xd1\x00\x00\x00:\x00\x00\x00\xfa\x00\x00\x00\x94\x01\x00\x00^\x00\x00\x00#\x01\x00\x00\xd7\x01\x00\x00\x8c\x00\x00\x00\x06\x00\x00\x000\x01\x00\x00\x13\x02\x00\x00k\x01\x00\x00\xef\x00\x00\x00S\x00\x00\x00a\x00\x00\x00p\x00\x00\x00`\x00\x00\x00\xb7\x01\x00\x00\x8f\x01\x00\x00\xf3\x00\x00\x00\xe1\x01\x00\x00H\x01\x00\x00\x7f\x01\x00\x00\xfe\x01\x00\x00\x1f\x01\x00\x00\x9e\x01\x00\x00"\x01\x00\x00\x0f\x01\x00\x00\x18\x01\x00\x00\xc4\x00\x00\x00(\x00\x00\x00\x13\x01\x00\x00\xb3\x00\x00\x00\xef\x01\x00\x00\xd6\x00\x00\x00\x8e\x01\x00\x00\x92\x00\x00\x00\x1d\x00\x00\x00\xf6\x01\x00\x00\x91\x01\x00\x00\xdd\x00\x00\x00\x8a\x01\x00\x00\x16\x00\x00\x00*\x01\x00\x00\x15\x00\x00\x00\xbe\x00\x00\x00!\x02\x00\x004\x01\x00\x00F\x02\x00\x00\x97\x00\x00\x00\xec\x00\x00\x00\x0b\x02\x00\x00B\x00\x00\x00\'\x00\x00\x00\xf6\x00\x00\x00\x11\x00\x00\x00\xff\x00\x00\x00\xf1\x01\x00\x00\x84\x00\x00\x00\xfd\x00\x00\x00y\x01\x00\x00&\x00\x00\x00\x88\x00\x00\x00E\x01\x00\x00+\x01\x00\x00\xaa\x00\x00\x00\x1b\x02\x00\x00A\x02\x00\x00\xd4\x00\x00\x00;\x02\x00\x00\x0b\x01\x00\x00\x84\x01\x00\x00\xa4\x01\x00\x00\xc8\x01\x00\x00\xc1\x00\x00\x00\x86\x01\x00\x00p\x01\x00\x00\xf5\x01\x00\x00 \x00\x00\x00~\x00\x00\x00$\x02\x00\x00\x8e\x00\x00\x00{\x01\x00\x00\xb1\x01\x00\x00\x9f\x00\x00\x00)\x02\x00\x000\x02\x00\x002\x00\x00\x00\xcc\x01\x00\x00\xa6\x01\x00\x00\x0e\x02\x00\x00<\x01\x00\x00\xb4\x00\x00\x00\x9b\x01\x00\x00c\x01\x00\x00\x12\x00\x00\x00i\x01\x00\x00\xbc\x01\x00\x00\x1c\x01\x00\x00\x00\x00\x00\x00\xa0\x01\x00\x00\x0c\x01\x00\x00\xcf\x01\x00\x00\xb3\x01\x00\x00\xa9\x00\x00\x00c\x00\x00\x00\x14\x01\x00\x00Z\x00\x00\x00\xe7\x01\x00\x00\xdf\x01\x00\x00\x06\x01\x00\x00\x0f\x00\x00\x005\x02\x00\x004\x00\x00\x00h\x01\x00\x00/\x02\x00\x00\xe0\x00\x00\x00\n\x01\x00\x00<\x00\x00\x00\xc3\x01\x00\x00\xd8\x01\x00\x00\xb5\x00\x00\x00\xf1\x00\x00\x00M\x00\x00\x00\xac\x00\x00\x00\x18\x00\x00\x00\xe2\x00\x00\x00\xb2\x00\x00\x00U\x02\x00\x00\x08\x01\x00\x00\x00\x01\x00\x00;\x00\x00\x00\xa8\x00\x00\x00\x10\x00\x00\x00_\x01\x00\x00j\x00\x00\x00D\x00\x00\x00f\x01\x00\x00\x80\x01\x00\x00\xdd\x01\x00\x00\x05\x02\x00\x00q\x01\x00\x00\x89\x00\x00\x00\x8b\x01\x00\x00\xc4\x01\x00\x00\xab\x00\x00\x00N\x02\x00\x00e\x01\x00\x00\xcc\x00\x00\x00m\x00\x00\x00\xfe\x00\x00\x00\x03\x00\x00\x00-\x00\x00\x00T\x00\x00\x00\xe6\x01\x00\x00\xd4\x01\x00\x006\x02\x00\x00\x81\x01\x00\x00P\x02\x00\x00\x07\x01\x00\x00\xa3\x00\x00\x00B\x01\x00\x00V\x02\x00\x00\x1e\x00\x00\x00o\x01\x00\x00\xc9\x01\x00\x00\x88\x01\x00\x00\x9a\x00\x00\x00t\x00\x00\x00\x85\x01\x00\x00\x0c\x02\x00\x00\xd0\x01\x00\x00x\x01\x00\x00\xbb\x00\x00\x00~\x01\x00\x00\xd2\x00\x00\x00\xbe\x01\x00\x00\xdb\x00\x00\x00,\x00\x00\x00\xac\x01\x00\x00\xbd\x00\x00\x00s\x01\x00\x00z\x01\x00\x00\x7f\x00\x00\x00\xc7\x01\x00\x00i\x00\x00\x00=\x02\x00\x00\x9c\x00\x00\x00!\x00\x00\x001\x00\x00\x007\x02\x00\x00A\x01\x00\x00X\x01\x00\x00\x04\x00\x00\x00\xed\x00\x00\x00v\x00\x00\x00\xff\x01\x00\x00j\x01\x00\x00\xf5\x00\x00\x00\x01\x00\x00\x00\x8c\x01\x00\x00\x8d\x00\x00\x00\x02\x02\x00\x00\xcf\x00\x00\x003\x01\x00\x00\x81\x00\x00\x00%\x01\x00\x00K\x01\x00\x00\x02\x00\x00\x00\xb9\x01\x00\x00\x80\x00\x00\x00\x86\x00\x00\x00\x8d\x01\x00\x00\'\x02\x00\x00C\x01\x00\x00\xea\x00\x00\x00\r\x01\x00\x00I\x02\x00\x00L\x02\x00\x00\\\x00\x00\x00H\x02\x00\x00O\x02\x00\x00\xca\x01\x00\x00\xe4\x01\x00\x00\xf2\x01\x00\x00\x0f\x02\x00\x00\x1b\x00\x00\x00\xbb\x01\x00\x00u\x01\x00\x00,\x02\x00\x00\xc7\x00\x00\x00+\x02\x00\x00\xc6\x00\x00\x00\xde\x01\x00\x00>\x02\x00\x00o\x00\x00\x001\x02\x00\x00\x1e\x01\x00\x00\x05\x00\x00\x00\x04\x02\x00\x00\xc2\x00\x00\x00\xae\x01\x00\x00{\x00\x00\x00N\x01\x00\x00\xc9\x00\x00\x00\xfb\x00\x00\x00\xcb\x01\x00\x00#\x02\x00\x00*\x00\x00\x00\xa9\x01\x00\x00\xcb\x00\x00\x00.\x02\x00\x00\x1a\x01\x00\x00\xf7\x00\x00\x00]\x01\x00\x00\xda\x01\x00\x00I\x00\x00\x009\x00\x00\x00\xde\x00\x00\x00\xa0\x00\x00\x00\x19\x01\x00\x00 \x02\x00\x00*\x02\x00\x00C\x02\x00\x00\xe9\x01\x00\x00\n\x02\x00\x00\xa7\x00\x00\x00,\x01\x00\x00\xd9\x00\x00\x00\xf2\x00\x00\x00\xf4\x01\x00\x00\xf4\x00\x00\x00\x1e\x02\x00\x00\xbd\x01\x00\x00\xdc\x01\x00\x00b\x01\x00\x00W\x01\x00\x00\x1f\x02\x00\x00\xba\x00\x00\x00.\x00\x00\x00\xc5\x01\x00\x00q\x00\x00\x00C\x00\x00\x00\xd3\x01\x00\x00\xf8\x01\x00\x00\xd9\x01\x00\x00w\x00\x00\x00(\x01\x00\x00\xea\x01\x00\x00\xe3\x01\x00\x00\x11\x01\x00\x00\r\x00\x00\x00k\x00\x00\x00\xf9\x00\x00\x00f\x00\x00\x00=\x01\x00\x00S\x01\x00\x00n\x00\x00\x00\x89\x01\x00\x00;\x01\x00\x008\x01\x00\x00r\x00\x00\x00\x92\x01\x00\x002\x02\x00\x00\xfa\x01\x00\x00\xd6\x01\x00\x00\xca\x00\x00\x00Q\x00\x00\x00G\x00\x00\x00\x0b\x00\x00\x00M\x02\x00\x00&\x02\x00\x00\x03\x01\x00\x00d\x01\x00\x00x\x00\x00\x00g\x00\x00\x00\x08\x02\x00\x00\xa5\x01\x00\x00\x17\x00\x00\x00\x18\x02\x00\x00\xa2\x01\x00\x00\xfb\x01\x00\x00 \x01\x00\x00>\x00\x00\x00\r\x02\x00\x00\xbf\x01\x00\x00G\x02\x00\x00\xcd\x01\x00\x00"\x02\x00\x007\x00\x00\x00\'\x01\x00\x00\x1d\x01\x00\x00\xc8\x00\x00\x00J\x02\x00\x00\t\x01\x00\x007\x01\x00\x00\x12\x01\x00\x00O\x00\x00\x004\x02\x00\x00\xb6\x00\x00\x00\x9c\x01\x00\x00\x8a\x00\x00\x00W\x02\x00\x006\x00\x00\x00\xbf\x00\x00\x00t\x01\x00\x00\xe2\x01\x00\x00\x9d\x00\x00\x008\x00\x00\x00\x1a\x00\x00\x00)\x00\x00\x00y\x00\x00\x00h\x00\x00\x00\x1c\x00\x00\x009\x02\x00\x00e\x00\x00\x003\x02\x00\x00\x97\x01\x00\x00'
tbsg73
I01
sg74
I1
sg75
I-1
sg76
(lp4298
I0
aI1
aI2
aI3
aI4
aI5
aI6
aI7
aI8
aI9
aI10
aI11
aI12
aI13
aI14
aI15
aI16
aI17
aI18
aI19
aI20
aI21
aI22
aI23
aI24
aI25
aI26
aI27
aI28
aI29
aI30
aI31
aI32
aI33
aI34
aI35
aI36
aI37
aI38
aI39
aI40
aI41
aI42
aI43
aI44
aI45
aI46
aI47
aI48
aI49
aI50
aI51
aI52
aI53
aI54
aI55
aI56
aI57
aI58
aI59
aI60
aI61
aI62
aI63
aI64
aI65
aI66
aI67
aI68
aI69
aI70
aI71
aI72
aI73
aI74
aI75
aI76
aI77
aI78
aI79
aI80
aI81
aI82
aI83
aI84
aI85
aI86
aI87
aI88
aI89
aI90
aI91
aI92
aI93
aI94
aI95
aI96
aI97
aI98
aI99
aI100
aI101
aI102
aI103
aI104
aI105
aI106
aI107
aI108
aI109
aI110
aI111
aI112
aI113
aI114
aI115
aI116
aI117
aI118
aI119
aI120
aI121
aI122
aI123
aI124
aI125
aI126
aI127
aI128
aI129
aI130
aI131
aI132
aI133
aI134
aI135
aI136
aI137
aI138
aI139
aI140
aI141
aI142
aI143
aI144
aI145
aI146
aI147
aI148
aI149
aI150
aI151
aI152
aI153
aI154
aI155
aI156
aI157
aI158
aI159
aI160
aI161
aI162
aI163
aI164
aI165
aI166
aI167
aI168
aI169
aI170
aI171
aI172
aI173
aI174
aI175
aI176
aI177
aI178
aI179
aI180
aI181
aI182
aI183
aI184
aI185
aI186
aI187
aI188
aI189
aI190
aI191
aI192
aI193
aI194
aI195
aI196
aI197
aI198
aI199
aI200
aI201
aI202
aI203
aI204
aI205
aI206
aI207
aI208
aI209
aI210
aI211
aI212
aI213
aI214
aI215
aI216
aI217
aI218
aI219
aI220
aI221
aI222
aI223
aI224
aI225
aI226
aI227
aI228
aI229
aI230
aI231
aI232
aI233
aI234
aI235
aI236
aI237
aI238
aI239
aI240
aI241
aI242
aI243
aI244
aI245
aI246
aI247
aI248
aI249
aI250
aI251
aI252
aI253
aI254
aI255
aI256
aI257
aI258
aI259
aI260
aI261
aI262
aI263
aI264
aI265
aI266
aI267
aI268
aI269
aI270
aI271
aI272
aI273
aI274
aI275
aI276
aI277
aI278
aI279
aI280
aI281
aI282
aI283
aI284
aI285
aI286
aI287
aI288
aI289
aI290
aI291
aI292
aI293
aI294
aI295
aI296
aI297
aI298
aI299
aI300
aI301
aI302
aI303
aI304
aI305
aI306
aI307
aI308
aI309
aI310
aI311
aI312
aI313
aI314
aI315
aI316
aI317
aI318
aI319
aI320
aI321
aI322
aI323
aI324
aI325
aI326
aI327
aI328
aI329
aI330
aI331
aI332
aI333
aI334
aI335
aI336
aI337
aI338
aI339
aI340
aI341
aI342
aI343
aI344
aI345
aI346
aI347
aI348
aI349
aI350
aI351
aI352
aI353
aI354
aI355
aI356
aI357
aI358
aI359
aI360
aI361
aI362
aI363
aI364
aI365
aI366
aI367
aI368
aI369
aI370
aI371
aI372
aI373
aI374
aI375
aI376
aI377
aI378
aI379
aI380
aI381
aI382
aI383
aI384
aI385
aI386
aI387
aI388
aI389
aI390
aI391
aI392
aI393
aI394
aI395
aI396
aI397
aI398
aI399
aI400
aI401
aI402
aI403
aI404
aI405
aI406
aI407
aI408
aI409
aI410
aI411
aI412
aI413
aI414
aI415
aI416
aI417
aI418
aI419
aI420
aI421
aI422
aI423
aI424
aI425
aI426
aI427
aI428
aI429
aI430
aI431
aI432
aI433
aI434
aI435
aI436
aI437
aI438
aI439
aI440
aI441
aI442
aI443
aI444
aI445
aI446
aI447
aI448
aI449
aI450
aI451
aI452
aI453
aI454
aI455
aI456
aI457
aI458
aI459
aI460
aI461
aI462
aI463
aI464
aI465
aI466
aI467
aI468
aI469
aI470
aI471
aI472
aI473
aI474
aI475
aI476
aI477
aI478
aI479
aI480
aI481
aI482
aI483
aI484
aI485
aI486
aI487
aI488
aI489
aI490
aI491
aI492
aI493
aI494
aI495
aI496
aI497
aI498
aI499
aI500
aI501
aI502
aI503
aI504
aI505
aI506
aI507
aI508
aI509
aI510
aI511
aI512
aI513
aI514
aI515
aI516
aI517
aI518
aI519
aI520
aI521
aI522
aI523
aI524
aI525
aI526
aI527
aI528
aI529
aI530
aI531
aI532
aI533
aI534
aI535
aI536
aI537
aI538
aI539
aI540
aI541
aI542
aI543
aI544
aI545
aI546
aI547
aI548
aI549
aI550
aI551
aI552
aI553
aI554
aI555
aI556
aI557
aI558
aI559
aI560
aI561
aI562
aI563
aI564
aI565
aI566
aI567
aI568
aI569
aI570
aI571
aI572
aI573
aI574
aI575
aI576
aI577
aI578
aI579
aI580
aI581
aI582
aI583
aI584
aI585
aI586
aI587
aI588
aI589
aI590
aI591
aI592
aI593
aI594
aI595
aI596
aI597
aI598
aI599
asg78
Nsg79
cnumpy.core.multiarray
scalar
p4299
(g4297
S'\x97\x01\x00\x00'
tRp4300
sg80
I600
sg81
I0
sg82
I600
sg83
I01
sbag36
asS'savePickle'
p4301
I00
sb.