ccopy_reg
_reconstructor
p1
(cpsychopy.data
ExperimentHandler
p2
c__builtin__
object
p3
NtRp4
(dp5
S'originPath'
p6
NsS'dataFileName'
p7
Vsubject658
p8
sS'runtimeInfo'
p9
NsS'name'
p10
VVERBALRBsubject 658
p11
sS'dataNames'
p12
(lp13
S'Block Number'
p14
aS'Key pressed'
p15
aS'Category'
p16
aS'Correct?'
p17
aS'Int Match?'
p18
aS'Int Response'
p19
aS'Int Correct?'
p20
aS'Line Accuracy'
p21
aS'Interference Accuracy'
p22
aS'Matching Interferences'
p23
aS'New instruction shown?'
p24
aS'Buttons switched?'
p25
aS'Fast?'
p26
asS'autoLog'
p27
I01
sS'extraInfo'
p28
(dp29
S'gender'
p30
VF
sS'age'
p31
V25
p32
ssS'loopsUnfinished'
p33
(lp34
g1
(cpsychopy.data
TrialHandler
p35
g3
NtRp36
(dp37
S'origin'
p38
NsS'thisTrial'
p39
I4
sS'_exp'
p40
I76107920
sg10
S''
sg6
S'C:\\Users\\Mike\\Desktop\\Dual2\\NEWVerbalRB.py'
p41
sS'thisRepN'
p42
I54
sg27
I01
sg28
NsS'data'
p43
g1
(cpsychopy.data
DataHandler
p44
c__builtin__
dict
p45
(dp46
S'ran'
p47
cnumpy.ma.core
_mareconstruct
p48
(cnumpy.ma.core
MaskedArray
p49
cnumpy
ndarray
p50
(I0
tp51
S'b'
tRp52
(I1
(I11
I55
tcnumpy
dtype
p53
(S'f4'
I0
I1
tRp54
(I3
S'<'
NNNI-1
I-1
I0
tbI00
S'\x00\x00\x80?\x00\x00\x80?\x00\x00\x80?\x00\x00\x80?\x00\x00\x80?\x00\x00\x80?\x00\x00\x80?\x00\x00\x80?\x00\x00\x80?\x00\x00\x80?\x00\x00\x80?\x00\x00\x80?\x00\x00\x80?\x00\x00\x80?\x00\x00\x80?\x00\x00\x80?\x00\x00\x80?\x00\x00\x80?\x00\x00\x80?\x00\x00\x80?\x00\x00\x80?\x00\x00\x80?\x00\x00\x80?\x00\x00\x80?\x00\x00\x80?\x00\x00\x80?\x00\x00\x80?\x00\x00\x80?\x00\x00\x80?\x00\x00\x80?\x00\x00\x80?\x00\x00\x80?\x00\x00\x80?\x00\x00\x80?\x00\x00\x80?\x00\x00\x80?\x00\x00\x80?\x00\x00\x80?\x00\x00\x80?\x00\x00\x80?\x00\x00\x80?\x00\x00\x80?\x00\x00\x80?\x00\x00\x80?\x00\x00\x80?\x00\x00\x80?\x00\x00\x80?\x00\x00\x80?\x00\x00\x80?\x00\x00\x80?\x00\x00\x80?\x00\x00\x80?\x00\x00\x80?\x00\x00\x80?\x00\x00\x80?\x00\x00\x80?\x00\x00\x80?\x00\x00\x80?\x00\x00\x80?\x00\x00\x80?\x00\x00\x80?\x00\x00\x80?\x00\x00\x80?\x00\x00\x80?\x00\x00\x80?\x00\x00\x80?\x00\x00\x80?\x00\x00\x80?\x00\x00\x80?\x00\x00\x80?\x00\x00\x80?\x00\x00\x80?\x00\x00\x80?\x00\x00\x80?\x00\x00\x80?\x00\x00\x80?\x00\x00\x80?\x00\x00\x80?\x00\x00\x80?\x00\x00\x80?\x00\x00\x80?\x00\x00\x80?\x00\x00\x80?\x00\x00\x80?\x00\x00\x80?\x00\x00\x80?\x00\x00\x80?\x00\x00\x80?\x00\x00\x80?\x00\x00\x80?\x00\x00\x80?\x00\x00\x80?\x00\x00\x80?\x00\x00\x80?\x00\x00\x80?\x00\x00\x80?\x00\x00\x80?\x00\x00\x80?\x00\x00\x80?\x00\x00\x80?\x00\x00\x80?\x00\x00\x80?\x00\x00\x80?\x00\x00\x80?\x00\x00\x80?\x00\x00\x80?\x00\x00\x80?\x00\x00\x80?\x00\x00\x80?\x00\x00\x00\x00\x00\x00\x80?\x00\x00\x80?\x00\x00\x80?\x00\x00\x80?\x00\x00\x80?\x00\x00\x80?\x00\x00\x80?\x00\x00\x80?\x00\x00\x80?\x00\x00\x80?\x00\x00\x80?\x00\x00\x80?\x00\x00\x80?\x00\x00\x80?\x00\x00\x80?\x00\x00\x80?\x00\x00\x80?\x00\x00\x80?\x00\x00\x80?\x00\x00\x80?\x00\x00\x80?\x00\x00\x80?\x00\x00\x80?\x00\x00\x80?\x00\x00\x80?\x00\x00\x80?\x00\x00\x80?\x00\x00\x80?\x00\x00\x80?\x00\x00\x80?\x00\x00\x80?\x00\x00\x80?\x00\x00\x80?\x00\x00\x80?\x00\x00\x80?\x00\x00\x80?\x00\x00\x80?\x00\x00\x80?\x00\x00\x80?\x00\x00\x80?\x00\x00\x80?\x00\x00\x80?\x00\x00\x80?\x00\x00\x80?\x00\x00\x80?\x00\x00\x80?\x00\x00\x80?\x00\x00\x80?\x00\x00\x80?\x00\x00\x80?\x00\x00\x80?\x00\x00\x80?\x00\x00\x80?\x00\x00\x80?\x00\x00\x00\x00\x00\x00\x80?\x00\x00\x80?\x00\x00\x80?\x00\x00\x80?\x00\x00\x80?\x00\x00\x80?\x00\x00\x80?\x00\x00\x80?\x00\x00\x80?\x00\x00\x80?\x00\x00\x80?\x00\x00\x80?\x00\x00\x80?\x00\x00\x80?\x00\x00\x80?\x00\x00\x80?\x00\x00\x80?\x00\x00\x80?\x00\x00\x80?\x00\x00\x80?\x00\x00\x80?\x00\x00\x80?\x00\x00\x80?\x00\x00\x80?\x00\x00\x80?\x00\x00\x80?\x00\x00\x80?\x00\x00\x80?\x00\x00\x80?\x00\x00\x80?\x00\x00\x80?\x00\x00\x80?\x00\x00\x80?\x00\x00\x80?\x00\x00\x80?\x00\x00\x80?\x00\x00\x80?\x00\x00\x80?\x00\x00\x80?\x00\x00\x80?\x00\x00\x80?\x00\x00\x80?\x00\x00\x80?\x00\x00\x80?\x00\x00\x80?\x00\x00\x80?\x00\x00\x80?\x00\x00\x80?\x00\x00\x80?\x00\x00\x80?\x00\x00\x80?\x00\x00\x80?\x00\x00\x80?\x00\x00\x80?\x00\x00\x80?\x00\x00\x80?\x00\x00\x80?\x00\x00\x80?\x00\x00\x80?\x00\x00\x80?\x00\x00\x80?\x00\x00\x80?\x00\x00\x80?\x00\x00\x80?\x00\x00\x80?\x00\x00\x80?\x00\x00\x80?\x00\x00\x80?\x00\x00\x80?\x00\x00\x80?\x00\x00\x80?\x00\x00\x80?\x00\x00\x80?\x00\x00\x80?\x00\x00\x80?\x00\x00\x80?\x00\x00\x80?\x00\x00\x80?\x00\x00\x80?\x00\x00\x80?\x00\x00\x80?\x00\x00\x80?\x00\x00\x80?\x00\x00\x80?\x00\x00\x80?\x00\x00\x80?\x00\x00\x80?\x00\x00\x80?\x00\x00\x80?\x00\x00\x80?\x00\x00\x80?\x00\x00\x80?\x00\x00\x80?\x00\x00\x80?\x00\x00\x80?\x00\x00\x80?\x00\x00\x80?\x00\x00\x80?\x00\x00\x80?\x00\x00\x80?\x00\x00\x80?\x00\x00\x80?\x00\x00\x80?\x00\x00\x80?\x00\x00\x80?\x00\x00\x80?\x00\x00\x80?\x00\x00\x80?\x00\x00\x00\x00\x00\x00\x00\x00\x00\x00\x80?\x00\x00\x80?\x00\x00\x80?\x00\x00\x80?\x00\x00\x80?\x00\x00\x80?\x00\x00\x80?\x00\x00\x80?\x00\x00\x80?\x00\x00\x80?\x00\x00\x80?\x00\x00\x80?\x00\x00\x80?\x00\x00\x80?\x00\x00\x80?\x00\x00\x80?\x00\x00\x80?\x00\x00\x80?\x00\x00\x80?\x00\x00\x80?\x00\x00\x80?\x00\x00\x80?\x00\x00\x80?\x00\x00\x80?\x00\x00\x80?\x00\x00\x80?\x00\x00\x80?\x00\x00\x80?\x00\x00\x80?\x00\x00\x80?\x00\x00\x80?\x00\x00\x80?\x00\x00\x80?\x00\x00\x80?\x00\x00\x80?\x00\x00\x80?\x00\x00\x80?\x00\x00\x80?\x00\x00\x80?\x00\x00\x80?\x00\x00\x80?\x00\x00\x80?\x00\x00\x80?\x00\x00\x80?\x00\x00\x80?\x00\x00\x80?\x00\x00\x80?\x00\x00\x80?\x00\x00\x80?\x00\x00\x80?\x00\x00\x80?\x00\x00\x80?\x00\x00\x80?\x00\x00\x80?\x00\x00\x80?\x00\x00\x80?\x00\x00\x80?\x00\x00\x80?\x00\x00\x80?\x00\x00\x80?\x00\x00\x80?\x00\x00\x80?\x00\x00\x80?\x00\x00\x80?\x00\x00\x80?\x00\x00\x80?\x00\x00\x80?\x00\x00\x80?\x00\x00\x80?\x00\x00\x80?\x00\x00\x80?\x00\x00\x80?\x00\x00\x80?\x00\x00\x80?\x00\x00\x80?\x00\x00\x80?\x00\x00\x80?\x00\x00\x80?\x00\x00\x80?\x00\x00\x80?\x00\x00\x80?\x00\x00\x80?\x00\x00\x80?\x00\x00\x80?\x00\x00\x80?\x00\x00\x80?\x00\x00\x80?\x00\x00\x80?\x00\x00\x80?\x00\x00\x80?\x00\x00\x80?\x00\x00\x80?\x00\x00\x80?\x00\x00\x80?\x00\x00\x80?\x00\x00\x80?\x00\x00\x80?\x00\x00\x80?\x00\x00\x80?\x00\x00\x80?\x00\x00\x80?\x00\x00\x80?\x00\x00\x80?\x00\x00\x80?\x00\x00\x80?\x00\x00\x80?\x00\x00\x80?\x00\x00\x80?\x00\x00\x80?\x00\x00\x80?\x00\x00\x80?\x00\x00\x80?\x00\x00\x80?\x00\x00\x80?\x00\x00\x80?\x00\x00\x80?\x00\x00\x80?\x00\x00\x80?\x00\x00\x80?\x00\x00\x80?\x00\x00\x80?\x00\x00\x80?\x00\x00\x80?\x00\x00\x80?\x00\x00\x80?\x00\x00\x80?\x00\x00\x80?\x00\x00\x80?\x00\x00\x80?\x00\x00\x80?\x00\x00\x80?\x00\x00\x80?\x00\x00\x80?\x00\x00\x80?\x00\x00\x80?\x00\x00\x80?\x00\x00\x80?\x00\x00\x80?\x00\x00\x80?\x00\x00\x80?\x00\x00\x80?\x00\x00\x80?\x00\x00\x80?\x00\x00\x80?\x00\x00\x80?\x00\x00\x80?\x00\x00\x80?\x00\x00\x80?\x00\x00\x80?\x00\x00\x80?\x00\x00\x80?\x00\x00\x80?\x00\x00\x80?\x00\x00\x80?\x00\x00\x80?\x00\x00\x80?\x00\x00\x80?\x00\x00\x80?\x00\x00\x80?\x00\x00\x80?\x00\x00\x80?\x00\x00\x80?\x00\x00\x80?\x00\x00\x80?\x00\x00\x00\x00\x00\x00\x80?\x00\x00\x80?\x00\x00\x80?\x00\x00\x80?\x00\x00\x80?\x00\x00\x80?\x00\x00\x80?\x00\x00\x80?\x00\x00\x80?\x00\x00\x80?\x00\x00\x80?\x00\x00\x80?\x00\x00\x80?\x00\x00\x80?\x00\x00\x80?\x00\x00\x80?\x00\x00\x80?\x00\x00\x80?\x00\x00\x80?\x00\x00\x80?\x00\x00\x80?\x00\x00\x80?\x00\x00\x80?\x00\x00\x80?\x00\x00\x80?\x00\x00\x80?\x00\x00\x80?\x00\x00\x80?\x00\x00\x80?\x00\x00\x80?\x00\x00\x80?\x00\x00\x80?\x00\x00\x80?\x00\x00\x80?\x00\x00\x80?\x00\x00\x80?\x00\x00\x80?\x00\x00\x80?\x00\x00\x80?\x00\x00\x80?\x00\x00\x80?\x00\x00\x80?\x00\x00\x80?\x00\x00\x80?\x00\x00\x80?\x00\x00\x80?\x00\x00\x80?\x00\x00\x80?\x00\x00\x80?\x00\x00\x80?\x00\x00\x80?\x00\x00\x80?\x00\x00\x80?\x00\x00\x80?\x00\x00\x80?\x00\x00\x80?\x00\x00\x80?\x00\x00\x80?\x00\x00\x80?\x00\x00\x80?\x00\x00\x80?\x00\x00\x80?\x00\x00\x80?\x00\x00\x80?\x00\x00\x80?\x00\x00\x80?\x00\x00\x80?\x00\x00\x80?\x00\x00\x80?\x00\x00\x80?\x00\x00\x80?\x00\x00\x80?\x00\x00\x80?\x00\x00\x80?\x00\x00\x80?\x00\x00\x80?\x00\x00\x80?\x00\x00\x80?\x00\x00\x80?\x00\x00\x80?\x00\x00\x80?\x00\x00\x80?\x00\x00\x80?\x00\x00\x80?\x00\x00\x80?\x00\x00\x80?\x00\x00\x80?\x00\x00\x80?\x00\x00\x80?\x00\x00\x80?\x00\x00\x80?\x00\x00\x80?\x00\x00\x80?\x00\x00\x80?\x00\x00\x80?\x00\x00\x80?\x00\x00\x80?\x00\x00\x80?\x00\x00\x80?\x00\x00\x80?\x00\x00\x80?\x00\x00\x80?\x00\x00\x80?\x00\x00\x80?\x00\x00\x80?\x00\x00\x80?\x00\x00\x80?\x00\x00\x80?\x00\x00\x80?\x00\x00\x80?\x00\x00\x80?\x00\x00\x80?\x00\x00\x80?\x00\x00\x80?\x00\x00\x80?\x00\x00\x80?\x00\x00\x80?\x00\x00\x80?\x00\x00\x80?\x00\x00\x80?\x00\x00\x80?\x00\x00\x80?\x00\x00\x80?\x00\x00\x80?\x00\x00\x80?\x00\x00\x80?\x00\x00\x80?\x00\x00\x80?\x00\x00\x80?\x00\x00\x80?\x00\x00\x80?\x00\x00\x80?\x00\x00\x80?\x00\x00\x80?\x00\x00\x80?\x00\x00\x80?\x00\x00\x80?\x00\x00\x80?\x00\x00\x80?\x00\x00\x80?\x00\x00\x80?\x00\x00\x80?\x00\x00\x80?\x00\x00\x80?\x00\x00\x80?\x00\x00\x80?\x00\x00\x80?\x00\x00\x80?\x00\x00\x80?\x00\x00\x80?\x00\x00\x80?\x00\x00\x80?\x00\x00\x80?\x00\x00\x80?\x00\x00\x80?\x00\x00\x80?\x00\x00\x80?\x00\x00\x80?\x00\x00\x80?\x00\x00\x80?\x00\x00\x80?\x00\x00\x80?\x00\x00\x80?\x00\x00\x80?\x00\x00\x80?'
S'\x00\x00\x00\x00\x00\x00\x00\x00\x00\x00\x00\x00\x00\x00\x00\x00\x00\x00\x00\x00\x00\x00\x00\x00\x00\x00\x00\x00\x00\x00\x00\x00\x00\x00\x00\x00\x00\x00\x00\x00\x00\x00\x00\x00\x00\x00\x00\x00\x00\x00\x00\x00\x00\x00\x00\x00\x00\x00\x00\x00\x00\x00\x00\x00\x00\x00\x00\x00\x00\x00\x00\x00\x00\x00\x00\x00\x00\x00\x00\x00\x00\x00\x00\x00\x00\x00\x00\x00\x00\x00\x00\x00\x00\x00\x00\x00\x00\x00\x00\x00\x00\x00\x00\x00\x00\x00\x00\x00\x00\x00\x00\x00\x00\x00\x00\x00\x00\x00\x00\x00\x00\x00\x00\x00\x00\x00\x00\x00\x00\x00\x00\x00\x00\x00\x00\x00\x00\x00\x00\x00\x00\x00\x00\x00\x00\x00\x00\x00\x00\x00\x00\x00\x00\x00\x00\x00\x00\x00\x00\x00\x00\x00\x00\x00\x00\x00\x00\x00\x00\x00\x00\x00\x00\x00\x00\x00\x00\x00\x00\x00\x00\x00\x00\x00\x00\x00\x00\x00\x00\x00\x00\x00\x00\x00\x00\x00\x00\x00\x00\x00\x00\x00\x00\x00\x00\x00\x00\x00\x00\x00\x00\x00\x00\x00\x00\x00\x00\x00\x00\x00\x00\x00\x00\x00\x00\x00\x00\x00\x00\x00\x00\x00\x00\x00\x00\x00\x00\x00\x00\x00\x00\x00\x00\x00\x00\x00\x00\x00\x00\x00\x00\x00\x00\x00\x00\x00\x00\x00\x00\x00\x00\x00\x00\x00\x00\x00\x00\x00\x00\x00\x00\x00\x00\x00\x00\x00\x00\x00\x00\x00\x00\x00\x00\x00\x00\x00\x00\x00\x00\x00\x00\x00\x00\x00\x00\x00\x00\x00\x00\x00\x00\x00\x00\x00\x00\x00\x00\x00\x00\x00\x00\x00\x00\x00\x00\x00\x00\x00\x00\x00\x00\x00\x00\x00\x00\x00\x00\x00\x00\x00\x00\x00\x00\x00\x00\x00\x00\x00\x00\x00\x00\x00\x00\x00\x00\x00\x00\x00\x00\x00\x00\x00\x00\x00\x00\x00\x00\x00\x00\x00\x00\x00\x00\x00\x00\x00\x00\x00\x00\x00\x00\x00\x00\x00\x00\x00\x00\x00\x00\x00\x00\x00\x00\x00\x00\x00\x00\x00\x00\x00\x00\x00\x00\x00\x00\x00\x00\x00\x00\x00\x00\x00\x00\x00\x00\x00\x00\x00\x00\x00\x00\x00\x00\x00\x00\x00\x00\x00\x00\x00\x00\x00\x00\x00\x00\x00\x00\x00\x00\x00\x00\x00\x00\x00\x00\x00\x00\x00\x00\x00\x00\x00\x00\x00\x00\x00\x00\x00\x00\x00\x00\x00\x00\x00\x00\x00\x00\x00\x00\x00\x00\x00\x00\x00\x00\x00\x00\x00\x00\x00\x00\x00\x00\x00\x00\x00\x00\x00\x00\x00\x00\x00\x00\x00\x00\x00\x00\x00\x00\x00\x00\x00\x00\x00\x00\x00\x00\x00\x00\x00\x00\x00\x00\x00\x00\x00\x00\x00\x00\x00\x00\x00\x00\x00\x00\x00\x00\x00\x00\x00\x00\x00\x00\x00\x00\x00\x00\x00\x00\x00\x00\x00\x00\x00\x00\x00\x00\x00\x00\x00\x00\x00\x00\x00\x00\x00\x00\x00\x00\x00\x00\x00\x00\x00\x00\x00\x00\x00\x00\x00\x00\x00\x00\x00\x00\x00\x00\x00\x00\x00\x00\x00\x00\x00\x00\x00\x00\x00\x00\x00\x00\x00\x00\x00\x00\x00\x00\x00\x00\x00\x00\x00\x00\x00\x00\x00\x00\x00\x00\x00\x00\x00\x00\x00\x00'
NtbsS'order'
p55
g48
(g49
g50
g51
S'b'
tRp56
(I1
(I11
I55
tg54
I00
S'\x00\x00\x10A\x00\x00PA\x00\x00\xa0A\x00\x00\xb8A\x00\x00\xc0A\x00\x00<B\x00\x00\x8eB\x00\x00\xa8B\x00\x00\xbeB\x00\x00\xc2B\x00\x00\xceB\x00\x00\xe6B\x00\x00\x00C\x00\x00\x14C\x00\x00\x1aC\x00\x00\x1cC\x00\x00\x1eC\x00\x00"C\x00\x00*C\x00\x001C\x00\x008C\x00\x00PC\x00\x00^C\x00\x00hC\x00\x00iC\x00\x00\x80C\x00\x80\x95C\x00\x80\x96C\x00\x00\x9cC\x00\x80\xa2C\x00\x00\xa6C\x00\x00\xabC\x00\x80\xb0C\x00\x00\xb8C\x00\x80\xbcC\x00\x80\xbeC\x00\x80\xc5C\x00\x00\xc9C\x00\x80\xc9C\x00\x80\xceC\x00\x80\xd0C\x00\x00\xd2C\x00\x00\xd5C\x00\x00\xdaC\x00\x00\xdfC\x00\x00\xe0C\x00\x00\xf6C\x00\x80\xf9C\x00\xc0\x04D\x00\xc0\x07D\x00\x80\x0eD\x00\x00\x10D\x00\xc0\x10D\x00@\x12D\x00\xc0\x14D\x00\x00\x00@\x00\x00\xc0@\x00\x00\x04B\x00\x00\x0cB\x00\x00hB\x00\x00\x86B\x00\x00\x90B\x00\x00\xbcB\x00\x00\xcaB\x00\x00\xf2B\x00\x00\xfcB\x00\x00\x04C\x00\x000C\x00\x00<C\x00\x00=C\x00\x00BC\x00\x00IC\x00\x00\\C\x00\x00]C\x00\x00_C\x00\x00yC\x00\x00|C\x00\x00\x86C\x00\x00\x88C\x00\x80\x8aC\x00\x80\x90C\x00\x80\x92C\x00\x00\x96C\x00\x00\x97C\x00\x00\x9bC\x00\x80\xa6C\x00\x00\xadC\x00\x00\xafC\x00\x80\xb4C\x00\x80\xb8C\x00\x80\xc1C\x00\x00\xc2C\x00\x00\xc4C\x00\x80\xc7C\x00\x00\xcdC\x00\x80\xd2C\x00\x80\xdcC\x00\x80\xe0C\x00\x00\xe2C\x00\x80\xe4C\x00\x00\xf5C\x00\x80\xf5C\x00\x00\xf9C\x00\x00\xfaC\x00\x80\xfbC\x00\x80\tD\x00\xc0\tD\x00\x00\x12D\x00\x80\x12D\x00\x00\x00\x00\x00\x00\x80A\x00\x00\xa8A\x00\x00\xd0A\x00\x00\x9aB\x00\x00\xa0B\x00\x00\xdcB\x00\x00\xe0B\x00\x00\xeeB\x00\x00\xf0B\x00\x00\xf8B\x00\x00\xfaB\x00\x00\x03C\x00\x00\x05C\x00\x00\x11C\x00\x00\x13C\x00\x00\x19C\x00\x00\x1dC\x00\x00\x1fC\x00\x00EC\x00\x00JC\x00\x00\x84C\x00\x00\x98C\x00\x00\x9aC\x00\x80\xa0C\x00\x00\xa2C\x00\x80\xa3C\x00\x80\xa7C\x00\x00\xb5C\x00\x00\xb6C\x00\x00\xbeC\x00\x00\xc8C\x00\x80\xcfC\x00\x80\xd3C\x00\x00\xd4C\x00\x00\xd6C\x00\x00\xd7C\x00\x00\xdbC\x00\x00\xddC\x00\x00\xdeC\x00\x00\xe4C\x00\x00\xe7C\x00\x80\xeaC\x00\x80\xf3C\x00\x80\xf7C\x00\xc0\x00D\x00@\x02D\x00\x80\x02D\x00\xc0\x03D\x00\x80\nD\x00\xc0\x0bD\x00\x80\x0cD\x00\xc0\rD\x00\x00\x0eD\x00\xc0\x13D\x00\x00\x00\x00\x00\x00 A\x00\x00\x98A\x00\x00\xf0A\x00\x00(B\x00\x00,B\x00\x00\xa2B\x00\x00\xaeB\x00\x00\xbaB\x00\x00\xc8B\x00\x00\xd0B\x00\x00\xe8B\x00\x00\xf4B\x00\x00\xf6B\x00\x00AC\x00\x00HC\x00\x00[C\x00\x00lC\x00\x00mC\x00\x00~C\x00\x80\x86C\x00\x80\x89C\x00\x00\x8dC\x00\x80\x8fC\x00\x00\x90C\x00\x00\x92C\x00\x80\x98C\x00\x00\x99C\x00\x00\x9dC\x00\x80\x9eC\x00\x00\x9fC\x00\x80\xa4C\x00\x80\xa5C\x00\x80\xb5C\x00\x80\xb6C\x00\x80\xbaC\x00\x80\xbfC\x00\x00\xc6C\x00\x80\xd6C\x00\x80\xdbC\x00\x80\xe1C\x00\x00\xe3C\x00\x00\xe8C\x00\x00\xeaC\x00\x80\xeeC\x00\x80\xf2C\x00\x00\xfbC\x00\x00\xfdC\x00\x80\xfeC\x00@\x00D\x00\x00\x01D\x00\x80\x04D\x00@\x0cD\x00\xc0\x0cD\x00@\x0eD\x00\xc0\x12D\x00\x00\x80?\x00\x00`A\x00\x00\x88A\x00\x00\x90A\x00\x00\xd8A\x00\x00\xe8A\x00\x00\xf8A\x00\x00\x10B\x00\x008B\x00\x00TB\x00\x00lB\x00\x00pB\x00\x00\xe4B\x00\x00\x16C\x00\x00%C\x00\x00,C\x00\x00:C\x00\x00GC\x00\x00KC\x00\x00WC\x00\x00dC\x00\x00kC\x00\x00tC\x00\x00}C\x00\x00\xa8C\x00\x00\xa9C\x00\x00\xb1C\x00\x80\xb7C\x00\x80\xb9C\x00\x00\xbbC\x00\x00\xbcC\x00\x80\xbdC\x00\x00\xc0C\x00\x80\xc2C\x00\x00\xcbC\x00\x00\xccC\x00\x80\xccC\x00\x00\xcfC\x00\x00\xd3C\x00\x80\xddC\x00\x00\xe1C\x00\x80\xe2C\x00\x80\xe5C\x00\x80\xf1C\x00\x80\xffC\x00\xc0\x01D\x00\x00\x05D\x00@\x05D\x00\x80\x06D\x00\xc0\x06D\x00\x80\x14D\x00\x80\x15D\x00\xc0\x15D\x00\x00\x00\x00\x00\x00\x00\x00\x00\x00\x80@\x00\x00\xa0@\x00\x00\x18B\x00\x00@B\x00\x00DB\x00\x00\\B\x00\x00\x80B\x00\x00\x92B\x00\x00\x94B\x00\x00\xb2B\x00\x00\xb4B\x00\x00\xd2B\x00\x00\xd6B\x00\x00\xecB\x00\x00\x01C\x00\x00\x0eC\x00\x00\x10C\x00\x00\x15C\x00\x00+C\x00\x00-C\x00\x00/C\x00\x004C\x00\x009C\x00\x00DC\x00\x00QC\x00\x00UC\x00\x00`C\x00\x00gC\x00\x80\x80C\x00\x00\x81C\x00\x80\x85C\x00\x00\x8bC\x00\x00\x8fC\x00\x00\x91C\x00\x80\x93C\x00\x80\x97C\x00\x80\x9bC\x00\x80\xadC\x00\x00\xb3C\x00\x80\xc4C\x00\x00\xc5C\x00\x00\xc7C\x00\x80\xd4C\x00\x80\xd5C\x00\x00\xf1C\x00\x80\xf6C\x00\x80\x00D\x00\x80\x03D\x00\xc0\x05D\x00@\x0bD\x00@\x10D\x00\x80\x10D\x00@\x11D\x00\x80\x13D\x00@\x14D\x00\x00@A\x00\x00pA\x00\x00\xc8A\x00\x00\x00B\x00\x00$B\x00\x000B\x00\x004B\x00\x00LB\x00\x00\xb6B\x00\x00\xdeB\x00\x00\xfeB\x00\x00\x12C\x00\x00\x17C\x00\x00\x18C\x00\x00&C\x00\x00.C\x00\x00;C\x00\x00FC\x00\x00YC\x00\x00ZC\x00\x00aC\x00\x00cC\x00\x00jC\x00\x00nC\x00\x00pC\x00\x00vC\x00\x00xC\x00\x00\x7fC\x00\x80\x83C\x00\x80\x8bC\x00\x00\x93C\x00\x00\x9eC\x00\x00\xa0C\x00\x00\xa7C\x00\x80\xaeC\x00\x00\xb4C\x00\x80\xcbC\x00\x00\xd9C\x00\x80\xdfC\x00\x00\xe5C\x00\x00\xefC\x00\x80\xf4C\x00\x80\xfcC\x00\x00\x00D\x00\x00\x04D\x00@\x04D\x00\x80\x05D\x00@\x08D\x00\x00\tD\x00\x80\x0bD\x00\x80\rD\x00\x00\x11D\x00\x80\x11D\x00\xc0\x11D\x00\x00\x15D\x00\x00\x14B\x00\x00 B\x00\x00dB\x00\x00\x9cB\x00\x00\xaaB\x00\x00\xacB\x00\x00\xc4B\x00\x00\xd4B\x00\x00\xd8B\x00\x00\xdaB\x00\x00\xe2B\x00\x00\x06C\x00\x00\tC\x00\x00\x0fC\x00\x00(C\x00\x002C\x00\x007C\x00\x00LC\x00\x00NC\x00\x00OC\x00\x00TC\x00\x00wC\x00\x80\x82C\x00\x00\x87C\x00\x00\x89C\x00\x80\x91C\x00\x80\x9cC\x00\x80\x9fC\x00\x80\xaaC\x00\x00\xacC\x00\x80\xb1C\x00\x00\xb2C\x00\x00\xb9C\x00\x80\xbbC\x00\x00\xbfC\x00\x80\xc3C\x00\x80\xe8C\x00\x00\xe9C\x00\x80\xe9C\x00\x80\xebC\x00\x00\xecC\x00\x00\xf2C\x00\x00\xf7C\x00\x00\xffC\x00@\x03D\x00\x00\x06D\x00\x00\x07D\x00\x80\x07D\x00\x00\x08D\x00\xc0\x08D\x00@\rD\x00\x00\x0fD\x00@\x0fD\x00@\x15D\x00\x00\x00\x00\x00\x00@@\x00\x00\xe0@\x00\x000A\x00\x00HB\x00\x00PB\x00\x00`B\x00\x00xB\x00\x00\x82B\x00\x00\x84B\x00\x00\x88B\x00\x00\x8cB\x00\x00\x98B\x00\x00\xa4B\x00\x00\xb0B\x00\x00\xccB\x00\x00\x02C\x00\x00\x0bC\x00\x00\x0cC\x00\x00 C\x00\x00)C\x00\x003C\x00\x00RC\x00\x00SC\x00\x00eC\x00\x80\x81C\x00\x00\x83C\x00\x80\x84C\x00\x00\x85C\x00\x80\x87C\x00\x80\x8dC\x00\x00\x8eC\x00\x80\x8eC\x00\x80\x9aC\x00\x80\x9dC\x00\x80\xa1C\x00\x00\xb7C\x00\x00\xbaC\x00\x00\xbdC\x00\x00\xcaC\x00\x80\xcdC\x00\x00\xceC\x00\x80\xd8C\x00\x80\xdaC\x00\x80\xe6C\x00\x00\xedC\x00\x80\xefC\x00\x00\xf8C\x00\x00\xfcC\x00\x80\x01D\x00\xc0\x02D\x00@\nD\x00\x00\x0bD\x00\x00\rD\x00\xc0\x0eD\x00\xc0\x0fD\x00\x00\x00A\x00\x00\xb0A\x00\x00\x08B\x00\x00XB\x00\x00|B\x00\x00\x8aB\x00\x00\xc0B\x00\x00\xc6B\x00\x00\xeaB\x00\x00\x07C\x00\x00\x08C\x00\x00\nC\x00\x00\rC\x00\x00\x1bC\x00\x00\'C\x00\x005C\x00\x00>C\x00\x00?C\x00\x00MC\x00\x00bC\x00\x00qC\x00\x00rC\x00\x00uC\x00\x00{C\x00\x00\x8aC\x00\x00\x8cC\x00\x80\x8cC\x00\x00\x94C\x00\x80\x99C\x00\x00\xa1C\x00\x00\xa3C\x00\x00\xaaC\x00\x00\xb0C\x00\x80\xb3C\x00\x80\xc0C\x00\x80\xc6C\x00\x80\xc8C\x00\x00\xd0C\x00\x00\xd1C\x00\x80\xd1C\x00\x80\xd7C\x00\x80\xd9C\x00\x80\xdeC\x00\x00\xe6C\x00\x00\xebC\x00\x80\xedC\x00\x80\xf0C\x00\x00\xf3C\x00\x00\xf4C\x00\x80\xf8C\x00\x80\xfaC\x00\x80\x08D\x00@\tD\x00\x80\x0fD\x00\x00\x13D\x00\x00\x00\x00\x00\x00\xe0A\x00\x00\x1cB\x00\x00tB\x00\x00\x96B\x00\x00\x9eB\x00\x00\xa6B\x00\x00\xb8B\x00\x00!C\x00\x00#C\x00\x00$C\x00\x006C\x00\x00@C\x00\x00CC\x00\x00VC\x00\x00XC\x00\x00fC\x00\x00oC\x00\x00sC\x00\x00zC\x00\x00\x82C\x00\x80\x88C\x00\x80\x94C\x00\x00\x95C\x00\x00\xa4C\x00\x00\xa5C\x00\x80\xa8C\x00\x80\xa9C\x00\x80\xabC\x00\x80\xacC\x00\x00\xaeC\x00\x80\xafC\x00\x80\xb2C\x00\x00\xc1C\x00\x00\xc3C\x00\x80\xcaC\x00\x00\xd8C\x00\x00\xdcC\x00\x80\xe3C\x00\x80\xe7C\x00\x80\xecC\x00\x00\xeeC\x00\x00\xf0C\x00\x80\xfdC\x00\x00\xfeC\x00@\x01D\x00\x00\x02D\x00\x00\x03D\x00@\x06D\x00@\x07D\x00\x00\nD\x00\xc0\nD\x00\x00\x0cD\x00@\x13D\x00\x00\x14D'
S'\x00\x00\x00\x00\x00\x00\x00\x00\x00\x00\x00\x00\x00\x00\x00\x00\x00\x00\x00\x00\x00\x00\x00\x00\x00\x00\x00\x00\x00\x00\x00\x00\x00\x00\x00\x00\x00\x00\x00\x00\x00\x00\x00\x00\x00\x00\x00\x00\x00\x00\x00\x00\x00\x00\x00\x00\x00\x00\x00\x00\x00\x00\x00\x00\x00\x00\x00\x00\x00\x00\x00\x00\x00\x00\x00\x00\x00\x00\x00\x00\x00\x00\x00\x00\x00\x00\x00\x00\x00\x00\x00\x00\x00\x00\x00\x00\x00\x00\x00\x00\x00\x00\x00\x00\x00\x00\x00\x00\x00\x01\x00\x00\x00\x00\x00\x00\x00\x00\x00\x00\x00\x00\x00\x00\x00\x00\x00\x00\x00\x00\x00\x00\x00\x00\x00\x00\x00\x00\x00\x00\x00\x00\x00\x00\x00\x00\x00\x00\x00\x00\x00\x00\x00\x00\x00\x00\x00\x00\x00\x00\x00\x00\x00\x00\x01\x00\x00\x00\x00\x00\x00\x00\x00\x00\x00\x00\x00\x00\x00\x00\x00\x00\x00\x00\x00\x00\x00\x00\x00\x00\x00\x00\x00\x00\x00\x00\x00\x00\x00\x00\x00\x00\x00\x00\x00\x00\x00\x00\x00\x00\x00\x00\x00\x00\x00\x00\x00\x00\x00\x00\x00\x00\x00\x00\x00\x00\x00\x00\x00\x00\x00\x00\x00\x00\x00\x00\x00\x00\x00\x00\x00\x00\x00\x00\x00\x00\x00\x00\x00\x00\x00\x00\x00\x00\x00\x00\x00\x00\x00\x00\x00\x00\x00\x00\x00\x00\x00\x00\x00\x00\x00\x00\x00\x01\x01\x00\x00\x00\x00\x00\x00\x00\x00\x00\x00\x00\x00\x00\x00\x00\x00\x00\x00\x00\x00\x00\x00\x00\x00\x00\x00\x00\x00\x00\x00\x00\x00\x00\x00\x00\x00\x00\x00\x00\x00\x00\x00\x00\x00\x00\x00\x00\x00\x00\x00\x00\x00\x00\x00\x00\x00\x00\x00\x00\x00\x00\x00\x00\x00\x00\x00\x00\x00\x00\x00\x00\x00\x00\x00\x00\x00\x00\x00\x00\x00\x00\x00\x00\x00\x00\x00\x00\x00\x00\x00\x00\x00\x00\x00\x00\x00\x00\x00\x00\x00\x00\x00\x00\x00\x00\x00\x00\x00\x00\x00\x00\x00\x00\x00\x00\x00\x00\x00\x00\x00\x00\x00\x00\x00\x00\x00\x00\x00\x00\x00\x00\x00\x00\x00\x00\x00\x00\x00\x00\x00\x00\x00\x00\x00\x00\x00\x00\x00\x00\x00\x00\x00\x00\x00\x00\x00\x00\x00\x00\x00\x00\x00\x00\x00\x01\x00\x00\x00\x00\x00\x00\x00\x00\x00\x00\x00\x00\x00\x00\x00\x00\x00\x00\x00\x00\x00\x00\x00\x00\x00\x00\x00\x00\x00\x00\x00\x00\x00\x00\x00\x00\x00\x00\x00\x00\x00\x00\x00\x00\x00\x00\x00\x00\x00\x00\x00\x00\x00\x00\x00\x00\x00\x00\x00\x00\x00\x00\x00\x00\x00\x00\x00\x00\x00\x00\x00\x00\x00\x00\x00\x00\x00\x00\x00\x00\x00\x00\x00\x00\x00\x00\x00\x00\x00\x00\x00\x00\x00\x00\x00\x00\x00\x00\x00\x00\x00\x00\x00\x00\x00\x00\x00\x00\x00\x00\x00\x00\x00\x00\x00\x00\x00\x00\x00\x00\x00\x00\x00\x00\x00\x00\x00\x00\x00\x00\x00\x00\x00\x00\x00\x00\x00\x00\x00\x00\x00\x00\x00\x00\x00\x00\x00\x00\x00\x00\x00\x00\x00\x00\x00\x00\x00\x00\x00\x00\x00\x00\x00\x00\x00'
NtbstRp57
(dp58
S'isNumeric'
p59
(dp60
g47
I01
sg55
I01
ssS'trials'
p61
g36
sS'dataTypes'
p62
(lp63
g47
ag55
asS'dataShape'
p64
(lp65
I11
aI55
asbsS'method'
p66
S'fullRandom'
p67
sS'sequenceIndices'
p68
cnumpy.core.multiarray
_reconstruct
p69
(g50
(I0
tS'b'
tRp70
(I1
(I11
I55
tg53
(S'O4'
I0
I1
tRp71
(I3
S'|'
NNNI-1
I-1
I63
tbI00
(lp72
I10
aI8
aI9
aI1
aI6
aI5
aI8
aI2
aI8
aI9
aI2
aI1
aI1
aI7
aI0
aI4
aI1
aI6
aI6
aI5
aI1
aI5
aI9
aI4
aI2
aI3
aI5
aI10
aI2
aI7
aI10
aI7
aI9
aI3
aI4
aI9
aI3
aI6
aI9
aI3
aI10
aI3
aI2
aI10
aI7
aI2
aI3
aI10
aI6
aI4
aI1
aI3
aI7
aI6
aI4
aI4
aI6
aI0
aI9
aI6
aI8
aI1
aI7
aI5
aI3
aI6
aI3
aI2
aI5
aI9
aI6
aI0
aI1
aI4
aI8
aI1
aI0
aI10
aI3
aI8
aI9
aI3
aI10
aI8
aI6
aI3
aI0
aI0
aI2
aI7
aI10
aI9
aI4
aI9
aI2
aI1
aI1
aI10
aI8
aI3
aI8
aI10
aI8
aI6
aI7
aI1
aI2
aI7
aI1
aI0
aI1
aI0
aI0
aI1
aI4
aI7
aI8
aI10
aI5
aI1
aI2
aI3
aI7
aI2
aI0
aI9
aI7
aI1
aI3
aI8
aI0
aI0
aI4
aI6
aI8
aI1
aI3
aI0
aI1
aI2
aI0
aI10
aI4
aI3
aI4
aI1
aI5
aI4
aI0
aI9
aI2
aI4
aI3
aI9
aI9
aI9
aI10
aI4
aI3
aI10
aI10
aI3
aI9
aI0
aI6
aI8
aI4
aI6
aI4
aI0
aI1
aI9
aI2
aI6
aI8
aI7
aI2
aI9
aI6
aI2
aI7
aI8
aI9
aI1
aI7
aI1
aI6
aI9
aI0
aI5
aI5
aI1
aI1
aI5
aI9
aI1
aI7
aI7
aI8
aI0
aI1
aI1
aI1
aI1
aI10
aI4
aI3
aI7
aI10
aI2
aI1
aI3
aI10
aI0
aI7
aI8
aI8
aI8
aI1
aI7
aI5
aI6
aI2
aI7
aI5
aI4
aI8
aI3
aI10
aI0
aI4
aI2
aI9
aI2
aI0
aI8
aI5
aI9
aI2
aI5
aI5
aI4
aI6
aI5
aI1
aI6
aI5
aI0
aI0
aI8
aI6
aI10
aI7
aI4
aI8
aI4
aI2
aI8
aI4
aI8
aI2
aI10
aI7
aI3
aI9
aI0
aI7
aI2
aI4
aI0
aI2
aI7
aI0
aI3
aI4
aI5
aI2
aI4
aI5
aI5
aI4
aI0
aI8
aI3
aI3
aI0
aI1
aI7
aI0
aI2
aI0
aI9
aI10
aI4
aI10
aI6
aI3
aI7
aI5
aI3
aI9
aI7
aI1
aI7
aI2
aI2
aI1
aI10
aI0
aI4
aI10
aI9
aI8
aI2
aI6
aI9
aI2
aI7
aI6
aI6
aI1
aI4
aI2
aI4
aI7
aI10
aI6
aI5
aI9
aI4
aI1
aI4
aI10
aI10
aI8
aI10
aI1
aI10
aI1
aI5
aI3
aI6
aI9
aI5
aI8
aI5
aI10
aI3
aI7
aI4
aI9
aI3
aI6
aI8
aI7
aI9
aI3
aI5
aI3
aI0
aI4
aI5
aI5
aI1
aI2
aI7
aI0
aI0
aI2
aI9
aI0
aI1
aI3
aI8
aI1
aI9
aI6
aI8
aI6
aI6
aI8
aI2
aI5
aI10
aI4
aI8
aI4
aI4
aI7
aI6
aI8
aI5
aI0
aI0
aI7
aI9
aI0
aI8
aI4
aI10
aI4
aI7
aI1
aI9
aI10
aI6
aI6
aI1
aI10
aI8
aI3
aI1
aI2
aI8
aI9
aI10
aI10
aI9
aI7
aI0
aI1
aI0
aI4
aI5
aI0
aI6
aI6
aI2
aI10
aI1
aI3
aI3
aI10
aI5
aI9
aI5
aI2
aI0
aI5
aI7
aI9
aI3
aI3
aI6
aI8
aI9
aI5
aI7
aI9
aI5
aI5
aI5
aI8
aI6
aI0
aI5
aI0
aI10
aI7
aI6
aI4
aI10
aI10
aI7
aI1
aI8
aI6
aI3
aI6
aI2
aI4
aI6
aI6
aI4
aI7
aI5
aI8
aI2
aI0
aI8
aI0
aI4
aI9
aI9
aI0
aI1
aI5
aI7
aI7
aI7
aI6
aI3
aI6
aI2
aI1
aI0
aI0
aI4
aI3
aI4
aI5
aI10
aI7
aI0
aI7
aI2
aI8
aI9
aI6
aI10
aI6
aI5
aI5
aI7
aI6
aI8
aI6
aI9
aI8
aI10
aI8
aI5
aI3
aI3
aI10
aI10
aI1
aI1
aI8
aI3
aI5
aI10
aI9
aI5
aI2
aI1
aI9
aI7
aI5
aI5
aI8
aI2
aI5
aI10
aI6
aI2
aI0
aI5
aI10
aI2
aI3
aI2
aI6
aI3
aI9
aI8
aI8
aI3
aI7
aI7
aI2
aI2
aI5
aI2
aI10
aI5
aI4
aI2
aI0
aI3
aI10
aI9
aI1
aI6
aI7
aI8
aI9
aI9
aI3
aI3
aI9
aI10
aI2
aI3
aI4
aI0
aI4
aI0
aI2
aI3
aI4
aI8
aI7
aI4
aI7
aI6
aI3
aI2
aI4
aI9
aI10
aI8
aI6
aI5
aI4
atbsS'finished'
p73
I00
sS'nReps'
p74
I55
sS'nRemaining'
p75
I5
sS'trialList'
p76
(lp77
I0
aI1
aI2
aI3
aI4
aI5
aI6
aI7
aI8
aI9
aI10
asS'seed'
p78
NsS'thisIndex'
p79
I4
sS'thisN'
p80
I599
sS'thisTrialN'
p81
I5
sS'nTotal'
p82
I605
sS'_warnUseOfNext'
p83
I01
sbasS'saveWideText'
p84
I00
sS'thisEntry'
p85
(dp86
sS'version'
p87
S''
sS'_paramNamesSoFar'
p88
(lp89
sS'entries'
p90
(lp91
(dp92
g16
(lp93
S'd'
asS'.thisTrial'
p94
I10
sS'.thisRepN'
p95
I0
sg30
VF
sg31
g32
sS'.thisTrialN'
p96
I0
sS'.thisN'
p97
I0
sS'.thisIndex'
p98
I10
sg15
(lp99
S'd'
asg17
S'Y'
sg14
I1
sa(dp100
g16
(lp101
S'k'
asg94
I4
sS'.thisRepN'
p102
I0
sg30
VF
sg31
g32
sS'.thisTrialN'
p103
I1
sS'.thisN'
p104
I1
sS'.thisIndex'
p105
I4
sg15
(lp106
S'k'
asg17
S'Y'
sg14
I1
sa(dp107
g16
(lp108
S'k'
asg18
S'N'
sS'.thisRepN'
p109
I0
sg20
S'Y'
sg31
g32
sS'.thisTrialN'
p110
I2
sS'.thisN'
p111
I2
sS'.thisIndex'
p112
I1
sg15
(lp113
S'd'
asg30
VF
sg17
S'N'
sg14
I1
sg19
Nsg94
I1
sa(dp114
g16
(lp115
S'k'
asg18
S'N'
sS'.thisRepN'
p116
I0
sg20
S'Y'
sg31
g32
sS'.thisTrialN'
p117
I3
sS'.thisN'
p118
I3
sS'.thisIndex'
p119
I8
sg15
(lp120
S'k'
asg30
VF
sg17
S'Y'
sg14
I1
sg19
Nsg94
I8
sa(dp121
g16
(lp122
S'd'
asg18
S'N'
sS'.thisRepN'
p123
I0
sg20
S'Y'
sg31
g32
sS'.thisTrialN'
p124
I4
sS'.thisN'
p125
I4
sS'.thisIndex'
p126
I5
sg15
(lp127
S'd'
asg30
VF
sg17
S'Y'
sg14
I1
sg19
Nsg94
I5
sa(dp128
g16
(lp129
S'd'
asg18
S'Y'
sS'.thisRepN'
p130
I0
sg20
S'Y'
sg31
g32
sS'.thisTrialN'
p131
I5
sS'.thisN'
p132
I5
sS'.thisIndex'
p133
I5
sg15
(lp134
S'd'
asg30
VF
sg17
S'Y'
sg14
I1
sg19
(lp135
S'space'
p136
asg94
I5
sa(dp137
g16
(lp138
S'd'
asg18
S'N'
sS'.thisRepN'
p139
I0
sg20
S'N'
sg31
g32
sS'.thisTrialN'
p140
I6
sS'.thisN'
p141
I6
sS'.thisIndex'
p142
I1
sg15
(lp143
S'd'
asg30
VF
sg17
S'Y'
sg14
I1
sg19
(lp144
S'space'
p145
asg94
I1
sa(dp146
g16
(lp147
S'd'
asg18
S'Y'
sS'.thisRepN'
p148
I0
sg20
S'Y'
sg31
g32
sS'.thisTrialN'
p149
I7
sS'.thisN'
p150
I7
sS'.thisIndex'
p151
I8
sg15
(lp152
S'd'
asg30
VF
sg17
S'Y'
sg14
I1
sg19
(lp153
S'space'
p154
asg94
I8
sa(dp155
g16
(lp156
S'd'
asg18
S'Y'
sS'.thisRepN'
p157
I0
sg20
S'N'
sg31
g32
sS'.thisTrialN'
p158
I8
sS'.thisN'
p159
I8
sS'.thisIndex'
p160
I9
sg15
(lp161
S'd'
asg30
VF
sg17
S'Y'
sg14
I1
sg19
Nsg94
I9
sa(dp162
g16
(lp163
S'd'
asg18
S'Y'
sS'.thisRepN'
p164
I0
sg20
S'Y'
sg31
g32
sS'.thisTrialN'
p165
I9
sS'.thisN'
p166
I9
sS'.thisIndex'
p167
I0
sg15
(lp168
S'd'
asg30
VF
sg17
S'Y'
sg14
I1
sg19
(lp169
S'space'
p170
asg94
I0
sa(dp171
g16
(lp172
S'k'
asg18
S'Y'
sS'.thisRepN'
p173
I0
sg20
S'Y'
sg31
g32
sS'.thisTrialN'
p174
I10
sS'.thisN'
p175
I10
sS'.thisIndex'
p176
I3
sg15
(lp177
S'd'
asg30
VF
sg17
S'N'
sg14
I1
sg19
(lp178
S'space'
p179
asg94
I3
sa(dp180
g16
(lp181
S'd'
asg18
S'N'
sS'.thisRepN'
p182
I1
sg20
S'Y'
sg31
g32
sS'.thisTrialN'
p183
I0
sS'.thisN'
p184
I11
sS'.thisIndex'
p185
I8
sg15
(lp186
S'd'
asg30
VF
sg17
S'Y'
sg14
I1
sg19
Nsg94
I8
sa(dp187
g16
(lp188
S'k'
asg18
S'N'
sS'.thisRepN'
p189
I1
sg20
S'Y'
sg31
g32
sS'.thisTrialN'
p190
I1
sS'.thisN'
p191
I12
sS'.thisIndex'
p192
I6
sg15
(lp193
S'd'
asg30
VF
sg17
S'N'
sg14
I1
sg19
Nsg94
I6
sa(dp194
g16
(lp195
S'd'
asg18
S'N'
sS'.thisRepN'
p196
I1
sg20
S'Y'
sg31
g32
sS'.thisTrialN'
p197
I2
sS'.thisN'
p198
I13
sS'.thisIndex'
p199
I0
sg15
(lp200
S'd'
asg30
VF
sg17
S'Y'
sg14
I1
sg19
Nsg94
I0
sa(dp201
g16
(lp202
S'k'
asg18
S'Y'
sS'.thisRepN'
p203
I1
sg20
S'Y'
sg31
g32
sS'.thisTrialN'
p204
I3
sS'.thisN'
p205
I14
sS'.thisIndex'
p206
I4
sg15
(lp207
S'k'
asg30
VF
sg17
S'Y'
sg14
I1
sg19
(lp208
S'space'
p209
asg94
I4
sa(dp210
g16
(lp211
S'k'
asg18
S'Y'
sS'.thisRepN'
p212
I1
sg20
S'N'
sg31
g32
sS'.thisTrialN'
p213
I4
sS'.thisN'
p214
I15
sS'.thisIndex'
p215
I6
sg15
(lp216
S'd'
asg30
VF
sg17
S'N'
sg14
I1
sg19
Nsg94
I6
sa(dp217
g16
(lp218
S'd'
asg18
S'N'
sS'.thisRepN'
p219
I1
sg20
S'Y'
sg31
g32
sS'.thisTrialN'
p220
I5
sS'.thisN'
p221
I16
sS'.thisIndex'
p222
I2
sg15
(lp223
S'k'
asg30
VF
sg17
S'N'
sg14
I1
sg19
Nsg94
I2
sa(dp224
g16
(lp225
S'k'
asg18
S'Y'
sS'.thisRepN'
p226
I1
sg20
S'Y'
sg31
g32
sS'.thisTrialN'
p227
I6
sS'.thisN'
p228
I17
sS'.thisIndex'
p229
I4
sg15
(lp230
S'd'
asg30
VF
sg17
S'N'
sg14
I1
sg19
(lp231
S'space'
p232
asg94
I4
sa(dp233
g16
(lp234
S'd'
asg18
S'Y'
sS'.thisRepN'
p235
I1
sg20
S'Y'
sg31
g32
sS'.thisTrialN'
p236
I7
sS'.thisN'
p237
I18
sS'.thisIndex'
p238
I4
sg15
(lp239
S'k'
asg30
VF
sg17
S'N'
sg14
I1
sg19
(lp240
S'space'
p241
asg94
I4
sa(dp242
g16
(lp243
S'd'
asg18
S'Y'
sS'.thisRepN'
p244
I1
sg20
S'Y'
sg31
g32
sS'.thisTrialN'
p245
I8
sS'.thisN'
p246
I19
sS'.thisIndex'
p247
I3
sg15
(lp248
S'd'
asg30
VF
sg17
S'Y'
sg14
I1
sg19
(lp249
S'space'
p250
asg94
I3
sa(dp251
g16
(lp252
S'k'
asg18
S'Y'
sS'.thisRepN'
p253
I1
sg20
S'N'
sg31
g32
sS'.thisTrialN'
p254
I9
sS'.thisN'
p255
I20
sS'.thisIndex'
p256
I0
sg15
(lp257
S'd'
asg30
VF
sg17
S'N'
sg14
I1
sg19
Nsg94
I0
sa(dp258
g16
(lp259
S'k'
asg18
S'N'
sS'.thisRepN'
p260
I1
sg20
S'Y'
sg31
g32
sS'.thisTrialN'
p261
I10
sS'.thisN'
p262
I21
sS'.thisIndex'
p263
I2
sg15
(lp264
S'd'
asg30
VF
sg17
S'N'
sg14
I1
sg19
Nsg94
I2
sa(dp265
g16
(lp266
S'd'
asg18
S'Y'
sS'.thisRepN'
p267
I2
sg20
S'N'
sg31
g32
sS'.thisTrialN'
p268
I0
sS'.thisN'
p269
I22
sS'.thisIndex'
p270
I9
sg15
(lp271
S'k'
asg30
VF
sg17
S'N'
sg14
I1
sg19
Nsg94
I9
sa(dp272
g16
(lp273
S'k'
asg18
S'N'
sS'.thisRepN'
p274
I2
sg20
S'Y'
sg31
g32
sS'.thisTrialN'
p275
I1
sS'.thisN'
p276
I23
sS'.thisIndex'
p277
I0
sg15
(lp278
S'd'
asg30
VF
sg17
S'N'
sg14
I1
sg19
Nsg94
I0
sa(dp279
g16
(lp280
S'k'
asg18
S'Y'
sS'.thisRepN'
p281
I2
sg20
S'Y'
sg31
g32
sS'.thisTrialN'
p282
I2
sS'.thisN'
p283
I24
sS'.thisIndex'
p284
I0
sg15
(lp285
S'd'
asg30
VF
sg17
S'N'
sg14
I1
sg19
(lp286
S'space'
p287
asg94
I0
sa(dp288
g16
(lp289
S'd'
asg18
S'N'
sS'.thisRepN'
p290
I2
sg20
S'Y'
sg31
g32
sS'.thisTrialN'
p291
I3
sS'.thisN'
p292
I25
sS'.thisIndex'
p293
I6
sg15
(lp294
S'd'
asg30
VF
sg17
S'Y'
sg14
I1
sg19
Nsg94
I6
sa(dp295
g16
(lp296
S'd'
asg18
S'N'
sS'.thisRepN'
p297
I2
sg20
S'Y'
sg31
g32
sS'.thisTrialN'
p298
I4
sS'.thisN'
p299
I26
sS'.thisIndex'
p300
I2
sg15
(lp301
S'k'
asg30
VF
sg17
S'N'
sg14
I1
sg19
Nsg94
I2
sa(dp302
g16
(lp303
S'k'
asg18
S'Y'
sS'.thisRepN'
p304
I2
sg20
S'Y'
sg31
g32
sS'.thisTrialN'
p305
I5
sS'.thisN'
p306
I27
sS'.thisIndex'
p307
I4
sg15
(lp308
S'k'
asg30
VF
sg17
S'Y'
sg14
I1
sg19
(lp309
S'space'
p310
asg94
I4
sa(dp311
g16
(lp312
S'd'
asg18
S'Y'
sS'.thisRepN'
p313
I2
sg20
S'Y'
sg31
g32
sS'.thisTrialN'
p314
I6
sS'.thisN'
p315
I28
sS'.thisIndex'
p316
I10
sg15
(lp317
S'k'
asg30
VF
sg17
S'N'
sg14
I1
sg19
(lp318
S'space'
p319
asg94
I10
sa(dp320
g16
(lp321
S'd'
asg18
S'N'
sS'.thisRepN'
p322
I2
sg20
S'Y'
sg31
g32
sS'.thisTrialN'
p323
I7
sS'.thisN'
p324
I29
sS'.thisIndex'
p325
I4
sg15
(lp326
S'k'
asg30
VF
sg17
S'N'
sg14
I1
sg19
Nsg94
I4
sa(dp327
g16
(lp328
S'k'
asg18
S'Y'
sS'.thisRepN'
p329
I2
sg20
S'Y'
sg31
g32
sS'.thisTrialN'
p330
I8
sS'.thisN'
p331
I30
sS'.thisIndex'
p332
I3
sg15
(lp333
S'd'
asg30
VF
sg17
S'N'
sg14
I1
sg19
(lp334
S'space'
p335
asg94
I3
sa(dp336
g16
(lp337
S'k'
asg18
S'Y'
sS'.thisRepN'
p338
I2
sg20
S'N'
sg31
g32
sS'.thisTrialN'
p339
I9
sS'.thisN'
p340
I31
sS'.thisIndex'
p341
I4
sg15
(lp342
S'k'
asg30
VF
sg17
S'Y'
sg14
I1
sg19
Nsg94
I4
sa(dp343
g16
(lp344
S'k'
asg18
S'N'
sS'.thisRepN'
p345
I2
sg20
S'Y'
sg31
g32
sS'.thisTrialN'
p346
I10
sS'.thisN'
p347
I32
sS'.thisIndex'
p348
I6
sg15
(lp349
S'k'
asg30
VF
sg17
S'Y'
sg14
I1
sg19
Nsg94
I6
sa(dp350
g16
(lp351
S'k'
asg18
S'Y'
sS'.thisRepN'
p352
I3
sg20
S'Y'
sg31
g32
sS'.thisTrialN'
p353
I0
sS'.thisN'
p354
I33
sS'.thisIndex'
p355
I1
sg15
(lp356
S'd'
asg30
VF
sg17
S'N'
sg14
I1
sg19
(lp357
S'space'
p358
asg94
I1
sa(dp359
g16
(lp360
S'd'
asg18
S'N'
sS'.thisRepN'
p361
I3
sg20
S'Y'
sg31
g32
sS'.thisTrialN'
p362
I1
sS'.thisN'
p363
I34
sS'.thisIndex'
p364
I9
sg15
(lp365
S'd'
asg30
VF
sg17
S'Y'
sg14
I1
sg19
Nsg94
I9
sa(dp366
g16
(lp367
S'd'
asg18
S'Y'
sS'.thisRepN'
p368
I3
sg20
S'N'
sg31
g32
sS'.thisTrialN'
p369
I2
sS'.thisN'
p370
I35
sS'.thisIndex'
p371
I1
sg15
(lp372
S'k'
asg30
VF
sg17
S'N'
sg14
I1
sg19
Nsg94
I1
sa(dp373
g16
(lp374
S'd'
asg18
S'N'
sS'.thisRepN'
p375
I3
sg20
S'N'
sg31
g32
sS'.thisTrialN'
p376
I3
sS'.thisN'
p377
I36
sS'.thisIndex'
p378
I4
sg15
(lp379
S'k'
asg30
VF
sg17
S'N'
sg14
I1
sg19
(lp380
S'space'
p381
asg94
I4
sa(dp382
g16
(lp383
S'd'
asg18
S'Y'
sS'.thisRepN'
p384
I3
sg20
S'Y'
sg31
g32
sS'.thisTrialN'
p385
I4
sS'.thisN'
p386
I37
sS'.thisIndex'
p387
I7
sg15
(lp388
S'k'
asg30
VF
sg17
S'N'
sg14
I1
sg19
(lp389
S'space'
p390
asg94
I7
sa(dp391
g16
(lp392
S'k'
asg18
S'Y'
sS'.thisRepN'
p393
I3
sg20
S'Y'
sg31
g32
sS'.thisTrialN'
p394
I5
sS'.thisN'
p395
I38
sS'.thisIndex'
p396
I5
sg15
(lp397
S'k'
asg30
VF
sg17
S'Y'
sg14
I1
sg19
(lp398
S'space'
p399
asg94
I5
sa(dp400
g16
(lp401
S'k'
asg18
S'Y'
sS'.thisRepN'
p402
I3
sg20
S'Y'
sg31
g32
sS'.thisTrialN'
p403
I6
sS'.thisN'
p404
I39
sS'.thisIndex'
p405
I10
sg15
(lp406
S'd'
asg30
VF
sg17
S'N'
sg14
I1
sg19
(lp407
S'space'
p408
asg94
I10
sa(dp409
g16
(lp410
S'd'
asg18
S'N'
sS'.thisRepN'
p411
I3
sg20
S'Y'
sg31
g32
sS'.thisTrialN'
p412
I7
sS'.thisN'
p413
I40
sS'.thisIndex'
p414
I7
sg15
(lp415
S'k'
asg30
VF
sg17
S'N'
sg14
I1
sg19
Nsg94
I7
sa(dp416
g16
(lp417
S'd'
asg18
S'N'
sS'.thisRepN'
p418
I3
sg20
S'Y'
sg31
g32
sS'.thisTrialN'
p419
I8
sS'.thisN'
p420
I41
sS'.thisIndex'
p421
I6
sg15
(lp422
S'd'
asg30
VF
sg17
S'Y'
sg14
I1
sg19
Nsg94
I6
sa(dp423
g16
(lp424
S'd'
asg18
S'N'
sS'.thisRepN'
p425
I3
sg20
S'Y'
sg31
g32
sS'.thisTrialN'
p426
I9
sS'.thisN'
p427
I42
sS'.thisIndex'
p428
I3
sg15
(lp429
S'd'
asg30
VF
sg17
S'Y'
sg14
I1
sg19
Nsg94
I3
sa(dp430
g16
(lp431
S'k'
asg18
S'Y'
sS'.thisRepN'
p432
I3
sg20
S'Y'
sg31
g32
sS'.thisTrialN'
p433
I10
sS'.thisN'
p434
I43
sS'.thisIndex'
p435
I3
sg15
(lp436
S'd'
asg30
VF
sg17
S'N'
sg14
I1
sg19
(lp437
S'space'
p438
asg94
I3
sa(dp439
g16
(lp440
S'k'
asg18
S'Y'
sS'.thisRepN'
p441
I4
sg20
S'Y'
sg31
g32
sS'.thisTrialN'
p442
I0
sS'.thisN'
p443
I44
sS'.thisIndex'
p444
I6
sg15
(lp445
S'd'
asg30
VF
sg17
S'N'
sg14
I1
sg19
(lp446
S'space'
p447
asg94
I6
sa(dp448
g16
(lp449
S'd'
asg18
S'N'
sS'.thisRepN'
p450
I4
sg20
S'Y'
sg31
g32
sS'.thisTrialN'
p451
I1
sS'.thisN'
p452
I45
sS'.thisIndex'
p453
I6
sg15
(lp454
S'k'
asg30
VF
sg17
S'N'
sg14
I1
sg19
Nsg94
I6
sa(dp455
g16
(lp456
S'd'
asg18
S'N'
sS'.thisRepN'
p457
I4
sg20
S'Y'
sg31
g32
sS'.thisTrialN'
p458
I2
sS'.thisN'
p459
I46
sS'.thisIndex'
p460
I4
sg15
(lp461
S'd'
asg30
VF
sg17
S'Y'
sg14
I1
sg19
Nsg94
I4
sa(dp462
g16
(lp463
S'd'
asg18
S'N'
sS'.thisRepN'
p464
I4
sg20
S'Y'
sg31
g32
sS'.thisTrialN'
p465
I3
sS'.thisN'
p466
I47
sS'.thisIndex'
p467
I0
sg15
(lp468
S'k'
asg30
VF
sg17
S'N'
sg14
I1
sg19
Nsg94
I0
sa(dp469
g16
(lp470
S'd'
asg18
S'N'
sS'.thisRepN'
p471
I4
sg20
S'N'
sg31
g32
sS'.thisTrialN'
p472
I4
sS'.thisN'
p473
I48
sS'.thisIndex'
p474
I5
sg15
(lp475
S'd'
asg30
VF
sg17
S'Y'
sg14
I1
sg19
(lp476
S'space'
p477
asg94
I5
sa(dp478
g16
(lp479
S'k'
asg18
S'Y'
sg22
I39
sS'.thisN'
p480
I49
sg20
S'Y'
sg31
g32
sS'.thisTrialN'
p481
I5
sS'.thisRepN'
p482
I4
sg21
I24
sS'.thisIndex'
p483
I5
sg23
I25
sg15
(lp484
S'k'
asg30
VF
sg17
S'Y'
sg14
I1
sg19
(lp485
S'space'
p486
asg94
I5
sa(dp487
g16
(lp488
S'k'
asg94
I8
sS'.thisRepN'
p489
I4
sg30
VF
sg31
g32
sS'.thisTrialN'
p490
I6
sS'.thisN'
p491
I50
sS'.thisIndex'
p492
I8
sg15
(lp493
S'd'
asg17
S'N'
sg14
I2
sa(dp494
g16
(lp495
S'd'
asg94
I6
sS'.thisRepN'
p496
I4
sg30
VF
sg31
g32
sS'.thisTrialN'
p497
I7
sS'.thisN'
p498
I51
sS'.thisIndex'
p499
I6
sg15
(lp500
S'k'
asg17
S'N'
sg14
I2
sa(dp501
g16
(lp502
S'd'
asg18
S'Y'
sS'.thisRepN'
p503
I4
sg20
S'N'
sg31
g32
sS'.thisTrialN'
p504
I8
sS'.thisN'
p505
I52
sS'.thisIndex'
p506
I8
sg15
(lp507
S'd'
asg30
VF
sg17
S'Y'
sg14
I2
sg19
(lp508
S'd'
asg94
I8
sa(dp509
g16
(lp510
S'k'
asg18
S'Y'
sS'.thisRepN'
p511
I4
sg20
S'Y'
sg31
g32
sS'.thisTrialN'
p512
I9
sS'.thisN'
p513
I53
sS'.thisIndex'
p514
I4
sg15
(lp515
S'k'
asg30
VF
sg17
S'Y'
sg14
I2
sg19
(lp516
S'space'
p517
asg94
I4
sa(dp518
g16
(lp519
S'k'
asg18
S'N'
sS'.thisRepN'
p520
I4
sg20
S'Y'
sg31
g32
sS'.thisTrialN'
p521
I10
sS'.thisN'
p522
I54
sS'.thisIndex'
p523
I9
sg15
(lp524
S'k'
asg30
VF
sg17
S'Y'
sg14
I2
sg19
Nsg94
I9
sa(dp525
g16
(lp526
S'k'
asg18
S'N'
sS'.thisRepN'
p527
I5
sg20
S'Y'
sg31
g32
sS'.thisTrialN'
p528
I0
sS'.thisN'
p529
I55
sS'.thisIndex'
p530
I5
sg15
(lp531
S'd'
asg30
VF
sg17
S'N'
sg14
I2
sg19
Nsg94
I5
sa(dp532
g16
(lp533
S'k'
asg18
S'N'
sS'.thisRepN'
p534
I5
sg20
S'Y'
sg31
g32
sS'.thisTrialN'
p535
I1
sS'.thisN'
p536
I56
sS'.thisIndex'
p537
I8
sg15
(lp538
S'k'
asg30
VF
sg17
S'Y'
sg14
I2
sg19
Nsg94
I8
sa(dp539
g16
(lp540
S'k'
asg18
S'N'
sS'.thisRepN'
p541
I5
sg20
S'Y'
sg31
g32
sS'.thisTrialN'
p542
I2
sS'.thisN'
p543
I57
sS'.thisIndex'
p544
I7
sg15
(lp545
S'd'
asg30
VF
sg17
S'N'
sg14
I2
sg19
Nsg94
I7
sa(dp546
g16
(lp547
S'd'
asg18
S'Y'
sS'.thisRepN'
p548
I5
sg20
S'N'
sg31
g32
sS'.thisTrialN'
p549
I3
sS'.thisN'
p550
I58
sS'.thisIndex'
p551
I1
sg15
(lp552
S'k'
asg30
VF
sg17
S'N'
sg14
I2
sg19
Nsg94
I1
sa(dp553
g16
(lp554
S'd'
asg18
S'Y'
sS'.thisRepN'
p555
I5
sg20
S'Y'
sg31
g32
sS'.thisTrialN'
p556
I4
sS'.thisN'
p557
I59
sS'.thisIndex'
p558
I4
sg15
(lp559
S'd'
asg30
VF
sg17
S'Y'
sg14
I2
sg19
(lp560
S'space'
p561
asg94
I4
sa(dp562
g16
(lp563
S'd'
asg18
S'N'
sS'.thisRepN'
p564
I5
sg20
S'Y'
sg31
g32
sS'.thisTrialN'
p565
I5
sS'.thisN'
p566
I60
sS'.thisIndex'
p567
I4
sg15
(lp568
S'k'
asg30
VF
sg17
S'N'
sg14
I2
sg19
Nsg94
I4
sa(dp569
g16
(lp570
S'd'
asg18
S'Y'
sS'.thisRepN'
p571
I5
sg20
S'Y'
sg31
g32
sS'.thisTrialN'
p572
I6
sS'.thisN'
p573
I61
sS'.thisIndex'
p574
I10
sg15
(lp575
S'd'
asg30
VF
sg17
S'Y'
sg14
I2
sg19
(lp576
S'space'
p577
asg94
I10
sa(dp578
g16
(lp579
S'd'
asg18
S'Y'
sS'.thisRepN'
p580
I5
sg20
S'Y'
sg31
g32
sS'.thisTrialN'
p581
I7
sS'.thisN'
p582
I62
sS'.thisIndex'
p583
I8
sg15
(lp584
S'd'
asg30
VF
sg17
S'Y'
sg14
I2
sg19
(lp585
S'space'
p586
asg94
I8
sa(dp587
g16
(lp588
S'k'
asg18
S'N'
sS'.thisRepN'
p589
I5
sg20
S'Y'
sg31
g32
sS'.thisTrialN'
p590
I8
sS'.thisN'
p591
I63
sS'.thisIndex'
p592
I9
sg15
(lp593
S'd'
asg30
VF
sg17
S'N'
sg14
I2
sg19
Nsg94
I9
sa(dp594
g16
(lp595
S'd'
asg18
S'N'
sS'.thisRepN'
p596
I5
sg20
S'Y'
sg31
g32
sS'.thisTrialN'
p597
I9
sS'.thisN'
p598
I64
sS'.thisIndex'
p599
I5
sg15
(lp600
S'k'
asg30
VF
sg17
S'N'
sg14
I2
sg19
Nsg94
I5
sa(dp601
g16
(lp602
S'k'
asg18
S'N'
sS'.thisRepN'
p603
I5
sg20
S'N'
sg31
g32
sS'.thisTrialN'
p604
I10
sS'.thisN'
p605
I65
sS'.thisIndex'
p606
I8
sg15
(lp607
S'd'
asg30
VF
sg17
S'N'
sg14
I2
sg19
(lp608
S'space'
p609
asg94
I8
sa(dp610
g16
(lp611
S'd'
asg18
S'N'
sS'.thisRepN'
p612
I6
sg20
S'Y'
sg31
g32
sS'.thisTrialN'
p613
I0
sS'.thisN'
p614
I66
sS'.thisIndex'
p615
I8
sg15
(lp616
S'k'
asg30
VF
sg17
S'N'
sg14
I2
sg19
Nsg94
I8
sa(dp617
g16
(lp618
S'k'
asg18
S'N'
sS'.thisRepN'
p619
I6
sg20
S'Y'
sg31
g32
sS'.thisTrialN'
p620
I1
sS'.thisN'
p621
I67
sS'.thisIndex'
p622
I1
sg15
(lp623
S'd'
asg30
VF
sg17
S'N'
sg14
I2
sg19
Nsg94
I1
sa(dp624
g16
(lp625
S'k'
asg18
S'N'
sS'.thisRepN'
p626
I6
sg20
S'Y'
sg31
g32
sS'.thisTrialN'
p627
I2
sS'.thisN'
p628
I68
sS'.thisIndex'
p629
I8
sg15
(lp630
S'k'
asg30
VF
sg17
S'Y'
sg14
I2
sg19
Nsg94
I8
sa(dp631
g16
(lp632
S'd'
asg18
S'N'
sS'.thisRepN'
p633
I6
sg20
S'Y'
sg31
g32
sS'.thisTrialN'
p634
I3
sS'.thisN'
p635
I69
sS'.thisIndex'
p636
I9
sg15
(lp637
S'k'
asg30
VF
sg17
S'N'
sg14
I2
sg19
Nsg94
I9
sa(dp638
g16
(lp639
S'k'
asg18
S'N'
sS'.thisRepN'
p640
I6
sg20
S'Y'
sg31
g32
sS'.thisTrialN'
p641
I4
sS'.thisN'
p642
I70
sS'.thisIndex'
p643
I8
sg15
(lp644
S'd'
asg30
VF
sg17
S'N'
sg14
I2
sg19
Nsg94
I8
sa(dp645
g16
(lp646
S'd'
asg18
S'Y'
sS'.thisRepN'
p647
I6
sg20
S'Y'
sg31
g32
sS'.thisTrialN'
p648
I5
sS'.thisN'
p649
I71
sS'.thisIndex'
p650
I0
sg15
(lp651
S'k'
asg30
VF
sg17
S'N'
sg14
I2
sg19
(lp652
S'space'
p653
asg94
I0
sa(dp654
g16
(lp655
S'd'
asg18
S'N'
sS'.thisRepN'
p656
I6
sg20
S'Y'
sg31
g32
sS'.thisTrialN'
p657
I6
sS'.thisN'
p658
I72
sS'.thisIndex'
p659
I1
sg15
(lp660
S'k'
asg30
VF
sg17
S'N'
sg14
I2
sg19
Nsg94
I1
sa(dp661
g16
(lp662
S'k'
asg18
S'Y'
sS'.thisRepN'
p663
I6
sg20
S'Y'
sg31
g32
sS'.thisTrialN'
p664
I7
sS'.thisN'
p665
I73
sS'.thisIndex'
p666
I5
sg15
(lp667
S'k'
asg30
VF
sg17
S'Y'
sg14
I2
sg19
(lp668
S'space'
p669
asg94
I5
sa(dp670
g16
(lp671
S'd'
asg18
S'Y'
sS'.thisRepN'
p672
I6
sg20
S'Y'
sg31
g32
sS'.thisTrialN'
p673
I8
sS'.thisN'
p674
I74
sS'.thisIndex'
p675
I5
sg15
(lp676
S'k'
asg30
VF
sg17
S'N'
sg14
I2
sg19
(lp677
S'space'
p678
asg94
I5
sa(dp679
g16
(lp680
S'k'
asg18
S'Y'
sS'.thisRepN'
p681
I6
sg20
S'Y'
sg31
g32
sS'.thisTrialN'
p682
I9
sS'.thisN'
p683
I75
sS'.thisIndex'
p684
I10
sg15
(lp685
S'k'
asg30
VF
sg17
S'Y'
sg14
I2
sg19
(lp686
S'space'
p687
asg94
I10
sa(dp688
g16
(lp689
S'd'
asg18
S'N'
sS'.thisRepN'
p690
I6
sg20
S'Y'
sg31
g32
sS'.thisTrialN'
p691
I10
sS'.thisN'
p692
I76
sS'.thisIndex'
p693
I8
sg15
(lp694
S'd'
asg30
VF
sg17
S'Y'
sg14
I2
sg19
Nsg94
I8
sa(dp695
g16
(lp696
S'd'
asg18
S'N'
sS'.thisRepN'
p697
I7
sg20
S'Y'
sg31
g32
sS'.thisTrialN'
p698
I0
sS'.thisN'
p699
I77
sS'.thisIndex'
p700
I2
sg15
(lp701
S'k'
asg30
VF
sg17
S'N'
sg14
I2
sg19
Nsg94
I2
sa(dp702
g16
(lp703
S'd'
asg18
S'Y'
sS'.thisRepN'
p704
I7
sg20
S'N'
sg31
g32
sS'.thisTrialN'
p705
I1
sS'.thisN'
p706
I78
sS'.thisIndex'
p707
I7
sg15
(lp708
S'k'
asg30
VF
sg17
S'N'
sg14
I2
sg19
Nsg94
I7
sa(dp709
g16
(lp710
S'k'
asg18
S'Y'
sS'.thisRepN'
p711
I7
sg20
S'Y'
sg31
g32
sS'.thisTrialN'
p712
I2
sS'.thisN'
p713
I79
sS'.thisIndex'
p714
I10
sg15
(lp715
S'd'
asg30
VF
sg17
S'N'
sg14
I2
sg19
(lp716
S'space'
p717
asg94
I10
sa(dp718
g16
(lp719
S'k'
asg18
S'N'
sS'.thisRepN'
p720
I7
sg20
S'N'
sg31
g32
sS'.thisTrialN'
p721
I3
sS'.thisN'
p722
I80
sS'.thisIndex'
p723
I2
sg15
(lp724
S'k'
asg30
VF
sg17
S'Y'
sg14
I2
sg19
(lp725
S'space'
p726
asg94
I2
sa(dp727
g16
(lp728
S'k'
asg18
S'N'
sS'.thisRepN'
p729
I7
sg20
S'N'
sg31
g32
sS'.thisTrialN'
p730
I4
sS'.thisN'
p731
I81
sS'.thisIndex'
p732
I3
sg15
(lp733
S'k'
asg30
VF
sg17
S'Y'
sg14
I2
sg19
(lp734
S'space'
p735
asg94
I3
sa(dp736
g16
(lp737
S'k'
asg18
S'Y'
sS'.thisRepN'
p738
I7
sg20
S'N'
sg31
g32
sS'.thisTrialN'
p739
I5
sS'.thisN'
p740
I82
sS'.thisIndex'
p741
I8
sg15
(lp742
S'k'
asg30
VF
sg17
S'Y'
sg14
I2
sg19
Nsg94
I8
sa(dp743
g16
(lp744
S'k'
asg18
S'N'
sS'.thisRepN'
p745
I7
sg20
S'Y'
sg31
g32
sS'.thisTrialN'
p746
I6
sS'.thisN'
p747
I83
sS'.thisIndex'
p748
I10
sg15
(lp749
S'k'
asg30
VF
sg17
S'Y'
sg14
I2
sg19
Nsg94
I10
sa(dp750
g16
(lp751
S'k'
asg18
S'Y'
sS'.thisRepN'
p752
I7
sg20
S'Y'
sg31
g32
sS'.thisTrialN'
p753
I7
sS'.thisN'
p754
I84
sS'.thisIndex'
p755
I0
sg15
(lp756
S'd'
asg30
VF
sg17
S'N'
sg14
I2
sg19
(lp757
S'space'
p758
asg94
I0
sa(dp759
g16
(lp760
S'k'
asg18
S'Y'
sS'.thisRepN'
p761
I7
sg20
S'Y'
sg31
g32
sS'.thisTrialN'
p762
I8
sS'.thisN'
p763
I85
sS'.thisIndex'
p764
I7
sg15
(lp765
S'd'
asg30
VF
sg17
S'N'
sg14
I2
sg19
(lp766
S'space'
p767
asg94
I7
sa(dp768
g16
(lp769
S'd'
asg18
S'N'
sS'.thisRepN'
p770
I7
sg20
S'Y'
sg31
g32
sS'.thisTrialN'
p771
I9
sS'.thisN'
p772
I86
sS'.thisIndex'
p773
I7
sg15
(lp774
S'k'
asg30
VF
sg17
S'N'
sg14
I2
sg19
Nsg94
I7
sa(dp775
g16
(lp776
S'd'
asg18
S'Y'
sS'.thisRepN'
p777
I7
sg20
S'Y'
sg31
g32
sS'.thisTrialN'
p778
I10
sS'.thisN'
p779
I87
sS'.thisIndex'
p780
I3
sg15
(lp781
S'd'
asg30
VF
sg17
S'Y'
sg14
I2
sg19
(lp782
S'space'
p783
asg94
I3
sa(dp784
g16
(lp785
S'd'
asg18
S'N'
sS'.thisRepN'
p786
I8
sg20
S'Y'
sg31
g32
sS'.thisTrialN'
p787
I0
sS'.thisN'
p788
I88
sS'.thisIndex'
p789
I8
sg15
(lp790
S'k'
asg30
VF
sg17
S'N'
sg14
I2
sg19
Nsg94
I8
sa(dp791
g16
(lp792
S'd'
asg18
S'N'
sS'.thisRepN'
p793
I8
sg20
S'Y'
sg31
g32
sS'.thisTrialN'
p794
I1
sS'.thisN'
p795
I89
sS'.thisIndex'
p796
I5
sg15
(lp797
S'k'
asg30
VF
sg17
S'N'
sg14
I2
sg19
Nsg94
I5
sa(dp798
g16
(lp799
S'd'
asg18
S'N'
sS'.thisRepN'
p800
I8
sg20
S'Y'
sg31
g32
sS'.thisTrialN'
p801
I2
sS'.thisN'
p802
I90
sS'.thisIndex'
p803
I5
sg15
(lp804
S'k'
asg30
VF
sg17
S'N'
sg14
I2
sg19
Nsg94
I5
sa(dp805
g16
(lp806
S'd'
asg18
S'Y'
sS'.thisRepN'
p807
I8
sg20
S'Y'
sg31
g32
sS'.thisTrialN'
p808
I3
sS'.thisN'
p809
I91
sS'.thisIndex'
p810
I6
sg15
(lp811
S'd'
asg30
VF
sg17
S'Y'
sg14
I2
sg19
(lp812
S'space'
p813
asg94
I6
sa(dp814
g16
(lp815
S'd'
asg18
S'Y'
sS'.thisRepN'
p816
I8
sg20
S'Y'
sg31
g32
sS'.thisTrialN'
p817
I4
sS'.thisN'
p818
I92
sS'.thisIndex'
p819
I10
sg15
(lp820
S'd'
asg30
VF
sg17
S'Y'
sg14
I2
sg19
(lp821
S'space'
p822
asg94
I10
sa(dp823
g16
(lp824
S'k'
asg18
S'Y'
sS'.thisRepN'
p825
I8
sg20
S'Y'
sg31
g32
sS'.thisTrialN'
p826
I5
sS'.thisN'
p827
I93
sS'.thisIndex'
p828
I3
sg15
(lp829
S'd'
asg30
VF
sg17
S'N'
sg14
I2
sg19
(lp830
S'space'
p831
asg94
I3
sa(dp832
g16
(lp833
S'd'
asg18
S'N'
sS'.thisRepN'
p834
I8
sg20
S'Y'
sg31
g32
sS'.thisTrialN'
p835
I6
sS'.thisN'
p836
I94
sS'.thisIndex'
p837
I1
sg15
(lp838
S'k'
asg30
VF
sg17
S'N'
sg14
I2
sg19
Nsg94
I1
sa(dp839
g16
(lp840
S'k'
asg18
S'Y'
sS'.thisRepN'
p841
I8
sg20
S'Y'
sg31
g32
sS'.thisTrialN'
p842
I7
sS'.thisN'
p843
I95
sS'.thisIndex'
p844
I0
sg15
(lp845
S'k'
asg30
VF
sg17
S'Y'
sg14
I2
sg19
(lp846
S'space'
p847
asg94
I0
sa(dp848
g16
(lp849
S'd'
asg18
S'N'
sS'.thisRepN'
p850
I8
sg20
S'Y'
sg31
g32
sS'.thisTrialN'
p851
I8
sS'.thisN'
p852
I96
sS'.thisIndex'
p853
I9
sg15
(lp854
S'd'
asg30
VF
sg17
S'Y'
sg14
I2
sg19
Nsg94
I9
sa(dp855
g16
(lp856
S'k'
asg18
S'N'
sS'.thisRepN'
p857
I8
sg20
S'Y'
sg31
g32
sS'.thisTrialN'
p858
I9
sS'.thisN'
p859
I97
sS'.thisIndex'
p860
I0
sg15
(lp861
S'd'
asg30
VF
sg17
S'N'
sg14
I2
sg19
Nsg94
I0
sa(dp862
g16
(lp863
S'k'
asg18
S'N'
sS'.thisRepN'
p864
I8
sg20
S'Y'
sg31
g32
sS'.thisTrialN'
p865
I10
sS'.thisN'
p866
I98
sS'.thisIndex'
p867
I7
sg15
(lp868
S'd'
asg30
VF
sg17
S'N'
sg14
I2
sg19
Nsg94
I7
sa(dp869
g16
(lp870
S'd'
asg18
S'N'
sg22
I41
sS'.thisN'
p871
I99
sg20
S'Y'
sg31
g32
sS'.thisTrialN'
p872
I0
sS'.thisRepN'
p873
I9
sg21
I20
sS'.thisIndex'
p874
I9
sg23
I20
sg15
(lp875
S'k'
asg30
VF
sg17
S'N'
sg14
I2
sg19
Nsg94
I9
sa(dp876
g16
(lp877
S'k'
asg94
I3
sS'.thisRepN'
p878
I9
sg30
VF
sg31
g32
sS'.thisTrialN'
p879
I1
sS'.thisN'
p880
I100
sS'.thisIndex'
p881
I3
sg15
(lp882
S'k'
asg17
S'Y'
sg14
I3
sa(dp883
g16
(lp884
S'd'
asg94
I1
sS'.thisRepN'
p885
I9
sg30
VF
sg31
g32
sS'.thisTrialN'
p886
I2
sS'.thisN'
p887
I101
sS'.thisIndex'
p888
I1
sg15
(lp889
S'd'
asg17
S'Y'
sg14
I3
sa(dp890
g16
(lp891
S'k'
asg18
S'Y'
sS'.thisRepN'
p892
I9
sg20
S'Y'
sg31
g32
sS'.thisTrialN'
p893
I3
sS'.thisN'
p894
I102
sS'.thisIndex'
p895
I8
sg15
(lp896
S'k'
asg30
VF
sg17
S'Y'
sg14
I3
sg19
(lp897
S'space'
p898
asg94
I8
sa(dp899
g16
(lp900
S'k'
asg18
S'N'
sS'.thisRepN'
p901
I9
sg20
S'Y'
sg31
g32
sS'.thisTrialN'
p902
I4
sS'.thisN'
p903
I103
sS'.thisIndex'
p904
I0
sg15
(lp905
S'd'
asg30
VF
sg17
S'N'
sg14
I3
sg19
Nsg94
I0
sa(dp906
g16
(lp907
S'd'
asg18
S'N'
sS'.thisRepN'
p908
I9
sg20
S'Y'
sg31
g32
sS'.thisTrialN'
p909
I5
sS'.thisN'
p910
I104
sS'.thisIndex'
p911
I3
sg15
(lp912
S'k'
asg30
VF
sg17
S'N'
sg14
I3
sg19
Nsg94
I3
sa(dp913
g16
(lp914
S'k'
asg18
S'Y'
sS'.thisRepN'
p915
I9
sg20
S'Y'
sg31
g32
sS'.thisTrialN'
p916
I6
sS'.thisN'
p917
I105
sS'.thisIndex'
p918
I5
sg15
(lp919
S'd'
asg30
VF
sg17
S'N'
sg14
I3
sg19
(lp920
S'space'
p921
asg94
I5
sa(dp922
g16
(lp923
S'd'
asg18
S'N'
sS'.thisRepN'
p924
I9
sg20
S'Y'
sg31
g32
sS'.thisTrialN'
p925
I7
sS'.thisN'
p926
I106
sS'.thisIndex'
p927
I7
sg15
(lp928
S'd'
asg30
VF
sg17
S'Y'
sg14
I3
sg19
Nsg94
I7
sa(dp929
g16
(lp930
S'd'
asg18
S'N'
sS'.thisRepN'
p931
I9
sg20
S'Y'
sg31
g32
sS'.thisTrialN'
p932
I8
sS'.thisN'
p933
I107
sS'.thisIndex'
p934
I5
sg15
(lp935
S'k'
asg30
VF
sg17
S'N'
sg14
I3
sg19
Nsg94
I5
sa(dp936
g16
(lp937
S'd'
asg18
S'N'
sS'.thisRepN'
p938
I9
sg20
S'Y'
sg31
g32
sS'.thisTrialN'
p939
I9
sS'.thisN'
p940
I108
sS'.thisIndex'
p941
I7
sg15
(lp942
S'k'
asg30
VF
sg17
S'N'
sg14
I3
sg19
Nsg94
I7
sa(dp943
g16
(lp944
S'k'
asg18
S'N'
sS'.thisRepN'
p945
I9
sg20
S'Y'
sg31
g32
sS'.thisTrialN'
p946
I10
sS'.thisN'
p947
I109
sS'.thisIndex'
p948
I7
sg15
(lp949
S'd'
asg30
VF
sg17
S'N'
sg14
I3
sg19
Nsg94
I7
sa(dp950
g16
(lp951
S'k'
asg18
S'Y'
sS'.thisRepN'
p952
I10
sg20
S'Y'
sg31
g32
sS'.thisTrialN'
p953
I0
sS'.thisN'
p954
I110
sS'.thisIndex'
p955
I2
sg15
(lp956
S'd'
asg30
VF
sg17
S'N'
sg14
I3
sg19
(lp957
S'space'
p958
asg94
I2
sa(dp959
g16
(lp960
S'k'
asg18
S'N'
sS'.thisRepN'
p961
I10
sg20
S'Y'
sg31
g32
sS'.thisTrialN'
p962
I1
sS'.thisN'
p963
I111
sS'.thisIndex'
p964
I6
sg15
(lp965
S'k'
asg30
VF
sg17
S'Y'
sg14
I3
sg19
Nsg94
I6
sa(dp966
g16
(lp967
S'k'
asg18
S'N'
sS'.thisRepN'
p968
I10
sg20
S'Y'
sg31
g32
sS'.thisTrialN'
p969
I2
sS'.thisN'
p970
I112
sS'.thisIndex'
p971
I2
sg15
(lp972
S'k'
asg30
VF
sg17
S'Y'
sg14
I3
sg19
Nsg94
I2
sa(dp973
g16
(lp974
S'k'
asg18
S'Y'
sS'.thisRepN'
p975
I10
sg20
S'N'
sg31
g32
sS'.thisTrialN'
p976
I3
sS'.thisN'
p977
I113
sS'.thisIndex'
p978
I7
sg15
(lp979
S'k'
asg30
VF
sg17
S'Y'
sg14
I3
sg19
Nsg94
I7
sa(dp980
g16
(lp981
S'd'
asg18
S'Y'
sS'.thisRepN'
p982
I10
sg20
S'N'
sg31
g32
sS'.thisTrialN'
p983
I4
sS'.thisN'
p984
I114
sS'.thisIndex'
p985
I4
sg15
(lp986
S'k'
asg30
VF
sg17
S'N'
sg14
I3
sg19
Nsg94
I4
sa(dp987
g16
(lp988
S'd'
asg18
S'Y'
sS'.thisRepN'
p989
I10
sg20
S'N'
sg31
g32
sS'.thisTrialN'
p990
I5
sS'.thisN'
p991
I115
sS'.thisIndex'
p992
I0
sg15
(lp993
S'k'
asg30
VF
sg17
S'N'
sg14
I3
sg19
Nsg94
I0
sa(dp994
g16
(lp995
S'k'
asg18
S'N'
sS'.thisRepN'
p996
I10
sg20
S'N'
sg31
g32
sS'.thisTrialN'
p997
I6
sS'.thisN'
p998
I116
sS'.thisIndex'
p999
I3
sg15
(lp1000
S'k'
asg30
VF
sg17
S'Y'
sg14
I3
sg19
(lp1001
S'd'
asg94
I3
sa(dp1002
g16
(lp1003
S'k'
asg18
S'N'
sS'.thisRepN'
p1004
I10
sg20
S'Y'
sg31
g32
sS'.thisTrialN'
p1005
I7
sS'.thisN'
p1006
I117
sS'.thisIndex'
p1007
I9
sg15
(lp1008
S'k'
asg30
VF
sg17
S'Y'
sg14
I3
sg19
Nsg94
I9
sa(dp1009
g16
(lp1010
S'k'
asg18
S'Y'
sS'.thisRepN'
p1011
I10
sg20
S'N'
sg31
g32
sS'.thisTrialN'
p1012
I8
sS'.thisN'
p1013
I118
sS'.thisIndex'
p1014
I5
sg15
(lp1015
S'k'
asg30
VF
sg17
S'Y'
sg14
I3
sg19
Nsg94
I5
sa(dp1016
g16
(lp1017
S'd'
asg18
S'Y'
sS'.thisRepN'
p1018
I10
sg20
S'Y'
sg31
g32
sS'.thisTrialN'
p1019
I9
sS'.thisN'
p1020
I119
sS'.thisIndex'
p1021
I2
sg15
(lp1022
S'd'
asg30
VF
sg17
S'Y'
sg14
I3
sg19
(lp1023
S'space'
p1024
asg94
I2
sa(dp1025
g16
(lp1026
S'd'
asg18
S'Y'
sS'.thisRepN'
p1027
I10
sg20
S'N'
sg31
g32
sS'.thisTrialN'
p1028
I10
sS'.thisN'
p1029
I120
sS'.thisIndex'
p1030
I2
sg15
(lp1031
S'd'
asg30
VF
sg17
S'Y'
sg14
I3
sg19
Nsg94
I2
sa(dp1032
g16
(lp1033
S'k'
asg18
S'N'
sS'.thisRepN'
p1034
I11
sg20
S'Y'
sg31
g32
sS'.thisTrialN'
p1035
I0
sS'.thisN'
p1036
I121
sS'.thisIndex'
p1037
I1
sg15
(lp1038
S'k'
asg30
VF
sg17
S'Y'
sg14
I3
sg19
Nsg94
I1
sa(dp1039
g16
(lp1040
S'd'
asg18
S'N'
sS'.thisRepN'
p1041
I11
sg20
S'Y'
sg31
g32
sS'.thisTrialN'
p1042
I1
sS'.thisN'
p1043
I122
sS'.thisIndex'
p1044
I3
sg15
(lp1045
S'd'
asg30
VF
sg17
S'Y'
sg14
I3
sg19
Nsg94
I3
sa(dp1046
g16
(lp1047
S'd'
asg18
S'N'
sS'.thisRepN'
p1048
I11
sg20
S'Y'
sg31
g32
sS'.thisTrialN'
p1049
I2
sS'.thisN'
p1050
I123
sS'.thisIndex'
p1051
I3
sg15
(lp1052
S'k'
asg30
VF
sg17
S'N'
sg14
I3
sg19
Nsg94
I3
sa(dp1053
g16
(lp1054
S'd'
asg18
S'N'
sS'.thisRepN'
p1055
I11
sg20
S'Y'
sg31
g32
sS'.thisTrialN'
p1056
I3
sS'.thisN'
p1057
I124
sS'.thisIndex'
p1058
I2
sg15
(lp1059
S'd'
asg30
VF
sg17
S'Y'
sg14
I3
sg19
Nsg94
I2
sa(dp1060
g16
(lp1061
S'd'
asg18
S'Y'
sS'.thisRepN'
p1062
I11
sg20
S'N'
sg31
g32
sS'.thisTrialN'
p1063
I4
sS'.thisN'
p1064
I125
sS'.thisIndex'
p1065
I2
sg15
(lp1066
S'd'
asg30
VF
sg17
S'Y'
sg14
I3
sg19
Nsg94
I2
sa(dp1067
g16
(lp1068
S'k'
asg18
S'Y'
sS'.thisRepN'
p1069
I11
sg20
S'Y'
sg31
g32
sS'.thisTrialN'
p1070
I5
sS'.thisN'
p1071
I126
sS'.thisIndex'
p1072
I1
sg15
(lp1073
S'k'
asg30
VF
sg17
S'Y'
sg14
I3
sg19
(lp1074
S'space'
p1075
asg94
I1
sa(dp1076
g16
(lp1077
S'd'
asg18
S'N'
sS'.thisRepN'
p1078
I11
sg20
S'Y'
sg31
g32
sS'.thisTrialN'
p1079
I6
sS'.thisN'
p1080
I127
sS'.thisIndex'
p1081
I6
sg15
(lp1082
S'd'
asg30
VF
sg17
S'Y'
sg14
I3
sg19
Nsg94
I6
sa(dp1083
g16
(lp1084
S'd'
asg18
S'Y'
sS'.thisRepN'
p1085
I11
sg20
S'Y'
sg31
g32
sS'.thisTrialN'
p1086
I7
sS'.thisN'
p1087
I128
sS'.thisIndex'
p1088
I0
sg15
(lp1089
S'd'
asg30
VF
sg17
S'Y'
sg14
I3
sg19
(lp1090
S'space'
p1091
asg94
I0
sa(dp1092
g16
(lp1093
S'k'
asg18
S'Y'
sS'.thisRepN'
p1094
I11
sg20
S'Y'
sg31
g32
sS'.thisTrialN'
p1095
I8
sS'.thisN'
p1096
I129
sS'.thisIndex'
p1097
I5
sg15
(lp1098
S'k'
asg30
VF
sg17
S'Y'
sg14
I3
sg19
(lp1099
S'space'
p1100
asg94
I5
sa(dp1101
g16
(lp1102
S'd'
asg18
S'Y'
sS'.thisRepN'
p1103
I11
sg20
S'Y'
sg31
g32
sS'.thisTrialN'
p1104
I9
sS'.thisN'
p1105
I130
sS'.thisIndex'
p1106
I8
sg15
(lp1107
S'd'
asg30
VF
sg17
S'Y'
sg14
I3
sg19
(lp1108
S'space'
p1109
asg94
I8
sa(dp1110
g16
(lp1111
S'd'
asg18
S'Y'
sS'.thisRepN'
p1112
I11
sg20
S'Y'
sg31
g32
sS'.thisTrialN'
p1113
I10
sS'.thisN'
p1114
I131
sS'.thisIndex'
p1115
I2
sg15
(lp1116
S'd'
asg30
VF
sg17
S'Y'
sg14
I3
sg19
(lp1117
S'space'
p1118
asg94
I2
sa(dp1119
g16
(lp1120
S'k'
asg18
S'Y'
sS'.thisRepN'
p1121
I12
sg20
S'Y'
sg31
g32
sS'.thisTrialN'
p1122
I0
sS'.thisN'
p1123
I132
sS'.thisIndex'
p1124
I1
sg15
(lp1125
S'k'
asg30
VF
sg17
S'Y'
sg14
I3
sg19
(lp1126
S'space'
p1127
asg94
I1
sa(dp1128
g16
(lp1129
S'd'
asg18
S'Y'
sS'.thisRepN'
p1130
I12
sg20
S'Y'
sg31
g32
sS'.thisTrialN'
p1131
I1
sS'.thisN'
p1132
I133
sS'.thisIndex'
p1133
I2
sg15
(lp1134
S'd'
asg30
VF
sg17
S'Y'
sg14
I3
sg19
(lp1135
S'space'
p1136
asg94
I2
sa(dp1137
g16
(lp1138
S'k'
asg18
S'N'
sS'.thisRepN'
p1139
I12
sg20
S'Y'
sg31
g32
sS'.thisTrialN'
p1140
I2
sS'.thisN'
p1141
I134
sS'.thisIndex'
p1142
I7
sg15
(lp1143
S'k'
asg30
VF
sg17
S'Y'
sg14
I3
sg19
Nsg94
I7
sa(dp1144
g16
(lp1145
S'd'
asg18
S'N'
sS'.thisRepN'
p1146
I12
sg20
S'Y'
sg31
g32
sS'.thisTrialN'
p1147
I3
sS'.thisN'
p1148
I135
sS'.thisIndex'
p1149
I9
sg15
(lp1150
S'd'
asg30
VF
sg17
S'Y'
sg14
I3
sg19
Nsg94
I9
sa(dp1151
g16
(lp1152
S'k'
asg18
S'N'
sS'.thisRepN'
p1153
I12
sg20
S'N'
sg31
g32
sS'.thisTrialN'
p1154
I4
sS'.thisN'
p1155
I136
sS'.thisIndex'
p1156
I9
sg15
(lp1157
S'k'
asg30
VF
sg17
S'Y'
sg14
I3
sg19
(lp1158
S'space'
p1159
asg94
I9
sa(dp1160
g16
(lp1161
S'd'
asg18
S'Y'
sS'.thisRepN'
p1162
I12
sg20
S'Y'
sg31
g32
sS'.thisTrialN'
p1163
I5
sS'.thisN'
p1164
I137
sS'.thisIndex'
p1165
I7
sg15
(lp1166
S'd'
asg30
VF
sg17
S'Y'
sg14
I3
sg19
(lp1167
S'space'
p1168
asg94
I7
sa(dp1169
g16
(lp1170
S'd'
asg18
S'N'
sS'.thisRepN'
p1171
I12
sg20
S'Y'
sg31
g32
sS'.thisTrialN'
p1172
I6
sS'.thisN'
p1173
I138
sS'.thisIndex'
p1174
I9
sg15
(lp1175
S'd'
asg30
VF
sg17
S'Y'
sg14
I3
sg19
Nsg94
I9
sa(dp1176
g16
(lp1177
S'k'
asg18
S'N'
sS'.thisRepN'
p1178
I12
sg20
S'Y'
sg31
g32
sS'.thisTrialN'
p1179
I7
sS'.thisN'
p1180
I139
sS'.thisIndex'
p1181
I8
sg15
(lp1182
S'k'
asg30
VF
sg17
S'Y'
sg14
I3
sg19
Nsg94
I8
sa(dp1183
g16
(lp1184
S'k'
asg18
S'N'
sS'.thisRepN'
p1185
I12
sg20
S'N'
sg31
g32
sS'.thisTrialN'
p1186
I8
sS'.thisN'
p1187
I140
sS'.thisIndex'
p1188
I8
sg15
(lp1189
S'k'
asg30
VF
sg17
S'Y'
sg14
I3
sg19
(lp1190
S'space'
p1191
asg94
I8
sa(dp1192
g16
(lp1193
S'k'
asg18
S'Y'
sS'.thisRepN'
p1194
I12
sg20
S'Y'
sg31
g32
sS'.thisTrialN'
p1195
I9
sS'.thisN'
p1196
I141
sS'.thisIndex'
p1197
I9
sg15
(lp1198
S'k'
asg30
VF
sg17
S'Y'
sg14
I3
sg19
(lp1199
S'space'
p1200
asg94
I9
sa(dp1201
g16
(lp1202
S'k'
asg18
S'Y'
sS'.thisRepN'
p1203
I12
sg20
S'Y'
sg31
g32
sS'.thisTrialN'
p1204
I10
sS'.thisN'
p1205
I142
sS'.thisIndex'
p1206
I5
sg15
(lp1207
S'k'
asg30
VF
sg17
S'Y'
sg14
I3
sg19
(lp1208
S'space'
p1209
asg94
I5
sa(dp1210
g16
(lp1211
S'd'
asg18
S'Y'
sS'.thisRepN'
p1212
I13
sg20
S'Y'
sg31
g32
sS'.thisTrialN'
p1213
I0
sS'.thisN'
p1214
I143
sS'.thisIndex'
p1215
I7
sg15
(lp1216
S'd'
asg30
VF
sg17
S'Y'
sg14
I3
sg19
(lp1217
S'space'
p1218
asg94
I7
sa(dp1219
g16
(lp1220
S'k'
asg18
S'N'
sS'.thisRepN'
p1221
I13
sg20
S'Y'
sg31
g32
sS'.thisTrialN'
p1222
I1
sS'.thisN'
p1223
I144
sS'.thisIndex'
p1224
I5
sg15
(lp1225
S'k'
asg30
VF
sg17
S'Y'
sg14
I3
sg19
Nsg94
I5
sa(dp1226
g16
(lp1227
S'd'
asg18
S'N'
sS'.thisRepN'
p1228
I13
sg20
S'Y'
sg31
g32
sS'.thisTrialN'
p1229
I2
sS'.thisN'
p1230
I145
sS'.thisIndex'
p1231
I2
sg15
(lp1232
S'd'
asg30
VF
sg17
S'Y'
sg14
I3
sg19
Nsg94
I2
sa(dp1233
g16
(lp1234
S'd'
asg18
S'Y'
sS'.thisRepN'
p1235
I13
sg20
S'Y'
sg31
g32
sS'.thisTrialN'
p1236
I3
sS'.thisN'
p1237
I146
sS'.thisIndex'
p1238
I6
sg15
(lp1239
S'd'
asg30
VF
sg17
S'Y'
sg14
I3
sg19
(lp1240
S'space'
p1241
asg94
I6
sa(dp1242
g16
(lp1243
S'd'
asg18
S'Y'
sS'.thisRepN'
p1244
I13
sg20
S'N'
sg31
g32
sS'.thisTrialN'
p1245
I4
sS'.thisN'
p1246
I147
sS'.thisIndex'
p1247
I2
sg15
(lp1248
S'd'
asg30
VF
sg17
S'Y'
sg14
I3
sg19
Nsg94
I2
sa(dp1249
g16
(lp1250
S'd'
asg18
S'N'
sS'.thisRepN'
p1251
I13
sg20
S'Y'
sg31
g32
sS'.thisTrialN'
p1252
I5
sS'.thisN'
p1253
I148
sS'.thisIndex'
p1254
I0
sg15
(lp1255
S'd'
asg30
VF
sg17
S'Y'
sg14
I3
sg19
Nsg94
I0
sa(dp1256
g16
(lp1257
S'k'
asg18
S'N'
sg22
I38
sS'.thisN'
p1258
I149
sg20
S'Y'
sg31
g32
sS'.thisTrialN'
p1259
I6
sS'.thisRepN'
p1260
I13
sg21
I40
sS'.thisIndex'
p1261
I5
sg23
I23
sg15
(lp1262
S'k'
asg30
VF
sg17
S'Y'
sg14
I3
sg19
Nsg94
I5
sa(dp1263
g16
(lp1264
S'k'
asg94
I4
sS'.thisRepN'
p1265
I13
sg30
VF
sg31
g32
sS'.thisTrialN'
p1266
I7
sS'.thisN'
p1267
I150
sS'.thisIndex'
p1268
I4
sg15
(lp1269
S'k'
asg17
S'Y'
sg14
I4
sa(dp1270
g16
(lp1271
S'k'
asg94
I6
sS'.thisRepN'
p1272
I13
sg30
VF
sg31
g32
sS'.thisTrialN'
p1273
I8
sS'.thisN'
p1274
I151
sS'.thisIndex'
p1275
I6
sg15
(lp1276
S'k'
asg17
S'Y'
sg14
I4
sa(dp1277
g16
(lp1278
S'd'
asg18
S'Y'
sS'.thisRepN'
p1279
I13
sg20
S'Y'
sg31
g32
sS'.thisTrialN'
p1280
I9
sS'.thisN'
p1281
I152
sS'.thisIndex'
p1282
I6
sg15
(lp1283
S'd'
asg30
VF
sg17
S'Y'
sg14
I4
sg19
(lp1284
S'space'
p1285
asg94
I6
sa(dp1286
g16
(lp1287
S'k'
asg18
S'Y'
sS'.thisRepN'
p1288
I13
sg20
S'Y'
sg31
g32
sS'.thisTrialN'
p1289
I10
sS'.thisN'
p1290
I153
sS'.thisIndex'
p1291
I2
sg15
(lp1292
S'k'
asg30
VF
sg17
S'Y'
sg14
I4
sg19
(lp1293
S'space'
p1294
asg94
I2
sa(dp1295
g16
(lp1296
S'd'
asg18
S'Y'
sS'.thisRepN'
p1297
I14
sg20
S'Y'
sg31
g32
sS'.thisTrialN'
p1298
I0
sS'.thisN'
p1299
I154
sS'.thisIndex'
p1300
I0
sg15
(lp1301
S'd'
asg30
VF
sg17
S'Y'
sg14
I4
sg19
(lp1302
S'space'
p1303
asg94
I0
sa(dp1304
g16
(lp1305
S'k'
asg18
S'Y'
sS'.thisRepN'
p1306
I14
sg20
S'Y'
sg31
g32
sS'.thisTrialN'
p1307
I1
sS'.thisN'
p1308
I155
sS'.thisIndex'
p1309
I9
sg15
(lp1310
S'k'
asg30
VF
sg17
S'Y'
sg14
I4
sg19
(lp1311
S'space'
p1312
asg94
I9
sa(dp1313
g16
(lp1314
S'k'
asg18
S'N'
sS'.thisRepN'
p1315
I14
sg20
S'Y'
sg31
g32
sS'.thisTrialN'
p1316
I2
sS'.thisN'
p1317
I156
sS'.thisIndex'
p1318
I0
sg15
(lp1319
S'k'
asg30
VF
sg17
S'Y'
sg14
I4
sg19
Nsg94
I0
sa(dp1320
g16
(lp1321
S'k'
asg18
S'Y'
sS'.thisRepN'
p1322
I14
sg20
S'Y'
sg31
g32
sS'.thisTrialN'
p1323
I3
sS'.thisN'
p1324
I157
sS'.thisIndex'
p1325
I2
sg15
(lp1326
S'k'
asg30
VF
sg17
S'Y'
sg14
I4
sg19
(lp1327
S'space'
p1328
asg94
I2
sa(dp1329
g16
(lp1330
S'd'
asg18
S'Y'
sS'.thisRepN'
p1331
I14
sg20
S'Y'
sg31
g32
sS'.thisTrialN'
p1332
I4
sS'.thisN'
p1333
I158
sS'.thisIndex'
p1334
I0
sg15
(lp1335
S'd'
asg30
VF
sg17
S'Y'
sg14
I4
sg19
(lp1336
S'space'
p1337
asg94
I0
sa(dp1338
g16
(lp1339
S'd'
asg18
S'N'
sS'.thisRepN'
p1340
I14
sg20
S'Y'
sg31
g32
sS'.thisTrialN'
p1341
I5
sS'.thisN'
p1342
I159
sS'.thisIndex'
p1343
I2
sg15
(lp1344
S'd'
asg30
VF
sg17
S'Y'
sg14
I4
sg19
Nsg94
I2
sa(dp1345
g16
(lp1346
S'd'
asg18
S'Y'
sS'.thisRepN'
p1347
I14
sg20
S'Y'
sg31
g32
sS'.thisTrialN'
p1348
I6
sS'.thisN'
p1349
I160
sS'.thisIndex'
p1350
I8
sg15
(lp1351
S'd'
asg30
VF
sg17
S'Y'
sg14
I4
sg19
(lp1352
S'space'
p1353
asg94
I8
sa(dp1354
g16
(lp1355
S'd'
asg18
S'Y'
sS'.thisRepN'
p1356
I14
sg20
S'Y'
sg31
g32
sS'.thisTrialN'
p1357
I7
sS'.thisN'
p1358
I161
sS'.thisIndex'
p1359
I10
sg15
(lp1360
S'k'
asg30
VF
sg17
S'N'
sg14
I4
sg19
(lp1361
S'space'
p1362
asg94
I10
sa(dp1363
g16
(lp1364
S'd'
asg18
S'N'
sS'.thisRepN'
p1365
I14
sg20
S'Y'
sg31
g32
sS'.thisTrialN'
p1366
I8
sS'.thisN'
p1367
I162
sS'.thisIndex'
p1368
I0
sg15
(lp1369
S'd'
asg30
VF
sg17
S'Y'
sg14
I4
sg19
Nsg94
I0
sa(dp1370
g16
(lp1371
S'k'
asg18
S'Y'
sS'.thisRepN'
p1372
I14
sg20
S'Y'
sg31
g32
sS'.thisTrialN'
p1373
I9
sS'.thisN'
p1374
I163
sS'.thisIndex'
p1375
I10
sg15
(lp1376
S'k'
asg30
VF
sg17
S'Y'
sg14
I4
sg19
(lp1377
S'space'
p1378
asg94
I10
sa(dp1379
g16
(lp1380
S'd'
asg18
S'N'
sS'.thisRepN'
p1381
I14
sg20
S'Y'
sg31
g32
sS'.thisTrialN'
p1382
I10
sS'.thisN'
p1383
I164
sS'.thisIndex'
p1384
I10
sg15
(lp1385
S'd'
asg30
VF
sg17
S'Y'
sg14
I4
sg19
Nsg94
I10
sa(dp1386
g16
(lp1387
S'd'
asg18
S'Y'
sS'.thisRepN'
p1388
I15
sg20
S'N'
sg31
g32
sS'.thisTrialN'
p1389
I0
sS'.thisN'
p1390
I165
sS'.thisIndex'
p1391
I4
sg15
(lp1392
S'd'
asg30
VF
sg17
S'Y'
sg14
I4
sg19
Nsg94
I4
sa(dp1393
g16
(lp1394
S'k'
asg18
S'N'
sS'.thisRepN'
p1395
I15
sg20
S'Y'
sg31
g32
sS'.thisTrialN'
p1396
I1
sS'.thisN'
p1397
I166
sS'.thisIndex'
p1398
I6
sg15
(lp1399
S'k'
asg30
VF
sg17
S'Y'
sg14
I4
sg19
Nsg94
I6
sa(dp1400
g16
(lp1401
S'd'
asg18
S'Y'
sS'.thisRepN'
p1402
I15
sg20
S'Y'
sg31
g32
sS'.thisTrialN'
p1403
I2
sS'.thisN'
p1404
I167
sS'.thisIndex'
p1405
I9
sg15
(lp1406
S'd'
asg30
VF
sg17
S'Y'
sg14
I4
sg19
(lp1407
S'space'
p1408
asg94
I9
sa(dp1409
g16
(lp1410
S'k'
asg18
S'Y'
sS'.thisRepN'
p1411
I15
sg20
S'Y'
sg31
g32
sS'.thisTrialN'
p1412
I3
sS'.thisN'
p1413
I168
sS'.thisIndex'
p1414
I7
sg15
(lp1415
S'k'
asg30
VF
sg17
S'Y'
sg14
I4
sg19
(lp1416
S'space'
p1417
asg94
I7
sa(dp1418
g16
(lp1419
S'k'
asg18
S'N'
sS'.thisRepN'
p1420
I15
sg20
S'Y'
sg31
g32
sS'.thisTrialN'
p1421
I4
sS'.thisN'
p1422
I169
sS'.thisIndex'
p1423
I8
sg15
(lp1424
S'k'
asg30
VF
sg17
S'Y'
sg14
I4
sg19
Nsg94
I8
sa(dp1425
g16
(lp1426
S'd'
asg18
S'N'
sS'.thisRepN'
p1427
I15
sg20
S'Y'
sg31
g32
sS'.thisTrialN'
p1428
I5
sS'.thisN'
p1429
I170
sS'.thisIndex'
p1430
I0
sg15
(lp1431
S'd'
asg30
VF
sg17
S'Y'
sg14
I4
sg19
Nsg94
I0
sa(dp1432
g16
(lp1433
S'd'
asg18
S'N'
sS'.thisRepN'
p1434
I15
sg20
S'Y'
sg31
g32
sS'.thisTrialN'
p1435
I6
sS'.thisN'
p1436
I171
sS'.thisIndex'
p1437
I5
sg15
(lp1438
S'd'
asg30
VF
sg17
S'Y'
sg14
I4
sg19
Nsg94
I5
sa(dp1439
g16
(lp1440
S'd'
asg18
S'Y'
sS'.thisRepN'
p1441
I15
sg20
S'Y'
sg31
g32
sS'.thisTrialN'
p1442
I7
sS'.thisN'
p1443
I172
sS'.thisIndex'
p1444
I4
sg15
(lp1445
S'd'
asg30
VF
sg17
S'Y'
sg14
I4
sg19
(lp1446
S'space'
p1447
asg94
I4
sa(dp1448
g16
(lp1449
S'd'
asg18
S'N'
sS'.thisRepN'
p1450
I15
sg20
S'Y'
sg31
g32
sS'.thisTrialN'
p1451
I8
sS'.thisN'
p1452
I173
sS'.thisIndex'
p1453
I5
sg15
(lp1454
S'd'
asg30
VF
sg17
S'Y'
sg14
I4
sg19
Nsg94
I5
sa(dp1455
g16
(lp1456
S'd'
asg18
S'Y'
sS'.thisRepN'
p1457
I15
sg20
S'N'
sg31
g32
sS'.thisTrialN'
p1458
I9
sS'.thisN'
p1459
I174
sS'.thisIndex'
p1460
I6
sg15
(lp1461
S'k'
asg30
VF
sg17
S'N'
sg14
I4
sg19
Nsg94
I6
sa(dp1462
g16
(lp1463
S'd'
asg18
S'Y'
sS'.thisRepN'
p1464
I15
sg20
S'Y'
sg31
g32
sS'.thisTrialN'
p1465
I10
sS'.thisN'
p1466
I175
sS'.thisIndex'
p1467
I5
sg15
(lp1468
S'k'
asg30
VF
sg17
S'N'
sg14
I4
sg19
(lp1469
S'space'
p1470
asg94
I5
sa(dp1471
g16
(lp1472
S'd'
asg18
S'N'
sS'.thisRepN'
p1473
I16
sg20
S'N'
sg31
g32
sS'.thisTrialN'
p1474
I0
sS'.thisN'
p1475
I176
sS'.thisIndex'
p1476
I1
sg15
(lp1477
S'd'
asg30
VF
sg17
S'Y'
sg14
I4
sg19
(lp1478
S'space'
p1479
asg94
I1
sa(dp1480
g16
(lp1481
S'k'
asg18
S'Y'
sS'.thisRepN'
p1482
I16
sg20
S'Y'
sg31
g32
sS'.thisTrialN'
p1483
I1
sS'.thisN'
p1484
I177
sS'.thisIndex'
p1485
I0
sg15
(lp1486
S'k'
asg30
VF
sg17
S'Y'
sg14
I4
sg19
(lp1487
S'space'
p1488
asg94
I0
sa(dp1489
g16
(lp1490
S'k'
asg18
S'N'
sS'.thisRepN'
p1491
I16
sg20
S'Y'
sg31
g32
sS'.thisTrialN'
p1492
I2
sS'.thisN'
p1493
I178
sS'.thisIndex'
p1494
I7
sg15
(lp1495
S'k'
asg30
VF
sg17
S'Y'
sg14
I4
sg19
Nsg94
I7
sa(dp1496
g16
(lp1497
S'd'
asg18
S'Y'
sS'.thisRepN'
p1498
I16
sg20
S'Y'
sg31
g32
sS'.thisTrialN'
p1499
I3
sS'.thisN'
p1500
I179
sS'.thisIndex'
p1501
I8
sg15
(lp1502
S'd'
asg30
VF
sg17
S'Y'
sg14
I4
sg19
(lp1503
S'space'
p1504
asg94
I8
sa(dp1505
g16
(lp1506
S'd'
asg18
S'N'
sS'.thisRepN'
p1507
I16
sg20
S'Y'
sg31
g32
sS'.thisTrialN'
p1508
I4
sS'.thisN'
p1509
I180
sS'.thisIndex'
p1510
I5
sg15
(lp1511
S'd'
asg30
VF
sg17
S'Y'
sg14
I4
sg19
Nsg94
I5
sa(dp1512
g16
(lp1513
S'd'
asg18
S'Y'
sS'.thisRepN'
p1514
I16
sg20
S'N'
sg31
g32
sS'.thisTrialN'
p1515
I5
sS'.thisN'
p1516
I181
sS'.thisIndex'
p1517
I9
sg15
(lp1518
S'd'
asg30
VF
sg17
S'Y'
sg14
I4
sg19
Nsg94
I9
sa(dp1519
g16
(lp1520
S'k'
asg18
S'N'
sS'.thisRepN'
p1521
I16
sg20
S'Y'
sg31
g32
sS'.thisTrialN'
p1522
I6
sS'.thisN'
p1523
I182
sS'.thisIndex'
p1524
I10
sg15
(lp1525
S'k'
asg30
VF
sg17
S'Y'
sg14
I4
sg19
Nsg94
I10
sa(dp1526
g16
(lp1527
S'k'
asg18
S'Y'
sS'.thisRepN'
p1528
I16
sg20
S'Y'
sg31
g32
sS'.thisTrialN'
p1529
I7
sS'.thisN'
p1530
I183
sS'.thisIndex'
p1531
I7
sg15
(lp1532
S'k'
asg30
VF
sg17
S'Y'
sg14
I4
sg19
(lp1533
S'space'
p1534
asg94
I7
sa(dp1535
g16
(lp1536
S'k'
asg18
S'N'
sS'.thisRepN'
p1537
I16
sg20
S'Y'
sg31
g32
sS'.thisTrialN'
p1538
I8
sS'.thisN'
p1539
I184
sS'.thisIndex'
p1540
I0
sg15
(lp1541
S'k'
asg30
VF
sg17
S'Y'
sg14
I4
sg19
Nsg94
I0
sa(dp1542
g16
(lp1543
S'd'
asg18
S'N'
sS'.thisRepN'
p1544
I16
sg20
S'Y'
sg31
g32
sS'.thisTrialN'
p1545
I9
sS'.thisN'
p1546
I185
sS'.thisIndex'
p1547
I5
sg15
(lp1548
S'd'
asg30
VF
sg17
S'Y'
sg14
I4
sg19
Nsg94
I5
sa(dp1549
g16
(lp1550
S'k'
asg18
S'Y'
sS'.thisRepN'
p1551
I16
sg20
S'Y'
sg31
g32
sS'.thisTrialN'
p1552
I10
sS'.thisN'
p1553
I186
sS'.thisIndex'
p1554
I4
sg15
(lp1555
S'k'
asg30
VF
sg17
S'Y'
sg14
I4
sg19
(lp1556
S'space'
p1557
asg94
I4
sa(dp1558
g16
(lp1559
S'k'
asg18
S'Y'
sS'.thisRepN'
p1560
I17
sg20
S'Y'
sg31
g32
sS'.thisTrialN'
p1561
I0
sS'.thisN'
p1562
I187
sS'.thisIndex'
p1563
I6
sg15
(lp1564
S'k'
asg30
VF
sg17
S'Y'
sg14
I4
sg19
(lp1565
S'space'
p1566
asg94
I6
sa(dp1567
g16
(lp1568
S'k'
asg18
S'N'
sS'.thisRepN'
p1569
I17
sg20
S'Y'
sg31
g32
sS'.thisTrialN'
p1570
I1
sS'.thisN'
p1571
I188
sS'.thisIndex'
p1572
I1
sg15
(lp1573
S'k'
asg30
VF
sg17
S'Y'
sg14
I4
sg19
Nsg94
I1
sa(dp1574
g16
(lp1575
S'd'
asg18
S'Y'
sS'.thisRepN'
p1576
I17
sg20
S'Y'
sg31
g32
sS'.thisTrialN'
p1577
I2
sS'.thisN'
p1578
I189
sS'.thisIndex'
p1579
I1
sg15
(lp1580
S'd'
asg30
VF
sg17
S'Y'
sg14
I4
sg19
(lp1581
S'space'
p1582
asg94
I1
sa(dp1583
g16
(lp1584
S'k'
asg18
S'N'
sS'.thisRepN'
p1585
I17
sg20
S'Y'
sg31
g32
sS'.thisTrialN'
p1586
I3
sS'.thisN'
p1587
I190
sS'.thisIndex'
p1588
I9
sg15
(lp1589
S'k'
asg30
VF
sg17
S'Y'
sg14
I4
sg19
Nsg94
I9
sa(dp1590
g16
(lp1591
S'd'
asg18
S'Y'
sS'.thisRepN'
p1592
I17
sg20
S'Y'
sg31
g32
sS'.thisTrialN'
p1593
I4
sS'.thisN'
p1594
I191
sS'.thisIndex'
p1595
I9
sg15
(lp1596
S'd'
asg30
VF
sg17
S'Y'
sg14
I4
sg19
(lp1597
S'space'
p1598
asg94
I9
sa(dp1599
g16
(lp1600
S'k'
asg18
S'Y'
sS'.thisRepN'
p1601
I17
sg20
S'Y'
sg31
g32
sS'.thisTrialN'
p1602
I5
sS'.thisN'
p1603
I192
sS'.thisIndex'
p1604
I10
sg15
(lp1605
S'k'
asg30
VF
sg17
S'Y'
sg14
I4
sg19
(lp1606
S'space'
p1607
asg94
I10
sa(dp1608
g16
(lp1609
S'k'
asg18
S'N'
sS'.thisRepN'
p1610
I17
sg20
S'Y'
sg31
g32
sS'.thisTrialN'
p1611
I6
sS'.thisN'
p1612
I193
sS'.thisIndex'
p1613
I3
sg15
(lp1614
S'k'
asg30
VF
sg17
S'Y'
sg14
I4
sg19
Nsg94
I3
sa(dp1615
g16
(lp1616
S'd'
asg18
S'Y'
sS'.thisRepN'
p1617
I17
sg20
S'N'
sg31
g32
sS'.thisTrialN'
p1618
I7
sS'.thisN'
p1619
I194
sS'.thisIndex'
p1620
I1
sg15
(lp1621
S'd'
asg30
VF
sg17
S'Y'
sg14
I4
sg19
Nsg94
I1
sa(dp1622
g16
(lp1623
S'd'
asg18
S'N'
sS'.thisRepN'
p1624
I17
sg20
S'Y'
sg31
g32
sS'.thisTrialN'
p1625
I8
sS'.thisN'
p1626
I195
sS'.thisIndex'
p1627
I10
sg15
(lp1628
S'd'
asg30
VF
sg17
S'Y'
sg14
I4
sg19
Nsg94
I10
sa(dp1629
g16
(lp1630
S'k'
asg18
S'N'
sS'.thisRepN'
p1631
I17
sg20
S'Y'
sg31
g32
sS'.thisTrialN'
p1632
I9
sS'.thisN'
p1633
I196
sS'.thisIndex'
p1634
I5
sg15
(lp1635
S'k'
asg30
VF
sg17
S'Y'
sg14
I4
sg19
Nsg94
I5
sa(dp1636
g16
(lp1637
S'd'
asg18
S'N'
sS'.thisRepN'
p1638
I17
sg20
S'Y'
sg31
g32
sS'.thisTrialN'
p1639
I10
sS'.thisN'
p1640
I197
sS'.thisIndex'
p1641
I2
sg15
(lp1642
S'd'
asg30
VF
sg17
S'Y'
sg14
I4
sg19
Nsg94
I2
sa(dp1643
g16
(lp1644
S'k'
asg18
S'N'
sS'.thisRepN'
p1645
I18
sg20
S'Y'
sg31
g32
sS'.thisTrialN'
p1646
I0
sS'.thisN'
p1647
I198
sS'.thisIndex'
p1648
I6
sg15
(lp1649
S'k'
asg30
VF
sg17
S'Y'
sg14
I4
sg19
Nsg94
I6
sa(dp1650
g16
(lp1651
S'd'
asg18
S'N'
sg22
I43
sS'.thisN'
p1652
I199
sg20
S'Y'
sg31
g32
sS'.thisTrialN'
p1653
I1
sS'.thisRepN'
p1654
I18
sg21
I47
sS'.thisIndex'
p1655
I4
sg23
I25
sg15
(lp1656
S'd'
asg30
VF
sg17
S'Y'
sg14
I4
sg19
Nsg94
I4
sa(dp1657
g16
(lp1658
S'd'
asg94
I3
sS'.thisRepN'
p1659
I18
sg30
VF
sg31
g32
sS'.thisTrialN'
p1660
I2
sS'.thisN'
p1661
I200
sS'.thisIndex'
p1662
I3
sg15
(lp1663
S'd'
asg17
S'Y'
sg14
I5
sa(dp1664
g16
(lp1665
S'd'
asg94
I1
sS'.thisRepN'
p1666
I18
sg30
VF
sg31
g32
sS'.thisTrialN'
p1667
I3
sS'.thisN'
p1668
I201
sS'.thisIndex'
p1669
I1
sg15
(lp1670
S'k'
asg17
S'N'
sg14
I5
sa(dp1671
g16
(lp1672
S'k'
asg18
S'Y'
sS'.thisRepN'
p1673
I18
sg20
S'Y'
sg31
g32
sS'.thisTrialN'
p1674
I4
sS'.thisN'
p1675
I202
sS'.thisIndex'
p1676
I2
sg15
(lp1677
S'k'
asg30
VF
sg17
S'Y'
sg14
I5
sg19
(lp1678
S'space'
p1679
asg94
I2
sa(dp1680
g16
(lp1681
S'd'
asg18
S'Y'
sS'.thisRepN'
p1682
I18
sg20
S'Y'
sg31
g32
sS'.thisTrialN'
p1683
I5
sS'.thisN'
p1684
I203
sS'.thisIndex'
p1685
I4
sg15
(lp1686
S'k'
asg30
VF
sg17
S'N'
sg14
I5
sg19
(lp1687
S'space'
p1688
asg94
I4
sa(dp1689
g16
(lp1690
S'd'
asg18
S'Y'
sS'.thisRepN'
p1691
I18
sg20
S'Y'
sg31
g32
sS'.thisTrialN'
p1692
I6
sS'.thisN'
p1693
I204
sS'.thisIndex'
p1694
I7
sg15
(lp1695
S'd'
asg30
VF
sg17
S'Y'
sg14
I5
sg19
(lp1696
S'space'
p1697
asg94
I7
sa(dp1698
g16
(lp1699
S'k'
asg18
S'Y'
sS'.thisRepN'
p1700
I18
sg20
S'Y'
sg31
g32
sS'.thisTrialN'
p1701
I7
sS'.thisN'
p1702
I205
sS'.thisIndex'
p1703
I9
sg15
(lp1704
S'k'
asg30
VF
sg17
S'Y'
sg14
I5
sg19
(lp1705
S'space'
p1706
asg94
I9
sa(dp1707
g16
(lp1708
S'd'
asg18
S'N'
sS'.thisRepN'
p1709
I18
sg20
S'Y'
sg31
g32
sS'.thisTrialN'
p1710
I8
sS'.thisN'
p1711
I206
sS'.thisIndex'
p1712
I7
sg15
(lp1713
S'd'
asg30
VF
sg17
S'Y'
sg14
I5
sg19
Nsg94
I7
sa(dp1714
g16
(lp1715
S'k'
asg18
S'Y'
sS'.thisRepN'
p1716
I18
sg20
S'Y'
sg31
g32
sS'.thisTrialN'
p1717
I9
sS'.thisN'
p1718
I207
sS'.thisIndex'
p1719
I7
sg15
(lp1720
S'k'
asg30
VF
sg17
S'Y'
sg14
I5
sg19
(lp1721
S'space'
p1722
asg94
I7
sa(dp1723
g16
(lp1724
S'd'
asg18
S'Y'
sS'.thisRepN'
p1725
I18
sg20
S'N'
sg31
g32
sS'.thisTrialN'
p1726
I10
sS'.thisN'
p1727
I208
sS'.thisIndex'
p1728
I0
sg15
(lp1729
S'd'
asg30
VF
sg17
S'Y'
sg14
I5
sg19
Nsg94
I0
sa(dp1730
g16
(lp1731
S'd'
asg18
S'N'
sS'.thisRepN'
p1732
I19
sg20
S'Y'
sg31
g32
sS'.thisTrialN'
p1733
I0
sS'.thisN'
p1734
I209
sS'.thisIndex'
p1735
I5
sg15
(lp1736
S'd'
asg30
VF
sg17
S'Y'
sg14
I5
sg19
Nsg94
I5
sa(dp1737
g16
(lp1738
S'k'
asg18
S'N'
sS'.thisRepN'
p1739
I19
sg20
S'Y'
sg31
g32
sS'.thisTrialN'
p1740
I1
sS'.thisN'
p1741
I210
sS'.thisIndex'
p1742
I8
sg15
(lp1743
S'k'
asg30
VF
sg17
S'Y'
sg14
I5
sg19
Nsg94
I8
sa(dp1744
g16
(lp1745
S'd'
asg18
S'Y'
sS'.thisRepN'
p1746
I19
sg20
S'N'
sg31
g32
sS'.thisTrialN'
p1747
I2
sS'.thisN'
p1748
I211
sS'.thisIndex'
p1749
I8
sg15
(lp1750
S'd'
asg30
VF
sg17
S'Y'
sg14
I5
sg19
Nsg94
I8
sa(dp1751
g16
(lp1752
S'k'
asg18
S'N'
sS'.thisRepN'
p1753
I19
sg20
S'N'
sg31
g32
sS'.thisTrialN'
p1754
I3
sS'.thisN'
p1755
I212
sS'.thisIndex'
p1756
I7
sg15
(lp1757
S'k'
asg30
VF
sg17
S'Y'
sg14
I5
sg19
(lp1758
S'space'
p1759
asg94
I7
sa(dp1760
g16
(lp1761
S'k'
asg18
S'Y'
sS'.thisRepN'
p1762
I19
sg20
S'Y'
sg31
g32
sS'.thisTrialN'
p1763
I4
sS'.thisN'
p1764
I213
sS'.thisIndex'
p1765
I5
sg15
(lp1766
S'k'
asg30
VF
sg17
S'Y'
sg14
I5
sg19
(lp1767
S'space'
p1768
asg94
I5
sa(dp1769
g16
(lp1770
S'd'
asg18
S'Y'
sS'.thisRepN'
p1771
I19
sg20
S'Y'
sg31
g32
sS'.thisTrialN'
p1772
I5
sS'.thisN'
p1773
I214
sS'.thisIndex'
p1774
I10
sg15
(lp1775
S'd'
asg30
VF
sg17
S'Y'
sg14
I5
sg19
(lp1776
S'space'
p1777
asg94
I10
sa(dp1778
g16
(lp1779
S'd'
asg18
S'N'
sS'.thisRepN'
p1780
I19
sg20
S'Y'
sg31
g32
sS'.thisTrialN'
p1781
I6
sS'.thisN'
p1782
I215
sS'.thisIndex'
p1783
I4
sg15
(lp1784
S'd'
asg30
VF
sg17
S'Y'
sg14
I5
sg19
Nsg94
I4
sa(dp1785
g16
(lp1786
S'd'
asg18
S'Y'
sS'.thisRepN'
p1787
I19
sg20
S'Y'
sg31
g32
sS'.thisTrialN'
p1788
I7
sS'.thisN'
p1789
I216
sS'.thisIndex'
p1790
I10
sg15
(lp1791
S'k'
asg30
VF
sg17
S'N'
sg14
I5
sg19
(lp1792
S'space'
p1793
asg94
I10
sa(dp1794
g16
(lp1795
S'd'
asg18
S'Y'
sS'.thisRepN'
p1796
I19
sg20
S'Y'
sg31
g32
sS'.thisTrialN'
p1797
I8
sS'.thisN'
p1798
I217
sS'.thisIndex'
p1799
I6
sg15
(lp1800
S'd'
asg30
VF
sg17
S'Y'
sg14
I5
sg19
(lp1801
S'space'
p1802
asg94
I6
sa(dp1803
g16
(lp1804
S'k'
asg18
S'N'
sS'.thisRepN'
p1805
I19
sg20
S'Y'
sg31
g32
sS'.thisTrialN'
p1806
I9
sS'.thisN'
p1807
I218
sS'.thisIndex'
p1808
I6
sg15
(lp1809
S'k'
asg30
VF
sg17
S'Y'
sg14
I5
sg19
Nsg94
I6
sa(dp1810
g16
(lp1811
S'k'
asg18
S'N'
sS'.thisRepN'
p1812
I19
sg20
S'Y'
sg31
g32
sS'.thisTrialN'
p1813
I10
sS'.thisN'
p1814
I219
sS'.thisIndex'
p1815
I3
sg15
(lp1816
S'k'
asg30
VF
sg17
S'Y'
sg14
I5
sg19
Nsg94
I3
sa(dp1817
g16
(lp1818
S'k'
asg18
S'N'
sS'.thisRepN'
p1819
I20
sg20
S'Y'
sg31
g32
sS'.thisTrialN'
p1820
I0
sS'.thisN'
p1821
I220
sS'.thisIndex'
p1822
I1
sg15
(lp1823
S'k'
asg30
VF
sg17
S'Y'
sg14
I5
sg19
Nsg94
I1
sa(dp1824
g16
(lp1825
S'k'
asg18
S'N'
sS'.thisRepN'
p1826
I20
sg20
S'N'
sg31
g32
sS'.thisTrialN'
p1827
I1
sS'.thisN'
p1828
I221
sS'.thisIndex'
p1829
I1
sg15
(lp1830
S'k'
asg30
VF
sg17
S'Y'
sg14
I5
sg19
(lp1831
S'space'
p1832
asg94
I1
sa(dp1833
g16
(lp1834
S'd'
asg18
S'Y'
sS'.thisRepN'
p1835
I20
sg20
S'Y'
sg31
g32
sS'.thisTrialN'
p1836
I2
sS'.thisN'
p1837
I222
sS'.thisIndex'
p1838
I0
sg15
(lp1839
S'd'
asg30
VF
sg17
S'Y'
sg14
I5
sg19
(lp1840
S'space'
p1841
asg94
I0
sa(dp1842
g16
(lp1843
S'd'
asg18
S'N'
sS'.thisRepN'
p1844
I20
sg20
S'Y'
sg31
g32
sS'.thisTrialN'
p1845
I3
sS'.thisN'
p1846
I223
sS'.thisIndex'
p1847
I1
sg15
(lp1848
S'd'
asg30
VF
sg17
S'Y'
sg14
I5
sg19
Nsg94
I1
sa(dp1849
g16
(lp1850
S'k'
asg18
S'Y'
sS'.thisRepN'
p1851
I20
sg20
S'Y'
sg31
g32
sS'.thisTrialN'
p1852
I4
sS'.thisN'
p1853
I224
sS'.thisIndex'
p1854
I5
sg15
(lp1855
S'k'
asg30
VF
sg17
S'Y'
sg14
I5
sg19
(lp1856
S'space'
p1857
asg94
I5
sa(dp1858
g16
(lp1859
S'd'
asg18
S'Y'
sS'.thisRepN'
p1860
I20
sg20
S'N'
sg31
g32
sS'.thisTrialN'
p1861
I5
sS'.thisN'
p1862
I225
sS'.thisIndex'
p1863
I6
sg15
(lp1864
S'd'
asg30
VF
sg17
S'Y'
sg14
I5
sg19
(lp1865
S'd'
asg94
I6
sa(dp1866
g16
(lp1867
S'd'
asg18
S'N'
sS'.thisRepN'
p1868
I20
sg20
S'Y'
sg31
g32
sS'.thisTrialN'
p1869
I6
sS'.thisN'
p1870
I226
sS'.thisIndex'
p1871
I9
sg15
(lp1872
S'd'
asg30
VF
sg17
S'Y'
sg14
I5
sg19
Nsg94
I9
sa(dp1873
g16
(lp1874
S'k'
asg18
S'N'
sS'.thisRepN'
p1875
I20
sg20
S'Y'
sg31
g32
sS'.thisTrialN'
p1876
I7
sS'.thisN'
p1877
I227
sS'.thisIndex'
p1878
I6
sg15
(lp1879
S'k'
asg30
VF
sg17
S'Y'
sg14
I5
sg19
Nsg94
I6
sa(dp1880
g16
(lp1881
S'k'
asg18
S'N'
sS'.thisRepN'
p1882
I20
sg20
S'Y'
sg31
g32
sS'.thisTrialN'
p1883
I8
sS'.thisN'
p1884
I228
sS'.thisIndex'
p1885
I4
sg15
(lp1886
S'k'
asg30
VF
sg17
S'Y'
sg14
I5
sg19
Nsg94
I4
sa(dp1887
g16
(lp1888
S'k'
asg18
S'N'
sS'.thisRepN'
p1889
I20
sg20
S'Y'
sg31
g32
sS'.thisTrialN'
p1890
I9
sS'.thisN'
p1891
I229
sS'.thisIndex'
p1892
I8
sg15
(lp1893
S'k'
asg30
VF
sg17
S'Y'
sg14
I5
sg19
Nsg94
I8
sa(dp1894
g16
(lp1895
S'd'
asg18
S'N'
sS'.thisRepN'
p1896
I20
sg20
S'Y'
sg31
g32
sS'.thisTrialN'
p1897
I10
sS'.thisN'
p1898
I230
sS'.thisIndex'
p1899
I10
sg15
(lp1900
S'd'
asg30
VF
sg17
S'Y'
sg14
I5
sg19
Nsg94
I10
sa(dp1901
g16
(lp1902
S'k'
asg18
S'N'
sS'.thisRepN'
p1903
I21
sg20
S'Y'
sg31
g32
sS'.thisTrialN'
p1904
I0
sS'.thisN'
p1905
I231
sS'.thisIndex'
p1906
I5
sg15
(lp1907
S'd'
asg30
VF
sg17
S'N'
sg14
I5
sg19
Nsg94
I5
sa(dp1908
g16
(lp1909
S'k'
asg18
S'N'
sS'.thisRepN'
p1910
I21
sg20
S'Y'
sg31
g32
sS'.thisTrialN'
p1911
I1
sS'.thisN'
p1912
I232
sS'.thisIndex'
p1913
I0
sg15
(lp1914
S'k'
asg30
VF
sg17
S'Y'
sg14
I5
sg19
Nsg94
I0
sa(dp1915
g16
(lp1916
S'k'
asg18
S'N'
sS'.thisRepN'
p1917
I21
sg20
S'Y'
sg31
g32
sS'.thisTrialN'
p1918
I2
sS'.thisN'
p1919
I233
sS'.thisIndex'
p1920
I0
sg15
(lp1921
S'k'
asg30
VF
sg17
S'Y'
sg14
I5
sg19
Nsg94
I0
sa(dp1922
g16
(lp1923
S'k'
asg18
S'N'
sS'.thisRepN'
p1924
I21
sg20
S'Y'
sg31
g32
sS'.thisTrialN'
p1925
I3
sS'.thisN'
p1926
I234
sS'.thisIndex'
p1927
I6
sg15
(lp1928
S'd'
asg30
VF
sg17
S'N'
sg14
I5
sg19
Nsg94
I6
sa(dp1929
g16
(lp1930
S'd'
asg18
S'Y'
sS'.thisRepN'
p1931
I21
sg20
S'Y'
sg31
g32
sS'.thisTrialN'
p1932
I4
sS'.thisN'
p1933
I235
sS'.thisIndex'
p1934
I4
sg15
(lp1935
S'd'
asg30
VF
sg17
S'Y'
sg14
I5
sg19
(lp1936
S'space'
p1937
asg94
I4
sa(dp1938
g16
(lp1939
S'k'
asg18
S'N'
sS'.thisRepN'
p1940
I21
sg20
S'N'
sg31
g32
sS'.thisTrialN'
p1941
I5
sS'.thisN'
p1942
I236
sS'.thisIndex'
p1943
I3
sg15
(lp1944
S'k'
asg30
VF
sg17
S'Y'
sg14
I5
sg19
(lp1945
S'space'
p1946
asg94
I3
sa(dp1947
g16
(lp1948
S'k'
asg18
S'Y'
sS'.thisRepN'
p1949
I21
sg20
S'Y'
sg31
g32
sS'.thisTrialN'
p1950
I6
sS'.thisN'
p1951
I237
sS'.thisIndex'
p1952
I3
sg15
(lp1953
S'k'
asg30
VF
sg17
S'Y'
sg14
I5
sg19
(lp1954
S'space'
p1955
asg94
I3
sa(dp1956
g16
(lp1957
S'k'
asg18
S'Y'
sS'.thisRepN'
p1958
I21
sg20
S'Y'
sg31
g32
sS'.thisTrialN'
p1959
I7
sS'.thisN'
p1960
I238
sS'.thisIndex'
p1961
I6
sg15
(lp1962
S'd'
asg30
VF
sg17
S'N'
sg14
I5
sg19
(lp1963
S'space'
p1964
asg94
I6
sa(dp1965
g16
(lp1966
S'k'
asg18
S'Y'
sS'.thisRepN'
p1967
I21
sg20
S'Y'
sg31
g32
sS'.thisTrialN'
p1968
I8
sS'.thisN'
p1969
I239
sS'.thisIndex'
p1970
I10
sg15
(lp1971
S'k'
asg30
VF
sg17
S'Y'
sg14
I5
sg19
(lp1972
S'space'
p1973
asg94
I10
sa(dp1974
g16
(lp1975
S'k'
asg18
S'Y'
sS'.thisRepN'
p1976
I21
sg20
S'Y'
sg31
g32
sS'.thisTrialN'
p1977
I9
sS'.thisN'
p1978
I240
sS'.thisIndex'
p1979
I6
sg15
(lp1980
S'k'
asg30
VF
sg17
S'Y'
sg14
I5
sg19
(lp1981
S'space'
p1982
asg94
I6
sa(dp1983
g16
(lp1984
S'k'
asg18
S'N'
sS'.thisRepN'
p1985
I21
sg20
S'Y'
sg31
g32
sS'.thisTrialN'
p1986
I10
sS'.thisN'
p1987
I241
sS'.thisIndex'
p1988
I9
sg15
(lp1989
S'k'
asg30
VF
sg17
S'Y'
sg14
I5
sg19
Nsg94
I9
sa(dp1990
g16
(lp1991
S'k'
asg18
S'N'
sS'.thisRepN'
p1992
I22
sg20
S'N'
sg31
g32
sS'.thisTrialN'
p1993
I0
sS'.thisN'
p1994
I242
sS'.thisIndex'
p1995
I9
sg15
(lp1996
S'k'
asg30
VF
sg17
S'Y'
sg14
I5
sg19
(lp1997
S'space'
p1998
asg94
I9
sa(dp1999
g16
(lp2000
S'd'
asg18
S'Y'
sS'.thisRepN'
p2001
I22
sg20
S'Y'
sg31
g32
sS'.thisTrialN'
p2002
I1
sS'.thisN'
p2003
I243
sS'.thisIndex'
p2004
I10
sg15
(lp2005
S'd'
asg30
VF
sg17
S'Y'
sg14
I5
sg19
(lp2006
S'space'
p2007
asg94
I10
sa(dp2008
g16
(lp2009
S'd'
asg18
S'Y'
sS'.thisRepN'
p2010
I22
sg20
S'Y'
sg31
g32
sS'.thisTrialN'
p2011
I2
sS'.thisN'
p2012
I244
sS'.thisIndex'
p2013
I4
sg15
(lp2014
S'd'
asg30
VF
sg17
S'Y'
sg14
I5
sg19
(lp2015
S'space'
p2016
asg94
I4
sa(dp2017
g16
(lp2018
S'k'
asg18
S'Y'
sS'.thisRepN'
p2019
I22
sg20
S'Y'
sg31
g32
sS'.thisTrialN'
p2020
I3
sS'.thisN'
p2021
I245
sS'.thisIndex'
p2022
I9
sg15
(lp2023
S'k'
asg30
VF
sg17
S'Y'
sg14
I5
sg19
(lp2024
S'space'
p2025
asg94
I9
sa(dp2026
g16
(lp2027
S'd'
asg18
S'N'
sS'.thisRepN'
p2028
I22
sg20
S'Y'
sg31
g32
sS'.thisTrialN'
p2029
I4
sS'.thisN'
p2030
I246
sS'.thisIndex'
p2031
I6
sg15
(lp2032
S'd'
asg30
VF
sg17
S'Y'
sg14
I5
sg19
Nsg94
I6
sa(dp2033
g16
(lp2034
S'k'
asg18
S'Y'
sS'.thisRepN'
p2035
I22
sg20
S'Y'
sg31
g32
sS'.thisTrialN'
p2036
I5
sS'.thisN'
p2037
I247
sS'.thisIndex'
p2038
I7
sg15
(lp2039
S'k'
asg30
VF
sg17
S'Y'
sg14
I5
sg19
(lp2040
S'space'
p2041
asg94
I7
sa(dp2042
g16
(lp2043
S'k'
asg18
S'Y'
sS'.thisRepN'
p2044
I22
sg20
S'Y'
sg31
g32
sS'.thisTrialN'
p2045
I6
sS'.thisN'
p2046
I248
sS'.thisIndex'
p2047
I6
sg15
(lp2048
S'k'
asg30
VF
sg17
S'Y'
sg14
I5
sg19
(lp2049
S'space'
p2050
asg94
I6
sa(dp2051
g16
(lp2052
S'k'
asg18
S'N'
sg22
I41
sS'.thisN'
p2053
I249
sg20
S'Y'
sg31
g32
sS'.thisTrialN'
p2054
I7
sS'.thisRepN'
p2055
I22
sg21
I44
sS'.thisIndex'
p2056
I1
sg23
I24
sg15
(lp2057
S'k'
asg30
VF
sg17
S'Y'
sg14
I5
sg19
Nsg94
I1
sa(dp2058
g16
(lp2059
S'd'
asg94
I10
sS'.thisRepN'
p2060
I22
sg30
VF
sg31
g32
sS'.thisTrialN'
p2061
I8
sS'.thisN'
p2062
I250
sS'.thisIndex'
p2063
I10
sg15
(lp2064
S'd'
asg17
S'Y'
sg14
I6
sa(dp2065
g16
(lp2066
S'd'
asg94
I9
sS'.thisRepN'
p2067
I22
sg30
VF
sg31
g32
sS'.thisTrialN'
p2068
I9
sS'.thisN'
p2069
I251
sS'.thisIndex'
p2070
I9
sg15
(lp2071
S'd'
asg17
S'Y'
sg14
I6
sa(dp2072
g16
(lp2073
S'k'
asg18
S'Y'
sS'.thisRepN'
p2074
I22
sg20
S'Y'
sg31
g32
sS'.thisTrialN'
p2075
I10
sS'.thisN'
p2076
I252
sS'.thisIndex'
p2077
I1
sg15
(lp2078
S'd'
asg30
VF
sg17
S'N'
sg14
I6
sg19
(lp2079
S'space'
p2080
asg94
I1
sa(dp2081
g16
(lp2082
S'd'
asg18
S'Y'
sS'.thisRepN'
p2083
I23
sg20
S'Y'
sg31
g32
sS'.thisTrialN'
p2084
I0
sS'.thisN'
p2085
I253
sS'.thisIndex'
p2086
I4
sg15
(lp2087
S'd'
asg30
VF
sg17
S'Y'
sg14
I6
sg19
(lp2088
S'space'
p2089
asg94
I4
sa(dp2090
g16
(lp2091
S'd'
asg18
S'Y'
sS'.thisRepN'
p2092
I23
sg20
S'Y'
sg31
g32
sS'.thisTrialN'
p2093
I1
sS'.thisN'
p2094
I254
sS'.thisIndex'
p2095
I3
sg15
(lp2096
S'd'
asg30
VF
sg17
S'Y'
sg14
I6
sg19
(lp2097
S'space'
p2098
asg94
I3
sa(dp2099
g16
(lp2100
S'k'
asg18
S'Y'
sS'.thisRepN'
p2101
I23
sg20
S'Y'
sg31
g32
sS'.thisTrialN'
p2102
I2
sS'.thisN'
p2103
I255
sS'.thisIndex'
p2104
I6
sg15
(lp2105
S'k'
asg30
VF
sg17
S'Y'
sg14
I6
sg19
(lp2106
S'space'
p2107
asg94
I6
sa(dp2108
g16
(lp2109
S'k'
asg18
S'Y'
sS'.thisRepN'
p2110
I23
sg20
S'Y'
sg31
g32
sS'.thisTrialN'
p2111
I3
sS'.thisN'
p2112
I256
sS'.thisIndex'
p2113
I0
sg15
(lp2114
S'k'
asg30
VF
sg17
S'Y'
sg14
I6
sg19
(lp2115
S'space'
p2116
asg94
I0
sa(dp2117
g16
(lp2118
S'd'
asg18
S'Y'
sS'.thisRepN'
p2119
I23
sg20
S'Y'
sg31
g32
sS'.thisTrialN'
p2120
I4
sS'.thisN'
p2121
I257
sS'.thisIndex'
p2122
I5
sg15
(lp2123
S'd'
asg30
VF
sg17
S'Y'
sg14
I6
sg19
(lp2124
S'space'
p2125
asg94
I5
sa(dp2126
g16
(lp2127
S'k'
asg18
S'Y'
sS'.thisRepN'
p2128
I23
sg20
S'N'
sg31
g32
sS'.thisTrialN'
p2129
I5
sS'.thisN'
p2130
I258
sS'.thisIndex'
p2131
I5
sg15
(lp2132
S'k'
asg30
VF
sg17
S'Y'
sg14
I6
sg19
Nsg94
I5
sa(dp2133
g16
(lp2134
S'd'
asg18
S'N'
sS'.thisRepN'
p2135
I23
sg20
S'Y'
sg31
g32
sS'.thisTrialN'
p2136
I6
sS'.thisN'
p2137
I259
sS'.thisIndex'
p2138
I8
sg15
(lp2139
S'd'
asg30
VF
sg17
S'Y'
sg14
I6
sg19
Nsg94
I8
sa(dp2140
g16
(lp2141
S'd'
asg18
S'Y'
sS'.thisRepN'
p2142
I23
sg20
S'N'
sg31
g32
sS'.thisTrialN'
p2143
I7
sS'.thisN'
p2144
I260
sS'.thisIndex'
p2145
I10
sg15
(lp2146
S'd'
asg30
VF
sg17
S'Y'
sg14
I6
sg19
Nsg94
I10
sa(dp2147
g16
(lp2148
S'd'
asg18
S'Y'
sS'.thisRepN'
p2149
I23
sg20
S'N'
sg31
g32
sS'.thisTrialN'
p2150
I8
sS'.thisN'
p2151
I261
sS'.thisIndex'
p2152
I7
sg15
(lp2153
S'd'
asg30
VF
sg17
S'Y'
sg14
I6
sg19
Nsg94
I7
sa(dp2154
g16
(lp2155
S'd'
asg18
S'N'
sS'.thisRepN'
p2156
I23
sg20
S'N'
sg31
g32
sS'.thisTrialN'
p2157
I9
sS'.thisN'
p2158
I262
sS'.thisIndex'
p2159
I8
sg15
(lp2160
S'd'
asg30
VF
sg17
S'Y'
sg14
I6
sg19
(lp2161
S'space'
p2162
asg94
I8
sa(dp2163
g16
(lp2164
S'd'
asg18
S'Y'
sS'.thisRepN'
p2165
I23
sg20
S'Y'
sg31
g32
sS'.thisTrialN'
p2166
I10
sS'.thisN'
p2167
I263
sS'.thisIndex'
p2168
I6
sg15
(lp2169
S'k'
asg30
VF
sg17
S'N'
sg14
I6
sg19
(lp2170
S'space'
p2171
asg94
I6
sa(dp2172
g16
(lp2173
S'd'
asg18
S'N'
sS'.thisRepN'
p2174
I24
sg20
S'Y'
sg31
g32
sS'.thisTrialN'
p2175
I0
sS'.thisN'
p2176
I264
sS'.thisIndex'
p2177
I2
sg15
(lp2178
S'd'
asg30
VF
sg17
S'Y'
sg14
I6
sg19
Nsg94
I2
sa(dp2179
g16
(lp2180
S'd'
asg18
S'Y'
sS'.thisRepN'
p2181
I24
sg20
S'Y'
sg31
g32
sS'.thisTrialN'
p2182
I1
sS'.thisN'
p2183
I265
sS'.thisIndex'
p2184
I8
sg15
(lp2185
S'd'
asg30
VF
sg17
S'Y'
sg14
I6
sg19
(lp2186
S'space'
p2187
asg94
I8
sa(dp2188
g16
(lp2189
S'k'
asg18
S'N'
sS'.thisRepN'
p2190
I24
sg20
S'Y'
sg31
g32
sS'.thisTrialN'
p2191
I2
sS'.thisN'
p2192
I266
sS'.thisIndex'
p2193
I8
sg15
(lp2194
S'k'
asg30
VF
sg17
S'Y'
sg14
I6
sg19
Nsg94
I8
sa(dp2195
g16
(lp2196
S'd'
asg18
S'N'
sS'.thisRepN'
p2197
I24
sg20
S'Y'
sg31
g32
sS'.thisTrialN'
p2198
I3
sS'.thisN'
p2199
I267
sS'.thisIndex'
p2200
I5
sg15
(lp2201
S'd'
asg30
VF
sg17
S'Y'
sg14
I6
sg19
Nsg94
I5
sa(dp2202
g16
(lp2203
S'k'
asg18
S'N'
sS'.thisRepN'
p2204
I24
sg20
S'Y'
sg31
g32
sS'.thisTrialN'
p2205
I4
sS'.thisN'
p2206
I268
sS'.thisIndex'
p2207
I1
sg15
(lp2208
S'k'
asg30
VF
sg17
S'Y'
sg14
I6
sg19
Nsg94
I1
sa(dp2209
g16
(lp2210
S'k'
asg18
S'N'
sS'.thisRepN'
p2211
I24
sg20
S'Y'
sg31
g32
sS'.thisTrialN'
p2212
I5
sS'.thisN'
p2213
I269
sS'.thisIndex'
p2214
I3
sg15
(lp2215
S'k'
asg30
VF
sg17
S'Y'
sg14
I6
sg19
Nsg94
I3
sa(dp2216
g16
(lp2217
S'k'
asg18
S'N'
sS'.thisRepN'
p2218
I24
sg20
S'Y'
sg31
g32
sS'.thisTrialN'
p2219
I6
sS'.thisN'
p2220
I270
sS'.thisIndex'
p2221
I7
sg15
(lp2222
S'd'
asg30
VF
sg17
S'N'
sg14
I6
sg19
Nsg94
I7
sa(dp2223
g16
(lp2224
S'k'
asg18
S'Y'
sS'.thisRepN'
p2225
I24
sg20
S'Y'
sg31
g32
sS'.thisTrialN'
p2226
I7
sS'.thisN'
p2227
I271
sS'.thisIndex'
p2228
I8
sg15
(lp2229
S'k'
asg30
VF
sg17
S'Y'
sg14
I6
sg19
(lp2230
S'space'
p2231
asg94
I8
sa(dp2232
g16
(lp2233
S'd'
asg18
S'Y'
sS'.thisRepN'
p2234
I24
sg20
S'Y'
sg31
g32
sS'.thisTrialN'
p2235
I8
sS'.thisN'
p2236
I272
sS'.thisIndex'
p2237
I1
sg15
(lp2238
S'd'
asg30
VF
sg17
S'Y'
sg14
I6
sg19
(lp2239
S'space'
p2240
asg94
I1
sa(dp2241
g16
(lp2242
S'k'
asg18
S'Y'
sS'.thisRepN'
p2243
I24
sg20
S'Y'
sg31
g32
sS'.thisTrialN'
p2244
I9
sS'.thisN'
p2245
I273
sS'.thisIndex'
p2246
I10
sg15
(lp2247
S'k'
asg30
VF
sg17
S'Y'
sg14
I6
sg19
(lp2248
S'space'
p2249
asg94
I10
sa(dp2250
g16
(lp2251
S'k'
asg18
S'Y'
sS'.thisRepN'
p2252
I24
sg20
S'Y'
sg31
g32
sS'.thisTrialN'
p2253
I10
sS'.thisN'
p2254
I274
sS'.thisIndex'
p2255
I7
sg15
(lp2256
S'k'
asg30
VF
sg17
S'Y'
sg14
I6
sg19
(lp2257
S'space'
p2258
asg94
I7
sa(dp2259
g16
(lp2260
S'k'
asg18
S'N'
sS'.thisRepN'
p2261
I25
sg20
S'Y'
sg31
g32
sS'.thisTrialN'
p2262
I0
sS'.thisN'
p2263
I275
sS'.thisIndex'
p2264
I3
sg15
(lp2265
S'k'
asg30
VF
sg17
S'Y'
sg14
I6
sg19
Nsg94
I3
sa(dp2266
g16
(lp2267
S'd'
asg18
S'Y'
sS'.thisRepN'
p2268
I25
sg20
S'Y'
sg31
g32
sS'.thisTrialN'
p2269
I1
sS'.thisN'
p2270
I276
sS'.thisIndex'
p2271
I9
sg15
(lp2272
S'd'
asg30
VF
sg17
S'Y'
sg14
I6
sg19
(lp2273
S'space'
p2274
asg94
I9
sa(dp2275
g16
(lp2276
S'd'
asg18
S'Y'
sS'.thisRepN'
p2277
I25
sg20
S'Y'
sg31
g32
sS'.thisTrialN'
p2278
I2
sS'.thisN'
p2279
I277
sS'.thisIndex'
p2280
I1
sg15
(lp2281
S'k'
asg30
VF
sg17
S'N'
sg14
I6
sg19
(lp2282
S'space'
p2283
asg94
I1
sa(dp2284
g16
(lp2285
S'k'
asg18
S'Y'
sS'.thisRepN'
p2286
I25
sg20
S'Y'
sg31
g32
sS'.thisTrialN'
p2287
I3
sS'.thisN'
p2288
I278
sS'.thisIndex'
p2289
I5
sg15
(lp2290
S'k'
asg30
VF
sg17
S'Y'
sg14
I6
sg19
(lp2291
S'space'
p2292
asg94
I5
sa(dp2293
g16
(lp2294
S'd'
asg18
S'N'
sS'.thisRepN'
p2295
I25
sg20
S'Y'
sg31
g32
sS'.thisTrialN'
p2296
I4
sS'.thisN'
p2297
I279
sS'.thisIndex'
p2298
I6
sg15
(lp2299
S'd'
asg30
VF
sg17
S'Y'
sg14
I6
sg19
Nsg94
I6
sa(dp2300
g16
(lp2301
S'd'
asg18
S'Y'
sS'.thisRepN'
p2302
I25
sg20
S'Y'
sg31
g32
sS'.thisTrialN'
p2303
I5
sS'.thisN'
p2304
I280
sS'.thisIndex'
p2305
I9
sg15
(lp2306
S'd'
asg30
VF
sg17
S'Y'
sg14
I6
sg19
(lp2307
S'space'
p2308
asg94
I9
sa(dp2309
g16
(lp2310
S'k'
asg18
S'Y'
sS'.thisRepN'
p2311
I25
sg20
S'N'
sg31
g32
sS'.thisTrialN'
p2312
I6
sS'.thisN'
p2313
I281
sS'.thisIndex'
p2314
I9
sg15
(lp2315
S'k'
asg30
VF
sg17
S'Y'
sg14
I6
sg19
Nsg94
I9
sa(dp2316
g16
(lp2317
S'k'
asg18
S'Y'
sS'.thisRepN'
p2318
I25
sg20
S'Y'
sg31
g32
sS'.thisTrialN'
p2319
I7
sS'.thisN'
p2320
I282
sS'.thisIndex'
p2321
I3
sg15
(lp2322
S'k'
asg30
VF
sg17
S'Y'
sg14
I6
sg19
(lp2323
S'space'
p2324
asg94
I3
sa(dp2325
g16
(lp2326
S'd'
asg18
S'Y'
sS'.thisRepN'
p2327
I25
sg20
S'Y'
sg31
g32
sS'.thisTrialN'
p2328
I8
sS'.thisN'
p2329
I283
sS'.thisIndex'
p2330
I8
sg15
(lp2331
S'd'
asg30
VF
sg17
S'Y'
sg14
I6
sg19
(lp2332
S'space'
p2333
asg94
I8
sa(dp2334
g16
(lp2335
S'k'
asg18
S'N'
sS'.thisRepN'
p2336
I25
sg20
S'Y'
sg31
g32
sS'.thisTrialN'
p2337
I9
sS'.thisN'
p2338
I284
sS'.thisIndex'
p2339
I8
sg15
(lp2340
S'k'
asg30
VF
sg17
S'Y'
sg14
I6
sg19
Nsg94
I8
sa(dp2341
g16
(lp2342
S'd'
asg18
S'N'
sS'.thisRepN'
p2343
I25
sg20
S'Y'
sg31
g32
sS'.thisTrialN'
p2344
I10
sS'.thisN'
p2345
I285
sS'.thisIndex'
p2346
I8
sg15
(lp2347
S'd'
asg30
VF
sg17
S'Y'
sg14
I6
sg19
Nsg94
I8
sa(dp2348
g16
(lp2349
S'd'
asg18
S'N'
sS'.thisRepN'
p2350
I26
sg20
S'N'
sg31
g32
sS'.thisTrialN'
p2351
I0
sS'.thisN'
p2352
I286
sS'.thisIndex'
p2353
I5
sg15
(lp2354
S'd'
asg30
VF
sg17
S'Y'
sg14
I6
sg19
(lp2355
S'space'
p2356
asg94
I5
sa(dp2357
g16
(lp2358
S'd'
asg18
S'N'
sS'.thisRepN'
p2359
I26
sg20
S'Y'
sg31
g32
sS'.thisTrialN'
p2360
I1
sS'.thisN'
p2361
I287
sS'.thisIndex'
p2362
I3
sg15
(lp2363
S'd'
asg30
VF
sg17
S'Y'
sg14
I6
sg19
Nsg94
I3
sa(dp2364
g16
(lp2365
S'd'
asg18
S'N'
sS'.thisRepN'
p2366
I26
sg20
S'N'
sg31
g32
sS'.thisTrialN'
p2367
I2
sS'.thisN'
p2368
I288
sS'.thisIndex'
p2369
I3
sg15
(lp2370
S'd'
asg30
VF
sg17
S'Y'
sg14
I6
sg19
(lp2371
S'space'
p2372
asg94
I3
sa(dp2373
g16
(lp2374
S'd'
asg18
S'Y'
sS'.thisRepN'
p2375
I26
sg20
S'Y'
sg31
g32
sS'.thisTrialN'
p2376
I3
sS'.thisN'
p2377
I289
sS'.thisIndex'
p2378
I1
sg15
(lp2379
S'd'
asg30
VF
sg17
S'Y'
sg14
I6
sg19
(lp2380
S'space'
p2381
asg94
I1
sa(dp2382
g16
(lp2383
S'd'
asg18
S'N'
sS'.thisRepN'
p2384
I26
sg20
S'Y'
sg31
g32
sS'.thisTrialN'
p2385
I4
sS'.thisN'
p2386
I290
sS'.thisIndex'
p2387
I5
sg15
(lp2388
S'd'
asg30
VF
sg17
S'Y'
sg14
I6
sg19
Nsg94
I5
sa(dp2389
g16
(lp2390
S'd'
asg18
S'N'
sS'.thisRepN'
p2391
I26
sg20
S'Y'
sg31
g32
sS'.thisTrialN'
p2392
I5
sS'.thisN'
p2393
I291
sS'.thisIndex'
p2394
I7
sg15
(lp2395
S'd'
asg30
VF
sg17
S'Y'
sg14
I6
sg19
Nsg94
I7
sa(dp2396
g16
(lp2397
S'k'
asg18
S'N'
sS'.thisRepN'
p2398
I26
sg20
S'N'
sg31
g32
sS'.thisTrialN'
p2399
I6
sS'.thisN'
p2400
I292
sS'.thisIndex'
p2401
I3
sg15
(lp2402
S'k'
asg30
VF
sg17
S'Y'
sg14
I6
sg19
(lp2403
S'space'
p2404
asg94
I3
sa(dp2405
g16
(lp2406
S'k'
asg18
S'N'
sS'.thisRepN'
p2407
I26
sg20
S'Y'
sg31
g32
sS'.thisTrialN'
p2408
I7
sS'.thisN'
p2409
I293
sS'.thisIndex'
p2410
I1
sg15
(lp2411
S'k'
asg30
VF
sg17
S'Y'
sg14
I6
sg19
Nsg94
I1
sa(dp2412
g16
(lp2413
S'd'
asg18
S'Y'
sS'.thisRepN'
p2414
I26
sg20
S'N'
sg31
g32
sS'.thisTrialN'
p2415
I8
sS'.thisN'
p2416
I294
sS'.thisIndex'
p2417
I6
sg15
(lp2418
S'd'
asg30
VF
sg17
S'Y'
sg14
I6
sg19
Nsg94
I6
sa(dp2419
g16
(lp2420
S'k'
asg18
S'Y'
sS'.thisRepN'
p2421
I26
sg20
S'Y'
sg31
g32
sS'.thisTrialN'
p2422
I9
sS'.thisN'
p2423
I295
sS'.thisIndex'
p2424
I5
sg15
(lp2425
S'k'
asg30
VF
sg17
S'Y'
sg14
I6
sg19
(lp2426
S'space'
p2427
asg94
I5
sa(dp2428
g16
(lp2429
S'k'
asg18
S'N'
sS'.thisRepN'
p2430
I26
sg20
S'Y'
sg31
g32
sS'.thisTrialN'
p2431
I10
sS'.thisN'
p2432
I296
sS'.thisIndex'
p2433
I9
sg15
(lp2434
S'k'
asg30
VF
sg17
S'Y'
sg14
I6
sg19
Nsg94
I9
sa(dp2435
g16
(lp2436
S'd'
asg18
S'N'
sS'.thisRepN'
p2437
I27
sg20
S'N'
sg31
g32
sS'.thisTrialN'
p2438
I0
sS'.thisN'
p2439
I297
sS'.thisIndex'
p2440
I10
sg15
(lp2441
S'd'
asg30
VF
sg17
S'Y'
sg14
I6
sg19
(lp2442
S'space'
p2443
asg94
I10
sa(dp2444
g16
(lp2445
S'k'
asg18
S'N'
sS'.thisRepN'
p2446
I27
sg20
S'N'
sg31
g32
sS'.thisTrialN'
p2447
I1
sS'.thisN'
p2448
I298
sS'.thisIndex'
p2449
I10
sg15
(lp2450
S'k'
asg30
VF
sg17
S'Y'
sg14
I6
sg19
(lp2451
S'space'
p2452
asg94
I10
sa(dp2453
g16
(lp2454
S'k'
asg18
S'N'
sg22
I36
sS'.thisN'
p2455
I299
sg20
S'N'
sg31
g32
sS'.thisTrialN'
p2456
I2
sS'.thisRepN'
p2457
I27
sg21
I46
sS'.thisIndex'
p2458
I0
sg23
I25
sg15
(lp2459
S'k'
asg30
VF
sg17
S'Y'
sg14
I6
sg19
(lp2460
S'space'
p2461
asg94
I0
sa(dp2462
g16
(lp2463
S'k'
asg94
I1
sS'.thisRepN'
p2464
I27
sg30
VF
sg31
g32
sS'.thisTrialN'
p2465
I3
sS'.thisN'
p2466
I300
sS'.thisIndex'
p2467
I1
sg15
(lp2468
S'd'
asg17
S'N'
sg14
I7
sa(dp2469
g16
(lp2470
S'd'
asg94
I0
sS'.thisRepN'
p2471
I27
sg30
VF
sg31
g32
sS'.thisTrialN'
p2472
I4
sS'.thisN'
p2473
I301
sS'.thisIndex'
p2474
I0
sg15
(lp2475
S'd'
asg17
S'Y'
sg14
I7
sa(dp2476
g16
(lp2477
S'k'
asg18
S'N'
sS'.thisRepN'
p2478
I27
sg20
S'Y'
sg31
g32
sS'.thisTrialN'
p2479
I5
sS'.thisN'
p2480
I302
sS'.thisIndex'
p2481
I1
sg15
(lp2482
S'k'
asg30
VF
sg17
S'Y'
sg14
I7
sg19
Nsg94
I1
sa(dp2483
g16
(lp2484
S'k'
asg18
S'Y'
sS'.thisRepN'
p2485
I27
sg20
S'Y'
sg31
g32
sS'.thisTrialN'
p2486
I6
sS'.thisN'
p2487
I303
sS'.thisIndex'
p2488
I5
sg15
(lp2489
S'k'
asg30
VF
sg17
S'Y'
sg14
I7
sg19
(lp2490
S'space'
p2491
asg94
I5
sa(dp2492
g16
(lp2493
S'k'
asg18
S'N'
sS'.thisRepN'
p2494
I27
sg20
S'Y'
sg31
g32
sS'.thisTrialN'
p2495
I7
sS'.thisN'
p2496
I304
sS'.thisIndex'
p2497
I2
sg15
(lp2498
S'k'
asg30
VF
sg17
S'Y'
sg14
I7
sg19
Nsg94
I2
sa(dp2499
g16
(lp2500
S'd'
asg18
S'Y'
sS'.thisRepN'
p2501
I27
sg20
S'Y'
sg31
g32
sS'.thisTrialN'
p2502
I8
sS'.thisN'
p2503
I305
sS'.thisIndex'
p2504
I3
sg15
(lp2505
S'd'
asg30
VF
sg17
S'Y'
sg14
I7
sg19
(lp2506
S'space'
p2507
asg94
I3
sa(dp2508
g16
(lp2509
S'k'
asg18
S'Y'
sS'.thisRepN'
p2510
I27
sg20
S'Y'
sg31
g32
sS'.thisTrialN'
p2511
I9
sS'.thisN'
p2512
I306
sS'.thisIndex'
p2513
I3
sg15
(lp2514
S'k'
asg30
VF
sg17
S'Y'
sg14
I7
sg19
(lp2515
S'space'
p2516
asg94
I3
sa(dp2517
g16
(lp2518
S'd'
asg18
S'N'
sS'.thisRepN'
p2519
I27
sg20
S'N'
sg31
g32
sS'.thisTrialN'
p2520
I10
sS'.thisN'
p2521
I307
sS'.thisIndex'
p2522
I9
sg15
(lp2523
S'k'
asg30
VF
sg17
S'N'
sg14
I7
sg19
(lp2524
S'space'
p2525
asg94
I9
sa(dp2526
g16
(lp2527
S'k'
asg18
S'Y'
sS'.thisRepN'
p2528
I28
sg20
S'Y'
sg31
g32
sS'.thisTrialN'
p2529
I0
sS'.thisN'
p2530
I308
sS'.thisIndex'
p2531
I2
sg15
(lp2532
S'k'
asg30
VF
sg17
S'Y'
sg14
I7
sg19
(lp2533
S'space'
p2534
asg94
I2
sa(dp2535
g16
(lp2536
S'k'
asg18
S'Y'
sS'.thisRepN'
p2537
I28
sg20
S'N'
sg31
g32
sS'.thisTrialN'
p2538
I1
sS'.thisN'
p2539
I309
sS'.thisIndex'
p2540
I8
sg15
(lp2541
S'k'
asg30
VF
sg17
S'Y'
sg14
I7
sg19
Nsg94
I8
sa(dp2542
g16
(lp2543
S'k'
asg18
S'N'
sS'.thisRepN'
p2544
I28
sg20
S'Y'
sg31
g32
sS'.thisTrialN'
p2545
I2
sS'.thisN'
p2546
I310
sS'.thisIndex'
p2547
I1
sg15
(lp2548
S'k'
asg30
VF
sg17
S'Y'
sg14
I7
sg19
Nsg94
I1
sa(dp2549
g16
(lp2550
S'd'
asg18
S'N'
sS'.thisRepN'
p2551
I28
sg20
S'Y'
sg31
g32
sS'.thisTrialN'
p2552
I3
sS'.thisN'
p2553
I311
sS'.thisIndex'
p2554
I5
sg15
(lp2555
S'd'
asg30
VF
sg17
S'Y'
sg14
I7
sg19
Nsg94
I5
sa(dp2556
g16
(lp2557
S'k'
asg18
S'N'
sS'.thisRepN'
p2558
I28
sg20
S'Y'
sg31
g32
sS'.thisTrialN'
p2559
I4
sS'.thisN'
p2560
I312
sS'.thisIndex'
p2561
I0
sg15
(lp2562
S'k'
asg30
VF
sg17
S'Y'
sg14
I7
sg19
Nsg94
I0
sa(dp2563
g16
(lp2564
S'k'
asg18
S'Y'
sS'.thisRepN'
p2565
I28
sg20
S'Y'
sg31
g32
sS'.thisTrialN'
p2566
I5
sS'.thisN'
p2567
I313
sS'.thisIndex'
p2568
I7
sg15
(lp2569
S'k'
asg30
VF
sg17
S'Y'
sg14
I7
sg19
(lp2570
S'space'
p2571
asg94
I7
sa(dp2572
g16
(lp2573
S'd'
asg18
S'N'
sS'.thisRepN'
p2574
I28
sg20
S'N'
sg31
g32
sS'.thisTrialN'
p2575
I6
sS'.thisN'
p2576
I314
sS'.thisIndex'
p2577
I3
sg15
(lp2578
S'd'
asg30
VF
sg17
S'Y'
sg14
I7
sg19
(lp2579
S'space'
p2580
asg94
I3
sa(dp2581
g16
(lp2582
S'k'
asg18
S'Y'
sS'.thisRepN'
p2583
I28
sg20
S'Y'
sg31
g32
sS'.thisTrialN'
p2584
I7
sS'.thisN'
p2585
I315
sS'.thisIndex'
p2586
I8
sg15
(lp2587
S'k'
asg30
VF
sg17
S'Y'
sg14
I7
sg19
(lp2588
S'space'
p2589
asg94
I8
sa(dp2590
g16
(lp2591
S'k'
asg18
S'Y'
sS'.thisRepN'
p2592
I28
sg20
S'Y'
sg31
g32
sS'.thisTrialN'
p2593
I8
sS'.thisN'
p2594
I316
sS'.thisIndex'
p2595
I6
sg15
(lp2596
S'k'
asg30
VF
sg17
S'Y'
sg14
I7
sg19
(lp2597
S'space'
p2598
asg94
I6
sa(dp2599
g16
(lp2600
S'd'
asg18
S'Y'
sS'.thisRepN'
p2601
I28
sg20
S'N'
sg31
g32
sS'.thisTrialN'
p2602
I9
sS'.thisN'
p2603
I317
sS'.thisIndex'
p2604
I3
sg15
(lp2605
S'd'
asg30
VF
sg17
S'Y'
sg14
I7
sg19
Nsg94
I3
sa(dp2606
g16
(lp2607
S'k'
asg18
S'N'
sS'.thisRepN'
p2608
I28
sg20
S'N'
sg31
g32
sS'.thisTrialN'
p2609
I10
sS'.thisN'
p2610
I318
sS'.thisIndex'
p2611
I3
sg15
(lp2612
S'k'
asg30
VF
sg17
S'Y'
sg14
I7
sg19
(lp2613
S'space'
p2614
asg94
I3
sa(dp2615
g16
(lp2616
S'k'
asg18
S'Y'
sS'.thisRepN'
p2617
I29
sg20
S'Y'
sg31
g32
sS'.thisTrialN'
p2618
I0
sS'.thisN'
p2619
I319
sS'.thisIndex'
p2620
I7
sg15
(lp2621
S'k'
asg30
VF
sg17
S'Y'
sg14
I7
sg19
(lp2622
S'space'
p2623
asg94
I7
sa(dp2624
g18
S'N'
sS'.thisRepN'
p2625
I29
sg20
S'Y'
sg31
g32
sS'.thisTrialN'
p2626
I1
sS'.thisN'
p2627
I320
sS'.thisIndex'
p2628
I6
sg15
Nsg30
VF
sg17
S'Timed out'
p2629
sg14
I7
sg19
Nsg94
I6
sa(dp2630
g16
(lp2631
S'd'
asg18
S'Y'
sS'.thisRepN'
p2632
I29
sg20
S'N'
sg31
g32
sS'.thisTrialN'
p2633
I2
sS'.thisN'
p2634
I321
sS'.thisIndex'
p2635
I2
sg15
(lp2636
S'd'
asg30
VF
sg17
S'Y'
sg14
I7
sg19
Nsg94
I2
sa(dp2637
g16
(lp2638
S'k'
asg18
S'Y'
sS'.thisRepN'
p2639
I29
sg20
S'Y'
sg31
g32
sS'.thisTrialN'
p2640
I3
sS'.thisN'
p2641
I322
sS'.thisIndex'
p2642
I9
sg15
(lp2643
S'k'
asg30
VF
sg17
S'Y'
sg14
I7
sg19
(lp2644
S'space'
p2645
asg94
I9
sa(dp2646
g16
(lp2647
S'd'
asg18
S'Y'
sS'.thisRepN'
p2648
I29
sg20
S'Y'
sg31
g32
sS'.thisTrialN'
p2649
I4
sS'.thisN'
p2650
I323
sS'.thisIndex'
p2651
I8
sg15
(lp2652
S'd'
asg30
VF
sg17
S'Y'
sg14
I7
sg19
(lp2653
S'space'
p2654
asg94
I8
sa(dp2655
g16
(lp2656
S'k'
asg18
S'Y'
sS'.thisRepN'
p2657
I29
sg20
S'N'
sg31
g32
sS'.thisTrialN'
p2658
I5
sS'.thisN'
p2659
I324
sS'.thisIndex'
p2660
I2
sg15
(lp2661
S'k'
asg30
VF
sg17
S'Y'
sg14
I7
sg19
Nsg94
I2
sa(dp2662
g16
(lp2663
S'd'
asg18
S'Y'
sS'.thisRepN'
p2664
I29
sg20
S'N'
sg31
g32
sS'.thisTrialN'
p2665
I6
sS'.thisN'
p2666
I325
sS'.thisIndex'
p2667
I0
sg15
(lp2668
S'd'
asg30
VF
sg17
S'Y'
sg14
I7
sg19
Nsg94
I0
sa(dp2669
g16
(lp2670
S'd'
asg18
S'N'
sS'.thisRepN'
p2671
I29
sg20
S'Y'
sg31
g32
sS'.thisTrialN'
p2672
I7
sS'.thisN'
p2673
I326
sS'.thisIndex'
p2674
I9
sg15
(lp2675
S'k'
asg30
VF
sg17
S'N'
sg14
I7
sg19
Nsg94
I9
sa(dp2676
g16
(lp2677
S'k'
asg18
S'Y'
sS'.thisRepN'
p2678
I29
sg20
S'N'
sg31
g32
sS'.thisTrialN'
p2679
I8
sS'.thisN'
p2680
I327
sS'.thisIndex'
p2681
I2
sg15
(lp2682
S'k'
asg30
VF
sg17
S'Y'
sg14
I7
sg19
Nsg94
I2
sa(dp2683
g16
(lp2684
S'k'
asg18
S'Y'
sS'.thisRepN'
p2685
I29
sg20
S'N'
sg31
g32
sS'.thisTrialN'
p2686
I9
sS'.thisN'
p2687
I328
sS'.thisIndex'
p2688
I10
sg15
(lp2689
S'k'
asg30
VF
sg17
S'Y'
sg14
I7
sg19
Nsg94
I10
sa(dp2690
g16
(lp2691
S'd'
asg18
S'Y'
sS'.thisRepN'
p2692
I29
sg20
S'Y'
sg31
g32
sS'.thisTrialN'
p2693
I10
sS'.thisN'
p2694
I329
sS'.thisIndex'
p2695
I3
sg15
(lp2696
S'd'
asg30
VF
sg17
S'Y'
sg14
I7
sg19
(lp2697
S'space'
p2698
asg94
I3
sa(dp2699
g16
(lp2700
S'k'
asg18
S'Y'
sS'.thisRepN'
p2701
I30
sg20
S'Y'
sg31
g32
sS'.thisTrialN'
p2702
I0
sS'.thisN'
p2703
I330
sS'.thisIndex'
p2704
I10
sg15
(lp2705
S'k'
asg30
VF
sg17
S'Y'
sg14
I7
sg19
(lp2706
S'space'
p2707
asg94
I10
sa(dp2708
g16
(lp2709
S'k'
asg18
S'Y'
sS'.thisRepN'
p2710
I30
sg20
S'Y'
sg31
g32
sS'.thisTrialN'
p2711
I1
sS'.thisN'
p2712
I331
sS'.thisIndex'
p2713
I3
sg15
(lp2714
S'd'
asg30
VF
sg17
S'N'
sg14
I7
sg19
(lp2715
S'space'
p2716
asg94
I3
sa(dp2717
g16
(lp2718
S'd'
asg18
S'Y'
sS'.thisRepN'
p2719
I30
sg20
S'Y'
sg31
g32
sS'.thisTrialN'
p2720
I2
sS'.thisN'
p2721
I332
sS'.thisIndex'
p2722
I0
sg15
(lp2723
S'd'
asg30
VF
sg17
S'Y'
sg14
I7
sg19
(lp2724
S'space'
p2725
asg94
I0
sa(dp2726
g16
(lp2727
S'd'
asg18
S'Y'
sS'.thisRepN'
p2728
I30
sg20
S'Y'
sg31
g32
sS'.thisTrialN'
p2729
I3
sS'.thisN'
p2730
I333
sS'.thisIndex'
p2731
I1
sg15
(lp2732
S'k'
asg30
VF
sg17
S'N'
sg14
I7
sg19
(lp2733
S'space'
p2734
asg94
I1
sa(dp2735
g16
(lp2736
S'd'
asg18
S'Y'
sS'.thisRepN'
p2737
I30
sg20
S'Y'
sg31
g32
sS'.thisTrialN'
p2738
I4
sS'.thisN'
p2739
I334
sS'.thisIndex'
p2740
I6
sg15
(lp2741
S'd'
asg30
VF
sg17
S'Y'
sg14
I7
sg19
(lp2742
S'space'
p2743
asg94
I6
sa(dp2744
g16
(lp2745
S'd'
asg18
S'N'
sS'.thisRepN'
p2746
I30
sg20
S'Y'
sg31
g32
sS'.thisTrialN'
p2747
I5
sS'.thisN'
p2748
I335
sS'.thisIndex'
p2749
I2
sg15
(lp2750
S'd'
asg30
VF
sg17
S'Y'
sg14
I7
sg19
Nsg94
I2
sa(dp2751
g16
(lp2752
S'k'
asg18
S'Y'
sS'.thisRepN'
p2753
I30
sg20
S'Y'
sg31
g32
sS'.thisTrialN'
p2754
I6
sS'.thisN'
p2755
I336
sS'.thisIndex'
p2756
I4
sg15
(lp2757
S'k'
asg30
VF
sg17
S'Y'
sg14
I7
sg19
(lp2758
S'space'
p2759
asg94
I4
sa(dp2760
g16
(lp2761
S'k'
asg18
S'N'
sS'.thisRepN'
p2762
I30
sg20
S'Y'
sg31
g32
sS'.thisTrialN'
p2763
I7
sS'.thisN'
p2764
I337
sS'.thisIndex'
p2765
I10
sg15
(lp2766
S'k'
asg30
VF
sg17
S'Y'
sg14
I7
sg19
Nsg94
I10
sa(dp2767
g16
(lp2768
S'd'
asg18
S'Y'
sS'.thisRepN'
p2769
I30
sg20
S'Y'
sg31
g32
sS'.thisTrialN'
p2770
I8
sS'.thisN'
p2771
I338
sS'.thisIndex'
p2772
I4
sg15
(lp2773
S'd'
asg30
VF
sg17
S'Y'
sg14
I7
sg19
(lp2774
S'space'
p2775
asg94
I4
sa(dp2776
g16
(lp2777
S'k'
asg18
S'N'
sS'.thisRepN'
p2778
I30
sg20
S'Y'
sg31
g32
sS'.thisTrialN'
p2779
I9
sS'.thisN'
p2780
I339
sS'.thisIndex'
p2781
I10
sg15
(lp2782
S'k'
asg30
VF
sg17
S'Y'
sg14
I7
sg19
Nsg94
I10
sa(dp2783
g16
(lp2784
S'd'
asg18
S'N'
sS'.thisRepN'
p2785
I30
sg20
S'Y'
sg31
g32
sS'.thisTrialN'
p2786
I10
sS'.thisN'
p2787
I340
sS'.thisIndex'
p2788
I9
sg15
(lp2789
S'd'
asg30
VF
sg17
S'Y'
sg14
I7
sg19
Nsg94
I9
sa(dp2790
g16
(lp2791
S'd'
asg18
S'N'
sS'.thisRepN'
p2792
I31
sg20
S'Y'
sg31
g32
sS'.thisTrialN'
p2793
I0
sS'.thisN'
p2794
I341
sS'.thisIndex'
p2795
I7
sg15
(lp2796
S'k'
asg30
VF
sg17
S'N'
sg14
I7
sg19
Nsg94
I7
sa(dp2797
g16
(lp2798
S'd'
asg18
S'N'
sS'.thisRepN'
p2799
I31
sg20
S'Y'
sg31
g32
sS'.thisTrialN'
p2800
I1
sS'.thisN'
p2801
I342
sS'.thisIndex'
p2802
I0
sg15
(lp2803
S'd'
asg30
VF
sg17
S'Y'
sg14
I7
sg19
Nsg94
I0
sa(dp2804
g16
(lp2805
S'd'
asg18
S'N'
sS'.thisRepN'
p2806
I31
sg20
S'N'
sg31
g32
sS'.thisTrialN'
p2807
I2
sS'.thisN'
p2808
I343
sS'.thisIndex'
p2809
I10
sg15
(lp2810
S'd'
asg30
VF
sg17
S'Y'
sg14
I7
sg19
(lp2811
S'k'
asg94
I10
sa(dp2812
g16
(lp2813
S'd'
asg18
S'N'
sS'.thisRepN'
p2814
I31
sg20
S'Y'
sg31
g32
sS'.thisTrialN'
p2815
I3
sS'.thisN'
p2816
I344
sS'.thisIndex'
p2817
I7
sg15
(lp2818
S'k'
asg30
VF
sg17
S'N'
sg14
I7
sg19
Nsg94
I7
sa(dp2819
g16
(lp2820
S'k'
asg18
S'N'
sS'.thisRepN'
p2821
I31
sg20
S'Y'
sg31
g32
sS'.thisTrialN'
p2822
I4
sS'.thisN'
p2823
I345
sS'.thisIndex'
p2824
I10
sg15
(lp2825
S'd'
asg30
VF
sg17
S'N'
sg14
I7
sg19
Nsg94
I10
sa(dp2826
g16
(lp2827
S'k'
asg18
S'N'
sS'.thisRepN'
p2828
I31
sg20
S'Y'
sg31
g32
sS'.thisTrialN'
p2829
I5
sS'.thisN'
p2830
I346
sS'.thisIndex'
p2831
I1
sg15
(lp2832
S'k'
asg30
VF
sg17
S'Y'
sg14
I7
sg19
Nsg94
I1
sa(dp2833
g16
(lp2834
S'k'
asg18
S'N'
sS'.thisRepN'
p2835
I31
sg20
S'N'
sg31
g32
sS'.thisTrialN'
p2836
I6
sS'.thisN'
p2837
I347
sS'.thisIndex'
p2838
I5
sg15
(lp2839
S'k'
asg30
VF
sg17
S'Y'
sg14
I7
sg19
(lp2840
S'space'
p2841
asg94
I5
sa(dp2842
g16
(lp2843
S'd'
asg18
S'N'
sS'.thisRepN'
p2844
I31
sg20
S'Y'
sg31
g32
sS'.thisTrialN'
p2845
I7
sS'.thisN'
p2846
I348
sS'.thisIndex'
p2847
I10
sg15
(lp2848
S'd'
asg30
VF
sg17
S'Y'
sg14
I7
sg19
Nsg94
I10
sa(dp2849
g16
(lp2850
S'd'
asg18
S'N'
sg22
I35
sS'.thisN'
p2851
I349
sg20
S'N'
sg31
g32
sS'.thisTrialN'
p2852
I8
sS'.thisRepN'
p2853
I31
sg21
I41
sS'.thisIndex'
p2854
I6
sg23
I25
sg15
(lp2855
S'd'
asg30
VF
sg17
S'Y'
sg14
I7
sg19
(lp2856
S'space'
p2857
asg94
I6
sa(dp2858
g16
(lp2859
S'd'
asg94
I1
sS'.thisRepN'
p2860
I31
sg30
VF
sg31
g32
sS'.thisTrialN'
p2861
I9
sS'.thisN'
p2862
I350
sS'.thisIndex'
p2863
I1
sg15
(lp2864
S'd'
asg17
S'Y'
sg14
I8
sa(dp2865
g16
(lp2866
S'd'
asg94
I10
sS'.thisRepN'
p2867
I31
sg30
VF
sg31
g32
sS'.thisTrialN'
p2868
I10
sS'.thisN'
p2869
I351
sS'.thisIndex'
p2870
I10
sg15
(lp2871
S'k'
asg17
S'N'
sg14
I8
sa(dp2872
g16
(lp2873
S'k'
asg18
S'N'
sS'.thisRepN'
p2874
I32
sg20
S'Y'
sg31
g32
sS'.thisTrialN'
p2875
I0
sS'.thisN'
p2876
I352
sS'.thisIndex'
p2877
I9
sg15
(lp2878
S'd'
asg30
VF
sg17
S'N'
sg14
I8
sg19
Nsg94
I9
sa(dp2879
g16
(lp2880
S'd'
asg18
S'N'
sS'.thisRepN'
p2881
I32
sg20
S'Y'
sg31
g32
sS'.thisTrialN'
p2882
I1
sS'.thisN'
p2883
I353
sS'.thisIndex'
p2884
I0
sg15
(lp2885
S'd'
asg30
VF
sg17
S'Y'
sg14
I8
sg19
Nsg94
I0
sa(dp2886
g16
(lp2887
S'd'
asg18
S'N'
sS'.thisRepN'
p2888
I32
sg20
S'Y'
sg31
g32
sS'.thisTrialN'
p2889
I2
sS'.thisN'
p2890
I354
sS'.thisIndex'
p2891
I4
sg15
(lp2892
S'd'
asg30
VF
sg17
S'Y'
sg14
I8
sg19
Nsg94
I4
sa(dp2893
g16
(lp2894
S'd'
asg18
S'Y'
sS'.thisRepN'
p2895
I32
sg20
S'N'
sg31
g32
sS'.thisTrialN'
p2896
I3
sS'.thisN'
p2897
I355
sS'.thisIndex'
p2898
I7
sg15
(lp2899
S'd'
asg30
VF
sg17
S'Y'
sg14
I8
sg19
Nsg94
I7
sa(dp2900
g16
(lp2901
S'k'
asg18
S'Y'
sS'.thisRepN'
p2902
I32
sg20
S'Y'
sg31
g32
sS'.thisTrialN'
p2903
I4
sS'.thisN'
p2904
I356
sS'.thisIndex'
p2905
I7
sg15
(lp2906
S'k'
asg30
VF
sg17
S'Y'
sg14
I8
sg19
(lp2907
S'space'
p2908
asg94
I7
sa(dp2909
g16
(lp2910
S'd'
asg18
S'Y'
sS'.thisRepN'
p2911
I32
sg20
S'Y'
sg31
g32
sS'.thisTrialN'
p2912
I5
sS'.thisN'
p2913
I357
sS'.thisIndex'
p2914
I10
sg15
(lp2915
S'd'
asg30
VF
sg17
S'Y'
sg14
I8
sg19
(lp2916
S'space'
p2917
asg94
I10
sa(dp2918
g16
(lp2919
S'k'
asg18
S'N'
sS'.thisRepN'
p2920
I32
sg20
S'N'
sg31
g32
sS'.thisTrialN'
p2921
I6
sS'.thisN'
p2922
I358
sS'.thisIndex'
p2923
I5
sg15
(lp2924
S'k'
asg30
VF
sg17
S'Y'
sg14
I8
sg19
(lp2925
S'space'
p2926
asg94
I5
sa(dp2927
g16
(lp2928
S'd'
asg18
S'N'
sS'.thisRepN'
p2929
I32
sg20
S'Y'
sg31
g32
sS'.thisTrialN'
p2930
I7
sS'.thisN'
p2931
I359
sS'.thisIndex'
p2932
I9
sg15
(lp2933
S'd'
asg30
VF
sg17
S'Y'
sg14
I8
sg19
Nsg94
I9
sa(dp2934
g16
(lp2935
S'k'
asg18
S'Y'
sS'.thisRepN'
p2936
I32
sg20
S'Y'
sg31
g32
sS'.thisTrialN'
p2937
I8
sS'.thisN'
p2938
I360
sS'.thisIndex'
p2939
I6
sg15
(lp2940
S'k'
asg30
VF
sg17
S'Y'
sg14
I8
sg19
(lp2941
S'space'
p2942
asg94
I6
sa(dp2943
g16
(lp2944
S'd'
asg18
S'Y'
sS'.thisRepN'
p2945
I32
sg20
S'Y'
sg31
g32
sS'.thisTrialN'
p2946
I9
sS'.thisN'
p2947
I361
sS'.thisIndex'
p2948
I1
sg15
(lp2949
S'd'
asg30
VF
sg17
S'Y'
sg14
I8
sg19
(lp2950
S'space'
p2951
asg94
I1
sa(dp2952
g16
(lp2953
S'k'
asg18
S'N'
sS'.thisRepN'
p2954
I32
sg20
S'N'
sg31
g32
sS'.thisTrialN'
p2955
I10
sS'.thisN'
p2956
I362
sS'.thisIndex'
p2957
I2
sg15
(lp2958
S'k'
asg30
VF
sg17
S'Y'
sg14
I8
sg19
(lp2959
S'space'
p2960
asg94
I2
sa(dp2961
g16
(lp2962
S'd'
asg18
S'N'
sS'.thisRepN'
p2963
I33
sg20
S'Y'
sg31
g32
sS'.thisTrialN'
p2964
I0
sS'.thisN'
p2965
I363
sS'.thisIndex'
p2966
I3
sg15
(lp2967
S'd'
asg30
VF
sg17
S'Y'
sg14
I8
sg19
Nsg94
I3
sa(dp2968
g16
(lp2969
S'k'
asg18
S'N'
sS'.thisRepN'
p2970
I33
sg20
S'Y'
sg31
g32
sS'.thisTrialN'
p2971
I1
sS'.thisN'
p2972
I364
sS'.thisIndex'
p2973
I2
sg15
(lp2974
S'k'
asg30
VF
sg17
S'Y'
sg14
I8
sg19
Nsg94
I2
sa(dp2975
g16
(lp2976
S'k'
asg18
S'N'
sS'.thisRepN'
p2977
I33
sg20
S'Y'
sg31
g32
sS'.thisTrialN'
p2978
I2
sS'.thisN'
p2979
I365
sS'.thisIndex'
p2980
I3
sg15
(lp2981
S'k'
asg30
VF
sg17
S'Y'
sg14
I8
sg19
Nsg94
I3
sa(dp2982
g16
(lp2983
S'd'
asg18
S'Y'
sS'.thisRepN'
p2984
I33
sg20
S'N'
sg31
g32
sS'.thisTrialN'
p2985
I3
sS'.thisN'
p2986
I366
sS'.thisIndex'
p2987
I8
sg15
(lp2988
S'd'
asg30
VF
sg17
S'Y'
sg14
I8
sg19
Nsg94
I8
sa(dp2989
g16
(lp2990
S'k'
asg18
S'Y'
sS'.thisRepN'
p2991
I33
sg20
S'N'
sg31
g32
sS'.thisTrialN'
p2992
I4
sS'.thisN'
p2993
I367
sS'.thisIndex'
p2994
I4
sg15
(lp2995
S'k'
asg30
VF
sg17
S'Y'
sg14
I8
sg19
Nsg94
I4
sa(dp2996
g16
(lp2997
S'd'
asg18
S'N'
sS'.thisRepN'
p2998
I33
sg20
S'Y'
sg31
g32
sS'.thisTrialN'
p2999
I5
sS'.thisN'
p3000
I368
sS'.thisIndex'
p3001
I0
sg15
(lp3002
S'd'
asg30
VF
sg17
S'Y'
sg14
I8
sg19
Nsg94
I0
sa(dp3003
g16
(lp3004
S'k'
asg18
S'Y'
sS'.thisRepN'
p3005
I33
sg20
S'Y'
sg31
g32
sS'.thisTrialN'
p3006
I6
sS'.thisN'
p3007
I369
sS'.thisIndex'
p3008
I1
sg15
(lp3009
S'k'
asg30
VF
sg17
S'Y'
sg14
I8
sg19
(lp3010
S'space'
p3011
asg94
I1
sa(dp3012
g16
(lp3013
S'd'
asg18
S'N'
sS'.thisRepN'
p3014
I33
sg20
S'Y'
sg31
g32
sS'.thisTrialN'
p3015
I7
sS'.thisN'
p3016
I370
sS'.thisIndex'
p3017
I7
sg15
(lp3018
S'd'
asg30
VF
sg17
S'Y'
sg14
I8
sg19
Nsg94
I7
sa(dp3019
g16
(lp3020
S'd'
asg18
S'Y'
sS'.thisRepN'
p3021
I33
sg20
S'Y'
sg31
g32
sS'.thisTrialN'
p3022
I8
sS'.thisN'
p3023
I371
sS'.thisIndex'
p3024
I4
sg15
(lp3025
S'd'
asg30
VF
sg17
S'Y'
sg14
I8
sg19
(lp3026
S'space'
p3027
asg94
I4
sa(dp3028
g16
(lp3029
S'k'
asg18
S'N'
sS'.thisRepN'
p3030
I33
sg20
S'Y'
sg31
g32
sS'.thisTrialN'
p3031
I9
sS'.thisN'
p3032
I372
sS'.thisIndex'
p3033
I8
sg15
(lp3034
S'k'
asg30
VF
sg17
S'Y'
sg14
I8
sg19
Nsg94
I8
sa(dp3035
g16
(lp3036
S'k'
asg18
S'N'
sS'.thisRepN'
p3037
I33
sg20
S'N'
sg31
g32
sS'.thisTrialN'
p3038
I10
sS'.thisN'
p3039
I373
sS'.thisIndex'
p3040
I3
sg15
(lp3041
S'k'
asg30
VF
sg17
S'Y'
sg14
I8
sg19
(lp3042
S'space'
p3043
asg94
I3
sa(dp3044
g16
(lp3045
S'd'
asg18
S'Y'
sS'.thisRepN'
p3046
I34
sg20
S'N'
sg31
g32
sS'.thisTrialN'
p3047
I0
sS'.thisN'
p3048
I374
sS'.thisIndex'
p3049
I4
sg15
(lp3050
S'd'
asg30
VF
sg17
S'Y'
sg14
I8
sg19
(lp3051
S'k'
asg94
I4
sa(dp3052
g16
(lp3053
S'k'
asg18
S'Y'
sS'.thisRepN'
p3054
I34
sg20
S'N'
sg31
g32
sS'.thisTrialN'
p3055
I1
sS'.thisN'
p3056
I375
sS'.thisIndex'
p3057
I7
sg15
(lp3058
S'k'
asg30
VF
sg17
S'Y'
sg14
I8
sg19
(lp3059
S'k'
asg94
I7
sa(dp3060
g16
(lp3061
S'd'
asg18
S'N'
sS'.thisRepN'
p3062
I34
sg20
S'N'
sg31
g32
sS'.thisTrialN'
p3063
I2
sS'.thisN'
p3064
I376
sS'.thisIndex'
p3065
I4
sg15
(lp3066
S'd'
asg30
VF
sg17
S'Y'
sg14
I8
sg19
(lp3067
S'space'
p3068
asg94
I4
sa(dp3069
g16
(lp3070
S'd'
asg18
S'Y'
sS'.thisRepN'
p3071
I34
sg20
S'N'
sg31
g32
sS'.thisTrialN'
p3072
I3
sS'.thisN'
p3073
I377
sS'.thisIndex'
p3074
I0
sg15
(lp3075
S'd'
asg30
VF
sg17
S'Y'
sg14
I8
sg19
(lp3076
S'k'
asg94
I0
sa(dp3077
g16
(lp3078
S'k'
asg18
S'N'
sS'.thisRepN'
p3079
I34
sg20
S'Y'
sg31
g32
sS'.thisTrialN'
p3080
I4
sS'.thisN'
p3081
I378
sS'.thisIndex'
p3082
I8
sg15
(lp3083
S'd'
asg30
VF
sg17
S'N'
sg14
I8
sg19
Nsg94
I8
sa(dp3084
g16
(lp3085
S'd'
asg18
S'Y'
sS'.thisRepN'
p3086
I34
sg20
S'Y'
sg31
g32
sS'.thisTrialN'
p3087
I5
sS'.thisN'
p3088
I379
sS'.thisIndex'
p3089
I4
sg15
(lp3090
S'd'
asg30
VF
sg17
S'Y'
sg14
I8
sg19
(lp3091
S'space'
p3092
asg94
I4
sa(dp3093
g16
(lp3094
S'k'
asg18
S'Y'
sS'.thisRepN'
p3095
I34
sg20
S'N'
sg31
g32
sS'.thisTrialN'
p3096
I6
sS'.thisN'
p3097
I380
sS'.thisIndex'
p3098
I2
sg15
(lp3099
S'k'
asg30
VF
sg17
S'Y'
sg14
I8
sg19
Nsg94
I2
sa(dp3100
g16
(lp3101
S'd'
asg18
S'N'
sS'.thisRepN'
p3102
I34
sg20
S'Y'
sg31
g32
sS'.thisTrialN'
p3103
I7
sS'.thisN'
p3104
I381
sS'.thisIndex'
p3105
I0
sg15
(lp3106
S'd'
asg30
VF
sg17
S'Y'
sg14
I8
sg19
Nsg94
I0
sa(dp3107
g16
(lp3108
S'k'
asg18
S'N'
sS'.thisRepN'
p3109
I34
sg20
S'N'
sg31
g32
sS'.thisTrialN'
p3110
I8
sS'.thisN'
p3111
I382
sS'.thisIndex'
p3112
I7
sg15
(lp3113
S'k'
asg30
VF
sg17
S'Y'
sg14
I8
sg19
(lp3114
S'space'
p3115
asg94
I7
sa(dp3116
g16
(lp3117
S'k'
asg18
S'Y'
sS'.thisRepN'
p3118
I34
sg20
S'Y'
sg31
g32
sS'.thisTrialN'
p3119
I9
sS'.thisN'
p3120
I383
sS'.thisIndex'
p3121
I3
sg15
(lp3122
S'k'
asg30
VF
sg17
S'Y'
sg14
I8
sg19
(lp3123
S'space'
p3124
asg94
I3
sa(dp3125
g16
(lp3126
S'k'
asg18
S'Y'
sS'.thisRepN'
p3127
I34
sg20
S'N'
sg31
g32
sS'.thisTrialN'
p3128
I10
sS'.thisN'
p3129
I384
sS'.thisIndex'
p3130
I4
sg15
(lp3131
S'k'
asg30
VF
sg17
S'Y'
sg14
I8
sg19
Nsg94
I4
sa(dp3132
g16
(lp3133
S'd'
asg18
S'N'
sS'.thisRepN'
p3134
I35
sg20
S'N'
sg31
g32
sS'.thisTrialN'
p3135
I0
sS'.thisN'
p3136
I385
sS'.thisIndex'
p3137
I9
sg15
(lp3138
S'd'
asg30
VF
sg17
S'Y'
sg14
I8
sg19
(lp3139
S'space'
p3140
asg94
I9
sa(dp3141
g16
(lp3142
S'k'
asg18
S'Y'
sS'.thisRepN'
p3143
I35
sg20
S'Y'
sg31
g32
sS'.thisTrialN'
p3144
I1
sS'.thisN'
p3145
I386
sS'.thisIndex'
p3146
I10
sg15
(lp3147
S'k'
asg30
VF
sg17
S'Y'
sg14
I8
sg19
(lp3148
S'space'
p3149
asg94
I10
sa(dp3150
g16
(lp3151
S'k'
asg18
S'Y'
sS'.thisRepN'
p3152
I35
sg20
S'Y'
sg31
g32
sS'.thisTrialN'
p3153
I2
sS'.thisN'
p3154
I387
sS'.thisIndex'
p3155
I1
sg15
(lp3156
S'k'
asg30
VF
sg17
S'Y'
sg14
I8
sg19
(lp3157
S'space'
p3158
asg94
I1
sa(dp3159
g16
(lp3160
S'd'
asg18
S'N'
sS'.thisRepN'
p3161
I35
sg20
S'Y'
sg31
g32
sS'.thisTrialN'
p3162
I3
sS'.thisN'
p3163
I388
sS'.thisIndex'
p3164
I1
sg15
(lp3165
S'd'
asg30
VF
sg17
S'Y'
sg14
I8
sg19
Nsg94
I1
sa(dp3166
g16
(lp3167
S'k'
asg18
S'N'
sS'.thisRepN'
p3168
I35
sg20
S'Y'
sg31
g32
sS'.thisTrialN'
p3169
I4
sS'.thisN'
p3170
I389
sS'.thisIndex'
p3171
I4
sg15
(lp3172
S'k'
asg30
VF
sg17
S'Y'
sg14
I8
sg19
Nsg94
I4
sa(dp3173
g16
(lp3174
S'k'
asg18
S'N'
sS'.thisRepN'
p3175
I35
sg20
S'Y'
sg31
g32
sS'.thisTrialN'
p3176
I5
sS'.thisN'
p3177
I390
sS'.thisIndex'
p3178
I10
sg15
(lp3179
S'k'
asg30
VF
sg17
S'Y'
sg14
I8
sg19
Nsg94
I10
sa(dp3180
g16
(lp3181
S'd'
asg18
S'N'
sS'.thisRepN'
p3182
I35
sg20
S'Y'
sg31
g32
sS'.thisTrialN'
p3183
I6
sS'.thisN'
p3184
I391
sS'.thisIndex'
p3185
I7
sg15
(lp3186
S'k'
asg30
VF
sg17
S'N'
sg14
I8
sg19
Nsg94
I7
sa(dp3187
g16
(lp3188
S'k'
asg18
S'Y'
sS'.thisRepN'
p3189
I35
sg20
S'Y'
sg31
g32
sS'.thisTrialN'
p3190
I7
sS'.thisN'
p3191
I392
sS'.thisIndex'
p3192
I1
sg15
(lp3193
S'd'
asg30
VF
sg17
S'N'
sg14
I8
sg19
(lp3194
S'space'
p3195
asg94
I1
sa(dp3196
g16
(lp3197
S'k'
asg18
S'N'
sS'.thisRepN'
p3198
I35
sg20
S'N'
sg31
g32
sS'.thisTrialN'
p3199
I8
sS'.thisN'
p3200
I393
sS'.thisIndex'
p3201
I5
sg15
(lp3202
S'k'
asg30
VF
sg17
S'Y'
sg14
I8
sg19
(lp3203
S'space'
p3204
asg94
I5
sa(dp3205
g16
(lp3206
S'd'
asg18
S'Y'
sS'.thisRepN'
p3207
I35
sg20
S'Y'
sg31
g32
sS'.thisTrialN'
p3208
I9
sS'.thisN'
p3209
I394
sS'.thisIndex'
p3210
I5
sg15
(lp3211
S'k'
asg30
VF
sg17
S'N'
sg14
I8
sg19
(lp3212
S'space'
p3213
asg94
I5
sa(dp3214
g16
(lp3215
S'k'
asg18
S'N'
sS'.thisRepN'
p3216
I35
sg20
S'N'
sg31
g32
sS'.thisTrialN'
p3217
I10
sS'.thisN'
p3218
I395
sS'.thisIndex'
p3219
I0
sg15
(lp3220
S'k'
asg30
VF
sg17
S'Y'
sg14
I8
sg19
(lp3221
S'space'
p3222
asg94
I0
sa(dp3223
g16
(lp3224
S'k'
asg18
S'Y'
sS'.thisRepN'
p3225
I36
sg20
S'N'
sg31
g32
sS'.thisTrialN'
p3226
I0
sS'.thisN'
p3227
I396
sS'.thisIndex'
p3228
I3
sg15
(lp3229
S'k'
asg30
VF
sg17
S'Y'
sg14
I8
sg19
(lp3230
S'k'
asg94
I3
sa(dp3231
g16
(lp3232
S'd'
asg18
S'Y'
sS'.thisRepN'
p3233
I36
sg20
S'N'
sg31
g32
sS'.thisTrialN'
p3234
I1
sS'.thisN'
p3235
I397
sS'.thisIndex'
p3236
I9
sg15
(lp3237
S'd'
asg30
VF
sg17
S'Y'
sg14
I8
sg19
Nsg94
I9
sa(dp3238
g16
(lp3239
S'k'
asg18
S'Y'
sS'.thisRepN'
p3240
I36
sg20
S'Y'
sg31
g32
sS'.thisTrialN'
p3241
I2
sS'.thisN'
p3242
I398
sS'.thisIndex'
p3243
I5
sg15
(lp3244
S'k'
asg30
VF
sg17
S'Y'
sg14
I8
sg19
(lp3245
S'space'
p3246
asg94
I5
sa(dp3247
g16
(lp3248
S'k'
asg18
S'N'
sg22
I30
sS'.thisN'
p3249
I399
sg20
S'Y'
sg31
g32
sS'.thisTrialN'
p3250
I3
sS'.thisRepN'
p3251
I36
sg21
I44
sS'.thisIndex'
p3252
I1
sg23
I23
sg15
(lp3253
S'k'
asg30
VF
sg17
S'Y'
sg14
I8
sg19
Nsg94
I1
sa(dp3254
g16
(lp3255
S'd'
asg94
I2
sS'.thisRepN'
p3256
I36
sg30
VF
sg31
g32
sS'.thisTrialN'
p3257
I4
sS'.thisN'
p3258
I400
sS'.thisIndex'
p3259
I2
sg15
(lp3260
S'd'
asg17
S'Y'
sg14
I9
sa(dp3261
g16
(lp3262
S'k'
asg94
I9
sS'.thisRepN'
p3263
I36
sg30
VF
sg31
g32
sS'.thisTrialN'
p3264
I5
sS'.thisN'
p3265
I401
sS'.thisIndex'
p3266
I9
sg15
(lp3267
S'k'
asg17
S'Y'
sg14
I9
sa(dp3268
g16
(lp3269
S'd'
asg18
S'N'
sS'.thisRepN'
p3270
I36
sg20
S'Y'
sg31
g32
sS'.thisTrialN'
p3271
I6
sS'.thisN'
p3272
I402
sS'.thisIndex'
p3273
I0
sg15
(lp3274
S'd'
asg30
VF
sg17
S'Y'
sg14
I9
sg19
Nsg94
I0
sa(dp3275
g16
(lp3276
S'd'
asg18
S'Y'
sS'.thisRepN'
p3277
I36
sg20
S'Y'
sg31
g32
sS'.thisTrialN'
p3278
I7
sS'.thisN'
p3279
I403
sS'.thisIndex'
p3280
I0
sg15
(lp3281
S'd'
asg30
VF
sg17
S'Y'
sg14
I9
sg19
(lp3282
S'space'
p3283
asg94
I0
sa(dp3284
g16
(lp3285
S'd'
asg18
S'N'
sS'.thisRepN'
p3286
I36
sg20
S'N'
sg31
g32
sS'.thisTrialN'
p3287
I8
sS'.thisN'
p3288
I404
sS'.thisIndex'
p3289
I8
sg15
(lp3290
S'd'
asg30
VF
sg17
S'Y'
sg14
I9
sg19
(lp3291
S'space'
p3292
asg94
I8
sa(dp3293
g16
(lp3294
S'k'
asg18
S'Y'
sS'.thisRepN'
p3295
I36
sg20
S'Y'
sg31
g32
sS'.thisTrialN'
p3296
I9
sS'.thisN'
p3297
I405
sS'.thisIndex'
p3298
I10
sg15
(lp3299
S'k'
asg30
VF
sg17
S'Y'
sg14
I9
sg19
(lp3300
S'space'
p3301
asg94
I10
sa(dp3302
g16
(lp3303
S'd'
asg18
S'N'
sS'.thisRepN'
p3304
I36
sg20
S'Y'
sg31
g32
sS'.thisTrialN'
p3305
I10
sS'.thisN'
p3306
I406
sS'.thisIndex'
p3307
I4
sg15
(lp3308
S'd'
asg30
VF
sg17
S'Y'
sg14
I9
sg19
Nsg94
I4
sa(dp3309
g16
(lp3310
S'k'
asg18
S'N'
sS'.thisRepN'
p3311
I37
sg20
S'Y'
sg31
g32
sS'.thisTrialN'
p3312
I0
sS'.thisN'
p3313
I407
sS'.thisIndex'
p3314
I6
sg15
(lp3315
S'k'
asg30
VF
sg17
S'Y'
sg14
I9
sg19
Nsg94
I6
sa(dp3316
g16
(lp3317
S'd'
asg18
S'Y'
sS'.thisRepN'
p3318
I37
sg20
S'Y'
sg31
g32
sS'.thisTrialN'
p3319
I1
sS'.thisN'
p3320
I408
sS'.thisIndex'
p3321
I4
sg15
(lp3322
S'd'
asg30
VF
sg17
S'Y'
sg14
I9
sg19
(lp3323
S'space'
p3324
asg94
I4
sa(dp3325
g16
(lp3326
S'k'
asg18
S'Y'
sS'.thisRepN'
p3327
I37
sg20
S'N'
sg31
g32
sS'.thisTrialN'
p3328
I2
sS'.thisN'
p3329
I409
sS'.thisIndex'
p3330
I4
sg15
(lp3331
S'k'
asg30
VF
sg17
S'Y'
sg14
I9
sg19
Nsg94
I4
sa(dp3332
g16
(lp3333
S'd'
asg18
S'N'
sS'.thisRepN'
p3334
I37
sg20
S'Y'
sg31
g32
sS'.thisTrialN'
p3335
I3
sS'.thisN'
p3336
I410
sS'.thisIndex'
p3337
I1
sg15
(lp3338
S'd'
asg30
VF
sg17
S'Y'
sg14
I9
sg19
Nsg94
I1
sa(dp3339
g16
(lp3340
S'k'
asg18
S'N'
sS'.thisRepN'
p3341
I37
sg20
S'N'
sg31
g32
sS'.thisTrialN'
p3342
I4
sS'.thisN'
p3343
I411
sS'.thisIndex'
p3344
I8
sg15
(lp3345
S'k'
asg30
VF
sg17
S'Y'
sg14
I9
sg19
(lp3346
S'space'
p3347
asg94
I8
sa(dp3348
g16
(lp3349
S'k'
asg18
S'N'
sS'.thisRepN'
p3350
I37
sg20
S'N'
sg31
g32
sS'.thisTrialN'
p3351
I5
sS'.thisN'
p3352
I412
sS'.thisIndex'
p3353
I8
sg15
(lp3354
S'k'
asg30
VF
sg17
S'Y'
sg14
I9
sg19
(lp3355
S'space'
p3356
asg94
I8
sa(dp3357
g16
(lp3358
S'k'
asg18
S'Y'
sS'.thisRepN'
p3359
I37
sg20
S'N'
sg31
g32
sS'.thisTrialN'
p3360
I6
sS'.thisN'
p3361
I413
sS'.thisIndex'
p3362
I0
sg15
(lp3363
S'k'
asg30
VF
sg17
S'Y'
sg14
I9
sg19
(lp3364
S'd'
asg94
I0
sa(dp3365
g16
(lp3366
S'k'
asg18
S'N'
sS'.thisRepN'
p3367
I37
sg20
S'Y'
sg31
g32
sS'.thisTrialN'
p3368
I7
sS'.thisN'
p3369
I414
sS'.thisIndex'
p3370
I4
sg15
(lp3371
S'k'
asg30
VF
sg17
S'Y'
sg14
I9
sg19
Nsg94
I4
sa(dp3372
g16
(lp3373
S'd'
asg18
S'Y'
sS'.thisRepN'
p3374
I37
sg20
S'Y'
sg31
g32
sS'.thisTrialN'
p3375
I8
sS'.thisN'
p3376
I415
sS'.thisIndex'
p3377
I2
sg15
(lp3378
S'd'
asg30
VF
sg17
S'Y'
sg14
I9
sg19
(lp3379
S'space'
p3380
asg94
I2
sa(dp3381
g16
(lp3382
S'k'
asg18
S'Y'
sS'.thisRepN'
p3383
I37
sg20
S'N'
sg31
g32
sS'.thisTrialN'
p3384
I9
sS'.thisN'
p3385
I416
sS'.thisIndex'
p3386
I9
sg15
(lp3387
S'k'
asg30
VF
sg17
S'Y'
sg14
I9
sg19
Nsg94
I9
sa(dp3388
g16
(lp3389
S'k'
asg18
S'N'
sS'.thisRepN'
p3390
I37
sg20
S'Y'
sg31
g32
sS'.thisTrialN'
p3391
I10
sS'.thisN'
p3392
I417
sS'.thisIndex'
p3393
I0
sg15
(lp3394
S'k'
asg30
VF
sg17
S'Y'
sg14
I9
sg19
Nsg94
I0
sa(dp3395
g16
(lp3396
S'k'
asg18
S'N'
sS'.thisRepN'
p3397
I38
sg20
S'N'
sg31
g32
sS'.thisTrialN'
p3398
I0
sS'.thisN'
p3399
I418
sS'.thisIndex'
p3400
I9
sg15
(lp3401
S'k'
asg30
VF
sg17
S'Y'
sg14
I9
sg19
(lp3402
S'space'
p3403
asg94
I9
sa(dp3404
g16
(lp3405
S'd'
asg18
S'Y'
sS'.thisRepN'
p3406
I38
sg20
S'N'
sg31
g32
sS'.thisTrialN'
p3407
I1
sS'.thisN'
p3408
I419
sS'.thisIndex'
p3409
I9
sg15
(lp3410
S'd'
asg30
VF
sg17
S'Y'
sg14
I9
sg19
Nsg94
I9
sa(dp3411
g16
(lp3412
S'd'
asg18
S'Y'
sS'.thisRepN'
p3413
I38
sg20
S'Y'
sg31
g32
sS'.thisTrialN'
p3414
I2
sS'.thisN'
p3415
I420
sS'.thisIndex'
p3416
I0
sg15
(lp3417
S'd'
asg30
VF
sg17
S'Y'
sg14
I9
sg19
(lp3418
S'space'
p3419
asg94
I0
sa(dp3420
g16
(lp3421
S'k'
asg18
S'Y'
sS'.thisRepN'
p3422
I38
sg20
S'N'
sg31
g32
sS'.thisTrialN'
p3423
I3
sS'.thisN'
p3424
I421
sS'.thisIndex'
p3425
I1
sg15
(lp3426
S'k'
asg30
VF
sg17
S'Y'
sg14
I9
sg19
Nsg94
I1
sa(dp3427
g16
(lp3428
S'd'
asg18
S'N'
sS'.thisRepN'
p3429
I38
sg20
S'N'
sg31
g32
sS'.thisTrialN'
p3430
I4
sS'.thisN'
p3431
I422
sS'.thisIndex'
p3432
I4
sg15
(lp3433
S'd'
asg30
VF
sg17
S'Y'
sg14
I9
sg19
(lp3434
S'space'
p3435
asg94
I4
sa(dp3436
g16
(lp3437
S'd'
asg18
S'N'
sS'.thisRepN'
p3438
I38
sg20
S'N'
sg31
g32
sS'.thisTrialN'
p3439
I5
sS'.thisN'
p3440
I423
sS'.thisIndex'
p3441
I2
sg15
(lp3442
S'd'
asg30
VF
sg17
S'Y'
sg14
I9
sg19
(lp3443
S'space'
p3444
asg94
I2
sa(dp3445
g16
(lp3446
S'd'
asg18
S'Y'
sS'.thisRepN'
p3447
I38
sg20
S'Y'
sg31
g32
sS'.thisTrialN'
p3448
I6
sS'.thisN'
p3449
I424
sS'.thisIndex'
p3450
I2
sg15
(lp3451
S'k'
asg30
VF
sg17
S'N'
sg14
I9
sg19
(lp3452
S'space'
p3453
asg94
I2
sa(dp3454
g16
(lp3455
S'd'
asg18
S'Y'
sS'.thisRepN'
p3456
I38
sg20
S'Y'
sg31
g32
sS'.thisTrialN'
p3457
I7
sS'.thisN'
p3458
I425
sS'.thisIndex'
p3459
I5
sg15
(lp3460
S'd'
asg30
VF
sg17
S'Y'
sg14
I9
sg19
(lp3461
S'space'
p3462
asg94
I5
sa(dp3463
g16
(lp3464
S'd'
asg18
S'Y'
sS'.thisRepN'
p3465
I38
sg20
S'N'
sg31
g32
sS'.thisTrialN'
p3466
I8
sS'.thisN'
p3467
I426
sS'.thisIndex'
p3468
I0
sg15
(lp3469
S'd'
asg30
VF
sg17
S'Y'
sg14
I9
sg19
Nsg94
I0
sa(dp3470
g16
(lp3471
S'k'
asg18
S'Y'
sS'.thisRepN'
p3472
I38
sg20
S'N'
sg31
g32
sS'.thisTrialN'
p3473
I9
sS'.thisN'
p3474
I427
sS'.thisIndex'
p3475
I5
sg15
(lp3476
S'k'
asg30
VF
sg17
S'Y'
sg14
I9
sg19
Nsg94
I5
sa(dp3477
g16
(lp3478
S'k'
asg18
S'N'
sS'.thisRepN'
p3479
I38
sg20
S'N'
sg31
g32
sS'.thisTrialN'
p3480
I10
sS'.thisN'
p3481
I428
sS'.thisIndex'
p3482
I2
sg15
(lp3483
S'k'
asg30
VF
sg17
S'Y'
sg14
I9
sg19
(lp3484
S'space'
p3485
asg94
I2
sa(dp3486
g16
(lp3487
S'd'
asg18
S'N'
sS'.thisRepN'
p3488
I39
sg20
S'N'
sg31
g32
sS'.thisTrialN'
p3489
I0
sS'.thisN'
p3490
I429
sS'.thisIndex'
p3491
I3
sg15
(lp3492
S'd'
asg30
VF
sg17
S'Y'
sg14
I9
sg19
(lp3493
S'd'
asg94
I3
sa(dp3494
g16
(lp3495
S'k'
asg18
S'N'
sS'.thisRepN'
p3496
I39
sg20
S'Y'
sg31
g32
sS'.thisTrialN'
p3497
I1
sS'.thisN'
p3498
I430
sS'.thisIndex'
p3499
I2
sg15
(lp3500
S'k'
asg30
VF
sg17
S'Y'
sg14
I9
sg19
Nsg94
I2
sa(dp3501
g16
(lp3502
S'k'
asg18
S'N'
sS'.thisRepN'
p3503
I39
sg20
S'Y'
sg31
g32
sS'.thisTrialN'
p3504
I2
sS'.thisN'
p3505
I431
sS'.thisIndex'
p3506
I9
sg15
(lp3507
S'k'
asg30
VF
sg17
S'Y'
sg14
I9
sg19
Nsg94
I9
sa(dp3508
g16
(lp3509
S'd'
asg18
S'Y'
sS'.thisRepN'
p3510
I39
sg20
S'N'
sg31
g32
sS'.thisTrialN'
p3511
I3
sS'.thisN'
p3512
I432
sS'.thisIndex'
p3513
I10
sg15
(lp3514
S'd'
asg30
VF
sg17
S'Y'
sg14
I9
sg19
Nsg94
I10
sa(dp3515
g16
(lp3516
S'k'
asg18
S'Y'
sS'.thisRepN'
p3517
I39
sg20
S'N'
sg31
g32
sS'.thisTrialN'
p3518
I4
sS'.thisN'
p3519
I433
sS'.thisIndex'
p3520
I8
sg15
(lp3521
S'k'
asg30
VF
sg17
S'Y'
sg14
I9
sg19
Nsg94
I8
sa(dp3522
g16
(lp3523
S'd'
asg18
S'Y'
sS'.thisRepN'
p3524
I39
sg20
S'N'
sg31
g32
sS'.thisTrialN'
p3525
I5
sS'.thisN'
p3526
I434
sS'.thisIndex'
p3527
I6
sg15
(lp3528
S'd'
asg30
VF
sg17
S'Y'
sg14
I9
sg19
Nsg94
I6
sa(dp3529
g16
(lp3530
S'd'
asg18
S'Y'
sS'.thisRepN'
p3531
I39
sg20
S'N'
sg31
g32
sS'.thisTrialN'
p3532
I6
sS'.thisN'
p3533
I435
sS'.thisIndex'
p3534
I9
sg15
(lp3535
S'k'
asg30
VF
sg17
S'N'
sg14
I9
sg19
Nsg94
I9
sa(dp3536
g16
(lp3537
S'd'
asg18
S'N'
sS'.thisRepN'
p3538
I39
sg20
S'N'
sg31
g32
sS'.thisTrialN'
p3539
I7
sS'.thisN'
p3540
I436
sS'.thisIndex'
p3541
I0
sg15
(lp3542
S'd'
asg30
VF
sg17
S'Y'
sg14
I9
sg19
(lp3543
S'space'
p3544
asg94
I0
sa(dp3545
g16
(lp3546
S'k'
asg18
S'Y'
sS'.thisRepN'
p3547
I39
sg20
S'Y'
sg31
g32
sS'.thisTrialN'
p3548
I8
sS'.thisN'
p3549
I437
sS'.thisIndex'
p3550
I8
sg15
(lp3551
S'k'
asg30
VF
sg17
S'Y'
sg14
I9
sg19
(lp3552
S'space'
p3553
asg94
I8
sa(dp3554
g16
(lp3555
S'k'
asg18
S'Y'
sS'.thisRepN'
p3556
I39
sg20
S'Y'
sg31
g32
sS'.thisTrialN'
p3557
I9
sS'.thisN'
p3558
I438
sS'.thisIndex'
p3559
I2
sg15
(lp3560
S'k'
asg30
VF
sg17
S'Y'
sg14
I9
sg19
(lp3561
S'space'
p3562
asg94
I2
sa(dp3563
g16
(lp3564
S'k'
asg18
S'N'
sS'.thisRepN'
p3565
I39
sg20
S'N'
sg31
g32
sS'.thisTrialN'
p3566
I10
sS'.thisN'
p3567
I439
sS'.thisIndex'
p3568
I3
sg15
(lp3569
S'k'
asg30
VF
sg17
S'Y'
sg14
I9
sg19
(lp3570
S'space'
p3571
asg94
I3
sa(dp3572
g16
(lp3573
S'd'
asg18
S'N'
sS'.thisRepN'
p3574
I40
sg20
S'Y'
sg31
g32
sS'.thisTrialN'
p3575
I0
sS'.thisN'
p3576
I440
sS'.thisIndex'
p3577
I10
sg15
(lp3578
S'd'
asg30
VF
sg17
S'Y'
sg14
I9
sg19
Nsg94
I10
sa(dp3579
g16
(lp3580
S'd'
asg18
S'N'
sS'.thisRepN'
p3581
I40
sg20
S'Y'
sg31
g32
sS'.thisTrialN'
p3582
I1
sS'.thisN'
p3583
I441
sS'.thisIndex'
p3584
I1
sg15
(lp3585
S'd'
asg30
VF
sg17
S'Y'
sg14
I9
sg19
Nsg94
I1
sa(dp3586
g16
(lp3587
S'k'
asg18
S'Y'
sS'.thisRepN'
p3588
I40
sg20
S'N'
sg31
g32
sS'.thisTrialN'
p3589
I2
sS'.thisN'
p3590
I442
sS'.thisIndex'
p3591
I2
sg15
(lp3592
S'k'
asg30
VF
sg17
S'Y'
sg14
I9
sg19
Nsg94
I2
sa(dp3593
g16
(lp3594
S'k'
asg18
S'Y'
sS'.thisRepN'
p3595
I40
sg20
S'Y'
sg31
g32
sS'.thisTrialN'
p3596
I3
sS'.thisN'
p3597
I443
sS'.thisIndex'
p3598
I4
sg15
(lp3599
S'k'
asg30
VF
sg17
S'Y'
sg14
I9
sg19
(lp3600
S'space'
p3601
asg94
I4
sa(dp3602
g16
(lp3603
S'k'
asg18
S'Y'
sS'.thisRepN'
p3604
I40
sg20
S'Y'
sg31
g32
sS'.thisTrialN'
p3605
I4
sS'.thisN'
p3606
I444
sS'.thisIndex'
p3607
I2
sg15
(lp3608
S'k'
asg30
VF
sg17
S'Y'
sg14
I9
sg19
(lp3609
S'space'
p3610
asg94
I2
sa(dp3611
g16
(lp3612
S'd'
asg18
S'Y'
sS'.thisRepN'
p3613
I40
sg20
S'Y'
sg31
g32
sS'.thisTrialN'
p3614
I5
sS'.thisN'
p3615
I445
sS'.thisIndex'
p3616
I9
sg15
(lp3617
S'd'
asg30
VF
sg17
S'Y'
sg14
I9
sg19
(lp3618
S'space'
p3619
asg94
I9
sa(dp3620
g16
(lp3621
S'd'
asg18
S'N'
sS'.thisRepN'
p3622
I40
sg20
S'Y'
sg31
g32
sS'.thisTrialN'
p3623
I6
sS'.thisN'
p3624
I446
sS'.thisIndex'
p3625
I0
sg15
(lp3626
S'd'
asg30
VF
sg17
S'Y'
sg14
I9
sg19
Nsg94
I0
sa(dp3627
g16
(lp3628
S'k'
asg18
S'Y'
sS'.thisRepN'
p3629
I40
sg20
S'Y'
sg31
g32
sS'.thisTrialN'
p3630
I7
sS'.thisN'
p3631
I447
sS'.thisIndex'
p3632
I6
sg15
(lp3633
S'k'
asg30
VF
sg17
S'Y'
sg14
I9
sg19
(lp3634
S'space'
p3635
asg94
I6
sa(dp3636
g16
(lp3637
S'k'
asg18
S'N'
sS'.thisRepN'
p3638
I40
sg20
S'N'
sg31
g32
sS'.thisTrialN'
p3639
I8
sS'.thisN'
p3640
I448
sS'.thisIndex'
p3641
I0
sg15
(lp3642
S'k'
asg30
VF
sg17
S'Y'
sg14
I9
sg19
(lp3643
S'space'
p3644
asg94
I0
sa(dp3645
g16
(lp3646
S'k'
asg18
S'N'
sg22
I25
sS'.thisN'
p3647
I449
sg20
S'Y'
sg31
g32
sS'.thisTrialN'
p3648
I9
sS'.thisRepN'
p3649
I40
sg21
I48
sS'.thisIndex'
p3650
I1
sg23
I25
sg15
(lp3651
S'k'
asg30
VF
sg17
S'Y'
sg14
I9
sg19
Nsg94
I1
sa(dp3652
g16
(lp3653
S'k'
asg94
I4
sS'.thisRepN'
p3654
I40
sg30
VF
sg31
g32
sS'.thisTrialN'
p3655
I10
sS'.thisN'
p3656
I450
sS'.thisIndex'
p3657
I4
sg15
(lp3658
S'k'
asg17
S'Y'
sg14
I10
sa(dp3659
g16
(lp3660
S'd'
asg94
I3
sS'.thisRepN'
p3661
I41
sg30
VF
sg31
g32
sS'.thisTrialN'
p3662
I0
sS'.thisN'
p3663
I451
sS'.thisIndex'
p3664
I3
sg15
(lp3665
S'k'
asg17
S'N'
sg14
I10
sa(dp3666
g16
(lp3667
S'd'
asg18
S'Y'
sS'.thisRepN'
p3668
I41
sg20
S'N'
sg31
g32
sS'.thisTrialN'
p3669
I1
sS'.thisN'
p3670
I452
sS'.thisIndex'
p3671
I1
sg15
(lp3672
S'd'
asg30
VF
sg17
S'Y'
sg14
I10
sg19
Nsg94
I1
sa(dp3673
g16
(lp3674
S'd'
asg18
S'Y'
sS'.thisRepN'
p3675
I41
sg20
S'N'
sg31
g32
sS'.thisTrialN'
p3676
I2
sS'.thisN'
p3677
I453
sS'.thisIndex'
p3678
I4
sg15
(lp3679
S'd'
asg30
VF
sg17
S'Y'
sg14
I10
sg19
Nsg94
I4
sa(dp3680
g16
(lp3681
S'k'
asg18
S'N'
sS'.thisRepN'
p3682
I41
sg20
S'N'
sg31
g32
sS'.thisTrialN'
p3683
I3
sS'.thisN'
p3684
I454
sS'.thisIndex'
p3685
I3
sg15
(lp3686
S'k'
asg30
VF
sg17
S'Y'
sg14
I10
sg19
(lp3687
S'k'
asg94
I3
sa(dp3688
g16
(lp3689
S'k'
asg18
S'Y'
sS'.thisRepN'
p3690
I41
sg20
S'N'
sg31
g32
sS'.thisTrialN'
p3691
I4
sS'.thisN'
p3692
I455
sS'.thisIndex'
p3693
I10
sg15
(lp3694
S'k'
asg30
VF
sg17
S'Y'
sg14
I10
sg19
Nsg94
I10
sa(dp3695
g16
(lp3696
S'd'
asg18
S'Y'
sS'.thisRepN'
p3697
I41
sg20
S'N'
sg31
g32
sS'.thisTrialN'
p3698
I5
sS'.thisN'
p3699
I456
sS'.thisIndex'
p3700
I2
sg15
(lp3701
S'd'
asg30
VF
sg17
S'Y'
sg14
I10
sg19
(lp3702
S'k'
asg94
I2
sa(dp3703
g16
(lp3704
S'd'
asg18
S'N'
sS'.thisRepN'
p3705
I41
sg20
S'N'
sg31
g32
sS'.thisTrialN'
p3706
I6
sS'.thisN'
p3707
I457
sS'.thisIndex'
p3708
I1
sg15
(lp3709
S'd'
asg30
VF
sg17
S'Y'
sg14
I10
sg19
(lp3710
S'k'
asg94
I1
sa(dp3711
g16
(lp3712
S'k'
asg18
S'N'
sS'.thisRepN'
p3713
I41
sg20
S'Y'
sg31
g32
sS'.thisTrialN'
p3714
I7
sS'.thisN'
p3715
I458
sS'.thisIndex'
p3716
I6
sg15
(lp3717
S'k'
asg30
VF
sg17
S'Y'
sg14
I10
sg19
Nsg94
I6
sa(dp3718
g16
(lp3719
S'd'
asg18
S'Y'
sS'.thisRepN'
p3720
I41
sg20
S'N'
sg31
g32
sS'.thisTrialN'
p3721
I8
sS'.thisN'
p3722
I459
sS'.thisIndex'
p3723
I4
sg15
(lp3724
S'd'
asg30
VF
sg17
S'Y'
sg14
I10
sg19
Nsg94
I4
sa(dp3725
g16
(lp3726
S'd'
asg18
S'N'
sS'.thisRepN'
p3727
I41
sg20
S'Y'
sg31
g32
sS'.thisTrialN'
p3728
I9
sS'.thisN'
p3729
I460
sS'.thisIndex'
p3730
I9
sg15
(lp3731
S'd'
asg30
VF
sg17
S'Y'
sg14
I10
sg19
Nsg94
I9
sa(dp3732
g16
(lp3733
S'k'
asg18
S'Y'
sS'.thisRepN'
p3734
I41
sg20
S'N'
sg31
g32
sS'.thisTrialN'
p3735
I10
sS'.thisN'
p3736
I461
sS'.thisIndex'
p3737
I8
sg15
(lp3738
S'k'
asg30
VF
sg17
S'Y'
sg14
I10
sg19
Nsg94
I8
sa(dp3739
g16
(lp3740
S'k'
asg18
S'N'
sS'.thisRepN'
p3741
I42
sg20
S'Y'
sg31
g32
sS'.thisTrialN'
p3742
I0
sS'.thisN'
p3743
I462
sS'.thisIndex'
p3744
I2
sg15
(lp3745
S'k'
asg30
VF
sg17
S'Y'
sg14
I10
sg19
Nsg94
I2
sa(dp3746
g16
(lp3747
S'k'
asg18
S'Y'
sS'.thisRepN'
p3748
I42
sg20
S'N'
sg31
g32
sS'.thisTrialN'
p3749
I1
sS'.thisN'
p3750
I463
sS'.thisIndex'
p3751
I10
sg15
(lp3752
S'k'
asg30
VF
sg17
S'Y'
sg14
I10
sg19
(lp3753
S'd'
asg94
I10
sa(dp3754
g16
(lp3755
S'k'
asg18
S'Y'
sS'.thisRepN'
p3756
I42
sg20
S'N'
sg31
g32
sS'.thisTrialN'
p3757
I2
sS'.thisN'
p3758
I464
sS'.thisIndex'
p3759
I3
sg15
(lp3760
S'k'
asg30
VF
sg17
S'Y'
sg14
I10
sg19
(lp3761
S'd'
asg94
I3
sa(dp3762
g16
(lp3763
S'k'
asg18
S'N'
sS'.thisRepN'
p3764
I42
sg20
S'N'
sg31
g32
sS'.thisTrialN'
p3765
I3
sS'.thisN'
p3766
I465
sS'.thisIndex'
p3767
I7
sg15
(lp3768
S'k'
asg30
VF
sg17
S'Y'
sg14
I10
sg19
(lp3769
S'd'
asg94
I7
sa(dp3770
g16
(lp3771
S'k'
asg18
S'N'
sS'.thisRepN'
p3772
I42
sg20
S'N'
sg31
g32
sS'.thisTrialN'
p3773
I4
sS'.thisN'
p3774
I466
sS'.thisIndex'
p3775
I7
sg15
(lp3776
S'k'
asg30
VF
sg17
S'Y'
sg14
I10
sg19
(lp3777
S'space'
p3778
asg94
I7
sa(dp3779
g16
(lp3780
S'k'
asg18
S'Y'
sS'.thisRepN'
p3781
I42
sg20
S'Y'
sg31
g32
sS'.thisTrialN'
p3782
I5
sS'.thisN'
p3783
I467
sS'.thisIndex'
p3784
I7
sg15
(lp3785
S'k'
asg30
VF
sg17
S'Y'
sg14
I10
sg19
(lp3786
S'space'
p3787
asg94
I7
sa(dp3788
g16
(lp3789
S'k'
asg18
S'N'
sS'.thisRepN'
p3790
I42
sg20
S'Y'
sg31
g32
sS'.thisTrialN'
p3791
I6
sS'.thisN'
p3792
I468
sS'.thisIndex'
p3793
I3
sg15
(lp3794
S'k'
asg30
VF
sg17
S'Y'
sg14
I10
sg19
Nsg94
I3
sa(dp3795
g16
(lp3796
S'd'
asg18
S'Y'
sS'.thisRepN'
p3797
I42
sg20
S'Y'
sg31
g32
sS'.thisTrialN'
p3798
I7
sS'.thisN'
p3799
I469
sS'.thisIndex'
p3800
I2
sg15
(lp3801
S'd'
asg30
VF
sg17
S'Y'
sg14
I10
sg19
(lp3802
S'space'
p3803
asg94
I2
sa(dp3804
g16
(lp3805
S'k'
asg18
S'N'
sS'.thisRepN'
p3806
I42
sg20
S'N'
sg31
g32
sS'.thisTrialN'
p3807
I8
sS'.thisN'
p3808
I470
sS'.thisIndex'
p3809
I9
sg15
(lp3810
S'k'
asg30
VF
sg17
S'Y'
sg14
I10
sg19
(lp3811
S'space'
p3812
asg94
I9
sa(dp3813
g16
(lp3814
S'd'
asg18
S'Y'
sS'.thisRepN'
p3815
I42
sg20
S'N'
sg31
g32
sS'.thisTrialN'
p3816
I9
sS'.thisN'
p3817
I471
sS'.thisIndex'
p3818
I7
sg15
(lp3819
S'd'
asg30
VF
sg17
S'Y'
sg14
I10
sg19
Nsg94
I7
sa(dp3820
g16
(lp3821
S'k'
asg18
S'N'
sS'.thisRepN'
p3822
I42
sg20
S'Y'
sg31
g32
sS'.thisTrialN'
p3823
I10
sS'.thisN'
p3824
I472
sS'.thisIndex'
p3825
I7
sg15
(lp3826
S'k'
asg30
VF
sg17
S'Y'
sg14
I10
sg19
Nsg94
I7
sa(dp3827
g16
(lp3828
S'k'
asg18
S'Y'
sS'.thisRepN'
p3829
I43
sg20
S'N'
sg31
g32
sS'.thisTrialN'
p3830
I0
sS'.thisN'
p3831
I473
sS'.thisIndex'
p3832
I10
sg15
(lp3833
S'k'
asg30
VF
sg17
S'Y'
sg14
I10
sg19
Nsg94
I10
sa(dp3834
g16
(lp3835
S'd'
asg18
S'N'
sS'.thisRepN'
p3836
I43
sg20
S'Y'
sg31
g32
sS'.thisTrialN'
p3837
I1
sS'.thisN'
p3838
I474
sS'.thisIndex'
p3839
I8
sg15
(lp3840
S'd'
asg30
VF
sg17
S'Y'
sg14
I10
sg19
Nsg94
I8
sa(dp3841
g16
(lp3842
S'd'
asg18
S'N'
sS'.thisRepN'
p3843
I43
sg20
S'Y'
sg31
g32
sS'.thisTrialN'
p3844
I2
sS'.thisN'
p3845
I475
sS'.thisIndex'
p3846
I9
sg15
(lp3847
S'd'
asg30
VF
sg17
S'Y'
sg14
I10
sg19
Nsg94
I9
sa(dp3848
g16
(lp3849
S'd'
asg18
S'Y'
sS'.thisRepN'
p3850
I43
sg20
S'N'
sg31
g32
sS'.thisTrialN'
p3851
I3
sS'.thisN'
p3852
I476
sS'.thisIndex'
p3853
I10
sg15
(lp3854
S'd'
asg30
VF
sg17
S'Y'
sg14
I10
sg19
(lp3855
S'k'
asg94
I10
sa(dp3856
g16
(lp3857
S'k'
asg18
S'N'
sS'.thisRepN'
p3858
I43
sg20
S'N'
sg31
g32
sS'.thisTrialN'
p3859
I4
sS'.thisN'
p3860
I477
sS'.thisIndex'
p3861
I3
sg15
(lp3862
S'k'
asg30
VF
sg17
S'Y'
sg14
I10
sg19
(lp3863
S'd'
asg94
I3
sa(dp3864
g16
(lp3865
S'k'
asg18
S'N'
sS'.thisRepN'
p3866
I43
sg20
S'Y'
sg31
g32
sS'.thisTrialN'
p3867
I5
sS'.thisN'
p3868
I478
sS'.thisIndex'
p3869
I6
sg15
(lp3870
S'k'
asg30
VF
sg17
S'Y'
sg14
I10
sg19
Nsg94
I6
sa(dp3871
g16
(lp3872
S'd'
asg18
S'Y'
sS'.thisRepN'
p3873
I43
sg20
S'N'
sg31
g32
sS'.thisTrialN'
p3874
I6
sS'.thisN'
p3875
I479
sS'.thisIndex'
p3876
I8
sg15
(lp3877
S'd'
asg30
VF
sg17
S'Y'
sg14
I10
sg19
Nsg94
I8
sa(dp3878
g16
(lp3879
S'd'
asg18
S'N'
sS'.thisRepN'
p3880
I43
sg20
S'N'
sg31
g32
sS'.thisTrialN'
p3881
I7
sS'.thisN'
p3882
I480
sS'.thisIndex'
p3883
I10
sg15
(lp3884
S'k'
asg30
VF
sg17
S'N'
sg14
I10
sg19
(lp3885
S'space'
p3886
asg94
I10
sa(dp3887
g16
(lp3888
S'k'
asg18
S'Y'
sS'.thisRepN'
p3889
I43
sg20
S'N'
sg31
g32
sS'.thisTrialN'
p3890
I8
sS'.thisN'
p3891
I481
sS'.thisIndex'
p3892
I9
sg15
(lp3893
S'k'
asg30
VF
sg17
S'Y'
sg14
I10
sg19
(lp3894
S'k'
asg94
I9
sa(dp3895
g16
(lp3896
S'd'
asg18
S'N'
sS'.thisRepN'
p3897
I43
sg20
S'N'
sg31
g32
sS'.thisTrialN'
p3898
I9
sS'.thisN'
p3899
I482
sS'.thisIndex'
p3900
I5
sg15
(lp3901
S'd'
asg30
VF
sg17
S'Y'
sg14
I10
sg19
(lp3902
S'space'
p3903
asg94
I5
sa(dp3904
g16
(lp3905
S'd'
asg18
S'Y'
sS'.thisRepN'
p3906
I43
sg20
S'Y'
sg31
g32
sS'.thisTrialN'
p3907
I10
sS'.thisN'
p3908
I483
sS'.thisIndex'
p3909
I4
sg15
(lp3910
S'k'
asg30
VF
sg17
S'N'
sg14
I10
sg19
(lp3911
S'space'
p3912
asg94
I4
sa(dp3913
g16
(lp3914
S'd'
asg18
S'N'
sS'.thisRepN'
p3915
I44
sg20
S'N'
sg31
g32
sS'.thisTrialN'
p3916
I0
sS'.thisN'
p3917
I484
sS'.thisIndex'
p3918
I7
sg15
(lp3919
S'd'
asg30
VF
sg17
S'Y'
sg14
I10
sg19
(lp3920
S'd'
asg94
I7
sa(dp3921
g16
(lp3922
S'd'
asg18
S'Y'
sS'.thisRepN'
p3923
I44
sg20
S'Y'
sg31
g32
sS'.thisTrialN'
p3924
I1
sS'.thisN'
p3925
I485
sS'.thisIndex'
p3926
I3
sg15
(lp3927
S'd'
asg30
VF
sg17
S'Y'
sg14
I10
sg19
(lp3928
S'space'
p3929
asg94
I3
sa(dp3930
g16
(lp3931
S'd'
asg18
S'N'
sS'.thisRepN'
p3932
I44
sg20
S'N'
sg31
g32
sS'.thisTrialN'
p3933
I2
sS'.thisN'
p3934
I486
sS'.thisIndex'
p3935
I9
sg15
(lp3936
S'k'
asg30
VF
sg17
S'N'
sg14
I10
sg19
(lp3937
S'space'
p3938
asg94
I9
sa(dp3939
g16
(lp3940
S'd'
asg18
S'N'
sS'.thisRepN'
p3941
I44
sg20
S'N'
sg31
g32
sS'.thisTrialN'
p3942
I3
sS'.thisN'
p3943
I487
sS'.thisIndex'
p3944
I2
sg15
(lp3945
S'd'
asg30
VF
sg17
S'Y'
sg14
I10
sg19
(lp3946
S'space'
p3947
asg94
I2
sa(dp3948
g16
(lp3949
S'd'
asg18
S'Y'
sS'.thisRepN'
p3950
I44
sg20
S'Y'
sg31
g32
sS'.thisTrialN'
p3951
I4
sS'.thisN'
p3952
I488
sS'.thisIndex'
p3953
I9
sg15
(lp3954
S'k'
asg30
VF
sg17
S'N'
sg14
I10
sg19
(lp3955
S'space'
p3956
asg94
I9
sa(dp3957
g16
(lp3958
S'd'
asg18
S'N'
sS'.thisRepN'
p3959
I44
sg20
S'N'
sg31
g32
sS'.thisTrialN'
p3960
I5
sS'.thisN'
p3961
I489
sS'.thisIndex'
p3962
I6
sg15
(lp3963
S'k'
asg30
VF
sg17
S'N'
sg14
I10
sg19
(lp3964
S'space'
p3965
asg94
I6
sa(dp3966
g16
(lp3967
S'k'
asg18
S'Y'
sS'.thisRepN'
p3968
I44
sg20
S'Y'
sg31
g32
sS'.thisTrialN'
p3969
I6
sS'.thisN'
p3970
I490
sS'.thisIndex'
p3971
I1
sg15
(lp3972
S'k'
asg30
VF
sg17
S'Y'
sg14
I10
sg19
(lp3973
S'space'
p3974
asg94
I1
sa(dp3975
g16
(lp3976
S'k'
asg18
S'Y'
sS'.thisRepN'
p3977
I44
sg20
S'Y'
sg31
g32
sS'.thisTrialN'
p3978
I7
sS'.thisN'
p3979
I491
sS'.thisIndex'
p3980
I1
sg15
(lp3981
S'k'
asg30
VF
sg17
S'Y'
sg14
I10
sg19
(lp3982
S'space'
p3983
asg94
I1
sa(dp3984
g16
(lp3985
S'k'
asg18
S'N'
sS'.thisRepN'
p3986
I44
sg20
S'N'
sg31
g32
sS'.thisTrialN'
p3987
I8
sS'.thisN'
p3988
I492
sS'.thisIndex'
p3989
I0
sg15
(lp3990
S'k'
asg30
VF
sg17
S'Y'
sg14
I10
sg19
(lp3991
S'space'
p3992
asg94
I0
sa(dp3993
g16
(lp3994
S'k'
asg18
S'N'
sS'.thisRepN'
p3995
I44
sg20
S'N'
sg31
g32
sS'.thisTrialN'
p3996
I9
sS'.thisN'
p3997
I493
sS'.thisIndex'
p3998
I5
sg15
(lp3999
S'k'
asg30
VF
sg17
S'Y'
sg14
I10
sg19
(lp4000
S'space'
p4001
asg94
I5
sa(dp4002
g16
(lp4003
S'k'
asg18
S'N'
sS'.thisRepN'
p4004
I44
sg20
S'Y'
sg31
g32
sS'.thisTrialN'
p4005
I10
sS'.thisN'
p4006
I494
sS'.thisIndex'
p4007
I7
sg15
(lp4008
S'd'
asg30
VF
sg17
S'N'
sg14
I10
sg19
Nsg94
I7
sa(dp4009
g16
(lp4010
S'd'
asg18
S'N'
sS'.thisRepN'
p4011
I45
sg20
S'Y'
sg31
g32
sS'.thisTrialN'
p4012
I0
sS'.thisN'
p4013
I495
sS'.thisIndex'
p4014
I2
sg15
(lp4015
S'd'
asg30
VF
sg17
S'Y'
sg14
I10
sg19
Nsg94
I2
sa(dp4016
g16
(lp4017
S'd'
asg18
S'N'
sS'.thisRepN'
p4018
I45
sg20
S'Y'
sg31
g32
sS'.thisTrialN'
p4019
I1
sS'.thisN'
p4020
I496
sS'.thisIndex'
p4021
I8
sg15
(lp4022
S'd'
asg30
VF
sg17
S'Y'
sg14
I10
sg19
Nsg94
I8
sa(dp4023
g16
(lp4024
S'k'
asg18
S'N'
sS'.thisRepN'
p4025
I45
sg20
S'Y'
sg31
g32
sS'.thisTrialN'
p4026
I2
sS'.thisN'
p4027
I497
sS'.thisIndex'
p4028
I9
sg15
(lp4029
S'k'
asg30
VF
sg17
S'Y'
sg14
I10
sg19
Nsg94
I9
sa(dp4030
g16
(lp4031
S'd'
asg18
S'N'
sS'.thisRepN'
p4032
I45
sg20
S'Y'
sg31
g32
sS'.thisTrialN'
p4033
I3
sS'.thisN'
p4034
I498
sS'.thisIndex'
p4035
I1
sg15
(lp4036
S'd'
asg30
VF
sg17
S'Y'
sg14
I10
sg19
Nsg94
I1
sa(dp4037
g16
(lp4038
S'k'
asg18
S'Y'
sg22
I20
sS'.thisN'
p4039
I499
sg20
S'N'
sg31
g32
sS'.thisTrialN'
p4040
I4
sS'.thisRepN'
p4041
I45
sg21
I43
sS'.thisIndex'
p4042
I0
sg23
I21
sg15
(lp4043
S'k'
asg30
VF
sg17
S'Y'
sg14
I10
sg19
Nsg94
I0
sa(dp4044
g16
(lp4045
S'k'
asS'.thisIndex'
p4046
I1
sS'.thisRepN'
p4047
I45
sg26
S'Y'
sg30
VF
sg31
g32
sS'.thisTrialN'
p4048
I5
sS'.thisN'
p4049
I500
sg25
S'Y'
sg24
S'Y'
sg15
(lp4050
S'd'
asg17
S'Y'
sg14
I11
sg94
I1
sa(dp4051
g16
(lp4052
S'k'
asS'.thisIndex'
p4053
I9
sS'.thisRepN'
p4054
I45
sg26
S'Y'
sg30
VF
sg31
g32
sS'.thisTrialN'
p4055
I6
sS'.thisN'
p4056
I501
sg25
S'Y'
sg15
(lp4057
S'k'
asg17
S'N'
sg14
I11
sg94
I9
sa(dp4058
g16
(lp4059
S'k'
asg18
S'Y'
sS'.thisRepN'
p4060
I45
sg26
S'Y'
sg20
S'Y'
sg31
g32
sS'.thisTrialN'
p4061
I7
sS'.thisN'
p4062
I502
sg25
S'Y'
sg15
(lp4063
S'd'
asg30
VF
sg17
S'Y'
sg14
I11
sg19
(lp4064
S'space'
p4065
asg94
I3
sS'.thisIndex'
p4066
I3
sa(dp4067
g16
(lp4068
S'd'
asg18
S'Y'
sS'.thisRepN'
p4069
I45
sg26
S'Y'
sg20
S'N'
sg31
g32
sS'.thisTrialN'
p4070
I8
sS'.thisN'
p4071
I503
sg25
S'Y'
sg15
(lp4072
S'k'
asg30
VF
sg17
S'Y'
sg14
I11
sg19
Nsg94
I1
sS'.thisIndex'
p4073
I1
sa(dp4074
g16
(lp4075
S'd'
asg18
S'Y'
sS'.thisRepN'
p4076
I45
sg26
S'Y'
sg20
S'Y'
sg31
g32
sS'.thisTrialN'
p4077
I9
sS'.thisN'
p4078
I504
sg25
S'Y'
sg15
(lp4079
S'k'
asg30
VF
sg17
S'Y'
sg14
I11
sg19
(lp4080
S'space'
p4081
asg94
I8
sS'.thisIndex'
p4082
I8
sa(dp4083
g16
(lp4084
S'k'
asg18
S'Y'
sS'.thisRepN'
p4085
I45
sg26
S'Y'
sg20
S'Y'
sg31
g32
sS'.thisTrialN'
p4086
I10
sS'.thisN'
p4087
I505
sg25
S'Y'
sg15
(lp4088
S'k'
asg30
VF
sg17
S'N'
sg14
I11
sg19
(lp4089
S'space'
p4090
asg94
I6
sS'.thisIndex'
p4091
I6
sa(dp4092
g16
(lp4093
S'k'
asg18
S'N'
sS'.thisRepN'
p4094
I46
sg26
S'Y'
sg20
S'Y'
sg31
g32
sS'.thisTrialN'
p4095
I0
sS'.thisN'
p4096
I506
sg25
S'Y'
sg15
(lp4097
S'd'
asg30
VF
sg17
S'Y'
sg14
I11
sg19
Nsg94
I3
sS'.thisIndex'
p4098
I3
sa(dp4099
g16
(lp4100
S'd'
asg18
S'Y'
sS'.thisRepN'
p4101
I46
sg26
S'Y'
sg20
S'N'
sg31
g32
sS'.thisTrialN'
p4102
I1
sS'.thisN'
p4103
I507
sg25
S'Y'
sg15
(lp4104
S'd'
asg30
VF
sg17
S'N'
sg14
I11
sg19
Nsg94
I10
sS'.thisIndex'
p4105
I10
sa(dp4106
g16
(lp4107
S'k'
asg18
S'N'
sS'.thisRepN'
p4108
I46
sg26
S'Y'
sg20
S'N'
sg31
g32
sS'.thisTrialN'
p4109
I2
sS'.thisN'
p4110
I508
sg25
S'Y'
sg15
(lp4111
S'd'
asg30
VF
sg17
S'Y'
sg14
I11
sg19
(lp4112
S'space'
p4113
asg94
I10
sS'.thisIndex'
p4114
I10
sa(dp4115
g18
S'N'
sS'.thisRepN'
p4116
I46
sg26
S'Y'
sg20
S'N'
sg31
g32
sS'.thisTrialN'
p4117
I3
sS'.thisN'
p4118
I509
sg25
S'Y'
sg15
Nsg30
VF
sg17
g2629
sg14
I11
sg19
(lp4119
S'space'
p4120
asg94
I3
sS'.thisIndex'
p4121
I3
sa(dp4122
g16
(lp4123
S'd'
asg18
S'N'
sS'.thisRepN'
p4124
I46
sg26
S'Y'
sg20
S'N'
sg31
g32
sS'.thisTrialN'
p4125
I4
sS'.thisN'
p4126
I510
sg25
S'Y'
sg15
(lp4127
S'd'
asg30
VF
sg17
S'N'
sg14
I11
sg19
(lp4128
S'space'
p4129
asg94
I7
sS'.thisIndex'
p4130
I7
sa(dp4131
g16
(lp4132
S'd'
asg18
S'Y'
sS'.thisRepN'
p4133
I46
sg26
S'Y'
sg20
S'Y'
sg31
g32
sS'.thisTrialN'
p4134
I5
sS'.thisN'
p4135
I511
sg25
S'Y'
sg15
(lp4136
S'k'
asg30
VF
sg17
S'Y'
sg14
I11
sg19
(lp4137
S'space'
p4138
asg94
I4
sS'.thisIndex'
p4139
I4
sa(dp4140
g16
(lp4141
S'k'
asg18
S'Y'
sS'.thisRepN'
p4142
I46
sg26
S'Y'
sg20
S'Y'
sg31
g32
sS'.thisTrialN'
p4143
I6
sS'.thisN'
p4144
I512
sg25
S'Y'
sg15
(lp4145
S'd'
asg30
VF
sg17
S'Y'
sg14
I11
sg19
(lp4146
S'space'
p4147
asg94
I6
sS'.thisIndex'
p4148
I6
sa(dp4149
g16
(lp4150
S'd'
asg18
S'Y'
sS'.thisRepN'
p4151
I46
sg26
S'Y'
sg20
S'N'
sg31
g32
sS'.thisTrialN'
p4152
I7
sS'.thisN'
p4153
I513
sg25
S'Y'
sg15
(lp4154
S'k'
asg30
VF
sg17
S'Y'
sg14
I11
sg19
Nsg94
I3
sS'.thisIndex'
p4155
I3
sa(dp4156
g16
(lp4157
S'k'
asg18
S'N'
sS'.thisRepN'
p4158
I46
sg26
S'Y'
sg20
S'N'
sg31
g32
sS'.thisTrialN'
p4159
I8
sS'.thisN'
p4160
I514
sg25
S'Y'
sg15
(lp4161
S'd'
asg30
VF
sg17
S'Y'
sg14
I11
sg19
(lp4162
S'space'
p4163
asg94
I5
sS'.thisIndex'
p4164
I5
sa(dp4165
g16
(lp4166
S'd'
asg18
S'Y'
sS'.thisRepN'
p4167
I46
sg26
S'Y'
sg20
S'Y'
sg31
g32
sS'.thisTrialN'
p4168
I9
sS'.thisN'
p4169
I515
sg25
S'Y'
sg15
(lp4170
S'k'
asg30
VF
sg17
S'Y'
sg14
I11
sg19
(lp4171
S'space'
p4172
asg94
I2
sS'.thisIndex'
p4173
I2
sa(dp4174
g16
(lp4175
S'k'
asg18
S'N'
sS'.thisRepN'
p4176
I46
sg26
S'Y'
sg20
S'N'
sg31
g32
sS'.thisTrialN'
p4177
I10
sS'.thisN'
p4178
I516
sg25
S'Y'
sg15
(lp4179
S'd'
asg30
VF
sg17
S'Y'
sg14
I11
sg19
(lp4180
S'space'
p4181
asg94
I3
sS'.thisIndex'
p4182
I3
sa(dp4183
g16
(lp4184
S'k'
asg18
S'Y'
sS'.thisRepN'
p4185
I47
sg26
S'Y'
sg20
S'Y'
sg31
g32
sS'.thisTrialN'
p4186
I0
sS'.thisN'
p4187
I517
sg25
S'Y'
sg15
(lp4188
S'd'
asg30
VF
sg17
S'Y'
sg14
I11
sg19
(lp4189
S'space'
p4190
asg94
I10
sS'.thisIndex'
p4191
I10
sa(dp4192
g16
(lp4193
S'k'
asg18
S'N'
sS'.thisRepN'
p4194
I47
sg26
S'Y'
sg20
S'Y'
sg31
g32
sS'.thisTrialN'
p4195
I1
sS'.thisN'
p4196
I518
sg25
S'Y'
sg15
(lp4197
S'd'
asg30
VF
sg17
S'Y'
sg14
I11
sg19
Nsg94
I8
sS'.thisIndex'
p4198
I8
sa(dp4199
g16
(lp4200
S'd'
asg18
S'Y'
sS'.thisRepN'
p4201
I47
sg26
S'Y'
sg20
S'Y'
sg31
g32
sS'.thisTrialN'
p4202
I2
sS'.thisN'
p4203
I519
sg25
S'Y'
sg15
(lp4204
S'k'
asg30
VF
sg17
S'Y'
sg14
I11
sg19
(lp4205
S'space'
p4206
asg94
I4
sS'.thisIndex'
p4207
I4
sa(dp4208
g16
(lp4209
S'k'
asg18
S'Y'
sS'.thisRepN'
p4210
I47
sg26
S'Y'
sg20
S'Y'
sg31
g32
sS'.thisTrialN'
p4211
I3
sS'.thisN'
p4212
I520
sg25
S'Y'
sg15
(lp4213
S'd'
asg30
VF
sg17
S'Y'
sg14
I11
sg19
(lp4214
S'space'
p4215
asg94
I10
sS'.thisIndex'
p4216
I10
sa(dp4217
g16
(lp4218
S'd'
asg18
S'N'
sS'.thisRepN'
p4219
I47
sg26
S'Y'
sg20
S'N'
sg31
g32
sS'.thisTrialN'
p4220
I4
sS'.thisN'
p4221
I521
sg25
S'Y'
sg15
(lp4222
S'k'
asg30
VF
sg17
S'Y'
sg14
I11
sg19
(lp4223
S'space'
p4224
asg94
I2
sS'.thisIndex'
p4225
I2
sa(dp4226
g16
(lp4227
S'd'
asg18
S'Y'
sS'.thisRepN'
p4228
I47
sg26
S'Y'
sg20
S'Y'
sg31
g32
sS'.thisTrialN'
p4229
I5
sS'.thisN'
p4230
I522
sg25
S'Y'
sg15
(lp4231
S'k'
asg30
VF
sg17
S'Y'
sg14
I11
sg19
(lp4232
S'space'
p4233
asg94
I2
sS'.thisIndex'
p4234
I2
sa(dp4235
g16
(lp4236
S'k'
asg18
S'N'
sS'.thisRepN'
p4237
I47
sg26
S'Y'
sg20
S'N'
sg31
g32
sS'.thisTrialN'
p4238
I6
sS'.thisN'
p4239
I523
sg25
S'Y'
sg15
(lp4240
S'd'
asg30
VF
sg17
S'Y'
sg14
I11
sg19
(lp4241
S'space'
p4242
asg94
I8
sS'.thisIndex'
p4243
I8
sa(dp4244
g16
(lp4245
S'k'
asg18
S'N'
sS'.thisRepN'
p4246
I47
sg26
S'Y'
sg20
S'Y'
sg31
g32
sS'.thisTrialN'
p4247
I7
sS'.thisN'
p4248
I524
sg25
S'Y'
sg15
(lp4249
S'd'
asg30
VF
sg17
S'Y'
sg14
I11
sg19
Nsg94
I10
sS'.thisIndex'
p4250
I10
sa(dp4251
g16
(lp4252
S'k'
asg18
S'Y'
sS'.thisRepN'
p4253
I47
sg26
S'Y'
sg20
S'Y'
sg31
g32
sS'.thisTrialN'
p4254
I8
sS'.thisN'
p4255
I525
sg25
S'Y'
sg15
(lp4256
S'd'
asg30
VF
sg17
S'Y'
sg14
I11
sg19
(lp4257
S'space'
p4258
asg94
I7
sS'.thisIndex'
p4259
I7
sa(dp4260
g16
(lp4261
S'd'
asg18
S'Y'
sS'.thisRepN'
p4262
I47
sg26
S'Y'
sg20
S'Y'
sg31
g32
sS'.thisTrialN'
p4263
I9
sS'.thisN'
p4264
I526
sg25
S'Y'
sg15
(lp4265
S'k'
asg30
VF
sg17
S'Y'
sg14
I11
sg19
(lp4266
S'space'
p4267
asg94
I5
sS'.thisIndex'
p4268
I5
sa(dp4269
g16
(lp4270
S'd'
asg18
S'N'
sS'.thisRepN'
p4271
I47
sg26
S'Y'
sg20
S'Y'
sg31
g32
sS'.thisTrialN'
p4272
I10
sS'.thisN'
p4273
I527
sg25
S'Y'
sg15
(lp4274
S'k'
asg30
VF
sg17
S'Y'
sg14
I11
sg19
Nsg94
I2
sS'.thisIndex'
p4275
I2
sa(dp4276
g16
(lp4277
S'k'
asg18
S'N'
sS'.thisRepN'
p4278
I48
sg26
S'Y'
sg20
S'Y'
sg31
g32
sS'.thisTrialN'
p4279
I0
sS'.thisN'
p4280
I528
sg25
S'Y'
sg15
(lp4281
S'd'
asg30
VF
sg17
S'Y'
sg14
I11
sg19
Nsg94
I6
sS'.thisIndex'
p4282
I6
sa(dp4283
g16
(lp4284
S'k'
asg18
S'N'
sS'.thisRepN'
p4285
I48
sg26
S'Y'
sg20
S'Y'
sg31
g32
sS'.thisTrialN'
p4286
I1
sS'.thisN'
p4287
I529
sg25
S'Y'
sg15
(lp4288
S'd'
asg30
VF
sg17
S'Y'
sg14
I11
sg19
Nsg94
I6
sS'.thisIndex'
p4289
I6
sa(dp4290
g16
(lp4291
S'd'
asg18
S'N'
sS'.thisRepN'
p4292
I48
sg26
S'Y'
sg20
S'Y'
sg31
g32
sS'.thisTrialN'
p4293
I2
sS'.thisN'
p4294
I530
sg25
S'Y'
sg15
(lp4295
S'k'
asg30
VF
sg17
S'Y'
sg14
I11
sg19
Nsg94
I3
sS'.thisIndex'
p4296
I3
sa(dp4297
g16
(lp4298
S'd'
asg18
S'Y'
sS'.thisRepN'
p4299
I48
sg26
S'Y'
sg20
S'Y'
sg31
g32
sS'.thisTrialN'
p4300
I3
sS'.thisN'
p4301
I531
sg25
S'Y'
sg15
(lp4302
S'd'
asg30
VF
sg17
S'N'
sg14
I11
sg19
(lp4303
S'space'
p4304
asg94
I0
sS'.thisIndex'
p4305
I0
sa(dp4306
g16
(lp4307
S'd'
asg18
S'Y'
sS'.thisRepN'
p4308
I48
sg26
S'Y'
sg20
S'Y'
sg31
g32
sS'.thisTrialN'
p4309
I4
sS'.thisN'
p4310
I532
sg25
S'Y'
sg15
(lp4311
S'k'
asg30
VF
sg17
S'Y'
sg14
I11
sg19
(lp4312
S'space'
p4313
asg94
I4
sS'.thisIndex'
p4314
I4
sa(dp4315
g16
(lp4316
S'k'
asg18
S'Y'
sS'.thisRepN'
p4317
I48
sg26
S'Y'
sg20
S'Y'
sg31
g32
sS'.thisTrialN'
p4318
I5
sS'.thisN'
p4319
I533
sg25
S'Y'
sg15
(lp4320
S'd'
asg30
VF
sg17
S'Y'
sg14
I11
sg19
(lp4321
S'space'
p4322
asg94
I4
sS'.thisIndex'
p4323
I4
sa(dp4324
g16
(lp4325
S'd'
asg18
S'N'
sS'.thisRepN'
p4326
I48
sg26
S'Y'
sg20
S'Y'
sg31
g32
sS'.thisTrialN'
p4327
I6
sS'.thisN'
p4328
I534
sg25
S'Y'
sg15
(lp4329
S'k'
asg30
VF
sg17
S'Y'
sg14
I11
sg19
Nsg94
I6
sS'.thisIndex'
p4330
I6
sa(dp4331
g16
(lp4332
S'd'
asg18
S'N'
sS'.thisRepN'
p4333
I48
sg26
S'Y'
sg20
S'Y'
sg31
g32
sS'.thisTrialN'
p4334
I7
sS'.thisN'
p4335
I535
sg25
S'Y'
sg15
(lp4336
S'k'
asg30
VF
sg17
S'Y'
sg14
I11
sg19
Nsg94
I5
sS'.thisIndex'
p4337
I5
sa(dp4338
g16
(lp4339
S'k'
asg18
S'Y'
sS'.thisRepN'
p4340
I48
sg26
S'Y'
sg20
S'N'
sg31
g32
sS'.thisTrialN'
p4341
I8
sS'.thisN'
p4342
I536
sg25
S'Y'
sg15
(lp4343
S'd'
asg30
VF
sg17
S'Y'
sg14
I11
sg19
Nsg94
I7
sS'.thisIndex'
p4344
I7
sa(dp4345
g16
(lp4346
S'd'
asg18
S'N'
sS'.thisRepN'
p4347
I48
sg26
S'Y'
sg20
S'Y'
sg31
g32
sS'.thisTrialN'
p4348
I9
sS'.thisN'
p4349
I537
sg25
S'Y'
sg15
(lp4350
S'k'
asg30
VF
sg17
S'Y'
sg14
I11
sg19
Nsg94
I10
sS'.thisIndex'
p4351
I10
sa(dp4352
g16
(lp4353
S'k'
asg18
S'Y'
sS'.thisRepN'
p4354
I48
sg26
S'Y'
sg20
S'Y'
sg31
g32
sS'.thisTrialN'
p4355
I10
sS'.thisN'
p4356
I538
sg25
S'Y'
sg15
(lp4357
S'd'
asg30
VF
sg17
S'Y'
sg14
I11
sg19
(lp4358
S'space'
p4359
asg94
I4
sS'.thisIndex'
p4360
I4
sa(dp4361
g18
S'Y'
sS'.thisRepN'
p4362
I49
sg26
S'Y'
sg20
S'Y'
sg31
g32
sS'.thisTrialN'
p4363
I0
sS'.thisN'
p4364
I539
sg25
S'Y'
sg15
Nsg30
VF
sg17
g2629
sg14
I11
sg19
(lp4365
S'space'
p4366
asg94
I4
sS'.thisIndex'
p4367
I4
sa(dp4368
g16
(lp4369
S'd'
asg18
S'Y'
sS'.thisRepN'
p4370
I49
sg26
S'Y'
sg20
S'Y'
sg31
g32
sS'.thisTrialN'
p4371
I1
sS'.thisN'
p4372
I540
sg25
S'Y'
sg15
(lp4373
S'k'
asg30
VF
sg17
S'Y'
sg14
I11
sg19
(lp4374
S'space'
p4375
asg94
I7
sS'.thisIndex'
p4376
I7
sa(dp4377
g16
(lp4378
S'd'
asg18
S'N'
sS'.thisRepN'
p4379
I49
sg26
S'Y'
sg20
S'Y'
sg31
g32
sS'.thisTrialN'
p4380
I2
sS'.thisN'
p4381
I541
sg25
S'Y'
sg15
(lp4382
S'k'
asg30
VF
sg17
S'Y'
sg14
I11
sg19
Nsg94
I10
sS'.thisIndex'
p4383
I10
sa(dp4384
g16
(lp4385
S'k'
asg18
S'Y'
sS'.thisRepN'
p4386
I49
sg26
S'Y'
sg20
S'N'
sg31
g32
sS'.thisTrialN'
p4387
I3
sS'.thisN'
p4388
I542
sg25
S'Y'
sg15
(lp4389
S'd'
asg30
VF
sg17
S'Y'
sg14
I11
sg19
Nsg94
I7
sS'.thisIndex'
p4390
I7
sa(dp4391
g16
(lp4392
S'k'
asg18
S'N'
sS'.thisRepN'
p4393
I49
sg26
S'Y'
sg20
S'N'
sg31
g32
sS'.thisTrialN'
p4394
I4
sS'.thisN'
p4395
I543
sg25
S'Y'
sg15
(lp4396
S'd'
asg30
VF
sg17
S'Y'
sg14
I11
sg19
(lp4397
S'space'
p4398
asg94
I0
sS'.thisIndex'
p4399
I0
sa(dp4400
g16
(lp4401
S'd'
asg18
S'N'
sS'.thisRepN'
p4402
I49
sg26
S'Y'
sg20
S'N'
sg31
g32
sS'.thisTrialN'
p4403
I5
sS'.thisN'
p4404
I544
sg25
S'Y'
sg15
(lp4405
S'k'
asg30
VF
sg17
S'Y'
sg14
I11
sg19
(lp4406
S'space'
p4407
asg94
I7
sS'.thisIndex'
p4408
I7
sa(dp4409
g18
S'N'
sS'.thisRepN'
p4410
I49
sg26
S'Y'
sg20
S'N'
sg31
g32
sS'.thisTrialN'
p4411
I6
sS'.thisN'
p4412
I545
sg25
S'Y'
sg15
Nsg30
VF
sg17
g2629
sg14
I11
sg19
(lp4413
S'space'
p4414
asg94
I6
sS'.thisIndex'
p4415
I6
sa(dp4416
g16
(lp4417
S'k'
asg18
S'Y'
sS'.thisRepN'
p4418
I49
sg26
S'Y'
sg20
S'Y'
sg31
g32
sS'.thisTrialN'
p4419
I7
sS'.thisN'
p4420
I546
sg25
S'Y'
sg15
(lp4421
S'd'
asg30
VF
sg17
S'Y'
sg14
I11
sg19
(lp4422
S'space'
p4423
asg94
I9
sS'.thisIndex'
p4424
I9
sa(dp4425
g16
(lp4426
S'k'
asg18
S'N'
sS'.thisRepN'
p4427
I49
sg26
S'Y'
sg20
S'N'
sg31
g32
sS'.thisTrialN'
p4428
I8
sS'.thisN'
p4429
I547
sg25
S'Y'
sg15
(lp4430
S'd'
asg30
VF
sg17
S'Y'
sg14
I11
sg19
(lp4431
S'space'
p4432
asg94
I7
sS'.thisIndex'
p4433
I7
sa(dp4434
g16
(lp4435
S'd'
asg18
S'Y'
sS'.thisRepN'
p4436
I49
sg26
S'Y'
sg20
S'Y'
sg31
g32
sS'.thisTrialN'
p4437
I9
sS'.thisN'
p4438
I548
sg25
S'Y'
sg15
(lp4439
S'd'
asg30
VF
sg17
S'N'
sg14
I11
sg19
(lp4440
S'space'
p4441
asg94
I6
sS'.thisIndex'
p4442
I6
sa(dp4443
g16
(lp4444
S'k'
asg18
S'N'
sg22
I31
sg26
S'Y'
sS'.thisN'
p4445
I549
sg20
S'N'
sg31
g32
sS'.thisTrialN'
p4446
I10
sS'.thisRepN'
p4447
I49
sg21
I41
sg25
S'Y'
sg23
I25
sg15
(lp4448
S'd'
asg30
VF
sg17
S'Y'
sg14
I11
sg19
(lp4449
S'space'
p4450
asg94
I9
sS'.thisIndex'
p4451
I9
sa(dp4452
g16
(lp4453
S'k'
asS'.thisIndex'
p4454
I1
sS'.thisRepN'
p4455
I50
sg26
S'Y'
sg30
VF
sg31
g32
sS'.thisTrialN'
p4456
I0
sS'.thisN'
p4457
I550
sg25
S'Y'
sg15
(lp4458
S'd'
asg17
S'Y'
sg14
I12
sg94
I1
sa(dp4459
g16
(lp4460
S'k'
asS'.thisIndex'
p4461
I1
sS'.thisRepN'
p4462
I50
sg26
S'Y'
sg30
VF
sg31
g32
sS'.thisTrialN'
p4463
I1
sS'.thisN'
p4464
I551
sg25
S'Y'
sg15
(lp4465
S'd'
asg17
S'Y'
sg14
I12
sg94
I1
sa(dp4466
g16
(lp4467
S'k'
asg18
S'N'
sS'.thisRepN'
p4468
I50
sg26
S'Y'
sg20
S'N'
sg31
g32
sS'.thisTrialN'
p4469
I2
sS'.thisN'
p4470
I552
sg25
S'Y'
sg15
(lp4471
S'd'
asg30
VF
sg17
S'Y'
sg14
I12
sg19
(lp4472
S'space'
p4473
asg94
I10
sS'.thisIndex'
p4474
I10
sa(dp4475
g16
(lp4476
S'k'
asg18
S'Y'
sS'.thisRepN'
p4477
I50
sg26
S'Y'
sg20
S'N'
sg31
g32
sS'.thisTrialN'
p4478
I3
sS'.thisN'
p4479
I553
sg25
S'Y'
sg15
(lp4480
S'd'
asg30
VF
sg17
S'Y'
sg14
I12
sg19
Nsg94
I8
sS'.thisIndex'
p4481
I8
sa(dp4482
g16
(lp4483
S'd'
asg18
S'Y'
sS'.thisRepN'
p4484
I50
sg26
S'Y'
sg20
S'N'
sg31
g32
sS'.thisTrialN'
p4485
I4
sS'.thisN'
p4486
I554
sg25
S'Y'
sg15
(lp4487
S'd'
asg30
VF
sg17
S'N'
sg14
I12
sg19
(lp4488
S'k'
asg94
I2
sS'.thisIndex'
p4489
I2
sa(dp4490
g16
(lp4491
S'd'
asg18
S'Y'
sS'.thisRepN'
p4492
I50
sg26
S'Y'
sg20
S'N'
sg31
g32
sS'.thisTrialN'
p4493
I5
sS'.thisN'
p4494
I555
sg25
S'Y'
sg15
(lp4495
S'k'
asg30
VF
sg17
S'Y'
sg14
I12
sg19
(lp4496
S'k'
asg94
I10
sS'.thisIndex'
p4497
I10
sa(dp4498
g16
(lp4499
S'k'
asg18
S'N'
sS'.thisRepN'
p4500
I50
sg26
S'Y'
sg20
S'N'
sg31
g32
sS'.thisTrialN'
p4501
I6
sS'.thisN'
p4502
I556
sg25
S'Y'
sg15
(lp4503
S'd'
asg30
VF
sg17
S'Y'
sg14
I12
sg19
(lp4504
S'k'
asg94
I8
sS'.thisIndex'
p4505
I8
sa(dp4506
g16
(lp4507
S'k'
asg18
S'Y'
sS'.thisRepN'
p4508
I50
sg26
S'Y'
sg20
S'N'
sg31
g32
sS'.thisTrialN'
p4509
I7
sS'.thisN'
p4510
I557
sg25
S'Y'
sg15
(lp4511
S'd'
asg30
VF
sg17
S'Y'
sg14
I12
sg19
Nsg94
I5
sS'.thisIndex'
p4512
I5
sa(dp4513
g16
(lp4514
S'd'
asg18
S'Y'
sS'.thisRepN'
p4515
I50
sg26
S'Y'
sg20
S'N'
sg31
g32
sS'.thisTrialN'
p4516
I8
sS'.thisN'
p4517
I558
sg25
S'Y'
sg15
(lp4518
S'k'
asg30
VF
sg17
S'Y'
sg14
I12
sg19
Nsg94
I6
sS'.thisIndex'
p4519
I6
sa(dp4520
g16
(lp4521
S'k'
asg18
S'Y'
sS'.thisRepN'
p4522
I50
sg26
S'Y'
sg20
S'Y'
sg31
g32
sS'.thisTrialN'
p4523
I9
sS'.thisN'
p4524
I559
sg25
S'Y'
sg15
(lp4525
S'd'
asg30
VF
sg17
S'Y'
sg14
I12
sg19
(lp4526
S'space'
p4527
asg94
I2
sS'.thisIndex'
p4528
I2
sa(dp4529
g16
(lp4530
S'k'
asg18
S'Y'
sS'.thisRepN'
p4531
I50
sg26
S'Y'
sg20
S'N'
sg31
g32
sS'.thisTrialN'
p4532
I10
sS'.thisN'
p4533
I560
sg25
S'Y'
sg15
(lp4534
S'd'
asg30
VF
sg17
S'Y'
sg14
I12
sg19
Nsg94
I10
sS'.thisIndex'
p4535
I10
sa(dp4536
g16
(lp4537
S'k'
asg18
S'Y'
sS'.thisRepN'
p4538
I51
sg26
S'Y'
sg20
S'Y'
sg31
g32
sS'.thisTrialN'
p4539
I0
sS'.thisN'
p4540
I561
sg25
S'Y'
sg15
(lp4541
S'd'
asg30
VF
sg17
S'Y'
sg14
I12
sg19
(lp4542
S'space'
p4543
asg94
I3
sS'.thisIndex'
p4544
I3
sa(dp4545
g16
(lp4546
S'k'
asg18
S'N'
sS'.thisRepN'
p4547
I51
sg26
S'Y'
sg20
S'N'
sg31
g32
sS'.thisTrialN'
p4548
I1
sS'.thisN'
p4549
I562
sg25
S'Y'
sg15
(lp4550
S'd'
asg30
VF
sg17
S'Y'
sg14
I12
sg19
(lp4551
S'space'
p4552
asg94
I2
sS'.thisIndex'
p4553
I2
sa(dp4554
g16
(lp4555
S'd'
asg18
S'Y'
sS'.thisRepN'
p4556
I51
sg26
S'Y'
sg20
S'N'
sg31
g32
sS'.thisTrialN'
p4557
I2
sS'.thisN'
p4558
I563
sg25
S'Y'
sg15
(lp4559
S'k'
asg30
VF
sg17
S'Y'
sg14
I12
sg19
Nsg94
I3
sS'.thisIndex'
p4560
I3
sa(dp4561
g16
(lp4562
S'k'
asg18
S'Y'
sS'.thisRepN'
p4563
I51
sg26
S'Y'
sg20
S'Y'
sg31
g32
sS'.thisTrialN'
p4564
I3
sS'.thisN'
p4565
I564
sg25
S'Y'
sg15
(lp4566
S'd'
asg30
VF
sg17
S'Y'
sg14
I12
sg19
(lp4567
S'space'
p4568
asg94
I8
sS'.thisIndex'
p4569
I8
sa(dp4570
g16
(lp4571
S'd'
asg18
S'Y'
sS'.thisRepN'
p4572
I51
sg26
S'Y'
sg20
S'N'
sg31
g32
sS'.thisTrialN'
p4573
I4
sS'.thisN'
p4574
I565
sg25
S'Y'
sg15
(lp4575
S'k'
asg30
VF
sg17
S'Y'
sg14
I12
sg19
Nsg94
I7
sS'.thisIndex'
p4576
I7
sa(dp4577
g16
(lp4578
S'k'
asg18
S'N'
sS'.thisRepN'
p4579
I51
sg26
S'Y'
sg20
S'N'
sg31
g32
sS'.thisTrialN'
p4580
I5
sS'.thisN'
p4581
I566
sg25
S'Y'
sg15
(lp4582
S'd'
asg30
VF
sg17
S'Y'
sg14
I12
sg19
(lp4583
S'space'
p4584
asg94
I6
sS'.thisIndex'
p4585
I6
sa(dp4586
g16
(lp4587
S'd'
asg18
S'N'
sS'.thisRepN'
p4588
I51
sg26
S'Y'
sg20
S'N'
sg31
g32
sS'.thisTrialN'
p4589
I6
sS'.thisN'
p4590
I567
sg25
S'Y'
sg15
(lp4591
S'k'
asg30
VF
sg17
S'Y'
sg14
I12
sg19
(lp4592
S'space'
p4593
asg94
I2
sS'.thisIndex'
p4594
I2
sa(dp4595
g16
(lp4596
S'k'
asg18
S'Y'
sS'.thisRepN'
p4597
I51
sg26
S'Y'
sg20
S'N'
sg31
g32
sS'.thisTrialN'
p4598
I7
sS'.thisN'
p4599
I568
sg25
S'Y'
sg15
(lp4600
S'd'
asg30
VF
sg17
S'Y'
sg14
I12
sg19
Nsg94
I2
sS'.thisIndex'
p4601
I2
sa(dp4602
g16
(lp4603
S'd'
asg18
S'N'
sS'.thisRepN'
p4604
I51
sg26
S'Y'
sg20
S'Y'
sg31
g32
sS'.thisTrialN'
p4605
I8
sS'.thisN'
p4606
I569
sg25
S'Y'
sg15
(lp4607
S'k'
asg30
VF
sg17
S'Y'
sg14
I12
sg19
Nsg94
I3
sS'.thisIndex'
p4608
I3
sa(dp4609
g16
(lp4610
S'd'
asg18
S'Y'
sS'.thisRepN'
p4611
I51
sg26
S'Y'
sg20
S'Y'
sg31
g32
sS'.thisTrialN'
p4612
I9
sS'.thisN'
p4613
I570
sg25
S'Y'
sg15
(lp4614
S'k'
asg30
VF
sg17
S'Y'
sg14
I12
sg19
(lp4615
S'space'
p4616
asg94
I0
sS'.thisIndex'
p4617
I0
sa(dp4618
g16
(lp4619
S'k'
asg18
S'N'
sS'.thisRepN'
p4620
I51
sg26
S'Y'
sg20
S'N'
sg31
g32
sS'.thisTrialN'
p4621
I10
sS'.thisN'
p4622
I571
sg25
S'Y'
sg15
(lp4623
S'd'
asg30
VF
sg17
S'Y'
sg14
I12
sg19
(lp4624
S'space'
p4625
asg94
I8
sS'.thisIndex'
p4626
I8
sa(dp4627
g16
(lp4628
S'k'
asg18
S'Y'
sS'.thisRepN'
p4629
I52
sg26
S'Y'
sg20
S'Y'
sg31
g32
sS'.thisTrialN'
p4630
I0
sS'.thisN'
p4631
I572
sg25
S'Y'
sg15
(lp4632
S'd'
asg30
VF
sg17
S'Y'
sg14
I12
sg19
(lp4633
S'space'
p4634
asg94
I7
sS'.thisIndex'
p4635
I7
sa(dp4636
g16
(lp4637
S'k'
asg18
S'N'
sS'.thisRepN'
p4638
I52
sg26
S'Y'
sg20
S'N'
sg31
g32
sS'.thisTrialN'
p4639
I1
sS'.thisN'
p4640
I573
sg25
S'Y'
sg15
(lp4641
S'd'
asg30
VF
sg17
S'Y'
sg14
I12
sg19
(lp4642
S'space'
p4643
asg94
I7
sS'.thisIndex'
p4644
I7
sa(dp4645
g16
(lp4646
S'd'
asg18
S'N'
sS'.thisRepN'
p4647
I52
sg26
S'Y'
sg20
S'N'
sg31
g32
sS'.thisTrialN'
p4648
I2
sS'.thisN'
p4649
I574
sg25
S'Y'
sg15
(lp4650
S'k'
asg30
VF
sg17
S'Y'
sg14
I12
sg19
(lp4651
S'd'
asg94
I9
sS'.thisIndex'
p4652
I9
sa(dp4653
g16
(lp4654
S'd'
asg18
S'Y'
sS'.thisRepN'
p4655
I52
sg26
S'Y'
sg20
S'Y'
sg31
g32
sS'.thisTrialN'
p4656
I3
sS'.thisN'
p4657
I575
sg25
S'Y'
sg15
(lp4658
S'k'
asg30
VF
sg17
S'Y'
sg14
I12
sg19
(lp4659
S'space'
p4660
asg94
I8
sS'.thisIndex'
p4661
I8
sa(dp4662
g16
(lp4663
S'd'
asg18
S'Y'
sS'.thisRepN'
p4664
I52
sg26
S'Y'
sg20
S'Y'
sg31
g32
sS'.thisTrialN'
p4665
I4
sS'.thisN'
p4666
I576
sg25
S'Y'
sg15
(lp4667
S'k'
asg30
VF
sg17
S'Y'
sg14
I12
sg19
(lp4668
S'space'
p4669
asg94
I0
sS'.thisIndex'
p4670
I0
sa(dp4671
g16
(lp4672
S'd'
asg18
S'N'
sS'.thisRepN'
p4673
I52
sg26
S'Y'
sg20
S'N'
sg31
g32
sS'.thisTrialN'
p4674
I5
sS'.thisN'
p4675
I577
sg25
S'Y'
sg15
(lp4676
S'k'
asg30
VF
sg17
S'Y'
sg14
I12
sg19
(lp4677
S'k'
asg94
I5
sS'.thisIndex'
p4678
I5
sa(dp4679
g16
(lp4680
S'd'
asg18
S'N'
sS'.thisRepN'
p4681
I52
sg26
S'Y'
sg20
S'N'
sg31
g32
sS'.thisTrialN'
p4682
I6
sS'.thisN'
p4683
I578
sg25
S'Y'
sg15
(lp4684
S'd'
asg30
VF
sg17
S'N'
sg14
I12
sg19
(lp4685
S'space'
p4686
asg94
I5
sS'.thisIndex'
p4687
I5
sa(dp4688
g16
(lp4689
S'k'
asg18
S'N'
sS'.thisRepN'
p4690
I52
sg26
S'Y'
sg20
S'N'
sg31
g32
sS'.thisTrialN'
p4691
I7
sS'.thisN'
p4692
I579
sg25
S'Y'
sg15
(lp4693
S'd'
asg30
VF
sg17
S'Y'
sg14
I12
sg19
(lp4694
S'space'
p4695
asg94
I0
sS'.thisIndex'
p4696
I0
sa(dp4697
g18
S'N'
sS'.thisRepN'
p4698
I52
sg26
S'Y'
sg20
S'Y'
sg31
g32
sS'.thisTrialN'
p4699
I8
sS'.thisN'
p4700
I580
sg25
S'Y'
sg15
Nsg30
VF
sg17
g2629
sg14
I12
sg19
Nsg94
I6
sS'.thisIndex'
p4701
I6
sa(dp4702
g16
(lp4703
S'k'
asg18
S'Y'
sS'.thisRepN'
p4704
I52
sg26
S'Y'
sg20
S'Y'
sg31
g32
sS'.thisTrialN'
p4705
I9
sS'.thisN'
p4706
I581
sg25
S'Y'
sg15
(lp4707
S'd'
asg30
VF
sg17
S'Y'
sg14
I12
sg19
(lp4708
S'space'
p4709
asg94
I5
sS'.thisIndex'
p4710
I5
sa(dp4711
g16
(lp4712
S'd'
asg18
S'N'
sS'.thisRepN'
p4713
I52
sg26
S'Y'
sg20
S'Y'
sg31
g32
sS'.thisTrialN'
p4714
I10
sS'.thisN'
p4715
I582
sg25
S'Y'
sg15
(lp4716
S'k'
asg30
VF
sg17
S'Y'
sg14
I12
sg19
Nsg94
I6
sS'.thisIndex'
p4717
I6
sa(dp4718
g16
(lp4719
S'd'
asg18
S'N'
sS'.thisRepN'
p4720
I53
sg26
S'Y'
sg20
S'Y'
sg31
g32
sS'.thisTrialN'
p4721
I0
sS'.thisN'
p4722
I583
sg25
S'Y'
sg15
(lp4723
S'k'
asg30
VF
sg17
S'Y'
sg14
I12
sg19
Nsg94
I6
sS'.thisIndex'
p4724
I6
sa(dp4725
g16
(lp4726
S'd'
asg18
S'N'
sS'.thisRepN'
p4727
I53
sg26
S'Y'
sg20
S'Y'
sg31
g32
sS'.thisTrialN'
p4728
I1
sS'.thisN'
p4729
I584
sg25
S'Y'
sg15
(lp4730
S'k'
asg30
VF
sg17
S'Y'
sg14
I12
sg19
Nsg94
I1
sS'.thisIndex'
p4731
I1
sa(dp4732
g16
(lp4733
S'd'
asg18
S'Y'
sS'.thisRepN'
p4734
I53
sg26
S'Y'
sg20
S'Y'
sg31
g32
sS'.thisTrialN'
p4735
I2
sS'.thisN'
p4736
I585
sg25
S'Y'
sg15
(lp4737
S'd'
asg30
VF
sg17
S'N'
sg14
I12
sg19
(lp4738
S'space'
p4739
asg94
I0
sS'.thisIndex'
p4740
I0
sa(dp4741
g16
(lp4742
S'd'
asg18
S'N'
sS'.thisRepN'
p4743
I53
sg26
S'Y'
sg20
S'N'
sg31
g32
sS'.thisTrialN'
p4744
I3
sS'.thisN'
p4745
I586
sg25
S'Y'
sg15
(lp4746
S'k'
asg30
VF
sg17
S'Y'
sg14
I12
sg19
(lp4747
S'space'
p4748
asg94
I1
sS'.thisIndex'
p4749
I1
sa(dp4750
g16
(lp4751
S'd'
asg18
S'N'
sS'.thisRepN'
p4752
I53
sg26
S'Y'
sg20
S'Y'
sg31
g32
sS'.thisTrialN'
p4753
I4
sS'.thisN'
p4754
I587
sg25
S'Y'
sg15
(lp4755
S'd'
asg30
VF
sg17
S'N'
sg14
I12
sg19
Nsg94
I3
sS'.thisIndex'
p4756
I3
sa(dp4757
g16
(lp4758
S'd'
asg18
S'N'
sS'.thisRepN'
p4759
I53
sg26
S'Y'
sg20
S'N'
sg31
g32
sS'.thisTrialN'
p4760
I5
sS'.thisN'
p4761
I588
sg25
S'Y'
sg15
(lp4762
S'd'
asg30
VF
sg17
S'N'
sg14
I12
sg19
(lp4763
S'space'
p4764
asg94
I9
sS'.thisIndex'
p4765
I9
sa(dp4766
g16
(lp4767
S'k'
asg18
S'N'
sS'.thisRepN'
p4768
I53
sg26
S'Y'
sg20
S'N'
sg31
g32
sS'.thisTrialN'
p4769
I6
sS'.thisN'
p4770
I589
sg25
S'Y'
sg15
(lp4771
S'd'
asg30
VF
sg17
S'Y'
sg14
I12
sg19
(lp4772
S'space'
p4773
asg94
I10
sS'.thisIndex'
p4774
I10
sa(dp4775
g16
(lp4776
S'd'
asg18
S'N'
sS'.thisRepN'
p4777
I53
sg26
S'Y'
sg20
S'N'
sg31
g32
sS'.thisTrialN'
p4778
I7
sS'.thisN'
p4779
I590
sg25
S'Y'
sg15
(lp4780
S'k'
asg30
VF
sg17
S'Y'
sg14
I12
sg19
(lp4781
S'space'
p4782
asg94
I5
sS'.thisIndex'
p4783
I5
sa(dp4784
g18
S'Y'
sS'.thisRepN'
p4785
I53
sg26
S'Y'
sg20
S'N'
sg31
g32
sS'.thisTrialN'
p4786
I8
sS'.thisN'
p4787
I591
sg25
S'Y'
sg15
Nsg30
VF
sg17
g2629
sg14
I12
sg19
Nsg94
I2
sS'.thisIndex'
p4788
I2
sa(dp4789
g16
(lp4790
S'd'
asg18
S'Y'
sS'.thisRepN'
p4791
I53
sg26
S'Y'
sg20
S'Y'
sg31
g32
sS'.thisTrialN'
p4792
I9
sS'.thisN'
p4793
I592
sg25
S'Y'
sg15
(lp4794
S'd'
asg30
VF
sg17
S'N'
sg14
I12
sg19
(lp4795
S'space'
p4796
asg94
I10
sS'.thisIndex'
p4797
I10
sa(dp4798
g16
(lp4799
S'k'
asg18
S'N'
sS'.thisRepN'
p4800
I53
sg26
S'Y'
sg20
S'N'
sg31
g32
sS'.thisTrialN'
p4801
I10
sS'.thisN'
p4802
I593
sg25
S'Y'
sg15
(lp4803
S'd'
asg30
VF
sg17
S'Y'
sg14
I12
sg19
(lp4804
S'space'
p4805
asg94
I5
sS'.thisIndex'
p4806
I5
sa(dp4807
g16
(lp4808
S'd'
asg18
S'N'
sS'.thisRepN'
p4809
I54
sg26
S'Y'
sg20
S'N'
sg31
g32
sS'.thisTrialN'
p4810
I0
sS'.thisN'
p4811
I594
sg25
S'Y'
sg15
(lp4812
S'k'
asg30
VF
sg17
S'Y'
sg14
I12
sg19
(lp4813
S'space'
p4814
asg94
I4
sS'.thisIndex'
p4815
I4
sa(dp4816
g16
(lp4817
S'k'
asg18
S'N'
sS'.thisRepN'
p4818
I54
sg26
S'Y'
sg20
S'N'
sg31
g32
sS'.thisTrialN'
p4819
I1
sS'.thisN'
p4820
I595
sg25
S'Y'
sg15
(lp4821
S'd'
asg30
VF
sg17
S'Y'
sg14
I12
sg19
(lp4822
S'space'
p4823
asg94
I0
sS'.thisIndex'
p4824
I0
sa(dp4825
g16
(lp4826
S'd'
asg18
S'Y'
sS'.thisRepN'
p4827
I54
sg26
S'Y'
sg20
S'N'
sg31
g32
sS'.thisTrialN'
p4828
I2
sS'.thisN'
p4829
I596
sg25
S'Y'
sg15
(lp4830
S'k'
asg30
VF
sg17
S'Y'
sg14
I12
sg19
Nsg94
I6
sS'.thisIndex'
p4831
I6
sa(dp4832
g16
(lp4833
S'k'
asg18
S'Y'
sS'.thisRepN'
p4834
I54
sg26
S'Y'
sg20
S'N'
sg31
g32
sS'.thisTrialN'
p4835
I3
sS'.thisN'
p4836
I597
sg25
S'Y'
sg15
(lp4837
S'd'
asg30
VF
sg17
S'Y'
sg14
I12
sg19
Nsg94
I7
sS'.thisIndex'
p4838
I7
sa(dp4839
g16
(lp4840
S'k'
asg18
S'Y'
sS'.thisRepN'
p4841
I54
sg26
S'Y'
sg20
S'Y'
sg31
g32
sS'.thisTrialN'
p4842
I4
sS'.thisN'
p4843
I598
sg25
S'Y'
sg15
(lp4844
S'd'
asg30
VF
sg17
S'Y'
sg14
I12
sg19
(lp4845
S'space'
p4846
asg94
I4
sS'.thisIndex'
p4847
I4
sa(dp4848
g16
(lp4849
S'k'
asg18
S'Y'
sg22
I18
sg26
S'Y'
sS'.thisN'
p4850
I599
sg20
S'Y'
sg31
g32
sS'.thisTrialN'
p4851
I5
sS'.thisRepN'
p4852
I54
sg21
I42
sg25
S'Y'
sg23
I24
sg15
(lp4853
S'd'
asg30
VF
sg17
S'Y'
sg14
I12
sg19
(lp4854
S'space'
p4855
asg94
I4
sS'.thisIndex'
p4856
I4
sasS'loops'
p4857
(lp4858
g1
(g35
g3
NtRp4859
(dp4860
g38
Nsg39
(lp4861
sg40
I76107920
sg10
S''
sg6
g41
sg42
I1
sg27
I01
sg28
Nsg43
g1
(g44
g45
(dp4862
g47
g48
(g49
g50
g51
S'b'
tRp4863
(I1
(I600
I1
tg54
I00
S'\x00\x00\x80?\x00\x00\x80?\x00\x00\x80?\x00\x00\x80?\x00\x00\x80?\x00\x00\x80?\x00\x00\x80?\x00\x00\x80?\x00\x00\x80?\x00\x00\x80?\x00\x00\x80?\x00\x00\x80?\x00\x00\x80?\x00\x00\x80?\x00\x00\x80?\x00\x00\x80?\x00\x00\x80?\x00\x00\x80?\x00\x00\x80?\x00\x00\x80?\x00\x00\x80?\x00\x00\x80?\x00\x00\x80?\x00\x00\x80?\x00\x00\x80?\x00\x00\x80?\x00\x00\x80?\x00\x00\x80?\x00\x00\x80?\x00\x00\x80?\x00\x00\x80?\x00\x00\x80?\x00\x00\x80?\x00\x00\x80?\x00\x00\x80?\x00\x00\x80?\x00\x00\x80?\x00\x00\x80?\x00\x00\x80?\x00\x00\x80?\x00\x00\x80?\x00\x00\x80?\x00\x00\x80?\x00\x00\x80?\x00\x00\x80?\x00\x00\x80?\x00\x00\x80?\x00\x00\x80?\x00\x00\x80?\x00\x00\x80?\x00\x00\x80?\x00\x00\x80?\x00\x00\x80?\x00\x00\x80?\x00\x00\x80?\x00\x00\x80?\x00\x00\x80?\x00\x00\x80?\x00\x00\x80?\x00\x00\x80?\x00\x00\x80?\x00\x00\x80?\x00\x00\x80?\x00\x00\x80?\x00\x00\x80?\x00\x00\x80?\x00\x00\x80?\x00\x00\x80?\x00\x00\x80?\x00\x00\x80?\x00\x00\x80?\x00\x00\x80?\x00\x00\x80?\x00\x00\x80?\x00\x00\x80?\x00\x00\x80?\x00\x00\x80?\x00\x00\x80?\x00\x00\x80?\x00\x00\x80?\x00\x00\x80?\x00\x00\x80?\x00\x00\x80?\x00\x00\x80?\x00\x00\x80?\x00\x00\x80?\x00\x00\x80?\x00\x00\x80?\x00\x00\x80?\x00\x00\x80?\x00\x00\x80?\x00\x00\x80?\x00\x00\x80?\x00\x00\x80?\x00\x00\x80?\x00\x00\x80?\x00\x00\x80?\x00\x00\x80?\x00\x00\x80?\x00\x00\x80?\x00\x00\x80?\x00\x00\x80?\x00\x00\x80?\x00\x00\x80?\x00\x00\x80?\x00\x00\x80?\x00\x00\x80?\x00\x00\x80?\x00\x00\x80?\x00\x00\x80?\x00\x00\x80?\x00\x00\x80?\x00\x00\x80?\x00\x00\x80?\x00\x00\x80?\x00\x00\x80?\x00\x00\x80?\x00\x00\x80?\x00\x00\x80?\x00\x00\x80?\x00\x00\x80?\x00\x00\x80?\x00\x00\x80?\x00\x00\x80?\x00\x00\x80?\x00\x00\x80?\x00\x00\x80?\x00\x00\x80?\x00\x00\x80?\x00\x00\x80?\x00\x00\x80?\x00\x00\x80?\x00\x00\x80?\x00\x00\x80?\x00\x00\x80?\x00\x00\x80?\x00\x00\x80?\x00\x00\x80?\x00\x00\x80?\x00\x00\x80?\x00\x00\x80?\x00\x00\x80?\x00\x00\x80?\x00\x00\x80?\x00\x00\x80?\x00\x00\x80?\x00\x00\x80?\x00\x00\x80?\x00\x00\x80?\x00\x00\x80?\x00\x00\x80?\x00\x00\x80?\x00\x00\x80?\x00\x00\x80?\x00\x00\x80?\x00\x00\x80?\x00\x00\x80?\x00\x00\x80?\x00\x00\x80?\x00\x00\x80?\x00\x00\x80?\x00\x00\x80?\x00\x00\x80?\x00\x00\x80?\x00\x00\x80?\x00\x00\x80?\x00\x00\x80?\x00\x00\x80?\x00\x00\x80?\x00\x00\x80?\x00\x00\x80?\x00\x00\x80?\x00\x00\x80?\x00\x00\x80?\x00\x00\x80?\x00\x00\x80?\x00\x00\x80?\x00\x00\x80?\x00\x00\x80?\x00\x00\x80?\x00\x00\x80?\x00\x00\x80?\x00\x00\x80?\x00\x00\x80?\x00\x00\x80?\x00\x00\x80?\x00\x00\x80?\x00\x00\x80?\x00\x00\x80?\x00\x00\x80?\x00\x00\x80?\x00\x00\x80?\x00\x00\x80?\x00\x00\x80?\x00\x00\x80?\x00\x00\x80?\x00\x00\x80?\x00\x00\x80?\x00\x00\x80?\x00\x00\x80?\x00\x00\x80?\x00\x00\x80?\x00\x00\x80?\x00\x00\x80?\x00\x00\x80?\x00\x00\x80?\x00\x00\x80?\x00\x00\x80?\x00\x00\x80?\x00\x00\x80?\x00\x00\x80?\x00\x00\x80?\x00\x00\x80?\x00\x00\x80?\x00\x00\x80?\x00\x00\x80?\x00\x00\x80?\x00\x00\x80?\x00\x00\x80?\x00\x00\x80?\x00\x00\x80?\x00\x00\x80?\x00\x00\x80?\x00\x00\x80?\x00\x00\x80?\x00\x00\x80?\x00\x00\x80?\x00\x00\x80?\x00\x00\x80?\x00\x00\x80?\x00\x00\x80?\x00\x00\x80?\x00\x00\x80?\x00\x00\x80?\x00\x00\x80?\x00\x00\x80?\x00\x00\x80?\x00\x00\x80?\x00\x00\x80?\x00\x00\x80?\x00\x00\x80?\x00\x00\x80?\x00\x00\x80?\x00\x00\x80?\x00\x00\x80?\x00\x00\x80?\x00\x00\x80?\x00\x00\x80?\x00\x00\x80?\x00\x00\x80?\x00\x00\x80?\x00\x00\x80?\x00\x00\x80?\x00\x00\x80?\x00\x00\x80?\x00\x00\x80?\x00\x00\x80?\x00\x00\x80?\x00\x00\x80?\x00\x00\x80?\x00\x00\x80?\x00\x00\x80?\x00\x00\x80?\x00\x00\x80?\x00\x00\x80?\x00\x00\x80?\x00\x00\x80?\x00\x00\x80?\x00\x00\x80?\x00\x00\x80?\x00\x00\x80?\x00\x00\x80?\x00\x00\x80?\x00\x00\x80?\x00\x00\x80?\x00\x00\x80?\x00\x00\x80?\x00\x00\x80?\x00\x00\x80?\x00\x00\x80?\x00\x00\x80?\x00\x00\x80?\x00\x00\x80?\x00\x00\x80?\x00\x00\x80?\x00\x00\x80?\x00\x00\x80?\x00\x00\x80?\x00\x00\x80?\x00\x00\x80?\x00\x00\x80?\x00\x00\x80?\x00\x00\x80?\x00\x00\x80?\x00\x00\x80?\x00\x00\x80?\x00\x00\x80?\x00\x00\x80?\x00\x00\x80?\x00\x00\x80?\x00\x00\x80?\x00\x00\x80?\x00\x00\x80?\x00\x00\x80?\x00\x00\x80?\x00\x00\x80?\x00\x00\x80?\x00\x00\x80?\x00\x00\x80?\x00\x00\x80?\x00\x00\x80?\x00\x00\x80?\x00\x00\x80?\x00\x00\x80?\x00\x00\x80?\x00\x00\x80?\x00\x00\x80?\x00\x00\x80?\x00\x00\x80?\x00\x00\x80?\x00\x00\x80?\x00\x00\x80?\x00\x00\x80?\x00\x00\x80?\x00\x00\x80?\x00\x00\x80?\x00\x00\x80?\x00\x00\x80?\x00\x00\x80?\x00\x00\x80?\x00\x00\x80?\x00\x00\x80?\x00\x00\x80?\x00\x00\x80?\x00\x00\x80?\x00\x00\x80?\x00\x00\x80?\x00\x00\x80?\x00\x00\x80?\x00\x00\x80?\x00\x00\x80?\x00\x00\x80?\x00\x00\x80?\x00\x00\x80?\x00\x00\x80?\x00\x00\x80?\x00\x00\x80?\x00\x00\x80?\x00\x00\x80?\x00\x00\x80?\x00\x00\x80?\x00\x00\x80?\x00\x00\x80?\x00\x00\x80?\x00\x00\x80?\x00\x00\x80?\x00\x00\x80?\x00\x00\x80?\x00\x00\x80?\x00\x00\x80?\x00\x00\x80?\x00\x00\x80?\x00\x00\x80?\x00\x00\x80?\x00\x00\x80?\x00\x00\x80?\x00\x00\x80?\x00\x00\x80?\x00\x00\x80?\x00\x00\x80?\x00\x00\x80?\x00\x00\x80?\x00\x00\x80?\x00\x00\x80?\x00\x00\x80?\x00\x00\x80?\x00\x00\x80?\x00\x00\x80?\x00\x00\x80?\x00\x00\x80?\x00\x00\x80?\x00\x00\x80?\x00\x00\x80?\x00\x00\x80?\x00\x00\x80?\x00\x00\x80?\x00\x00\x80?\x00\x00\x80?\x00\x00\x80?\x00\x00\x80?\x00\x00\x80?\x00\x00\x80?\x00\x00\x80?\x00\x00\x80?\x00\x00\x80?\x00\x00\x80?\x00\x00\x80?\x00\x00\x80?\x00\x00\x80?\x00\x00\x80?\x00\x00\x80?\x00\x00\x80?\x00\x00\x80?\x00\x00\x80?\x00\x00\x80?\x00\x00\x80?\x00\x00\x80?\x00\x00\x80?\x00\x00\x80?\x00\x00\x80?\x00\x00\x80?\x00\x00\x80?\x00\x00\x80?\x00\x00\x80?\x00\x00\x80?\x00\x00\x80?\x00\x00\x80?\x00\x00\x80?\x00\x00\x80?\x00\x00\x80?\x00\x00\x80?\x00\x00\x80?\x00\x00\x80?\x00\x00\x80?\x00\x00\x80?\x00\x00\x80?\x00\x00\x80?\x00\x00\x80?\x00\x00\x80?\x00\x00\x80?\x00\x00\x80?\x00\x00\x80?\x00\x00\x80?\x00\x00\x80?\x00\x00\x80?\x00\x00\x80?\x00\x00\x80?\x00\x00\x80?\x00\x00\x80?\x00\x00\x80?\x00\x00\x80?\x00\x00\x80?\x00\x00\x80?\x00\x00\x80?\x00\x00\x80?\x00\x00\x80?\x00\x00\x80?\x00\x00\x80?\x00\x00\x80?\x00\x00\x80?\x00\x00\x80?\x00\x00\x80?\x00\x00\x80?\x00\x00\x80?\x00\x00\x80?\x00\x00\x80?\x00\x00\x80?\x00\x00\x80?\x00\x00\x80?\x00\x00\x80?\x00\x00\x80?\x00\x00\x80?\x00\x00\x80?\x00\x00\x80?\x00\x00\x80?\x00\x00\x80?\x00\x00\x80?\x00\x00\x80?\x00\x00\x80?\x00\x00\x80?\x00\x00\x80?\x00\x00\x80?\x00\x00\x80?\x00\x00\x80?\x00\x00\x80?\x00\x00\x80?\x00\x00\x80?\x00\x00\x80?\x00\x00\x80?\x00\x00\x80?\x00\x00\x80?\x00\x00\x80?\x00\x00\x80?\x00\x00\x80?\x00\x00\x80?\x00\x00\x80?\x00\x00\x80?\x00\x00\x80?\x00\x00\x80?\x00\x00\x80?\x00\x00\x80?\x00\x00\x80?\x00\x00\x80?\x00\x00\x80?\x00\x00\x80?\x00\x00\x80?\x00\x00\x80?\x00\x00\x80?\x00\x00\x80?\x00\x00\x80?\x00\x00\x80?\x00\x00\x80?\x00\x00\x80?\x00\x00\x80?\x00\x00\x80?\x00\x00\x80?\x00\x00\x80?\x00\x00\x80?\x00\x00\x80?\x00\x00\x80?\x00\x00\x80?\x00\x00\x80?\x00\x00\x80?\x00\x00\x80?\x00\x00\x80?\x00\x00\x80?\x00\x00\x80?\x00\x00\x80?\x00\x00\x80?\x00\x00\x80?\x00\x00\x80?\x00\x00\x80?\x00\x00\x80?\x00\x00\x80?\x00\x00\x80?\x00\x00\x80?\x00\x00\x80?\x00\x00\x80?\x00\x00\x80?\x00\x00\x80?\x00\x00\x80?\x00\x00\x80?\x00\x00\x80?\x00\x00\x80?\x00\x00\x80?\x00\x00\x80?\x00\x00\x80?\x00\x00\x80?\x00\x00\x80?\x00\x00\x80?\x00\x00\x80?\x00\x00\x80?\x00\x00\x80?\x00\x00\x80?\x00\x00\x80?\x00\x00\x80?\x00\x00\x80?\x00\x00\x80?\x00\x00\x80?\x00\x00\x80?\x00\x00\x80?\x00\x00\x80?\x00\x00\x80?\x00\x00\x80?\x00\x00\x80?\x00\x00\x80?\x00\x00\x80?\x00\x00\x80?\x00\x00\x80?\x00\x00\x80?\x00\x00\x80?\x00\x00\x80?\x00\x00\x80?\x00\x00\x80?\x00\x00\x80?\x00\x00\x80?\x00\x00\x80?\x00\x00\x80?\x00\x00\x80?\x00\x00\x80?\x00\x00\x80?\x00\x00\x80?\x00\x00\x80?\x00\x00\x80?\x00\x00\x80?\x00\x00\x80?\x00\x00\x80?\x00\x00\x80?\x00\x00\x80?\x00\x00\x80?\x00\x00\x80?\x00\x00\x80?\x00\x00\x80?\x00\x00\x80?\x00\x00\x80?\x00\x00\x80?\x00\x00\x80?\x00\x00\x80?\x00\x00\x80?\x00\x00\x80?\x00\x00\x80?\x00\x00\x80?\x00\x00\x80?\x00\x00\x80?\x00\x00\x80?\x00\x00\x80?\x00\x00\x80?\x00\x00\x80?\x00\x00\x80?\x00\x00\x80?'
S'\x00\x00\x00\x00\x00\x00\x00\x00\x00\x00\x00\x00\x00\x00\x00\x00\x00\x00\x00\x00\x00\x00\x00\x00\x00\x00\x00\x00\x00\x00\x00\x00\x00\x00\x00\x00\x00\x00\x00\x00\x00\x00\x00\x00\x00\x00\x00\x00\x00\x00\x00\x00\x00\x00\x00\x00\x00\x00\x00\x00\x00\x00\x00\x00\x00\x00\x00\x00\x00\x00\x00\x00\x00\x00\x00\x00\x00\x00\x00\x00\x00\x00\x00\x00\x00\x00\x00\x00\x00\x00\x00\x00\x00\x00\x00\x00\x00\x00\x00\x00\x00\x00\x00\x00\x00\x00\x00\x00\x00\x00\x00\x00\x00\x00\x00\x00\x00\x00\x00\x00\x00\x00\x00\x00\x00\x00\x00\x00\x00\x00\x00\x00\x00\x00\x00\x00\x00\x00\x00\x00\x00\x00\x00\x00\x00\x00\x00\x00\x00\x00\x00\x00\x00\x00\x00\x00\x00\x00\x00\x00\x00\x00\x00\x00\x00\x00\x00\x00\x00\x00\x00\x00\x00\x00\x00\x00\x00\x00\x00\x00\x00\x00\x00\x00\x00\x00\x00\x00\x00\x00\x00\x00\x00\x00\x00\x00\x00\x00\x00\x00\x00\x00\x00\x00\x00\x00\x00\x00\x00\x00\x00\x00\x00\x00\x00\x00\x00\x00\x00\x00\x00\x00\x00\x00\x00\x00\x00\x00\x00\x00\x00\x00\x00\x00\x00\x00\x00\x00\x00\x00\x00\x00\x00\x00\x00\x00\x00\x00\x00\x00\x00\x00\x00\x00\x00\x00\x00\x00\x00\x00\x00\x00\x00\x00\x00\x00\x00\x00\x00\x00\x00\x00\x00\x00\x00\x00\x00\x00\x00\x00\x00\x00\x00\x00\x00\x00\x00\x00\x00\x00\x00\x00\x00\x00\x00\x00\x00\x00\x00\x00\x00\x00\x00\x00\x00\x00\x00\x00\x00\x00\x00\x00\x00\x00\x00\x00\x00\x00\x00\x00\x00\x00\x00\x00\x00\x00\x00\x00\x00\x00\x00\x00\x00\x00\x00\x00\x00\x00\x00\x00\x00\x00\x00\x00\x00\x00\x00\x00\x00\x00\x00\x00\x00\x00\x00\x00\x00\x00\x00\x00\x00\x00\x00\x00\x00\x00\x00\x00\x00\x00\x00\x00\x00\x00\x00\x00\x00\x00\x00\x00\x00\x00\x00\x00\x00\x00\x00\x00\x00\x00\x00\x00\x00\x00\x00\x00\x00\x00\x00\x00\x00\x00\x00\x00\x00\x00\x00\x00\x00\x00\x00\x00\x00\x00\x00\x00\x00\x00\x00\x00\x00\x00\x00\x00\x00\x00\x00\x00\x00\x00\x00\x00\x00\x00\x00\x00\x00\x00\x00\x00\x00\x00\x00\x00\x00\x00\x00\x00\x00\x00\x00\x00\x00\x00\x00\x00\x00\x00\x00\x00\x00\x00\x00\x00\x00\x00\x00\x00\x00\x00\x00\x00\x00\x00\x00\x00\x00\x00\x00\x00\x00\x00\x00\x00\x00\x00\x00\x00\x00\x00\x00\x00\x00\x00\x00\x00\x00\x00\x00\x00\x00\x00\x00\x00\x00\x00\x00\x00\x00\x00\x00\x00\x00\x00\x00\x00\x00\x00\x00\x00\x00\x00\x00\x00\x00\x00\x00\x00\x00\x00\x00\x00\x00\x00\x00\x00\x00\x00\x00\x00\x00\x00\x00\x00\x00\x00\x00\x00\x00\x00\x00\x00\x00\x00\x00\x00\x00\x00\x00\x00\x00\x00\x00\x00\x00\x00\x00\x00\x00\x00\x00\x00\x00\x00\x00\x00\x00\x00\x00\x00\x00\x00\x00\x00\x00\x00\x00\x00\x00\x00\x00\x00\x00\x00\x00\x00\x00\x00\x00\x00'
Ntbsg55
g48
(g49
g50
g51
S'b'
tRp4864
(I1
(I600
I1
tg54
I00
S'\x00@\x00D\x00\x80\xafC\x00\x009C\x00\xc0\x04D\x00\x00\xc0@\x00\x00PB\x00\x00\x1aC\x00\x80\xeaC\x00\x00\x84C\x00\x00\x14D\x00\x00\xf2C\x00\x80\x8eC\x00\x80\x0fD\x00\x00\x12D\x00\x00\xb1C\x00\x00?C\x00\x00IC\x00\x00hB\x00\x008B\x00\x00$C\x00\x00SC\x00\x00\xfaB\x00\x00\xd9C\x00\x80\x98C\x00\x80\xbeC\x00\x00\xf6B\x00\x80\xe2C\x00\x80\xf4C\x00\xc0\x13D\x00\x000C\x00\x00\xa7C\x00\xc0\x12D\x00@\x02D\x00\x80\xa2C\x00\x80\xc3C\x00\x00\x93C\x00\x00\xbcC\x00\x00\xc8A\x00\x80\xefC\x00\x00GC\x00\x00\xf4C\x00\x00BC\x00\x00\x00C\x00\x00\xabC\x00\x80\x99C\x00\x00{C\x00\x80\x03D\x00\x00\x14C\x00\x80\x13D\x00\x80\x11D\x00\x80\xb0C\x00\x80\x85C\x00\x00pB\x00\x80\x82C\x00\x80\xf7C\x00\x00,C\x00\x00\xd2C\x00\x00+C\x00\xc0\rD\x00\x00WC\x00\x00!C\x00\x00aC\x00\x00\x8aB\x00\x80\x96C\x00\x80\xe4C\x00\x00\xb9C\x00\xc0\x05D\x00\x00\x15D\x00\x80\xb9C\x00\x00\x00A\x00\x00HC\x00\x00\tC\x00\x00XC\x00\x00\x9cB\x00\x00\x12C\x00\x80\x0eD\x00\x80\x84C\x00@\rD\x00\x00\xa3C\x00\x00YC\x00\x00\xacB\x00\x00NC\x00\x80\xa4C\x00\x00\xe4B\x00\x00(B\x00\x80\x0bD\x00\x00\x91C\x00\x00\xe0A\x00\x00\x0fC\x00\x80\xbcC\x00\x00xB\x00\x00\xf0C\x00\x80\xc6C\x00\x00\xf3C\x00\x00\xb0A\x00\x00\xcbC\x00\x80\x8fC\x00\x00\xaaC\x00\x00$B\x00\xc0\x00D\x00\x00\xf4B\x00\x80\xa1C\x00\x00 C\x00\x00\xaeB\x00\x00\xe2C\x00\x00\x02C\x00\x80\x9bC\x00\x00\xc0B\x00\x00\xe6B\x00\x00\xeeC\x00\xc0\x01D\x00\x00\x80@\x00\x00\xf0B\x00\x00\x10B\x00\x00\xd8C\x00\x00\x98A\x00\x00_C\x00\x00@B\x00\x00\xd0B\x00\x80\xedC\x00\x00\x9dC\x00\x00*C\x00\x00.C\x00\x80\x80C\x00\x00\xfcC\x00\x80\xb5C\x00\x00\x13C\x00\x00\xafC\x00\xc0\x0fD\x00\x00\xccC\x00\x00QC\x00\x00\xcaC\x00\x00\x18C\x00\x004C\x00\xc0\x03D\x00\x00\x90B\x00\x80\xb4C\x00\x80\x04D\x00\x00\xe4C\x00\x00\xc2C\x00\x00VC\x00\x00\xe6C\x00\x00%C\x00\x00\x82C\x00\x00\x05D\x00\x00\xdcC\x00\x80\xfdC\x00\x00\x8eB\x00\x80\x9eC\x00\x80\xaaC\x00\x00\xcdC\x00\x00\xb0B\x00\x00\'C\x00\x00\x90C\x00@\x10D\x00\x00\x08B\x00\x00\xb8B\x00\x00LB\x00\x00 B\x00\x80\xcfC\x00\x80\xf2C\x00\x00\xc8C\x00\x80\x02D\x00\x00<B\x00\x00bC\x00\x80\xe1C\x00\x00tC\x00\x00\x9aB\x00\x00\xb8C\x00\x00\x13D\x00\x00\x14B\x00\x80\x8aC\x00\x80\xdeC\x00@\x07D\x00\x00}C\x00\x00\xfeB\x00\x000A\x00\x00\xf1C\x00\x00\x1fC\x00\x00\xf8B\x00\x00\xbcB\x00\x00\xb2B\x00\x00LC\x00\x00\x05C\x00\x00\xd6B\x00\x00/C\x00\x80\xa7C\x00\x00PA\x00@\x12D\x00\x80\x8dC\x00\x00\x90A\x00\x00\xd8B\x00\x00\x83C\x00\x005C\x00\x80\x12D\x00\x00"C\x00\x80\x90C\x00\x00\x11C\x00\x80\xb2C\x00@\x0eD\x00\x00\xe0@\x00\x00\x8aC\x00\x003C\x00\x80\xfbC\x00\x80\x14D\x00\x00\x10D\x00\xc0\nD\x00\x00\xc9C\x00\x00\x98B\x00\x00fC\x00\x00~C\x00\x00CC\x00\x80\xa6C\x00\x00\xa0C\x00\x004B\x00\x80\xd4C\x00\x80\xd3C\x00\x00\xbbC\x00\x80\xabC\x00\x00\x07C\x00\x00\x84B\x00\x00\xdaC\x00\xc0\x11D\x00\x00\xa9C\x00\x00\xd4C\x00\x80\xe5C\x00\x00\xe8A\x00\x80\xf3C\x00\x00\x8cC\x00\x00\x8fC\x00\x00\xdfC\x00\x00\xd5C\x00\x00\xb6B\x00\x00\x0cB\x00\x00\xa0@\x00\x80\xd6C\x00\x80\xdcC\x00\x80\x10D\x00\x00\xedC\x00\x00\xf9C\x00\x00PC\x00\x00\x08D\x00\x00^C\x00\x80\xb3C\x00\x00\x94B\x00\x00\xcaB\x00\x00\xc6B\x00@\x06D\x00\x80\x81C\x00\x80\x91C\x00\x80\xbdC\x00\x80\xf1C\x00\x80\x8bC\x00@\x08D\x00\x00\xb4B\x00\x80\xd9C\x00\x00\xf8C\x00\x80\xc9C\x00\x00\x80B\x00\x00\xffC\x00\x80\xb1C\x00\x00\tD\x00\x00KC\x00\x80\nD\x00\x00kC\x00\x80\x94C\x00\x00\xd0A\x00\x00\xa6C\x00\x00tB\x00\x00\x1eC\x00\x00\x88C\x00\x80\xa0C\x00\x00\nC\x00\x00\xc5C\x00\x80\xc0C\x00\x00\xb7C\x00\x00EC\x00\x00=C\x00\x00zC\x00\x80\xebC\x00\x00\xacC\x00\x00\x10A\x00\x00lB\x00\x80\x05D\x00\x00sC\x00\x00vC\x00\x00\xaeC\x00\x80\xaeC\x00\x00\xeeB\x00\x00\x00\x00\x00\x00\xd3C\x00\x00\xd4B\x00\x80\xffC\x00\x80\xd1C\x00\x00\x80A\x00\x00\x03C\x00\x00\x07D\x00\xc0\x0cD\x00\x80\x83C\x00\x00-C\x00\xc0\tD\x00\x00#C\x00\x00FC\x00\x00\xe0B\x00\x80\x07D\x00\x00\x17C\x00\x00\xc4C\x00\xc0\x02D\x00\x00\x06C\x00\x00\x92B\x00\x00\xc8B\x00\x80\xbbC\x00\x00\x88B\x00\x00\xd2B\x00\x00\x18B\x00\x00DC\x00\x00\x86C\x00\x00\xa8C\x00\x00\x98C\x00\x00\xdaB\x00\x00\x1dC\x00\x00\xa4C\x00\xc0\x14D\x00\x00\xfdC\x00\x00\xb2C\x00\x00\xe5C\x00\x00\x11D\x00\x00\x00B\x00\x80\xf8C\x00\x00\x82B\x00\x00\x88A\x00\x80\xbfC\x00\x00\xd7C\x00\x80\xe7C\x00\x00\x1cC\x00@\x14D\x00\x80\xccC\x00\x00\xc4B\x00\x00&C\x00\x00\x92C\x00\x00iC\x00\x00dB\x00\x80\x9aC\x00\x00\x9eC\x00\x00\x9eB\x00@\x0cD\x00\x00\x86B\x00\x00@C\x00@\x0bD\x00\x00\x08C\x00\x00\x0eC\x00\x00JC\x00\x80\xc7C\x00\x00@A\x00\x00\x0eD\x00\x00\xb6C\x00\x80\x8cC\x00\x00\xceB\x00\x00\xc3C\x00\x00\xaaB\x00\x00\xe8C\x00\x00`C\x00\x00\xbeC\x00\x80\xc5C\x00\x80\xe3C\x00\x80\xa8C\x00\x80\xacC\x00\x80\x9cC\x00\x00\xb3C\x00\x00\xd0C\x00\x00\xecC\x00\x00\xa2B\x00\x00\xe1C\x00\xc0\x07D\x00\x00gC\x00\x00wC\x00@\nD\x00\x80\x08D\x00\x006C\x00\x80\x88C\x00\x00oC\x00\x00\x96B\x00\x00pA\x00\x00\x15C\x00\x00\rD\x00\x00yC\x00\x80\xbaC\x00\x80\xf6C\x00\x00\xbaB\x00\x80\x9fC\x00\x00\x0bC\x00\x00\x8dC\x00\x00\x02D\x00\x00\xa2C\x00\x00\xc1C\x00\x00\xf5C\x00\xc0\x15D\x00\x00\x7fC\x00\x00\x06D\x00\x00\x0cD\x00@\x13D\x00\x00\x0cC\x00\x00\xeaC\x00\x00\xbaC\x00\x001C\x00\x00\xe2B\x00\x00qC\x00\x00\xfaC\x00\x00\x95C\x00\x00jC\x00\x00\xf0A\x00\x00`B\x00\x00\xa0A\x00@\x01D\x00\x80\xa9C\x00\xc0\x06D\x00@\tD\x00\x80\xd5C\x00\x00\xc0A\x00\x00pC\x00\x00<C\x00\x80\xfeC\x00\x80\xf9C\x00\x80\xdaC\x00@\x05D\x00\x00\x8bC\x00\x00\xb0C\x00\x00\xddC\x00\x00\xe3C\x00\x00lC\x00\x00\x16C\x00\x00hC\x00\x00TC\x00\x00\xb4C\x00\x80\xb7C\x00\x00cC\x00\x80\xe9C\x00\x00\xc6C\x00\x80\xc4C\x00\x00\x00@\x00\x00:C\x00\x80\xddC\x00\x80\x86C\x00\x00nC\x00\x80\xcbC\x00\x00\xdbC\x00\x00\xfcB\x00\x80\x95C\x00\x80\x93C\x00\x80\x97C\x00\x80\xfaC\x00\x00\xdeB\x00\x00(C\x00\x00MC\x00\x80\xd7C\x00\x80\xc2C\x00\x00\xf7C\x00\x80\x15D\x00\x00\xe0C\x00@\x0fD\x00\x00\x01C\x00\x00|B\x00\x00\x8eC\x00\x80\xa5C\x00\x80\xcaC\x00\x00DB\x00\x00\xa8B\x00\xc0\x0eD\x00\x00;C\x00\x00\x9fC\x00\x002C\x00\x00\x96C\x00\x00\xe8B\x00\x80\tD\x00\x00\x80?\x00\x00\xfeC\x00\x00\x10C\x00\x00\\B\x00\x00\x94C\x00\x00\xbdC\x00\x00\x81C\x00\x008C\x00\x80\xdbC\x00\x00|C\x00\x80\xb6C\x00\x00\x97C\x00\x00\xd8A\x00\x00\xf2B\x00\x00,B\x00\x00\xa0B\x00\x00\xbfC\x00\x007C\x00\x00\x1bC\x00\x00\xdcB\x00\x80\xcdC\x00\x00\xb8A\x00\x80\xe6C\x00\x00\x1cB\x00\x00 A\x00\x80\x01D\x00\x00XB\x00\x00\xcfC\x00\x80\xc8C\x00\x00\rC\x00\x00\x9cC\x00\x00\xa8A\x00\xc0\x0bD\x00\x80\x87C\x00\x80\xf5C\x00\xc0\x08D\x00\x80\xd2C\x00\x80\x9dC\x00\x00\x0bD\x00\x000B\x00\x00\x0fD\x00\x00\xa4B\x00\x00\xccB\x00\x00\xe9C\x00\x00\xe7C\x00\x00>C\x00\x00\x00D\x00\x00rC\x00\x00\xd1C\x00\x00\x99C\x00\x00\x89C\x00\x80\x92C\x00\x00[C\x00\x00\x9bC\x00@\x03D\x00\x00\x87C\x00\x00@@\x00@\x15D\x00\x80\xeeC\x00\x00)C\x00\x00mC\x00\x00\x04D\x00\x00\xecB\x00\x00ZC\x00\x00`A\x00\x00RC\x00\x00\xa5C\x00\x00\xefC\x00\x80\xe8C\x00\x80\rD\x00\x00\xf8A\x00\x80\xb8C\x00\x00\xadC\x00\x00\x03D\x00\x00\xc0C\x00\x00\xfbC\x00\x00TB\x00\x80\xa3C\x00\x00\xa1C\x00\x00AC\x00\x00\x01D\x00\x80\xd0C\x00\x00\xdeC\x00\x00\\C\x00\x00xC\x00\x00\xf6C\x00\x00\xb5C\x00\x80\xd8C\x00\x00\x9aC\x00\x80\xfcC\x00\x80\xecC\x00\x00dC\x00\x00\x8cB\x00\x80\x89C\x00\x00UC\x00\x00\x19C\x00\x80\x06D\x00\x00]C\x00\x00\xd6C\x00\x80\xc1C\x00\x00OC\x00\xc0\x10D\x00@\x11D\x00@\x04D\x00\x00\xeaB\x00\x80\x0cD\x00\x00\x04B\x00\x00\x80C\x00\x00\xc7C\x00\x00\xa6B\x00\x00\xceC\x00\x00\x85C\x00\x00uC\x00\x80\xdfC\x00\x00\xebC\x00\x80\x00D\x00\x80\xceC\x00\x00HB\x00\x80\xf0C\x00\x00\x04C\x00\x00\nD\x00\x00\xc2B\x00\x80\xadC\x00\x80\xe0C\x00\x00\xbeB\x00\x00eC'
S'\x00\x00\x00\x00\x00\x00\x00\x00\x00\x00\x00\x00\x00\x00\x00\x00\x00\x00\x00\x00\x00\x00\x00\x00\x00\x00\x00\x00\x00\x00\x00\x00\x00\x00\x00\x00\x00\x00\x00\x00\x00\x00\x00\x00\x00\x00\x00\x00\x00\x00\x00\x00\x00\x00\x00\x00\x00\x00\x00\x00\x00\x00\x00\x00\x00\x00\x00\x00\x00\x00\x00\x00\x00\x00\x00\x00\x00\x00\x00\x00\x00\x00\x00\x00\x00\x00\x00\x00\x00\x00\x00\x00\x00\x00\x00\x00\x00\x00\x00\x00\x00\x00\x00\x00\x00\x00\x00\x00\x00\x00\x00\x00\x00\x00\x00\x00\x00\x00\x00\x00\x00\x00\x00\x00\x00\x00\x00\x00\x00\x00\x00\x00\x00\x00\x00\x00\x00\x00\x00\x00\x00\x00\x00\x00\x00\x00\x00\x00\x00\x00\x00\x00\x00\x00\x00\x00\x00\x00\x00\x00\x00\x00\x00\x00\x00\x00\x00\x00\x00\x00\x00\x00\x00\x00\x00\x00\x00\x00\x00\x00\x00\x00\x00\x00\x00\x00\x00\x00\x00\x00\x00\x00\x00\x00\x00\x00\x00\x00\x00\x00\x00\x00\x00\x00\x00\x00\x00\x00\x00\x00\x00\x00\x00\x00\x00\x00\x00\x00\x00\x00\x00\x00\x00\x00\x00\x00\x00\x00\x00\x00\x00\x00\x00\x00\x00\x00\x00\x00\x00\x00\x00\x00\x00\x00\x00\x00\x00\x00\x00\x00\x00\x00\x00\x00\x00\x00\x00\x00\x00\x00\x00\x00\x00\x00\x00\x00\x00\x00\x00\x00\x00\x00\x00\x00\x00\x00\x00\x00\x00\x00\x00\x00\x00\x00\x00\x00\x00\x00\x00\x00\x00\x00\x00\x00\x00\x00\x00\x00\x00\x00\x00\x00\x00\x00\x00\x00\x00\x00\x00\x00\x00\x00\x00\x00\x00\x00\x00\x00\x00\x00\x00\x00\x00\x00\x00\x00\x00\x00\x00\x00\x00\x00\x00\x00\x00\x00\x00\x00\x00\x00\x00\x00\x00\x00\x00\x00\x00\x00\x00\x00\x00\x00\x00\x00\x00\x00\x00\x00\x00\x00\x00\x00\x00\x00\x00\x00\x00\x00\x00\x00\x00\x00\x00\x00\x00\x00\x00\x00\x00\x00\x00\x00\x00\x00\x00\x00\x00\x00\x00\x00\x00\x00\x00\x00\x00\x00\x00\x00\x00\x00\x00\x00\x00\x00\x00\x00\x00\x00\x00\x00\x00\x00\x00\x00\x00\x00\x00\x00\x00\x00\x00\x00\x00\x00\x00\x00\x00\x00\x00\x00\x00\x00\x00\x00\x00\x00\x00\x00\x00\x00\x00\x00\x00\x00\x00\x00\x00\x00\x00\x00\x00\x00\x00\x00\x00\x00\x00\x00\x00\x00\x00\x00\x00\x00\x00\x00\x00\x00\x00\x00\x00\x00\x00\x00\x00\x00\x00\x00\x00\x00\x00\x00\x00\x00\x00\x00\x00\x00\x00\x00\x00\x00\x00\x00\x00\x00\x00\x00\x00\x00\x00\x00\x00\x00\x00\x00\x00\x00\x00\x00\x00\x00\x00\x00\x00\x00\x00\x00\x00\x00\x00\x00\x00\x00\x00\x00\x00\x00\x00\x00\x00\x00\x00\x00\x00\x00\x00\x00\x00\x00\x00\x00\x00\x00\x00\x00\x00\x00\x00\x00\x00\x00\x00\x00\x00\x00\x00\x00\x00\x00\x00\x00\x00\x00\x00\x00\x00\x00\x00\x00\x00\x00\x00\x00\x00\x00\x00\x00\x00\x00\x00\x00\x00\x00\x00\x00\x00\x00\x00\x00\x00\x00\x00\x00\x00\x00\x00\x00\x00\x00'
NtbstRp4865
(dp4866
g59
(dp4867
g47
I01
sg55
I01
ssg61
g4859
sg62
(lp4868
g47
ag55
asg64
(lp4869
I600
aI1
asbsg66
S'random'
p4870
sg68
g69
(g50
(I0
tS'b'
tRp4871
(I1
(I600
I1
tg53
(S'i4'
I0
I1
tRp4872
(I3
S'<'
NNNI-1
I-1
I0
tbI01
S'!\x01\x00\x00\xda\x01\x00\x00\xb7\x01\x00\x00\x12\x02\x00\x00o\x00\x00\x00\xea\x00\x00\x00\x04\x00\x00\x00\xc8\x00\x00\x00E\x00\x00\x00\x19\x01\x00\x00\xf2\x01\x00\x00\xb0\x00\x00\x00a\x01\x00\x00\xbb\x00\x00\x00\x1a\x02\x00\x00~\x01\x00\x00&\x01\x00\x00J\x01\x00\x00\xbe\x00\x00\x00s\x00\x00\x00\x9c\x01\x00\x00\xf9\x01\x00\x00^\x00\x00\x00\xef\x01\x00\x00\xa2\x01\x00\x00%\x00\x00\x00\n\x01\x00\x00\xe6\x01\x00\x00W\x00\x00\x00\xe2\x00\x00\x00\x9a\x01\x00\x00 \x02\x00\x00G\x01\x00\x00D\x02\x00\x00\x9b\x00\x00\x00\xe9\x00\x00\x00q\x00\x00\x00\xaa\x00\x00\x00:\x01\x00\x00\xf1\x01\x00\x00\x9e\x00\x00\x00b\x00\x00\x00T\x00\x00\x00\xe8\x01\x00\x00\x01\x02\x00\x00\xd6\x00\x00\x00\x12\x00\x00\x00\xa3\x00\x00\x00u\x00\x00\x00\xd1\x01\x00\x00O\x02\x00\x00\x9d\x00\x00\x00\x05\x00\x00\x00&\x02\x00\x00\xf4\x01\x00\x00\xdd\x01\x00\x00\x9b\x01\x00\x00U\x01\x00\x00\x11\x00\x00\x00\x1a\x01\x00\x004\x00\x00\x00\x0c\x01\x00\x00Z\x00\x00\x00\xcd\x01\x00\x00\x02\x01\x00\x00I\x01\x00\x00\xdc\x00\x00\x00Z\x01\x00\x008\x01\x00\x00>\x00\x00\x006\x02\x00\x00\x93\x00\x00\x00\x87\x00\x00\x005\x01\x00\x00\xf4\x00\x00\x00}\x01\x00\x00\xd0\x00\x00\x00\xa7\x00\x00\x00I\x00\x00\x00X\x01\x00\x00\xe9\x01\x00\x00s\x01\x00\x00\x03\x02\x00\x00G\x02\x00\x00\xd2\x01\x00\x00g\x01\x00\x00P\x00\x00\x00g\x00\x00\x00\x97\x00\x00\x00\xb5\x00\x00\x00\xfe\x00\x00\x00\xe8\x00\x00\x00\x9c\x00\x00\x00\x84\x01\x00\x00\xb4\x00\x00\x00V\x02\x00\x00k\x00\x00\x00S\x02\x00\x00Q\x01\x00\x00\xf6\x00\x00\x006\x01\x00\x00\xf5\x00\x00\x00\x04\x02\x00\x00e\x01\x00\x00v\x00\x00\x009\x01\x00\x00#\x01\x00\x00\xb8\x00\x00\x00\xbf\x00\x00\x00?\x01\x00\x00\xed\x01\x00\x00\xc3\x01\x00\x00/\x01\x00\x00\x95\x01\x00\x00S\x00\x00\x00l\x00\x00\x00\xd8\x01\x00\x00B\x02\x00\x00\x18\x02\x00\x00 \x01\x00\x00p\x00\x00\x00\xe7\x01\x00\x00d\x00\x00\x00\x19\x00\x00\x00\xb3\x00\x00\x00\x15\x00\x00\x00\xbe\x01\x00\x00\xaf\x00\x00\x00*\x00\x00\x00\xcc\x01\x00\x00i\x00\x00\x00\'\x01\x00\x00Q\x02\x00\x00\xb7\x00\x00\x004\x01\x00\x00\xdb\x00\x00\x00]\x01\x00\x00G\x00\x00\x00\x10\x01\x00\x00\x86\x01\x00\x00\x91\x01\x00\x00\xf7\x01\x00\x00^\x01\x00\x00X\x00\x00\x00\xdc\x01\x00\x00\xc5\x00\x00\x00J\x00\x00\x00~\x00\x00\x00/\x00\x00\x00\x7f\x01\x00\x00\xae\x01\x00\x001\x01\x00\x00\x84\x00\x00\x009\x02\x00\x00\x06\x00\x00\x00\xec\x01\x00\x00N\x01\x00\x00@\x01\x00\x00\r\x01\x00\x00\xb2\x00\x00\x00f\x00\x00\x00<\x00\x00\x00\xc3\x00\x00\x00-\x01\x00\x00\x13\x00\x00\x00\x8e\x00\x00\x00R\x01\x00\x00\x98\x00\x00\x00\xc4\x01\x00\x00\x15\x02\x00\x00y\x00\x00\x009\x00\x00\x007\x00\x00\x00+\x01\x00\x00z\x00\x00\x00\xb9\x00\x00\x00\x1d\x00\x00\x00\x94\x01\x00\x00\xd6\x01\x00\x00\xca\x00\x00\x00\x85\x00\x00\x00\xc1\x00\x00\x00z\x01\x00\x00\xeb\x01\x00\x00\xe1\x01\x00\x00\x02\x00\x00\x00\xb8\x01\x00\x00\xd4\x01\x00\x00\xa4\x01\x00\x00\x15\x01\x00\x00\x07\x02\x00\x00\x0f\x00\x00\x00[\x01\x00\x00)\x02\x00\x00)\x00\x00\x00\xd3\x00\x00\x00;\x01\x00\x00\x14\x01\x00\x00.\x01\x00\x00\'\x00\x00\x00F\x00\x00\x00\x10\x00\x00\x00_\x01\x00\x00\x06\x01\x00\x00\xb6\x00\x00\x00\xc5\x01\x00\x00Q\x00\x00\x00>\x02\x00\x00\xf0\x00\x00\x00\x82\x00\x00\x00\x1b\x02\x00\x00\x14\x00\x00\x00\xb0\x01\x00\x008\x02\x00\x00\x8c\x00\x00\x00;\x00\x00\x00H\x00\x00\x00O\x00\x00\x00\x19\x02\x00\x00\x0e\x02\x00\x00-\x02\x00\x00;\x02\x00\x00\xf2\x00\x00\x00t\x00\x00\x00i\x01\x00\x00=\x00\x00\x00\xa4\x00\x00\x00\xb3\x01\x00\x005\x02\x00\x00W\x02\x00\x00\xd1\x00\x00\x00v\x01\x00\x00\xaf\x01\x00\x00T\x01\x00\x00\x99\x01\x00\x00\x08\x01\x00\x00\xad\x01\x00\x00\x16\x02\x00\x00\xbb\x01\x00\x00|\x01\x00\x00\xa3\x01\x00\x00\x96\x01\x00\x00\t\x02\x00\x00\x1c\x01\x00\x00\xa6\x00\x00\x00J\x02\x00\x00\x1d\x01\x00\x00w\x01\x00\x00.\x02\x00\x00\x81\x01\x00\x00\x16\x01\x00\x00-\x00\x00\x00\xe3\x01\x00\x00\xae\x00\x00\x00\xd2\x00\x00\x00\x8d\x01\x00\x00E\x02\x00\x00{\x00\x00\x00\xe0\x01\x00\x00\xf8\x00\x00\x00\x8f\x00\x00\x005\x00\x00\x00\xc0\x00\x00\x00*\x01\x00\x00\x08\x00\x00\x00L\x00\x00\x00I\x02\x00\x003\x00\x00\x00<\x01\x00\x00\xba\x01\x00\x00\x11\x02\x00\x00\xfb\x01\x00\x00\x0e\x01\x00\x00{\x01\x00\x00\x0c\x02\x00\x007\x02\x00\x00\xc9\x00\x00\x00\xab\x00\x00\x00\xa9\x01\x00\x00\xfc\x00\x00\x00\xe4\x00\x00\x00d\x01\x00\x00\x87\x01\x00\x00\xbd\x00\x00\x00\xce\x01\x00\x00\x0b\x00\x00\x00\xe5\x00\x00\x00`\x00\x00\x00\x99\x00\x00\x00\xc4\x00\x00\x00V\x00\x00\x00\xf9\x00\x00\x00S\x01\x00\x00\r\x02\x00\x00#\x00\x00\x00\xc0\x01\x00\x00\xde\x01\x00\x00\t\x01\x00\x00\x98\x01\x00\x00\xbf\x01\x00\x00\xd7\x01\x00\x00?\x00\x00\x00\xe5\x01\x00\x00\xc1\x01\x00\x00>\x01\x00\x00\x17\x00\x00\x00\x0b\x02\x00\x00,\x00\x00\x002\x02\x00\x00V\x01\x00\x00\x0f\x02\x00\x00j\x00\x00\x00\xf8\x01\x00\x00o\x01\x00\x00x\x00\x00\x00\xff\x01\x00\x00W\x01\x00\x00\x94\x00\x00\x00\xd5\x01\x00\x00\x85\x01\x00\x00\xd5\x00\x00\x00\x0f\x01\x00\x00(\x02\x00\x00e\x00\x00\x00\x89\x01\x00\x00!\x00\x00\x00N\x00\x00\x00\'\x02\x00\x00A\x01\x00\x00R\x00\x00\x00\x1c\x02\x00\x00\xcf\x01\x00\x00\x0b\x01\x00\x00\xd4\x00\x00\x00\x1e\x00\x00\x00\xba\x00\x00\x00=\x01\x00\x00m\x01\x00\x00\xdf\x00\x00\x00\x9e\x01\x00\x00a\x00\x00\x00\x95\x00\x00\x00+\x00\x00\x00\xda\x00\x00\x00\x18\x01\x00\x00n\x01\x00\x00"\x02\x00\x00T\x02\x00\x00\x1e\x01\x00\x00\x1f\x01\x00\x00\x7f\x00\x00\x00\x01\x00\x00\x00\xaa\x01\x00\x002\x00\x00\x00\x0e\x00\x00\x00\x04\x01\x00\x00D\x01\x00\x00\xc6\x00\x00\x00p\x01\x00\x00\xf3\x00\x00\x00\xb1\x01\x00\x00\x88\x00\x00\x000\x02\x00\x00}\x00\x00\x00c\x01\x00\x00\xe4\x01\x00\x00\x13\x01\x00\x00\xb2\x01\x00\x00\xa8\x00\x00\x00!\x02\x00\x00A\x00\x00\x00D\x00\x00\x00\x93\x01\x00\x00\x82\x01\x00\x00\xd9\x00\x00\x007\x01\x00\x00$\x00\x00\x00Y\x00\x00\x00\xdf\x01\x00\x00\xfa\x00\x00\x00j\x01\x00\x00\x18\x00\x00\x00\xea\x01\x00\x00K\x01\x00\x00$\x02\x00\x00\x12\x01\x00\x00\x8a\x01\x00\x00=\x02\x00\x00\x8b\x00\x00\x00\xc7\x01\x00\x00f\x01\x00\x00"\x00\x00\x002\x01\x00\x00\xb6\x01\x00\x00\x11\x01\x00\x00k\x01\x00\x00\xb5\x01\x00\x00\\\x00\x00\x00F\x02\x00\x00`\x01\x00\x00\xa1\x00\x00\x00\xf6\x01\x00\x00\xcf\x00\x00\x00\x01\x01\x00\x00\x83\x00\x00\x00\xd0\x01\x00\x00_\x00\x00\x00\xbc\x01\x00\x00\x81\x00\x00\x00P\x01\x00\x00\x96\x00\x00\x00\xee\x01\x00\x00H\x02\x00\x00N\x02\x00\x00\xf5\x01\x00\x00\x9f\x00\x00\x00q\x01\x00\x00+\x02\x00\x00\n\x02\x00\x00%\x01\x00\x008\x00\x00\x00\xfe\x01\x00\x00"\x01\x00\x00\xd8\x00\x00\x00\xe0\x00\x00\x00\xd7\x00\x00\x00\xe7\x00\x00\x00\xa1\x01\x00\x00<\x02\x00\x00\xeb\x00\x00\x00L\x01\x00\x00\xc6\x01\x00\x00r\x00\x00\x001\x02\x00\x00\x16\x00\x00\x00\xff\x00\x00\x00\xdd\x00\x00\x00\xa7\x01\x00\x00\xbd\x01\x00\x00\xe2\x01\x00\x00\x91\x00\x00\x00\xec\x00\x00\x00\xab\x01\x00\x00\xb9\x01\x00\x00,\x02\x00\x00\xac\x00\x00\x00\xe6\x00\x00\x00K\x02\x00\x00\xca\x01\x00\x00U\x02\x00\x00t\x01\x00\x00\xa5\x00\x00\x00h\x00\x00\x00\x1a\x00\x00\x00\xac\x01\x00\x00l\x01\x00\x00\x8a\x00\x00\x00@\x00\x00\x00E\x01\x00\x00\xe1\x00\x00\x00\x8d\x00\x00\x00\xf0\x01\x00\x00\x06\x02\x00\x00M\x01\x00\x00h\x01\x00\x00\x1e\x02\x00\x00\x05\x02\x00\x00\xb4\x01\x00\x00\x92\x01\x00\x00\x07\x00\x00\x00L\x02\x00\x00\x17\x01\x00\x00r\x01\x00\x004\x02\x00\x00\xee\x00\x00\x00w\x00\x00\x00m\x00\x00\x00\x14\x02\x00\x00\x1d\x02\x00\x00&\x00\x00\x00[\x00\x00\x00P\x02\x00\x00\xb1\x00\x00\x00\xfb\x00\x00\x00\n\x00\x00\x00\xa0\x00\x00\x00]\x00\x00\x00\xe3\x00\x00\x00(\x00\x00\x00\x1b\x00\x00\x00\x8b\x01\x00\x00\xfc\x01\x00\x00/\x02\x00\x00\x83\x01\x00\x00\xc8\x01\x00\x006\x00\x00\x00\x00\x01\x00\x00H\x01\x00\x00\xef\x00\x00\x00\xa6\x01\x00\x00\x97\x01\x00\x00\xc2\x01\x00\x00%\x02\x00\x00\xcb\x00\x00\x00|\x00\x00\x003\x02\x00\x00C\x01\x00\x00\x92\x00\x00\x00\xdb\x01\x00\x00\xa5\x01\x00\x00\x03\x01\x00\x00$\x01\x00\x00\x08\x02\x00\x00\x00\x00\x00\x00M\x02\x00\x00c\x00\x00\x00*\x02\x00\x00\x9d\x01\x00\x00\xf3\x01\x00\x00n\x00\x00\x00\x88\x01\x00\x00 \x00\x00\x00\xa2\x00\x00\x003\x01\x00\x00#\x02\x00\x00\x10\x02\x00\x00.\x00\x00\x00\x86\x00\x00\x00\x17\x02\x00\x00A\x02\x00\x00\x89\x00\x00\x00\x03\x00\x00\x00\x90\x00\x00\x00\xa8\x01\x00\x00\x1b\x01\x00\x00B\x00\x00\x00\x8e\x01\x00\x00\xf7\x00\x00\x00:\x02\x00\x00\x9f\x01\x00\x00(\x01\x00\x00\xad\x00\x00\x000\x01\x00\x00u\x01\x00\x00\xf1\x00\x00\x00\xfd\x00\x00\x00y\x01\x00\x00\xfd\x01\x00\x00\x05\x01\x00\x00\xa0\x01\x00\x00\xd9\x01\x00\x00,\x01\x00\x00R\x02\x00\x00x\x01\x00\x00\x07\x01\x00\x00\xce\x00\x00\x00\x00\x02\x00\x00\\\x01\x00\x00U\x00\x00\x00\xfa\x01\x00\x00\x8f\x01\x00\x00Y\x01\x00\x00C\x02\x00\x00)\x01\x00\x00\x80\x01\x00\x00M\x00\x00\x00\x1f\x02\x00\x00:\x00\x00\x00b\x01\x00\x00\xc7\x00\x00\x00K\x00\x00\x00\xd3\x01\x00\x00\x02\x02\x00\x00\xcb\x01\x00\x00\x0c\x00\x00\x00\x80\x00\x00\x00\xcd\x00\x00\x00\x9a\x00\x00\x00\xed\x00\x00\x00?\x02\x00\x00F\x01\x00\x00@\x02\x00\x001\x00\x00\x00\xde\x00\x00\x00\r\x00\x00\x00\xbc\x00\x00\x00\xc2\x00\x00\x00\x1f\x00\x00\x00\xa9\x00\x00\x00\x90\x01\x00\x000\x00\x00\x00\x1c\x00\x00\x00\t\x00\x00\x00O\x01\x00\x00\xcc\x00\x00\x00B\x01\x00\x00C\x00\x00\x00\x13\x02\x00\x00\xc9\x01\x00\x00\x8c\x01\x00\x00'
tbsg73
I01
sg74
I1
sg75
I-1
sg76
(lp4873
I0
aI1
aI2
aI3
aI4
aI5
aI6
aI7
aI8
aI9
aI10
aI11
aI12
aI13
aI14
aI15
aI16
aI17
aI18
aI19
aI20
aI21
aI22
aI23
aI24
aI25
aI26
aI27
aI28
aI29
aI30
aI31
aI32
aI33
aI34
aI35
aI36
aI37
aI38
aI39
aI40
aI41
aI42
aI43
aI44
aI45
aI46
aI47
aI48
aI49
aI50
aI51
aI52
aI53
aI54
aI55
aI56
aI57
aI58
aI59
aI60
aI61
aI62
aI63
aI64
aI65
aI66
aI67
aI68
aI69
aI70
aI71
aI72
aI73
aI74
aI75
aI76
aI77
aI78
aI79
aI80
aI81
aI82
aI83
aI84
aI85
aI86
aI87
aI88
aI89
aI90
aI91
aI92
aI93
aI94
aI95
aI96
aI97
aI98
aI99
aI100
aI101
aI102
aI103
aI104
aI105
aI106
aI107
aI108
aI109
aI110
aI111
aI112
aI113
aI114
aI115
aI116
aI117
aI118
aI119
aI120
aI121
aI122
aI123
aI124
aI125
aI126
aI127
aI128
aI129
aI130
aI131
aI132
aI133
aI134
aI135
aI136
aI137
aI138
aI139
aI140
aI141
aI142
aI143
aI144
aI145
aI146
aI147
aI148
aI149
aI150
aI151
aI152
aI153
aI154
aI155
aI156
aI157
aI158
aI159
aI160
aI161
aI162
aI163
aI164
aI165
aI166
aI167
aI168
aI169
aI170
aI171
aI172
aI173
aI174
aI175
aI176
aI177
aI178
aI179
aI180
aI181
aI182
aI183
aI184
aI185
aI186
aI187
aI188
aI189
aI190
aI191
aI192
aI193
aI194
aI195
aI196
aI197
aI198
aI199
aI200
aI201
aI202
aI203
aI204
aI205
aI206
aI207
aI208
aI209
aI210
aI211
aI212
aI213
aI214
aI215
aI216
aI217
aI218
aI219
aI220
aI221
aI222
aI223
aI224
aI225
aI226
aI227
aI228
aI229
aI230
aI231
aI232
aI233
aI234
aI235
aI236
aI237
aI238
aI239
aI240
aI241
aI242
aI243
aI244
aI245
aI246
aI247
aI248
aI249
aI250
aI251
aI252
aI253
aI254
aI255
aI256
aI257
aI258
aI259
aI260
aI261
aI262
aI263
aI264
aI265
aI266
aI267
aI268
aI269
aI270
aI271
aI272
aI273
aI274
aI275
aI276
aI277
aI278
aI279
aI280
aI281
aI282
aI283
aI284
aI285
aI286
aI287
aI288
aI289
aI290
aI291
aI292
aI293
aI294
aI295
aI296
aI297
aI298
aI299
aI300
aI301
aI302
aI303
aI304
aI305
aI306
aI307
aI308
aI309
aI310
aI311
aI312
aI313
aI314
aI315
aI316
aI317
aI318
aI319
aI320
aI321
aI322
aI323
aI324
aI325
aI326
aI327
aI328
aI329
aI330
aI331
aI332
aI333
aI334
aI335
aI336
aI337
aI338
aI339
aI340
aI341
aI342
aI343
aI344
aI345
aI346
aI347
aI348
aI349
aI350
aI351
aI352
aI353
aI354
aI355
aI356
aI357
aI358
aI359
aI360
aI361
aI362
aI363
aI364
aI365
aI366
aI367
aI368
aI369
aI370
aI371
aI372
aI373
aI374
aI375
aI376
aI377
aI378
aI379
aI380
aI381
aI382
aI383
aI384
aI385
aI386
aI387
aI388
aI389
aI390
aI391
aI392
aI393
aI394
aI395
aI396
aI397
aI398
aI399
aI400
aI401
aI402
aI403
aI404
aI405
aI406
aI407
aI408
aI409
aI410
aI411
aI412
aI413
aI414
aI415
aI416
aI417
aI418
aI419
aI420
aI421
aI422
aI423
aI424
aI425
aI426
aI427
aI428
aI429
aI430
aI431
aI432
aI433
aI434
aI435
aI436
aI437
aI438
aI439
aI440
aI441
aI442
aI443
aI444
aI445
aI446
aI447
aI448
aI449
aI450
aI451
aI452
aI453
aI454
aI455
aI456
aI457
aI458
aI459
aI460
aI461
aI462
aI463
aI464
aI465
aI466
aI467
aI468
aI469
aI470
aI471
aI472
aI473
aI474
aI475
aI476
aI477
aI478
aI479
aI480
aI481
aI482
aI483
aI484
aI485
aI486
aI487
aI488
aI489
aI490
aI491
aI492
aI493
aI494
aI495
aI496
aI497
aI498
aI499
aI500
aI501
aI502
aI503
aI504
aI505
aI506
aI507
aI508
aI509
aI510
aI511
aI512
aI513
aI514
aI515
aI516
aI517
aI518
aI519
aI520
aI521
aI522
aI523
aI524
aI525
aI526
aI527
aI528
aI529
aI530
aI531
aI532
aI533
aI534
aI535
aI536
aI537
aI538
aI539
aI540
aI541
aI542
aI543
aI544
aI545
aI546
aI547
aI548
aI549
aI550
aI551
aI552
aI553
aI554
aI555
aI556
aI557
aI558
aI559
aI560
aI561
aI562
aI563
aI564
aI565
aI566
aI567
aI568
aI569
aI570
aI571
aI572
aI573
aI574
aI575
aI576
aI577
aI578
aI579
aI580
aI581
aI582
aI583
aI584
aI585
aI586
aI587
aI588
aI589
aI590
aI591
aI592
aI593
aI594
aI595
aI596
aI597
aI598
aI599
asg78
Nsg79
cnumpy.core.multiarray
scalar
p4874
(g4872
S'\x8c\x01\x00\x00'
tRp4875
sg80
I600
sg81
I0
sg82
I600
sg83
I01
sbag36
asS'savePickle'
p4876
I00
sb.