ccopy_reg
_reconstructor
p1
(cpsychopy.data
ExperimentHandler
p2
c__builtin__
object
p3
NtRp4
(dp5
S'originPath'
p6
NsS'dataFileName'
p7
Vsubject660
p8
sS'runtimeInfo'
p9
NsS'name'
p10
VVERBALRBsubject 660
p11
sS'dataNames'
p12
(lp13
S'Block Number'
p14
aS'Key pressed'
p15
aS'Category'
p16
aS'Correct?'
p17
aS'Int Match?'
p18
aS'Int Response'
p19
aS'Int Correct?'
p20
aS'Line Accuracy'
p21
aS'Interference Accuracy'
p22
aS'Matching Interferences'
p23
aS'New instruction shown?'
p24
aS'Buttons switched?'
p25
aS'Fast?'
p26
asS'autoLog'
p27
I01
sS'extraInfo'
p28
(dp29
S'gender'
p30
VF
sS'age'
p31
V20
p32
ssS'loopsUnfinished'
p33
(lp34
g1
(cpsychopy.data
TrialHandler
p35
g3
NtRp36
(dp37
S'origin'
p38
NsS'thisTrial'
p39
I1
sS'_exp'
p40
I79487120
sg10
S''
sg6
S'C:\\Users\\Mike\\Desktop\\Dual2\\NEWVerbalRB.py'
p41
sS'thisRepN'
p42
I54
sg27
I01
sg28
NsS'data'
p43
g1
(cpsychopy.data
DataHandler
p44
c__builtin__
dict
p45
(dp46
S'ran'
p47
cnumpy.ma.core
_mareconstruct
p48
(cnumpy.ma.core
MaskedArray
p49
cnumpy
ndarray
p50
(I0
tp51
S'b'
tRp52
(I1
(I11
I55
tcnumpy
dtype
p53
(S'f4'
I0
I1
tRp54
(I3
S'<'
NNNI-1
I-1
I0
tbI00
S'\x00\x00\x80?\x00\x00\x80?\x00\x00\x80?\x00\x00\x80?\x00\x00\x80?\x00\x00\x80?\x00\x00\x80?\x00\x00\x80?\x00\x00\x80?\x00\x00\x80?\x00\x00\x80?\x00\x00\x80?\x00\x00\x80?\x00\x00\x80?\x00\x00\x80?\x00\x00\x80?\x00\x00\x80?\x00\x00\x80?\x00\x00\x80?\x00\x00\x80?\x00\x00\x80?\x00\x00\x80?\x00\x00\x80?\x00\x00\x80?\x00\x00\x80?\x00\x00\x80?\x00\x00\x80?\x00\x00\x80?\x00\x00\x80?\x00\x00\x80?\x00\x00\x80?\x00\x00\x80?\x00\x00\x80?\x00\x00\x80?\x00\x00\x80?\x00\x00\x80?\x00\x00\x80?\x00\x00\x80?\x00\x00\x80?\x00\x00\x80?\x00\x00\x80?\x00\x00\x80?\x00\x00\x80?\x00\x00\x80?\x00\x00\x80?\x00\x00\x80?\x00\x00\x80?\x00\x00\x80?\x00\x00\x80?\x00\x00\x80?\x00\x00\x80?\x00\x00\x80?\x00\x00\x80?\x00\x00\x80?\x00\x00\x80?\x00\x00\x80?\x00\x00\x80?\x00\x00\x80?\x00\x00\x80?\x00\x00\x80?\x00\x00\x80?\x00\x00\x80?\x00\x00\x80?\x00\x00\x80?\x00\x00\x80?\x00\x00\x80?\x00\x00\x80?\x00\x00\x80?\x00\x00\x80?\x00\x00\x80?\x00\x00\x80?\x00\x00\x80?\x00\x00\x80?\x00\x00\x80?\x00\x00\x80?\x00\x00\x80?\x00\x00\x80?\x00\x00\x80?\x00\x00\x80?\x00\x00\x80?\x00\x00\x80?\x00\x00\x80?\x00\x00\x80?\x00\x00\x80?\x00\x00\x80?\x00\x00\x80?\x00\x00\x80?\x00\x00\x80?\x00\x00\x80?\x00\x00\x80?\x00\x00\x80?\x00\x00\x80?\x00\x00\x80?\x00\x00\x80?\x00\x00\x80?\x00\x00\x80?\x00\x00\x80?\x00\x00\x80?\x00\x00\x80?\x00\x00\x80?\x00\x00\x80?\x00\x00\x80?\x00\x00\x80?\x00\x00\x80?\x00\x00\x80?\x00\x00\x80?\x00\x00\x80?\x00\x00\x80?\x00\x00\x80?\x00\x00\x80?\x00\x00\x80?\x00\x00\x80?\x00\x00\x80?\x00\x00\x80?\x00\x00\x80?\x00\x00\x80?\x00\x00\x80?\x00\x00\x80?\x00\x00\x80?\x00\x00\x80?\x00\x00\x80?\x00\x00\x80?\x00\x00\x80?\x00\x00\x80?\x00\x00\x80?\x00\x00\x80?\x00\x00\x80?\x00\x00\x80?\x00\x00\x80?\x00\x00\x80?\x00\x00\x80?\x00\x00\x80?\x00\x00\x80?\x00\x00\x80?\x00\x00\x80?\x00\x00\x80?\x00\x00\x80?\x00\x00\x80?\x00\x00\x80?\x00\x00\x80?\x00\x00\x80?\x00\x00\x80?\x00\x00\x80?\x00\x00\x80?\x00\x00\x80?\x00\x00\x80?\x00\x00\x80?\x00\x00\x80?\x00\x00\x80?\x00\x00\x80?\x00\x00\x80?\x00\x00\x80?\x00\x00\x80?\x00\x00\x80?\x00\x00\x80?\x00\x00\x80?\x00\x00\x80?\x00\x00\x80?\x00\x00\x80?\x00\x00\x80?\x00\x00\x80?\x00\x00\x80?\x00\x00\x80?\x00\x00\x80?\x00\x00\x80?\x00\x00\x80?\x00\x00\x80?\x00\x00\x80?\x00\x00\x80?\x00\x00\x80?\x00\x00\x80?\x00\x00\x80?\x00\x00\x80?\x00\x00\x80?\x00\x00\x80?\x00\x00\x80?\x00\x00\x80?\x00\x00\x80?\x00\x00\x80?\x00\x00\x80?\x00\x00\x80?\x00\x00\x80?\x00\x00\x80?\x00\x00\x80?\x00\x00\x80?\x00\x00\x80?\x00\x00\x80?\x00\x00\x80?\x00\x00\x80?\x00\x00\x80?\x00\x00\x80?\x00\x00\x80?\x00\x00\x80?\x00\x00\x80?\x00\x00\x80?\x00\x00\x80?\x00\x00\x80?\x00\x00\x80?\x00\x00\x80?\x00\x00\x80?\x00\x00\x80?\x00\x00\x80?\x00\x00\x80?\x00\x00\x80?\x00\x00\x80?\x00\x00\x80?\x00\x00\x80?\x00\x00\x80?\x00\x00\x80?\x00\x00\x80?\x00\x00\x80?\x00\x00\x80?\x00\x00\x80?\x00\x00\x80?\x00\x00\x80?\x00\x00\x80?\x00\x00\x80?\x00\x00\x80?\x00\x00\x00\x00\x00\x00\x00\x00\x00\x00\x80?\x00\x00\x80?\x00\x00\x80?\x00\x00\x80?\x00\x00\x80?\x00\x00\x80?\x00\x00\x80?\x00\x00\x80?\x00\x00\x80?\x00\x00\x80?\x00\x00\x80?\x00\x00\x80?\x00\x00\x80?\x00\x00\x80?\x00\x00\x80?\x00\x00\x80?\x00\x00\x80?\x00\x00\x80?\x00\x00\x80?\x00\x00\x80?\x00\x00\x80?\x00\x00\x80?\x00\x00\x80?\x00\x00\x80?\x00\x00\x80?\x00\x00\x80?\x00\x00\x80?\x00\x00\x80?\x00\x00\x80?\x00\x00\x80?\x00\x00\x80?\x00\x00\x80?\x00\x00\x80?\x00\x00\x80?\x00\x00\x80?\x00\x00\x80?\x00\x00\x80?\x00\x00\x80?\x00\x00\x80?\x00\x00\x80?\x00\x00\x80?\x00\x00\x80?\x00\x00\x80?\x00\x00\x80?\x00\x00\x80?\x00\x00\x80?\x00\x00\x80?\x00\x00\x80?\x00\x00\x80?\x00\x00\x80?\x00\x00\x80?\x00\x00\x80?\x00\x00\x80?\x00\x00\x80?\x00\x00\x80?\x00\x00\x80?\x00\x00\x80?\x00\x00\x80?\x00\x00\x80?\x00\x00\x80?\x00\x00\x80?\x00\x00\x80?\x00\x00\x80?\x00\x00\x80?\x00\x00\x80?\x00\x00\x80?\x00\x00\x80?\x00\x00\x80?\x00\x00\x80?\x00\x00\x80?\x00\x00\x80?\x00\x00\x80?\x00\x00\x80?\x00\x00\x80?\x00\x00\x80?\x00\x00\x80?\x00\x00\x80?\x00\x00\x80?\x00\x00\x80?\x00\x00\x80?\x00\x00\x80?\x00\x00\x80?\x00\x00\x80?\x00\x00\x80?\x00\x00\x80?\x00\x00\x80?\x00\x00\x80?\x00\x00\x80?\x00\x00\x80?\x00\x00\x80?\x00\x00\x80?\x00\x00\x80?\x00\x00\x80?\x00\x00\x80?\x00\x00\x80?\x00\x00\x80?\x00\x00\x80?\x00\x00\x80?\x00\x00\x80?\x00\x00\x80?\x00\x00\x80?\x00\x00\x80?\x00\x00\x80?\x00\x00\x80?\x00\x00\x80?\x00\x00\x80?\x00\x00\x80?\x00\x00\x80?\x00\x00\x80?\x00\x00\x00\x00\x00\x00\x80?\x00\x00\x80?\x00\x00\x80?\x00\x00\x80?\x00\x00\x80?\x00\x00\x80?\x00\x00\x80?\x00\x00\x80?\x00\x00\x80?\x00\x00\x80?\x00\x00\x80?\x00\x00\x80?\x00\x00\x80?\x00\x00\x80?\x00\x00\x80?\x00\x00\x80?\x00\x00\x80?\x00\x00\x80?\x00\x00\x80?\x00\x00\x80?\x00\x00\x80?\x00\x00\x80?\x00\x00\x80?\x00\x00\x80?\x00\x00\x80?\x00\x00\x80?\x00\x00\x80?\x00\x00\x80?\x00\x00\x80?\x00\x00\x80?\x00\x00\x80?\x00\x00\x80?\x00\x00\x80?\x00\x00\x80?\x00\x00\x80?\x00\x00\x80?\x00\x00\x80?\x00\x00\x80?\x00\x00\x80?\x00\x00\x80?\x00\x00\x80?\x00\x00\x80?\x00\x00\x80?\x00\x00\x80?\x00\x00\x80?\x00\x00\x80?\x00\x00\x80?\x00\x00\x80?\x00\x00\x80?\x00\x00\x80?\x00\x00\x80?\x00\x00\x80?\x00\x00\x80?\x00\x00\x80?\x00\x00\x80?\x00\x00\x80?\x00\x00\x80?\x00\x00\x80?\x00\x00\x80?\x00\x00\x80?\x00\x00\x80?\x00\x00\x80?\x00\x00\x80?\x00\x00\x80?\x00\x00\x80?\x00\x00\x80?\x00\x00\x80?\x00\x00\x80?\x00\x00\x80?\x00\x00\x80?\x00\x00\x80?\x00\x00\x80?\x00\x00\x80?\x00\x00\x80?\x00\x00\x80?\x00\x00\x80?\x00\x00\x80?\x00\x00\x80?\x00\x00\x80?\x00\x00\x80?\x00\x00\x80?\x00\x00\x80?\x00\x00\x80?\x00\x00\x80?\x00\x00\x80?\x00\x00\x80?\x00\x00\x80?\x00\x00\x80?\x00\x00\x80?\x00\x00\x80?\x00\x00\x80?\x00\x00\x80?\x00\x00\x80?\x00\x00\x80?\x00\x00\x80?\x00\x00\x80?\x00\x00\x80?\x00\x00\x80?\x00\x00\x80?\x00\x00\x80?\x00\x00\x80?\x00\x00\x80?\x00\x00\x80?\x00\x00\x80?\x00\x00\x80?\x00\x00\x80?\x00\x00\x80?\x00\x00\x80?\x00\x00\x80?\x00\x00\x00\x00\x00\x00\x80?\x00\x00\x80?\x00\x00\x80?\x00\x00\x80?\x00\x00\x80?\x00\x00\x80?\x00\x00\x80?\x00\x00\x80?\x00\x00\x80?\x00\x00\x80?\x00\x00\x80?\x00\x00\x80?\x00\x00\x80?\x00\x00\x80?\x00\x00\x80?\x00\x00\x80?\x00\x00\x80?\x00\x00\x80?\x00\x00\x80?\x00\x00\x80?\x00\x00\x80?\x00\x00\x80?\x00\x00\x80?\x00\x00\x80?\x00\x00\x80?\x00\x00\x80?\x00\x00\x80?\x00\x00\x80?\x00\x00\x80?\x00\x00\x80?\x00\x00\x80?\x00\x00\x80?\x00\x00\x80?\x00\x00\x80?\x00\x00\x80?\x00\x00\x80?\x00\x00\x80?\x00\x00\x80?\x00\x00\x80?\x00\x00\x80?\x00\x00\x80?\x00\x00\x80?\x00\x00\x80?\x00\x00\x80?\x00\x00\x80?\x00\x00\x80?\x00\x00\x80?\x00\x00\x80?\x00\x00\x80?\x00\x00\x80?\x00\x00\x80?\x00\x00\x80?\x00\x00\x80?\x00\x00\x80?\x00\x00\x00\x00\x00\x00\x80?\x00\x00\x80?\x00\x00\x80?\x00\x00\x80?\x00\x00\x80?\x00\x00\x80?\x00\x00\x80?\x00\x00\x80?\x00\x00\x80?\x00\x00\x80?\x00\x00\x80?\x00\x00\x80?\x00\x00\x80?\x00\x00\x80?\x00\x00\x80?\x00\x00\x80?\x00\x00\x80?\x00\x00\x80?\x00\x00\x80?\x00\x00\x80?\x00\x00\x80?\x00\x00\x80?\x00\x00\x80?\x00\x00\x80?\x00\x00\x80?\x00\x00\x80?\x00\x00\x80?\x00\x00\x80?\x00\x00\x80?\x00\x00\x80?\x00\x00\x80?\x00\x00\x80?\x00\x00\x80?\x00\x00\x80?\x00\x00\x80?\x00\x00\x80?\x00\x00\x80?\x00\x00\x80?\x00\x00\x80?\x00\x00\x80?\x00\x00\x80?\x00\x00\x80?\x00\x00\x80?\x00\x00\x80?\x00\x00\x80?\x00\x00\x80?\x00\x00\x80?\x00\x00\x80?\x00\x00\x80?\x00\x00\x80?\x00\x00\x80?\x00\x00\x80?\x00\x00\x80?\x00\x00\x80?\x00\x00\x80?\x00\x00\x80?\x00\x00\x80?\x00\x00\x80?\x00\x00\x80?\x00\x00\x80?\x00\x00\x80?\x00\x00\x80?\x00\x00\x80?\x00\x00\x80?\x00\x00\x80?\x00\x00\x80?\x00\x00\x80?\x00\x00\x80?\x00\x00\x80?\x00\x00\x80?\x00\x00\x80?\x00\x00\x80?\x00\x00\x80?\x00\x00\x80?\x00\x00\x80?\x00\x00\x80?\x00\x00\x80?\x00\x00\x80?\x00\x00\x80?\x00\x00\x80?\x00\x00\x80?\x00\x00\x80?\x00\x00\x80?\x00\x00\x80?\x00\x00\x80?\x00\x00\x80?\x00\x00\x80?\x00\x00\x80?\x00\x00\x80?\x00\x00\x80?\x00\x00\x80?\x00\x00\x80?\x00\x00\x80?\x00\x00\x80?\x00\x00\x80?\x00\x00\x80?\x00\x00\x80?\x00\x00\x80?\x00\x00\x80?\x00\x00\x80?\x00\x00\x80?\x00\x00\x80?\x00\x00\x80?\x00\x00\x80?\x00\x00\x80?\x00\x00\x80?\x00\x00\x80?\x00\x00\x80?\x00\x00\x80?\x00\x00\x80?'
S'\x00\x00\x00\x00\x00\x00\x00\x00\x00\x00\x00\x00\x00\x00\x00\x00\x00\x00\x00\x00\x00\x00\x00\x00\x00\x00\x00\x00\x00\x00\x00\x00\x00\x00\x00\x00\x00\x00\x00\x00\x00\x00\x00\x00\x00\x00\x00\x00\x00\x00\x00\x00\x00\x00\x00\x00\x00\x00\x00\x00\x00\x00\x00\x00\x00\x00\x00\x00\x00\x00\x00\x00\x00\x00\x00\x00\x00\x00\x00\x00\x00\x00\x00\x00\x00\x00\x00\x00\x00\x00\x00\x00\x00\x00\x00\x00\x00\x00\x00\x00\x00\x00\x00\x00\x00\x00\x00\x00\x00\x00\x00\x00\x00\x00\x00\x00\x00\x00\x00\x00\x00\x00\x00\x00\x00\x00\x00\x00\x00\x00\x00\x00\x00\x00\x00\x00\x00\x00\x00\x00\x00\x00\x00\x00\x00\x00\x00\x00\x00\x00\x00\x00\x00\x00\x00\x00\x00\x00\x00\x00\x00\x00\x00\x00\x00\x00\x00\x00\x00\x00\x00\x00\x00\x00\x00\x00\x00\x00\x00\x00\x00\x00\x00\x00\x00\x00\x00\x00\x00\x00\x00\x00\x00\x00\x00\x00\x00\x00\x00\x00\x00\x00\x00\x00\x00\x00\x00\x00\x00\x00\x00\x00\x00\x00\x00\x00\x00\x00\x00\x00\x00\x00\x00\x00\x00\x00\x00\x00\x00\x00\x00\x00\x00\x00\x00\x00\x00\x00\x00\x00\x00\x00\x00\x00\x00\x00\x00\x00\x00\x00\x00\x00\x00\x00\x00\x00\x00\x00\x00\x00\x00\x00\x00\x00\x00\x00\x00\x00\x00\x00\x00\x00\x00\x00\x00\x00\x00\x00\x00\x00\x00\x00\x00\x00\x00\x00\x00\x00\x00\x00\x00\x00\x00\x00\x00\x00\x00\x00\x00\x00\x00\x00\x00\x00\x00\x00\x00\x00\x00\x00\x00\x00\x00\x00\x00\x00\x00\x00\x00\x00\x00\x00\x00\x00\x00\x00\x00\x00\x00\x00\x00\x00\x00\x00\x00\x00\x00\x00\x00\x00\x00\x00\x00\x00\x00\x00\x00\x00\x00\x00\x00\x00\x00\x00\x00\x00\x00\x00\x00\x00\x00\x00\x00\x00\x00\x00\x00\x00\x00\x00\x00\x00\x00\x00\x00\x00\x00\x00\x00\x00\x00\x00\x00\x00\x00\x00\x00\x00\x00\x00\x00\x00\x00\x00\x00\x00\x00\x00\x00\x00\x00\x00\x00\x00\x00\x00\x00\x00\x00\x00\x00\x00\x00\x00\x00\x00\x00\x00\x00\x00\x00\x00\x00\x00\x00\x00\x00\x00\x00\x00\x00\x00\x00\x00\x00\x00\x00\x00\x00\x00\x00\x00\x00\x00\x00\x00\x00\x00\x00\x00\x00\x00\x00\x00\x00\x00\x00\x00\x00\x00\x00\x00\x00\x00\x00\x00\x00\x00\x00\x00\x00\x00\x00\x00\x00\x00\x00\x00\x00\x00\x00\x00\x00\x00\x00\x00\x00\x00\x00\x00\x00\x00\x00\x00\x00\x00\x00\x00\x00\x00\x00\x00\x00\x00\x00\x00\x00\x00\x00\x00\x00\x00\x00\x00\x00\x00\x00\x00\x00\x00\x00\x00\x00\x00\x00\x00\x00\x00\x00\x00\x00\x00\x00\x00\x00\x00\x00\x00\x00\x00\x00\x00\x00\x00\x00\x00\x00\x00\x00\x00\x00\x00\x00\x00\x00\x00\x00\x00\x00\x00\x00\x00\x00\x00\x00\x00\x00\x00\x00\x00\x00\x00\x00\x00\x00\x00\x00\x00\x00\x00\x00\x00\x00\x00\x00\x00\x00\x00\x00\x00\x00\x00\x00\x00\x00\x00\x00\x00\x00\x00\x00\x00\x00\x00\x00'
NtbsS'order'
p55
g48
(g49
g50
g51
S'b'
tRp56
(I1
(I11
I55
tg54
I00
S'\x00\x00\xc0@\x00\x00\xe0@\x00\x00\xd0A\x00\x00HB\x00\x00LB\x00\x00dB\x00\x00hB\x00\x00\x96B\x00\x00\x9aB\x00\x00\xd4B\x00\x00\xd8B\x00\x00\xfaB\x00\x00\x07C\x00\x00\x0eC\x00\x00,C\x00\x007C\x00\x009C\x00\x00CC\x00\x00SC\x00\x00YC\x00\x00_C\x00\x00cC\x00\x00nC\x00\x00yC\x00\x00\x81C\x00\x00\x82C\x00\x00\x85C\x00\x80\x89C\x00\x80\x94C\x00\x00\x99C\x00\x80\xa2C\x00\x00\xa9C\x00\x00\xaaC\x00\x80\xaaC\x00\x80\xabC\x00\x00\xb4C\x00\x80\xbeC\x00\x80\xc1C\x00\x00\xc3C\x00\x00\xc5C\x00\x00\xc6C\x00\x80\xc9C\x00\x00\xd3C\x00\x80\xdcC\x00\x80\xdeC\x00\x00\xe8C\x00\x80\xe9C\x00\x00\xecC\x00\x00\xefC\x00\x80\xf4C\x00\x80\xf8C\x00\x00\xfaC\x00\x00\xffC\x00@\rD\x00\x00\x12D\x00\x00@A\x00\x00\xb0A\x00\x00\xe8A\x00\x00\xf8A\x00\x00,B\x00\x00\x86B\x00\x00\x94B\x00\x00\x9cB\x00\x00\xa0B\x00\x00\xa6B\x00\x00\xfcB\x00\x00\x01C\x00\x00\x08C\x00\x00\x14C\x00\x00*C\x00\x00+C\x00\x00=C\x00\x00?C\x00\x00aC\x00\x00lC\x00\x00mC\x00\x00oC\x00\x00sC\x00\x80\x80C\x00\x80\x82C\x00\x80\x86C\x00\x80\x8aC\x00\x80\x8cC\x00\x00\x8dC\x00\x80\x91C\x00\x00\x96C\x00\x00\x9aC\x00\x00\xa5C\x00\x00\xabC\x00\x80\xb3C\x00\x00\xbdC\x00\x00\xc2C\x00\x00\xc9C\x00\x00\xd0C\x00\x80\xd6C\x00\x00\xd9C\x00\x80\xd9C\x00\x00\xe0C\x00\x80\xecC\x00\x00\xeeC\x00\x00\xf0C\x00\x80\xf3C\x00\x80\xf7C\x00\xc0\x01D\x00\x80\x02D\x00\x80\x04D\x00\x00\x10D\x00\xc0\x11D\x00\xc0\x13D\x00\xc0\x15D\x00\x00\x80@\x00\x00\x88A\x00\x00\x98A\x00\x00\xf0A\x00\x00XB\x00\x00\x8cB\x00\x00\xaaB\x00\x00\xbcB\x00\x00\xc0B\x00\x00\x12C\x00\x00\x1aC\x00\x00#C\x00\x00KC\x00\x00eC\x00\x00jC\x00\x00rC\x00\x00{C\x00\x00\x7fC\x00\x00\x83C\x00\x00\x88C\x00\x80\x8fC\x00\x80\x92C\x00\x80\x98C\x00\x80\xa0C\x00\x80\xa5C\x00\x80\xafC\x00\x00\xb8C\x00\x80\xb8C\x00\x80\xbaC\x00\x00\xbbC\x00\x00\xbeC\x00\x80\xbfC\x00\x80\xc2C\x00\x00\xc4C\x00\x00\xcbC\x00\x80\xd3C\x00\x00\xdeC\x00\x80\xe3C\x00\x80\xe5C\x00\x00\xeaC\x00\x80\xebC\x00\x80\xf0C\x00\x00\xf2C\x00\x80\xfaC\x00\x00\xfcC\x00\x80\xfeC\x00\xc0\x02D\x00\x80\x06D\x00@\tD\x00\x80\nD\x00@\x0bD\x00@\x0cD\x00\xc0\x0cD\x00\x80\x0eD\x00\x00\x15D\x00\x00@@\x00\x00\x10A\x00\x00\xb8A\x00\x00\xc8A\x00\x00\x00B\x00\x00\x04B\x00\x00\x18B\x00\x00\x1cB\x00\x00$B\x00\x00(B\x00\x00`B\x00\x00\x84B\x00\x00\x8aB\x00\x00\xc2B\x00\x00\xcaB\x00\x00\xf8B\x00\x00\x02C\x00\x00\x0fC\x00\x00\x16C\x00\x00$C\x00\x002C\x00\x006C\x00\x00FC\x00\x00QC\x00\x00qC\x00\x00uC\x00\x00\x8cC\x00\x80\x93C\x00\x80\x97C\x00\x80\x9aC\x00\x00\x9eC\x00\x00\xa2C\x00\x00\xb0C\x00\x00\xb2C\x00\x80\xc7C\x00\x80\xcbC\x00\x00\xceC\x00\x80\xd7C\x00\x80\xdbC\x00\x80\xe0C\x00\x00\xe1C\x00\x80\xe2C\x00\x00\xe5C\x00\x00\xe7C\x00\x80\xeaC\x00\x00\xf8C\x00\x80\x00D\x00\x00\x04D\x00\xc0\x04D\x00\xc0\x05D\x00\x80\x0fD\x00\xc0\x10D\x00@\x15D\x00\x00\x00\x00\x00\x00\x00\x00\x00\x00\xa0@\x00\x00pA\x00\x00\x0cB\x00\x00DB\x00\x00xB\x00\x00|B\x00\x00\xb2B\x00\x00\xbeB\x00\x00\xc6B\x00\x00\xd6B\x00\x00\xdaB\x00\x00\xf0B\x00\x00\xfeB\x00\x00\x0cC\x00\x00\rC\x00\x00\x13C\x00\x00%C\x00\x001C\x00\x003C\x00\x004C\x00\x008C\x00\x00<C\x00\x00>C\x00\x00OC\x00\x00TC\x00\x00WC\x00\x00kC\x00\x00tC\x00\x00wC\x00\x80\x83C\x00\x00\x86C\x00\x80\x87C\x00\x00\x93C\x00\x80\xacC\x00\x00\xb7C\x00\x00\xc1C\x00\x00\xd5C\x00\x00\xdfC\x00\x00\xedC\x00\x80\xf9C\x00\x80\xffC\x00@\x04D\x00\x80\x05D\x00\x80\x07D\x00\x80\tD\x00@\nD\x00\x00\x0bD\x00\xc0\x0bD\x00\x00\rD\x00\xc0\rD\x00@\x0fD\x00\x80\x13D\x00\x00\x14D\x00\x80\x14D\x00\xc0\x14D\x00\x000A\x00\x00\xc0A\x00\x00\xd8A\x00\x00\xe0A\x00\x00PB\x00\x00\x8eB\x00\x00\x90B\x00\x00\xbaB\x00\x00\xdcB\x00\x00\xdeB\x00\x00\xe6B\x00\x00\xecB\x00\x00\xeeB\x00\x00\x11C\x00\x00\x15C\x00\x00\x1eC\x00\x00\'C\x00\x00-C\x00\x005C\x00\x00EC\x00\x00NC\x00\x00]C\x00\x00`C\x00\x80\x88C\x00\x80\x8eC\x00\x00\xadC\x00\x80\xb2C\x00\x80\xb4C\x00\x00\xb9C\x00\x80\xb9C\x00\x80\xbcC\x00\x80\xbdC\x00\x80\xc6C\x00\x00\xc7C\x00\x80\xceC\x00\x80\xcfC\x00\x00\xd2C\x00\x80\xe4C\x00\x00\xe9C\x00\x00\xf1C\x00\x00\xf3C\x00\x80\xf5C\x00\x80\xfdC\x00\x00\x03D\x00@\x03D\x00\x00\x05D\x00@\x06D\x00\xc0\x06D\x00\x00\x07D\x00@\x08D\x00\x00\nD\x00\x80\x0bD\x00@\x10D\x00\xc0\x12D\x00\x00\x00\x00\x00\x00\x00@\x00\x00`A\x00\x00\xa0A\x00\x00\x10B\x00\x00TB\x00\x00\\B\x00\x00\x9eB\x00\x00\xceB\x00\x00\xd0B\x00\x00\xe0B\x00\x00\xe8B\x00\x00\xeaB\x00\x00\xf2B\x00\x00\tC\x00\x00\nC\x00\x00\x10C\x00\x00\x1cC\x00\x00:C\x00\x00BC\x00\x00IC\x00\x00LC\x00\x00MC\x00\x00RC\x00\x00\\C\x00\x00^C\x00\x00|C\x00\x00}C\x00\x00\x8fC\x00\x00\x92C\x00\x00\x94C\x00\x00\x98C\x00\x80\x9fC\x00\x80\xa4C\x00\x00\xa6C\x00\x80\xa7C\x00\x80\xadC\x00\x00\xbaC\x00\x00\xbfC\x00\x00\xc0C\x00\x80\xc5C\x00\x80\xc8C\x00\x00\xcaC\x00\x00\xd4C\x00\x00\xdcC\x00\x00\xe4C\x00@\x01D\x00\x80\x01D\x00\x00\x02D\x00\xc0\x03D\x00@\x07D\x00\x00\tD\x00\x00\x0fD\x00\x00\x11D\x00@\x12D\x00\x80\x15D\x00\x00\x80?\x00\x00 A\x00\x00\x90A\x00\x00\x14B\x00\x008B\x00\x00pB\x00\x00\x88B\x00\x00\xa2B\x00\x00\xa8B\x00\x00\xaeB\x00\x00\xb6B\x00\x00\xb8B\x00\x00\x04C\x00\x00\x17C\x00\x00\x18C\x00\x00\x1dC\x00\x00!C\x00\x00DC\x00\x00GC\x00\x00JC\x00\x00xC\x00\x00~C\x00\x00\x80C\x00\x00\x87C\x00\x00\x95C\x00\x80\x9cC\x00\x00\x9fC\x00\x00\xa0C\x00\x00\xb1C\x00\x80\xb5C\x00\x00\xccC\x00\x80\xd0C\x00\x80\xd4C\x00\x80\xd5C\x00\x00\xdaC\x00\x80\xdaC\x00\x80\xddC\x00\x80\xdfC\x00\x00\xe2C\x00\x80\xedC\x00\x80\xeeC\x00\x00\xf6C\x00\x00\xfbC\x00\x00\x00D\x00\x00\x01D\x00\x00\x06D\x00\xc0\x08D\x00\xc0\nD\x00\x80\rD\x00\xc0\x0eD\x00@\x11D\x00\x80\x11D\x00\x80\x12D\x00@\x13D\x00\x00\x00\x00\x00\x00PA\x00\x00\xa8A\x00\x00lB\x00\x00\x80B\x00\x00\xc4B\x00\x00\xccB\x00\x00\xd2B\x00\x00\xf4B\x00\x00\x00C\x00\x00\x19C\x00\x000C\x00\x00UC\x00\x00XC\x00\x00fC\x00\x00iC\x00\x00vC\x00\x80\x84C\x00\x80\x85C\x00\x00\x89C\x00\x00\x8bC\x00\x80\x8dC\x00\x00\x90C\x00\x80\x90C\x00\x00\x91C\x00\x80\x96C\x00\x00\x97C\x00\x80\x99C\x00\x00\x9bC\x00\x00\x9dC\x00\x00\xa1C\x00\x00\xa3C\x00\x80\xa3C\x00\x00\xa8C\x00\x00\xaeC\x00\x00\xbcC\x00\x80\xc0C\x00\x80\xc4C\x00\x80\xccC\x00\x00\xcdC\x00\x00\xd1C\x00\x80\xd1C\x00\x80\xd8C\x00\x00\xdbC\x00\x80\xe7C\x00\x80\xf1C\x00\x80\xf2C\x00\x00\xf7C\x00\x00\xfeC\x00@\x00D\x00@\x02D\x00@\x05D\x00\xc0\tD\x00\x00\x0cD\x00\x80\x0cD\x00\x00\x00\x00\x00\x00 B\x00\x000B\x00\x004B\x00\x00<B\x00\x00\xacB\x00\x00\xb0B\x00\x00\xb4B\x00\x00\xf6B\x00\x00\x03C\x00\x00\x05C\x00\x00\x0bC\x00\x00\x1bC\x00\x00 C\x00\x00(C\x00\x00/C\x00\x00;C\x00\x00@C\x00\x00AC\x00\x00VC\x00\x00ZC\x00\x00bC\x00\x00dC\x00\x00gC\x00\x00hC\x00\x80\x8bC\x00\x00\x8eC\x00\x80\x9dC\x00\x00\xa4C\x00\x00\xa7C\x00\x80\xa8C\x00\x80\xa9C\x00\x00\xb3C\x00\x00\xb6C\x00\x80\xb6C\x00\x80\xcaC\x00\x80\xcdC\x00\x00\xcfC\x00\x80\xd2C\x00\x00\xd6C\x00\x00\xd7C\x00\x00\xddC\x00\x80\xe1C\x00\x00\xe3C\x00\x00\xe6C\x00\x80\xe8C\x00\x00\xebC\x00\x00\xf5C\x00\x80\xf6C\x00\x00\xf9C\x00\x80\xfbC\x00\x00\xfdC\x00\xc0\x00D\x00\xc0\x07D\x00\x00\x08D\x00\x80\x10D\x00\x00\x00\x00\x00\x00\x00A\x00\x00\x80A\x00\x00\x08B\x00\x00@B\x00\x00tB\x00\x00\x82B\x00\x00\x92B\x00\x00\x98B\x00\x00\xa4B\x00\x00\xc8B\x00\x00\xe2B\x00\x00\xe4B\x00\x00\x06C\x00\x00\x1fC\x00\x00"C\x00\x00&C\x00\x00)C\x00\x00.C\x00\x00HC\x00\x00PC\x00\x00[C\x00\x00pC\x00\x00zC\x00\x80\x81C\x00\x00\x84C\x00\x00\x8aC\x00\x80\x95C\x00\x80\x9bC\x00\x00\x9cC\x00\x80\x9eC\x00\x80\xa1C\x00\x80\xa6C\x00\x00\xacC\x00\x80\xaeC\x00\x00\xafC\x00\x80\xb0C\x00\x80\xb1C\x00\x00\xb5C\x00\x80\xb7C\x00\x80\xbbC\x00\x80\xc3C\x00\x00\xc8C\x00\x00\xd8C\x00\x80\xe6C\x00\x80\xefC\x00\x00\xf4C\x00\x80\xfcC\x00\x80\x03D\x00\x80\x08D\x00\x00\x0eD\x00@\x0eD\x00\xc0\x0fD\x00\x00\x13D\x00@\x14D'
S'\x00\x00\x00\x00\x00\x00\x00\x00\x00\x00\x00\x00\x00\x00\x00\x00\x00\x00\x00\x00\x00\x00\x00\x00\x00\x00\x00\x00\x00\x00\x00\x00\x00\x00\x00\x00\x00\x00\x00\x00\x00\x00\x00\x00\x00\x00\x00\x00\x00\x00\x00\x00\x00\x00\x00\x00\x00\x00\x00\x00\x00\x00\x00\x00\x00\x00\x00\x00\x00\x00\x00\x00\x00\x00\x00\x00\x00\x00\x00\x00\x00\x00\x00\x00\x00\x00\x00\x00\x00\x00\x00\x00\x00\x00\x00\x00\x00\x00\x00\x00\x00\x00\x00\x00\x00\x00\x00\x00\x00\x00\x00\x00\x00\x00\x00\x00\x00\x00\x00\x00\x00\x00\x00\x00\x00\x00\x00\x00\x00\x00\x00\x00\x00\x00\x00\x00\x00\x00\x00\x00\x00\x00\x00\x00\x00\x00\x00\x00\x00\x00\x00\x00\x00\x00\x00\x00\x00\x00\x00\x00\x00\x00\x00\x00\x00\x00\x00\x00\x00\x00\x00\x00\x00\x00\x00\x00\x00\x00\x00\x00\x00\x00\x00\x00\x00\x00\x00\x00\x00\x00\x00\x00\x00\x00\x00\x00\x00\x00\x00\x00\x00\x00\x00\x00\x00\x00\x00\x00\x00\x00\x00\x00\x00\x00\x00\x00\x00\x00\x01\x01\x00\x00\x00\x00\x00\x00\x00\x00\x00\x00\x00\x00\x00\x00\x00\x00\x00\x00\x00\x00\x00\x00\x00\x00\x00\x00\x00\x00\x00\x00\x00\x00\x00\x00\x00\x00\x00\x00\x00\x00\x00\x00\x00\x00\x00\x00\x00\x00\x00\x00\x00\x00\x00\x00\x00\x00\x00\x00\x00\x00\x00\x00\x00\x00\x00\x00\x00\x00\x00\x00\x00\x00\x00\x00\x00\x00\x00\x00\x00\x00\x00\x00\x00\x00\x00\x00\x00\x00\x00\x00\x00\x00\x00\x00\x00\x00\x00\x00\x00\x00\x00\x00\x00\x00\x00\x00\x00\x00\x00\x01\x00\x00\x00\x00\x00\x00\x00\x00\x00\x00\x00\x00\x00\x00\x00\x00\x00\x00\x00\x00\x00\x00\x00\x00\x00\x00\x00\x00\x00\x00\x00\x00\x00\x00\x00\x00\x00\x00\x00\x00\x00\x00\x00\x00\x00\x00\x00\x00\x00\x00\x00\x00\x00\x00\x00\x00\x00\x00\x00\x00\x00\x00\x00\x00\x00\x00\x00\x00\x00\x00\x00\x00\x00\x00\x00\x00\x00\x00\x00\x00\x00\x00\x00\x00\x00\x00\x00\x00\x00\x00\x00\x00\x00\x00\x00\x00\x00\x00\x00\x00\x00\x00\x00\x00\x00\x00\x00\x00\x00\x01\x00\x00\x00\x00\x00\x00\x00\x00\x00\x00\x00\x00\x00\x00\x00\x00\x00\x00\x00\x00\x00\x00\x00\x00\x00\x00\x00\x00\x00\x00\x00\x00\x00\x00\x00\x00\x00\x00\x00\x00\x00\x00\x00\x00\x00\x00\x00\x00\x00\x00\x00\x00\x00\x00\x01\x00\x00\x00\x00\x00\x00\x00\x00\x00\x00\x00\x00\x00\x00\x00\x00\x00\x00\x00\x00\x00\x00\x00\x00\x00\x00\x00\x00\x00\x00\x00\x00\x00\x00\x00\x00\x00\x00\x00\x00\x00\x00\x00\x00\x00\x00\x00\x00\x00\x00\x00\x00\x00\x00\x00\x00\x00\x00\x00\x00\x00\x00\x00\x00\x00\x00\x00\x00\x00\x00\x00\x00\x00\x00\x00\x00\x00\x00\x00\x00\x00\x00\x00\x00\x00\x00\x00\x00\x00\x00\x00\x00\x00\x00\x00\x00\x00\x00\x00\x00\x00\x00\x00\x00\x00\x00\x00\x00\x00\x00'
NtbstRp57
(dp58
S'isNumeric'
p59
(dp60
g47
I01
sg55
I01
ssS'trials'
p61
g36
sS'dataTypes'
p62
(lp63
g47
ag55
asS'dataShape'
p64
(lp65
I11
aI55
asbsS'method'
p66
S'fullRandom'
p67
sS'sequenceIndices'
p68
cnumpy.core.multiarray
_reconstruct
p69
(g50
(I0
tS'b'
tRp70
(I1
(I11
I55
tg53
(S'O4'
I0
I1
tRp71
(I3
S'|'
NNNI-1
I-1
I63
tbI00
(lp72
I10
aI5
aI1
aI3
aI9
aI6
aI3
aI0
aI9
aI4
aI5
aI6
aI7
aI3
aI2
aI4
aI8
aI9
aI3
aI3
aI6
aI9
aI2
aI6
aI10
aI0
aI6
aI0
aI1
aI6
aI1
aI0
aI3
aI7
aI2
aI8
aI0
aI3
aI8
aI1
aI6
aI9
aI3
aI1
aI2
aI1
aI9
aI6
aI3
aI5
aI4
aI2
aI6
aI1
aI4
aI7
aI1
aI3
aI10
aI9
aI3
aI1
aI1
aI4
aI10
aI5
aI8
aI9
aI6
aI9
aI10
aI4
aI4
aI7
aI6
aI5
aI9
aI1
aI7
aI8
aI10
aI2
aI7
aI3
aI7
aI2
aI1
aI10
aI9
aI10
aI4
aI5
aI7
aI8
aI9
aI0
aI7
aI8
aI4
aI8
aI3
aI5
aI6
aI4
aI5
aI8
aI8
aI4
aI0
aI4
aI6
aI8
aI5
aI4
aI7
aI0
aI7
aI6
aI9
aI3
aI6
aI9
aI10
aI5
aI6
aI5
aI3
aI1
aI10
aI0
aI6
aI8
aI4
aI2
aI0
aI1
aI8
aI10
aI8
aI2
aI6
aI0
aI7
aI9
aI8
aI0
aI5
aI8
aI5
aI3
aI9
aI3
aI0
aI7
aI5
aI0
aI8
aI1
aI1
aI6
aI5
aI2
aI3
aI6
aI2
aI3
aI6
aI3
aI6
aI9
aI0
aI3
aI1
aI7
aI8
aI10
aI3
aI0
aI2
aI7
aI9
aI4
aI4
aI6
aI4
aI0
aI2
aI3
aI7
aI8
aI8
aI8
aI1
aI10
aI8
aI10
aI10
aI10
aI4
aI5
aI1
aI3
aI8
aI9
aI10
aI7
aI9
aI9
aI1
aI1
aI9
aI2
aI6
aI3
aI4
aI4
aI4
aI10
aI7
aI3
aI2
aI4
aI0
aI7
aI10
aI8
aI2
aI7
aI7
aI6
aI10
aI0
aI1
aI4
aI5
aI10
aI4
aI1
aI7
aI8
aI5
aI4
aI8
aI1
aI4
aI9
aI8
aI8
aI10
aI10
aI9
aI4
aI3
aI10
aI1
aI2
aI10
aI9
aI0
aI8
aI2
aI2
aI5
aI7
aI10
aI4
aI0
aI8
aI5
aI9
aI2
aI0
aI1
aI5
aI6
aI4
aI10
aI5
aI3
aI4
aI7
aI5
aI10
aI5
aI6
aI5
aI1
aI6
aI1
aI10
aI1
aI5
aI9
aI2
aI9
aI1
aI1
aI4
aI0
aI1
aI3
aI1
aI8
aI7
aI3
aI6
aI5
aI5
aI2
aI5
aI0
aI6
aI3
aI2
aI1
aI0
aI6
aI0
aI0
aI0
aI0
aI4
aI1
aI8
aI9
aI7
aI7
aI5
aI10
aI1
aI0
aI2
aI5
aI3
aI0
aI10
aI5
aI1
aI2
aI8
aI6
aI4
aI6
aI5
aI9
aI1
aI3
aI9
aI6
aI4
aI9
aI1
aI7
aI10
aI7
aI1
aI6
aI3
aI8
aI0
aI8
aI6
aI9
aI2
aI2
aI10
aI1
aI5
aI6
aI1
aI4
aI5
aI2
aI10
aI9
aI2
aI7
aI2
aI4
aI5
aI4
aI4
aI9
aI7
aI5
aI0
aI7
aI1
aI9
aI0
aI4
aI10
aI7
aI4
aI0
aI6
aI8
aI9
aI3
aI7
aI0
aI0
aI6
aI6
aI8
aI0
aI0
aI0
aI0
aI4
aI1
aI2
aI6
aI9
aI8
aI9
aI8
aI1
aI5
aI0
aI2
aI0
aI9
aI7
aI7
aI7
aI3
aI3
aI1
aI5
aI7
aI8
aI5
aI3
aI10
aI2
aI10
aI3
aI4
aI3
aI10
aI2
aI2
aI3
aI5
aI4
aI1
aI2
aI2
aI4
aI5
aI1
aI4
aI7
aI10
aI5
aI4
aI0
aI5
aI0
aI9
aI1
aI10
aI1
aI2
aI8
aI4
aI2
aI3
aI8
aI0
aI10
aI0
aI5
aI6
aI8
aI6
aI5
aI4
aI7
aI1
aI2
aI9
aI2
aI7
aI9
aI3
aI5
aI7
aI7
aI5
aI10
aI6
aI1
aI7
aI3
aI6
aI1
aI3
aI6
aI8
aI0
aI9
aI3
aI0
aI5
aI3
aI4
aI7
aI2
aI10
aI0
aI7
aI4
aI9
aI2
aI10
aI2
aI2
aI5
aI9
aI3
aI0
aI10
aI9
aI9
aI10
aI5
aI6
aI2
aI0
aI9
aI1
aI7
aI8
aI3
aI9
aI2
aI5
aI9
aI2
aI9
aI10
aI5
aI6
aI4
aI2
aI7
aI4
aI8
aI7
aI8
aI3
aI1
aI2
aI10
aI10
aI7
aI8
aI4
aI4
aI9
aI0
aI8
aI3
aI9
aI6
aI5
aI10
aI10
aI8
aI3
aI6
aI4
aI8
aI5
aI6
aI8
aI7
aI6
aI0
aI2
aI10
aI2
aI6
aI6
aI2
aI7
aI9
aI3
aI3
aI10
aI0
aI8
aI8
aI10
aI7
aI6
aI2
aI2
aI8
aI7
aI7
aI10
aI3
atbsS'finished'
p73
I00
sS'nReps'
p74
I55
sS'nRemaining'
p75
I5
sS'trialList'
p76
(lp77
I0
aI1
aI2
aI3
aI4
aI5
aI6
aI7
aI8
aI9
aI10
asS'seed'
p78
NsS'thisIndex'
p79
I1
sS'thisN'
p80
I599
sS'thisTrialN'
p81
I5
sS'nTotal'
p82
I605
sS'_warnUseOfNext'
p83
I01
sbasS'saveWideText'
p84
I00
sS'thisEntry'
p85
(dp86
sS'version'
p87
S''
sS'_paramNamesSoFar'
p88
(lp89
sS'entries'
p90
(lp91
(dp92
g16
(lp93
S'd'
asS'.thisTrial'
p94
I10
sS'.thisRepN'
p95
I0
sg30
VF
sg31
g32
sS'.thisTrialN'
p96
I0
sS'.thisN'
p97
I0
sS'.thisIndex'
p98
I10
sg15
(lp99
S'k'
asg17
S'N'
sg14
I1
sa(dp100
g16
(lp101
S'k'
asg94
I7
sS'.thisRepN'
p102
I0
sg30
VF
sg31
g32
sS'.thisTrialN'
p103
I1
sS'.thisN'
p104
I1
sS'.thisIndex'
p105
I7
sg15
(lp106
S'k'
asg17
S'Y'
sg14
I1
sa(dp107
g16
(lp108
S'k'
asg18
S'N'
sS'.thisRepN'
p109
I0
sg20
S'Y'
sg31
g32
sS'.thisTrialN'
p110
I2
sS'.thisN'
p111
I2
sS'.thisIndex'
p112
I6
sg15
(lp113
S'k'
asg30
VF
sg17
S'Y'
sg14
I1
sg19
Nsg94
I6
sa(dp114
g16
(lp115
S'd'
asg18
S'N'
sS'.thisRepN'
p116
I0
sg20
S'Y'
sg31
g32
sS'.thisTrialN'
p117
I3
sS'.thisN'
p118
I3
sS'.thisIndex'
p119
I3
sg15
(lp120
S'k'
asg30
VF
sg17
S'N'
sg14
I1
sg19
Nsg94
I3
sa(dp121
g16
(lp122
S'd'
asg18
S'N'
sS'.thisRepN'
p123
I0
sg20
S'N'
sg31
g32
sS'.thisTrialN'
p124
I4
sS'.thisN'
p125
I4
sS'.thisIndex'
p126
I2
sg15
(lp127
S'k'
asg30
VF
sg17
S'N'
sg14
I1
sg19
(lp128
S'space'
p129
asg94
I2
sa(dp130
g18
S'Y'
sS'.thisRepN'
p131
I0
sg20
S'N'
sg31
g32
sS'.thisTrialN'
p132
I5
sS'.thisN'
p133
I5
sS'.thisIndex'
p134
I4
sg15
Nsg30
VF
sg17
S'Timed out'
p135
sg14
I1
sg19
(lp136
S'f'
asg94
I4
sa(dp137
g16
(lp138
S'd'
asg18
S'N'
sS'.thisRepN'
p139
I0
sg20
S'Y'
sg31
g32
sS'.thisTrialN'
p140
I6
sS'.thisN'
p141
I6
sS'.thisIndex'
p142
I0
sg15
(lp143
S'k'
asg30
VF
sg17
S'N'
sg14
I1
sg19
Nsg94
I0
sa(dp144
g16
(lp145
S'd'
asg18
S'N'
sS'.thisRepN'
p146
I0
sg20
S'N'
sg31
g32
sS'.thisTrialN'
p147
I7
sS'.thisN'
p148
I7
sS'.thisIndex'
p149
I0
sg15
(lp150
S'd'
asg30
VF
sg17
S'Y'
sg14
I1
sg19
(lp151
S'space'
p152
asg94
I0
sa(dp153
g16
(lp154
S'k'
asg18
S'Y'
sS'.thisRepN'
p155
I0
sg20
S'Y'
sg31
g32
sS'.thisTrialN'
p156
I8
sS'.thisN'
p157
I8
sS'.thisIndex'
p158
I10
sg15
(lp159
S'k'
asg30
VF
sg17
S'Y'
sg14
I1
sg19
(lp160
S'space'
p161
asg94
I10
sa(dp162
g16
(lp163
S'k'
asg18
S'Y'
sS'.thisRepN'
p164
I0
sg20
S'Y'
sg31
g32
sS'.thisTrialN'
p165
I9
sS'.thisN'
p166
I9
sS'.thisIndex'
p167
I3
sg15
(lp168
S'd'
asg30
VF
sg17
S'N'
sg14
I1
sg19
(lp169
S'space'
p170
asg94
I3
sa(dp171
g16
(lp172
S'd'
asg18
S'Y'
sS'.thisRepN'
p173
I0
sg20
S'Y'
sg31
g32
sS'.thisTrialN'
p174
I10
sS'.thisN'
p175
I10
sS'.thisIndex'
p176
I7
sg15
(lp177
S'k'
asg30
VF
sg17
S'N'
sg14
I1
sg19
(lp178
S'space'
p179
asg94
I7
sa(dp180
g16
(lp181
S'k'
asg18
S'N'
sS'.thisRepN'
p182
I1
sg20
S'Y'
sg31
g32
sS'.thisTrialN'
p183
I0
sS'.thisN'
p184
I11
sS'.thisIndex'
p185
I5
sg15
(lp186
S'd'
asg30
VF
sg17
S'N'
sg14
I1
sg19
Nsg94
I5
sa(dp187
g16
(lp188
S'd'
asg18
S'Y'
sS'.thisRepN'
p189
I1
sg20
S'Y'
sg31
g32
sS'.thisTrialN'
p190
I1
sS'.thisN'
p191
I12
sS'.thisIndex'
p192
I1
sg15
(lp193
S'k'
asg30
VF
sg17
S'N'
sg14
I1
sg19
(lp194
S'space'
p195
asg94
I1
sa(dp196
g16
(lp197
S'd'
asg18
S'N'
sS'.thisRepN'
p198
I1
sg20
S'Y'
sg31
g32
sS'.thisTrialN'
p199
I2
sS'.thisN'
p200
I13
sS'.thisIndex'
p201
I8
sg15
(lp202
S'k'
asg30
VF
sg17
S'N'
sg14
I1
sg19
Nsg94
I8
sa(dp203
g16
(lp204
S'd'
asg18
S'N'
sS'.thisRepN'
p205
I1
sg20
S'N'
sg31
g32
sS'.thisTrialN'
p206
I3
sS'.thisN'
p207
I14
sS'.thisIndex'
p208
I6
sg15
(lp209
S'd'
asg30
VF
sg17
S'Y'
sg14
I1
sg19
(lp210
S'space'
p211
asg94
I6
sa(dp212
g16
(lp213
S'd'
asg18
S'Y'
sS'.thisRepN'
p214
I1
sg20
S'Y'
sg31
g32
sS'.thisTrialN'
p215
I4
sS'.thisN'
p216
I15
sS'.thisIndex'
p217
I4
sg15
(lp218
S'k'
asg30
VF
sg17
S'N'
sg14
I1
sg19
(lp219
S'space'
p220
asg94
I4
sa(dp221
g16
(lp222
S'd'
asg18
S'N'
sS'.thisRepN'
p223
I1
sg20
S'N'
sg31
g32
sS'.thisTrialN'
p224
I5
sS'.thisN'
p225
I16
sS'.thisIndex'
p226
I10
sg15
(lp227
S'd'
asg30
VF
sg17
S'Y'
sg14
I1
sg19
(lp228
S'space'
p229
asg94
I10
sa(dp230
g16
(lp231
S'd'
asg18
S'N'
sS'.thisRepN'
p232
I1
sg20
S'Y'
sg31
g32
sS'.thisTrialN'
p233
I6
sS'.thisN'
p234
I17
sS'.thisIndex'
p235
I2
sg15
(lp236
S'd'
asg30
VF
sg17
S'Y'
sg14
I1
sg19
Nsg94
I2
sa(dp237
g16
(lp238
S'k'
asg18
S'N'
sS'.thisRepN'
p239
I1
sg20
S'Y'
sg31
g32
sS'.thisTrialN'
p240
I7
sS'.thisN'
p241
I18
sS'.thisIndex'
p242
I7
sg15
(lp243
S'k'
asg30
VF
sg17
S'Y'
sg14
I1
sg19
Nsg94
I7
sa(dp244
g16
(lp245
S'd'
asg18
S'Y'
sS'.thisRepN'
p246
I1
sg20
S'Y'
sg31
g32
sS'.thisTrialN'
p247
I8
sS'.thisN'
p248
I19
sS'.thisIndex'
p249
I2
sg15
(lp250
S'd'
asg30
VF
sg17
S'Y'
sg14
I1
sg19
(lp251
S'space'
p252
asg94
I2
sa(dp253
g16
(lp254
S'd'
asg18
S'N'
sS'.thisRepN'
p255
I1
sg20
S'N'
sg31
g32
sS'.thisTrialN'
p256
I9
sS'.thisN'
p257
I20
sS'.thisIndex'
p258
I6
sg15
(lp259
S'k'
asg30
VF
sg17
S'N'
sg14
I1
sg19
(lp260
S'space'
p261
asg94
I6
sa(dp262
g16
(lp263
S'k'
asg18
S'N'
sS'.thisRepN'
p264
I1
sg20
S'N'
sg31
g32
sS'.thisTrialN'
p265
I10
sS'.thisN'
p266
I21
sS'.thisIndex'
p267
I8
sg15
(lp268
S'd'
asg30
VF
sg17
S'N'
sg14
I1
sg19
(lp269
S'space'
p270
asg94
I8
sa(dp271
g16
(lp272
S'k'
asg18
S'N'
sS'.thisRepN'
p273
I2
sg20
S'Y'
sg31
g32
sS'.thisTrialN'
p274
I0
sS'.thisN'
p275
I22
sS'.thisIndex'
p276
I1
sg15
(lp277
S'd'
asg30
VF
sg17
S'N'
sg14
I1
sg19
Nsg94
I1
sa(dp278
g16
(lp279
S'd'
asg18
S'Y'
sS'.thisRepN'
p280
I2
sg20
S'Y'
sg31
g32
sS'.thisTrialN'
p281
I1
sS'.thisN'
p282
I23
sS'.thisIndex'
p283
I3
sg15
(lp284
S'k'
asg30
VF
sg17
S'N'
sg14
I1
sg19
(lp285
S'space'
p286
asg94
I3
sa(dp287
g16
(lp288
S'k'
asg18
S'N'
sS'.thisRepN'
p289
I2
sg20
S'N'
sg31
g32
sS'.thisTrialN'
p290
I2
sS'.thisN'
p291
I24
sS'.thisIndex'
p292
I5
sg15
(lp293
S'd'
asg30
VF
sg17
S'N'
sg14
I1
sg19
(lp294
S'space'
p295
asg94
I5
sa(dp296
g16
(lp297
S'd'
asg18
S'Y'
sS'.thisRepN'
p298
I2
sg20
S'Y'
sg31
g32
sS'.thisTrialN'
p299
I3
sS'.thisN'
p300
I25
sS'.thisIndex'
p301
I3
sg15
(lp302
S'k'
asg30
VF
sg17
S'N'
sg14
I1
sg19
(lp303
S'space'
p304
asg94
I3
sa(dp305
g16
(lp306
S'd'
asg18
S'N'
sS'.thisRepN'
p307
I2
sg20
S'Y'
sg31
g32
sS'.thisTrialN'
p308
I4
sS'.thisN'
p309
I26
sS'.thisIndex'
p310
I0
sg15
(lp311
S'd'
asg30
VF
sg17
S'Y'
sg14
I1
sg19
Nsg94
I0
sa(dp312
g16
(lp313
S'k'
asg18
S'N'
sS'.thisRepN'
p314
I2
sg20
S'N'
sg31
g32
sS'.thisTrialN'
p315
I5
sS'.thisN'
p316
I27
sS'.thisIndex'
p317
I5
sg15
(lp318
S'd'
asg30
VF
sg17
S'N'
sg14
I1
sg19
(lp319
S'space'
p320
asg94
I5
sa(dp321
g16
(lp322
S'd'
asg18
S'Y'
sS'.thisRepN'
p323
I2
sg20
S'Y'
sg31
g32
sS'.thisTrialN'
p324
I6
sS'.thisN'
p325
I28
sS'.thisIndex'
p326
I5
sg15
(lp327
S'k'
asg30
VF
sg17
S'N'
sg14
I1
sg19
(lp328
S'space'
p329
asg94
I5
sa(dp330
g16
(lp331
S'k'
asg18
S'Y'
sS'.thisRepN'
p332
I2
sg20
S'N'
sg31
g32
sS'.thisTrialN'
p333
I7
sS'.thisN'
p334
I29
sS'.thisIndex'
p335
I1
sg15
(lp336
S'd'
asg30
VF
sg17
S'N'
sg14
I1
sg19
Nsg94
I1
sa(dp337
g16
(lp338
S'd'
asg18
S'Y'
sS'.thisRepN'
p339
I2
sg20
S'Y'
sg31
g32
sS'.thisTrialN'
p340
I8
sS'.thisN'
p341
I30
sS'.thisIndex'
p342
I2
sg15
(lp343
S'd'
asg30
VF
sg17
S'Y'
sg14
I1
sg19
(lp344
S'space'
p345
asg94
I2
sa(dp346
g16
(lp347
S'k'
asg18
S'N'
sS'.thisRepN'
p348
I2
sg20
S'N'
sg31
g32
sS'.thisTrialN'
p349
I9
sS'.thisN'
p350
I31
sS'.thisIndex'
p351
I1
sg15
(lp352
S'k'
asg30
VF
sg17
S'Y'
sg14
I1
sg19
(lp353
S'space'
p354
asg94
I1
sa(dp355
g16
(lp356
S'k'
asg18
S'Y'
sS'.thisRepN'
p357
I2
sg20
S'Y'
sg31
g32
sS'.thisTrialN'
p358
I10
sS'.thisN'
p359
I32
sS'.thisIndex'
p360
I3
sg15
(lp361
S'd'
asg30
VF
sg17
S'N'
sg14
I1
sg19
(lp362
S'space'
p363
asg94
I3
sa(dp364
g16
(lp365
S'k'
asg18
S'N'
sS'.thisRepN'
p366
I3
sg20
S'Y'
sg31
g32
sS'.thisTrialN'
p367
I0
sS'.thisN'
p368
I33
sS'.thisIndex'
p369
I3
sg15
(lp370
S'd'
asg30
VF
sg17
S'N'
sg14
I1
sg19
Nsg94
I3
sa(dp371
g16
(lp372
S'd'
asg18
S'Y'
sS'.thisRepN'
p373
I3
sg20
S'Y'
sg31
g32
sS'.thisTrialN'
p374
I1
sS'.thisN'
p375
I34
sS'.thisIndex'
p376
I10
sg15
(lp377
S'k'
asg30
VF
sg17
S'N'
sg14
I1
sg19
(lp378
S'space'
p379
asg94
I10
sa(dp380
g16
(lp381
S'd'
asg18
S'Y'
sS'.thisRepN'
p382
I3
sg20
S'N'
sg31
g32
sS'.thisTrialN'
p383
I2
sS'.thisN'
p384
I35
sS'.thisIndex'
p385
I4
sg15
(lp386
S'd'
asg30
VF
sg17
S'Y'
sg14
I1
sg19
Nsg94
I4
sa(dp387
g16
(lp388
S'd'
asg18
S'Y'
sS'.thisRepN'
p389
I3
sg20
S'Y'
sg31
g32
sS'.thisTrialN'
p390
I3
sS'.thisN'
p391
I36
sS'.thisIndex'
p392
I6
sg15
(lp393
S'd'
asg30
VF
sg17
S'Y'
sg14
I1
sg19
(lp394
S'space'
p395
asg94
I6
sa(dp396
g16
(lp397
S'd'
asg18
S'Y'
sS'.thisRepN'
p398
I3
sg20
S'N'
sg31
g32
sS'.thisTrialN'
p399
I4
sS'.thisN'
p400
I37
sS'.thisIndex'
p401
I7
sg15
(lp402
S'k'
asg30
VF
sg17
S'N'
sg14
I1
sg19
Nsg94
I7
sa(dp403
g16
(lp404
S'k'
asg18
S'N'
sS'.thisRepN'
p405
I3
sg20
S'N'
sg31
g32
sS'.thisTrialN'
p406
I5
sS'.thisN'
p407
I38
sS'.thisIndex'
p408
I3
sg15
(lp409
S'd'
asg30
VF
sg17
S'N'
sg14
I1
sg19
(lp410
S'space'
p411
asg94
I3
sa(dp412
g16
(lp413
S'd'
asg18
S'Y'
sS'.thisRepN'
p414
I3
sg20
S'N'
sg31
g32
sS'.thisTrialN'
p415
I6
sS'.thisN'
p416
I39
sS'.thisIndex'
p417
I3
sg15
(lp418
S'd'
asg30
VF
sg17
S'Y'
sg14
I1
sg19
(lp419
S'k'
asg94
I3
sa(dp420
g16
(lp421
S'k'
asg18
S'Y'
sS'.thisRepN'
p422
I3
sg20
S'N'
sg31
g32
sS'.thisTrialN'
p423
I7
sS'.thisN'
p424
I40
sS'.thisIndex'
p425
I9
sg15
(lp426
S'd'
asg30
VF
sg17
S'N'
sg14
I1
sg19
Nsg94
I9
sa(dp427
g16
(lp428
S'k'
asg18
S'Y'
sS'.thisRepN'
p429
I3
sg20
S'N'
sg31
g32
sS'.thisTrialN'
p430
I8
sS'.thisN'
p431
I41
sS'.thisIndex'
p432
I3
sg15
(lp433
S'k'
asg30
VF
sg17
S'Y'
sg14
I1
sg19
Nsg94
I3
sa(dp434
g16
(lp435
S'k'
asg18
S'N'
sS'.thisRepN'
p436
I3
sg20
S'Y'
sg31
g32
sS'.thisTrialN'
p437
I9
sS'.thisN'
p438
I42
sS'.thisIndex'
p439
I3
sg15
(lp440
S'd'
asg30
VF
sg17
S'N'
sg14
I1
sg19
Nsg94
I3
sa(dp441
g16
(lp442
S'd'
asg18
S'N'
sS'.thisRepN'
p443
I3
sg20
S'Y'
sg31
g32
sS'.thisTrialN'
p444
I10
sS'.thisN'
p445
I43
sS'.thisIndex'
p446
I1
sg15
(lp447
S'k'
asg30
VF
sg17
S'N'
sg14
I1
sg19
Nsg94
I1
sa(dp448
g16
(lp449
S'd'
asg18
S'N'
sS'.thisRepN'
p450
I4
sg20
S'Y'
sg31
g32
sS'.thisTrialN'
p451
I0
sS'.thisN'
p452
I44
sS'.thisIndex'
p453
I9
sg15
(lp454
S'd'
asg30
VF
sg17
S'Y'
sg14
I1
sg19
Nsg94
I9
sa(dp455
g16
(lp456
S'k'
asg18
S'N'
sS'.thisRepN'
p457
I4
sg20
S'Y'
sg31
g32
sS'.thisTrialN'
p458
I1
sS'.thisN'
p459
I45
sS'.thisIndex'
p460
I9
sg15
(lp461
S'k'
asg30
VF
sg17
S'Y'
sg14
I1
sg19
Nsg94
I9
sa(dp462
g16
(lp463
S'd'
asg18
S'Y'
sS'.thisRepN'
p464
I4
sg20
S'Y'
sg31
g32
sS'.thisTrialN'
p465
I2
sS'.thisN'
p466
I46
sS'.thisIndex'
p467
I7
sg15
(lp468
S'd'
asg30
VF
sg17
S'Y'
sg14
I1
sg19
(lp469
S'space'
p470
asg94
I7
sa(dp471
g16
(lp472
S'd'
asg18
S'N'
sS'.thisRepN'
p473
I4
sg20
S'Y'
sg31
g32
sS'.thisTrialN'
p474
I3
sS'.thisN'
p475
I47
sS'.thisIndex'
p476
I9
sg15
(lp477
S'd'
asg30
VF
sg17
S'Y'
sg14
I1
sg19
Nsg94
I9
sa(dp478
g16
(lp479
S'k'
asg18
S'N'
sS'.thisRepN'
p480
I4
sg20
S'Y'
sg31
g32
sS'.thisTrialN'
p481
I4
sS'.thisN'
p482
I48
sS'.thisIndex'
p483
I10
sg15
(lp484
S'k'
asg30
VF
sg17
S'Y'
sg14
I1
sg19
Nsg94
I10
sa(dp485
g16
(lp486
S'd'
asg18
S'N'
sg22
I31
sS'.thisN'
p487
I49
sg20
S'Y'
sg31
g32
sS'.thisTrialN'
p488
I5
sS'.thisRepN'
p489
I4
sg21
I22
sS'.thisIndex'
p490
I4
sg23
I21
sg15
(lp491
S'd'
asg30
VF
sg17
S'Y'
sg14
I1
sg19
Nsg94
I4
sa(dp492
g16
(lp493
S'k'
asg94
I0
sS'.thisRepN'
p494
I4
sg30
VF
sg31
g32
sS'.thisTrialN'
p495
I6
sS'.thisN'
p496
I50
sS'.thisIndex'
p497
I0
sg15
(lp498
S'k'
asg17
S'Y'
sg14
I2
sa(dp499
g16
(lp500
S'k'
asg94
I0
sS'.thisRepN'
p501
I4
sg30
VF
sg31
g32
sS'.thisTrialN'
p502
I7
sS'.thisN'
p503
I51
sS'.thisIndex'
p504
I0
sg15
(lp505
S'd'
asg17
S'N'
sg14
I2
sa(dp506
g16
(lp507
S'k'
asg18
S'N'
sS'.thisRepN'
p508
I4
sg20
S'Y'
sg31
g32
sS'.thisTrialN'
p509
I8
sS'.thisN'
p510
I52
sS'.thisIndex'
p511
I5
sg15
(lp512
S'd'
asg30
VF
sg17
S'N'
sg14
I2
sg19
Nsg94
I5
sa(dp513
g16
(lp514
S'k'
asg18
S'N'
sS'.thisRepN'
p515
I4
sg20
S'Y'
sg31
g32
sS'.thisTrialN'
p516
I9
sS'.thisN'
p517
I53
sS'.thisIndex'
p518
I6
sg15
(lp519
S'k'
asg30
VF
sg17
S'Y'
sg14
I2
sg19
Nsg94
I6
sa(dp520
g16
(lp521
S'k'
asg18
S'N'
sS'.thisRepN'
p522
I4
sg20
S'Y'
sg31
g32
sS'.thisTrialN'
p523
I10
sS'.thisN'
p524
I54
sS'.thisIndex'
p525
I2
sg15
(lp526
S'k'
asg30
VF
sg17
S'Y'
sg14
I2
sg19
Nsg94
I2
sa(dp527
g16
(lp528
S'k'
asg18
S'Y'
sS'.thisRepN'
p529
I5
sg20
S'Y'
sg31
g32
sS'.thisTrialN'
p530
I0
sS'.thisN'
p531
I55
sS'.thisIndex'
p532
I6
sg15
(lp533
S'd'
asg30
VF
sg17
S'N'
sg14
I2
sg19
(lp534
S'space'
p535
asg94
I6
sa(dp536
g16
(lp537
S'k'
asg18
S'Y'
sS'.thisRepN'
p538
I5
sg20
S'Y'
sg31
g32
sS'.thisTrialN'
p539
I1
sS'.thisN'
p540
I56
sS'.thisIndex'
p541
I3
sg15
(lp542
S'd'
asg30
VF
sg17
S'N'
sg14
I2
sg19
(lp543
S'space'
p544
asg94
I3
sa(dp545
g16
(lp546
S'd'
asg18
S'Y'
sS'.thisRepN'
p547
I5
sg20
S'Y'
sg31
g32
sS'.thisTrialN'
p548
I2
sS'.thisN'
p549
I57
sS'.thisIndex'
p550
I0
sg15
(lp551
S'k'
asg30
VF
sg17
S'N'
sg14
I2
sg19
(lp552
S'space'
p553
asg94
I0
sa(dp554
g16
(lp555
S'k'
asg18
S'N'
sS'.thisRepN'
p556
I5
sg20
S'N'
sg31
g32
sS'.thisTrialN'
p557
I3
sS'.thisN'
p558
I58
sS'.thisIndex'
p559
I0
sg15
(lp560
S'd'
asg30
VF
sg17
S'N'
sg14
I2
sg19
(lp561
S'space'
p562
asg94
I0
sa(dp563
g16
(lp564
S'd'
asg18
S'N'
sS'.thisRepN'
p565
I5
sg20
S'Y'
sg31
g32
sS'.thisTrialN'
p566
I4
sS'.thisN'
p567
I59
sS'.thisIndex'
p568
I8
sg15
(lp569
S'k'
asg30
VF
sg17
S'N'
sg14
I2
sg19
Nsg94
I8
sa(dp570
g16
(lp571
S'd'
asg18
S'N'
sS'.thisRepN'
p572
I5
sg20
S'Y'
sg31
g32
sS'.thisTrialN'
p573
I5
sS'.thisN'
p574
I60
sS'.thisIndex'
p575
I7
sg15
(lp576
S'd'
asg30
VF
sg17
S'Y'
sg14
I2
sg19
Nsg94
I7
sa(dp577
g16
(lp578
S'd'
asg18
S'N'
sS'.thisRepN'
p579
I5
sg20
S'Y'
sg31
g32
sS'.thisTrialN'
p580
I6
sS'.thisN'
p581
I61
sS'.thisIndex'
p582
I10
sg15
(lp583
S'k'
asg30
VF
sg17
S'N'
sg14
I2
sg19
Nsg94
I10
sa(dp584
g16
(lp585
S'd'
asg18
S'N'
sS'.thisRepN'
p586
I5
sg20
S'Y'
sg31
g32
sS'.thisTrialN'
p587
I7
sS'.thisN'
p588
I62
sS'.thisIndex'
p589
I4
sg15
(lp590
S'd'
asg30
VF
sg17
S'Y'
sg14
I2
sg19
Nsg94
I4
sa(dp591
g16
(lp592
S'd'
asg18
S'Y'
sS'.thisRepN'
p593
I5
sg20
S'Y'
sg31
g32
sS'.thisTrialN'
p594
I8
sS'.thisN'
p595
I63
sS'.thisIndex'
p596
I4
sg15
(lp597
S'd'
asg30
VF
sg17
S'Y'
sg14
I2
sg19
(lp598
S'space'
p599
asg94
I4
sa(dp600
g16
(lp601
S'd'
asg18
S'Y'
sS'.thisRepN'
p602
I5
sg20
S'N'
sg31
g32
sS'.thisTrialN'
p603
I9
sS'.thisN'
p604
I64
sS'.thisIndex'
p605
I8
sg15
(lp606
S'k'
asg30
VF
sg17
S'N'
sg14
I2
sg19
Nsg94
I8
sa(dp607
g16
(lp608
S'k'
asg18
S'N'
sS'.thisRepN'
p609
I5
sg20
S'Y'
sg31
g32
sS'.thisTrialN'
p610
I10
sS'.thisN'
p611
I65
sS'.thisIndex'
p612
I10
sg15
(lp613
S'd'
asg30
VF
sg17
S'N'
sg14
I2
sg19
Nsg94
I10
sa(dp614
g16
(lp615
S'd'
asg18
S'Y'
sS'.thisRepN'
p616
I6
sg20
S'N'
sg31
g32
sS'.thisTrialN'
p617
I0
sS'.thisN'
p618
I66
sS'.thisIndex'
p619
I3
sg15
(lp620
S'k'
asg30
VF
sg17
S'N'
sg14
I2
sg19
Nsg94
I3
sa(dp621
g16
(lp622
S'd'
asg18
S'Y'
sS'.thisRepN'
p623
I6
sg20
S'N'
sg31
g32
sS'.thisTrialN'
p624
I1
sS'.thisN'
p625
I67
sS'.thisIndex'
p626
I1
sg15
(lp627
S'd'
asg30
VF
sg17
S'Y'
sg14
I2
sg19
Nsg94
I1
sa(dp628
g16
(lp629
S'k'
asg18
S'Y'
sS'.thisRepN'
p630
I6
sg20
S'Y'
sg31
g32
sS'.thisTrialN'
p631
I2
sS'.thisN'
p632
I68
sS'.thisIndex'
p633
I7
sg15
(lp634
S'd'
asg30
VF
sg17
S'N'
sg14
I2
sg19
(lp635
S'space'
p636
asg94
I7
sa(dp637
g16
(lp638
S'd'
asg18
S'N'
sS'.thisRepN'
p639
I6
sg20
S'Y'
sg31
g32
sS'.thisTrialN'
p640
I3
sS'.thisN'
p641
I69
sS'.thisIndex'
p642
I3
sg15
(lp643
S'k'
asg30
VF
sg17
S'N'
sg14
I2
sg19
Nsg94
I3
sa(dp644
g16
(lp645
S'k'
asg18
S'Y'
sS'.thisRepN'
p646
I6
sg20
S'N'
sg31
g32
sS'.thisTrialN'
p647
I4
sS'.thisN'
p648
I70
sS'.thisIndex'
p649
I2
sg15
(lp650
S'd'
asg30
VF
sg17
S'N'
sg14
I2
sg19
Nsg94
I2
sa(dp651
g16
(lp652
S'k'
asg18
S'Y'
sS'.thisRepN'
p653
I6
sg20
S'N'
sg31
g32
sS'.thisTrialN'
p654
I5
sS'.thisN'
p655
I71
sS'.thisIndex'
p656
I5
sg15
(lp657
S'k'
asg30
VF
sg17
S'Y'
sg14
I2
sg19
(lp658
S'k'
asg94
I5
sa(dp659
g16
(lp660
S'k'
asg18
S'Y'
sS'.thisRepN'
p661
I6
sg20
S'N'
sg31
g32
sS'.thisTrialN'
p662
I6
sS'.thisN'
p663
I72
sS'.thisIndex'
p664
I5
sg15
(lp665
S'd'
asg30
VF
sg17
S'N'
sg14
I2
sg19
Nsg94
I5
sa(dp666
g16
(lp667
S'd'
asg18
S'Y'
sS'.thisRepN'
p668
I6
sg20
S'N'
sg31
g32
sS'.thisTrialN'
p669
I7
sS'.thisN'
p670
I73
sS'.thisIndex'
p671
I10
sg15
(lp672
S'k'
asg30
VF
sg17
S'N'
sg14
I2
sg19
Nsg94
I10
sa(dp673
g16
(lp674
S'd'
asg18
S'Y'
sS'.thisRepN'
p675
I6
sg20
S'Y'
sg31
g32
sS'.thisTrialN'
p676
I8
sS'.thisN'
p677
I74
sS'.thisIndex'
p678
I1
sg15
(lp679
S'd'
asg30
VF
sg17
S'Y'
sg14
I2
sg19
(lp680
S'space'
p681
asg94
I1
sa(dp682
g16
(lp683
S'd'
asg18
S'Y'
sS'.thisRepN'
p684
I6
sg20
S'Y'
sg31
g32
sS'.thisTrialN'
p685
I9
sS'.thisN'
p686
I75
sS'.thisIndex'
p687
I0
sg15
(lp688
S'd'
asg30
VF
sg17
S'Y'
sg14
I2
sg19
(lp689
S'space'
p690
asg94
I0
sa(dp691
g16
(lp692
S'd'
asg18
S'N'
sS'.thisRepN'
p693
I6
sg20
S'Y'
sg31
g32
sS'.thisTrialN'
p694
I10
sS'.thisN'
p695
I76
sS'.thisIndex'
p696
I10
sg15
(lp697
S'k'
asg30
VF
sg17
S'N'
sg14
I2
sg19
Nsg94
I10
sa(dp698
g16
(lp699
S'd'
asg18
S'N'
sS'.thisRepN'
p700
I7
sg20
S'N'
sg31
g32
sS'.thisTrialN'
p701
I0
sS'.thisN'
p702
I77
sS'.thisIndex'
p703
I0
sg15
(lp704
S'd'
asg30
VF
sg17
S'Y'
sg14
I2
sg19
(lp705
S'space'
p706
asg94
I0
sa(dp707
g16
(lp708
S'd'
asg18
S'N'
sS'.thisRepN'
p709
I7
sg20
S'Y'
sg31
g32
sS'.thisTrialN'
p710
I1
sS'.thisN'
p711
I78
sS'.thisIndex'
p712
I1
sg15
(lp713
S'k'
asg30
VF
sg17
S'N'
sg14
I2
sg19
Nsg94
I1
sa(dp714
g16
(lp715
S'd'
asg18
S'Y'
sS'.thisRepN'
p716
I7
sg20
S'N'
sg31
g32
sS'.thisTrialN'
p717
I2
sS'.thisN'
p718
I79
sS'.thisIndex'
p719
I6
sg15
(lp720
S'd'
asg30
VF
sg17
S'Y'
sg14
I2
sg19
(lp721
S'd'
asg94
I6
sa(dp722
g16
(lp723
S'k'
asg18
S'N'
sS'.thisRepN'
p724
I7
sg20
S'N'
sg31
g32
sS'.thisTrialN'
p725
I3
sS'.thisN'
p726
I80
sS'.thisIndex'
p727
I1
sg15
(lp728
S'k'
asg30
VF
sg17
S'Y'
sg14
I2
sg19
(lp729
S'space'
p730
asg94
I1
sa(dp731
g16
(lp732
S'd'
asg18
S'Y'
sS'.thisRepN'
p733
I7
sg20
S'Y'
sg31
g32
sS'.thisTrialN'
p734
I4
sS'.thisN'
p735
I81
sS'.thisIndex'
p736
I7
sg15
(lp737
S'd'
asg30
VF
sg17
S'Y'
sg14
I2
sg19
(lp738
S'space'
p739
asg94
I7
sa(dp740
g16
(lp741
S'd'
asg18
S'Y'
sS'.thisRepN'
p742
I7
sg20
S'Y'
sg31
g32
sS'.thisTrialN'
p743
I5
sS'.thisN'
p744
I82
sS'.thisIndex'
p745
I10
sg15
(lp746
S'k'
asg30
VF
sg17
S'N'
sg14
I2
sg19
(lp747
S'space'
p748
asg94
I10
sa(dp749
g16
(lp750
S'k'
asg18
S'Y'
sS'.thisRepN'
p751
I7
sg20
S'Y'
sg31
g32
sS'.thisTrialN'
p752
I6
sS'.thisN'
p753
I83
sS'.thisIndex'
p754
I1
sg15
(lp755
S'd'
asg30
VF
sg17
S'N'
sg14
I2
sg19
(lp756
S'space'
p757
asg94
I1
sa(dp758
g16
(lp759
S'k'
asg18
S'Y'
sS'.thisRepN'
p760
I7
sg20
S'Y'
sg31
g32
sS'.thisTrialN'
p761
I7
sS'.thisN'
p762
I84
sS'.thisIndex'
p763
I7
sg15
(lp764
S'k'
asg30
VF
sg17
S'Y'
sg14
I2
sg19
(lp765
S'space'
p766
asg94
I7
sa(dp767
g16
(lp768
S'd'
asg18
S'Y'
sS'.thisRepN'
p769
I7
sg20
S'N'
sg31
g32
sS'.thisTrialN'
p770
I8
sS'.thisN'
p771
I85
sS'.thisIndex'
p772
I2
sg15
(lp773
S'd'
asg30
VF
sg17
S'Y'
sg14
I2
sg19
Nsg94
I2
sa(dp774
g16
(lp775
S'd'
asg18
S'Y'
sS'.thisRepN'
p776
I7
sg20
S'Y'
sg31
g32
sS'.thisTrialN'
p777
I9
sS'.thisN'
p778
I86
sS'.thisIndex'
p779
I9
sg15
(lp780
S'k'
asg30
VF
sg17
S'N'
sg14
I2
sg19
(lp781
S'space'
p782
asg94
I9
sa(dp783
g16
(lp784
S'd'
asg18
S'Y'
sS'.thisRepN'
p785
I7
sg20
S'Y'
sg31
g32
sS'.thisTrialN'
p786
I10
sS'.thisN'
p787
I87
sS'.thisIndex'
p788
I7
sg15
(lp789
S'd'
asg30
VF
sg17
S'Y'
sg14
I2
sg19
(lp790
S'space'
p791
asg94
I7
sa(dp792
g16
(lp793
S'd'
asg18
S'N'
sS'.thisRepN'
p794
I8
sg20
S'Y'
sg31
g32
sS'.thisTrialN'
p795
I0
sS'.thisN'
p796
I88
sS'.thisIndex'
p797
I9
sg15
(lp798
S'k'
asg30
VF
sg17
S'N'
sg14
I2
sg19
Nsg94
I9
sa(dp799
g16
(lp800
S'd'
asg18
S'Y'
sS'.thisRepN'
p801
I8
sg20
S'Y'
sg31
g32
sS'.thisTrialN'
p802
I1
sS'.thisN'
p803
I89
sS'.thisIndex'
p804
I4
sg15
(lp805
S'd'
asg30
VF
sg17
S'Y'
sg14
I2
sg19
(lp806
S'space'
p807
asg94
I4
sa(dp808
g16
(lp809
S'k'
asg18
S'N'
sS'.thisRepN'
p810
I8
sg20
S'Y'
sg31
g32
sS'.thisTrialN'
p811
I2
sS'.thisN'
p812
I90
sS'.thisIndex'
p813
I9
sg15
(lp814
S'k'
asg30
VF
sg17
S'Y'
sg14
I2
sg19
Nsg94
I9
sa(dp815
g16
(lp816
S'k'
asg18
S'Y'
sS'.thisRepN'
p817
I8
sg20
S'N'
sg31
g32
sS'.thisTrialN'
p818
I3
sS'.thisN'
p819
I91
sS'.thisIndex'
p820
I7
sg15
(lp821
S'd'
asg30
VF
sg17
S'N'
sg14
I2
sg19
Nsg94
I7
sa(dp822
g16
(lp823
S'd'
asg18
S'Y'
sS'.thisRepN'
p824
I8
sg20
S'Y'
sg31
g32
sS'.thisTrialN'
p825
I4
sS'.thisN'
p826
I92
sS'.thisIndex'
p827
I7
sg15
(lp828
S'd'
asg30
VF
sg17
S'Y'
sg14
I2
sg19
(lp829
S'space'
p830
asg94
I7
sa(dp831
g16
(lp832
S'd'
asg18
S'N'
sS'.thisRepN'
p833
I8
sg20
S'Y'
sg31
g32
sS'.thisTrialN'
p834
I5
sS'.thisN'
p835
I93
sS'.thisIndex'
p836
I5
sg15
(lp837
S'k'
asg30
VF
sg17
S'N'
sg14
I2
sg19
Nsg94
I5
sa(dp838
g16
(lp839
S'd'
asg18
S'N'
sS'.thisRepN'
p840
I8
sg20
S'Y'
sg31
g32
sS'.thisTrialN'
p841
I6
sS'.thisN'
p842
I94
sS'.thisIndex'
p843
I2
sg15
(lp844
S'd'
asg30
VF
sg17
S'Y'
sg14
I2
sg19
Nsg94
I2
sa(dp845
g16
(lp846
S'k'
asg18
S'N'
sS'.thisRepN'
p847
I8
sg20
S'Y'
sg31
g32
sS'.thisTrialN'
p848
I7
sS'.thisN'
p849
I95
sS'.thisIndex'
p850
I4
sg15
(lp851
S'k'
asg30
VF
sg17
S'Y'
sg14
I2
sg19
Nsg94
I4
sa(dp852
g16
(lp853
S'd'
asg18
S'N'
sS'.thisRepN'
p854
I8
sg20
S'Y'
sg31
g32
sS'.thisTrialN'
p855
I8
sS'.thisN'
p856
I96
sS'.thisIndex'
p857
I2
sg15
(lp858
S'd'
asg30
VF
sg17
S'Y'
sg14
I2
sg19
Nsg94
I2
sa(dp859
g16
(lp860
S'k'
asg18
S'N'
sS'.thisRepN'
p861
I8
sg20
S'Y'
sg31
g32
sS'.thisTrialN'
p862
I9
sS'.thisN'
p863
I97
sS'.thisIndex'
p864
I3
sg15
(lp865
S'd'
asg30
VF
sg17
S'N'
sg14
I2
sg19
Nsg94
I3
sa(dp866
g16
(lp867
S'k'
asg18
S'N'
sS'.thisRepN'
p868
I8
sg20
S'Y'
sg31
g32
sS'.thisTrialN'
p869
I10
sS'.thisN'
p870
I98
sS'.thisIndex'
p871
I8
sg15
(lp872
S'k'
asg30
VF
sg17
S'Y'
sg14
I2
sg19
Nsg94
I8
sa(dp873
g16
(lp874
S'd'
asg18
S'N'
sg22
I35
sS'.thisN'
p875
I99
sg20
S'Y'
sg31
g32
sS'.thisTrialN'
p876
I0
sS'.thisRepN'
p877
I9
sg21
I25
sS'.thisIndex'
p878
I4
sg23
I25
sg15
(lp879
S'd'
asg30
VF
sg17
S'Y'
sg14
I2
sg19
Nsg94
I4
sa(dp880
g16
(lp881
S'd'
asg94
I10
sS'.thisRepN'
p882
I9
sg30
VF
sg31
g32
sS'.thisTrialN'
p883
I1
sS'.thisN'
p884
I100
sS'.thisIndex'
p885
I10
sg15
(lp886
S'k'
asg17
S'N'
sg14
I3
sa(dp887
g16
(lp888
S'd'
asg94
I3
sS'.thisRepN'
p889
I9
sg30
VF
sg31
g32
sS'.thisTrialN'
p890
I2
sS'.thisN'
p891
I101
sS'.thisIndex'
p892
I3
sg15
(lp893
S'd'
asg17
S'Y'
sg14
I3
sa(dp894
g16
(lp895
S'd'
asg18
S'Y'
sS'.thisRepN'
p896
I9
sg20
S'Y'
sg31
g32
sS'.thisTrialN'
p897
I3
sS'.thisN'
p898
I102
sS'.thisIndex'
p899
I8
sg15
(lp900
S'k'
asg30
VF
sg17
S'N'
sg14
I3
sg19
(lp901
S'space'
p902
asg94
I8
sa(dp903
g16
(lp904
S'k'
asg18
S'Y'
sS'.thisRepN'
p905
I9
sg20
S'N'
sg31
g32
sS'.thisTrialN'
p906
I4
sS'.thisN'
p907
I103
sS'.thisIndex'
p908
I6
sg15
(lp909
S'd'
asg30
VF
sg17
S'N'
sg14
I3
sg19
Nsg94
I6
sa(dp910
g16
(lp911
S'd'
asg18
S'Y'
sS'.thisRepN'
p912
I9
sg20
S'Y'
sg31
g32
sS'.thisTrialN'
p913
I5
sS'.thisN'
p914
I104
sS'.thisIndex'
p915
I6
sg15
(lp916
S'k'
asg30
VF
sg17
S'N'
sg14
I3
sg19
(lp917
S'space'
p918
asg94
I6
sa(dp919
g16
(lp920
S'k'
asg18
S'Y'
sS'.thisRepN'
p921
I9
sg20
S'Y'
sg31
g32
sS'.thisTrialN'
p922
I6
sS'.thisN'
p923
I105
sS'.thisIndex'
p924
I8
sg15
(lp925
S'd'
asg30
VF
sg17
S'N'
sg14
I3
sg19
(lp926
S'space'
p927
asg94
I8
sa(dp928
g16
(lp929
S'k'
asg18
S'N'
sS'.thisRepN'
p930
I9
sg20
S'N'
sg31
g32
sS'.thisTrialN'
p931
I7
sS'.thisN'
p932
I106
sS'.thisIndex'
p933
I0
sg15
(lp934
S'k'
asg30
VF
sg17
S'Y'
sg14
I3
sg19
(lp935
S'space'
p936
asg94
I0
sa(dp937
g16
(lp938
S'd'
asg18
S'N'
sS'.thisRepN'
p939
I9
sg20
S'N'
sg31
g32
sS'.thisTrialN'
p940
I8
sS'.thisN'
p941
I107
sS'.thisIndex'
p942
I4
sg15
(lp943
S'k'
asg30
VF
sg17
S'N'
sg14
I3
sg19
(lp944
S'space'
p945
asg94
I4
sa(dp946
g16
(lp947
S'd'
asg18
S'N'
sS'.thisRepN'
p948
I9
sg20
S'N'
sg31
g32
sS'.thisTrialN'
p949
I9
sS'.thisN'
p950
I108
sS'.thisIndex'
p951
I0
sg15
(lp952
S'd'
asg30
VF
sg17
S'Y'
sg14
I3
sg19
(lp953
S'space'
p954
asg94
I0
sa(dp955
g16
(lp956
S'k'
asg18
S'N'
sS'.thisRepN'
p957
I9
sg20
S'N'
sg31
g32
sS'.thisTrialN'
p958
I10
sS'.thisN'
p959
I109
sS'.thisIndex'
p960
I4
sg15
(lp961
S'd'
asg30
VF
sg17
S'N'
sg14
I3
sg19
(lp962
S'd'
asg94
I4
sa(dp963
g16
(lp964
S'd'
asg18
S'Y'
sS'.thisRepN'
p965
I10
sg20
S'N'
sg31
g32
sS'.thisTrialN'
p966
I0
sS'.thisN'
p967
I110
sS'.thisIndex'
p968
I5
sg15
(lp969
S'd'
asg30
VF
sg17
S'Y'
sg14
I3
sg19
(lp970
S'k'
asg94
I5
sa(dp971
g16
(lp972
S'd'
asg18
S'Y'
sS'.thisRepN'
p973
I10
sg20
S'N'
sg31
g32
sS'.thisTrialN'
p974
I1
sS'.thisN'
p975
I111
sS'.thisIndex'
p976
I5
sg15
(lp977
S'd'
asg30
VF
sg17
S'Y'
sg14
I3
sg19
(lp978
S'k'
asg94
I5
sa(dp979
g16
(lp980
S'k'
asg18
S'N'
sS'.thisRepN'
p981
I10
sg20
S'Y'
sg31
g32
sS'.thisTrialN'
p982
I2
sS'.thisN'
p983
I112
sS'.thisIndex'
p984
I6
sg15
(lp985
S'k'
asg30
VF
sg17
S'Y'
sg14
I3
sg19
Nsg94
I6
sa(dp986
g16
(lp987
S'd'
asg18
S'N'
sS'.thisRepN'
p988
I10
sg20
S'Y'
sg31
g32
sS'.thisTrialN'
p989
I3
sS'.thisN'
p990
I113
sS'.thisIndex'
p991
I10
sg15
(lp992
S'd'
asg30
VF
sg17
S'Y'
sg14
I3
sg19
Nsg94
I10
sa(dp993
g16
(lp994
S'k'
asg18
S'N'
sS'.thisRepN'
p995
I10
sg20
S'Y'
sg31
g32
sS'.thisTrialN'
p996
I4
sS'.thisN'
p997
I114
sS'.thisIndex'
p998
I10
sg15
(lp999
S'd'
asg30
VF
sg17
S'N'
sg14
I3
sg19
Nsg94
I10
sa(dp1000
g16
(lp1001
S'k'
asg18
S'Y'
sS'.thisRepN'
p1002
I10
sg20
S'Y'
sg31
g32
sS'.thisTrialN'
p1003
I5
sS'.thisN'
p1004
I115
sS'.thisIndex'
p1005
I5
sg15
(lp1006
S'k'
asg30
VF
sg17
S'Y'
sg14
I3
sg19
(lp1007
S'space'
p1008
asg94
I5
sa(dp1009
g16
(lp1010
S'k'
asg18
S'Y'
sS'.thisRepN'
p1011
I10
sg20
S'Y'
sg31
g32
sS'.thisTrialN'
p1012
I6
sS'.thisN'
p1013
I116
sS'.thisIndex'
p1014
I6
sg15
(lp1015
S'd'
asg30
VF
sg17
S'N'
sg14
I3
sg19
(lp1016
S'space'
p1017
asg94
I6
sa(dp1018
g16
(lp1019
S'k'
asg18
S'N'
sS'.thisRepN'
p1020
I10
sg20
S'N'
sg31
g32
sS'.thisTrialN'
p1021
I7
sS'.thisN'
p1022
I117
sS'.thisIndex'
p1023
I6
sg15
(lp1024
S'k'
asg30
VF
sg17
S'Y'
sg14
I3
sg19
(lp1025
S'space'
p1026
asg94
I6
sa(dp1027
g16
(lp1028
S'd'
asg18
S'N'
sS'.thisRepN'
p1029
I10
sg20
S'Y'
sg31
g32
sS'.thisTrialN'
p1030
I8
sS'.thisN'
p1031
I118
sS'.thisIndex'
p1032
I5
sg15
(lp1033
S'd'
asg30
VF
sg17
S'Y'
sg14
I3
sg19
Nsg94
I5
sa(dp1034
g16
(lp1035
S'd'
asg18
S'N'
sS'.thisRepN'
p1036
I10
sg20
S'Y'
sg31
g32
sS'.thisTrialN'
p1037
I9
sS'.thisN'
p1038
I119
sS'.thisIndex'
p1039
I5
sg15
(lp1040
S'd'
asg30
VF
sg17
S'Y'
sg14
I3
sg19
Nsg94
I5
sa(dp1041
g16
(lp1042
S'd'
asg18
S'N'
sS'.thisRepN'
p1043
I10
sg20
S'Y'
sg31
g32
sS'.thisTrialN'
p1044
I10
sS'.thisN'
p1045
I120
sS'.thisIndex'
p1046
I4
sg15
(lp1047
S'd'
asg30
VF
sg17
S'Y'
sg14
I3
sg19
Nsg94
I4
sa(dp1048
g16
(lp1049
S'k'
asg18
S'Y'
sS'.thisRepN'
p1050
I11
sg20
S'Y'
sg31
g32
sS'.thisTrialN'
p1051
I0
sS'.thisN'
p1052
I121
sS'.thisIndex'
p1053
I6
sg15
(lp1054
S'k'
asg30
VF
sg17
S'Y'
sg14
I3
sg19
(lp1055
S'space'
p1056
asg94
I6
sa(dp1057
g16
(lp1058
S'd'
asg18
S'N'
sS'.thisRepN'
p1059
I11
sg20
S'Y'
sg31
g32
sS'.thisTrialN'
p1060
I1
sS'.thisN'
p1061
I122
sS'.thisIndex'
p1062
I8
sg15
(lp1063
S'd'
asg30
VF
sg17
S'Y'
sg14
I3
sg19
Nsg94
I8
sa(dp1064
g16
(lp1065
S'k'
asg18
S'N'
sS'.thisRepN'
p1066
I11
sg20
S'Y'
sg31
g32
sS'.thisTrialN'
p1067
I2
sS'.thisN'
p1068
I123
sS'.thisIndex'
p1069
I9
sg15
(lp1070
S'k'
asg30
VF
sg17
S'Y'
sg14
I3
sg19
Nsg94
I9
sa(dp1071
g16
(lp1072
S'k'
asg18
S'N'
sS'.thisRepN'
p1073
I11
sg20
S'Y'
sg31
g32
sS'.thisTrialN'
p1074
I3
sS'.thisN'
p1075
I124
sS'.thisIndex'
p1076
I3
sg15
(lp1077
S'd'
asg30
VF
sg17
S'N'
sg14
I3
sg19
Nsg94
I3
sa(dp1078
g16
(lp1079
S'k'
asg18
S'N'
sS'.thisRepN'
p1080
I11
sg20
S'Y'
sg31
g32
sS'.thisTrialN'
p1081
I4
sS'.thisN'
p1082
I125
sS'.thisIndex'
p1083
I0
sg15
(lp1084
S'k'
asg30
VF
sg17
S'Y'
sg14
I3
sg19
Nsg94
I0
sa(dp1085
g16
(lp1086
S'k'
asg18
S'Y'
sS'.thisRepN'
p1087
I11
sg20
S'Y'
sg31
g32
sS'.thisTrialN'
p1088
I5
sS'.thisN'
p1089
I126
sS'.thisIndex'
p1090
I1
sg15
(lp1091
S'd'
asg30
VF
sg17
S'N'
sg14
I3
sg19
(lp1092
S'space'
p1093
asg94
I1
sa(dp1094
g16
(lp1095
S'k'
asg18
S'N'
sS'.thisRepN'
p1096
I11
sg20
S'N'
sg31
g32
sS'.thisTrialN'
p1097
I6
sS'.thisN'
p1098
I127
sS'.thisIndex'
p1099
I4
sg15
(lp1100
S'k'
asg30
VF
sg17
S'Y'
sg14
I3
sg19
(lp1101
S'space'
p1102
asg94
I4
sa(dp1103
g16
(lp1104
S'd'
asg18
S'Y'
sS'.thisRepN'
p1105
I11
sg20
S'Y'
sg31
g32
sS'.thisTrialN'
p1106
I7
sS'.thisN'
p1107
I128
sS'.thisIndex'
p1108
I8
sg15
(lp1109
S'k'
asg30
VF
sg17
S'N'
sg14
I3
sg19
(lp1110
S'space'
p1111
asg94
I8
sa(dp1112
g16
(lp1113
S'k'
asg18
S'Y'
sS'.thisRepN'
p1114
I11
sg20
S'Y'
sg31
g32
sS'.thisTrialN'
p1115
I8
sS'.thisN'
p1116
I129
sS'.thisIndex'
p1117
I1
sg15
(lp1118
S'd'
asg30
VF
sg17
S'N'
sg14
I3
sg19
(lp1119
S'space'
p1120
asg94
I1
sa(dp1121
g16
(lp1122
S'k'
asg18
S'Y'
sS'.thisRepN'
p1123
I11
sg20
S'N'
sg31
g32
sS'.thisTrialN'
p1124
I9
sS'.thisN'
p1125
I130
sS'.thisIndex'
p1126
I3
sg15
(lp1127
S'k'
asg30
VF
sg17
S'Y'
sg14
I3
sg19
(lp1128
S'k'
asg94
I3
sa(dp1129
g16
(lp1130
S'k'
asg18
S'N'
sS'.thisRepN'
p1131
I11
sg20
S'Y'
sg31
g32
sS'.thisTrialN'
p1132
I10
sS'.thisN'
p1133
I131
sS'.thisIndex'
p1134
I9
sg15
(lp1135
S'k'
asg30
VF
sg17
S'Y'
sg14
I3
sg19
Nsg94
I9
sa(dp1136
g16
(lp1137
S'd'
asg18
S'Y'
sS'.thisRepN'
p1138
I12
sg20
S'Y'
sg31
g32
sS'.thisTrialN'
p1139
I0
sS'.thisN'
p1140
I132
sS'.thisIndex'
p1141
I7
sg15
(lp1142
S'k'
asg30
VF
sg17
S'N'
sg14
I3
sg19
(lp1143
S'space'
p1144
asg94
I7
sa(dp1145
g16
(lp1146
S'd'
asg18
S'N'
sS'.thisRepN'
p1147
I12
sg20
S'Y'
sg31
g32
sS'.thisTrialN'
p1148
I1
sS'.thisN'
p1149
I133
sS'.thisIndex'
p1150
I9
sg15
(lp1151
S'd'
asg30
VF
sg17
S'Y'
sg14
I3
sg19
Nsg94
I9
sa(dp1152
g16
(lp1153
S'd'
asg18
S'Y'
sS'.thisRepN'
p1154
I12
sg20
S'Y'
sg31
g32
sS'.thisTrialN'
p1155
I2
sS'.thisN'
p1156
I134
sS'.thisIndex'
p1157
I10
sg15
(lp1158
S'k'
asg30
VF
sg17
S'N'
sg14
I3
sg19
(lp1159
S'space'
p1160
asg94
I10
sa(dp1161
g16
(lp1162
S'k'
asg18
S'N'
sS'.thisRepN'
p1163
I12
sg20
S'Y'
sg31
g32
sS'.thisTrialN'
p1164
I3
sS'.thisN'
p1165
I135
sS'.thisIndex'
p1166
I0
sg15
(lp1167
S'd'
asg30
VF
sg17
S'N'
sg14
I3
sg19
Nsg94
I0
sa(dp1168
g16
(lp1169
S'k'
asg18
S'Y'
sS'.thisRepN'
p1170
I12
sg20
S'Y'
sg31
g32
sS'.thisTrialN'
p1171
I4
sS'.thisN'
p1172
I136
sS'.thisIndex'
p1173
I1
sg15
(lp1174
S'd'
asg30
VF
sg17
S'N'
sg14
I3
sg19
(lp1175
S'space'
p1176
asg94
I1
sa(dp1177
g16
(lp1178
S'k'
asg18
S'Y'
sS'.thisRepN'
p1179
I12
sg20
S'Y'
sg31
g32
sS'.thisTrialN'
p1180
I5
sS'.thisN'
p1181
I137
sS'.thisIndex'
p1182
I6
sg15
(lp1183
S'k'
asg30
VF
sg17
S'Y'
sg14
I3
sg19
(lp1184
S'space'
p1185
asg94
I6
sa(dp1186
g16
(lp1187
S'd'
asg18
S'Y'
sS'.thisRepN'
p1188
I12
sg20
S'Y'
sg31
g32
sS'.thisTrialN'
p1189
I6
sS'.thisN'
p1190
I138
sS'.thisIndex'
p1191
I6
sg15
(lp1192
S'k'
asg30
VF
sg17
S'N'
sg14
I3
sg19
(lp1193
S'space'
p1194
asg94
I6
sa(dp1195
g16
(lp1196
S'k'
asg18
S'N'
sS'.thisRepN'
p1197
I12
sg20
S'Y'
sg31
g32
sS'.thisTrialN'
p1198
I7
sS'.thisN'
p1199
I139
sS'.thisIndex'
p1200
I9
sg15
(lp1201
S'd'
asg30
VF
sg17
S'N'
sg14
I3
sg19
Nsg94
I9
sa(dp1202
g16
(lp1203
S'k'
asg18
S'Y'
sS'.thisRepN'
p1204
I12
sg20
S'Y'
sg31
g32
sS'.thisTrialN'
p1205
I8
sS'.thisN'
p1206
I140
sS'.thisIndex'
p1207
I4
sg15
(lp1208
S'd'
asg30
VF
sg17
S'N'
sg14
I3
sg19
(lp1209
S'space'
p1210
asg94
I4
sa(dp1211
g16
(lp1212
S'd'
asg18
S'Y'
sS'.thisRepN'
p1213
I12
sg20
S'N'
sg31
g32
sS'.thisTrialN'
p1214
I9
sS'.thisN'
p1215
I141
sS'.thisIndex'
p1216
I4
sg15
(lp1217
S'd'
asg30
VF
sg17
S'Y'
sg14
I3
sg19
Nsg94
I4
sa(dp1218
g16
(lp1219
S'k'
asg18
S'Y'
sS'.thisRepN'
p1220
I12
sg20
S'Y'
sg31
g32
sS'.thisTrialN'
p1221
I10
sS'.thisN'
p1222
I142
sS'.thisIndex'
p1223
I0
sg15
(lp1224
S'k'
asg30
VF
sg17
S'Y'
sg14
I3
sg19
(lp1225
S'space'
p1226
asg94
I0
sa(dp1227
g16
(lp1228
S'd'
asg18
S'N'
sS'.thisRepN'
p1229
I13
sg20
S'N'
sg31
g32
sS'.thisTrialN'
p1230
I0
sS'.thisN'
p1231
I143
sS'.thisIndex'
p1232
I3
sg15
(lp1233
S'k'
asg30
VF
sg17
S'N'
sg14
I3
sg19
(lp1234
S'space'
p1235
asg94
I3
sa(dp1236
g16
(lp1237
S'd'
asg18
S'Y'
sS'.thisRepN'
p1238
I13
sg20
S'N'
sg31
g32
sS'.thisTrialN'
p1239
I1
sS'.thisN'
p1240
I144
sS'.thisIndex'
p1241
I6
sg15
(lp1242
S'k'
asg30
VF
sg17
S'N'
sg14
I3
sg19
(lp1243
S'd'
asg94
I6
sa(dp1244
g16
(lp1245
S'd'
asg18
S'Y'
sS'.thisRepN'
p1246
I13
sg20
S'Y'
sg31
g32
sS'.thisTrialN'
p1247
I2
sS'.thisN'
p1248
I145
sS'.thisIndex'
p1249
I5
sg15
(lp1250
S'd'
asg30
VF
sg17
S'Y'
sg14
I3
sg19
(lp1251
S'space'
p1252
asg94
I5
sa(dp1253
g16
(lp1254
S'd'
asg18
S'N'
sS'.thisRepN'
p1255
I13
sg20
S'N'
sg31
g32
sS'.thisTrialN'
p1256
I3
sS'.thisN'
p1257
I146
sS'.thisIndex'
p1258
I2
sg15
(lp1259
S'k'
asg30
VF
sg17
S'N'
sg14
I3
sg19
(lp1260
S'space'
p1261
asg94
I2
sa(dp1262
g16
(lp1263
S'k'
asg18
S'Y'
sS'.thisRepN'
p1264
I13
sg20
S'Y'
sg31
g32
sS'.thisTrialN'
p1265
I4
sS'.thisN'
p1266
I147
sS'.thisIndex'
p1267
I4
sg15
(lp1268
S'd'
asg30
VF
sg17
S'N'
sg14
I3
sg19
(lp1269
S'space'
p1270
asg94
I4
sa(dp1271
g16
(lp1272
S'd'
asg18
S'N'
sS'.thisRepN'
p1273
I13
sg20
S'Y'
sg31
g32
sS'.thisTrialN'
p1274
I5
sS'.thisN'
p1275
I148
sS'.thisIndex'
p1276
I1
sg15
(lp1277
S'k'
asg30
VF
sg17
S'N'
sg14
I3
sg19
Nsg94
I1
sa(dp1278
g16
(lp1279
S'd'
asg18
S'N'
sg22
I34
sS'.thisN'
p1280
I149
sg20
S'Y'
sg31
g32
sS'.thisTrialN'
p1281
I6
sS'.thisRepN'
p1282
I13
sg21
I25
sS'.thisIndex'
p1283
I5
sg23
I24
sg15
(lp1284
S'd'
asg30
VF
sg17
S'Y'
sg14
I3
sg19
Nsg94
I5
sa(dp1285
g16
(lp1286
S'd'
asg94
I3
sS'.thisRepN'
p1287
I13
sg30
VF
sg31
g32
sS'.thisTrialN'
p1288
I7
sS'.thisN'
p1289
I150
sS'.thisIndex'
p1290
I3
sg15
(lp1291
S'd'
asg17
S'Y'
sg14
I4
sa(dp1292
g16
(lp1293
S'd'
asg94
I7
sS'.thisRepN'
p1294
I13
sg30
VF
sg31
g32
sS'.thisTrialN'
p1295
I8
sS'.thisN'
p1296
I151
sS'.thisIndex'
p1297
I7
sg15
(lp1298
S'k'
asg17
S'N'
sg14
I4
sa(dp1299
g16
(lp1300
S'd'
asg18
S'Y'
sS'.thisRepN'
p1301
I13
sg20
S'N'
sg31
g32
sS'.thisTrialN'
p1302
I9
sS'.thisN'
p1303
I152
sS'.thisIndex'
p1304
I7
sg15
(lp1305
S'd'
asg30
VF
sg17
S'Y'
sg14
I4
sg19
(lp1306
S'd'
asg94
I7
sa(dp1307
g16
(lp1308
S'k'
asg18
S'Y'
sS'.thisRepN'
p1309
I13
sg20
S'Y'
sg31
g32
sS'.thisTrialN'
p1310
I10
sS'.thisN'
p1311
I153
sS'.thisIndex'
p1312
I8
sg15
(lp1313
S'k'
asg30
VF
sg17
S'Y'
sg14
I4
sg19
(lp1314
S'space'
p1315
asg94
I8
sa(dp1316
g16
(lp1317
S'd'
asg18
S'Y'
sS'.thisRepN'
p1318
I14
sg20
S'N'
sg31
g32
sS'.thisTrialN'
p1319
I0
sS'.thisN'
p1320
I154
sS'.thisIndex'
p1321
I2
sg15
(lp1322
S'd'
asg30
VF
sg17
S'Y'
sg14
I4
sg19
Nsg94
I2
sa(dp1323
g16
(lp1324
S'd'
asg18
S'Y'
sS'.thisRepN'
p1325
I14
sg20
S'Y'
sg31
g32
sS'.thisTrialN'
p1326
I1
sS'.thisN'
p1327
I155
sS'.thisIndex'
p1328
I9
sg15
(lp1329
S'k'
asg30
VF
sg17
S'N'
sg14
I4
sg19
(lp1330
S'space'
p1331
asg94
I9
sa(dp1332
g16
(lp1333
S'k'
asg18
S'Y'
sS'.thisRepN'
p1334
I14
sg20
S'Y'
sg31
g32
sS'.thisTrialN'
p1335
I2
sS'.thisN'
p1336
I156
sS'.thisIndex'
p1337
I6
sg15
(lp1338
S'd'
asg30
VF
sg17
S'N'
sg14
I4
sg19
(lp1339
S'space'
p1340
asg94
I6
sa(dp1341
g16
(lp1342
S'k'
asg18
S'N'
sS'.thisRepN'
p1343
I14
sg20
S'Y'
sg31
g32
sS'.thisTrialN'
p1344
I3
sS'.thisN'
p1345
I157
sS'.thisIndex'
p1346
I7
sg15
(lp1347
S'k'
asg30
VF
sg17
S'Y'
sg14
I4
sg19
Nsg94
I7
sa(dp1348
g16
(lp1349
S'd'
asg18
S'Y'
sS'.thisRepN'
p1350
I14
sg20
S'Y'
sg31
g32
sS'.thisTrialN'
p1351
I4
sS'.thisN'
p1352
I158
sS'.thisIndex'
p1353
I5
sg15
(lp1354
S'k'
asg30
VF
sg17
S'N'
sg14
I4
sg19
(lp1355
S'space'
p1356
asg94
I5
sa(dp1357
g16
(lp1358
S'd'
asg18
S'N'
sS'.thisRepN'
p1359
I14
sg20
S'Y'
sg31
g32
sS'.thisTrialN'
p1360
I5
sS'.thisN'
p1361
I159
sS'.thisIndex'
p1362
I10
sg15
(lp1363
S'd'
asg30
VF
sg17
S'Y'
sg14
I4
sg19
Nsg94
I10
sa(dp1364
g16
(lp1365
S'k'
asg18
S'Y'
sS'.thisRepN'
p1366
I14
sg20
S'Y'
sg31
g32
sS'.thisTrialN'
p1367
I6
sS'.thisN'
p1368
I160
sS'.thisIndex'
p1369
I9
sg15
(lp1370
S'k'
asg30
VF
sg17
S'Y'
sg14
I4
sg19
(lp1371
S'space'
p1372
asg94
I9
sa(dp1373
g16
(lp1374
S'd'
asg18
S'Y'
sS'.thisRepN'
p1375
I14
sg20
S'Y'
sg31
g32
sS'.thisTrialN'
p1376
I7
sS'.thisN'
p1377
I161
sS'.thisIndex'
p1378
I7
sg15
(lp1379
S'd'
asg30
VF
sg17
S'Y'
sg14
I4
sg19
(lp1380
S'space'
p1381
asg94
I7
sa(dp1382
g16
(lp1383
S'd'
asg18
S'Y'
sS'.thisRepN'
p1384
I14
sg20
S'Y'
sg31
g32
sS'.thisTrialN'
p1385
I8
sS'.thisN'
p1386
I162
sS'.thisIndex'
p1387
I10
sg15
(lp1388
S'k'
asg30
VF
sg17
S'N'
sg14
I4
sg19
(lp1389
S'space'
p1390
asg94
I10
sa(dp1391
g16
(lp1392
S'k'
asg18
S'Y'
sS'.thisRepN'
p1393
I14
sg20
S'Y'
sg31
g32
sS'.thisTrialN'
p1394
I9
sS'.thisN'
p1395
I163
sS'.thisIndex'
p1396
I2
sg15
(lp1397
S'd'
asg30
VF
sg17
S'N'
sg14
I4
sg19
(lp1398
S'space'
p1399
asg94
I2
sa(dp1400
g16
(lp1401
S'k'
asg18
S'Y'
sS'.thisRepN'
p1402
I14
sg20
S'Y'
sg31
g32
sS'.thisTrialN'
p1403
I10
sS'.thisN'
p1404
I164
sS'.thisIndex'
p1405
I3
sg15
(lp1406
S'k'
asg30
VF
sg17
S'Y'
sg14
I4
sg19
(lp1407
S'space'
p1408
asg94
I3
sa(dp1409
g16
(lp1410
S'd'
asg18
S'N'
sS'.thisRepN'
p1411
I15
sg20
S'Y'
sg31
g32
sS'.thisTrialN'
p1412
I0
sS'.thisN'
p1413
I165
sS'.thisIndex'
p1414
I4
sg15
(lp1415
S'd'
asg30
VF
sg17
S'Y'
sg14
I4
sg19
Nsg94
I4
sa(dp1416
g16
(lp1417
S'd'
asg18
S'N'
sS'.thisRepN'
p1418
I15
sg20
S'N'
sg31
g32
sS'.thisTrialN'
p1419
I1
sS'.thisN'
p1420
I166
sS'.thisIndex'
p1421
I10
sg15
(lp1422
S'd'
asg30
VF
sg17
S'Y'
sg14
I4
sg19
(lp1423
S'space'
p1424
asg94
I10
sa(dp1425
g16
(lp1426
S'd'
asg18
S'Y'
sS'.thisRepN'
p1427
I15
sg20
S'Y'
sg31
g32
sS'.thisTrialN'
p1428
I2
sS'.thisN'
p1429
I167
sS'.thisIndex'
p1430
I5
sg15
(lp1431
S'd'
asg30
VF
sg17
S'Y'
sg14
I4
sg19
(lp1432
S'space'
p1433
asg94
I5
sa(dp1434
g16
(lp1435
S'k'
asg18
S'Y'
sS'.thisRepN'
p1436
I15
sg20
S'Y'
sg31
g32
sS'.thisTrialN'
p1437
I3
sS'.thisN'
p1438
I168
sS'.thisIndex'
p1439
I9
sg15
(lp1440
S'k'
asg30
VF
sg17
S'Y'
sg14
I4
sg19
(lp1441
S'space'
p1442
asg94
I9
sa(dp1443
g16
(lp1444
S'd'
asg18
S'Y'
sS'.thisRepN'
p1445
I15
sg20
S'Y'
sg31
g32
sS'.thisTrialN'
p1446
I4
sS'.thisN'
p1447
I169
sS'.thisIndex'
p1448
I10
sg15
(lp1449
S'd'
asg30
VF
sg17
S'Y'
sg14
I4
sg19
(lp1450
S'space'
p1451
asg94
I10
sa(dp1452
g16
(lp1453
S'd'
asg18
S'N'
sS'.thisRepN'
p1454
I15
sg20
S'Y'
sg31
g32
sS'.thisTrialN'
p1455
I5
sS'.thisN'
p1456
I170
sS'.thisIndex'
p1457
I1
sg15
(lp1458
S'd'
asg30
VF
sg17
S'Y'
sg14
I4
sg19
Nsg94
I1
sa(dp1459
g16
(lp1460
S'k'
asg18
S'Y'
sS'.thisRepN'
p1461
I15
sg20
S'Y'
sg31
g32
sS'.thisTrialN'
p1462
I6
sS'.thisN'
p1463
I171
sS'.thisIndex'
p1464
I1
sg15
(lp1465
S'd'
asg30
VF
sg17
S'N'
sg14
I4
sg19
(lp1466
S'space'
p1467
asg94
I1
sa(dp1468
g16
(lp1469
S'd'
asg18
S'N'
sS'.thisRepN'
p1470
I15
sg20
S'Y'
sg31
g32
sS'.thisTrialN'
p1471
I7
sS'.thisN'
p1472
I172
sS'.thisIndex'
p1473
I0
sg15
(lp1474
S'k'
asg30
VF
sg17
S'N'
sg14
I4
sg19
Nsg94
I0
sa(dp1475
g16
(lp1476
S'k'
asg18
S'Y'
sS'.thisRepN'
p1477
I15
sg20
S'Y'
sg31
g32
sS'.thisTrialN'
p1478
I8
sS'.thisN'
p1479
I173
sS'.thisIndex'
p1480
I5
sg15
(lp1481
S'd'
asg30
VF
sg17
S'N'
sg14
I4
sg19
(lp1482
S'space'
p1483
asg94
I5
sa(dp1484
g16
(lp1485
S'd'
asg18
S'N'
sS'.thisRepN'
p1486
I15
sg20
S'Y'
sg31
g32
sS'.thisTrialN'
p1487
I9
sS'.thisN'
p1488
I174
sS'.thisIndex'
p1489
I10
sg15
(lp1490
S'd'
asg30
VF
sg17
S'Y'
sg14
I4
sg19
Nsg94
I10
sa(dp1491
g16
(lp1492
S'd'
asg18
S'Y'
sS'.thisRepN'
p1493
I15
sg20
S'Y'
sg31
g32
sS'.thisTrialN'
p1494
I10
sS'.thisN'
p1495
I175
sS'.thisIndex'
p1496
I9
sg15
(lp1497
S'k'
asg30
VF
sg17
S'N'
sg14
I4
sg19
(lp1498
S'space'
p1499
asg94
I9
sa(dp1500
g16
(lp1501
S'd'
asg18
S'N'
sS'.thisRepN'
p1502
I16
sg20
S'Y'
sg31
g32
sS'.thisTrialN'
p1503
I0
sS'.thisN'
p1504
I176
sS'.thisIndex'
p1505
I8
sg15
(lp1506
S'd'
asg30
VF
sg17
S'Y'
sg14
I4
sg19
Nsg94
I8
sa(dp1507
g16
(lp1508
S'd'
asg18
S'Y'
sS'.thisRepN'
p1509
I16
sg20
S'Y'
sg31
g32
sS'.thisTrialN'
p1510
I1
sS'.thisN'
p1511
I177
sS'.thisIndex'
p1512
I4
sg15
(lp1513
S'k'
asg30
VF
sg17
S'N'
sg14
I4
sg19
(lp1514
S'space'
p1515
asg94
I4
sa(dp1516
g16
(lp1517
S'k'
asg18
S'N'
sS'.thisRepN'
p1518
I16
sg20
S'N'
sg31
g32
sS'.thisTrialN'
p1519
I2
sS'.thisN'
p1520
I178
sS'.thisIndex'
p1521
I3
sg15
(lp1522
S'k'
asg30
VF
sg17
S'Y'
sg14
I4
sg19
(lp1523
S'd'
asg94
I3
sa(dp1524
g16
(lp1525
S'd'
asg18
S'Y'
sS'.thisRepN'
p1526
I16
sg20
S'N'
sg31
g32
sS'.thisTrialN'
p1527
I3
sS'.thisN'
p1528
I179
sS'.thisIndex'
p1529
I4
sg15
(lp1530
S'k'
asg30
VF
sg17
S'N'
sg14
I4
sg19
(lp1531
S'd'
asg94
I4
sa(dp1532
g18
S'Y'
sS'.thisRepN'
p1533
I16
sg20
S'Y'
sg31
g32
sS'.thisTrialN'
p1534
I4
sS'.thisN'
p1535
I180
sS'.thisIndex'
p1536
I4
sg15
Nsg30
VF
sg17
g135
sg14
I4
sg19
(lp1537
S'space'
p1538
asg94
I4
sa(dp1539
g16
(lp1540
S'k'
asg18
S'Y'
sS'.thisRepN'
p1541
I16
sg20
S'Y'
sg31
g32
sS'.thisTrialN'
p1542
I5
sS'.thisN'
p1543
I181
sS'.thisIndex'
p1544
I5
sg15
(lp1545
S'd'
asg30
VF
sg17
S'N'
sg14
I4
sg19
(lp1546
S'space'
p1547
asg94
I5
sa(dp1548
g16
(lp1549
S'k'
asg18
S'N'
sS'.thisRepN'
p1550
I16
sg20
S'Y'
sg31
g32
sS'.thisTrialN'
p1551
I6
sS'.thisN'
p1552
I182
sS'.thisIndex'
p1553
I3
sg15
(lp1554
S'd'
asg30
VF
sg17
S'N'
sg14
I4
sg19
Nsg94
I3
sa(dp1555
g16
(lp1556
S'k'
asg18
S'N'
sS'.thisRepN'
p1557
I16
sg20
S'Y'
sg31
g32
sS'.thisTrialN'
p1558
I7
sS'.thisN'
p1559
I183
sS'.thisIndex'
p1560
I0
sg15
(lp1561
S'k'
asg30
VF
sg17
S'Y'
sg14
I4
sg19
Nsg94
I0
sa(dp1562
g16
(lp1563
S'd'
asg18
S'Y'
sS'.thisRepN'
p1564
I16
sg20
S'Y'
sg31
g32
sS'.thisTrialN'
p1565
I8
sS'.thisN'
p1566
I184
sS'.thisIndex'
p1567
I4
sg15
(lp1568
S'd'
asg30
VF
sg17
S'Y'
sg14
I4
sg19
(lp1569
S'space'
p1570
asg94
I4
sa(dp1571
g16
(lp1572
S'k'
asg18
S'Y'
sS'.thisRepN'
p1573
I16
sg20
S'N'
sg31
g32
sS'.thisTrialN'
p1574
I9
sS'.thisN'
p1575
I185
sS'.thisIndex'
p1576
I0
sg15
(lp1577
S'k'
asg30
VF
sg17
S'Y'
sg14
I4
sg19
Nsg94
I0
sa(dp1578
g16
(lp1579
S'd'
asg18
S'Y'
sS'.thisRepN'
p1580
I16
sg20
S'Y'
sg31
g32
sS'.thisTrialN'
p1581
I10
sS'.thisN'
p1582
I186
sS'.thisIndex'
p1583
I6
sg15
(lp1584
S'd'
asg30
VF
sg17
S'Y'
sg14
I4
sg19
(lp1585
S'space'
p1586
asg94
I6
sa(dp1587
g16
(lp1588
S'd'
asg18
S'Y'
sS'.thisRepN'
p1589
I17
sg20
S'N'
sg31
g32
sS'.thisTrialN'
p1590
I0
sS'.thisN'
p1591
I187
sS'.thisIndex'
p1592
I9
sg15
(lp1593
S'k'
asg30
VF
sg17
S'N'
sg14
I4
sg19
Nsg94
I9
sa(dp1594
g16
(lp1595
S'd'
asg18
S'N'
sS'.thisRepN'
p1596
I17
sg20
S'N'
sg31
g32
sS'.thisTrialN'
p1597
I1
sS'.thisN'
p1598
I188
sS'.thisIndex'
p1599
I4
sg15
(lp1600
S'd'
asg30
VF
sg17
S'Y'
sg14
I4
sg19
(lp1601
S'space'
p1602
asg94
I4
sa(dp1603
g16
(lp1604
S'd'
asg18
S'N'
sS'.thisRepN'
p1605
I17
sg20
S'Y'
sg31
g32
sS'.thisTrialN'
p1606
I2
sS'.thisN'
p1607
I189
sS'.thisIndex'
p1608
I1
sg15
(lp1609
S'd'
asg30
VF
sg17
S'Y'
sg14
I4
sg19
Nsg94
I1
sa(dp1610
g16
(lp1611
S'k'
asg18
S'N'
sS'.thisRepN'
p1612
I17
sg20
S'Y'
sg31
g32
sS'.thisTrialN'
p1613
I3
sS'.thisN'
p1614
I190
sS'.thisIndex'
p1615
I4
sg15
(lp1616
S'k'
asg30
VF
sg17
S'Y'
sg14
I4
sg19
Nsg94
I4
sa(dp1617
g16
(lp1618
S'k'
asg18
S'N'
sS'.thisRepN'
p1619
I17
sg20
S'Y'
sg31
g32
sS'.thisTrialN'
p1620
I4
sS'.thisN'
p1621
I191
sS'.thisIndex'
p1622
I1
sg15
(lp1623
S'd'
asg30
VF
sg17
S'N'
sg14
I4
sg19
Nsg94
I1
sa(dp1624
g16
(lp1625
S'd'
asg18
S'N'
sS'.thisRepN'
p1626
I17
sg20
S'Y'
sg31
g32
sS'.thisTrialN'
p1627
I5
sS'.thisN'
p1628
I192
sS'.thisIndex'
p1629
I9
sg15
(lp1630
S'k'
asg30
VF
sg17
S'N'
sg14
I4
sg19
Nsg94
I9
sa(dp1631
g16
(lp1632
S'k'
asg18
S'N'
sS'.thisRepN'
p1633
I17
sg20
S'N'
sg31
g32
sS'.thisTrialN'
p1634
I6
sS'.thisN'
p1635
I193
sS'.thisIndex'
p1636
I9
sg15
(lp1637
S'k'
asg30
VF
sg17
S'Y'
sg14
I4
sg19
(lp1638
S'd'
asg94
I9
sa(dp1639
g16
(lp1640
S'k'
asg18
S'N'
sS'.thisRepN'
p1641
I17
sg20
S'Y'
sg31
g32
sS'.thisTrialN'
p1642
I7
sS'.thisN'
p1643
I194
sS'.thisIndex'
p1644
I6
sg15
(lp1645
S'k'
asg30
VF
sg17
S'Y'
sg14
I4
sg19
Nsg94
I6
sa(dp1646
g16
(lp1647
S'k'
asg18
S'N'
sS'.thisRepN'
p1648
I17
sg20
S'Y'
sg31
g32
sS'.thisTrialN'
p1649
I8
sS'.thisN'
p1650
I195
sS'.thisIndex'
p1651
I0
sg15
(lp1652
S'd'
asg30
VF
sg17
S'N'
sg14
I4
sg19
Nsg94
I0
sa(dp1653
g16
(lp1654
S'k'
asg18
S'N'
sS'.thisRepN'
p1655
I17
sg20
S'Y'
sg31
g32
sS'.thisTrialN'
p1656
I9
sS'.thisN'
p1657
I196
sS'.thisIndex'
p1658
I7
sg15
(lp1659
S'k'
asg30
VF
sg17
S'Y'
sg14
I4
sg19
Nsg94
I7
sa(dp1660
g16
(lp1661
S'd'
asg18
S'N'
sS'.thisRepN'
p1662
I17
sg20
S'N'
sg31
g32
sS'.thisTrialN'
p1663
I10
sS'.thisN'
p1664
I197
sS'.thisIndex'
p1665
I5
sg15
(lp1666
S'd'
asg30
VF
sg17
S'Y'
sg14
I4
sg19
(lp1667
S'k'
asg94
I5
sa(dp1668
g16
(lp1669
S'd'
asg18
S'N'
sS'.thisRepN'
p1670
I18
sg20
S'Y'
sg31
g32
sS'.thisTrialN'
p1671
I0
sS'.thisN'
p1672
I198
sS'.thisIndex'
p1673
I3
sg15
(lp1674
S'd'
asg30
VF
sg17
S'Y'
sg14
I4
sg19
Nsg94
I3
sa(dp1675
g16
(lp1676
S'd'
asg18
S'N'
sg22
I38
sS'.thisN'
p1677
I199
sg20
S'Y'
sg31
g32
sS'.thisTrialN'
p1678
I1
sS'.thisRepN'
p1679
I18
sg21
I30
sS'.thisIndex'
p1680
I7
sg23
I25
sg15
(lp1681
S'k'
asg30
VF
sg17
S'N'
sg14
I4
sg19
Nsg94
I7
sa(dp1682
g16
(lp1683
S'k'
asg94
I10
sS'.thisRepN'
p1684
I18
sg30
VF
sg31
g32
sS'.thisTrialN'
p1685
I2
sS'.thisN'
p1686
I200
sS'.thisIndex'
p1687
I10
sg15
(lp1688
S'k'
asg17
S'Y'
sg14
I5
sa(dp1689
g16
(lp1690
S'k'
asg94
I6
sS'.thisRepN'
p1691
I18
sg30
VF
sg31
g32
sS'.thisTrialN'
p1692
I3
sS'.thisN'
p1693
I201
sS'.thisIndex'
p1694
I6
sg15
(lp1695
S'd'
asg17
S'N'
sg14
I5
sa(dp1696
g16
(lp1697
S'd'
asg18
S'Y'
sS'.thisRepN'
p1698
I18
sg20
S'Y'
sg31
g32
sS'.thisTrialN'
p1699
I4
sS'.thisN'
p1700
I202
sS'.thisIndex'
p1701
I7
sg15
(lp1702
S'k'
asg30
VF
sg17
S'N'
sg14
I5
sg19
(lp1703
S'space'
p1704
asg94
I7
sa(dp1705
g16
(lp1706
S'k'
asg18
S'Y'
sS'.thisRepN'
p1707
I18
sg20
S'Y'
sg31
g32
sS'.thisTrialN'
p1708
I5
sS'.thisN'
p1709
I203
sS'.thisIndex'
p1710
I2
sg15
(lp1711
S'd'
asg30
VF
sg17
S'N'
sg14
I5
sg19
(lp1712
S'space'
p1713
asg94
I2
sa(dp1714
g16
(lp1715
S'k'
asg18
S'Y'
sS'.thisRepN'
p1716
I18
sg20
S'Y'
sg31
g32
sS'.thisTrialN'
p1717
I6
sS'.thisN'
p1718
I204
sS'.thisIndex'
p1719
I6
sg15
(lp1720
S'k'
asg30
VF
sg17
S'Y'
sg14
I5
sg19
(lp1721
S'space'
p1722
asg94
I6
sa(dp1723
g16
(lp1724
S'k'
asg18
S'Y'
sS'.thisRepN'
p1725
I18
sg20
S'N'
sg31
g32
sS'.thisTrialN'
p1726
I7
sS'.thisN'
p1727
I205
sS'.thisIndex'
p1728
I6
sg15
(lp1729
S'k'
asg30
VF
sg17
S'Y'
sg14
I5
sg19
Nsg94
I6
sa(dp1730
g16
(lp1731
S'd'
asg18
S'Y'
sS'.thisRepN'
p1732
I18
sg20
S'Y'
sg31
g32
sS'.thisTrialN'
p1733
I8
sS'.thisN'
p1734
I206
sS'.thisIndex'
p1735
I5
sg15
(lp1736
S'd'
asg30
VF
sg17
S'Y'
sg14
I5
sg19
(lp1737
S'space'
p1738
asg94
I5
sa(dp1739
g16
(lp1740
S'k'
asg18
S'N'
sS'.thisRepN'
p1741
I18
sg20
S'Y'
sg31
g32
sS'.thisTrialN'
p1742
I9
sS'.thisN'
p1743
I207
sS'.thisIndex'
p1744
I4
sg15
(lp1745
S'k'
asg30
VF
sg17
S'Y'
sg14
I5
sg19
Nsg94
I4
sa(dp1746
g16
(lp1747
S'd'
asg18
S'Y'
sS'.thisRepN'
p1748
I18
sg20
S'N'
sg31
g32
sS'.thisTrialN'
p1749
I10
sS'.thisN'
p1750
I208
sS'.thisIndex'
p1751
I10
sg15
(lp1752
S'k'
asg30
VF
sg17
S'N'
sg14
I5
sg19
(lp1753
S'd'
asg94
I10
sa(dp1754
g16
(lp1755
S'k'
asg18
S'Y'
sS'.thisRepN'
p1756
I19
sg20
S'N'
sg31
g32
sS'.thisTrialN'
p1757
I0
sS'.thisN'
p1758
I209
sS'.thisIndex'
p1759
I3
sg15
(lp1760
S'd'
asg30
VF
sg17
S'N'
sg14
I5
sg19
Nsg94
I3
sa(dp1761
g16
(lp1762
S'd'
asg18
S'Y'
sS'.thisRepN'
p1763
I19
sg20
S'Y'
sg31
g32
sS'.thisTrialN'
p1764
I1
sS'.thisN'
p1765
I210
sS'.thisIndex'
p1766
I6
sg15
(lp1767
S'k'
asg30
VF
sg17
S'N'
sg14
I5
sg19
(lp1768
S'space'
p1769
asg94
I6
sa(dp1770
g16
(lp1771
S'd'
asg18
S'N'
sS'.thisRepN'
p1772
I19
sg20
S'Y'
sg31
g32
sS'.thisTrialN'
p1773
I2
sS'.thisN'
p1774
I211
sS'.thisIndex'
p1775
I0
sg15
(lp1776
S'd'
asg30
VF
sg17
S'Y'
sg14
I5
sg19
Nsg94
I0
sa(dp1777
g16
(lp1778
S'd'
asg18
S'N'
sS'.thisRepN'
p1779
I19
sg20
S'N'
sg31
g32
sS'.thisTrialN'
p1780
I3
sS'.thisN'
p1781
I212
sS'.thisIndex'
p1782
I4
sg15
(lp1783
S'd'
asg30
VF
sg17
S'Y'
sg14
I5
sg19
(lp1784
S'space'
p1785
asg94
I4
sa(dp1786
g16
(lp1787
S'd'
asg18
S'N'
sS'.thisRepN'
p1788
I19
sg20
S'Y'
sg31
g32
sS'.thisTrialN'
p1789
I4
sS'.thisN'
p1790
I213
sS'.thisIndex'
p1791
I8
sg15
(lp1792
S'k'
asg30
VF
sg17
S'N'
sg14
I5
sg19
Nsg94
I8
sa(dp1793
g16
(lp1794
S'k'
asg18
S'Y'
sS'.thisRepN'
p1795
I19
sg20
S'Y'
sg31
g32
sS'.thisTrialN'
p1796
I5
sS'.thisN'
p1797
I214
sS'.thisIndex'
p1798
I9
sg15
(lp1799
S'd'
asg30
VF
sg17
S'N'
sg14
I5
sg19
(lp1800
S'space'
p1801
asg94
I9
sa(dp1802
g16
(lp1803
S'd'
asg18
S'N'
sS'.thisRepN'
p1804
I19
sg20
S'Y'
sg31
g32
sS'.thisTrialN'
p1805
I6
sS'.thisN'
p1806
I215
sS'.thisIndex'
p1807
I4
sg15
(lp1808
S'k'
asg30
VF
sg17
S'N'
sg14
I5
sg19
Nsg94
I4
sa(dp1809
g16
(lp1810
S'k'
asg18
S'Y'
sS'.thisRepN'
p1811
I19
sg20
S'Y'
sg31
g32
sS'.thisTrialN'
p1812
I7
sS'.thisN'
p1813
I216
sS'.thisIndex'
p1814
I8
sg15
(lp1815
S'd'
asg30
VF
sg17
S'N'
sg14
I5
sg19
(lp1816
S'space'
p1817
asg94
I8
sa(dp1818
g16
(lp1819
S'd'
asg18
S'N'
sS'.thisRepN'
p1820
I19
sg20
S'Y'
sg31
g32
sS'.thisTrialN'
p1821
I8
sS'.thisN'
p1822
I217
sS'.thisIndex'
p1823
I0
sg15
(lp1824
S'k'
asg30
VF
sg17
S'N'
sg14
I5
sg19
Nsg94
I0
sa(dp1825
g16
(lp1826
S'k'
asg18
S'N'
sS'.thisRepN'
p1827
I19
sg20
S'Y'
sg31
g32
sS'.thisTrialN'
p1828
I9
sS'.thisN'
p1829
I218
sS'.thisIndex'
p1830
I9
sg15
(lp1831
S'd'
asg30
VF
sg17
S'N'
sg14
I5
sg19
Nsg94
I9
sa(dp1832
g16
(lp1833
S'd'
asg18
S'N'
sS'.thisRepN'
p1834
I19
sg20
S'Y'
sg31
g32
sS'.thisTrialN'
p1835
I10
sS'.thisN'
p1836
I219
sS'.thisIndex'
p1837
I10
sg15
(lp1838
S'k'
asg30
VF
sg17
S'N'
sg14
I5
sg19
Nsg94
I10
sa(dp1839
g16
(lp1840
S'd'
asg18
S'Y'
sS'.thisRepN'
p1841
I20
sg20
S'N'
sg31
g32
sS'.thisTrialN'
p1842
I0
sS'.thisN'
p1843
I220
sS'.thisIndex'
p1844
I6
sg15
(lp1845
S'd'
asg30
VF
sg17
S'Y'
sg14
I5
sg19
Nsg94
I6
sa(dp1846
g16
(lp1847
S'd'
asg18
S'Y'
sS'.thisRepN'
p1848
I20
sg20
S'Y'
sg31
g32
sS'.thisTrialN'
p1849
I1
sS'.thisN'
p1850
I221
sS'.thisIndex'
p1851
I5
sg15
(lp1852
S'k'
asg30
VF
sg17
S'N'
sg14
I5
sg19
(lp1853
S'space'
p1854
asg94
I5
sa(dp1855
g16
(lp1856
S'k'
asg18
S'N'
sS'.thisRepN'
p1857
I20
sg20
S'N'
sg31
g32
sS'.thisTrialN'
p1858
I2
sS'.thisN'
p1859
I222
sS'.thisIndex'
p1860
I6
sg15
(lp1861
S'd'
asg30
VF
sg17
S'N'
sg14
I5
sg19
(lp1862
S'd'
asg94
I6
sa(dp1863
g16
(lp1864
S'k'
asg18
S'N'
sS'.thisRepN'
p1865
I20
sg20
S'N'
sg31
g32
sS'.thisTrialN'
p1866
I3
sS'.thisN'
p1867
I223
sS'.thisIndex'
p1868
I0
sg15
(lp1869
S'k'
asg30
VF
sg17
S'Y'
sg14
I5
sg19
(lp1870
S'k'
asg94
I0
sa(dp1871
g16
(lp1872
S'd'
asg18
S'Y'
sS'.thisRepN'
p1873
I20
sg20
S'Y'
sg31
g32
sS'.thisTrialN'
p1874
I4
sS'.thisN'
p1875
I224
sS'.thisIndex'
p1876
I5
sg15
(lp1877
S'd'
asg30
VF
sg17
S'Y'
sg14
I5
sg19
(lp1878
S'space'
p1879
asg94
I5
sa(dp1880
g16
(lp1881
S'k'
asg18
S'Y'
sS'.thisRepN'
p1882
I20
sg20
S'Y'
sg31
g32
sS'.thisTrialN'
p1883
I5
sS'.thisN'
p1884
I225
sS'.thisIndex'
p1885
I1
sg15
(lp1886
S'k'
asg30
VF
sg17
S'Y'
sg14
I5
sg19
(lp1887
S'space'
p1888
asg94
I1
sa(dp1889
g16
(lp1890
S'd'
asg18
S'Y'
sS'.thisRepN'
p1891
I20
sg20
S'Y'
sg31
g32
sS'.thisTrialN'
p1892
I6
sS'.thisN'
p1893
I226
sS'.thisIndex'
p1894
I9
sg15
(lp1895
S'd'
asg30
VF
sg17
S'Y'
sg14
I5
sg19
(lp1896
S'space'
p1897
asg94
I9
sa(dp1898
g16
(lp1899
S'k'
asg18
S'N'
sS'.thisRepN'
p1900
I20
sg20
S'Y'
sg31
g32
sS'.thisTrialN'
p1901
I7
sS'.thisN'
p1902
I227
sS'.thisIndex'
p1903
I0
sg15
(lp1904
S'k'
asg30
VF
sg17
S'Y'
sg14
I5
sg19
Nsg94
I0
sa(dp1905
g16
(lp1906
S'k'
asg18
S'N'
sS'.thisRepN'
p1907
I20
sg20
S'Y'
sg31
g32
sS'.thisTrialN'
p1908
I8
sS'.thisN'
p1909
I228
sS'.thisIndex'
p1910
I9
sg15
(lp1911
S'k'
asg30
VF
sg17
S'Y'
sg14
I5
sg19
Nsg94
I9
sa(dp1912
g16
(lp1913
S'k'
asg18
S'N'
sS'.thisRepN'
p1914
I20
sg20
S'Y'
sg31
g32
sS'.thisTrialN'
p1915
I9
sS'.thisN'
p1916
I229
sS'.thisIndex'
p1917
I2
sg15
(lp1918
S'd'
asg30
VF
sg17
S'N'
sg14
I5
sg19
Nsg94
I2
sa(dp1919
g16
(lp1920
S'd'
asg18
S'Y'
sS'.thisRepN'
p1921
I20
sg20
S'Y'
sg31
g32
sS'.thisTrialN'
p1922
I10
sS'.thisN'
p1923
I230
sS'.thisIndex'
p1924
I8
sg15
(lp1925
S'k'
asg30
VF
sg17
S'N'
sg14
I5
sg19
(lp1926
S'space'
p1927
asg94
I8
sa(dp1928
g16
(lp1929
S'k'
asg18
S'N'
sS'.thisRepN'
p1930
I21
sg20
S'N'
sg31
g32
sS'.thisTrialN'
p1931
I0
sS'.thisN'
p1932
I231
sS'.thisIndex'
p1933
I9
sg15
(lp1934
S'd'
asg30
VF
sg17
S'N'
sg14
I5
sg19
(lp1935
S'space'
p1936
asg94
I9
sa(dp1937
g16
(lp1938
S'd'
asg18
S'N'
sS'.thisRepN'
p1939
I21
sg20
S'N'
sg31
g32
sS'.thisTrialN'
p1940
I1
sS'.thisN'
p1941
I232
sS'.thisIndex'
p1942
I9
sg15
(lp1943
S'k'
asg30
VF
sg17
S'N'
sg14
I5
sg19
(lp1944
S'space'
p1945
asg94
I9
sa(dp1946
g16
(lp1947
S'k'
asg18
S'N'
sS'.thisRepN'
p1948
I21
sg20
S'N'
sg31
g32
sS'.thisTrialN'
p1949
I2
sS'.thisN'
p1950
I233
sS'.thisIndex'
p1951
I8
sg15
(lp1952
S'd'
asg30
VF
sg17
S'N'
sg14
I5
sg19
(lp1953
S'space'
p1954
asg94
I8
sa(dp1955
g16
(lp1956
S'k'
asg18
S'N'
sS'.thisRepN'
p1957
I21
sg20
S'Y'
sg31
g32
sS'.thisTrialN'
p1958
I3
sS'.thisN'
p1959
I234
sS'.thisIndex'
p1960
I2
sg15
(lp1961
S'k'
asg30
VF
sg17
S'Y'
sg14
I5
sg19
Nsg94
I2
sa(dp1962
g16
(lp1963
S'k'
asg18
S'Y'
sS'.thisRepN'
p1964
I21
sg20
S'N'
sg31
g32
sS'.thisTrialN'
p1965
I4
sS'.thisN'
p1966
I235
sS'.thisIndex'
p1967
I4
sg15
(lp1968
S'k'
asg30
VF
sg17
S'Y'
sg14
I5
sg19
Nsg94
I4
sa(dp1969
g16
(lp1970
S'd'
asg18
S'N'
sS'.thisRepN'
p1971
I21
sg20
S'Y'
sg31
g32
sS'.thisTrialN'
p1972
I5
sS'.thisN'
p1973
I236
sS'.thisIndex'
p1974
I1
sg15
(lp1975
S'd'
asg30
VF
sg17
S'Y'
sg14
I5
sg19
Nsg94
I1
sa(dp1976
g16
(lp1977
S'd'
asg18
S'N'
sS'.thisRepN'
p1978
I21
sg20
S'N'
sg31
g32
sS'.thisTrialN'
p1979
I6
sS'.thisN'
p1980
I237
sS'.thisIndex'
p1981
I1
sg15
(lp1982
S'k'
asg30
VF
sg17
S'N'
sg14
I5
sg19
(lp1983
S'space'
p1984
asg94
I1
sa(dp1985
g16
(lp1986
S'k'
asg18
S'Y'
sS'.thisRepN'
p1987
I21
sg20
S'Y'
sg31
g32
sS'.thisTrialN'
p1988
I7
sS'.thisN'
p1989
I238
sS'.thisIndex'
p1990
I0
sg15
(lp1991
S'd'
asg30
VF
sg17
S'N'
sg14
I5
sg19
(lp1992
S'space'
p1993
asg94
I0
sa(dp1994
g16
(lp1995
S'k'
asg18
S'Y'
sS'.thisRepN'
p1996
I21
sg20
S'Y'
sg31
g32
sS'.thisTrialN'
p1997
I8
sS'.thisN'
p1998
I239
sS'.thisIndex'
p1999
I1
sg15
(lp2000
S'k'
asg30
VF
sg17
S'Y'
sg14
I5
sg19
(lp2001
S'space'
p2002
asg94
I1
sa(dp2003
g16
(lp2004
S'k'
asg18
S'Y'
sS'.thisRepN'
p2005
I21
sg20
S'Y'
sg31
g32
sS'.thisTrialN'
p2006
I9
sS'.thisN'
p2007
I240
sS'.thisIndex'
p2008
I10
sg15
(lp2009
S'd'
asg30
VF
sg17
S'N'
sg14
I5
sg19
(lp2010
S'space'
p2011
asg94
I10
sa(dp2012
g16
(lp2013
S'k'
asg18
S'Y'
sS'.thisRepN'
p2014
I21
sg20
S'Y'
sg31
g32
sS'.thisTrialN'
p2015
I10
sS'.thisN'
p2016
I241
sS'.thisIndex'
p2017
I3
sg15
(lp2018
S'k'
asg30
VF
sg17
S'Y'
sg14
I5
sg19
(lp2019
S'space'
p2020
asg94
I3
sa(dp2021
g16
(lp2022
S'd'
asg18
S'Y'
sS'.thisRepN'
p2023
I22
sg20
S'Y'
sg31
g32
sS'.thisTrialN'
p2024
I0
sS'.thisN'
p2025
I242
sS'.thisIndex'
p2026
I2
sg15
(lp2027
S'k'
asg30
VF
sg17
S'N'
sg14
I5
sg19
(lp2028
S'space'
p2029
asg94
I2
sa(dp2030
g16
(lp2031
S'k'
asg18
S'N'
sS'.thisRepN'
p2032
I22
sg20
S'N'
sg31
g32
sS'.thisTrialN'
p2033
I1
sS'.thisN'
p2034
I243
sS'.thisIndex'
p2035
I1
sg15
(lp2036
S'd'
asg30
VF
sg17
S'N'
sg14
I5
sg19
(lp2037
S'space'
p2038
asg94
I1
sa(dp2039
g16
(lp2040
S'k'
asg18
S'N'
sS'.thisRepN'
p2041
I22
sg20
S'N'
sg31
g32
sS'.thisTrialN'
p2042
I2
sS'.thisN'
p2043
I244
sS'.thisIndex'
p2044
I4
sg15
(lp2045
S'k'
asg30
VF
sg17
S'Y'
sg14
I5
sg19
(lp2046
S'space'
p2047
asg94
I4
sa(dp2048
g16
(lp2049
S'k'
asg18
S'N'
sS'.thisRepN'
p2050
I22
sg20
S'N'
sg31
g32
sS'.thisTrialN'
p2051
I3
sS'.thisN'
p2052
I245
sS'.thisIndex'
p2053
I3
sg15
(lp2054
S'd'
asg30
VF
sg17
S'N'
sg14
I5
sg19
(lp2055
S'space'
p2056
asg94
I3
sa(dp2057
g16
(lp2058
S'k'
asg18
S'Y'
sS'.thisRepN'
p2059
I22
sg20
S'N'
sg31
g32
sS'.thisTrialN'
p2060
I4
sS'.thisN'
p2061
I246
sS'.thisIndex'
p2062
I8
sg15
(lp2063
S'k'
asg30
VF
sg17
S'Y'
sg14
I5
sg19
(lp2064
S'k'
asg94
I8
sa(dp2065
g16
(lp2066
S'd'
asg18
S'N'
sS'.thisRepN'
p2067
I22
sg20
S'N'
sg31
g32
sS'.thisTrialN'
p2068
I5
sS'.thisN'
p2069
I247
sS'.thisIndex'
p2070
I4
sg15
(lp2071
S'd'
asg30
VF
sg17
S'Y'
sg14
I5
sg19
(lp2072
S'space'
p2073
asg94
I4
sa(dp2074
g16
(lp2075
S'd'
asg18
S'Y'
sS'.thisRepN'
p2076
I22
sg20
S'N'
sg31
g32
sS'.thisTrialN'
p2077
I6
sS'.thisN'
p2078
I248
sS'.thisIndex'
p2079
I7
sg15
(lp2080
S'k'
asg30
VF
sg17
S'N'
sg14
I5
sg19
Nsg94
I7
sa(dp2081
g16
(lp2082
S'd'
asg18
S'N'
sg22
I30
sS'.thisN'
p2083
I249
sg20
S'Y'
sg31
g32
sS'.thisTrialN'
p2084
I7
sS'.thisRepN'
p2085
I22
sg21
I23
sS'.thisIndex'
p2086
I0
sg23
I24
sg15
(lp2087
S'd'
asg30
VF
sg17
S'Y'
sg14
I5
sg19
Nsg94
I0
sa(dp2088
g16
(lp2089
S'k'
asg94
I10
sS'.thisRepN'
p2090
I22
sg30
VF
sg31
g32
sS'.thisTrialN'
p2091
I8
sS'.thisN'
p2092
I250
sS'.thisIndex'
p2093
I10
sg15
(lp2094
S'k'
asg17
S'Y'
sg14
I6
sa(dp2095
g16
(lp2096
S'd'
asg94
I2
sS'.thisRepN'
p2097
I22
sg30
VF
sg31
g32
sS'.thisTrialN'
p2098
I9
sS'.thisN'
p2099
I251
sS'.thisIndex'
p2100
I2
sg15
(lp2101
S'd'
asg17
S'Y'
sg14
I6
sa(dp2102
g16
(lp2103
S'k'
asg18
S'N'
sS'.thisRepN'
p2104
I22
sg20
S'Y'
sg31
g32
sS'.thisTrialN'
p2105
I10
sS'.thisN'
p2106
I252
sS'.thisIndex'
p2107
I6
sg15
(lp2108
S'd'
asg30
VF
sg17
S'N'
sg14
I6
sg19
Nsg94
I6
sa(dp2109
g16
(lp2110
S'd'
asg18
S'N'
sS'.thisRepN'
p2111
I23
sg20
S'Y'
sg31
g32
sS'.thisTrialN'
p2112
I0
sS'.thisN'
p2113
I253
sS'.thisIndex'
p2114
I6
sg15
(lp2115
S'k'
asg30
VF
sg17
S'N'
sg14
I6
sg19
Nsg94
I6
sa(dp2116
g16
(lp2117
S'd'
asg18
S'N'
sS'.thisRepN'
p2118
I23
sg20
S'Y'
sg31
g32
sS'.thisTrialN'
p2119
I1
sS'.thisN'
p2120
I254
sS'.thisIndex'
p2121
I7
sg15
(lp2122
S'd'
asg30
VF
sg17
S'Y'
sg14
I6
sg19
Nsg94
I7
sa(dp2123
g16
(lp2124
S'd'
asg18
S'Y'
sS'.thisRepN'
p2125
I23
sg20
S'Y'
sg31
g32
sS'.thisTrialN'
p2126
I2
sS'.thisN'
p2127
I255
sS'.thisIndex'
p2128
I2
sg15
(lp2129
S'k'
asg30
VF
sg17
S'N'
sg14
I6
sg19
(lp2130
S'space'
p2131
asg94
I2
sa(dp2132
g16
(lp2133
S'd'
asg18
S'N'
sS'.thisRepN'
p2134
I23
sg20
S'N'
sg31
g32
sS'.thisTrialN'
p2135
I3
sS'.thisN'
p2136
I256
sS'.thisIndex'
p2137
I7
sg15
(lp2138
S'd'
asg30
VF
sg17
S'Y'
sg14
I6
sg19
(lp2139
S'space'
p2140
asg94
I7
sa(dp2141
g16
(lp2142
S'd'
asg18
S'N'
sS'.thisRepN'
p2143
I23
sg20
S'Y'
sg31
g32
sS'.thisTrialN'
p2144
I4
sS'.thisN'
p2145
I257
sS'.thisIndex'
p2146
I1
sg15
(lp2147
S'k'
asg30
VF
sg17
S'N'
sg14
I6
sg19
Nsg94
I1
sa(dp2148
g16
(lp2149
S'k'
asg18
S'N'
sS'.thisRepN'
p2150
I23
sg20
S'Y'
sg31
g32
sS'.thisTrialN'
p2151
I5
sS'.thisN'
p2152
I258
sS'.thisIndex'
p2153
I0
sg15
(lp2154
S'd'
asg30
VF
sg17
S'N'
sg14
I6
sg19
Nsg94
I0
sa(dp2155
g16
(lp2156
S'k'
asg18
S'N'
sS'.thisRepN'
p2157
I23
sg20
S'Y'
sg31
g32
sS'.thisTrialN'
p2158
I6
sS'.thisN'
p2159
I259
sS'.thisIndex'
p2160
I10
sg15
(lp2161
S'k'
asg30
VF
sg17
S'Y'
sg14
I6
sg19
Nsg94
I10
sa(dp2162
g16
(lp2163
S'k'
asg18
S'Y'
sS'.thisRepN'
p2164
I23
sg20
S'Y'
sg31
g32
sS'.thisTrialN'
p2165
I7
sS'.thisN'
p2166
I260
sS'.thisIndex'
p2167
I0
sg15
(lp2168
S'd'
asg30
VF
sg17
S'N'
sg14
I6
sg19
(lp2169
S'space'
p2170
asg94
I0
sa(dp2171
g16
(lp2172
S'd'
asg18
S'Y'
sS'.thisRepN'
p2173
I23
sg20
S'Y'
sg31
g32
sS'.thisTrialN'
p2174
I8
sS'.thisN'
p2175
I261
sS'.thisIndex'
p2176
I1
sg15
(lp2177
S'k'
asg30
VF
sg17
S'N'
sg14
I6
sg19
(lp2178
S'space'
p2179
asg94
I1
sa(dp2180
g16
(lp2181
S'd'
asg18
S'N'
sS'.thisRepN'
p2182
I23
sg20
S'Y'
sg31
g32
sS'.thisTrialN'
p2183
I9
sS'.thisN'
p2184
I262
sS'.thisIndex'
p2185
I2
sg15
(lp2186
S'k'
asg30
VF
sg17
S'N'
sg14
I6
sg19
Nsg94
I2
sa(dp2187
g16
(lp2188
S'k'
asg18
S'N'
sS'.thisRepN'
p2189
I23
sg20
S'Y'
sg31
g32
sS'.thisTrialN'
p2190
I10
sS'.thisN'
p2191
I263
sS'.thisIndex'
p2192
I4
sg15
(lp2193
S'd'
asg30
VF
sg17
S'N'
sg14
I6
sg19
Nsg94
I4
sa(dp2194
g16
(lp2195
S'k'
asg18
S'N'
sS'.thisRepN'
p2196
I24
sg20
S'Y'
sg31
g32
sS'.thisTrialN'
p2197
I0
sS'.thisN'
p2198
I264
sS'.thisIndex'
p2199
I10
sg15
(lp2200
S'k'
asg30
VF
sg17
S'Y'
sg14
I6
sg19
Nsg94
I10
sa(dp2201
g16
(lp2202
S'd'
asg18
S'Y'
sS'.thisRepN'
p2203
I24
sg20
S'N'
sg31
g32
sS'.thisTrialN'
p2204
I1
sS'.thisN'
p2205
I265
sS'.thisIndex'
p2206
I8
sg15
(lp2207
S'k'
asg30
VF
sg17
S'N'
sg14
I6
sg19
Nsg94
I8
sa(dp2208
g16
(lp2209
S'k'
asg18
S'Y'
sS'.thisRepN'
p2210
I24
sg20
S'N'
sg31
g32
sS'.thisTrialN'
p2211
I2
sS'.thisN'
p2212
I266
sS'.thisIndex'
p2213
I0
sg15
(lp2214
S'k'
asg30
VF
sg17
S'Y'
sg14
I6
sg19
(lp2215
S'd'
asg94
I0
sa(dp2216
g16
(lp2217
S'k'
asg18
S'N'
sS'.thisRepN'
p2218
I24
sg20
S'Y'
sg31
g32
sS'.thisTrialN'
p2219
I3
sS'.thisN'
p2220
I267
sS'.thisIndex'
p2221
I8
sg15
(lp2222
S'k'
asg30
VF
sg17
S'Y'
sg14
I6
sg19
Nsg94
I8
sa(dp2223
g16
(lp2224
S'd'
asg18
S'N'
sS'.thisRepN'
p2225
I24
sg20
S'Y'
sg31
g32
sS'.thisTrialN'
p2226
I4
sS'.thisN'
p2227
I268
sS'.thisIndex'
p2228
I4
sg15
(lp2229
S'k'
asg30
VF
sg17
S'N'
sg14
I6
sg19
Nsg94
I4
sa(dp2230
g16
(lp2231
S'd'
asg18
S'Y'
sS'.thisRepN'
p2232
I24
sg20
S'Y'
sg31
g32
sS'.thisTrialN'
p2233
I5
sS'.thisN'
p2234
I269
sS'.thisIndex'
p2235
I1
sg15
(lp2236
S'd'
asg30
VF
sg17
S'Y'
sg14
I6
sg19
(lp2237
S'space'
p2238
asg94
I1
sa(dp2239
g16
(lp2240
S'k'
asg18
S'N'
sS'.thisRepN'
p2241
I24
sg20
S'Y'
sg31
g32
sS'.thisTrialN'
p2242
I6
sS'.thisN'
p2243
I270
sS'.thisIndex'
p2244
I7
sg15
(lp2245
S'k'
asg30
VF
sg17
S'Y'
sg14
I6
sg19
Nsg94
I7
sa(dp2246
g16
(lp2247
S'd'
asg18
S'N'
sS'.thisRepN'
p2248
I24
sg20
S'N'
sg31
g32
sS'.thisTrialN'
p2249
I7
sS'.thisN'
p2250
I271
sS'.thisIndex'
p2251
I4
sg15
(lp2252
S'k'
asg30
VF
sg17
S'N'
sg14
I6
sg19
(lp2253
S'space'
p2254
asg94
I4
sa(dp2255
g16
(lp2256
S'd'
asg18
S'Y'
sS'.thisRepN'
p2257
I24
sg20
S'Y'
sg31
g32
sS'.thisTrialN'
p2258
I8
sS'.thisN'
p2259
I272
sS'.thisIndex'
p2260
I2
sg15
(lp2261
S'd'
asg30
VF
sg17
S'Y'
sg14
I6
sg19
(lp2262
S'space'
p2263
asg94
I2
sa(dp2264
g16
(lp2265
S'k'
asg18
S'Y'
sS'.thisRepN'
p2266
I24
sg20
S'Y'
sg31
g32
sS'.thisTrialN'
p2267
I9
sS'.thisN'
p2268
I273
sS'.thisIndex'
p2269
I5
sg15
(lp2270
S'd'
asg30
VF
sg17
S'N'
sg14
I6
sg19
(lp2271
S'space'
p2272
asg94
I5
sa(dp2273
g16
(lp2274
S'd'
asg18
S'Y'
sS'.thisRepN'
p2275
I24
sg20
S'N'
sg31
g32
sS'.thisTrialN'
p2276
I10
sS'.thisN'
p2277
I274
sS'.thisIndex'
p2278
I8
sg15
(lp2279
S'k'
asg30
VF
sg17
S'N'
sg14
I6
sg19
(lp2280
S'k'
asg94
I8
sa(dp2281
g16
(lp2282
S'k'
asg18
S'Y'
sS'.thisRepN'
p2283
I25
sg20
S'N'
sg31
g32
sS'.thisTrialN'
p2284
I0
sS'.thisN'
p2285
I275
sS'.thisIndex'
p2286
I0
sg15
(lp2287
S'k'
asg30
VF
sg17
S'Y'
sg14
I6
sg19
(lp2288
S'd'
asg94
I0
sa(dp2289
g16
(lp2290
S'k'
asg18
S'N'
sS'.thisRepN'
p2291
I25
sg20
S'N'
sg31
g32
sS'.thisTrialN'
p2292
I1
sS'.thisN'
p2293
I276
sS'.thisIndex'
p2294
I10
sg15
(lp2295
S'd'
asg30
VF
sg17
S'N'
sg14
I6
sg19
(lp2296
S'space'
p2297
asg94
I10
sa(dp2298
g16
(lp2299
S'k'
asg18
S'N'
sS'.thisRepN'
p2300
I25
sg20
S'Y'
sg31
g32
sS'.thisTrialN'
p2301
I2
sS'.thisN'
p2302
I277
sS'.thisIndex'
p2303
I1
sg15
(lp2304
S'k'
asg30
VF
sg17
S'Y'
sg14
I6
sg19
Nsg94
I1
sa(dp2305
g16
(lp2306
S'd'
asg18
S'Y'
sS'.thisRepN'
p2307
I25
sg20
S'Y'
sg31
g32
sS'.thisTrialN'
p2308
I3
sS'.thisN'
p2309
I278
sS'.thisIndex'
p2310
I8
sg15
(lp2311
S'd'
asg30
VF
sg17
S'Y'
sg14
I6
sg19
(lp2312
S'space'
p2313
asg94
I8
sa(dp2314
g16
(lp2315
S'k'
asg18
S'Y'
sS'.thisRepN'
p2316
I25
sg20
S'Y'
sg31
g32
sS'.thisTrialN'
p2317
I4
sS'.thisN'
p2318
I279
sS'.thisIndex'
p2319
I9
sg15
(lp2320
S'd'
asg30
VF
sg17
S'N'
sg14
I6
sg19
(lp2321
S'space'
p2322
asg94
I9
sa(dp2323
g16
(lp2324
S'd'
asg18
S'N'
sS'.thisRepN'
p2325
I25
sg20
S'Y'
sg31
g32
sS'.thisTrialN'
p2326
I5
sS'.thisN'
p2327
I280
sS'.thisIndex'
p2328
I3
sg15
(lp2329
S'k'
asg30
VF
sg17
S'N'
sg14
I6
sg19
Nsg94
I3
sa(dp2330
g16
(lp2331
S'd'
asg18
S'Y'
sS'.thisRepN'
p2332
I25
sg20
S'Y'
sg31
g32
sS'.thisTrialN'
p2333
I6
sS'.thisN'
p2334
I281
sS'.thisIndex'
p2335
I1
sg15
(lp2336
S'd'
asg30
VF
sg17
S'Y'
sg14
I6
sg19
(lp2337
S'space'
p2338
asg94
I1
sa(dp2339
g16
(lp2340
S'd'
asg18
S'Y'
sS'.thisRepN'
p2341
I25
sg20
S'Y'
sg31
g32
sS'.thisTrialN'
p2342
I7
sS'.thisN'
p2343
I282
sS'.thisIndex'
p2344
I1
sg15
(lp2345
S'd'
asg30
VF
sg17
S'Y'
sg14
I6
sg19
(lp2346
S'space'
p2347
asg94
I1
sa(dp2348
g16
(lp2349
S'k'
asg18
S'Y'
sS'.thisRepN'
p2350
I25
sg20
S'Y'
sg31
g32
sS'.thisTrialN'
p2351
I8
sS'.thisN'
p2352
I283
sS'.thisIndex'
p2353
I8
sg15
(lp2354
S'k'
asg30
VF
sg17
S'Y'
sg14
I6
sg19
(lp2355
S'space'
p2356
asg94
I8
sa(dp2357
g16
(lp2358
S'k'
asg18
S'N'
sS'.thisRepN'
p2359
I25
sg20
S'Y'
sg31
g32
sS'.thisTrialN'
p2360
I9
sS'.thisN'
p2361
I284
sS'.thisIndex'
p2362
I9
sg15
(lp2363
S'k'
asg30
VF
sg17
S'Y'
sg14
I6
sg19
Nsg94
I9
sa(dp2364
g16
(lp2365
S'k'
asg18
S'Y'
sS'.thisRepN'
p2366
I25
sg20
S'N'
sg31
g32
sS'.thisTrialN'
p2367
I10
sS'.thisN'
p2368
I285
sS'.thisIndex'
p2369
I5
sg15
(lp2370
S'd'
asg30
VF
sg17
S'N'
sg14
I6
sg19
Nsg94
I5
sa(dp2371
g16
(lp2372
S'd'
asg18
S'Y'
sS'.thisRepN'
p2373
I26
sg20
S'Y'
sg31
g32
sS'.thisTrialN'
p2374
I0
sS'.thisN'
p2375
I286
sS'.thisIndex'
p2376
I6
sg15
(lp2377
S'k'
asg30
VF
sg17
S'N'
sg14
I6
sg19
(lp2378
S'space'
p2379
asg94
I6
sa(dp2380
g16
(lp2381
S'k'
asg18
S'Y'
sS'.thisRepN'
p2382
I26
sg20
S'Y'
sg31
g32
sS'.thisTrialN'
p2383
I1
sS'.thisN'
p2384
I287
sS'.thisIndex'
p2385
I2
sg15
(lp2386
S'k'
asg30
VF
sg17
S'Y'
sg14
I6
sg19
(lp2387
S'space'
p2388
asg94
I2
sa(dp2389
g16
(lp2390
S'd'
asg18
S'N'
sS'.thisRepN'
p2391
I26
sg20
S'Y'
sg31
g32
sS'.thisTrialN'
p2392
I2
sS'.thisN'
p2393
I288
sS'.thisIndex'
p2394
I8
sg15
(lp2395
S'd'
asg30
VF
sg17
S'Y'
sg14
I6
sg19
Nsg94
I8
sa(dp2396
g16
(lp2397
S'd'
asg18
S'Y'
sS'.thisRepN'
p2398
I26
sg20
S'Y'
sg31
g32
sS'.thisTrialN'
p2399
I3
sS'.thisN'
p2400
I289
sS'.thisIndex'
p2401
I8
sg15
(lp2402
S'k'
asg30
VF
sg17
S'N'
sg14
I6
sg19
(lp2403
S'space'
p2404
asg94
I8
sa(dp2405
g16
(lp2406
S'd'
asg18
S'Y'
sS'.thisRepN'
p2407
I26
sg20
S'Y'
sg31
g32
sS'.thisTrialN'
p2408
I4
sS'.thisN'
p2409
I290
sS'.thisIndex'
p2410
I8
sg15
(lp2411
S'd'
asg30
VF
sg17
S'Y'
sg14
I6
sg19
(lp2412
S'space'
p2413
asg94
I8
sa(dp2414
g16
(lp2415
S'k'
asg18
S'N'
sS'.thisRepN'
p2416
I26
sg20
S'N'
sg31
g32
sS'.thisTrialN'
p2417
I5
sS'.thisN'
p2418
I291
sS'.thisIndex'
p2419
I1
sg15
(lp2420
S'd'
asg30
VF
sg17
S'N'
sg14
I6
sg19
(lp2421
S'space'
p2422
asg94
I1
sa(dp2423
g16
(lp2424
S'd'
asg18
S'N'
sS'.thisRepN'
p2425
I26
sg20
S'Y'
sg31
g32
sS'.thisTrialN'
p2426
I6
sS'.thisN'
p2427
I292
sS'.thisIndex'
p2428
I6
sg15
(lp2429
S'k'
asg30
VF
sg17
S'N'
sg14
I6
sg19
Nsg94
I6
sa(dp2430
g16
(lp2431
S'k'
asg18
S'Y'
sS'.thisRepN'
p2432
I26
sg20
S'Y'
sg31
g32
sS'.thisTrialN'
p2433
I7
sS'.thisN'
p2434
I293
sS'.thisIndex'
p2435
I2
sg15
(lp2436
S'd'
asg30
VF
sg17
S'N'
sg14
I6
sg19
(lp2437
S'space'
p2438
asg94
I2
sa(dp2439
g16
(lp2440
S'k'
asg18
S'N'
sS'.thisRepN'
p2441
I26
sg20
S'Y'
sg31
g32
sS'.thisTrialN'
p2442
I8
sS'.thisN'
p2443
I294
sS'.thisIndex'
p2444
I4
sg15
(lp2445
S'k'
asg30
VF
sg17
S'Y'
sg14
I6
sg19
Nsg94
I4
sa(dp2446
g16
(lp2447
S'd'
asg18
S'N'
sS'.thisRepN'
p2448
I26
sg20
S'Y'
sg31
g32
sS'.thisTrialN'
p2449
I9
sS'.thisN'
p2450
I295
sS'.thisIndex'
p2451
I3
sg15
(lp2452
S'd'
asg30
VF
sg17
S'Y'
sg14
I6
sg19
Nsg94
I3
sa(dp2453
g16
(lp2454
S'd'
asg18
S'N'
sS'.thisRepN'
p2455
I26
sg20
S'Y'
sg31
g32
sS'.thisTrialN'
p2456
I10
sS'.thisN'
p2457
I296
sS'.thisIndex'
p2458
I6
sg15
(lp2459
S'k'
asg30
VF
sg17
S'N'
sg14
I6
sg19
Nsg94
I6
sa(dp2460
g16
(lp2461
S'k'
asg18
S'Y'
sS'.thisRepN'
p2462
I27
sg20
S'N'
sg31
g32
sS'.thisTrialN'
p2463
I0
sS'.thisN'
p2464
I297
sS'.thisIndex'
p2465
I0
sg15
(lp2466
S'k'
asg30
VF
sg17
S'Y'
sg14
I6
sg19
Nsg94
I0
sa(dp2467
g16
(lp2468
S'k'
asg18
S'N'
sS'.thisRepN'
p2469
I27
sg20
S'Y'
sg31
g32
sS'.thisTrialN'
p2470
I1
sS'.thisN'
p2471
I298
sS'.thisIndex'
p2472
I7
sg15
(lp2473
S'k'
asg30
VF
sg17
S'Y'
sg14
I6
sg19
Nsg94
I7
sa(dp2474
g16
(lp2475
S'd'
asg18
S'Y'
sg22
I37
sS'.thisN'
p2476
I299
sg20
S'N'
sg31
g32
sS'.thisTrialN'
p2477
I2
sS'.thisRepN'
p2478
I27
sg21
I26
sS'.thisIndex'
p2479
I10
sg23
I23
sg15
(lp2480
S'd'
asg30
VF
sg17
S'Y'
sg14
I6
sg19
(lp2481
S'k'
asg94
I10
sa(dp2482
g16
(lp2483
S'k'
asg94
I1
sS'.thisRepN'
p2484
I27
sg30
VF
sg31
g32
sS'.thisTrialN'
p2485
I3
sS'.thisN'
p2486
I300
sS'.thisIndex'
p2487
I1
sg15
(lp2488
S'k'
asg17
S'Y'
sg14
I7
sa(dp2489
g16
(lp2490
S'k'
asg94
I8
sS'.thisRepN'
p2491
I27
sg30
VF
sg31
g32
sS'.thisTrialN'
p2492
I4
sS'.thisN'
p2493
I301
sS'.thisIndex'
p2494
I8
sg15
(lp2495
S'k'
asg17
S'Y'
sg14
I7
sa(dp2496
g16
(lp2497
S'k'
asg18
S'Y'
sS'.thisRepN'
p2498
I27
sg20
S'N'
sg31
g32
sS'.thisTrialN'
p2499
I5
sS'.thisN'
p2500
I302
sS'.thisIndex'
p2501
I8
sg15
(lp2502
S'd'
asg30
VF
sg17
S'N'
sg14
I7
sg19
Nsg94
I8
sa(dp2503
g16
(lp2504
S'k'
asg18
S'N'
sS'.thisRepN'
p2505
I27
sg20
S'N'
sg31
g32
sS'.thisTrialN'
p2506
I6
sS'.thisN'
p2507
I303
sS'.thisIndex'
p2508
I3
sg15
(lp2509
S'd'
asg30
VF
sg17
S'N'
sg14
I7
sg19
(lp2510
S'k'
asg94
I3
sa(dp2511
g16
(lp2512
S'k'
asg18
S'N'
sS'.thisRepN'
p2513
I27
sg20
S'N'
sg31
g32
sS'.thisTrialN'
p2514
I7
sS'.thisN'
p2515
I304
sS'.thisIndex'
p2516
I6
sg15
(lp2517
S'k'
asg30
VF
sg17
S'Y'
sg14
I7
sg19
(lp2518
S'space'
p2519
asg94
I6
sa(dp2520
g16
(lp2521
S'd'
asg18
S'N'
sS'.thisRepN'
p2522
I27
sg20
S'Y'
sg31
g32
sS'.thisTrialN'
p2523
I8
sS'.thisN'
p2524
I305
sS'.thisIndex'
p2525
I2
sg15
(lp2526
S'd'
asg30
VF
sg17
S'Y'
sg14
I7
sg19
Nsg94
I2
sa(dp2527
g16
(lp2528
S'k'
asg18
S'N'
sS'.thisRepN'
p2529
I27
sg20
S'N'
sg31
g32
sS'.thisTrialN'
p2530
I9
sS'.thisN'
p2531
I306
sS'.thisIndex'
p2532
I0
sg15
(lp2533
S'k'
asg30
VF
sg17
S'Y'
sg14
I7
sg19
(lp2534
S'space'
p2535
asg94
I0
sa(dp2536
g16
(lp2537
S'd'
asg18
S'N'
sS'.thisRepN'
p2538
I27
sg20
S'Y'
sg31
g32
sS'.thisTrialN'
p2539
I10
sS'.thisN'
p2540
I307
sS'.thisIndex'
p2541
I8
sg15
(lp2542
S'd'
asg30
VF
sg17
S'Y'
sg14
I7
sg19
Nsg94
I8
sa(dp2543
g16
(lp2544
S'd'
asg18
S'N'
sS'.thisRepN'
p2545
I28
sg20
S'Y'
sg31
g32
sS'.thisTrialN'
p2546
I0
sS'.thisN'
p2547
I308
sS'.thisIndex'
p2548
I1
sg15
(lp2549
S'd'
asg30
VF
sg17
S'Y'
sg14
I7
sg19
Nsg94
I1
sa(dp2550
g16
(lp2551
S'd'
asg18
S'Y'
sS'.thisRepN'
p2552
I28
sg20
S'N'
sg31
g32
sS'.thisTrialN'
p2553
I1
sS'.thisN'
p2554
I309
sS'.thisIndex'
p2555
I3
sg15
(lp2556
S'd'
asg30
VF
sg17
S'Y'
sg14
I7
sg19
Nsg94
I3
sa(dp2557
g16
(lp2558
S'k'
asg18
S'N'
sS'.thisRepN'
p2559
I28
sg20
S'Y'
sg31
g32
sS'.thisTrialN'
p2560
I2
sS'.thisN'
p2561
I310
sS'.thisIndex'
p2562
I8
sg15
(lp2563
S'k'
asg30
VF
sg17
S'Y'
sg14
I7
sg19
Nsg94
I8
sa(dp2564
g16
(lp2565
S'd'
asg18
S'N'
sS'.thisRepN'
p2566
I28
sg20
S'Y'
sg31
g32
sS'.thisTrialN'
p2567
I3
sS'.thisN'
p2568
I311
sS'.thisIndex'
p2569
I10
sg15
(lp2570
S'd'
asg30
VF
sg17
S'Y'
sg14
I7
sg19
Nsg94
I10
sa(dp2571
g16
(lp2572
S'd'
asg18
S'Y'
sS'.thisRepN'
p2573
I28
sg20
S'Y'
sg31
g32
sS'.thisTrialN'
p2574
I4
sS'.thisN'
p2575
I312
sS'.thisIndex'
p2576
I10
sg15
(lp2577
S'k'
asg30
VF
sg17
S'N'
sg14
I7
sg19
(lp2578
S'space'
p2579
asg94
I10
sa(dp2580
g16
(lp2581
S'k'
asg18
S'Y'
sS'.thisRepN'
p2582
I28
sg20
S'N'
sg31
g32
sS'.thisTrialN'
p2583
I5
sS'.thisN'
p2584
I313
sS'.thisIndex'
p2585
I7
sg15
(lp2586
S'k'
asg30
VF
sg17
S'Y'
sg14
I7
sg19
(lp2587
S'd'
asg94
I7
sa(dp2588
g16
(lp2589
S'k'
asg18
S'N'
sS'.thisRepN'
p2590
I28
sg20
S'Y'
sg31
g32
sS'.thisTrialN'
p2591
I6
sS'.thisN'
p2592
I314
sS'.thisIndex'
p2593
I8
sg15
(lp2594
S'd'
asg30
VF
sg17
S'N'
sg14
I7
sg19
Nsg94
I8
sa(dp2595
g16
(lp2596
S'd'
asg18
S'Y'
sS'.thisRepN'
p2597
I28
sg20
S'Y'
sg31
g32
sS'.thisTrialN'
p2598
I7
sS'.thisN'
p2599
I315
sS'.thisIndex'
p2600
I9
sg15
(lp2601
S'k'
asg30
VF
sg17
S'N'
sg14
I7
sg19
(lp2602
S'space'
p2603
asg94
I9
sa(dp2604
g16
(lp2605
S'd'
asg18
S'Y'
sS'.thisRepN'
p2606
I28
sg20
S'N'
sg31
g32
sS'.thisTrialN'
p2607
I8
sS'.thisN'
p2608
I316
sS'.thisIndex'
p2609
I3
sg15
(lp2610
S'd'
asg30
VF
sg17
S'Y'
sg14
I7
sg19
Nsg94
I3
sa(dp2611
g16
(lp2612
S'k'
asg18
S'Y'
sS'.thisRepN'
p2613
I28
sg20
S'Y'
sg31
g32
sS'.thisTrialN'
p2614
I9
sS'.thisN'
p2615
I317
sS'.thisIndex'
p2616
I10
sg15
(lp2617
S'd'
asg30
VF
sg17
S'N'
sg14
I7
sg19
(lp2618
S'space'
p2619
asg94
I10
sa(dp2620
g16
(lp2621
S'k'
asg18
S'Y'
sS'.thisRepN'
p2622
I28
sg20
S'Y'
sg31
g32
sS'.thisTrialN'
p2623
I10
sS'.thisN'
p2624
I318
sS'.thisIndex'
p2625
I7
sg15
(lp2626
S'd'
asg30
VF
sg17
S'N'
sg14
I7
sg19
(lp2627
S'space'
p2628
asg94
I7
sa(dp2629
g16
(lp2630
S'k'
asg18
S'Y'
sS'.thisRepN'
p2631
I29
sg20
S'Y'
sg31
g32
sS'.thisTrialN'
p2632
I0
sS'.thisN'
p2633
I319
sS'.thisIndex'
p2634
I6
sg15
(lp2635
S'k'
asg30
VF
sg17
S'Y'
sg14
I7
sg19
(lp2636
S'space'
p2637
asg94
I6
sa(dp2638
g16
(lp2639
S'd'
asg18
S'Y'
sS'.thisRepN'
p2640
I29
sg20
S'N'
sg31
g32
sS'.thisTrialN'
p2641
I1
sS'.thisN'
p2642
I320
sS'.thisIndex'
p2643
I7
sg15
(lp2644
S'd'
asg30
VF
sg17
S'Y'
sg14
I7
sg19
Nsg94
I7
sa(dp2645
g16
(lp2646
S'k'
asg18
S'N'
sS'.thisRepN'
p2647
I29
sg20
S'Y'
sg31
g32
sS'.thisTrialN'
p2648
I2
sS'.thisN'
p2649
I321
sS'.thisIndex'
p2650
I2
sg15
(lp2651
S'k'
asg30
VF
sg17
S'Y'
sg14
I7
sg19
Nsg94
I2
sa(dp2652
g16
(lp2653
S'd'
asg18
S'Y'
sS'.thisRepN'
p2654
I29
sg20
S'Y'
sg31
g32
sS'.thisTrialN'
p2655
I3
sS'.thisN'
p2656
I322
sS'.thisIndex'
p2657
I8
sg15
(lp2658
S'd'
asg30
VF
sg17
S'Y'
sg14
I7
sg19
(lp2659
S'space'
p2660
asg94
I8
sa(dp2661
g16
(lp2662
S'k'
asg18
S'Y'
sS'.thisRepN'
p2663
I29
sg20
S'Y'
sg31
g32
sS'.thisTrialN'
p2664
I4
sS'.thisN'
p2665
I323
sS'.thisIndex'
p2666
I10
sg15
(lp2667
S'k'
asg30
VF
sg17
S'Y'
sg14
I7
sg19
(lp2668
S'space'
p2669
asg94
I10
sa(dp2670
g16
(lp2671
S'k'
asg18
S'Y'
sS'.thisRepN'
p2672
I29
sg20
S'Y'
sg31
g32
sS'.thisTrialN'
p2673
I5
sS'.thisN'
p2674
I324
sS'.thisIndex'
p2675
I3
sg15
(lp2676
S'd'
asg30
VF
sg17
S'N'
sg14
I7
sg19
(lp2677
S'space'
p2678
asg94
I3
sa(dp2679
g16
(lp2680
S'k'
asg18
S'Y'
sS'.thisRepN'
p2681
I29
sg20
S'N'
sg31
g32
sS'.thisTrialN'
p2682
I6
sS'.thisN'
p2683
I325
sS'.thisIndex'
p2684
I0
sg15
(lp2685
S'k'
asg30
VF
sg17
S'Y'
sg14
I7
sg19
(lp2686
S'k'
asg94
I0
sa(dp2687
g16
(lp2688
S'k'
asg18
S'Y'
sS'.thisRepN'
p2689
I29
sg20
S'N'
sg31
g32
sS'.thisTrialN'
p2690
I7
sS'.thisN'
p2691
I326
sS'.thisIndex'
p2692
I8
sg15
(lp2693
S'd'
asg30
VF
sg17
S'N'
sg14
I7
sg19
Nsg94
I8
sa(dp2694
g16
(lp2695
S'd'
asg18
S'Y'
sS'.thisRepN'
p2696
I29
sg20
S'Y'
sg31
g32
sS'.thisTrialN'
p2697
I8
sS'.thisN'
p2698
I327
sS'.thisIndex'
p2699
I8
sg15
(lp2700
S'k'
asg30
VF
sg17
S'N'
sg14
I7
sg19
(lp2701
S'space'
p2702
asg94
I8
sa(dp2703
g16
(lp2704
S'k'
asg18
S'N'
sS'.thisRepN'
p2705
I29
sg20
S'Y'
sg31
g32
sS'.thisTrialN'
p2706
I9
sS'.thisN'
p2707
I328
sS'.thisIndex'
p2708
I9
sg15
(lp2709
S'd'
asg30
VF
sg17
S'N'
sg14
I7
sg19
Nsg94
I9
sa(dp2710
g16
(lp2711
S'd'
asg18
S'N'
sS'.thisRepN'
p2712
I29
sg20
S'Y'
sg31
g32
sS'.thisTrialN'
p2713
I10
sS'.thisN'
p2714
I329
sS'.thisIndex'
p2715
I6
sg15
(lp2716
S'd'
asg30
VF
sg17
S'Y'
sg14
I7
sg19
Nsg94
I6
sa(dp2717
g16
(lp2718
S'k'
asg18
S'Y'
sS'.thisRepN'
p2719
I30
sg20
S'Y'
sg31
g32
sS'.thisTrialN'
p2720
I0
sS'.thisN'
p2721
I330
sS'.thisIndex'
p2722
I1
sg15
(lp2723
S'd'
asg30
VF
sg17
S'N'
sg14
I7
sg19
(lp2724
S'space'
p2725
asg94
I1
sa(dp2726
g16
(lp2727
S'd'
asg18
S'Y'
sS'.thisRepN'
p2728
I30
sg20
S'N'
sg31
g32
sS'.thisTrialN'
p2729
I1
sS'.thisN'
p2730
I331
sS'.thisIndex'
p2731
I2
sg15
(lp2732
S'k'
asg30
VF
sg17
S'N'
sg14
I7
sg19
Nsg94
I2
sa(dp2733
g16
(lp2734
S'd'
asg18
S'Y'
sS'.thisRepN'
p2735
I30
sg20
S'Y'
sg31
g32
sS'.thisTrialN'
p2736
I2
sS'.thisN'
p2737
I332
sS'.thisIndex'
p2738
I6
sg15
(lp2739
S'd'
asg30
VF
sg17
S'Y'
sg14
I7
sg19
(lp2740
S'space'
p2741
asg94
I6
sa(dp2742
g16
(lp2743
S'k'
asg18
S'N'
sS'.thisRepN'
p2744
I30
sg20
S'Y'
sg31
g32
sS'.thisTrialN'
p2745
I3
sS'.thisN'
p2746
I333
sS'.thisIndex'
p2747
I10
sg15
(lp2748
S'k'
asg30
VF
sg17
S'Y'
sg14
I7
sg19
Nsg94
I10
sa(dp2749
g16
(lp2750
S'k'
asg18
S'Y'
sS'.thisRepN'
p2751
I30
sg20
S'Y'
sg31
g32
sS'.thisTrialN'
p2752
I4
sS'.thisN'
p2753
I334
sS'.thisIndex'
p2754
I9
sg15
(lp2755
S'd'
asg30
VF
sg17
S'N'
sg14
I7
sg19
(lp2756
S'space'
p2757
asg94
I9
sa(dp2758
g16
(lp2759
S'd'
asg18
S'N'
sS'.thisRepN'
p2760
I30
sg20
S'Y'
sg31
g32
sS'.thisTrialN'
p2761
I5
sS'.thisN'
p2762
I335
sS'.thisIndex'
p2763
I6
sg15
(lp2764
S'k'
asg30
VF
sg17
S'N'
sg14
I7
sg19
Nsg94
I6
sa(dp2765
g16
(lp2766
S'k'
asg18
S'N'
sS'.thisRepN'
p2767
I30
sg20
S'Y'
sg31
g32
sS'.thisTrialN'
p2768
I6
sS'.thisN'
p2769
I336
sS'.thisIndex'
p2770
I8
sg15
(lp2771
S'd'
asg30
VF
sg17
S'N'
sg14
I7
sg19
Nsg94
I8
sa(dp2772
g16
(lp2773
S'k'
asg18
S'N'
sS'.thisRepN'
p2774
I30
sg20
S'N'
sg31
g32
sS'.thisTrialN'
p2775
I7
sS'.thisN'
p2776
I337
sS'.thisIndex'
p2777
I9
sg15
(lp2778
S'k'
asg30
VF
sg17
S'Y'
sg14
I7
sg19
(lp2779
S'space'
p2780
asg94
I9
sa(dp2781
g16
(lp2782
S'd'
asg18
S'N'
sS'.thisRepN'
p2783
I30
sg20
S'Y'
sg31
g32
sS'.thisTrialN'
p2784
I8
sS'.thisN'
p2785
I338
sS'.thisIndex'
p2786
I0
sg15
(lp2787
S'd'
asg30
VF
sg17
S'Y'
sg14
I7
sg19
Nsg94
I0
sa(dp2788
g16
(lp2789
S'k'
asg18
S'Y'
sS'.thisRepN'
p2790
I30
sg20
S'N'
sg31
g32
sS'.thisTrialN'
p2791
I9
sS'.thisN'
p2792
I339
sS'.thisIndex'
p2793
I9
sg15
(lp2794
S'k'
asg30
VF
sg17
S'Y'
sg14
I7
sg19
Nsg94
I9
sa(dp2795
g16
(lp2796
S'k'
asg18
S'Y'
sS'.thisRepN'
p2797
I30
sg20
S'N'
sg31
g32
sS'.thisTrialN'
p2798
I10
sS'.thisN'
p2799
I340
sS'.thisIndex'
p2800
I0
sg15
(lp2801
S'd'
asg30
VF
sg17
S'N'
sg14
I7
sg19
Nsg94
I0
sa(dp2802
g16
(lp2803
S'k'
asg18
S'Y'
sS'.thisRepN'
p2804
I31
sg20
S'N'
sg31
g32
sS'.thisTrialN'
p2805
I0
sS'.thisN'
p2806
I341
sS'.thisIndex'
p2807
I0
sg15
(lp2808
S'k'
asg30
VF
sg17
S'Y'
sg14
I7
sg19
(lp2809
S'k'
asg94
I0
sa(dp2810
g16
(lp2811
S'd'
asg18
S'Y'
sS'.thisRepN'
p2812
I31
sg20
S'N'
sg31
g32
sS'.thisTrialN'
p2813
I1
sS'.thisN'
p2814
I342
sS'.thisIndex'
p2815
I1
sg15
(lp2816
S'k'
asg30
VF
sg17
S'N'
sg14
I7
sg19
(lp2817
S'd'
asg94
I1
sa(dp2818
g16
(lp2819
S'd'
asg18
S'N'
sS'.thisRepN'
p2820
I31
sg20
S'Y'
sg31
g32
sS'.thisTrialN'
p2821
I2
sS'.thisN'
p2822
I343
sS'.thisIndex'
p2823
I0
sg15
(lp2824
S'd'
asg30
VF
sg17
S'Y'
sg14
I7
sg19
Nsg94
I0
sa(dp2825
g16
(lp2826
S'k'
asg18
S'Y'
sS'.thisRepN'
p2827
I31
sg20
S'Y'
sg31
g32
sS'.thisTrialN'
p2828
I3
sS'.thisN'
p2829
I344
sS'.thisIndex'
p2830
I10
sg15
(lp2831
S'k'
asg30
VF
sg17
S'Y'
sg14
I7
sg19
(lp2832
S'space'
p2833
asg94
I10
sa(dp2834
g16
(lp2835
S'd'
asg18
S'N'
sS'.thisRepN'
p2836
I31
sg20
S'N'
sg31
g32
sS'.thisTrialN'
p2837
I4
sS'.thisN'
p2838
I345
sS'.thisIndex'
p2839
I4
sg15
(lp2840
S'd'
asg30
VF
sg17
S'Y'
sg14
I7
sg19
(lp2841
S'space'
p2842
asg94
I4
sa(dp2843
g16
(lp2844
S'k'
asg18
S'N'
sS'.thisRepN'
p2845
I31
sg20
S'Y'
sg31
g32
sS'.thisTrialN'
p2846
I5
sS'.thisN'
p2847
I346
sS'.thisIndex'
p2848
I5
sg15
(lp2849
S'k'
asg30
VF
sg17
S'Y'
sg14
I7
sg19
Nsg94
I5
sa(dp2850
g16
(lp2851
S'k'
asg18
S'N'
sS'.thisRepN'
p2852
I31
sg20
S'N'
sg31
g32
sS'.thisTrialN'
p2853
I6
sS'.thisN'
p2854
I347
sS'.thisIndex'
p2855
I6
sg15
(lp2856
S'd'
asg30
VF
sg17
S'N'
sg14
I7
sg19
(lp2857
S'space'
p2858
asg94
I6
sa(dp2859
g16
(lp2860
S'd'
asg18
S'N'
sS'.thisRepN'
p2861
I31
sg20
S'Y'
sg31
g32
sS'.thisTrialN'
p2862
I7
sS'.thisN'
p2863
I348
sS'.thisIndex'
p2864
I8
sg15
(lp2865
S'k'
asg30
VF
sg17
S'N'
sg14
I7
sg19
Nsg94
I8
sa(dp2866
g16
(lp2867
S'k'
asg18
S'N'
sg22
I30
sS'.thisN'
p2868
I349
sg20
S'Y'
sg31
g32
sS'.thisTrialN'
p2869
I8
sS'.thisRepN'
p2870
I31
sg21
I30
sS'.thisIndex'
p2871
I10
sg23
I25
sg15
(lp2872
S'k'
asg30
VF
sg17
S'Y'
sg14
I7
sg19
Nsg94
I10
sa(dp2873
g16
(lp2874
S'd'
asg94
I10
sS'.thisRepN'
p2875
I31
sg30
VF
sg31
g32
sS'.thisTrialN'
p2876
I9
sS'.thisN'
p2877
I350
sS'.thisIndex'
p2878
I10
sg15
(lp2879
S'k'
asg17
S'N'
sg14
I8
sa(dp2880
g16
(lp2881
S'd'
asg94
I2
sS'.thisRepN'
p2882
I31
sg30
VF
sg31
g32
sS'.thisTrialN'
p2883
I10
sS'.thisN'
p2884
I351
sS'.thisIndex'
p2885
I2
sg15
(lp2886
S'k'
asg17
S'N'
sg14
I8
sa(dp2887
g16
(lp2888
S'd'
asg18
S'N'
sS'.thisRepN'
p2889
I32
sg20
S'Y'
sg31
g32
sS'.thisTrialN'
p2890
I0
sS'.thisN'
p2891
I352
sS'.thisIndex'
p2892
I3
sg15
(lp2893
S'd'
asg30
VF
sg17
S'Y'
sg14
I8
sg19
Nsg94
I3
sa(dp2894
g16
(lp2895
S'k'
asg18
S'N'
sS'.thisRepN'
p2896
I32
sg20
S'Y'
sg31
g32
sS'.thisTrialN'
p2897
I1
sS'.thisN'
p2898
I353
sS'.thisIndex'
p2899
I10
sg15
(lp2900
S'k'
asg30
VF
sg17
S'Y'
sg14
I8
sg19
Nsg94
I10
sa(dp2901
g16
(lp2902
S'd'
asg18
S'N'
sS'.thisRepN'
p2903
I32
sg20
S'Y'
sg31
g32
sS'.thisTrialN'
p2904
I2
sS'.thisN'
p2905
I354
sS'.thisIndex'
p2906
I7
sg15
(lp2907
S'd'
asg30
VF
sg17
S'Y'
sg14
I8
sg19
Nsg94
I7
sa(dp2908
g16
(lp2909
S'k'
asg18
S'Y'
sS'.thisRepN'
p2910
I32
sg20
S'Y'
sg31
g32
sS'.thisTrialN'
p2911
I3
sS'.thisN'
p2912
I355
sS'.thisIndex'
p2913
I10
sg15
(lp2914
S'k'
asg30
VF
sg17
S'Y'
sg14
I8
sg19
(lp2915
S'space'
p2916
asg94
I10
sa(dp2917
g16
(lp2918
S'k'
asg18
S'Y'
sS'.thisRepN'
p2919
I32
sg20
S'Y'
sg31
g32
sS'.thisTrialN'
p2920
I4
sS'.thisN'
p2921
I356
sS'.thisIndex'
p2922
I3
sg15
(lp2923
S'd'
asg30
VF
sg17
S'N'
sg14
I8
sg19
(lp2924
S'space'
p2925
asg94
I3
sa(dp2926
g16
(lp2927
S'd'
asg18
S'N'
sS'.thisRepN'
p2928
I32
sg20
S'Y'
sg31
g32
sS'.thisTrialN'
p2929
I5
sS'.thisN'
p2930
I357
sS'.thisIndex'
p2931
I5
sg15
(lp2932
S'k'
asg30
VF
sg17
S'N'
sg14
I8
sg19
Nsg94
I5
sa(dp2933
g16
(lp2934
S'd'
asg18
S'Y'
sS'.thisRepN'
p2935
I32
sg20
S'Y'
sg31
g32
sS'.thisTrialN'
p2936
I6
sS'.thisN'
p2937
I358
sS'.thisIndex'
p2938
I9
sg15
(lp2939
S'd'
asg30
VF
sg17
S'Y'
sg14
I8
sg19
(lp2940
S'space'
p2941
asg94
I9
sa(dp2942
g16
(lp2943
S'd'
asg18
S'Y'
sS'.thisRepN'
p2944
I32
sg20
S'Y'
sg31
g32
sS'.thisTrialN'
p2945
I7
sS'.thisN'
p2946
I359
sS'.thisIndex'
p2947
I1
sg15
(lp2948
S'k'
asg30
VF
sg17
S'N'
sg14
I8
sg19
(lp2949
S'space'
p2950
asg94
I1
sa(dp2951
g16
(lp2952
S'd'
asg18
S'Y'
sS'.thisRepN'
p2953
I32
sg20
S'Y'
sg31
g32
sS'.thisTrialN'
p2954
I8
sS'.thisN'
p2955
I360
sS'.thisIndex'
p2956
I0
sg15
(lp2957
S'd'
asg30
VF
sg17
S'Y'
sg14
I8
sg19
(lp2958
S'space'
p2959
asg94
I0
sa(dp2960
g16
(lp2961
S'k'
asg18
S'Y'
sS'.thisRepN'
p2962
I32
sg20
S'Y'
sg31
g32
sS'.thisTrialN'
p2963
I9
sS'.thisN'
p2964
I361
sS'.thisIndex'
p2965
I5
sg15
(lp2966
S'd'
asg30
VF
sg17
S'N'
sg14
I8
sg19
(lp2967
S'space'
p2968
asg94
I5
sa(dp2969
g16
(lp2970
S'd'
asg18
S'Y'
sS'.thisRepN'
p2971
I32
sg20
S'Y'
sg31
g32
sS'.thisTrialN'
p2972
I10
sS'.thisN'
p2973
I362
sS'.thisIndex'
p2974
I10
sg15
(lp2975
S'k'
asg30
VF
sg17
S'N'
sg14
I8
sg19
(lp2976
S'space'
p2977
asg94
I10
sa(dp2978
g16
(lp2979
S'k'
asg18
S'N'
sS'.thisRepN'
p2980
I33
sg20
S'N'
sg31
g32
sS'.thisTrialN'
p2981
I0
sS'.thisN'
p2982
I363
sS'.thisIndex'
p2983
I7
sg15
(lp2984
S'd'
asg30
VF
sg17
S'N'
sg14
I8
sg19
(lp2985
S'space'
p2986
asg94
I7
sa(dp2987
g16
(lp2988
S'k'
asg18
S'N'
sS'.thisRepN'
p2989
I33
sg20
S'Y'
sg31
g32
sS'.thisTrialN'
p2990
I1
sS'.thisN'
p2991
I364
sS'.thisIndex'
p2992
I9
sg15
(lp2993
S'k'
asg30
VF
sg17
S'Y'
sg14
I8
sg19
Nsg94
I9
sa(dp2994
g16
(lp2995
S'd'
asg18
S'N'
sS'.thisRepN'
p2996
I33
sg20
S'Y'
sg31
g32
sS'.thisTrialN'
p2997
I2
sS'.thisN'
p2998
I365
sS'.thisIndex'
p2999
I9
sg15
(lp3000
S'd'
asg30
VF
sg17
S'Y'
sg14
I8
sg19
Nsg94
I9
sa(dp3001
g16
(lp3002
S'k'
asg18
S'N'
sS'.thisRepN'
p3003
I33
sg20
S'Y'
sg31
g32
sS'.thisTrialN'
p3004
I3
sS'.thisN'
p3005
I366
sS'.thisIndex'
p3006
I4
sg15
(lp3007
S'd'
asg30
VF
sg17
S'N'
sg14
I8
sg19
Nsg94
I4
sa(dp3008
g16
(lp3009
S'k'
asg18
S'N'
sS'.thisRepN'
p3010
I33
sg20
S'Y'
sg31
g32
sS'.thisTrialN'
p3011
I4
sS'.thisN'
p3012
I367
sS'.thisIndex'
p3013
I10
sg15
(lp3014
S'k'
asg30
VF
sg17
S'Y'
sg14
I8
sg19
Nsg94
I10
sa(dp3015
g16
(lp3016
S'd'
asg18
S'Y'
sS'.thisRepN'
p3017
I33
sg20
S'Y'
sg31
g32
sS'.thisTrialN'
p3018
I5
sS'.thisN'
p3019
I368
sS'.thisIndex'
p3020
I2
sg15
(lp3021
S'd'
asg30
VF
sg17
S'Y'
sg14
I8
sg19
(lp3022
S'space'
p3023
asg94
I2
sa(dp3024
g16
(lp3025
S'd'
asg18
S'N'
sS'.thisRepN'
p3026
I33
sg20
S'Y'
sg31
g32
sS'.thisTrialN'
p3027
I6
sS'.thisN'
p3028
I369
sS'.thisIndex'
p3029
I2
sg15
(lp3030
S'k'
asg30
VF
sg17
S'N'
sg14
I8
sg19
Nsg94
I2
sa(dp3031
g16
(lp3032
S'k'
asg18
S'N'
sS'.thisRepN'
p3033
I33
sg20
S'Y'
sg31
g32
sS'.thisTrialN'
p3034
I7
sS'.thisN'
p3035
I370
sS'.thisIndex'
p3036
I5
sg15
(lp3037
S'd'
asg30
VF
sg17
S'N'
sg14
I8
sg19
Nsg94
I5
sa(dp3038
g16
(lp3039
S'k'
asg18
S'Y'
sS'.thisRepN'
p3040
I33
sg20
S'Y'
sg31
g32
sS'.thisTrialN'
p3041
I8
sS'.thisN'
p3042
I371
sS'.thisIndex'
p3043
I5
sg15
(lp3044
S'k'
asg30
VF
sg17
S'Y'
sg14
I8
sg19
(lp3045
S'space'
p3046
asg94
I5
sa(dp3047
g16
(lp3048
S'k'
asg18
S'Y'
sS'.thisRepN'
p3049
I33
sg20
S'Y'
sg31
g32
sS'.thisTrialN'
p3050
I9
sS'.thisN'
p3051
I372
sS'.thisIndex'
p3052
I6
sg15
(lp3053
S'd'
asg30
VF
sg17
S'N'
sg14
I8
sg19
(lp3054
S'space'
p3055
asg94
I6
sa(dp3056
g16
(lp3057
S'k'
asg18
S'Y'
sS'.thisRepN'
p3058
I33
sg20
S'Y'
sg31
g32
sS'.thisTrialN'
p3059
I10
sS'.thisN'
p3060
I373
sS'.thisIndex'
p3061
I2
sg15
(lp3062
S'k'
asg30
VF
sg17
S'Y'
sg14
I8
sg19
(lp3063
S'space'
p3064
asg94
I2
sa(dp3065
g16
(lp3066
S'k'
asg18
S'N'
sS'.thisRepN'
p3067
I34
sg20
S'N'
sg31
g32
sS'.thisTrialN'
p3068
I0
sS'.thisN'
p3069
I374
sS'.thisIndex'
p3070
I2
sg15
(lp3071
S'd'
asg30
VF
sg17
S'N'
sg14
I8
sg19
(lp3072
S'space'
p3073
asg94
I2
sa(dp3074
g16
(lp3075
S'd'
asg18
S'Y'
sS'.thisRepN'
p3076
I34
sg20
S'N'
sg31
g32
sS'.thisTrialN'
p3077
I1
sS'.thisN'
p3078
I375
sS'.thisIndex'
p3079
I10
sg15
(lp3080
S'k'
asg30
VF
sg17
S'N'
sg14
I8
sg19
Nsg94
I10
sa(dp3081
g16
(lp3082
S'd'
asg18
S'N'
sS'.thisRepN'
p3083
I34
sg20
S'N'
sg31
g32
sS'.thisTrialN'
p3084
I2
sS'.thisN'
p3085
I376
sS'.thisIndex'
p3086
I8
sg15
(lp3087
S'd'
asg30
VF
sg17
S'Y'
sg14
I8
sg19
(lp3088
S'space'
p3089
asg94
I8
sa(dp3090
g16
(lp3091
S'k'
asg18
S'N'
sS'.thisRepN'
p3092
I34
sg20
S'N'
sg31
g32
sS'.thisTrialN'
p3093
I3
sS'.thisN'
p3094
I377
sS'.thisIndex'
p3095
I5
sg15
(lp3096
S'd'
asg30
VF
sg17
S'N'
sg14
I8
sg19
(lp3097
S'space'
p3098
asg94
I5
sa(dp3099
g16
(lp3100
S'd'
asg18
S'Y'
sS'.thisRepN'
p3101
I34
sg20
S'Y'
sg31
g32
sS'.thisTrialN'
p3102
I4
sS'.thisN'
p3103
I378
sS'.thisIndex'
p3104
I1
sg15
(lp3105
S'k'
asg30
VF
sg17
S'N'
sg14
I8
sg19
(lp3106
S'space'
p3107
asg94
I1
sa(dp3108
g16
(lp3109
S'k'
asg18
S'N'
sS'.thisRepN'
p3110
I34
sg20
S'Y'
sg31
g32
sS'.thisTrialN'
p3111
I5
sS'.thisN'
p3112
I379
sS'.thisIndex'
p3113
I5
sg15
(lp3114
S'k'
asg30
VF
sg17
S'Y'
sg14
I8
sg19
Nsg94
I5
sa(dp3115
g16
(lp3116
S'd'
asg18
S'N'
sS'.thisRepN'
p3117
I34
sg20
S'N'
sg31
g32
sS'.thisTrialN'
p3118
I6
sS'.thisN'
p3119
I380
sS'.thisIndex'
p3120
I2
sg15
(lp3121
S'd'
asg30
VF
sg17
S'Y'
sg14
I8
sg19
(lp3122
S'space'
p3123
asg94
I2
sa(dp3124
g16
(lp3125
S'd'
asg18
S'N'
sS'.thisRepN'
p3126
I34
sg20
S'Y'
sg31
g32
sS'.thisTrialN'
p3127
I7
sS'.thisN'
p3128
I381
sS'.thisIndex'
p3129
I0
sg15
(lp3130
S'k'
asg30
VF
sg17
S'N'
sg14
I8
sg19
Nsg94
I0
sa(dp3131
g18
S'N'
sS'.thisRepN'
p3132
I34
sg20
S'N'
sg31
g32
sS'.thisTrialN'
p3133
I8
sS'.thisN'
p3134
I382
sS'.thisIndex'
p3135
I6
sg15
Nsg30
VF
sg17
g135
sg14
I8
sg19
(lp3136
S'd'
asg94
I6
sa(dp3137
g16
(lp3138
S'k'
asg18
S'N'
sS'.thisRepN'
p3139
I34
sg20
S'Y'
sg31
g32
sS'.thisTrialN'
p3140
I9
sS'.thisN'
p3141
I383
sS'.thisIndex'
p3142
I2
sg15
(lp3143
S'k'
asg30
VF
sg17
S'Y'
sg14
I8
sg19
Nsg94
I2
sa(dp3144
g16
(lp3145
S'd'
asg18
S'Y'
sS'.thisRepN'
p3146
I34
sg20
S'N'
sg31
g32
sS'.thisTrialN'
p3147
I10
sS'.thisN'
p3148
I384
sS'.thisIndex'
p3149
I6
sg15
(lp3150
S'd'
asg30
VF
sg17
S'Y'
sg14
I8
sg19
Nsg94
I6
sa(dp3151
g16
(lp3152
S'd'
asg18
S'Y'
sS'.thisRepN'
p3153
I35
sg20
S'Y'
sg31
g32
sS'.thisTrialN'
p3154
I0
sS'.thisN'
p3155
I385
sS'.thisIndex'
p3156
I8
sg15
(lp3157
S'k'
asg30
VF
sg17
S'N'
sg14
I8
sg19
(lp3158
S'space'
p3159
asg94
I8
sa(dp3160
g16
(lp3161
S'k'
asg18
S'N'
sS'.thisRepN'
p3162
I35
sg20
S'Y'
sg31
g32
sS'.thisTrialN'
p3163
I1
sS'.thisN'
p3164
I386
sS'.thisIndex'
p3165
I4
sg15
(lp3166
S'd'
asg30
VF
sg17
S'N'
sg14
I8
sg19
Nsg94
I4
sa(dp3167
g16
(lp3168
S'k'
asg18
S'Y'
sS'.thisRepN'
p3169
I35
sg20
S'Y'
sg31
g32
sS'.thisTrialN'
p3170
I2
sS'.thisN'
p3171
I387
sS'.thisIndex'
p3172
I0
sg15
(lp3173
S'k'
asg30
VF
sg17
S'Y'
sg14
I8
sg19
(lp3174
S'space'
p3175
asg94
I0
sa(dp3176
g16
(lp3177
S'd'
asg18
S'N'
sS'.thisRepN'
p3178
I35
sg20
S'Y'
sg31
g32
sS'.thisTrialN'
p3179
I3
sS'.thisN'
p3180
I388
sS'.thisIndex'
p3181
I1
sg15
(lp3182
S'd'
asg30
VF
sg17
S'Y'
sg14
I8
sg19
Nsg94
I1
sa(dp3183
g16
(lp3184
S'k'
asg18
S'N'
sS'.thisRepN'
p3185
I35
sg20
S'N'
sg31
g32
sS'.thisTrialN'
p3186
I4
sS'.thisN'
p3187
I389
sS'.thisIndex'
p3188
I2
sg15
(lp3189
S'd'
asg30
VF
sg17
S'N'
sg14
I8
sg19
(lp3190
S'k'
asg94
I2
sa(dp3191
g16
(lp3192
S'k'
asg18
S'Y'
sS'.thisRepN'
p3193
I35
sg20
S'Y'
sg31
g32
sS'.thisTrialN'
p3194
I5
sS'.thisN'
p3195
I390
sS'.thisIndex'
p3196
I0
sg15
(lp3197
S'k'
asg30
VF
sg17
S'Y'
sg14
I8
sg19
(lp3198
S'space'
p3199
asg94
I0
sa(dp3200
g16
(lp3201
S'k'
asg18
S'N'
sS'.thisRepN'
p3202
I35
sg20
S'N'
sg31
g32
sS'.thisTrialN'
p3203
I6
sS'.thisN'
p3204
I391
sS'.thisIndex'
p3205
I10
sg15
(lp3206
S'k'
asg30
VF
sg17
S'Y'
sg14
I8
sg19
(lp3207
S'space'
p3208
asg94
I10
sa(dp3209
g16
(lp3210
S'd'
asg18
S'N'
sS'.thisRepN'
p3211
I35
sg20
S'N'
sg31
g32
sS'.thisTrialN'
p3212
I7
sS'.thisN'
p3213
I392
sS'.thisIndex'
p3214
I2
sg15
(lp3215
S'k'
asg30
VF
sg17
S'N'
sg14
I8
sg19
(lp3216
S'k'
asg94
I2
sa(dp3217
g16
(lp3218
S'k'
asg18
S'Y'
sS'.thisRepN'
p3219
I35
sg20
S'Y'
sg31
g32
sS'.thisTrialN'
p3220
I8
sS'.thisN'
p3221
I393
sS'.thisIndex'
p3222
I8
sg15
(lp3223
S'd'
asg30
VF
sg17
S'N'
sg14
I8
sg19
(lp3224
S'space'
p3225
asg94
I8
sa(dp3226
g16
(lp3227
S'k'
asg18
S'Y'
sS'.thisRepN'
p3228
I35
sg20
S'N'
sg31
g32
sS'.thisTrialN'
p3229
I9
sS'.thisN'
p3230
I394
sS'.thisIndex'
p3231
I0
sg15
(lp3232
S'k'
asg30
VF
sg17
S'Y'
sg14
I8
sg19
(lp3233
S'k'
asg94
I0
sa(dp3234
g16
(lp3235
S'k'
asg18
S'N'
sS'.thisRepN'
p3236
I35
sg20
S'N'
sg31
g32
sS'.thisTrialN'
p3237
I10
sS'.thisN'
p3238
I395
sS'.thisIndex'
p3239
I6
sg15
(lp3240
S'k'
asg30
VF
sg17
S'Y'
sg14
I8
sg19
(lp3241
S'd'
asg94
I6
sa(dp3242
g16
(lp3243
S'd'
asg18
S'N'
sS'.thisRepN'
p3244
I36
sg20
S'Y'
sg31
g32
sS'.thisTrialN'
p3245
I0
sS'.thisN'
p3246
I396
sS'.thisIndex'
p3247
I0
sg15
(lp3248
S'k'
asg30
VF
sg17
S'N'
sg14
I8
sg19
Nsg94
I0
sa(dp3249
g16
(lp3250
S'k'
asg18
S'N'
sS'.thisRepN'
p3251
I36
sg20
S'N'
sg31
g32
sS'.thisTrialN'
p3252
I1
sS'.thisN'
p3253
I397
sS'.thisIndex'
p3254
I5
sg15
(lp3255
S'd'
asg30
VF
sg17
S'N'
sg14
I8
sg19
(lp3256
S'space'
p3257
asg94
I5
sa(dp3258
g16
(lp3259
S'k'
asg18
S'N'
sS'.thisRepN'
p3260
I36
sg20
S'N'
sg31
g32
sS'.thisTrialN'
p3261
I2
sS'.thisN'
p3262
I398
sS'.thisIndex'
p3263
I5
sg15
(lp3264
S'k'
asg30
VF
sg17
S'Y'
sg14
I8
sg19
(lp3265
S'space'
p3266
asg94
I5
sa(dp3267
g16
(lp3268
S'd'
asg18
S'Y'
sg22
I33
sS'.thisN'
p3269
I399
sg20
S'Y'
sg31
g32
sS'.thisTrialN'
p3270
I3
sS'.thisRepN'
p3271
I36
sg21
I24
sS'.thisIndex'
p3272
I3
sg23
I20
sg15
(lp3273
S'k'
asg30
VF
sg17
S'N'
sg14
I8
sg19
(lp3274
S'space'
p3275
asg94
I3
sa(dp3276
g16
(lp3277
S'd'
asg94
I10
sS'.thisRepN'
p3278
I36
sg30
VF
sg31
g32
sS'.thisTrialN'
p3279
I4
sS'.thisN'
p3280
I400
sS'.thisIndex'
p3281
I10
sg15
(lp3282
S'k'
asg17
S'N'
sg14
I9
sa(dp3283
g16
(lp3284
S'k'
asg94
I6
sS'.thisRepN'
p3285
I36
sg30
VF
sg31
g32
sS'.thisTrialN'
p3286
I5
sS'.thisN'
p3287
I401
sS'.thisIndex'
p3288
I6
sg15
(lp3289
S'd'
asg17
S'N'
sg14
I9
sa(dp3290
g16
(lp3291
S'd'
asg18
S'Y'
sS'.thisRepN'
p3292
I36
sg20
S'Y'
sg31
g32
sS'.thisTrialN'
p3293
I6
sS'.thisN'
p3294
I402
sS'.thisIndex'
p3295
I1
sg15
(lp3296
S'k'
asg30
VF
sg17
S'N'
sg14
I9
sg19
(lp3297
S'space'
p3298
asg94
I1
sa(dp3299
g16
(lp3300
S'd'
asg18
S'N'
sS'.thisRepN'
p3301
I36
sg20
S'Y'
sg31
g32
sS'.thisTrialN'
p3302
I7
sS'.thisN'
p3303
I403
sS'.thisIndex'
p3304
I0
sg15
(lp3305
S'd'
asg30
VF
sg17
S'Y'
sg14
I9
sg19
Nsg94
I0
sa(dp3306
g16
(lp3307
S'k'
asg18
S'Y'
sS'.thisRepN'
p3308
I36
sg20
S'Y'
sg31
g32
sS'.thisTrialN'
p3309
I8
sS'.thisN'
p3310
I404
sS'.thisIndex'
p3311
I6
sg15
(lp3312
S'k'
asg30
VF
sg17
S'Y'
sg14
I9
sg19
(lp3313
S'space'
p3314
asg94
I6
sa(dp3315
g16
(lp3316
S'k'
asg18
S'Y'
sS'.thisRepN'
p3317
I36
sg20
S'Y'
sg31
g32
sS'.thisTrialN'
p3318
I9
sS'.thisN'
p3319
I405
sS'.thisIndex'
p3320
I9
sg15
(lp3321
S'd'
asg30
VF
sg17
S'N'
sg14
I9
sg19
(lp3322
S'space'
p3323
asg94
I9
sa(dp3324
g16
(lp3325
S'd'
asg18
S'N'
sS'.thisRepN'
p3326
I36
sg20
S'Y'
sg31
g32
sS'.thisTrialN'
p3327
I10
sS'.thisN'
p3328
I406
sS'.thisIndex'
p3329
I2
sg15
(lp3330
S'k'
asg30
VF
sg17
S'N'
sg14
I9
sg19
Nsg94
I2
sa(dp3331
g16
(lp3332
S'k'
asg18
S'N'
sS'.thisRepN'
p3333
I37
sg20
S'Y'
sg31
g32
sS'.thisTrialN'
p3334
I0
sS'.thisN'
p3335
I407
sS'.thisIndex'
p3336
I3
sg15
(lp3337
S'd'
asg30
VF
sg17
S'N'
sg14
I9
sg19
Nsg94
I3
sa(dp3338
g16
(lp3339
S'd'
asg18
S'Y'
sS'.thisRepN'
p3340
I37
sg20
S'N'
sg31
g32
sS'.thisTrialN'
p3341
I1
sS'.thisN'
p3342
I408
sS'.thisIndex'
p3343
I7
sg15
(lp3344
S'k'
asg30
VF
sg17
S'N'
sg14
I9
sg19
(lp3345
S'k'
asg94
I7
sa(dp3346
g16
(lp3347
S'd'
asg18
S'N'
sS'.thisRepN'
p3348
I37
sg20
S'Y'
sg31
g32
sS'.thisTrialN'
p3349
I2
sS'.thisN'
p3350
I409
sS'.thisIndex'
p3351
I8
sg15
(lp3352
S'k'
asg30
VF
sg17
S'N'
sg14
I9
sg19
Nsg94
I8
sa(dp3353
g16
(lp3354
S'k'
asg18
S'Y'
sS'.thisRepN'
p3355
I37
sg20
S'Y'
sg31
g32
sS'.thisTrialN'
p3356
I3
sS'.thisN'
p3357
I410
sS'.thisIndex'
p3358
I8
sg15
(lp3359
S'k'
asg30
VF
sg17
S'Y'
sg14
I9
sg19
(lp3360
S'space'
p3361
asg94
I8
sa(dp3362
g16
(lp3363
S'k'
asg18
S'Y'
sS'.thisRepN'
p3364
I37
sg20
S'Y'
sg31
g32
sS'.thisTrialN'
p3365
I4
sS'.thisN'
p3366
I411
sS'.thisIndex'
p3367
I9
sg15
(lp3368
S'd'
asg30
VF
sg17
S'N'
sg14
I9
sg19
(lp3369
S'space'
p3370
asg94
I9
sa(dp3371
g16
(lp3372
S'k'
asg18
S'N'
sS'.thisRepN'
p3373
I37
sg20
S'Y'
sg31
g32
sS'.thisTrialN'
p3374
I5
sS'.thisN'
p3375
I412
sS'.thisIndex'
p3376
I3
sg15
(lp3377
S'k'
asg30
VF
sg17
S'Y'
sg14
I9
sg19
Nsg94
I3
sa(dp3378
g16
(lp3379
S'd'
asg18
S'Y'
sS'.thisRepN'
p3380
I37
sg20
S'N'
sg31
g32
sS'.thisTrialN'
p3381
I6
sS'.thisN'
p3382
I413
sS'.thisIndex'
p3383
I5
sg15
(lp3384
S'd'
asg30
VF
sg17
S'Y'
sg14
I9
sg19
(lp3385
S'k'
asg94
I5
sa(dp3386
g16
(lp3387
S'd'
asg18
S'Y'
sS'.thisRepN'
p3388
I37
sg20
S'N'
sg31
g32
sS'.thisTrialN'
p3389
I7
sS'.thisN'
p3390
I414
sS'.thisIndex'
p3391
I9
sg15
(lp3392
S'k'
asg30
VF
sg17
S'N'
sg14
I9
sg19
Nsg94
I9
sa(dp3393
g16
(lp3394
S'k'
asg18
S'N'
sS'.thisRepN'
p3395
I37
sg20
S'N'
sg31
g32
sS'.thisTrialN'
p3396
I8
sS'.thisN'
p3397
I415
sS'.thisIndex'
p3398
I5
sg15
(lp3399
S'k'
asg30
VF
sg17
S'Y'
sg14
I9
sg19
(lp3400
S'd'
asg94
I5
sa(dp3401
g16
(lp3402
S'k'
asg18
S'Y'
sS'.thisRepN'
p3403
I37
sg20
S'N'
sg31
g32
sS'.thisTrialN'
p3404
I9
sS'.thisN'
p3405
I416
sS'.thisIndex'
p3406
I1
sg15
(lp3407
S'd'
asg30
VF
sg17
S'N'
sg14
I9
sg19
(lp3408
S'd'
asg94
I1
sa(dp3409
g16
(lp3410
S'd'
asg18
S'Y'
sS'.thisRepN'
p3411
I37
sg20
S'Y'
sg31
g32
sS'.thisTrialN'
p3412
I10
sS'.thisN'
p3413
I417
sS'.thisIndex'
p3414
I7
sg15
(lp3415
S'k'
asg30
VF
sg17
S'N'
sg14
I9
sg19
(lp3416
S'space'
p3417
asg94
I7
sa(dp3418
g16
(lp3419
S'd'
asg18
S'N'
sS'.thisRepN'
p3420
I38
sg20
S'N'
sg31
g32
sS'.thisTrialN'
p3421
I0
sS'.thisN'
p3422
I418
sS'.thisIndex'
p3423
I8
sg15
(lp3424
S'd'
asg30
VF
sg17
S'Y'
sg14
I9
sg19
(lp3425
S'd'
asg94
I8
sa(dp3426
g16
(lp3427
S'd'
asg18
S'Y'
sS'.thisRepN'
p3428
I38
sg20
S'Y'
sg31
g32
sS'.thisTrialN'
p3429
I1
sS'.thisN'
p3430
I419
sS'.thisIndex'
p3431
I8
sg15
(lp3432
S'k'
asg30
VF
sg17
S'N'
sg14
I9
sg19
(lp3433
S'space'
p3434
asg94
I8
sa(dp3435
g16
(lp3436
S'k'
asg18
S'Y'
sS'.thisRepN'
p3437
I38
sg20
S'Y'
sg31
g32
sS'.thisTrialN'
p3438
I2
sS'.thisN'
p3439
I420
sS'.thisIndex'
p3440
I5
sg15
(lp3441
S'd'
asg30
VF
sg17
S'N'
sg14
I9
sg19
(lp3442
S'space'
p3443
asg94
I5
sa(dp3444
g16
(lp3445
S'k'
asg18
S'N'
sS'.thisRepN'
p3446
I38
sg20
S'N'
sg31
g32
sS'.thisTrialN'
p3447
I3
sS'.thisN'
p3448
I421
sS'.thisIndex'
p3449
I9
sg15
(lp3450
S'k'
asg30
VF
sg17
S'Y'
sg14
I9
sg19
(lp3451
S'k'
asg94
I9
sa(dp3452
g16
(lp3453
S'k'
asg18
S'N'
sS'.thisRepN'
p3454
I38
sg20
S'N'
sg31
g32
sS'.thisTrialN'
p3455
I4
sS'.thisN'
p3456
I422
sS'.thisIndex'
p3457
I0
sg15
(lp3458
S'd'
asg30
VF
sg17
S'N'
sg14
I9
sg19
(lp3459
S'space'
p3460
asg94
I0
sa(dp3461
g16
(lp3462
S'd'
asg18
S'Y'
sS'.thisRepN'
p3463
I38
sg20
S'Y'
sg31
g32
sS'.thisTrialN'
p3464
I5
sS'.thisN'
p3465
I423
sS'.thisIndex'
p3466
I2
sg15
(lp3467
S'k'
asg30
VF
sg17
S'N'
sg14
I9
sg19
(lp3468
S'space'
p3469
asg94
I2
sa(dp3470
g16
(lp3471
S'k'
asg18
S'N'
sS'.thisRepN'
p3472
I38
sg20
S'N'
sg31
g32
sS'.thisTrialN'
p3473
I6
sS'.thisN'
p3474
I424
sS'.thisIndex'
p3475
I6
sg15
(lp3476
S'd'
asg30
VF
sg17
S'N'
sg14
I9
sg19
(lp3477
S'd'
asg94
I6
sa(dp3478
g16
(lp3479
S'd'
asg18
S'Y'
sS'.thisRepN'
p3480
I38
sg20
S'N'
sg31
g32
sS'.thisTrialN'
p3481
I7
sS'.thisN'
p3482
I425
sS'.thisIndex'
p3483
I7
sg15
(lp3484
S'd'
asg30
VF
sg17
S'Y'
sg14
I9
sg19
(lp3485
S'k'
asg94
I7
sa(dp3486
g16
(lp3487
S'k'
asg18
S'N'
sS'.thisRepN'
p3488
I38
sg20
S'N'
sg31
g32
sS'.thisTrialN'
p3489
I8
sS'.thisN'
p3490
I426
sS'.thisIndex'
p3491
I4
sg15
(lp3492
S'k'
asg30
VF
sg17
S'Y'
sg14
I9
sg19
(lp3493
S'd'
asg94
I4
sa(dp3494
g16
(lp3495
S'd'
asg18
S'Y'
sS'.thisRepN'
p3496
I38
sg20
S'N'
sg31
g32
sS'.thisTrialN'
p3497
I9
sS'.thisN'
p3498
I427
sS'.thisIndex'
p3499
I7
sg15
(lp3500
S'd'
asg30
VF
sg17
S'Y'
sg14
I9
sg19
(lp3501
S'k'
asg94
I7
sa(dp3502
g16
(lp3503
S'k'
asg18
S'N'
sS'.thisRepN'
p3504
I38
sg20
S'N'
sg31
g32
sS'.thisTrialN'
p3505
I10
sS'.thisN'
p3506
I428
sS'.thisIndex'
p3507
I9
sg15
(lp3508
S'd'
asg30
VF
sg17
S'N'
sg14
I9
sg19
(lp3509
S'space'
p3510
asg94
I9
sa(dp3511
g16
(lp3512
S'k'
asg18
S'Y'
sS'.thisRepN'
p3513
I39
sg20
S'N'
sg31
g32
sS'.thisTrialN'
p3514
I0
sS'.thisN'
p3515
I429
sS'.thisIndex'
p3516
I1
sg15
(lp3517
S'd'
asg30
VF
sg17
S'N'
sg14
I9
sg19
(lp3518
S'k'
asg94
I1
sa(dp3519
g16
(lp3520
S'k'
asg18
S'Y'
sS'.thisRepN'
p3521
I39
sg20
S'N'
sg31
g32
sS'.thisTrialN'
p3522
I1
sS'.thisN'
p3523
I430
sS'.thisIndex'
p3524
I9
sg15
(lp3525
S'd'
asg30
VF
sg17
S'N'
sg14
I9
sg19
(lp3526
S'k'
asg94
I9
sa(dp3527
g16
(lp3528
S'd'
asg18
S'Y'
sS'.thisRepN'
p3529
I39
sg20
S'N'
sg31
g32
sS'.thisTrialN'
p3530
I2
sS'.thisN'
p3531
I431
sS'.thisIndex'
p3532
I3
sg15
(lp3533
S'k'
asg30
VF
sg17
S'N'
sg14
I9
sg19
Nsg94
I3
sa(dp3534
g16
(lp3535
S'd'
asg18
S'Y'
sS'.thisRepN'
p3536
I39
sg20
S'N'
sg31
g32
sS'.thisTrialN'
p3537
I3
sS'.thisN'
p3538
I432
sS'.thisIndex'
p3539
I10
sg15
(lp3540
S'd'
asg30
VF
sg17
S'Y'
sg14
I9
sg19
Nsg94
I10
sa(dp3541
g16
(lp3542
S'k'
asg18
S'N'
sS'.thisRepN'
p3543
I39
sg20
S'Y'
sg31
g32
sS'.thisTrialN'
p3544
I4
sS'.thisN'
p3545
I433
sS'.thisIndex'
p3546
I8
sg15
(lp3547
S'd'
asg30
VF
sg17
S'N'
sg14
I9
sg19
Nsg94
I8
sa(dp3548
g16
(lp3549
S'k'
asg18
S'Y'
sS'.thisRepN'
p3550
I39
sg20
S'Y'
sg31
g32
sS'.thisTrialN'
p3551
I5
sS'.thisN'
p3552
I434
sS'.thisIndex'
p3553
I1
sg15
(lp3554
S'k'
asg30
VF
sg17
S'Y'
sg14
I9
sg19
(lp3555
S'space'
p3556
asg94
I1
sa(dp3557
g16
(lp3558
S'd'
asg18
S'Y'
sS'.thisRepN'
p3559
I39
sg20
S'Y'
sg31
g32
sS'.thisTrialN'
p3560
I6
sS'.thisN'
p3561
I435
sS'.thisIndex'
p3562
I1
sg15
(lp3563
S'd'
asg30
VF
sg17
S'Y'
sg14
I9
sg19
(lp3564
S'space'
p3565
asg94
I1
sa(dp3566
g16
(lp3567
S'k'
asg18
S'N'
sS'.thisRepN'
p3568
I39
sg20
S'Y'
sg31
g32
sS'.thisTrialN'
p3569
I7
sS'.thisN'
p3570
I436
sS'.thisIndex'
p3571
I7
sg15
(lp3572
S'd'
asg30
VF
sg17
S'N'
sg14
I9
sg19
Nsg94
I7
sa(dp3573
g16
(lp3574
S'k'
asg18
S'N'
sS'.thisRepN'
p3575
I39
sg20
S'Y'
sg31
g32
sS'.thisTrialN'
p3576
I8
sS'.thisN'
p3577
I437
sS'.thisIndex'
p3578
I7
sg15
(lp3579
S'k'
asg30
VF
sg17
S'Y'
sg14
I9
sg19
Nsg94
I7
sa(dp3580
g16
(lp3581
S'k'
asg18
S'N'
sS'.thisRepN'
p3582
I39
sg20
S'Y'
sg31
g32
sS'.thisTrialN'
p3583
I9
sS'.thisN'
p3584
I438
sS'.thisIndex'
p3585
I8
sg15
(lp3586
S'd'
asg30
VF
sg17
S'N'
sg14
I9
sg19
Nsg94
I8
sa(dp3587
g16
(lp3588
S'd'
asg18
S'N'
sS'.thisRepN'
p3589
I39
sg20
S'Y'
sg31
g32
sS'.thisTrialN'
p3590
I10
sS'.thisN'
p3591
I439
sS'.thisIndex'
p3592
I3
sg15
(lp3593
S'k'
asg30
VF
sg17
S'N'
sg14
I9
sg19
Nsg94
I3
sa(dp3594
g16
(lp3595
S'd'
asg18
S'Y'
sS'.thisRepN'
p3596
I40
sg20
S'N'
sg31
g32
sS'.thisTrialN'
p3597
I0
sS'.thisN'
p3598
I440
sS'.thisIndex'
p3599
I6
sg15
(lp3600
S'd'
asg30
VF
sg17
S'Y'
sg14
I9
sg19
Nsg94
I6
sa(dp3601
g16
(lp3602
S'k'
asg18
S'N'
sS'.thisRepN'
p3603
I40
sg20
S'Y'
sg31
g32
sS'.thisTrialN'
p3604
I1
sS'.thisN'
p3605
I441
sS'.thisIndex'
p3606
I0
sg15
(lp3607
S'd'
asg30
VF
sg17
S'N'
sg14
I9
sg19
Nsg94
I0
sa(dp3608
g16
(lp3609
S'k'
asg18
S'Y'
sS'.thisRepN'
p3610
I40
sg20
S'N'
sg31
g32
sS'.thisTrialN'
p3611
I2
sS'.thisN'
p3612
I442
sS'.thisIndex'
p3613
I9
sg15
(lp3614
S'k'
asg30
VF
sg17
S'Y'
sg14
I9
sg19
Nsg94
I9
sa(dp3615
g16
(lp3616
S'k'
asg18
S'Y'
sS'.thisRepN'
p3617
I40
sg20
S'N'
sg31
g32
sS'.thisTrialN'
p3618
I3
sS'.thisN'
p3619
I443
sS'.thisIndex'
p3620
I7
sg15
(lp3621
S'd'
asg30
VF
sg17
S'N'
sg14
I9
sg19
Nsg94
I7
sa(dp3622
g16
(lp3623
S'd'
asg18
S'Y'
sS'.thisRepN'
p3624
I40
sg20
S'Y'
sg31
g32
sS'.thisTrialN'
p3625
I4
sS'.thisN'
p3626
I444
sS'.thisIndex'
p3627
I2
sg15
(lp3628
S'k'
asg30
VF
sg17
S'N'
sg14
I9
sg19
(lp3629
S'space'
p3630
asg94
I2
sa(dp3631
g16
(lp3632
S'k'
asg18
S'N'
sS'.thisRepN'
p3633
I40
sg20
S'Y'
sg31
g32
sS'.thisTrialN'
p3634
I5
sS'.thisN'
p3635
I445
sS'.thisIndex'
p3636
I0
sg15
(lp3637
S'd'
asg30
VF
sg17
S'N'
sg14
I9
sg19
Nsg94
I0
sa(dp3638
g16
(lp3639
S'k'
asg18
S'N'
sS'.thisRepN'
p3640
I40
sg20
S'Y'
sg31
g32
sS'.thisTrialN'
p3641
I6
sS'.thisN'
p3642
I446
sS'.thisIndex'
p3643
I4
sg15
(lp3644
S'k'
asg30
VF
sg17
S'Y'
sg14
I9
sg19
Nsg94
I4
sa(dp3645
g16
(lp3646
S'd'
asg18
S'N'
sS'.thisRepN'
p3647
I40
sg20
S'Y'
sg31
g32
sS'.thisTrialN'
p3648
I7
sS'.thisN'
p3649
I447
sS'.thisIndex'
p3650
I7
sg15
(lp3651
S'd'
asg30
VF
sg17
S'Y'
sg14
I9
sg19
Nsg94
I7
sa(dp3652
g16
(lp3653
S'k'
asg18
S'N'
sS'.thisRepN'
p3654
I40
sg20
S'Y'
sg31
g32
sS'.thisTrialN'
p3655
I8
sS'.thisN'
p3656
I448
sS'.thisIndex'
p3657
I1
sg15
(lp3658
S'k'
asg30
VF
sg17
S'Y'
sg14
I9
sg19
Nsg94
I1
sa(dp3659
g16
(lp3660
S'k'
asg18
S'N'
sg22
I28
sS'.thisN'
p3661
I449
sg20
S'Y'
sg31
g32
sS'.thisTrialN'
p3662
I9
sS'.thisRepN'
p3663
I40
sg21
I20
sS'.thisIndex'
p3664
I3
sg23
I25
sg15
(lp3665
S'd'
asg30
VF
sg17
S'N'
sg14
I9
sg19
Nsg94
I3
sa(dp3666
g16
(lp3667
S'd'
asg94
I3
sS'.thisRepN'
p3668
I40
sg30
VF
sg31
g32
sS'.thisTrialN'
p3669
I10
sS'.thisN'
p3670
I450
sS'.thisIndex'
p3671
I3
sg15
(lp3672
S'k'
asg17
S'N'
sg14
I10
sa(dp3673
g16
(lp3674
S'd'
asg94
I9
sS'.thisRepN'
p3675
I41
sg30
VF
sg31
g32
sS'.thisTrialN'
p3676
I0
sS'.thisN'
p3677
I451
sS'.thisIndex'
p3678
I9
sg15
(lp3679
S'd'
asg17
S'Y'
sg14
I10
sa(dp3680
g16
(lp3681
S'k'
asg18
S'Y'
sS'.thisRepN'
p3682
I41
sg20
S'N'
sg31
g32
sS'.thisTrialN'
p3683
I1
sS'.thisN'
p3684
I452
sS'.thisIndex'
p3685
I7
sg15
(lp3686
S'd'
asg30
VF
sg17
S'N'
sg14
I10
sg19
(lp3687
S'k'
asg94
I7
sa(dp3688
g16
(lp3689
S'd'
asg18
S'Y'
sS'.thisRepN'
p3690
I41
sg20
S'Y'
sg31
g32
sS'.thisTrialN'
p3691
I2
sS'.thisN'
p3692
I453
sS'.thisIndex'
p3693
I3
sg15
(lp3694
S'k'
asg30
VF
sg17
S'N'
sg14
I10
sg19
(lp3695
S'space'
p3696
asg94
I3
sa(dp3697
g16
(lp3698
S'd'
asg18
S'Y'
sS'.thisRepN'
p3699
I41
sg20
S'N'
sg31
g32
sS'.thisTrialN'
p3700
I3
sS'.thisN'
p3701
I454
sS'.thisIndex'
p3702
I9
sg15
(lp3703
S'd'
asg30
VF
sg17
S'Y'
sg14
I10
sg19
(lp3704
S'd'
asg94
I9
sa(dp3705
g16
(lp3706
S'k'
asg18
S'N'
sS'.thisRepN'
p3707
I41
sg20
S'Y'
sg31
g32
sS'.thisTrialN'
p3708
I4
sS'.thisN'
p3709
I455
sS'.thisIndex'
p3710
I2
sg15
(lp3711
S'd'
asg30
VF
sg17
S'N'
sg14
I10
sg19
Nsg94
I2
sa(dp3712
g16
(lp3713
S'd'
asg18
S'N'
sS'.thisRepN'
p3714
I41
sg20
S'Y'
sg31
g32
sS'.thisTrialN'
p3715
I5
sS'.thisN'
p3716
I456
sS'.thisIndex'
p3717
I6
sg15
(lp3718
S'k'
asg30
VF
sg17
S'N'
sg14
I10
sg19
Nsg94
I6
sa(dp3719
g16
(lp3720
S'd'
asg18
S'Y'
sS'.thisRepN'
p3721
I41
sg20
S'Y'
sg31
g32
sS'.thisTrialN'
p3722
I6
sS'.thisN'
p3723
I457
sS'.thisIndex'
p3724
I5
sg15
(lp3725
S'd'
asg30
VF
sg17
S'Y'
sg14
I10
sg19
(lp3726
S'space'
p3727
asg94
I5
sa(dp3728
g16
(lp3729
S'k'
asg18
S'N'
sS'.thisRepN'
p3730
I41
sg20
S'N'
sg31
g32
sS'.thisTrialN'
p3731
I7
sS'.thisN'
p3732
I458
sS'.thisIndex'
p3733
I3
sg15
(lp3734
S'k'
asg30
VF
sg17
S'Y'
sg14
I10
sg19
(lp3735
S'space'
p3736
asg94
I3
sa(dp3737
g16
(lp3738
S'k'
asg18
S'N'
sS'.thisRepN'
p3739
I41
sg20
S'Y'
sg31
g32
sS'.thisTrialN'
p3740
I8
sS'.thisN'
p3741
I459
sS'.thisIndex'
p3742
I2
sg15
(lp3743
S'd'
asg30
VF
sg17
S'N'
sg14
I10
sg19
Nsg94
I2
sa(dp3744
g16
(lp3745
S'k'
asg18
S'Y'
sS'.thisRepN'
p3746
I41
sg20
S'N'
sg31
g32
sS'.thisTrialN'
p3747
I9
sS'.thisN'
p3748
I460
sS'.thisIndex'
p3749
I9
sg15
(lp3750
S'd'
asg30
VF
sg17
S'N'
sg14
I10
sg19
(lp3751
S'k'
asg94
I9
sa(dp3752
g16
(lp3753
S'k'
asg18
S'N'
sS'.thisRepN'
p3754
I41
sg20
S'Y'
sg31
g32
sS'.thisTrialN'
p3755
I10
sS'.thisN'
p3756
I461
sS'.thisIndex'
p3757
I10
sg15
(lp3758
S'k'
asg30
VF
sg17
S'Y'
sg14
I10
sg19
Nsg94
I10
sa(dp3759
g16
(lp3760
S'k'
asg18
S'N'
sS'.thisRepN'
p3761
I42
sg20
S'Y'
sg31
g32
sS'.thisTrialN'
p3762
I0
sS'.thisN'
p3763
I462
sS'.thisIndex'
p3764
I3
sg15
(lp3765
S'd'
asg30
VF
sg17
S'N'
sg14
I10
sg19
Nsg94
I3
sa(dp3766
g16
(lp3767
S'd'
asg18
S'N'
sS'.thisRepN'
p3768
I42
sg20
S'Y'
sg31
g32
sS'.thisTrialN'
p3769
I1
sS'.thisN'
p3770
I463
sS'.thisIndex'
p3771
I8
sg15
(lp3772
S'k'
asg30
VF
sg17
S'N'
sg14
I10
sg19
Nsg94
I8
sa(dp3773
g16
(lp3774
S'd'
asg18
S'N'
sS'.thisRepN'
p3775
I42
sg20
S'Y'
sg31
g32
sS'.thisTrialN'
p3776
I2
sS'.thisN'
p3777
I464
sS'.thisIndex'
p3778
I0
sg15
(lp3779
S'd'
asg30
VF
sg17
S'Y'
sg14
I10
sg19
Nsg94
I0
sa(dp3780
g16
(lp3781
S'k'
asg18
S'Y'
sS'.thisRepN'
p3782
I42
sg20
S'Y'
sg31
g32
sS'.thisTrialN'
p3783
I3
sS'.thisN'
p3784
I465
sS'.thisIndex'
p3785
I9
sg15
(lp3786
S'd'
asg30
VF
sg17
S'N'
sg14
I10
sg19
(lp3787
S'space'
p3788
asg94
I9
sa(dp3789
g16
(lp3790
S'd'
asg18
S'Y'
sS'.thisRepN'
p3791
I42
sg20
S'Y'
sg31
g32
sS'.thisTrialN'
p3792
I4
sS'.thisN'
p3793
I466
sS'.thisIndex'
p3794
I5
sg15
(lp3795
S'k'
asg30
VF
sg17
S'N'
sg14
I10
sg19
(lp3796
S'space'
p3797
asg94
I5
sa(dp3798
g16
(lp3799
S'd'
asg18
S'Y'
sS'.thisRepN'
p3800
I42
sg20
S'N'
sg31
g32
sS'.thisTrialN'
p3801
I5
sS'.thisN'
p3802
I467
sS'.thisIndex'
p3803
I0
sg15
(lp3804
S'd'
asg30
VF
sg17
S'Y'
sg14
I10
sg19
(lp3805
S'd'
asg94
I0
sa(dp3806
g16
(lp3807
S'k'
asg18
S'N'
sS'.thisRepN'
p3808
I42
sg20
S'Y'
sg31
g32
sS'.thisTrialN'
p3809
I6
sS'.thisN'
p3810
I468
sS'.thisIndex'
p3811
I2
sg15
(lp3812
S'k'
asg30
VF
sg17
S'Y'
sg14
I10
sg19
Nsg94
I2
sa(dp3813
g16
(lp3814
S'd'
asg18
S'Y'
sS'.thisRepN'
p3815
I42
sg20
S'Y'
sg31
g32
sS'.thisTrialN'
p3816
I7
sS'.thisN'
p3817
I469
sS'.thisIndex'
p3818
I3
sg15
(lp3819
S'd'
asg30
VF
sg17
S'Y'
sg14
I10
sg19
(lp3820
S'space'
p3821
asg94
I3
sa(dp3822
g16
(lp3823
S'k'
asg18
S'N'
sS'.thisRepN'
p3824
I42
sg20
S'Y'
sg31
g32
sS'.thisTrialN'
p3825
I8
sS'.thisN'
p3826
I470
sS'.thisIndex'
p3827
I9
sg15
(lp3828
S'd'
asg30
VF
sg17
S'N'
sg14
I10
sg19
Nsg94
I9
sa(dp3829
g16
(lp3830
S'd'
asg18
S'N'
sS'.thisRepN'
p3831
I42
sg20
S'N'
sg31
g32
sS'.thisTrialN'
p3832
I9
sS'.thisN'
p3833
I471
sS'.thisIndex'
p3834
I2
sg15
(lp3835
S'd'
asg30
VF
sg17
S'Y'
sg14
I10
sg19
(lp3836
S'k'
asg94
I2
sa(dp3837
g16
(lp3838
S'k'
asg18
S'N'
sS'.thisRepN'
p3839
I42
sg20
S'Y'
sg31
g32
sS'.thisTrialN'
p3840
I10
sS'.thisN'
p3841
I472
sS'.thisIndex'
p3842
I0
sg15
(lp3843
S'd'
asg30
VF
sg17
S'N'
sg14
I10
sg19
Nsg94
I0
sa(dp3844
g16
(lp3845
S'k'
asg18
S'Y'
sS'.thisRepN'
p3846
I43
sg20
S'Y'
sg31
g32
sS'.thisTrialN'
p3847
I0
sS'.thisN'
p3848
I473
sS'.thisIndex'
p3849
I1
sg15
(lp3850
S'k'
asg30
VF
sg17
S'Y'
sg14
I10
sg19
(lp3851
S'space'
p3852
asg94
I1
sa(dp3853
g16
(lp3854
S'k'
asg18
S'N'
sS'.thisRepN'
p3855
I43
sg20
S'Y'
sg31
g32
sS'.thisTrialN'
p3856
I1
sS'.thisN'
p3857
I474
sS'.thisIndex'
p3858
I4
sg15
(lp3859
S'd'
asg30
VF
sg17
S'N'
sg14
I10
sg19
Nsg94
I4
sa(dp3860
g16
(lp3861
S'd'
asg18
S'N'
sS'.thisRepN'
p3862
I43
sg20
S'Y'
sg31
g32
sS'.thisTrialN'
p3863
I2
sS'.thisN'
p3864
I475
sS'.thisIndex'
p3865
I7
sg15
(lp3866
S'k'
asg30
VF
sg17
S'N'
sg14
I10
sg19
Nsg94
I7
sa(dp3867
g16
(lp3868
S'd'
asg18
S'Y'
sS'.thisRepN'
p3869
I43
sg20
S'N'
sg31
g32
sS'.thisTrialN'
p3870
I3
sS'.thisN'
p3871
I476
sS'.thisIndex'
p3872
I1
sg15
(lp3873
S'd'
asg30
VF
sg17
S'Y'
sg14
I10
sg19
Nsg94
I1
sa(dp3874
g16
(lp3875
S'k'
asg18
S'Y'
sS'.thisRepN'
p3876
I43
sg20
S'Y'
sg31
g32
sS'.thisTrialN'
p3877
I4
sS'.thisN'
p3878
I477
sS'.thisIndex'
p3879
I7
sg15
(lp3880
S'd'
asg30
VF
sg17
S'N'
sg14
I10
sg19
(lp3881
S'space'
p3882
asg94
I7
sa(dp3883
g16
(lp3884
S'k'
asg18
S'Y'
sS'.thisRepN'
p3885
I43
sg20
S'Y'
sg31
g32
sS'.thisTrialN'
p3886
I5
sS'.thisN'
p3887
I478
sS'.thisIndex'
p3888
I0
sg15
(lp3889
S'k'
asg30
VF
sg17
S'Y'
sg14
I10
sg19
(lp3890
S'space'
p3891
asg94
I0
sa(dp3892
g16
(lp3893
S'k'
asg18
S'Y'
sS'.thisRepN'
p3894
I43
sg20
S'Y'
sg31
g32
sS'.thisTrialN'
p3895
I6
sS'.thisN'
p3896
I479
sS'.thisIndex'
p3897
I10
sg15
(lp3898
S'd'
asg30
VF
sg17
S'N'
sg14
I10
sg19
(lp3899
S'space'
p3900
asg94
I10
sa(dp3901
g16
(lp3902
S'k'
asg18
S'N'
sS'.thisRepN'
p3903
I43
sg20
S'Y'
sg31
g32
sS'.thisTrialN'
p3904
I7
sS'.thisN'
p3905
I480
sS'.thisIndex'
p3906
I1
sg15
(lp3907
S'k'
asg30
VF
sg17
S'Y'
sg14
I10
sg19
Nsg94
I1
sa(dp3908
g16
(lp3909
S'k'
asg18
S'Y'
sS'.thisRepN'
p3910
I43
sg20
S'Y'
sg31
g32
sS'.thisTrialN'
p3911
I8
sS'.thisN'
p3912
I481
sS'.thisIndex'
p3913
I2
sg15
(lp3914
S'd'
asg30
VF
sg17
S'N'
sg14
I10
sg19
(lp3915
S'space'
p3916
asg94
I2
sa(dp3917
g16
(lp3918
S'd'
asg18
S'Y'
sS'.thisRepN'
p3919
I43
sg20
S'N'
sg31
g32
sS'.thisTrialN'
p3920
I9
sS'.thisN'
p3921
I482
sS'.thisIndex'
p3922
I5
sg15
(lp3923
S'k'
asg30
VF
sg17
S'N'
sg14
I10
sg19
Nsg94
I5
sa(dp3924
g16
(lp3925
S'k'
asg18
S'N'
sS'.thisRepN'
p3926
I43
sg20
S'Y'
sg31
g32
sS'.thisTrialN'
p3927
I10
sS'.thisN'
p3928
I483
sS'.thisIndex'
p3929
I8
sg15
(lp3930
S'd'
asg30
VF
sg17
S'N'
sg14
I10
sg19
Nsg94
I8
sa(dp3931
g16
(lp3932
S'd'
asg18
S'Y'
sS'.thisRepN'
p3933
I44
sg20
S'Y'
sg31
g32
sS'.thisTrialN'
p3934
I0
sS'.thisN'
p3935
I484
sS'.thisIndex'
p3936
I2
sg15
(lp3937
S'k'
asg30
VF
sg17
S'N'
sg14
I10
sg19
(lp3938
S'space'
p3939
asg94
I2
sa(dp3940
g16
(lp3941
S'k'
asg18
S'N'
sS'.thisRepN'
p3942
I44
sg20
S'Y'
sg31
g32
sS'.thisTrialN'
p3943
I1
sS'.thisN'
p3944
I485
sS'.thisIndex'
p3945
I8
sg15
(lp3946
S'd'
asg30
VF
sg17
S'N'
sg14
I10
sg19
Nsg94
I8
sa(dp3947
g16
(lp3948
S'd'
asg18
S'N'
sS'.thisRepN'
p3949
I44
sg20
S'Y'
sg31
g32
sS'.thisTrialN'
p3950
I2
sS'.thisN'
p3951
I486
sS'.thisIndex'
p3952
I5
sg15
(lp3953
S'k'
asg30
VF
sg17
S'N'
sg14
I10
sg19
Nsg94
I5
sa(dp3954
g16
(lp3955
S'k'
asg18
S'N'
sS'.thisRepN'
p3956
I44
sg20
S'N'
sg31
g32
sS'.thisTrialN'
p3957
I3
sS'.thisN'
p3958
I487
sS'.thisIndex'
p3959
I1
sg15
(lp3960
S'd'
asg30
VF
sg17
S'N'
sg14
I10
sg19
(lp3961
S'd'
asg94
I1
sa(dp3962
g16
(lp3963
S'd'
asg18
S'Y'
sS'.thisRepN'
p3964
I44
sg20
S'Y'
sg31
g32
sS'.thisTrialN'
p3965
I4
sS'.thisN'
p3966
I488
sS'.thisIndex'
p3967
I10
sg15
(lp3968
S'k'
asg30
VF
sg17
S'N'
sg14
I10
sg19
(lp3969
S'space'
p3970
asg94
I10
sa(dp3971
g16
(lp3972
S'k'
asg18
S'Y'
sS'.thisRepN'
p3973
I44
sg20
S'Y'
sg31
g32
sS'.thisTrialN'
p3974
I5
sS'.thisN'
p3975
I489
sS'.thisIndex'
p3976
I0
sg15
(lp3977
S'd'
asg30
VF
sg17
S'N'
sg14
I10
sg19
(lp3978
S'space'
p3979
asg94
I0
sa(dp3980
g16
(lp3981
S'k'
asg18
S'N'
sS'.thisRepN'
p3982
I44
sg20
S'Y'
sg31
g32
sS'.thisTrialN'
p3983
I6
sS'.thisN'
p3984
I490
sS'.thisIndex'
p3985
I9
sg15
(lp3986
S'k'
asg30
VF
sg17
S'Y'
sg14
I10
sg19
Nsg94
I9
sa(dp3987
g16
(lp3988
S'k'
asg18
S'Y'
sS'.thisRepN'
p3989
I44
sg20
S'N'
sg31
g32
sS'.thisTrialN'
p3990
I7
sS'.thisN'
p3991
I491
sS'.thisIndex'
p3992
I5
sg15
(lp3993
S'd'
asg30
VF
sg17
S'N'
sg14
I10
sg19
Nsg94
I5
sa(dp3994
g16
(lp3995
S'd'
asg18
S'N'
sS'.thisRepN'
p3996
I44
sg20
S'Y'
sg31
g32
sS'.thisTrialN'
p3997
I8
sS'.thisN'
p3998
I492
sS'.thisIndex'
p3999
I7
sg15
(lp4000
S'd'
asg30
VF
sg17
S'Y'
sg14
I10
sg19
Nsg94
I7
sa(dp4001
g16
(lp4002
S'd'
asg18
S'N'
sS'.thisRepN'
p4003
I44
sg20
S'Y'
sg31
g32
sS'.thisTrialN'
p4004
I9
sS'.thisN'
p4005
I493
sS'.thisIndex'
p4006
I9
sg15
(lp4007
S'k'
asg30
VF
sg17
S'N'
sg14
I10
sg19
Nsg94
I9
sa(dp4008
g16
(lp4009
S'd'
asg18
S'N'
sS'.thisRepN'
p4010
I44
sg20
S'N'
sg31
g32
sS'.thisTrialN'
p4011
I10
sS'.thisN'
p4012
I494
sS'.thisIndex'
p4013
I8
sg15
(lp4014
S'd'
asg30
VF
sg17
S'Y'
sg14
I10
sg19
(lp4015
S'd'
asg94
I8
sa(dp4016
g16
(lp4017
S'k'
asg18
S'Y'
sS'.thisRepN'
p4018
I45
sg20
S'N'
sg31
g32
sS'.thisTrialN'
p4019
I0
sS'.thisN'
p4020
I495
sS'.thisIndex'
p4021
I1
sg15
(lp4022
S'd'
asg30
VF
sg17
S'N'
sg14
I10
sg19
(lp4023
S'd'
asg94
I1
sa(dp4024
g16
(lp4025
S'd'
asg18
S'N'
sS'.thisRepN'
p4026
I45
sg20
S'Y'
sg31
g32
sS'.thisTrialN'
p4027
I1
sS'.thisN'
p4028
I496
sS'.thisIndex'
p4029
I3
sg15
(lp4030
S'k'
asg30
VF
sg17
S'N'
sg14
I10
sg19
Nsg94
I3
sa(dp4031
g16
(lp4032
S'k'
asg18
S'Y'
sS'.thisRepN'
p4033
I45
sg20
S'Y'
sg31
g32
sS'.thisTrialN'
p4034
I2
sS'.thisN'
p4035
I497
sS'.thisIndex'
p4036
I0
sg15
(lp4037
S'd'
asg30
VF
sg17
S'N'
sg14
I10
sg19
(lp4038
S'space'
p4039
asg94
I0
sa(dp4040
g16
(lp4041
S'k'
asg18
S'N'
sS'.thisRepN'
p4042
I45
sg20
S'N'
sg31
g32
sS'.thisTrialN'
p4043
I3
sS'.thisN'
p4044
I498
sS'.thisIndex'
p4045
I9
sg15
(lp4046
S'd'
asg30
VF
sg17
S'N'
sg14
I10
sg19
(lp4047
S'k'
asg94
I9
sa(dp4048
g16
(lp4049
S'd'
asg18
S'N'
sg22
I35
sS'.thisN'
p4050
I499
sg20
S'Y'
sg31
g32
sS'.thisTrialN'
p4051
I4
sS'.thisRepN'
p4052
I45
sg21
I17
sS'.thisIndex'
p4053
I4
sg23
I22
sg15
(lp4054
S'k'
asg30
VF
sg17
S'N'
sg14
I10
sg19
Nsg94
I4
sa(dp4055
g16
(lp4056
S'k'
asS'.thisIndex'
p4057
I0
sS'.thisRepN'
p4058
I45
sg26
S'Y'
sg30
VF
sg31
g32
sS'.thisTrialN'
p4059
I5
sS'.thisN'
p4060
I500
sg25
S'Y'
sg24
S'Y'
sg15
(lp4061
S'k'
asg17
S'N'
sg14
I11
sg94
I0
sa(dp4062
g16
(lp4063
S'k'
asS'.thisIndex'
p4064
I2
sS'.thisRepN'
p4065
I45
sg26
S'Y'
sg30
VF
sg31
g32
sS'.thisTrialN'
p4066
I6
sS'.thisN'
p4067
I501
sg25
S'Y'
sg15
(lp4068
S'd'
asg17
S'Y'
sg14
I11
sg94
I2
sa(dp4069
g16
(lp4070
S'k'
asg18
S'N'
sS'.thisRepN'
p4071
I45
sg26
S'Y'
sg20
S'Y'
sg31
g32
sS'.thisTrialN'
p4072
I7
sS'.thisN'
p4073
I502
sg25
S'Y'
sg15
(lp4074
S'd'
asg30
VF
sg17
S'Y'
sg14
I11
sg19
Nsg94
I7
sS'.thisIndex'
p4075
I7
sa(dp4076
g16
(lp4077
S'd'
asg18
S'N'
sS'.thisRepN'
p4078
I45
sg26
S'Y'
sg20
S'Y'
sg31
g32
sS'.thisTrialN'
p4079
I8
sS'.thisN'
p4080
I503
sg25
S'Y'
sg15
(lp4081
S'd'
asg30
VF
sg17
S'N'
sg14
I11
sg19
Nsg94
I9
sS'.thisIndex'
p4082
I9
sa(dp4083
g16
(lp4084
S'd'
asg18
S'Y'
sS'.thisRepN'
p4085
I45
sg26
S'Y'
sg20
S'Y'
sg31
g32
sS'.thisTrialN'
p4086
I9
sS'.thisN'
p4087
I504
sg25
S'Y'
sg15
(lp4088
S'k'
asg30
VF
sg17
S'Y'
sg14
I11
sg19
(lp4089
S'space'
p4090
asg94
I2
sS'.thisIndex'
p4091
I2
sa(dp4092
g16
(lp4093
S'k'
asg18
S'N'
sS'.thisRepN'
p4094
I45
sg26
S'Y'
sg20
S'Y'
sg31
g32
sS'.thisTrialN'
p4095
I10
sS'.thisN'
p4096
I505
sg25
S'Y'
sg15
(lp4097
S'k'
asg30
VF
sg17
S'N'
sg14
I11
sg19
Nsg94
I10
sS'.thisIndex'
p4098
I10
sa(dp4099
g16
(lp4100
S'd'
asg18
S'N'
sS'.thisRepN'
p4101
I46
sg26
S'Y'
sg20
S'N'
sg31
g32
sS'.thisTrialN'
p4102
I0
sS'.thisN'
p4103
I506
sg25
S'Y'
sg15
(lp4104
S'd'
asg30
VF
sg17
S'N'
sg14
I11
sg19
(lp4105
S'space'
p4106
asg94
I9
sS'.thisIndex'
p4107
I9
sa(dp4108
g16
(lp4109
S'd'
asg18
S'Y'
sS'.thisRepN'
p4110
I46
sg26
S'Y'
sg20
S'Y'
sg31
g32
sS'.thisTrialN'
p4111
I1
sS'.thisN'
p4112
I507
sg25
S'Y'
sg15
(lp4113
S'k'
asg30
VF
sg17
S'Y'
sg14
I11
sg19
(lp4114
S'space'
p4115
asg94
I5
sS'.thisIndex'
p4116
I5
sa(dp4117
g16
(lp4118
S'd'
asg18
S'Y'
sS'.thisRepN'
p4119
I46
sg26
S'Y'
sg20
S'Y'
sg31
g32
sS'.thisTrialN'
p4120
I2
sS'.thisN'
p4121
I508
sg25
S'Y'
sg15
(lp4122
S'd'
asg30
VF
sg17
S'N'
sg14
I11
sg19
(lp4123
S'space'
p4124
asg94
I8
sS'.thisIndex'
p4125
I8
sa(dp4126
g16
(lp4127
S'k'
asg18
S'N'
sS'.thisRepN'
p4128
I46
sg26
S'Y'
sg20
S'N'
sg31
g32
sS'.thisTrialN'
p4129
I3
sS'.thisN'
p4130
I509
sg25
S'Y'
sg15
(lp4131
S'd'
asg30
VF
sg17
S'Y'
sg14
I11
sg19
(lp4132
S'k'
asg94
I2
sS'.thisIndex'
p4133
I2
sa(dp4134
g16
(lp4135
S'k'
asg18
S'N'
sS'.thisRepN'
p4136
I46
sg26
S'Y'
sg20
S'Y'
sg31
g32
sS'.thisTrialN'
p4137
I4
sS'.thisN'
p4138
I510
sg25
S'Y'
sg15
(lp4139
S'k'
asg30
VF
sg17
S'N'
sg14
I11
sg19
Nsg94
I0
sS'.thisIndex'
p4140
I0
sa(dp4141
g16
(lp4142
S'd'
asg18
S'N'
sS'.thisRepN'
p4143
I46
sg26
S'Y'
sg20
S'Y'
sg31
g32
sS'.thisTrialN'
p4144
I5
sS'.thisN'
p4145
I511
sg25
S'Y'
sg15
(lp4146
S'd'
asg30
VF
sg17
S'N'
sg14
I11
sg19
Nsg94
I4
sS'.thisIndex'
p4147
I4
sa(dp4148
g16
(lp4149
S'd'
asg18
S'Y'
sS'.thisRepN'
p4150
I46
sg26
S'Y'
sg20
S'Y'
sg31
g32
sS'.thisTrialN'
p4151
I6
sS'.thisN'
p4152
I512
sg25
S'Y'
sg15
(lp4153
S'k'
asg30
VF
sg17
S'Y'
sg14
I11
sg19
(lp4154
S'space'
p4155
asg94
I7
sS'.thisIndex'
p4156
I7
sa(dp4157
g16
(lp4158
S'k'
asg18
S'Y'
sS'.thisRepN'
p4159
I46
sg26
S'Y'
sg20
S'Y'
sg31
g32
sS'.thisTrialN'
p4160
I7
sS'.thisN'
p4161
I513
sg25
S'Y'
sg15
(lp4162
S'd'
asg30
VF
sg17
S'Y'
sg14
I11
sg19
(lp4163
S'space'
p4164
asg94
I8
sS'.thisIndex'
p4165
I8
sa(dp4166
g16
(lp4167
S'd'
asg18
S'Y'
sS'.thisRepN'
p4168
I46
sg26
S'Y'
sg20
S'N'
sg31
g32
sS'.thisTrialN'
p4169
I8
sS'.thisN'
p4170
I514
sg25
S'Y'
sg15
(lp4171
S'k'
asg30
VF
sg17
S'Y'
sg14
I11
sg19
(lp4172
S'd'
asg94
I3
sS'.thisIndex'
p4173
I3
sa(dp4174
g16
(lp4175
S'd'
asg18
S'Y'
sS'.thisRepN'
p4176
I46
sg26
S'Y'
sg20
S'Y'
sg31
g32
sS'.thisTrialN'
p4177
I9
sS'.thisN'
p4178
I515
sg25
S'Y'
sg15
(lp4179
S'd'
asg30
VF
sg17
S'N'
sg14
I11
sg19
(lp4180
S'space'
p4181
asg94
I9
sS'.thisIndex'
p4182
I9
sa(dp4183
g16
(lp4184
S'k'
asg18
S'N'
sS'.thisRepN'
p4185
I46
sg26
S'Y'
sg20
S'Y'
sg31
g32
sS'.thisTrialN'
p4186
I10
sS'.thisN'
p4187
I516
sg25
S'Y'
sg15
(lp4188
S'k'
asg30
VF
sg17
S'N'
sg14
I11
sg19
Nsg94
I7
sS'.thisIndex'
p4189
I7
sa(dp4190
g16
(lp4191
S'k'
asg18
S'Y'
sS'.thisRepN'
p4192
I47
sg26
S'Y'
sg20
S'Y'
sg31
g32
sS'.thisTrialN'
p4193
I0
sS'.thisN'
p4194
I517
sg25
S'Y'
sg15
(lp4195
S'd'
asg30
VF
sg17
S'Y'
sg14
I11
sg19
(lp4196
S'space'
p4197
asg94
I6
sS'.thisIndex'
p4198
I6
sa(dp4199
g16
(lp4200
S'd'
asg18
S'N'
sS'.thisRepN'
p4201
I47
sg26
S'Y'
sg20
S'N'
sg31
g32
sS'.thisTrialN'
p4202
I1
sS'.thisN'
p4203
I518
sg25
S'Y'
sg15
(lp4204
S'k'
asg30
VF
sg17
S'Y'
sg14
I11
sg19
(lp4205
S'space'
p4206
asg94
I6
sS'.thisIndex'
p4207
I6
sa(dp4208
g16
(lp4209
S'd'
asg18
S'Y'
sS'.thisRepN'
p4210
I47
sg26
S'Y'
sg20
S'N'
sg31
g32
sS'.thisTrialN'
p4211
I2
sS'.thisN'
p4212
I519
sg25
S'Y'
sg15
(lp4213
S'd'
asg30
VF
sg17
S'N'
sg14
I11
sg19
Nsg94
I1
sS'.thisIndex'
p4214
I1
sa(dp4215
g16
(lp4216
S'd'
asg18
S'N'
sS'.thisRepN'
p4217
I47
sg26
S'Y'
sg20
S'N'
sg31
g32
sS'.thisTrialN'
p4218
I3
sS'.thisN'
p4219
I520
sg25
S'Y'
sg15
(lp4220
S'k'
asg30
VF
sg17
S'Y'
sg14
I11
sg19
(lp4221
S'space'
p4222
asg94
I6
sS'.thisIndex'
p4223
I6
sa(dp4224
g16
(lp4225
S'k'
asg18
S'N'
sS'.thisRepN'
p4226
I47
sg26
S'Y'
sg20
S'N'
sg31
g32
sS'.thisTrialN'
p4227
I4
sS'.thisN'
p4228
I521
sg25
S'Y'
sg15
(lp4229
S'd'
asg30
VF
sg17
S'Y'
sg14
I11
sg19
(lp4230
S'space'
p4231
asg94
I8
sS'.thisIndex'
p4232
I8
sa(dp4233
g16
(lp4234
S'k'
asg18
S'N'
sS'.thisRepN'
p4235
I47
sg26
S'Y'
sg20
S'Y'
sg31
g32
sS'.thisTrialN'
p4236
I5
sS'.thisN'
p4237
I522
sg25
S'Y'
sg15
(lp4238
S'd'
asg30
VF
sg17
S'Y'
sg14
I11
sg19
Nsg94
I1
sS'.thisIndex'
p4239
I1
sa(dp4240
g16
(lp4241
S'k'
asg18
S'Y'
sS'.thisRepN'
p4242
I47
sg26
S'Y'
sg20
S'N'
sg31
g32
sS'.thisTrialN'
p4243
I6
sS'.thisN'
p4244
I523
sg25
S'Y'
sg15
(lp4245
S'd'
asg30
VF
sg17
S'Y'
sg14
I11
sg19
Nsg94
I2
sS'.thisIndex'
p4246
I2
sa(dp4247
g16
(lp4248
S'd'
asg18
S'N'
sS'.thisRepN'
p4249
I47
sg26
S'Y'
sg20
S'Y'
sg31
g32
sS'.thisTrialN'
p4250
I7
sS'.thisN'
p4251
I524
sg25
S'Y'
sg15
(lp4252
S'k'
asg30
VF
sg17
S'Y'
sg14
I11
sg19
Nsg94
I5
sS'.thisIndex'
p4253
I5
sa(dp4254
g16
(lp4255
S'k'
asg18
S'Y'
sS'.thisRepN'
p4256
I47
sg26
S'Y'
sg20
S'Y'
sg31
g32
sS'.thisTrialN'
p4257
I8
sS'.thisN'
p4258
I525
sg25
S'Y'
sg15
(lp4259
S'd'
asg30
VF
sg17
S'Y'
sg14
I11
sg19
(lp4260
S'space'
p4261
asg94
I5
sS'.thisIndex'
p4262
I5
sa(dp4263
g16
(lp4264
S'k'
asg18
S'N'
sS'.thisRepN'
p4265
I47
sg26
S'Y'
sg20
S'Y'
sg31
g32
sS'.thisTrialN'
p4266
I9
sS'.thisN'
p4267
I526
sg25
S'Y'
sg15
(lp4268
S'k'
asg30
VF
sg17
S'N'
sg14
I11
sg19
Nsg94
I10
sS'.thisIndex'
p4269
I10
sa(dp4270
g16
(lp4271
S'k'
asg18
S'N'
sS'.thisRepN'
p4272
I47
sg26
S'Y'
sg20
S'Y'
sg31
g32
sS'.thisTrialN'
p4273
I10
sS'.thisN'
p4274
I527
sg25
S'Y'
sg15
(lp4275
S'k'
asg30
VF
sg17
S'N'
sg14
I11
sg19
Nsg94
I6
sS'.thisIndex'
p4276
I6
sa(dp4277
g16
(lp4278
S'k'
asg18
S'N'
sS'.thisRepN'
p4279
I48
sg26
S'Y'
sg20
S'Y'
sg31
g32
sS'.thisTrialN'
p4280
I0
sS'.thisN'
p4281
I528
sg25
S'Y'
sg15
(lp4282
S'd'
asg30
VF
sg17
S'Y'
sg14
I11
sg19
Nsg94
I3
sS'.thisIndex'
p4283
I3
sa(dp4284
g16
(lp4285
S'd'
asg18
S'N'
sS'.thisRepN'
p4286
I48
sg26
S'Y'
sg20
S'N'
sg31
g32
sS'.thisTrialN'
p4287
I1
sS'.thisN'
p4288
I529
sg25
S'Y'
sg15
(lp4289
S'k'
asg30
VF
sg17
S'Y'
sg14
I11
sg19
(lp4290
S'space'
p4291
asg94
I4
sS'.thisIndex'
p4292
I4
sa(dp4293
g16
(lp4294
S'd'
asg18
S'Y'
sS'.thisRepN'
p4295
I48
sg26
S'Y'
sg20
S'N'
sg31
g32
sS'.thisTrialN'
p4296
I2
sS'.thisN'
p4297
I530
sg25
S'Y'
sg15
(lp4298
S'd'
asg30
VF
sg17
S'N'
sg14
I11
sg19
Nsg94
I1
sS'.thisIndex'
p4299
I1
sa(dp4300
g16
(lp4301
S'd'
asg18
S'N'
sS'.thisRepN'
p4302
I48
sg26
S'Y'
sg20
S'Y'
sg31
g32
sS'.thisTrialN'
p4303
I3
sS'.thisN'
p4304
I531
sg25
S'Y'
sg15
(lp4305
S'k'
asg30
VF
sg17
S'Y'
sg14
I11
sg19
Nsg94
I3
sS'.thisIndex'
p4306
I3
sa(dp4307
g18
S'Y'
sS'.thisRepN'
p4308
I48
sg26
S'Y'
sg20
S'N'
sg31
g32
sS'.thisTrialN'
p4309
I4
sS'.thisN'
p4310
I532
sg25
S'Y'
sg15
Nsg30
VF
sg17
g135
sg14
I11
sg19
Nsg94
I5
sS'.thisIndex'
p4311
I5
sa(dp4312
g16
(lp4313
S'k'
asg18
S'Y'
sS'.thisRepN'
p4314
I48
sg26
S'Y'
sg20
S'Y'
sg31
g32
sS'.thisTrialN'
p4315
I5
sS'.thisN'
p4316
I533
sg25
S'Y'
sg15
(lp4317
S'k'
asg30
VF
sg17
S'N'
sg14
I11
sg19
(lp4318
S'space'
p4319
asg94
I8
sS'.thisIndex'
p4320
I8
sa(dp4321
g16
(lp4322
S'k'
asg18
S'N'
sS'.thisRepN'
p4323
I48
sg26
S'Y'
sg20
S'N'
sg31
g32
sS'.thisTrialN'
p4324
I6
sS'.thisN'
p4325
I534
sg25
S'Y'
sg15
(lp4326
S'd'
asg30
VF
sg17
S'Y'
sg14
I11
sg19
(lp4327
S'space'
p4328
asg94
I4
sS'.thisIndex'
p4329
I4
sa(dp4330
g16
(lp4331
S'k'
asg18
S'Y'
sS'.thisRepN'
p4332
I48
sg26
S'Y'
sg20
S'Y'
sg31
g32
sS'.thisTrialN'
p4333
I7
sS'.thisN'
p4334
I535
sg25
S'Y'
sg15
(lp4335
S'd'
asg30
VF
sg17
S'Y'
sg14
I11
sg19
(lp4336
S'space'
p4337
asg94
I3
sS'.thisIndex'
p4338
I3
sa(dp4339
g16
(lp4340
S'd'
asg18
S'N'
sS'.thisRepN'
p4341
I48
sg26
S'Y'
sg20
S'Y'
sg31
g32
sS'.thisTrialN'
p4342
I8
sS'.thisN'
p4343
I536
sg25
S'Y'
sg15
(lp4344
S'd'
asg30
VF
sg17
S'N'
sg14
I11
sg19
Nsg94
I7
sS'.thisIndex'
p4345
I7
sa(dp4346
g16
(lp4347
S'd'
asg18
S'N'
sS'.thisRepN'
p4348
I48
sg26
S'Y'
sg20
S'N'
sg31
g32
sS'.thisTrialN'
p4349
I9
sS'.thisN'
p4350
I537
sg25
S'Y'
sg15
(lp4351
S'd'
asg30
VF
sg17
S'N'
sg14
I11
sg19
(lp4352
S'k'
asg94
I5
sS'.thisIndex'
p4353
I5
sa(dp4354
g16
(lp4355
S'k'
asg18
S'N'
sS'.thisRepN'
p4356
I48
sg26
S'Y'
sg20
S'N'
sg31
g32
sS'.thisTrialN'
p4357
I10
sS'.thisN'
p4358
I538
sg25
S'Y'
sg15
(lp4359
S'd'
asg30
VF
sg17
S'Y'
sg14
I11
sg19
(lp4360
S'k'
asg94
I2
sS'.thisIndex'
p4361
I2
sa(dp4362
g16
(lp4363
S'd'
asg18
S'Y'
sS'.thisRepN'
p4364
I49
sg26
S'Y'
sg20
S'N'
sg31
g32
sS'.thisTrialN'
p4365
I0
sS'.thisN'
p4366
I539
sg25
S'Y'
sg15
(lp4367
S'd'
asg30
VF
sg17
S'N'
sg14
I11
sg19
Nsg94
I5
sS'.thisIndex'
p4368
I5
sa(dp4369
g16
(lp4370
S'd'
asg18
S'N'
sS'.thisRepN'
p4371
I49
sg26
S'Y'
sg20
S'N'
sg31
g32
sS'.thisTrialN'
p4372
I1
sS'.thisN'
p4373
I540
sg25
S'Y'
sg15
(lp4374
S'd'
asg30
VF
sg17
S'N'
sg14
I11
sg19
(lp4375
S'space'
p4376
asg94
I5
sS'.thisIndex'
p4377
I5
sa(dp4378
g16
(lp4379
S'k'
asg18
S'N'
sS'.thisRepN'
p4380
I49
sg26
S'Y'
sg20
S'N'
sg31
g32
sS'.thisTrialN'
p4381
I2
sS'.thisN'
p4382
I541
sg25
S'Y'
sg15
(lp4383
S'k'
asg30
VF
sg17
S'N'
sg14
I11
sg19
(lp4384
S'k'
asg94
I6
sS'.thisIndex'
p4385
I6
sa(dp4386
g16
(lp4387
S'd'
asg18
S'Y'
sS'.thisRepN'
p4388
I49
sg26
S'Y'
sg20
S'N'
sg31
g32
sS'.thisTrialN'
p4389
I3
sS'.thisN'
p4390
I542
sg25
S'Y'
sg15
(lp4391
S'd'
asg30
VF
sg17
S'N'
sg14
I11
sg19
(lp4392
S'd'
asg94
I4
sS'.thisIndex'
p4393
I4
sa(dp4394
g16
(lp4395
S'k'
asg18
S'Y'
sS'.thisRepN'
p4396
I49
sg26
S'Y'
sg20
S'N'
sg31
g32
sS'.thisTrialN'
p4397
I4
sS'.thisN'
p4398
I543
sg25
S'Y'
sg15
(lp4399
S'd'
asg30
VF
sg17
S'Y'
sg14
I11
sg19
(lp4400
S'k'
asg94
I9
sS'.thisIndex'
p4401
I9
sa(dp4402
g16
(lp4403
S'd'
asg18
S'N'
sS'.thisRepN'
p4404
I49
sg26
S'Y'
sg20
S'N'
sg31
g32
sS'.thisTrialN'
p4405
I5
sS'.thisN'
p4406
I544
sg25
S'Y'
sg15
(lp4407
S'k'
asg30
VF
sg17
S'Y'
sg14
I11
sg19
(lp4408
S'space'
p4409
asg94
I9
sS'.thisIndex'
p4410
I9
sa(dp4411
g16
(lp4412
S'd'
asg18
S'N'
sS'.thisRepN'
p4413
I49
sg26
S'Y'
sg20
S'N'
sg31
g32
sS'.thisTrialN'
p4414
I6
sS'.thisN'
p4415
I545
sg25
S'Y'
sg15
(lp4416
S'd'
asg30
VF
sg17
S'N'
sg14
I11
sg19
(lp4417
S'd'
asg94
I5
sS'.thisIndex'
p4418
I5
sa(dp4419
g16
(lp4420
S'k'
asg18
S'Y'
sS'.thisRepN'
p4421
I49
sg26
S'Y'
sg20
S'N'
sg31
g32
sS'.thisTrialN'
p4422
I7
sS'.thisN'
p4423
I546
sg25
S'Y'
sg15
(lp4424
S'd'
asg30
VF
sg17
S'Y'
sg14
I11
sg19
(lp4425
S'k'
asg94
I10
sS'.thisIndex'
p4426
I10
sa(dp4427
g16
(lp4428
S'd'
asg18
S'Y'
sS'.thisRepN'
p4429
I49
sg26
S'Y'
sg20
S'Y'
sg31
g32
sS'.thisTrialN'
p4430
I8
sS'.thisN'
p4431
I547
sg25
S'Y'
sg15
(lp4432
S'k'
asg30
VF
sg17
S'Y'
sg14
I11
sg19
(lp4433
S'space'
p4434
asg94
I7
sS'.thisIndex'
p4435
I7
sa(dp4436
g16
(lp4437
S'd'
asg18
S'Y'
sS'.thisRepN'
p4438
I49
sg26
S'Y'
sg20
S'Y'
sg31
g32
sS'.thisTrialN'
p4439
I9
sS'.thisN'
p4440
I548
sg25
S'Y'
sg15
(lp4441
S'd'
asg30
VF
sg17
S'N'
sg14
I11
sg19
(lp4442
S'space'
p4443
asg94
I6
sS'.thisIndex'
p4444
I6
sa(dp4445
g16
(lp4446
S'd'
asg18
S'N'
sg22
I26
sg26
S'Y'
sS'.thisN'
p4447
I549
sg20
S'Y'
sg31
g32
sS'.thisTrialN'
p4448
I10
sS'.thisRepN'
p4449
I49
sg21
I27
sg25
S'Y'
sg23
I21
sg15
(lp4450
S'k'
asg30
VF
sg17
S'Y'
sg14
I11
sg19
Nsg94
I2
sS'.thisIndex'
p4451
I2
sa(dp4452
g16
(lp4453
S'k'
asS'.thisIndex'
p4454
I4
sS'.thisRepN'
p4455
I50
sg26
S'Y'
sg30
VF
sg31
g32
sS'.thisTrialN'
p4456
I0
sS'.thisN'
p4457
I550
sg25
S'Y'
sg15
(lp4458
S'k'
asg17
S'N'
sg14
I12
sg94
I4
sa(dp4459
g16
(lp4460
S'k'
asS'.thisIndex'
p4461
I8
sS'.thisRepN'
p4462
I50
sg26
S'Y'
sg30
VF
sg31
g32
sS'.thisTrialN'
p4463
I1
sS'.thisN'
p4464
I551
sg25
S'Y'
sg15
(lp4465
S'd'
asg17
S'Y'
sg14
I12
sg94
I8
sa(dp4466
g16
(lp4467
S'd'
asg18
S'N'
sS'.thisRepN'
p4468
I50
sg26
S'Y'
sg20
S'N'
sg31
g32
sS'.thisTrialN'
p4469
I2
sS'.thisN'
p4470
I552
sg25
S'Y'
sg15
(lp4471
S'k'
asg30
VF
sg17
S'Y'
sg14
I12
sg19
(lp4472
S'space'
p4473
asg94
I5
sS'.thisIndex'
p4474
I5
sa(dp4475
g16
(lp4476
S'k'
asg18
S'N'
sS'.thisRepN'
p4477
I50
sg26
S'Y'
sg20
S'Y'
sg31
g32
sS'.thisTrialN'
p4478
I3
sS'.thisN'
p4479
I553
sg25
S'Y'
sg15
(lp4480
S'd'
asg30
VF
sg17
S'Y'
sg14
I12
sg19
Nsg94
I4
sS'.thisIndex'
p4481
I4
sa(dp4482
g16
(lp4483
S'd'
asg18
S'N'
sS'.thisRepN'
p4484
I50
sg26
S'Y'
sg20
S'Y'
sg31
g32
sS'.thisTrialN'
p4485
I4
sS'.thisN'
p4486
I554
sg25
S'Y'
sg15
(lp4487
S'd'
asg30
VF
sg17
S'N'
sg14
I12
sg19
Nsg94
I2
sS'.thisIndex'
p4488
I2
sa(dp4489
g16
(lp4490
S'd'
asg18
S'N'
sS'.thisRepN'
p4491
I50
sg26
S'Y'
sg20
S'Y'
sg31
g32
sS'.thisTrialN'
p4492
I5
sS'.thisN'
p4493
I555
sg25
S'Y'
sg15
(lp4494
S'k'
asg30
VF
sg17
S'Y'
sg14
I12
sg19
Nsg94
I7
sS'.thisIndex'
p4495
I7
sa(dp4496
g16
(lp4497
S'k'
asg18
S'Y'
sS'.thisRepN'
p4498
I50
sg26
S'Y'
sg20
S'N'
sg31
g32
sS'.thisTrialN'
p4499
I6
sS'.thisN'
p4500
I556
sg25
S'Y'
sg15
(lp4501
S'd'
asg30
VF
sg17
S'Y'
sg14
I12
sg19
Nsg94
I4
sS'.thisIndex'
p4502
I4
sa(dp4503
g16
(lp4504
S'd'
asg18
S'N'
sS'.thisRepN'
p4505
I50
sg26
S'Y'
sg20
S'Y'
sg31
g32
sS'.thisTrialN'
p4506
I7
sS'.thisN'
p4507
I557
sg25
S'Y'
sg15
(lp4508
S'k'
asg30
VF
sg17
S'Y'
sg14
I12
sg19
Nsg94
I2
sS'.thisIndex'
p4509
I2
sa(dp4510
g16
(lp4511
S'd'
asg18
S'N'
sS'.thisRepN'
p4512
I50
sg26
S'Y'
sg20
S'N'
sg31
g32
sS'.thisTrialN'
p4513
I8
sS'.thisN'
p4514
I558
sg25
S'Y'
sg15
(lp4515
S'k'
asg30
VF
sg17
S'Y'
sg14
I12
sg19
(lp4516
S'd'
asg94
I5
sS'.thisIndex'
p4517
I5
sa(dp4518
g16
(lp4519
S'k'
asg18
S'N'
sS'.thisRepN'
p4520
I50
sg26
S'Y'
sg20
S'N'
sg31
g32
sS'.thisTrialN'
p4521
I9
sS'.thisN'
p4522
I559
sg25
S'Y'
sg15
(lp4523
S'k'
asg30
VF
sg17
S'N'
sg14
I12
sg19
(lp4524
S'space'
p4525
asg94
I4
sS'.thisIndex'
p4526
I4
sa(dp4527
g16
(lp4528
S'd'
asg18
S'Y'
sS'.thisRepN'
p4529
I50
sg26
S'Y'
sg20
S'N'
sg31
g32
sS'.thisTrialN'
p4530
I10
sS'.thisN'
p4531
I560
sg25
S'Y'
sg15
(lp4532
S'k'
asg30
VF
sg17
S'Y'
sg14
I12
sg19
(lp4533
S'd'
asg94
I8
sS'.thisIndex'
p4534
I8
sa(dp4535
g16
(lp4536
S'k'
asg18
S'Y'
sS'.thisRepN'
p4537
I51
sg26
S'Y'
sg20
S'N'
sg31
g32
sS'.thisTrialN'
p4538
I0
sS'.thisN'
p4539
I561
sg25
S'Y'
sg15
(lp4540
S'd'
asg30
VF
sg17
S'Y'
sg14
I12
sg19
(lp4541
S'k'
asg94
I2
sS'.thisIndex'
p4542
I2
sa(dp4543
g16
(lp4544
S'k'
asg18
S'N'
sS'.thisRepN'
p4545
I51
sg26
S'Y'
sg20
S'Y'
sg31
g32
sS'.thisTrialN'
p4546
I1
sS'.thisN'
p4547
I562
sg25
S'Y'
sg15
(lp4548
S'd'
asg30
VF
sg17
S'Y'
sg14
I12
sg19
Nsg94
I8
sS'.thisIndex'
p4549
I8
sa(dp4550
g16
(lp4551
S'd'
asg18
S'Y'
sS'.thisRepN'
p4552
I51
sg26
S'Y'
sg20
S'Y'
sg31
g32
sS'.thisTrialN'
p4553
I2
sS'.thisN'
p4554
I563
sg25
S'Y'
sg15
(lp4555
S'k'
asg30
VF
sg17
S'Y'
sg14
I12
sg19
(lp4556
S'space'
p4557
asg94
I2
sS'.thisIndex'
p4558
I2
sa(dp4559
g16
(lp4560
S'd'
asg18
S'Y'
sS'.thisRepN'
p4561
I51
sg26
S'Y'
sg20
S'N'
sg31
g32
sS'.thisTrialN'
p4562
I3
sS'.thisN'
p4563
I564
sg25
S'Y'
sg15
(lp4564
S'd'
asg30
VF
sg17
S'N'
sg14
I12
sg19
Nsg94
I4
sS'.thisIndex'
p4565
I4
sa(dp4566
g16
(lp4567
S'k'
asg18
S'Y'
sS'.thisRepN'
p4568
I51
sg26
S'Y'
sg20
S'N'
sg31
g32
sS'.thisTrialN'
p4569
I4
sS'.thisN'
p4570
I565
sg25
S'Y'
sg15
(lp4571
S'd'
asg30
VF
sg17
S'Y'
sg14
I12
sg19
(lp4572
S'k'
asg94
I0
sS'.thisIndex'
p4573
I0
sa(dp4574
g16
(lp4575
S'k'
asg18
S'Y'
sS'.thisRepN'
p4576
I51
sg26
S'Y'
sg20
S'N'
sg31
g32
sS'.thisTrialN'
p4577
I5
sS'.thisN'
p4578
I566
sg25
S'Y'
sg15
(lp4579
S'd'
asg30
VF
sg17
S'Y'
sg14
I12
sg19
(lp4580
S'k'
asg94
I7
sS'.thisIndex'
p4581
I7
sa(dp4582
g16
(lp4583
S'k'
asg18
S'Y'
sS'.thisRepN'
p4584
I51
sg26
S'Y'
sg20
S'N'
sg31
g32
sS'.thisTrialN'
p4585
I6
sS'.thisN'
p4586
I567
sg25
S'Y'
sg15
(lp4587
S'd'
asg30
VF
sg17
S'Y'
sg14
I12
sg19
(lp4588
S'd'
asg94
I4
sS'.thisIndex'
p4589
I4
sa(dp4590
g16
(lp4591
S'd'
asg18
S'N'
sS'.thisRepN'
p4592
I51
sg26
S'Y'
sg20
S'N'
sg31
g32
sS'.thisTrialN'
p4593
I7
sS'.thisN'
p4594
I568
sg25
S'Y'
sg15
(lp4595
S'k'
asg30
VF
sg17
S'Y'
sg14
I12
sg19
(lp4596
S'space'
p4597
asg94
I10
sS'.thisIndex'
p4598
I10
sa(dp4599
g16
(lp4600
S'd'
asg18
S'N'
sS'.thisRepN'
p4601
I51
sg26
S'Y'
sg20
S'Y'
sg31
g32
sS'.thisTrialN'
p4602
I8
sS'.thisN'
p4603
I569
sg25
S'Y'
sg15
(lp4604
S'd'
asg30
VF
sg17
S'N'
sg14
I12
sg19
Nsg94
I10
sS'.thisIndex'
p4605
I10
sa(dp4606
g16
(lp4607
S'd'
asg18
S'N'
sS'.thisRepN'
p4608
I51
sg26
S'Y'
sg20
S'N'
sg31
g32
sS'.thisTrialN'
p4609
I9
sS'.thisN'
p4610
I570
sg25
S'Y'
sg15
(lp4611
S'k'
asg30
VF
sg17
S'Y'
sg14
I12
sg19
(lp4612
S'k'
asg94
I2
sS'.thisIndex'
p4613
I2
sa(dp4614
g16
(lp4615
S'd'
asg18
S'Y'
sS'.thisRepN'
p4616
I51
sg26
S'Y'
sg20
S'Y'
sg31
g32
sS'.thisTrialN'
p4617
I10
sS'.thisN'
p4618
I571
sg25
S'Y'
sg15
(lp4619
S'd'
asg30
VF
sg17
S'N'
sg14
I12
sg19
(lp4620
S'space'
p4621
asg94
I7
sS'.thisIndex'
p4622
I7
sa(dp4623
g16
(lp4624
S'd'
asg18
S'N'
sS'.thisRepN'
p4625
I52
sg26
S'Y'
sg20
S'Y'
sg31
g32
sS'.thisTrialN'
p4626
I0
sS'.thisN'
p4627
I572
sg25
S'Y'
sg15
(lp4628
S'k'
asg30
VF
sg17
S'Y'
sg14
I12
sg19
Nsg94
I6
sS'.thisIndex'
p4629
I6
sa(dp4630
g16
(lp4631
S'k'
asg18
S'Y'
sS'.thisRepN'
p4632
I52
sg26
S'Y'
sg20
S'Y'
sg31
g32
sS'.thisTrialN'
p4633
I1
sS'.thisN'
p4634
I573
sg25
S'Y'
sg15
(lp4635
S'd'
asg30
VF
sg17
S'Y'
sg14
I12
sg19
(lp4636
S'space'
p4637
asg94
I4
sS'.thisIndex'
p4638
I4
sa(dp4639
g16
(lp4640
S'k'
asg18
S'Y'
sS'.thisRepN'
p4641
I52
sg26
S'Y'
sg20
S'Y'
sg31
g32
sS'.thisTrialN'
p4642
I2
sS'.thisN'
p4643
I574
sg25
S'Y'
sg15
(lp4644
S'k'
asg30
VF
sg17
S'N'
sg14
I12
sg19
(lp4645
S'space'
p4646
asg94
I3
sS'.thisIndex'
p4647
I3
sa(dp4648
g16
(lp4649
S'k'
asg18
S'Y'
sS'.thisRepN'
p4650
I52
sg26
S'Y'
sg20
S'N'
sg31
g32
sS'.thisTrialN'
p4651
I3
sS'.thisN'
p4652
I575
sg25
S'Y'
sg15
(lp4653
S'd'
asg30
VF
sg17
S'Y'
sg14
I12
sg19
Nsg94
I10
sS'.thisIndex'
p4654
I10
sa(dp4655
g16
(lp4656
S'k'
asg18
S'Y'
sS'.thisRepN'
p4657
I52
sg26
S'Y'
sg20
S'Y'
sg31
g32
sS'.thisTrialN'
p4658
I4
sS'.thisN'
p4659
I576
sg25
S'Y'
sg15
(lp4660
S'k'
asg30
VF
sg17
S'N'
sg14
I12
sg19
(lp4661
S'space'
p4662
asg94
I1
sS'.thisIndex'
p4663
I1
sa(dp4664
g16
(lp4665
S'd'
asg18
S'Y'
sS'.thisRepN'
p4666
I52
sg26
S'Y'
sg20
S'N'
sg31
g32
sS'.thisTrialN'
p4667
I5
sS'.thisN'
p4668
I577
sg25
S'Y'
sg15
(lp4669
S'd'
asg30
VF
sg17
S'N'
sg14
I12
sg19
Nsg94
I5
sS'.thisIndex'
p4670
I5
sa(dp4671
g16
(lp4672
S'k'
asg18
S'Y'
sS'.thisRepN'
p4673
I52
sg26
S'Y'
sg20
S'Y'
sg31
g32
sS'.thisTrialN'
p4674
I6
sS'.thisN'
p4675
I578
sg25
S'Y'
sg15
(lp4676
S'k'
asg30
VF
sg17
S'N'
sg14
I12
sg19
(lp4677
S'space'
p4678
asg94
I9
sS'.thisIndex'
p4679
I9
sa(dp4680
g16
(lp4681
S'k'
asg18
S'N'
sS'.thisRepN'
p4682
I52
sg26
S'Y'
sg20
S'N'
sg31
g32
sS'.thisTrialN'
p4683
I7
sS'.thisN'
p4684
I579
sg25
S'Y'
sg15
(lp4685
S'd'
asg30
VF
sg17
S'Y'
sg14
I12
sg19
(lp4686
S'space'
p4687
asg94
I3
sS'.thisIndex'
p4688
I3
sa(dp4689
g16
(lp4690
S'k'
asg18
S'N'
sS'.thisRepN'
p4691
I52
sg26
S'Y'
sg20
S'N'
sg31
g32
sS'.thisTrialN'
p4692
I8
sS'.thisN'
p4693
I580
sg25
S'Y'
sg15
(lp4694
S'd'
asg30
VF
sg17
S'Y'
sg14
I12
sg19
(lp4695
S'd'
asg94
I6
sS'.thisIndex'
p4696
I6
sa(dp4697
g16
(lp4698
S'k'
asg18
S'Y'
sS'.thisRepN'
p4699
I52
sg26
S'Y'
sg20
S'Y'
sg31
g32
sS'.thisTrialN'
p4700
I9
sS'.thisN'
p4701
I581
sg25
S'Y'
sg15
(lp4702
S'd'
asg30
VF
sg17
S'Y'
sg14
I12
sg19
(lp4703
S'space'
p4704
asg94
I7
sS'.thisIndex'
p4705
I7
sa(dp4706
g16
(lp4707
S'd'
asg18
S'Y'
sS'.thisRepN'
p4708
I52
sg26
S'Y'
sg20
S'N'
sg31
g32
sS'.thisTrialN'
p4709
I10
sS'.thisN'
p4710
I582
sg25
S'Y'
sg15
(lp4711
S'd'
asg30
VF
sg17
S'N'
sg14
I12
sg19
(lp4712
S'd'
asg94
I7
sS'.thisIndex'
p4713
I7
sa(dp4714
g16
(lp4715
S'k'
asg18
S'Y'
sS'.thisRepN'
p4716
I53
sg26
S'Y'
sg20
S'Y'
sg31
g32
sS'.thisTrialN'
p4717
I0
sS'.thisN'
p4718
I583
sg25
S'Y'
sg15
(lp4719
S'k'
asg30
VF
sg17
S'N'
sg14
I12
sg19
(lp4720
S'space'
p4721
asg94
I1
sS'.thisIndex'
p4722
I1
sa(dp4723
g16
(lp4724
S'd'
asg18
S'N'
sS'.thisRepN'
p4725
I53
sg26
S'Y'
sg20
S'Y'
sg31
g32
sS'.thisTrialN'
p4726
I1
sS'.thisN'
p4727
I584
sg25
S'Y'
sg15
(lp4728
S'd'
asg30
VF
sg17
S'N'
sg14
I12
sg19
Nsg94
I0
sS'.thisIndex'
p4729
I0
sa(dp4730
g16
(lp4731
S'k'
asg18
S'Y'
sS'.thisRepN'
p4732
I53
sg26
S'Y'
sg20
S'N'
sg31
g32
sS'.thisTrialN'
p4733
I2
sS'.thisN'
p4734
I585
sg25
S'Y'
sg15
(lp4735
S'k'
asg30
VF
sg17
S'N'
sg14
I12
sg19
Nsg94
I6
sS'.thisIndex'
p4736
I6
sa(dp4737
g18
S'N'
sS'.thisRepN'
p4738
I53
sg26
S'Y'
sg20
S'N'
sg31
g32
sS'.thisTrialN'
p4739
I3
sS'.thisN'
p4740
I586
sg25
S'Y'
sg15
Nsg30
VF
sg17
g135
sg14
I12
sg19
(lp4741
S'd'
asg94
I7
sS'.thisIndex'
p4742
I7
sa(dp4743
g16
(lp4744
S'd'
asg18
S'Y'
sS'.thisRepN'
p4745
I53
sg26
S'Y'
sg20
S'Y'
sg31
g32
sS'.thisTrialN'
p4746
I4
sS'.thisN'
p4747
I587
sg25
S'Y'
sg15
(lp4748
S'd'
asg30
VF
sg17
S'N'
sg14
I12
sg19
(lp4749
S'space'
p4750
asg94
I5
sS'.thisIndex'
p4751
I5
sa(dp4752
g16
(lp4753
S'k'
asg18
S'Y'
sS'.thisRepN'
p4754
I53
sg26
S'Y'
sg20
S'N'
sg31
g32
sS'.thisTrialN'
p4755
I5
sS'.thisN'
p4756
I588
sg25
S'Y'
sg15
(lp4757
S'k'
asg30
VF
sg17
S'N'
sg14
I12
sg19
Nsg94
I10
sS'.thisIndex'
p4758
I10
sa(dp4759
g16
(lp4760
S'd'
asg18
S'N'
sS'.thisRepN'
p4761
I53
sg26
S'Y'
sg20
S'N'
sg31
g32
sS'.thisTrialN'
p4762
I6
sS'.thisN'
p4763
I589
sg25
S'Y'
sg15
(lp4764
S'd'
asg30
VF
sg17
S'N'
sg14
I12
sg19
(lp4765
S'd'
asg94
I7
sS'.thisIndex'
p4766
I7
sa(dp4767
g16
(lp4768
S'd'
asg18
S'N'
sS'.thisRepN'
p4769
I53
sg26
S'Y'
sg20
S'N'
sg31
g32
sS'.thisTrialN'
p4770
I7
sS'.thisN'
p4771
I590
sg25
S'Y'
sg15
(lp4772
S'k'
asg30
VF
sg17
S'Y'
sg14
I12
sg19
(lp4773
S'k'
asg94
I4
sS'.thisIndex'
p4774
I4
sa(dp4775
g16
(lp4776
S'd'
asg18
S'N'
sS'.thisRepN'
p4777
I53
sg26
S'Y'
sg20
S'Y'
sg31
g32
sS'.thisTrialN'
p4778
I8
sS'.thisN'
p4779
I591
sg25
S'Y'
sg15
(lp4780
S'k'
asg30
VF
sg17
S'Y'
sg14
I12
sg19
Nsg94
I1
sS'.thisIndex'
p4781
I1
sa(dp4782
g18
S'N'
sS'.thisRepN'
p4783
I53
sg26
S'Y'
sg20
S'Y'
sg31
g32
sS'.thisTrialN'
p4784
I9
sS'.thisN'
p4785
I592
sg25
S'Y'
sg15
Nsg30
VF
sg17
g135
sg14
I12
sg19
Nsg94
I4
sS'.thisIndex'
p4786
I4
sa(dp4787
g16
(lp4788
S'k'
asg18
S'Y'
sS'.thisRepN'
p4789
I53
sg26
S'Y'
sg20
S'Y'
sg31
g32
sS'.thisTrialN'
p4790
I10
sS'.thisN'
p4791
I593
sg25
S'Y'
sg15
(lp4792
S'd'
asg30
VF
sg17
S'Y'
sg14
I12
sg19
(lp4793
S'space'
p4794
asg94
I10
sS'.thisIndex'
p4795
I10
sa(dp4796
g16
(lp4797
S'd'
asg18
S'Y'
sS'.thisRepN'
p4798
I54
sg26
S'Y'
sg20
S'Y'
sg31
g32
sS'.thisTrialN'
p4799
I0
sS'.thisN'
p4800
I594
sg25
S'Y'
sg15
(lp4801
S'd'
asg30
VF
sg17
S'N'
sg14
I12
sg19
(lp4802
S'space'
p4803
asg94
I4
sS'.thisIndex'
p4804
I4
sa(dp4805
g16
(lp4806
S'k'
asg18
S'Y'
sS'.thisRepN'
p4807
I54
sg26
S'Y'
sg20
S'Y'
sg31
g32
sS'.thisTrialN'
p4808
I1
sS'.thisN'
p4809
I595
sg25
S'Y'
sg15
(lp4810
S'k'
asg30
VF
sg17
S'N'
sg14
I12
sg19
(lp4811
S'space'
p4812
asg94
I4
sS'.thisIndex'
p4813
I4
sa(dp4814
g16
(lp4815
S'k'
asg18
S'Y'
sS'.thisRepN'
p4816
I54
sg26
S'Y'
sg20
S'Y'
sg31
g32
sS'.thisTrialN'
p4817
I2
sS'.thisN'
p4818
I596
sg25
S'Y'
sg15
(lp4819
S'd'
asg30
VF
sg17
S'Y'
sg14
I12
sg19
(lp4820
S'space'
p4821
asg94
I2
sS'.thisIndex'
p4822
I2
sa(dp4823
g16
(lp4824
S'd'
asg18
S'N'
sS'.thisRepN'
p4825
I54
sg26
S'Y'
sg20
S'N'
sg31
g32
sS'.thisTrialN'
p4826
I3
sS'.thisN'
p4827
I597
sg25
S'Y'
sg15
(lp4828
S'k'
asg30
VF
sg17
S'Y'
sg14
I12
sg19
(lp4829
S'space'
p4830
asg94
I3
sS'.thisIndex'
p4831
I3
sa(dp4832
g16
(lp4833
S'k'
asg18
S'N'
sS'.thisRepN'
p4834
I54
sg26
S'Y'
sg20
S'N'
sg31
g32
sS'.thisTrialN'
p4835
I4
sS'.thisN'
p4836
I598
sg25
S'Y'
sg15
(lp4837
S'd'
asg30
VF
sg17
S'Y'
sg14
I12
sg19
(lp4838
S'space'
p4839
asg94
I6
sS'.thisIndex'
p4840
I6
sa(dp4841
g16
(lp4842
S'k'
asg18
S'N'
sg22
I23
sg26
S'Y'
sS'.thisN'
p4843
I599
sg20
S'N'
sg31
g32
sS'.thisTrialN'
p4844
I5
sS'.thisRepN'
p4845
I54
sg21
I28
sg25
S'Y'
sg23
I25
sg15
(lp4846
S'k'
asg30
VF
sg17
S'N'
sg14
I12
sg19
(lp4847
S'space'
p4848
asg94
I1
sS'.thisIndex'
p4849
I1
sasS'loops'
p4850
(lp4851
g1
(g35
g3
NtRp4852
(dp4853
g38
Nsg39
(lp4854
sg40
I79487120
sg10
S''
sg6
g41
sg42
I1
sg27
I01
sg28
Nsg43
g1
(g44
g45
(dp4855
g47
g48
(g49
g50
g51
S'b'
tRp4856
(I1
(I600
I1
tg54
I00
S'\x00\x00\x80?\x00\x00\x80?\x00\x00\x80?\x00\x00\x80?\x00\x00\x80?\x00\x00\x80?\x00\x00\x80?\x00\x00\x80?\x00\x00\x80?\x00\x00\x80?\x00\x00\x80?\x00\x00\x80?\x00\x00\x80?\x00\x00\x80?\x00\x00\x80?\x00\x00\x80?\x00\x00\x80?\x00\x00\x80?\x00\x00\x80?\x00\x00\x80?\x00\x00\x80?\x00\x00\x80?\x00\x00\x80?\x00\x00\x80?\x00\x00\x80?\x00\x00\x80?\x00\x00\x80?\x00\x00\x80?\x00\x00\x80?\x00\x00\x80?\x00\x00\x80?\x00\x00\x80?\x00\x00\x80?\x00\x00\x80?\x00\x00\x80?\x00\x00\x80?\x00\x00\x80?\x00\x00\x80?\x00\x00\x80?\x00\x00\x80?\x00\x00\x80?\x00\x00\x80?\x00\x00\x80?\x00\x00\x80?\x00\x00\x80?\x00\x00\x80?\x00\x00\x80?\x00\x00\x80?\x00\x00\x80?\x00\x00\x80?\x00\x00\x80?\x00\x00\x80?\x00\x00\x80?\x00\x00\x80?\x00\x00\x80?\x00\x00\x80?\x00\x00\x80?\x00\x00\x80?\x00\x00\x80?\x00\x00\x80?\x00\x00\x80?\x00\x00\x80?\x00\x00\x80?\x00\x00\x80?\x00\x00\x80?\x00\x00\x80?\x00\x00\x80?\x00\x00\x80?\x00\x00\x80?\x00\x00\x80?\x00\x00\x80?\x00\x00\x80?\x00\x00\x80?\x00\x00\x80?\x00\x00\x80?\x00\x00\x80?\x00\x00\x80?\x00\x00\x80?\x00\x00\x80?\x00\x00\x80?\x00\x00\x80?\x00\x00\x80?\x00\x00\x80?\x00\x00\x80?\x00\x00\x80?\x00\x00\x80?\x00\x00\x80?\x00\x00\x80?\x00\x00\x80?\x00\x00\x80?\x00\x00\x80?\x00\x00\x80?\x00\x00\x80?\x00\x00\x80?\x00\x00\x80?\x00\x00\x80?\x00\x00\x80?\x00\x00\x80?\x00\x00\x80?\x00\x00\x80?\x00\x00\x80?\x00\x00\x80?\x00\x00\x80?\x00\x00\x80?\x00\x00\x80?\x00\x00\x80?\x00\x00\x80?\x00\x00\x80?\x00\x00\x80?\x00\x00\x80?\x00\x00\x80?\x00\x00\x80?\x00\x00\x80?\x00\x00\x80?\x00\x00\x80?\x00\x00\x80?\x00\x00\x80?\x00\x00\x80?\x00\x00\x80?\x00\x00\x80?\x00\x00\x80?\x00\x00\x80?\x00\x00\x80?\x00\x00\x80?\x00\x00\x80?\x00\x00\x80?\x00\x00\x80?\x00\x00\x80?\x00\x00\x80?\x00\x00\x80?\x00\x00\x80?\x00\x00\x80?\x00\x00\x80?\x00\x00\x80?\x00\x00\x80?\x00\x00\x80?\x00\x00\x80?\x00\x00\x80?\x00\x00\x80?\x00\x00\x80?\x00\x00\x80?\x00\x00\x80?\x00\x00\x80?\x00\x00\x80?\x00\x00\x80?\x00\x00\x80?\x00\x00\x80?\x00\x00\x80?\x00\x00\x80?\x00\x00\x80?\x00\x00\x80?\x00\x00\x80?\x00\x00\x80?\x00\x00\x80?\x00\x00\x80?\x00\x00\x80?\x00\x00\x80?\x00\x00\x80?\x00\x00\x80?\x00\x00\x80?\x00\x00\x80?\x00\x00\x80?\x00\x00\x80?\x00\x00\x80?\x00\x00\x80?\x00\x00\x80?\x00\x00\x80?\x00\x00\x80?\x00\x00\x80?\x00\x00\x80?\x00\x00\x80?\x00\x00\x80?\x00\x00\x80?\x00\x00\x80?\x00\x00\x80?\x00\x00\x80?\x00\x00\x80?\x00\x00\x80?\x00\x00\x80?\x00\x00\x80?\x00\x00\x80?\x00\x00\x80?\x00\x00\x80?\x00\x00\x80?\x00\x00\x80?\x00\x00\x80?\x00\x00\x80?\x00\x00\x80?\x00\x00\x80?\x00\x00\x80?\x00\x00\x80?\x00\x00\x80?\x00\x00\x80?\x00\x00\x80?\x00\x00\x80?\x00\x00\x80?\x00\x00\x80?\x00\x00\x80?\x00\x00\x80?\x00\x00\x80?\x00\x00\x80?\x00\x00\x80?\x00\x00\x80?\x00\x00\x80?\x00\x00\x80?\x00\x00\x80?\x00\x00\x80?\x00\x00\x80?\x00\x00\x80?\x00\x00\x80?\x00\x00\x80?\x00\x00\x80?\x00\x00\x80?\x00\x00\x80?\x00\x00\x80?\x00\x00\x80?\x00\x00\x80?\x00\x00\x80?\x00\x00\x80?\x00\x00\x80?\x00\x00\x80?\x00\x00\x80?\x00\x00\x80?\x00\x00\x80?\x00\x00\x80?\x00\x00\x80?\x00\x00\x80?\x00\x00\x80?\x00\x00\x80?\x00\x00\x80?\x00\x00\x80?\x00\x00\x80?\x00\x00\x80?\x00\x00\x80?\x00\x00\x80?\x00\x00\x80?\x00\x00\x80?\x00\x00\x80?\x00\x00\x80?\x00\x00\x80?\x00\x00\x80?\x00\x00\x80?\x00\x00\x80?\x00\x00\x80?\x00\x00\x80?\x00\x00\x80?\x00\x00\x80?\x00\x00\x80?\x00\x00\x80?\x00\x00\x80?\x00\x00\x80?\x00\x00\x80?\x00\x00\x80?\x00\x00\x80?\x00\x00\x80?\x00\x00\x80?\x00\x00\x80?\x00\x00\x80?\x00\x00\x80?\x00\x00\x80?\x00\x00\x80?\x00\x00\x80?\x00\x00\x80?\x00\x00\x80?\x00\x00\x80?\x00\x00\x80?\x00\x00\x80?\x00\x00\x80?\x00\x00\x80?\x00\x00\x80?\x00\x00\x80?\x00\x00\x80?\x00\x00\x80?\x00\x00\x80?\x00\x00\x80?\x00\x00\x80?\x00\x00\x80?\x00\x00\x80?\x00\x00\x80?\x00\x00\x80?\x00\x00\x80?\x00\x00\x80?\x00\x00\x80?\x00\x00\x80?\x00\x00\x80?\x00\x00\x80?\x00\x00\x80?\x00\x00\x80?\x00\x00\x80?\x00\x00\x80?\x00\x00\x80?\x00\x00\x80?\x00\x00\x80?\x00\x00\x80?\x00\x00\x80?\x00\x00\x80?\x00\x00\x80?\x00\x00\x80?\x00\x00\x80?\x00\x00\x80?\x00\x00\x80?\x00\x00\x80?\x00\x00\x80?\x00\x00\x80?\x00\x00\x80?\x00\x00\x80?\x00\x00\x80?\x00\x00\x80?\x00\x00\x80?\x00\x00\x80?\x00\x00\x80?\x00\x00\x80?\x00\x00\x80?\x00\x00\x80?\x00\x00\x80?\x00\x00\x80?\x00\x00\x80?\x00\x00\x80?\x00\x00\x80?\x00\x00\x80?\x00\x00\x80?\x00\x00\x80?\x00\x00\x80?\x00\x00\x80?\x00\x00\x80?\x00\x00\x80?\x00\x00\x80?\x00\x00\x80?\x00\x00\x80?\x00\x00\x80?\x00\x00\x80?\x00\x00\x80?\x00\x00\x80?\x00\x00\x80?\x00\x00\x80?\x00\x00\x80?\x00\x00\x80?\x00\x00\x80?\x00\x00\x80?\x00\x00\x80?\x00\x00\x80?\x00\x00\x80?\x00\x00\x80?\x00\x00\x80?\x00\x00\x80?\x00\x00\x80?\x00\x00\x80?\x00\x00\x80?\x00\x00\x80?\x00\x00\x80?\x00\x00\x80?\x00\x00\x80?\x00\x00\x80?\x00\x00\x80?\x00\x00\x80?\x00\x00\x80?\x00\x00\x80?\x00\x00\x80?\x00\x00\x80?\x00\x00\x80?\x00\x00\x80?\x00\x00\x80?\x00\x00\x80?\x00\x00\x80?\x00\x00\x80?\x00\x00\x80?\x00\x00\x80?\x00\x00\x80?\x00\x00\x80?\x00\x00\x80?\x00\x00\x80?\x00\x00\x80?\x00\x00\x80?\x00\x00\x80?\x00\x00\x80?\x00\x00\x80?\x00\x00\x80?\x00\x00\x80?\x00\x00\x80?\x00\x00\x80?\x00\x00\x80?\x00\x00\x80?\x00\x00\x80?\x00\x00\x80?\x00\x00\x80?\x00\x00\x80?\x00\x00\x80?\x00\x00\x80?\x00\x00\x80?\x00\x00\x80?\x00\x00\x80?\x00\x00\x80?\x00\x00\x80?\x00\x00\x80?\x00\x00\x80?\x00\x00\x80?\x00\x00\x80?\x00\x00\x80?\x00\x00\x80?\x00\x00\x80?\x00\x00\x80?\x00\x00\x80?\x00\x00\x80?\x00\x00\x80?\x00\x00\x80?\x00\x00\x80?\x00\x00\x80?\x00\x00\x80?\x00\x00\x80?\x00\x00\x80?\x00\x00\x80?\x00\x00\x80?\x00\x00\x80?\x00\x00\x80?\x00\x00\x80?\x00\x00\x80?\x00\x00\x80?\x00\x00\x80?\x00\x00\x80?\x00\x00\x80?\x00\x00\x80?\x00\x00\x80?\x00\x00\x80?\x00\x00\x80?\x00\x00\x80?\x00\x00\x80?\x00\x00\x80?\x00\x00\x80?\x00\x00\x80?\x00\x00\x80?\x00\x00\x80?\x00\x00\x80?\x00\x00\x80?\x00\x00\x80?\x00\x00\x80?\x00\x00\x80?\x00\x00\x80?\x00\x00\x80?\x00\x00\x80?\x00\x00\x80?\x00\x00\x80?\x00\x00\x80?\x00\x00\x80?\x00\x00\x80?\x00\x00\x80?\x00\x00\x80?\x00\x00\x80?\x00\x00\x80?\x00\x00\x80?\x00\x00\x80?\x00\x00\x80?\x00\x00\x80?\x00\x00\x80?\x00\x00\x80?\x00\x00\x80?\x00\x00\x80?\x00\x00\x80?\x00\x00\x80?\x00\x00\x80?\x00\x00\x80?\x00\x00\x80?\x00\x00\x80?\x00\x00\x80?\x00\x00\x80?\x00\x00\x80?\x00\x00\x80?\x00\x00\x80?\x00\x00\x80?\x00\x00\x80?\x00\x00\x80?\x00\x00\x80?\x00\x00\x80?\x00\x00\x80?\x00\x00\x80?\x00\x00\x80?\x00\x00\x80?\x00\x00\x80?\x00\x00\x80?\x00\x00\x80?\x00\x00\x80?\x00\x00\x80?\x00\x00\x80?\x00\x00\x80?\x00\x00\x80?\x00\x00\x80?\x00\x00\x80?\x00\x00\x80?\x00\x00\x80?\x00\x00\x80?\x00\x00\x80?\x00\x00\x80?\x00\x00\x80?\x00\x00\x80?\x00\x00\x80?\x00\x00\x80?\x00\x00\x80?\x00\x00\x80?\x00\x00\x80?\x00\x00\x80?\x00\x00\x80?\x00\x00\x80?\x00\x00\x80?\x00\x00\x80?\x00\x00\x80?\x00\x00\x80?\x00\x00\x80?\x00\x00\x80?\x00\x00\x80?\x00\x00\x80?\x00\x00\x80?\x00\x00\x80?\x00\x00\x80?\x00\x00\x80?\x00\x00\x80?\x00\x00\x80?\x00\x00\x80?\x00\x00\x80?\x00\x00\x80?\x00\x00\x80?\x00\x00\x80?\x00\x00\x80?\x00\x00\x80?\x00\x00\x80?\x00\x00\x80?\x00\x00\x80?\x00\x00\x80?\x00\x00\x80?\x00\x00\x80?\x00\x00\x80?\x00\x00\x80?\x00\x00\x80?\x00\x00\x80?\x00\x00\x80?\x00\x00\x80?\x00\x00\x80?\x00\x00\x80?\x00\x00\x80?\x00\x00\x80?\x00\x00\x80?\x00\x00\x80?\x00\x00\x80?\x00\x00\x80?\x00\x00\x80?\x00\x00\x80?\x00\x00\x80?\x00\x00\x80?\x00\x00\x80?\x00\x00\x80?\x00\x00\x80?\x00\x00\x80?\x00\x00\x80?\x00\x00\x80?\x00\x00\x80?\x00\x00\x80?\x00\x00\x80?\x00\x00\x80?\x00\x00\x80?\x00\x00\x80?\x00\x00\x80?\x00\x00\x80?\x00\x00\x80?\x00\x00\x80?\x00\x00\x80?\x00\x00\x80?\x00\x00\x80?\x00\x00\x80?\x00\x00\x80?\x00\x00\x80?\x00\x00\x80?\x00\x00\x80?\x00\x00\x80?\x00\x00\x80?\x00\x00\x80?\x00\x00\x80?\x00\x00\x80?\x00\x00\x80?\x00\x00\x80?\x00\x00\x80?\x00\x00\x80?\x00\x00\x80?\x00\x00\x80?\x00\x00\x80?\x00\x00\x80?\x00\x00\x80?\x00\x00\x80?\x00\x00\x80?\x00\x00\x80?\x00\x00\x80?\x00\x00\x80?\x00\x00\x80?\x00\x00\x80?\x00\x00\x80?\x00\x00\x80?\x00\x00\x80?\x00\x00\x80?\x00\x00\x80?\x00\x00\x80?\x00\x00\x80?\x00\x00\x80?\x00\x00\x80?'
S'\x00\x00\x00\x00\x00\x00\x00\x00\x00\x00\x00\x00\x00\x00\x00\x00\x00\x00\x00\x00\x00\x00\x00\x00\x00\x00\x00\x00\x00\x00\x00\x00\x00\x00\x00\x00\x00\x00\x00\x00\x00\x00\x00\x00\x00\x00\x00\x00\x00\x00\x00\x00\x00\x00\x00\x00\x00\x00\x00\x00\x00\x00\x00\x00\x00\x00\x00\x00\x00\x00\x00\x00\x00\x00\x00\x00\x00\x00\x00\x00\x00\x00\x00\x00\x00\x00\x00\x00\x00\x00\x00\x00\x00\x00\x00\x00\x00\x00\x00\x00\x00\x00\x00\x00\x00\x00\x00\x00\x00\x00\x00\x00\x00\x00\x00\x00\x00\x00\x00\x00\x00\x00\x00\x00\x00\x00\x00\x00\x00\x00\x00\x00\x00\x00\x00\x00\x00\x00\x00\x00\x00\x00\x00\x00\x00\x00\x00\x00\x00\x00\x00\x00\x00\x00\x00\x00\x00\x00\x00\x00\x00\x00\x00\x00\x00\x00\x00\x00\x00\x00\x00\x00\x00\x00\x00\x00\x00\x00\x00\x00\x00\x00\x00\x00\x00\x00\x00\x00\x00\x00\x00\x00\x00\x00\x00\x00\x00\x00\x00\x00\x00\x00\x00\x00\x00\x00\x00\x00\x00\x00\x00\x00\x00\x00\x00\x00\x00\x00\x00\x00\x00\x00\x00\x00\x00\x00\x00\x00\x00\x00\x00\x00\x00\x00\x00\x00\x00\x00\x00\x00\x00\x00\x00\x00\x00\x00\x00\x00\x00\x00\x00\x00\x00\x00\x00\x00\x00\x00\x00\x00\x00\x00\x00\x00\x00\x00\x00\x00\x00\x00\x00\x00\x00\x00\x00\x00\x00\x00\x00\x00\x00\x00\x00\x00\x00\x00\x00\x00\x00\x00\x00\x00\x00\x00\x00\x00\x00\x00\x00\x00\x00\x00\x00\x00\x00\x00\x00\x00\x00\x00\x00\x00\x00\x00\x00\x00\x00\x00\x00\x00\x00\x00\x00\x00\x00\x00\x00\x00\x00\x00\x00\x00\x00\x00\x00\x00\x00\x00\x00\x00\x00\x00\x00\x00\x00\x00\x00\x00\x00\x00\x00\x00\x00\x00\x00\x00\x00\x00\x00\x00\x00\x00\x00\x00\x00\x00\x00\x00\x00\x00\x00\x00\x00\x00\x00\x00\x00\x00\x00\x00\x00\x00\x00\x00\x00\x00\x00\x00\x00\x00\x00\x00\x00\x00\x00\x00\x00\x00\x00\x00\x00\x00\x00\x00\x00\x00\x00\x00\x00\x00\x00\x00\x00\x00\x00\x00\x00\x00\x00\x00\x00\x00\x00\x00\x00\x00\x00\x00\x00\x00\x00\x00\x00\x00\x00\x00\x00\x00\x00\x00\x00\x00\x00\x00\x00\x00\x00\x00\x00\x00\x00\x00\x00\x00\x00\x00\x00\x00\x00\x00\x00\x00\x00\x00\x00\x00\x00\x00\x00\x00\x00\x00\x00\x00\x00\x00\x00\x00\x00\x00\x00\x00\x00\x00\x00\x00\x00\x00\x00\x00\x00\x00\x00\x00\x00\x00\x00\x00\x00\x00\x00\x00\x00\x00\x00\x00\x00\x00\x00\x00\x00\x00\x00\x00\x00\x00\x00\x00\x00\x00\x00\x00\x00\x00\x00\x00\x00\x00\x00\x00\x00\x00\x00\x00\x00\x00\x00\x00\x00\x00\x00\x00\x00\x00\x00\x00\x00\x00\x00\x00\x00\x00\x00\x00\x00\x00\x00\x00\x00\x00\x00\x00\x00\x00\x00\x00\x00\x00\x00\x00\x00\x00\x00\x00\x00\x00\x00\x00\x00\x00\x00\x00\x00\x00\x00\x00\x00\x00\x00\x00\x00\x00\x00\x00\x00\x00\x00\x00\x00\x00'
Ntbsg55
g48
(g49
g50
g51
S'b'
tRp4857
(I1
(I600
I1
tg54
I00
S'\x00\x00\xe4C\x00\x00\xb0B\x00\x80\xd0C\x00\x00\xc4C\x00\x00\xa0A\x00\x80\x98C\x00\x00\x1bC\x00\x00yC\x00\x80\x93C\x00\x00[C\x00\x00\xfeC\x00\x00\x80@\x00\x00\x05C\x00\x80\xeaC\x00\x80\xfdC\x00\x00\x14B\x00\x00\x11C\x00\xc0\nD\x00\x00\x03D\x00\x00\xcbC\x00\x80\xedC\x00\x00`C\x00\x80\x0eD\x00@\x0eD\x00\x00PC\x00\x00{C\x00\x00\x0fC\x00\x80\xbbC\x00\x00\xeeC\x00\x00\xbcB\x00\x00\x9eC\x00\x00pA\x00\x80\nD\x00\x80\x95C\x00@\x10D\x00\x00\xc9C\x00\x00\xb8A\x00\x80\xfbC\x00\x00\x94B\x00\x00\xf2C\x00\x00\xd0A\x00\x00\'C\x00\x00\x88A\x00@\x08D\x00\x00\xd8C\x00\x00DB\x00\x00@A\x00\x00\xb5C\x00\x80\xd5C\x00\x00\xeeB\x00\x80\xc9C\x00\x00lC\x00\xc0\x12D\x00\x00\x8cC\x00\x00\xaeC\x00\xc0\x00D\x00\x00\x14D\x00\x80\xacC\x00\x00FC\x00\x00\x94C\x00\x00~C\x00\x80\xdfC\x00\x80\x14D\x00\xc0\x0eD\x00\x00\xc0B\x00\x80\xd7C\x00\x00\xdcB\x00\x80\xa3C\x00\x00\xc2C\x00\x008B\x00\x80\x9dC\x00\x00@@\x00\x00\x1eC\x00\x00\x10B\x00\x00SC\x00\x00\xe8C\x00@\x13D\x00\x00\xdcC\x00\x00\xb4C\x00\x00\xaaB\x00\x00dB\x00\x00\xa6C\x00\x00\x10C\x00\x00\x92B\x00\x80\xebC\x00\x00\x1aC\x00\x00lB\x00\x00\x86B\x00\x00\xd1C\x00\x80\x87C\x00\x00`A\x00\x00NC\x00\x00PA\x00\x00rC\x00@\x0bD\x00\x80\xd1C\x00\x80\xb6C\x00\x00\x88C\x00\x80\xb2C\x00\x80\x12D\x00\x00\x84B\x00\x00fC\x00\x00\x9eB\x00\x00\x0fD\x00\x80\x0bD\x00\x00\xb8C\x00\x00\xf4B\x00\x80\xd3C\x00\x008C\x00\x00\x04C\x00\x00\xacB\x00\x00\x8dC\x00@\x06D\x00\x00\nD\x00\x00UC\x00\x00YC\x00\x80\x11D\x00\x00wC\x00\x00\x90C\x00\x80\x07D\x00\x00\x00C\x00\x00\xc8B\x00\x00\xe1C\x00\x00\x14C\x00\x00\xd0B\x00\x00<B\x00\x00\xc6C\x00\x00\x06C\x00\x00\x0cD\x00\x00\xbeC\x00\x00\xa4B\x00\x80\xe1C\x00\x00\xf0A\x00\x00\xfdC\x00\x00/C\x00\x00\xa9C\x00\x80\xabC\x00\x00\rC\x00\x00\xc8C\x00\x00\x0eD\x00\x80\x9aC\x00\x80\x80C\x00\x80\xc7C\x00\x00.C\x00\x00GC\x00\x80\x00D\x00\x80\xc0C\x00\x00\x8fC\x00\x00\x0cB\x00\x00hC\x00\x00\x98B\x00\x00\x80A\x00\x80\x84C\x00\x00\xc0@\x00\x80\xafC\x00\x00\x12C\x00\x00xC\x00\x80\xe7C\x00\x00\x07D\x00\x80\x13D\x00\x80\xb3C\x00\x80\xceC\x00\x00\xb0C\x00\x00\xafC\x00\x00RC\x00\x00\xf8C\x00\x00\xe9C\x00\x00=C\x00\x00\x83C\x00\x00\xa2B\x00\x80\x8cC\x00\xc0\x01D\x00\x00\xe0@\x00\x00\xf3C\x00\x003C\x00\x00\x18C\x00\x00pB\x00\x00WC\x00\x80\x9bC\x00\x00\xecB\x00\x00<C\x00\x00\xd6B\x00\xc0\x04D\x00\xc0\x06D\x00\x00\xc8A\x00\x00\xe0A\x00\x00bC\x00\x00\xfcC\x00\x00\tD\x00\x00!C\x00\x00\x96B\x00\x80\xccC\x00\x00\x16C\x00\x00\x80C\x00\x00;C\x00\x00\xf6C\x00\x80\x01D\x00\x00@C\x00\x00\xa0C\x00\x80\xe2C\x00\x00\x00\x00\x00\x00\\C\x00\x00\xdeC\x00\x00\xaeB\x00\x80\xd9C\x00\x00\x17C\x00\xc0\x0cD\x00\x00\xf1C\x00\x00\x05D\x00\x00\xdeB\x00\x00|B\x00\x80\xd4C\x00\xc0\x08D\x00@\tD\x00\x00\x1cB\x00\x00\x9cC\x00\x80\xf9C\x00\x001C\x00\x00\x00D\x00\x00\x98A\x00\x00xB\x00\x00\xbdC\x00\x00,B\x00\x00\x08B\x00\x00*C\x00\x00\xbcC\x00\x00\xa1C\x00\x00\xccB\x00\x00\rD\x00\x80\xa4C\x00\x00\x12D\x00\x00 A\x00\x00\xb2B\x00\x80\xb8C\x00\x80\x90C\x00\x80\xa7C\x00\x00\xb8B\x00\x000B\x00\x80\xffC\x00\x00\x92C\x00\x00\xa0@\x00\x00\x89C\x00\x00\x9aB\x00\x00\x9aC\x00\x00:C\x00\x80\xe4C\x00\x00\xccC\x00\x00,C\x00@\x15D\x00\x00\xb3C\x00\x00\x08D\x00\x00)C\x00\x00\xcaB\x00\x00\x9cB\x00\x00\x06D\x00\x00\x1fC\x00\x00\xbfC\x00\x00]C\x00\x80\x99C\x00\x00TC\x00\x80\x86C\x00\x00\xc6B\x00\x000C\x00\x00\xabC\x00\x00\nC\x00\x00\xf7C\x00\x80\x04D\x00\x00\x80B\x00\x00\xe3C\x00\x00}C\x00\x00\x7fC\x00@\x04D\x00\x00\xc0C\x00\x00\x8bC\x00\x80\xf6C\x00\x00\xbaB\x00\x00%C\x00\x00\xf0B\x00\x80\x82C\x00\x80\xdbC\x00\x00EC\x00\x00&C\x00\x00\x02D\x00\x00\x91C\x00\x80\xe9C\x00\x80\xbeC\x00\x00tB\x00\x00\x8aB\x00\x00JC\x00\x00\xf4C\x00\x00\xcfC\x00\x00\xd8B\x00\xc0\x13D\x00\x00mC\x00\x00\xe2B\x00\x00\x86C\x00\x00"C\x00\x80\xa5C\x00\x00\x15C\x00\x00\xb1C\x00\x00DC\x00\x00\x10D\x00\x00\x04B\x00\x006C\x00\xc0\x07D\x00\x00\xe2C\x00\x80\x88C\x00\x80\xb7C\x00\x000A\x00\x00\xfeB\x00\x80\xa6C\x00\x80\tD\x00\x00\x0bC\x00\x00\x13D\x00\x00\x93C\x00\x00\xbeB\x00\x00sC\x00\x00TB\x00\x00-C\x00\x00\xa8B\x00\x00qC\x00\x80\x0fD\x00\x80\xd8C\x00\x80\xf4C\x00\x00\xa5C\x00\x80\x0cD\x00\x00\xfaC\x00\x00\xeaB\x00\x00\x84C\x00\x00\xceB\x00\x80\x9cC\x00\x00\xc1C\x00\x80\x83C\x00\x80\xeeC\x00\x00(C\x00@\rD\x00\x00\xcaC\x00\x00\xb0A\x00\x00\xb6C\x00\x00\xd0C\x00\x80\xc5C\x00\x00\x00A\x00@\x03D\x00\x00\xc5C\x00\x00\xdfC\x00\x80\xbdC\x00\x00zC\x00\xc0\x02D\x00\x00>C\x00\x00 B\x00\x00nC\x00\x00\xe5C\x00\x00$C\x00\x00\xc2B\x00\x00\xe6C\x00\x00OC\x00\x00\x04D\x00\x00XC\x00\x00\xdaC\x00\x00\xb7C\x00\x80\xe6C\x00\x00VC\x00\x80\rD\x00\x00\xddC\x00\x007C\x00\x00\x1cC\x00\xc0\rD\x00\x80\xcbC\x00\x80\xdaC\x00\x00\x19C\x00\x00\xb2C\x00\x00\x8cB\x00\x00\xf0C\x00\x00\xc3C\x00\x00\x82C\x00\x00HB\x00\x00\xbaC\x00\x00^C\x00\x00\x98C\x00\x00\xb9C\x00\x80\xc4C\x00\x80\xb5C\x00\x80\xf3C\x00\x00LC\x00\x00?C\x00\x00\x82B\x00@\x02D\x00\x00 C\x00\x00\x80?\x00@\x14D\x00\x00\xa8C\x00\x00\x15D\x00\x80\x97C\x00\x00\xfcB\x00\x00eC\x00@\x07D\x00\x00\xecC\x00\xc0\x0fD\x00\x00\x0bD\x00\x80\x8aC\x00\x00jC\x00\x00\x01D\x00\x80\x8dC\x00\x80\xc2C\x00\x00\xcdC\x00\x80\xdeC\x00\x80\xa1C\x00\x00\xa0B\x00\x00(B\x00\x80\xddC\x00\x00\x9bC\x00\x80\xf0C\x00\x80\x8bC\x00\x00\xd7C\x00\x00\x11D\x00\x00\xb4B\x00\x80\xd2C\x00\x00\x95C\x00\x00\x8eC\x00\x80\x8eC\x00\x00QC\x00\x80\x02D\x00\x00\xd8A\x00\x009C\x00\x00\x87C\x00\x00\xceC\x00@\x12D\x00\x80\xcaC\x00\x80\xc1C\x00\x00+C\x00\x00cC\x00\x80\xaeC\x00\x00_C\x00\x00\x0cC\x00\x80\xfaC\x00\x00\x97C\x00\x80\x92C\x00\x00\x88B\x00\x80\xadC\x00\x00\xbbC\x00\x80\xfcC\x00\x00\xd9C\x00\x00\xa8A\x00\x80\xc3C\x00\x00\xe4B\x00\x00XB\x00\x00\xffC\x00\x00\xe0B\x00\x00\xa2C\x00\x00\x07C\x00\x00\xa3C\x00\x00\xf8B\x00\x00\x99C\x00\x00\x85C\x00\x00$B\x00\x80\xecC\x00\x00\x8aC\x00@\x11D\x00\x80\xa0C\x00\x00iC\x00\x00#C\x00\x00\xf2B\x00\x00\xd3C\x00\x002C\x00\x00IC\x00\x00\xf9C\x00\x80\x03D\x00\x00\xd2B\x00\x00AC\x00\x00\x96C\x00\x80\xf1C\x00\x80\xa9C\x00\x00\xaaC\x00\x00\xe8A\x00@\nD\x00\x00\xd4B\x00\x00gC\x00\x00\x13C\x00\x00@B\x00\x00\xdbC\x00\x00\x00@\x00\x80\xf7C\x00\x00MC\x00\x00\xfaB\x00\x80\xbfC\x00\x00\x10A\x00\x80\xb0C\x00\xc0\x15D\x00\xc0\tD\x00\x00\xf5C\x00\x00\tC\x00\x00aC\x00\x80\x9fC\x00\xc0\x10D\x00\xc0\x0bD\x00\x005C\x00@\x0fD\x00\x004C\x00\x00uC\x00\x80\xa8C\x00\x00\xadC\x00\x00\xd5C\x00\x80\x85C\x00\x80\xf5C\x00\x00\xd4C\x00\x00pC\x00\x80\xcdC\x00\x80\xe3C\x00\x00\xa6B\x00\x80\xfeC\x00\x80\xefC\x00\x00\xd2C\x00\x00BC\x00\x80\x81C\x00\x00\xc0A\x00\x80\xe5C\x00\x004B\x00\x00\x1dC\x00\x00\xdaB\x00\x00\xe8B\x00\x80\xbaC\x00\x00HC\x00\x80\x94C\x00\x80\x06D\x00\x80\xe0C\x00\x00vC\x00\x00\x90A\x00\x00LB\x00\x00\x02C\x00@\x00D\x00@\x01D\x00\x00\xd6C\x00\x80\xcfC\x00\x80\x9eC\x00\x00\x9dC\x00\x00\x01C\x00@\x05D\x00\x80\x91C\x00\x80\x15D\x00\x80\xaaC\x00\x80\xa2C\x00\xc0\x05D\x00\xc0\x14D\x00\x00ZC\x00\x00oC\x00\x80\xb9C\x00\x00\xe6B\x00\x00\xf8A\x00\x80\xdcC\x00\x00\xc7C\x00\x00\x00B\x00\x80\xb1C\x00\x80\x8fC\x00\x00PB\x00\x00\x03C\x00\x80\xd6C\x00\x00\xfbC\x00\x00\\B\x00\x00\x18B\x00\x00KC\x00\x00\xe7C\x00\x80\xb4C\x00\x80\xe8C\x00\x80\x89C\x00\x00\xb6B\x00\x00\xefC\x00\x00\x90B\x00\x00dC\x00\x00\xc4B\x00\x00\x0eC\x00\x00\xf6B\x00\xc0\x11D\x00\x80\xc8C\x00\x00`B\x00\x00\xedC\x00\x00kC\x00\x00CC\x00\x00\xebC\x00\x80\xf2C\x00\x00\x8eB\x00\x00\x9fC\x00\x00tC\x00\x00\xa4C\x00\x00\x08C\x00\x80\xc6C\x00\x00hB\x00\x80\x96C\x00\x80\xbcC\x00\x00\xacC\x00@\x0cD\x00\x00|C\x00\x80\xf8C\x00\x00\xeaC\x00\x00\xa7C\x00\x80\x10D\x00\xc0\x03D\x00\x80\x05D\x00\x00\x81C\x00\x00\xe0C\x00\x80\x08D'
S'\x00\x00\x00\x00\x00\x00\x00\x00\x00\x00\x00\x00\x00\x00\x00\x00\x00\x00\x00\x00\x00\x00\x00\x00\x00\x00\x00\x00\x00\x00\x00\x00\x00\x00\x00\x00\x00\x00\x00\x00\x00\x00\x00\x00\x00\x00\x00\x00\x00\x00\x00\x00\x00\x00\x00\x00\x00\x00\x00\x00\x00\x00\x00\x00\x00\x00\x00\x00\x00\x00\x00\x00\x00\x00\x00\x00\x00\x00\x00\x00\x00\x00\x00\x00\x00\x00\x00\x00\x00\x00\x00\x00\x00\x00\x00\x00\x00\x00\x00\x00\x00\x00\x00\x00\x00\x00\x00\x00\x00\x00\x00\x00\x00\x00\x00\x00\x00\x00\x00\x00\x00\x00\x00\x00\x00\x00\x00\x00\x00\x00\x00\x00\x00\x00\x00\x00\x00\x00\x00\x00\x00\x00\x00\x00\x00\x00\x00\x00\x00\x00\x00\x00\x00\x00\x00\x00\x00\x00\x00\x00\x00\x00\x00\x00\x00\x00\x00\x00\x00\x00\x00\x00\x00\x00\x00\x00\x00\x00\x00\x00\x00\x00\x00\x00\x00\x00\x00\x00\x00\x00\x00\x00\x00\x00\x00\x00\x00\x00\x00\x00\x00\x00\x00\x00\x00\x00\x00\x00\x00\x00\x00\x00\x00\x00\x00\x00\x00\x00\x00\x00\x00\x00\x00\x00\x00\x00\x00\x00\x00\x00\x00\x00\x00\x00\x00\x00\x00\x00\x00\x00\x00\x00\x00\x00\x00\x00\x00\x00\x00\x00\x00\x00\x00\x00\x00\x00\x00\x00\x00\x00\x00\x00\x00\x00\x00\x00\x00\x00\x00\x00\x00\x00\x00\x00\x00\x00\x00\x00\x00\x00\x00\x00\x00\x00\x00\x00\x00\x00\x00\x00\x00\x00\x00\x00\x00\x00\x00\x00\x00\x00\x00\x00\x00\x00\x00\x00\x00\x00\x00\x00\x00\x00\x00\x00\x00\x00\x00\x00\x00\x00\x00\x00\x00\x00\x00\x00\x00\x00\x00\x00\x00\x00\x00\x00\x00\x00\x00\x00\x00\x00\x00\x00\x00\x00\x00\x00\x00\x00\x00\x00\x00\x00\x00\x00\x00\x00\x00\x00\x00\x00\x00\x00\x00\x00\x00\x00\x00\x00\x00\x00\x00\x00\x00\x00\x00\x00\x00\x00\x00\x00\x00\x00\x00\x00\x00\x00\x00\x00\x00\x00\x00\x00\x00\x00\x00\x00\x00\x00\x00\x00\x00\x00\x00\x00\x00\x00\x00\x00\x00\x00\x00\x00\x00\x00\x00\x00\x00\x00\x00\x00\x00\x00\x00\x00\x00\x00\x00\x00\x00\x00\x00\x00\x00\x00\x00\x00\x00\x00\x00\x00\x00\x00\x00\x00\x00\x00\x00\x00\x00\x00\x00\x00\x00\x00\x00\x00\x00\x00\x00\x00\x00\x00\x00\x00\x00\x00\x00\x00\x00\x00\x00\x00\x00\x00\x00\x00\x00\x00\x00\x00\x00\x00\x00\x00\x00\x00\x00\x00\x00\x00\x00\x00\x00\x00\x00\x00\x00\x00\x00\x00\x00\x00\x00\x00\x00\x00\x00\x00\x00\x00\x00\x00\x00\x00\x00\x00\x00\x00\x00\x00\x00\x00\x00\x00\x00\x00\x00\x00\x00\x00\x00\x00\x00\x00\x00\x00\x00\x00\x00\x00\x00\x00\x00\x00\x00\x00\x00\x00\x00\x00\x00\x00\x00\x00\x00\x00\x00\x00\x00\x00\x00\x00\x00\x00\x00\x00\x00\x00\x00\x00\x00\x00\x00\x00\x00\x00\x00\x00\x00\x00\x00\x00\x00\x00\x00\x00\x00\x00\x00\x00\x00\x00\x00\x00\x00\x00\x00\x00\x00\x00'
NtbstRp4858
(dp4859
g59
(dp4860
g47
I01
sg55
I01
ssg61
g4852
sg62
(lp4861
g47
ag55
asg64
(lp4862
I600
aI1
asbsg66
S'random'
p4863
sg68
g69
(g50
(I0
tS'b'
tRp4864
(I1
(I600
I1
tg53
(S'i4'
I0
I1
tRp4865
(I3
S'<'
NNNI-1
I-1
I0
tbI01
S'\xc8\x00\x00\x00\x84\x01\x00\x00\xe0\x01\x00\x00G\x00\x00\x00\x0b\x00\x00\x00\xf0\x00\x00\x00\x99\x00\x00\x00\xac\x00\x00\x00U\x01\x00\x00\xe5\x01\x00\x00\xe7\x00\x00\x004\x01\x00\x00.\x00\x00\x00\\\x00\x00\x00Z\x00\x00\x00\x1f\x00\x00\x00\x97\x00\x00\x00*\x00\x00\x00\x0e\x02\x00\x00\xdb\x00\x00\x00\x04\x00\x00\x00\xba\x01\x00\x00Q\x01\x00\x00$\x00\x00\x00\x02\x02\x00\x00\xb8\x00\x00\x00(\x00\x00\x00\xa6\x01\x00\x00\xb9\x00\x00\x00\xd9\x01\x00\x00\x84\x00\x00\x00#\x02\x00\x00&\x02\x00\x00.\x01\x00\x00\xdf\x00\x00\x00\x94\x00\x00\x00I\x00\x00\x00\x0f\x00\x00\x00.\x02\x00\x00\xd6\x00\x00\x00]\x01\x00\x00\xc6\x01\x00\x00\x98\x01\x00\x00\xde\x00\x00\x00\xed\x00\x00\x00\x04\x02\x00\x00E\x00\x00\x00}\x00\x00\x00\xde\x01\x00\x00-\x00\x00\x00w\x01\x00\x00\x0f\x02\x00\x00)\x02\x00\x00=\x01\x00\x00\xbd\x01\x00\x00-\x02\x00\x00=\x02\x00\x00P\x00\x00\x00I\x02\x00\x00V\x00\x00\x00\xb0\x00\x00\x00\x1e\x01\x00\x00\xdc\x00\x00\x00\xd2\x00\x00\x00\x0b\x01\x00\x00\x81\x01\x00\x00d\x00\x00\x00W\x00\x00\x00\xb5\x01\x00\x00\x1f\x01\x00\x00s\x01\x00\x00C\x02\x00\x006\x02\x00\x00S\x00\x00\x00&\x00\x00\x00\xbe\x00\x00\x00\x96\x00\x00\x00\xf2\x00\x00\x00\xfd\x00\x00\x00f\x00\x00\x00\x97\x01\x00\x00\xa9\x00\x00\x00\x82\x00\x00\x00\xfc\x01\x00\x00?\x01\x00\x00O\x00\x00\x00n\x00\x00\x00\xcb\x00\x00\x00\x01\x00\x00\x00\xe8\x00\x00\x00\x9f\x01\x00\x004\x02\x00\x00\xec\x00\x00\x00\x13\x01\x00\x00\x1d\x00\x00\x00;\x01\x00\x00@\x00\x00\x00a\x01\x00\x008\x02\x00\x00\x05\x01\x00\x00y\x00\x00\x00\xfc\x00\x00\x00\xe3\x00\x00\x00I\x01\x00\x00|\x00\x00\x00\xd3\x01\x00\x00\xdb\x01\x00\x00\xb5\x00\x00\x00#\x01\x00\x00\x06\x02\x00\x00B\x00\x00\x00\xd1\x00\x00\x00\xbf\x01\x00\x00&\x01\x00\x00\xbc\x01\x00\x00"\x02\x00\x00\x07\x02\x00\x00G\x01\x00\x00\xb3\x00\x00\x001\x00\x00\x00\x15\x01\x00\x00\xcd\x01\x00\x00j\x00\x00\x00:\x02\x00\x00\xc3\x01\x00\x00\xe3\x01\x00\x00\x89\x01\x00\x005\x01\x00\x00x\x00\x00\x00\x17\x02\x00\x00\x10\x02\x00\x00*\x02\x00\x00m\x00\x00\x00\x0c\x00\x00\x00\x7f\x00\x00\x00\xc1\x01\x00\x00G\x02\x00\x00\xea\x01\x00\x00\x08\x01\x00\x008\x01\x00\x00\xb1\x01\x00\x00\x89\x00\x00\x009\x02\x00\x00\x1a\x00\x00\x00R\x00\x00\x00\x10\x00\x00\x00\x9b\x00\x00\x00\xdd\x01\x00\x00{\x00\x00\x00*\x01\x00\x00\xc0\x00\x00\x00\xcd\x00\x00\x00\xaf\x00\x00\x00q\x01\x00\x00U\x00\x00\x00\x06\x00\x00\x00m\x01\x00\x00\x05\x02\x00\x00H\x00\x00\x00\xff\x00\x00\x00\x83\x01\x00\x00\xbd\x00\x00\x00(\x01\x00\x00\xcc\x01\x00\x00`\x01\x00\x00\x14\x01\x00\x00\x19\x01\x00\x00)\x00\x00\x00N\x01\x00\x00\xfb\x00\x00\x00\xe0\x00\x00\x00\xad\x01\x00\x00\xf7\x00\x00\x00>\x01\x00\x00\x8f\x00\x00\x00\x86\x00\x00\x00\x06\x01\x00\x00\xd9\x00\x00\x00\xcf\x01\x00\x00\xae\x00\x00\x00\xf1\x01\x00\x00\xef\x01\x00\x00/\x01\x00\x00l\x01\x00\x00l\x00\x00\x00\xa7\x01\x00\x00\xf4\x00\x00\x00\xc2\x00\x00\x00\xb4\x00\x00\x00\xa7\x00\x00\x00\\\x01\x00\x00\x80\x01\x00\x00\xc5\x00\x00\x00\xd4\x01\x00\x00\x00\x02\x00\x00@\x02\x00\x00,\x01\x00\x00\x18\x01\x00\x00:\x00\x00\x00\x90\x00\x00\x00\t\x02\x00\x00\xd0\x01\x00\x00 \x01\x00\x00/\x02\x00\x00\x7f\x01\x00\x00\xe2\x01\x00\x00[\x00\x00\x00c\x01\x00\x00\x18\x00\x00\x00\xa4\x01\x00\x00\xa4\x00\x00\x00J\x00\x00\x00\x03\x01\x00\x00r\x00\x00\x00i\x01\x00\x00\xb1\x00\x00\x00e\x01\x00\x00s\x00\x00\x00\x1f\x02\x00\x00\t\x00\x00\x00\xc9\x00\x00\x00\x01\x01\x00\x00y\x01\x00\x00\xb0\x01\x00\x00\x15\x00\x00\x00\xeb\x01\x00\x00\xba\x00\x00\x00\xae\x01\x00\x007\x02\x00\x00\x8a\x01\x00\x00e\x00\x00\x00\xdc\x01\x00\x00\x95\x00\x00\x00\xcb\x01\x00\x00\x90\x01\x00\x00?\x02\x00\x003\x00\x00\x00%\x01\x00\x00^\x01\x00\x00 \x02\x00\x00\xf9\x01\x00\x00@\x01\x00\x00]\x00\x00\x00<\x01\x00\x00E\x02\x00\x00\xf2\x01\x00\x00\r\x02\x00\x00u\x00\x00\x00\x9c\x00\x00\x00\x07\x00\x00\x00Z\x01\x00\x00\x19\x00\x00\x00N\x02\x00\x00\r\x01\x00\x00<\x00\x00\x00\x0e\x01\x00\x00\xc1\x00\x00\x00\x8d\x00\x00\x00U\x02\x00\x00\x01\x02\x00\x00v\x01\x00\x00\x16\x01\x00\x00\xa8\x00\x00\x00L\x01\x00\x00H\x01\x00\x00\x98\x00\x00\x00\xc5\x01\x00\x00\xf6\x01\x00\x00\'\x01\x00\x00\x04\x01\x00\x00\xa8\x01\x00\x00Y\x00\x00\x00a\x00\x00\x002\x01\x00\x00\xf1\x00\x00\x003\x02\x00\x00\xc8\x01\x00\x00\x8f\x01\x00\x00\x11\x01\x00\x00\x9c\x01\x00\x005\x00\x00\x00\xaa\x00\x00\x00o\x00\x00\x00\x92\x01\x00\x00\xa2\x01\x00\x00\xa3\x01\x00\x00\x93\x00\x00\x00(\x02\x00\x00v\x00\x00\x00\xea\x00\x00\x00\x1b\x01\x00\x00\x19\x02\x00\x00\xef\x00\x00\x00\xb4\x01\x00\x00:\x01\x00\x00\x08\x00\x00\x00;\x00\x00\x00\n\x02\x00\x00\xa1\x01\x00\x00!\x00\x00\x00\xd5\x01\x00\x00J\x02\x00\x00\xb3\x01\x00\x00\x88\x01\x00\x00z\x01\x00\x00\x05\x00\x00\x00\xc4\x01\x00\x00\x02\x01\x00\x00\xf3\x00\x00\x00\x8c\x00\x00\x00\x9a\x01\x00\x00\xb2\x00\x00\x00\xd7\x00\x00\x00J\x01\x00\x00\x16\x02\x00\x00F\x00\x00\x00\x1e\x00\x00\x00\x15\x02\x00\x00D\x02\x00\x00\xec\x01\x00\x00\xc6\x00\x00\x00\xca\x01\x00\x00\xe2\x00\x00\x00\x96\x01\x00\x00\xc0\x01\x00\x00\x1c\x02\x00\x00\xc2\x01\x00\x00C\x00\x00\x00F\x02\x00\x00\xe5\x00\x00\x00D\x01\x00\x00)\x01\x00\x00Q\x00\x00\x006\x01\x00\x00Q\x02\x00\x00\xeb\x00\x00\x00\x86\x01\x00\x00\xf3\x01\x00\x00\x87\x00\x00\x00\xd7\x01\x00\x00\xd8\x01\x00\x00\x1b\x02\x00\x00\x07\x01\x00\x00\x88\x00\x00\x00L\x02\x00\x009\x00\x00\x00\xf4\x01\x00\x00\xb6\x01\x00\x006\x00\x00\x00\xaf\x01\x00\x00\xa3\x00\x00\x00\x9a\x00\x00\x00\xa2\x00\x00\x00\xe6\x01\x00\x00+\x01\x00\x00\'\x02\x00\x00r\x01\x00\x00b\x00\x00\x00\xf9\x00\x00\x00\xa0\x00\x00\x00N\x00\x00\x001\x02\x00\x00/\x00\x00\x00}\x01\x00\x00R\x01\x00\x00`\x00\x00\x00g\x01\x00\x003\x01\x00\x00i\x00\x00\x00\xe9\x00\x00\x00{\x01\x00\x00!\x02\x00\x00x\x01\x00\x00\x08\x02\x00\x00\xb7\x01\x00\x00\x1b\x00\x00\x00\xe1\x00\x00\x00K\x02\x00\x00\xdd\x00\x00\x00Y\x01\x00\x00\x81\x00\x00\x00\x1d\x01\x00\x00\x00\x01\x00\x00\xe4\x01\x00\x00\x10\x01\x00\x00\x92\x00\x00\x00K\x01\x00\x00\xac\x01\x00\x00D\x00\x00\x00\x93\x01\x00\x00u\x01\x00\x00\xbb\x01\x00\x00\x03\x00\x00\x00|\x01\x00\x00W\x01\x00\x00T\x01\x00\x00~\x00\x00\x00H\x02\x00\x00%\x02\x00\x00\x8e\x00\x00\x00\x8a\x00\x00\x00<\x02\x00\x00#\x00\x00\x002\x00\x00\x00P\x01\x00\x00\xab\x01\x00\x00\x13\x00\x00\x00o\x01\x00\x00\xf6\x00\x00\x00\xbf\x00\x00\x00\x94\x01\x00\x00\xfa\x01\x00\x00\xa9\x01\x00\x00\xa1\x00\x00\x00"\x01\x00\x00\x14\x02\x00\x00S\x01\x00\x00\x02\x00\x00\x00X\x00\x00\x00_\x00\x00\x00\xff\x01\x00\x00\xa0\x01\x00\x00\xce\x01\x00\x00k\x00\x00\x00\xf8\x01\x00\x00\xd3\x00\x00\x00\xf5\x01\x00\x000\x00\x00\x00\x13\x02\x00\x00+\x02\x00\x00\x9d\x01\x00\x00A\x00\x00\x00,\x00\x00\x00B\x01\x00\x00\xb9\x01\x00\x00\xcc\x00\x00\x00f\x01\x00\x00p\x01\x00\x00\xdf\x01\x00\x00\x17\x01\x00\x00M\x00\x00\x00$\x02\x00\x00k\x01\x00\x00\x99\x01\x00\x00\xca\x00\x00\x00\x95\x01\x00\x00X\x01\x00\x00=\x00\x00\x00V\x02\x00\x00\x0c\x02\x00\x00z\x00\x00\x00\x83\x00\x00\x001\x01\x00\x00\xc7\x00\x00\x00\x0c\x01\x00\x00\xfb\x01\x00\x00\x00\x00\x00\x00\xf5\x00\x00\x00_\x01\x00\x00\x03\x02\x00\x00b\x01\x00\x00h\x01\x00\x000\x02\x00\x00\x9d\x00\x00\x00K\x00\x00\x002\x02\x00\x00\xa6\x00\x00\x00\x1c\x01\x00\x00P\x02\x00\x00\r\x00\x00\x00A\x02\x00\x00T\x00\x00\x00\x8c\x01\x00\x00\xc7\x01\x00\x00>\x02\x00\x00\x14\x00\x00\x00\x1c\x00\x00\x00M\x01\x00\x005\x02\x00\x00\xfe\x01\x00\x00t\x01\x00\x00\x9b\x01\x00\x00\xcf\x00\x00\x00\xd6\x01\x00\x00\'\x00\x00\x00B\x02\x00\x00\xad\x00\x00\x00~\x01\x00\x00!\x01\x00\x00C\x01\x00\x00\xe9\x01\x00\x00\xf7\x01\x00\x00\xc3\x00\x00\x00\x12\x01\x00\x00\t\x01\x00\x00\xe1\x01\x00\x00\xa5\x00\x00\x00O\x02\x00\x00\xd1\x01\x00\x00\xd8\x00\x00\x00F\x01\x00\x00\xb2\x01\x00\x00,\x02\x00\x00%\x00\x00\x00\xbb\x00\x00\x00\xb8\x01\x00\x00\x85\x00\x00\x00\x0e\x00\x00\x00\n\x00\x00\x00\xfd\x01\x00\x00\xbe\x01\x00\x00\xee\x00\x00\x00\xda\x00\x00\x00\x11\x02\x00\x00\x91\x00\x00\x007\x00\x00\x00\x91\x01\x00\x00\x12\x02\x00\x00\xc4\x00\x00\x00\xab\x00\x00\x00\x1a\x01\x00\x00\x82\x01\x00\x00\xa5\x01\x00\x00[\x01\x00\x00\x12\x00\x00\x00V\x01\x00\x00\xd2\x01\x00\x00S\x02\x00\x00d\x01\x00\x00\x0f\x01\x00\x00\n\x01\x00\x00\xb6\x00\x00\x00\xd0\x00\x00\x00\x18\x02\x00\x00T\x02\x00\x00\x1d\x02\x00\x00\xfe\x00\x00\x00p\x00\x00\x00\x0b\x02\x00\x00\xb7\x00\x00\x00\x9e\x00\x00\x00\x8b\x01\x00\x00w\x00\x00\x000\x01\x00\x00\xfa\x00\x00\x00+\x00\x00\x00W\x02\x00\x00\xd4\x00\x00\x00\xbc\x00\x00\x00\xd5\x00\x00\x007\x01\x00\x00\xe8\x01\x00\x00q\x00\x00\x00\xda\x01\x00\x00 \x00\x00\x00\x11\x00\x00\x00\x8e\x01\x00\x00^\x00\x00\x00h\x00\x00\x00\xee\x01\x00\x00\x80\x00\x00\x00M\x02\x00\x00E\x01\x00\x00\xce\x00\x00\x00\xe4\x00\x00\x00O\x01\x00\x00j\x01\x00\x00n\x01\x00\x00\x8b\x00\x00\x00\x17\x00\x00\x00\x16\x00\x00\x00?\x00\x00\x00g\x00\x00\x00\xf0\x01\x00\x00A\x01\x00\x00\x8d\x01\x00\x00-\x01\x00\x00"\x00\x00\x00R\x02\x00\x00\xed\x01\x00\x00\x9e\x01\x00\x00\xc9\x01\x00\x00t\x00\x00\x00;\x02\x00\x00\xe6\x00\x00\x00\xaa\x01\x00\x00c\x00\x00\x004\x00\x00\x009\x01\x00\x00L\x00\x00\x00\x9f\x00\x00\x00$\x01\x00\x008\x00\x00\x00\x85\x01\x00\x00>\x00\x00\x00\x1e\x02\x00\x00\x87\x01\x00\x00\xf8\x00\x00\x00\x1a\x02\x00\x00\xe7\x01\x00\x00'
tbsg73
I01
sg74
I1
sg75
I-1
sg76
(lp4866
I0
aI1
aI2
aI3
aI4
aI5
aI6
aI7
aI8
aI9
aI10
aI11
aI12
aI13
aI14
aI15
aI16
aI17
aI18
aI19
aI20
aI21
aI22
aI23
aI24
aI25
aI26
aI27
aI28
aI29
aI30
aI31
aI32
aI33
aI34
aI35
aI36
aI37
aI38
aI39
aI40
aI41
aI42
aI43
aI44
aI45
aI46
aI47
aI48
aI49
aI50
aI51
aI52
aI53
aI54
aI55
aI56
aI57
aI58
aI59
aI60
aI61
aI62
aI63
aI64
aI65
aI66
aI67
aI68
aI69
aI70
aI71
aI72
aI73
aI74
aI75
aI76
aI77
aI78
aI79
aI80
aI81
aI82
aI83
aI84
aI85
aI86
aI87
aI88
aI89
aI90
aI91
aI92
aI93
aI94
aI95
aI96
aI97
aI98
aI99
aI100
aI101
aI102
aI103
aI104
aI105
aI106
aI107
aI108
aI109
aI110
aI111
aI112
aI113
aI114
aI115
aI116
aI117
aI118
aI119
aI120
aI121
aI122
aI123
aI124
aI125
aI126
aI127
aI128
aI129
aI130
aI131
aI132
aI133
aI134
aI135
aI136
aI137
aI138
aI139
aI140
aI141
aI142
aI143
aI144
aI145
aI146
aI147
aI148
aI149
aI150
aI151
aI152
aI153
aI154
aI155
aI156
aI157
aI158
aI159
aI160
aI161
aI162
aI163
aI164
aI165
aI166
aI167
aI168
aI169
aI170
aI171
aI172
aI173
aI174
aI175
aI176
aI177
aI178
aI179
aI180
aI181
aI182
aI183
aI184
aI185
aI186
aI187
aI188
aI189
aI190
aI191
aI192
aI193
aI194
aI195
aI196
aI197
aI198
aI199
aI200
aI201
aI202
aI203
aI204
aI205
aI206
aI207
aI208
aI209
aI210
aI211
aI212
aI213
aI214
aI215
aI216
aI217
aI218
aI219
aI220
aI221
aI222
aI223
aI224
aI225
aI226
aI227
aI228
aI229
aI230
aI231
aI232
aI233
aI234
aI235
aI236
aI237
aI238
aI239
aI240
aI241
aI242
aI243
aI244
aI245
aI246
aI247
aI248
aI249
aI250
aI251
aI252
aI253
aI254
aI255
aI256
aI257
aI258
aI259
aI260
aI261
aI262
aI263
aI264
aI265
aI266
aI267
aI268
aI269
aI270
aI271
aI272
aI273
aI274
aI275
aI276
aI277
aI278
aI279
aI280
aI281
aI282
aI283
aI284
aI285
aI286
aI287
aI288
aI289
aI290
aI291
aI292
aI293
aI294
aI295
aI296
aI297
aI298
aI299
aI300
aI301
aI302
aI303
aI304
aI305
aI306
aI307
aI308
aI309
aI310
aI311
aI312
aI313
aI314
aI315
aI316
aI317
aI318
aI319
aI320
aI321
aI322
aI323
aI324
aI325
aI326
aI327
aI328
aI329
aI330
aI331
aI332
aI333
aI334
aI335
aI336
aI337
aI338
aI339
aI340
aI341
aI342
aI343
aI344
aI345
aI346
aI347
aI348
aI349
aI350
aI351
aI352
aI353
aI354
aI355
aI356
aI357
aI358
aI359
aI360
aI361
aI362
aI363
aI364
aI365
aI366
aI367
aI368
aI369
aI370
aI371
aI372
aI373
aI374
aI375
aI376
aI377
aI378
aI379
aI380
aI381
aI382
aI383
aI384
aI385
aI386
aI387
aI388
aI389
aI390
aI391
aI392
aI393
aI394
aI395
aI396
aI397
aI398
aI399
aI400
aI401
aI402
aI403
aI404
aI405
aI406
aI407
aI408
aI409
aI410
aI411
aI412
aI413
aI414
aI415
aI416
aI417
aI418
aI419
aI420
aI421
aI422
aI423
aI424
aI425
aI426
aI427
aI428
aI429
aI430
aI431
aI432
aI433
aI434
aI435
aI436
aI437
aI438
aI439
aI440
aI441
aI442
aI443
aI444
aI445
aI446
aI447
aI448
aI449
aI450
aI451
aI452
aI453
aI454
aI455
aI456
aI457
aI458
aI459
aI460
aI461
aI462
aI463
aI464
aI465
aI466
aI467
aI468
aI469
aI470
aI471
aI472
aI473
aI474
aI475
aI476
aI477
aI478
aI479
aI480
aI481
aI482
aI483
aI484
aI485
aI486
aI487
aI488
aI489
aI490
aI491
aI492
aI493
aI494
aI495
aI496
aI497
aI498
aI499
aI500
aI501
aI502
aI503
aI504
aI505
aI506
aI507
aI508
aI509
aI510
aI511
aI512
aI513
aI514
aI515
aI516
aI517
aI518
aI519
aI520
aI521
aI522
aI523
aI524
aI525
aI526
aI527
aI528
aI529
aI530
aI531
aI532
aI533
aI534
aI535
aI536
aI537
aI538
aI539
aI540
aI541
aI542
aI543
aI544
aI545
aI546
aI547
aI548
aI549
aI550
aI551
aI552
aI553
aI554
aI555
aI556
aI557
aI558
aI559
aI560
aI561
aI562
aI563
aI564
aI565
aI566
aI567
aI568
aI569
aI570
aI571
aI572
aI573
aI574
aI575
aI576
aI577
aI578
aI579
aI580
aI581
aI582
aI583
aI584
aI585
aI586
aI587
aI588
aI589
aI590
aI591
aI592
aI593
aI594
aI595
aI596
aI597
aI598
aI599
asg78
Nsg79
cnumpy.core.multiarray
scalar
p4867
(g4865
S'\xe7\x01\x00\x00'
tRp4868
sg80
I600
sg81
I0
sg82
I600
sg83
I01
sbag36
asS'savePickle'
p4869
I00
sb.