ccopy_reg
_reconstructor
p1
(cpsychopy.data
ExperimentHandler
p2
c__builtin__
object
p3
NtRp4
(dp5
S'originPath'
p6
NsS'dataFileName'
p7
Vsubject666
p8
sS'runtimeInfo'
p9
NsS'name'
p10
VVERBALRBsubject 666
p11
sS'dataNames'
p12
(lp13
S'Block Number'
p14
aS'Key pressed'
p15
aS'Category'
p16
aS'Correct?'
p17
aS'Int Match?'
p18
aS'Int Response'
p19
aS'Int Correct?'
p20
aS'Line Accuracy'
p21
aS'Interference Accuracy'
p22
aS'Matching Interferences'
p23
aS'New instruction shown?'
p24
aS'Buttons switched?'
p25
aS'Fast?'
p26
asS'autoLog'
p27
I01
sS'extraInfo'
p28
(dp29
S'gender'
p30
Vm
sS'age'
p31
V19
p32
ssS'loopsUnfinished'
p33
(lp34
g1
(cpsychopy.data
TrialHandler
p35
g3
NtRp36
(dp37
S'origin'
p38
NsS'thisTrial'
p39
I1
sS'_exp'
p40
I80733200
sg10
S''
sg6
S'C:\\Users\\Mike\\Desktop\\Dual2\\NEWSpatialRB.py'
p41
sS'thisRepN'
p42
I39
sg27
I01
sg28
NsS'data'
p43
g1
(cpsychopy.data
DataHandler
p44
c__builtin__
dict
p45
(dp46
S'ran'
p47
cnumpy.ma.core
_mareconstruct
p48
(cnumpy.ma.core
MaskedArray
p49
cnumpy
ndarray
p50
(I0
tp51
S'b'
tRp52
(I1
(I15
I40
tcnumpy
dtype
p53
(S'f4'
I0
I1
tRp54
(I3
S'<'
NNNI-1
I-1
I0
tbI00
S'\x00\x00\x80?\x00\x00\x80?\x00\x00\x80?\x00\x00\x80?\x00\x00\x80?\x00\x00\x80?\x00\x00\x80?\x00\x00\x80?\x00\x00\x80?\x00\x00\x80?\x00\x00\x80?\x00\x00\x80?\x00\x00\x80?\x00\x00\x80?\x00\x00\x80?\x00\x00\x80?\x00\x00\x80?\x00\x00\x80?\x00\x00\x80?\x00\x00\x80?\x00\x00\x80?\x00\x00\x80?\x00\x00\x80?\x00\x00\x80?\x00\x00\x80?\x00\x00\x80?\x00\x00\x80?\x00\x00\x80?\x00\x00\x80?\x00\x00\x80?\x00\x00\x80?\x00\x00\x80?\x00\x00\x80?\x00\x00\x80?\x00\x00\x80?\x00\x00\x80?\x00\x00\x80?\x00\x00\x80?\x00\x00\x80?\x00\x00\x80?\x00\x00\x80?\x00\x00\x80?\x00\x00\x80?\x00\x00\x80?\x00\x00\x80?\x00\x00\x80?\x00\x00\x80?\x00\x00\x80?\x00\x00\x80?\x00\x00\x80?\x00\x00\x80?\x00\x00\x80?\x00\x00\x80?\x00\x00\x80?\x00\x00\x80?\x00\x00\x80?\x00\x00\x80?\x00\x00\x80?\x00\x00\x80?\x00\x00\x80?\x00\x00\x80?\x00\x00\x80?\x00\x00\x80?\x00\x00\x80?\x00\x00\x80?\x00\x00\x80?\x00\x00\x80?\x00\x00\x80?\x00\x00\x80?\x00\x00\x80?\x00\x00\x80?\x00\x00\x80?\x00\x00\x80?\x00\x00\x80?\x00\x00\x80?\x00\x00\x80?\x00\x00\x80?\x00\x00\x80?\x00\x00\x80?\x00\x00\x80?\x00\x00\x80?\x00\x00\x80?\x00\x00\x80?\x00\x00\x80?\x00\x00\x80?\x00\x00\x80?\x00\x00\x80?\x00\x00\x80?\x00\x00\x80?\x00\x00\x80?\x00\x00\x80?\x00\x00\x80?\x00\x00\x80?\x00\x00\x80?\x00\x00\x80?\x00\x00\x80?\x00\x00\x80?\x00\x00\x80?\x00\x00\x80?\x00\x00\x80?\x00\x00\x80?\x00\x00\x80?\x00\x00\x80?\x00\x00\x80?\x00\x00\x80?\x00\x00\x80?\x00\x00\x80?\x00\x00\x80?\x00\x00\x80?\x00\x00\x80?\x00\x00\x80?\x00\x00\x80?\x00\x00\x80?\x00\x00\x80?\x00\x00\x80?\x00\x00\x80?\x00\x00\x80?\x00\x00\x80?\x00\x00\x80?\x00\x00\x80?\x00\x00\x80?\x00\x00\x80?\x00\x00\x80?\x00\x00\x80?\x00\x00\x80?\x00\x00\x80?\x00\x00\x80?\x00\x00\x80?\x00\x00\x80?\x00\x00\x80?\x00\x00\x80?\x00\x00\x80?\x00\x00\x80?\x00\x00\x80?\x00\x00\x80?\x00\x00\x80?\x00\x00\x80?\x00\x00\x80?\x00\x00\x80?\x00\x00\x80?\x00\x00\x80?\x00\x00\x80?\x00\x00\x80?\x00\x00\x80?\x00\x00\x80?\x00\x00\x80?\x00\x00\x80?\x00\x00\x80?\x00\x00\x80?\x00\x00\x80?\x00\x00\x80?\x00\x00\x80?\x00\x00\x80?\x00\x00\x80?\x00\x00\x80?\x00\x00\x80?\x00\x00\x80?\x00\x00\x80?\x00\x00\x80?\x00\x00\x80?\x00\x00\x80?\x00\x00\x80?\x00\x00\x80?\x00\x00\x80?\x00\x00\x80?\x00\x00\x80?\x00\x00\x80?\x00\x00\x80?\x00\x00\x80?\x00\x00\x80?\x00\x00\x80?\x00\x00\x80?\x00\x00\x80?\x00\x00\x80?\x00\x00\x80?\x00\x00\x80?\x00\x00\x80?\x00\x00\x80?\x00\x00\x80?\x00\x00\x80?\x00\x00\x80?\x00\x00\x80?\x00\x00\x80?\x00\x00\x80?\x00\x00\x80?\x00\x00\x80?\x00\x00\x80?\x00\x00\x80?\x00\x00\x80?\x00\x00\x80?\x00\x00\x80?\x00\x00\x80?\x00\x00\x80?\x00\x00\x80?\x00\x00\x80?\x00\x00\x80?\x00\x00\x80?\x00\x00\x80?\x00\x00\x80?\x00\x00\x80?\x00\x00\x80?\x00\x00\x80?\x00\x00\x80?\x00\x00\x80?\x00\x00\x80?\x00\x00\x80?\x00\x00\x80?\x00\x00\x80?\x00\x00\x80?\x00\x00\x80?\x00\x00\x80?\x00\x00\x80?\x00\x00\x80?\x00\x00\x80?\x00\x00\x80?\x00\x00\x80?\x00\x00\x80?\x00\x00\x80?\x00\x00\x80?\x00\x00\x80?\x00\x00\x80?\x00\x00\x80?\x00\x00\x80?\x00\x00\x80?\x00\x00\x80?\x00\x00\x80?\x00\x00\x80?\x00\x00\x80?\x00\x00\x80?\x00\x00\x80?\x00\x00\x80?\x00\x00\x80?\x00\x00\x80?\x00\x00\x80?\x00\x00\x80?\x00\x00\x80?\x00\x00\x80?\x00\x00\x80?\x00\x00\x80?\x00\x00\x80?\x00\x00\x80?\x00\x00\x80?\x00\x00\x80?\x00\x00\x80?\x00\x00\x80?\x00\x00\x80?\x00\x00\x80?\x00\x00\x80?\x00\x00\x80?\x00\x00\x80?\x00\x00\x80?\x00\x00\x80?\x00\x00\x80?\x00\x00\x80?\x00\x00\x80?\x00\x00\x80?\x00\x00\x80?\x00\x00\x80?\x00\x00\x80?\x00\x00\x80?\x00\x00\x80?\x00\x00\x80?\x00\x00\x80?\x00\x00\x80?\x00\x00\x80?\x00\x00\x80?\x00\x00\x80?\x00\x00\x80?\x00\x00\x80?\x00\x00\x80?\x00\x00\x80?\x00\x00\x80?\x00\x00\x80?\x00\x00\x80?\x00\x00\x80?\x00\x00\x80?\x00\x00\x80?\x00\x00\x80?\x00\x00\x80?\x00\x00\x80?\x00\x00\x80?\x00\x00\x80?\x00\x00\x80?\x00\x00\x80?\x00\x00\x80?\x00\x00\x80?\x00\x00\x80?\x00\x00\x80?\x00\x00\x80?\x00\x00\x80?\x00\x00\x80?\x00\x00\x80?\x00\x00\x80?\x00\x00\x80?\x00\x00\x80?\x00\x00\x80?\x00\x00\x80?\x00\x00\x80?\x00\x00\x80?\x00\x00\x80?\x00\x00\x80?\x00\x00\x80?\x00\x00\x80?\x00\x00\x80?\x00\x00\x80?\x00\x00\x80?\x00\x00\x80?\x00\x00\x80?\x00\x00\x80?\x00\x00\x80?\x00\x00\x80?\x00\x00\x80?\x00\x00\x80?\x00\x00\x80?\x00\x00\x80?\x00\x00\x80?\x00\x00\x80?\x00\x00\x80?\x00\x00\x80?\x00\x00\x80?\x00\x00\x80?\x00\x00\x80?\x00\x00\x80?\x00\x00\x80?\x00\x00\x80?\x00\x00\x80?\x00\x00\x80?\x00\x00\x80?\x00\x00\x80?\x00\x00\x80?\x00\x00\x80?\x00\x00\x80?\x00\x00\x80?\x00\x00\x80?\x00\x00\x80?\x00\x00\x80?\x00\x00\x80?\x00\x00\x80?\x00\x00\x80?\x00\x00\x80?\x00\x00\x80?\x00\x00\x80?\x00\x00\x80?\x00\x00\x80?\x00\x00\x80?\x00\x00\x80?\x00\x00\x80?\x00\x00\x80?\x00\x00\x80?\x00\x00\x80?\x00\x00\x80?\x00\x00\x80?\x00\x00\x80?\x00\x00\x80?\x00\x00\x80?\x00\x00\x80?\x00\x00\x80?\x00\x00\x80?\x00\x00\x80?\x00\x00\x80?\x00\x00\x80?\x00\x00\x80?\x00\x00\x80?\x00\x00\x80?\x00\x00\x80?\x00\x00\x80?\x00\x00\x80?\x00\x00\x80?\x00\x00\x80?\x00\x00\x80?\x00\x00\x80?\x00\x00\x80?\x00\x00\x80?\x00\x00\x80?\x00\x00\x80?\x00\x00\x80?\x00\x00\x80?\x00\x00\x80?\x00\x00\x80?\x00\x00\x80?\x00\x00\x80?\x00\x00\x80?\x00\x00\x80?\x00\x00\x80?\x00\x00\x80?\x00\x00\x80?\x00\x00\x80?\x00\x00\x80?\x00\x00\x80?\x00\x00\x80?\x00\x00\x80?\x00\x00\x80?\x00\x00\x80?\x00\x00\x80?\x00\x00\x80?\x00\x00\x80?\x00\x00\x80?\x00\x00\x80?\x00\x00\x80?\x00\x00\x80?\x00\x00\x80?\x00\x00\x80?\x00\x00\x80?\x00\x00\x80?\x00\x00\x80?\x00\x00\x80?\x00\x00\x80?\x00\x00\x80?\x00\x00\x80?\x00\x00\x80?\x00\x00\x80?\x00\x00\x80?\x00\x00\x80?\x00\x00\x80?\x00\x00\x80?\x00\x00\x80?\x00\x00\x80?\x00\x00\x80?\x00\x00\x80?\x00\x00\x80?\x00\x00\x80?\x00\x00\x80?\x00\x00\x80?\x00\x00\x80?\x00\x00\x80?\x00\x00\x80?\x00\x00\x80?\x00\x00\x80?\x00\x00\x80?\x00\x00\x80?\x00\x00\x80?\x00\x00\x80?\x00\x00\x80?\x00\x00\x80?\x00\x00\x80?\x00\x00\x80?\x00\x00\x80?\x00\x00\x80?\x00\x00\x80?\x00\x00\x80?\x00\x00\x80?\x00\x00\x80?\x00\x00\x80?\x00\x00\x80?\x00\x00\x80?\x00\x00\x80?\x00\x00\x80?\x00\x00\x80?\x00\x00\x80?\x00\x00\x80?\x00\x00\x80?\x00\x00\x80?\x00\x00\x80?\x00\x00\x80?\x00\x00\x80?\x00\x00\x80?\x00\x00\x80?\x00\x00\x80?\x00\x00\x80?\x00\x00\x80?\x00\x00\x80?\x00\x00\x80?\x00\x00\x80?\x00\x00\x80?\x00\x00\x80?\x00\x00\x80?\x00\x00\x80?\x00\x00\x80?\x00\x00\x80?\x00\x00\x80?\x00\x00\x80?\x00\x00\x80?\x00\x00\x80?\x00\x00\x80?\x00\x00\x80?\x00\x00\x80?\x00\x00\x80?\x00\x00\x80?\x00\x00\x80?\x00\x00\x80?\x00\x00\x80?\x00\x00\x80?\x00\x00\x80?\x00\x00\x80?\x00\x00\x80?\x00\x00\x80?\x00\x00\x80?\x00\x00\x80?\x00\x00\x80?\x00\x00\x80?\x00\x00\x80?\x00\x00\x80?\x00\x00\x80?\x00\x00\x80?\x00\x00\x80?\x00\x00\x80?\x00\x00\x80?\x00\x00\x80?\x00\x00\x80?\x00\x00\x80?\x00\x00\x80?\x00\x00\x80?\x00\x00\x80?\x00\x00\x80?\x00\x00\x80?\x00\x00\x80?\x00\x00\x80?\x00\x00\x80?\x00\x00\x80?\x00\x00\x80?\x00\x00\x80?\x00\x00\x80?\x00\x00\x80?\x00\x00\x80?\x00\x00\x80?\x00\x00\x80?\x00\x00\x80?\x00\x00\x80?\x00\x00\x80?\x00\x00\x80?\x00\x00\x80?\x00\x00\x80?\x00\x00\x80?\x00\x00\x80?\x00\x00\x80?\x00\x00\x80?\x00\x00\x80?\x00\x00\x80?\x00\x00\x80?\x00\x00\x80?\x00\x00\x80?\x00\x00\x80?\x00\x00\x80?\x00\x00\x80?\x00\x00\x80?\x00\x00\x80?\x00\x00\x80?\x00\x00\x80?\x00\x00\x80?\x00\x00\x80?\x00\x00\x80?\x00\x00\x80?\x00\x00\x80?\x00\x00\x80?\x00\x00\x80?\x00\x00\x80?\x00\x00\x80?\x00\x00\x80?\x00\x00\x80?\x00\x00\x80?\x00\x00\x80?\x00\x00\x80?\x00\x00\x80?\x00\x00\x80?\x00\x00\x80?\x00\x00\x80?\x00\x00\x80?\x00\x00\x80?\x00\x00\x80?\x00\x00\x80?\x00\x00\x80?\x00\x00\x80?\x00\x00\x80?\x00\x00\x80?\x00\x00\x80?\x00\x00\x80?\x00\x00\x80?\x00\x00\x80?\x00\x00\x80?\x00\x00\x80?\x00\x00\x80?\x00\x00\x80?\x00\x00\x80?\x00\x00\x80?\x00\x00\x80?\x00\x00\x80?\x00\x00\x80?\x00\x00\x80?\x00\x00\x80?\x00\x00\x80?\x00\x00\x80?\x00\x00\x80?\x00\x00\x80?\x00\x00\x80?\x00\x00\x80?\x00\x00\x80?\x00\x00\x80?\x00\x00\x80?\x00\x00\x80?\x00\x00\x80?\x00\x00\x80?\x00\x00\x80?\x00\x00\x80?\x00\x00\x80?\x00\x00\x80?\x00\x00\x80?\x00\x00\x80?\x00\x00\x80?\x00\x00\x80?\x00\x00\x80?'
S'\x00\x00\x00\x00\x00\x00\x00\x00\x00\x00\x00\x00\x00\x00\x00\x00\x00\x00\x00\x00\x00\x00\x00\x00\x00\x00\x00\x00\x00\x00\x00\x00\x00\x00\x00\x00\x00\x00\x00\x00\x00\x00\x00\x00\x00\x00\x00\x00\x00\x00\x00\x00\x00\x00\x00\x00\x00\x00\x00\x00\x00\x00\x00\x00\x00\x00\x00\x00\x00\x00\x00\x00\x00\x00\x00\x00\x00\x00\x00\x00\x00\x00\x00\x00\x00\x00\x00\x00\x00\x00\x00\x00\x00\x00\x00\x00\x00\x00\x00\x00\x00\x00\x00\x00\x00\x00\x00\x00\x00\x00\x00\x00\x00\x00\x00\x00\x00\x00\x00\x00\x00\x00\x00\x00\x00\x00\x00\x00\x00\x00\x00\x00\x00\x00\x00\x00\x00\x00\x00\x00\x00\x00\x00\x00\x00\x00\x00\x00\x00\x00\x00\x00\x00\x00\x00\x00\x00\x00\x00\x00\x00\x00\x00\x00\x00\x00\x00\x00\x00\x00\x00\x00\x00\x00\x00\x00\x00\x00\x00\x00\x00\x00\x00\x00\x00\x00\x00\x00\x00\x00\x00\x00\x00\x00\x00\x00\x00\x00\x00\x00\x00\x00\x00\x00\x00\x00\x00\x00\x00\x00\x00\x00\x00\x00\x00\x00\x00\x00\x00\x00\x00\x00\x00\x00\x00\x00\x00\x00\x00\x00\x00\x00\x00\x00\x00\x00\x00\x00\x00\x00\x00\x00\x00\x00\x00\x00\x00\x00\x00\x00\x00\x00\x00\x00\x00\x00\x00\x00\x00\x00\x00\x00\x00\x00\x00\x00\x00\x00\x00\x00\x00\x00\x00\x00\x00\x00\x00\x00\x00\x00\x00\x00\x00\x00\x00\x00\x00\x00\x00\x00\x00\x00\x00\x00\x00\x00\x00\x00\x00\x00\x00\x00\x00\x00\x00\x00\x00\x00\x00\x00\x00\x00\x00\x00\x00\x00\x00\x00\x00\x00\x00\x00\x00\x00\x00\x00\x00\x00\x00\x00\x00\x00\x00\x00\x00\x00\x00\x00\x00\x00\x00\x00\x00\x00\x00\x00\x00\x00\x00\x00\x00\x00\x00\x00\x00\x00\x00\x00\x00\x00\x00\x00\x00\x00\x00\x00\x00\x00\x00\x00\x00\x00\x00\x00\x00\x00\x00\x00\x00\x00\x00\x00\x00\x00\x00\x00\x00\x00\x00\x00\x00\x00\x00\x00\x00\x00\x00\x00\x00\x00\x00\x00\x00\x00\x00\x00\x00\x00\x00\x00\x00\x00\x00\x00\x00\x00\x00\x00\x00\x00\x00\x00\x00\x00\x00\x00\x00\x00\x00\x00\x00\x00\x00\x00\x00\x00\x00\x00\x00\x00\x00\x00\x00\x00\x00\x00\x00\x00\x00\x00\x00\x00\x00\x00\x00\x00\x00\x00\x00\x00\x00\x00\x00\x00\x00\x00\x00\x00\x00\x00\x00\x00\x00\x00\x00\x00\x00\x00\x00\x00\x00\x00\x00\x00\x00\x00\x00\x00\x00\x00\x00\x00\x00\x00\x00\x00\x00\x00\x00\x00\x00\x00\x00\x00\x00\x00\x00\x00\x00\x00\x00\x00\x00\x00\x00\x00\x00\x00\x00\x00\x00\x00\x00\x00\x00\x00\x00\x00\x00\x00\x00\x00\x00\x00\x00\x00\x00\x00\x00\x00\x00\x00\x00\x00\x00\x00\x00\x00\x00\x00\x00\x00\x00\x00\x00\x00\x00\x00\x00\x00\x00\x00\x00\x00\x00\x00\x00\x00\x00\x00\x00\x00\x00\x00\x00\x00\x00\x00\x00\x00\x00\x00\x00\x00\x00\x00\x00\x00\x00\x00\x00\x00\x00\x00\x00\x00\x00\x00\x00\x00'
NtbsS'order'
p55
g48
(g49
g50
g51
S'b'
tRp56
(I1
(I15
I40
tg54
I00
S'\x00\x00\x10A\x00\x00`A\x00\x00HB\x00\x00\xb6B\x00\x00\x01C\x00\x00\x1dC\x00\x00$C\x00\x00%C\x00\x00\'C\x00\x006C\x00\x00JC\x00\x00YC\x00\x00eC\x00\x00vC\x00\x00\x82C\x00\x00\x8fC\x00\x00\x9bC\x00\x00\x9dC\x00\x80\xa0C\x00\x00\xa4C\x00\x00\xa8C\x00\x80\xb3C\x00\x00\xb9C\x00\x80\xbbC\x00\x00\xc4C\x00\x00\xc5C\x00\x00\xc6C\x00\x80\xc6C\x00\x00\xcfC\x00\x80\xd3C\x00\x00\xd6C\x00\x00\xdaC\x00\x00\xe2C\x00\x80\xe3C\x00\x00\xf6C\x00\x80\xfeC\x00@\x03D\x00\x00\x0eD\x00\x00\x11D\x00\x00\x13D\x00\x00\x80A\x00\x00 B\x00\x00\xc4B\x00\x00\xc8B\x00\x00\xcaB\x00\x00\xd0B\x00\x00\xd6B\x00\x00\xecB\x00\x00\x02C\x00\x00\x0fC\x00\x00\x13C\x00\x00\x1bC\x00\x00!C\x00\x00*C\x00\x00-C\x00\x002C\x00\x003C\x00\x00DC\x00\x00aC\x00\x00jC\x00\x00lC\x00\x00~C\x00\x80\x81C\x00\x00\x92C\x00\x80\x99C\x00\x00\x9cC\x00\x00\xb0C\x00\x80\xbcC\x00\x80\xbfC\x00\x00\xc0C\x00\x80\xc4C\x00\x00\xcbC\x00\x00\xd8C\x00\x00\xdeC\x00\x80\xeeC\x00\x00\xf8C\x00\x80\xfdC\x00@\x00D\x00@\x0fD\x00\xc0\x15D\x00\x00\xa0A\x00\x00$B\x00\x008B\x00\x00<B\x00\x00PB\x00\x00\x84B\x00\x00\x92B\x00\x00\xeaB\x00\x00\x00C\x00\x00\x10C\x00\x00,C\x00\x00;C\x00\x00KC\x00\x00VC\x00\x00]C\x00\x00iC\x00\x00nC\x00\x00oC\x00\x00sC\x00\x00}C\x00\x00\x83C\x00\x80\x8dC\x00\x00\x90C\x00\x80\x90C\x00\x80\x94C\x00\x00\xa2C\x00\x80\xa3C\x00\x00\xaaC\x00\x80\xc2C\x00\x80\xc7C\x00\x00\xc9C\x00\x00\xdbC\x00\x80\xe4C\x00\x00\xe6C\x00\x00\xf2C\x00\x80\xf5C\x00@\nD\x00\x80\x0fD\x00\xc0\x0fD\x00\x00\x10D\x00\x00\xe8A\x00\x00\x08B\x00\x00`B\x00\x00\x80B\x00\x00\x8aB\x00\x00\x8eB\x00\x00\x94B\x00\x00\xfeB\x00\x00\x0cC\x00\x00\x11C\x00\x00BC\x00\x00MC\x00\x00NC\x00\x00SC\x00\x00WC\x00\x00\x80C\x00\x00\x8dC\x00\x00\x8eC\x00\x80\x92C\x00\x00\x98C\x00\x80\x9aC\x00\x80\x9fC\x00\x00\xa5C\x00\x80\xb1C\x00\x80\xb2C\x00\x00\xb6C\x00\x80\xc9C\x00\x00\xe4C\x00\x80\xe5C\x00\x00\xe9C\x00\x80\xebC\x00\x80\xf0C\x00\x00\xf9C\x00\x80\xf9C\x00\x80\x07D\x00\x80\x08D\x00\xc0\nD\x00\x00\x0bD\x00@\x10D\x00\x00\x14D\x00\x00@A\x00\x00lB\x00\x00\xbeB\x00\x00\xe2B\x00\x00\xfaB\x00\x00\tC\x00\x00\x0eC\x00\x00`C\x00\x00cC\x00\x00kC\x00\x00wC\x00\x00{C\x00\x80\x8bC\x00\x80\xa1C\x00\x80\xa9C\x00\x80\xb0C\x00\x80\xb7C\x00\x80\xb8C\x00\x00\xc1C\x00\x00\xccC\x00\x80\xd0C\x00\x00\xd2C\x00\x80\xddC\x00\x00\xdfC\x00\x00\xe0C\x00\x80\xe1C\x00\x80\xe7C\x00\x00\xf0C\x00\x80\xf1C\x00\x80\xf4C\x00\x80\xfcC\x00@\x05D\x00\x80\x06D\x00\x00\x07D\x00@\x08D\x00\x80\x0bD\x00\xc0\x0cD\x00@\rD\x00\x00\x12D\x00@\x12D\x00\x00@@\x00\x00\x90A\x00\x00\xd8A\x00\x00XB\x00\x00\xa0B\x00\x00\xa2B\x00\x00\xe6B\x00\x00\xf4B\x00\x00\x04C\x00\x00\x18C\x00\x00\x19C\x00\x00"C\x00\x00UC\x00\x00fC\x00\x00\x8aC\x00\x00\xa3C\x00\x80\xa4C\x00\x80\xa6C\x00\x00\xb3C\x00\x00\xb5C\x00\x80\xb6C\x00\x00\xb7C\x00\x00\xbbC\x00\x00\xbdC\x00\x80\xcfC\x00\x80\xd2C\x00\x00\xd5C\x00\x80\xdeC\x00\x80\xe2C\x00\x80\xe9C\x00\x00\xf4C\x00\x80\xf7C\x00\x80\xfaC\x00\x80\xffC\x00\x00\x04D\x00\xc0\x08D\x00\xc0\rD\x00\x80\x0eD\x00\xc0\x12D\x00\xc0\x13D\x00\x00 A\x00\x00\xb8A\x00\x00\x04B\x00\x00\x18B\x00\x00,B\x00\x00hB\x00\x00tB\x00\x00\xacB\x00\x00\x06C\x00\x00\rC\x00\x004C\x00\x005C\x00\x008C\x00\x00:C\x00\x00<C\x00\x00AC\x00\x00CC\x00\x00IC\x00\x00LC\x00\x00TC\x00\x00^C\x00\x00gC\x00\x00tC\x00\x00uC\x00\x80\x91C\x00\x80\x9bC\x00\x80\xaeC\x00\x80\xcdC\x00\x80\xceC\x00\x80\xd1C\x00\x80\xdbC\x00\x80\xdfC\x00\x00\xe8C\x00\x80\xf2C\x00\x00\xfdC\x00\xc0\x06D\x00\x80\nD\x00\xc0\x0bD\x00\x80\x11D\x00\x00\x15D\x00\x00\x80@\x00\x00(B\x00\x00\x96B\x00\x00\x9eB\x00\x00\xa4B\x00\x00\x05C\x00\x00\nC\x00\x00&C\x00\x00OC\x00\x00XC\x00\x00mC\x00\x00rC\x00\x00xC\x00\x00|C\x00\x00\x81C\x00\x80\x86C\x00\x80\x89C\x00\x80\x8fC\x00\x00\x93C\x00\x80\xa7C\x00\x00\xacC\x00\x80\xb4C\x00\x00\xb8C\x00\x80\xbeC\x00\x80\xc0C\x00\x80\xccC\x00\x00\xcdC\x00\x80\xd4C\x00\x80\xd8C\x00\x00\xecC\x00\x80\xefC\x00\x00\xf1C\x00\x80\xf6C\x00\xc0\x02D\x00\x80\x04D\x00\x80\x05D\x00\x00\x06D\x00@\x0cD\x00\x00\rD\x00\x80\x10D\x00\x00\x00@\x00\x00\x00A\x00\x00\xb0A\x00\x00\xf0A\x00\x00pB\x00\x00\x88B\x00\x00\xc2B\x00\x00\xdaB\x00\x00\xe4B\x00\x00\x03C\x00\x00\x07C\x00\x00\x1eC\x00\x00.C\x00\x00EC\x00\x00GC\x00\x00QC\x00\x00RC\x00\x00pC\x00\x00zC\x00\x80\x95C\x00\x80\x98C\x00\x00\x9eC\x00\x80\x9eC\x00\x00\xa6C\x00\x80\xaaC\x00\x80\xbdC\x00\x00\xbeC\x00\x80\xc3C\x00\x00\xcaC\x00\x80\xcaC\x00\x00\xceC\x00\x00\xd9C\x00\x80\xecC\x00\x80\xedC\x00\x00\xf7C\x00\x00\xfcC\x00@\x01D\x00@\x04D\x00@\x11D\x00\xc0\x14D\x00\x00\xc8A\x00\x00\x00B\x00\x00DB\x00\x00dB\x00\x00\x86B\x00\x00\x90B\x00\x00\x9cB\x00\x00\xceB\x00\x00\xd4B\x00\x00\xdcB\x00\x00\x14C\x00\x00\x1fC\x00\x00FC\x00\x00PC\x00\x00\\C\x00\x80\x83C\x00\x80\x84C\x00\x80\x87C\x00\x80\x8eC\x00\x00\x95C\x00\x80\x97C\x00\x00\x9fC\x00\x80\xa2C\x00\x00\xaeC\x00\x00\xafC\x00\x80\xb5C\x00\x00\xbcC\x00\x80\xc1C\x00\x80\xe0C\x00\x00\xe7C\x00\x00\xedC\x00\x00\xeeC\x00\x00\xefC\x00\x00\xf5C\x00\x00\x00D\x00\xc0\x00D\x00\x00\x01D\x00@\tD\x00\x80\tD\x00\xc0\x10D\x00\x00\xe0@\x00\x000A\x00\x00\xe0A\x00\x00\xf8A\x00\x000B\x00\x00\x8cB\x00\x00\xb2B\x00\x00\xf6B\x00\x00\xf8B\x00\x00\x0bC\x00\x00\x1cC\x00\x00+C\x00\x007C\x00\x00@C\x00\x00bC\x00\x00\x86C\x00\x80\x88C\x00\x00\x8bC\x00\x80\x96C\x00\x00\xa0C\x00\x80\xa8C\x00\x80\xc5C\x00\x00\xc7C\x00\x00\xc8C\x00\x80\xc8C\x00\x00\xd4C\x00\x80\xd6C\x00\x00\xdcC\x00\x00\xddC\x00\x80\xe6C\x00\x00\xebC\x00\x80\xf8C\x00\x00\xfbC\x00\x80\x00D\x00\x80\x01D\x00@\x07D\x00\x80\rD\x00@\x0eD\x00\xc0\x0eD\x00\xc0\x11D\x00\x00\x00\x00\x00\x00\x80?\x00\x00pA\x00\x00\x88A\x00\x00\xd0A\x00\x00\x1cB\x00\x00TB\x00\x00\\B\x00\x00\xa6B\x00\x00\xb8B\x00\x00\xe0B\x00\x00ZC\x00\x00[C\x00\x00hC\x00\x00qC\x00\x00\x87C\x00\x00\x89C\x00\x00\x91C\x00\x80\x9cC\x00\x00\xa9C\x00\x00\xb1C\x00\x00\xb2C\x00\x00\xbfC\x00\x00\xc2C\x00\x00\xd0C\x00\x00\xd1C\x00\x80\xdaC\x00\x00\xe3C\x00\x80\xf3C\x00\x80\x02D\x00\x00\x03D\x00\xc0\x03D\x00\xc0\x04D\x00\x00\x05D\x00\x00\x08D\x00\x00\tD\x00\xc0\tD\x00\x80\x0cD\x00\x00\x0fD\x00@\x15D\x00\x00\x14B\x00\x00@B\x00\x00LB\x00\x00|B\x00\x00\x98B\x00\x00\x9aB\x00\x00\xa8B\x00\x00\xc0B\x00\x00\xc6B\x00\x00\xdeB\x00\x00\xfcB\x00\x00\x15C\x00\x00\x1aC\x00\x00)C\x00\x000C\x00\x00=C\x00\x00>C\x00\x80\x80C\x00\x00\x84C\x00\x80\x8aC\x00\x00\x94C\x00\x00\xa1C\x00\x80\xabC\x00\x80\xacC\x00\x00\xadC\x00\x00\xbaC\x00\x00\xd3C\x00\x80\xd7C\x00\x80\xd9C\x00\x80\xdcC\x00\x80\xe8C\x00\x00\xeaC\x00\x80\xeaC\x00\xc0\x01D\x00\x80\x03D\x00\xc0\x05D\x00@\x06D\x00\xc0\x07D\x00@\x13D\x00\x80\x15D\x00\x00\xa8A\x00\x00\x0cB\x00\x00\x10B\x00\x00xB\x00\x00\xb0B\x00\x00\xb4B\x00\x00\xccB\x00\x00\xd2B\x00\x00\xe8B\x00\x00\xeeB\x00\x00\xf0B\x00\x00\xf2B\x00\x00\x12C\x00\x00\x16C\x00\x00 C\x00\x00(C\x00\x001C\x00\x00?C\x00\x00\x7fC\x00\x80\x85C\x00\x00\x88C\x00\x00\x8cC\x00\x80\x8cC\x00\x80\x93C\x00\x00\x99C\x00\x00\x9aC\x00\x80\x9dC\x00\x00\xabC\x00\x80\xafC\x00\x00\xb4C\x00\x80\xcbC\x00\x00\xd7C\x00\x00\xe1C\x00\x00\xfaC\x00\x80\xfbC\x00\x00\xffC\x00@\x02D\x00\x00\x0cD\x00@\x14D\x00\x80\x14D\x00\x00\xa0@\x00\x00\xc0@\x00\x00PA\x00\x00\x98A\x00\x00\xc0A\x00\x004B\x00\x00\x82B\x00\x00\xaaB\x00\x00\xaeB\x00\x00\xbaB\x00\x00\xbcB\x00\x00\xd8B\x00\x00\x08C\x00\x00\x17C\x00\x00#C\x00\x00/C\x00\x009C\x00\x00HC\x00\x00_C\x00\x00dC\x00\x00yC\x00\x80\x82C\x00\x00\x85C\x00\x00\x96C\x00\x00\x97C\x00\x80\xa5C\x00\x00\xa7C\x00\x80\xadC\x00\x80\xb9C\x00\x80\xbaC\x00\x00\xc3C\x00\x80\xd5C\x00\x00\xe5C\x00\x00\xf3C\x00\x00\xfeC\x00\x00\x02D\x00\x00\nD\x00@\x0bD\x00\x80\x12D\x00\x80\x13D'
S'\x00\x00\x00\x00\x00\x00\x00\x00\x00\x00\x00\x00\x00\x00\x00\x00\x00\x00\x00\x00\x00\x00\x00\x00\x00\x00\x00\x00\x00\x00\x00\x00\x00\x00\x00\x00\x00\x00\x00\x00\x00\x00\x00\x00\x00\x00\x00\x00\x00\x00\x00\x00\x00\x00\x00\x00\x00\x00\x00\x00\x00\x00\x00\x00\x00\x00\x00\x00\x00\x00\x00\x00\x00\x00\x00\x00\x00\x00\x00\x00\x00\x00\x00\x00\x00\x00\x00\x00\x00\x00\x00\x00\x00\x00\x00\x00\x00\x00\x00\x00\x00\x00\x00\x00\x00\x00\x00\x00\x00\x00\x00\x00\x00\x00\x00\x00\x00\x00\x00\x00\x00\x00\x00\x00\x00\x00\x00\x00\x00\x00\x00\x00\x00\x00\x00\x00\x00\x00\x00\x00\x00\x00\x00\x00\x00\x00\x00\x00\x00\x00\x00\x00\x00\x00\x00\x00\x00\x00\x00\x00\x00\x00\x00\x00\x00\x00\x00\x00\x00\x00\x00\x00\x00\x00\x00\x00\x00\x00\x00\x00\x00\x00\x00\x00\x00\x00\x00\x00\x00\x00\x00\x00\x00\x00\x00\x00\x00\x00\x00\x00\x00\x00\x00\x00\x00\x00\x00\x00\x00\x00\x00\x00\x00\x00\x00\x00\x00\x00\x00\x00\x00\x00\x00\x00\x00\x00\x00\x00\x00\x00\x00\x00\x00\x00\x00\x00\x00\x00\x00\x00\x00\x00\x00\x00\x00\x00\x00\x00\x00\x00\x00\x00\x00\x00\x00\x00\x00\x00\x00\x00\x00\x00\x00\x00\x00\x00\x00\x00\x00\x00\x00\x00\x00\x00\x00\x00\x00\x00\x00\x00\x00\x00\x00\x00\x00\x00\x00\x00\x00\x00\x00\x00\x00\x00\x00\x00\x00\x00\x00\x00\x00\x00\x00\x00\x00\x00\x00\x00\x00\x00\x00\x00\x00\x00\x00\x00\x00\x00\x00\x00\x00\x00\x00\x00\x00\x00\x00\x00\x00\x00\x00\x00\x00\x00\x00\x00\x00\x00\x00\x00\x00\x00\x00\x00\x00\x00\x00\x00\x00\x00\x00\x00\x00\x00\x00\x00\x00\x00\x00\x00\x00\x00\x00\x00\x00\x00\x00\x00\x00\x00\x00\x00\x00\x00\x00\x00\x00\x00\x00\x00\x00\x00\x00\x00\x00\x00\x00\x00\x00\x00\x00\x00\x00\x00\x00\x00\x00\x00\x00\x00\x00\x00\x00\x00\x00\x00\x00\x00\x00\x00\x00\x00\x00\x00\x00\x00\x00\x00\x00\x00\x00\x00\x00\x00\x00\x00\x00\x00\x00\x00\x00\x00\x00\x00\x00\x00\x00\x00\x00\x00\x00\x00\x00\x00\x00\x00\x00\x00\x00\x00\x00\x00\x00\x00\x00\x00\x00\x00\x00\x00\x00\x00\x00\x00\x00\x00\x00\x00\x00\x00\x00\x00\x00\x00\x00\x00\x00\x00\x00\x00\x00\x00\x00\x00\x00\x00\x00\x00\x00\x00\x00\x00\x00\x00\x00\x00\x00\x00\x00\x00\x00\x00\x00\x00\x00\x00\x00\x00\x00\x00\x00\x00\x00\x00\x00\x00\x00\x00\x00\x00\x00\x00\x00\x00\x00\x00\x00\x00\x00\x00\x00\x00\x00\x00\x00\x00\x00\x00\x00\x00\x00\x00\x00\x00\x00\x00\x00\x00\x00\x00\x00\x00\x00\x00\x00\x00\x00\x00\x00\x00\x00\x00\x00\x00\x00\x00\x00\x00\x00\x00\x00\x00\x00\x00\x00\x00\x00\x00\x00\x00\x00\x00\x00\x00\x00\x00\x00\x00\x00\x00\x00\x00\x00\x00\x00\x00\x00\x00\x00\x00'
NtbstRp57
(dp58
S'isNumeric'
p59
(dp60
g47
I01
sg55
I01
ssS'trials'
p61
g36
sS'dataTypes'
p62
(lp63
g47
ag55
asS'dataShape'
p64
(lp65
I15
aI40
asbsS'method'
p66
S'fullRandom'
p67
sS'sequenceIndices'
p68
cnumpy.core.multiarray
_reconstruct
p69
(g50
(I0
tS'b'
tRp70
(I1
(I15
I40
tg53
(S'O4'
I0
I1
tRp71
(I3
S'|'
NNNI-1
I-1
I63
tbI00
(lp72
I11
aI11
aI8
aI14
aI8
aI7
aI13
aI13
aI13
aI8
aI13
aI0
aI6
aI6
aI8
aI1
aI8
aI13
aI11
aI9
aI14
aI13
aI3
aI12
aI13
aI0
aI14
aI8
aI4
aI12
aI13
aI12
aI4
aI5
aI13
aI0
aI4
aI3
aI5
aI4
aI11
aI1
aI10
aI2
aI6
aI12
aI0
aI9
aI13
aI14
aI14
aI7
aI6
aI1
aI3
aI10
aI11
aI3
aI9
aI0
aI10
aI8
aI14
aI12
aI7
aI9
aI8
aI1
aI5
aI0
aI4
aI3
aI3
aI1
aI5
aI12
aI10
aI3
aI10
aI14
aI8
aI11
aI9
aI2
aI13
aI12
aI11
aI1
aI5
aI4
aI5
aI0
aI0
aI8
aI6
aI4
aI7
aI12
aI13
aI7
aI14
aI8
aI8
aI14
aI5
aI1
aI0
aI13
aI12
aI11
aI0
aI5
aI7
aI10
aI9
aI11
aI3
aI14
aI11
aI5
aI5
aI5
aI6
aI12
aI12
aI9
aI14
aI14
aI10
aI7
aI5
aI13
aI10
aI9
aI5
aI14
aI2
aI7
aI10
aI2
aI9
aI9
aI5
aI9
aI9
aI5
aI1
aI4
aI0
aI2
aI5
aI12
aI4
aI3
aI1
aI5
aI12
aI4
aI1
aI0
aI7
aI14
aI3
aI9
aI3
aI7
aI14
aI8
aI10
aI10
aI12
aI12
aI6
aI8
aI2
aI0
aI6
aI1
aI11
aI2
aI3
aI3
aI14
aI6
aI3
aI8
aI0
aI7
aI10
aI6
aI11
aI12
aI2
aI3
aI10
aI8
aI11
aI6
aI2
aI12
aI14
aI2
aI13
aI0
aI14
aI5
aI4
aI9
aI4
aI3
aI1
aI1
aI14
aI14
aI3
aI5
aI6
aI0
aI7
aI11
aI8
aI10
aI7
aI9
aI5
aI8
aI10
aI7
aI7
aI10
aI0
aI10
aI6
aI13
aI9
aI7
aI4
aI13
aI2
aI14
aI14
aI13
aI13
aI12
aI2
aI5
aI12
aI12
aI12
aI6
aI10
aI10
aI6
aI6
aI7
aI6
aI0
aI14
aI5
aI6
aI13
aI0
aI0
aI13
aI5
aI7
aI0
aI6
aI5
aI12
aI3
aI3
aI14
aI5
aI9
aI11
aI3
aI7
aI2
aI5
aI10
aI8
aI12
aI2
aI9
aI7
aI8
aI11
aI3
aI4
aI0
aI2
aI2
aI0
aI0
aI11
aI4
aI2
aI12
aI1
aI1
aI12
aI10
aI1
aI4
aI11
aI0
aI8
aI14
aI10
aI2
aI7
aI11
aI10
aI8
aI11
aI5
aI11
aI3
aI3
aI8
aI6
aI6
aI11
aI8
aI11
aI1
aI4
aI2
aI1
aI8
aI1
aI6
aI2
aI11
aI2
aI7
aI9
aI10
aI3
aI13
aI4
aI11
aI4
aI7
aI1
aI10
aI6
aI0
aI4
aI14
aI8
aI5
aI13
aI10
aI4
aI11
aI4
aI7
aI13
aI0
aI14
aI11
aI5
aI3
aI12
aI12
aI8
aI0
aI2
aI9
aI8
aI12
aI6
aI11
aI1
aI14
aI12
aI4
aI7
aI3
aI2
aI4
aI11
aI4
aI1
aI2
aI0
aI10
aI1
aI3
aI9
aI4
aI8
aI12
aI7
aI9
aI7
aI9
aI13
aI6
aI9
aI1
aI11
aI10
aI14
aI1
aI5
aI1
aI3
aI13
aI14
aI12
aI3
aI9
aI4
aI8
aI9
aI13
aI13
aI0
aI9
aI2
aI3
aI0
aI7
aI10
aI5
aI13
aI5
aI2
aI8
aI9
aI4
aI14
aI12
aI9
aI4
aI0
aI8
aI10
aI11
aI2
aI3
aI3
aI6
aI1
aI13
aI8
aI13
aI1
aI12
aI13
aI3
aI2
aI1
aI4
aI14
aI13
aI12
aI6
aI5
aI8
aI11
aI14
aI4
aI10
aI11
aI12
aI4
aI10
aI9
aI2
aI6
aI13
aI7
aI11
aI10
aI8
aI6
aI4
aI5
aI7
aI9
aI9
aI14
aI13
aI2
aI5
aI1
aI5
aI13
aI10
aI7
aI6
aI7
aI7
aI13
aI3
aI2
aI1
aI2
aI13
aI3
aI12
aI9
aI2
aI4
aI1
aI6
aI9
aI1
aI0
aI1
aI11
aI12
aI14
aI5
aI6
aI11
aI14
aI10
aI6
aI6
aI2
aI13
aI9
aI1
aI7
aI9
aI14
aI1
aI6
aI9
aI14
aI2
aI2
aI10
aI2
aI9
aI11
aI0
aI12
aI5
aI14
aI11
aI3
aI11
aI7
aI4
aI4
aI9
aI7
aI14
aI7
aI4
aI2
aI0
aI10
aI12
aI0
aI3
aI10
aI4
aI3
aI10
aI1
aI13
aI6
aI12
aI0
aI1
aI3
aI8
aI4
aI2
aI1
aI7
aI3
aI8
aI0
aI5
aI7
aI0
aI5
aI2
aI8
aI6
aI8
aI9
aI6
aI7
aI8
aI0
aI11
aI6
aI6
aI10
aI4
aI1
atbsS'finished'
p73
I00
sS'nReps'
p74
I40
sS'nRemaining'
p75
I0
sS'trialList'
p76
(lp77
I0
aI1
aI2
aI3
aI4
aI5
aI6
aI7
aI8
aI9
aI10
aI11
aI12
aI13
aI14
asS'seed'
p78
NsS'thisIndex'
p79
I1
sS'thisN'
p80
I599
sS'thisTrialN'
p81
I14
sS'nTotal'
p82
I600
sS'_warnUseOfNext'
p83
I01
sbasS'saveWideText'
p84
I00
sS'thisEntry'
p85
(dp86
sS'version'
p87
S''
sS'_paramNamesSoFar'
p88
(lp89
sS'entries'
p90
(lp91
(dp92
g16
(lp93
S'd'
asS'.thisTrial'
p94
I11
sS'.thisRepN'
p95
I0
sg30
Vm
sg31
g32
sS'.thisTrialN'
p96
I0
sS'.thisN'
p97
I0
sS'.thisIndex'
p98
I11
sg15
(lp99
S'd'
asg17
S'Y'
sg14
I1
sa(dp100
g16
(lp101
S'k'
asg94
I11
sS'.thisRepN'
p102
I0
sg30
Vm
sg31
g32
sS'.thisTrialN'
p103
I1
sS'.thisN'
p104
I1
sS'.thisIndex'
p105
I11
sg15
(lp106
S'd'
asg17
S'N'
sg14
I1
sa(dp107
g16
(lp108
S'k'
asg18
S'Y'
sS'.thisRepN'
p109
I0
sg20
S'N'
sg31
g32
sS'.thisTrialN'
p110
I2
sS'.thisN'
p111
I2
sS'.thisIndex'
p112
I8
sg15
(lp113
S'k'
asg30
Vm
sg17
S'Y'
sg14
I1
sg19
Nsg94
I8
sa(dp114
g16
(lp115
S'k'
asg18
S'Y'
sS'.thisRepN'
p116
I0
sg20
S'N'
sg31
g32
sS'.thisTrialN'
p117
I3
sS'.thisN'
p118
I3
sS'.thisIndex'
p119
I5
sg15
(lp120
S'k'
asg30
Vm
sg17
S'Y'
sg14
I1
sg19
Nsg94
I5
sa(dp121
g16
(lp122
S'k'
asg18
S'N'
sS'.thisRepN'
p123
I0
sg20
S'Y'
sg31
g32
sS'.thisTrialN'
p124
I4
sS'.thisN'
p125
I4
sS'.thisIndex'
p126
I7
sg15
(lp127
S'k'
asg30
Vm
sg17
S'Y'
sg14
I1
sg19
Nsg94
I7
sa(dp128
g16
(lp129
S'd'
asg18
S'N'
sS'.thisRepN'
p130
I0
sg20
S'Y'
sg31
g32
sS'.thisTrialN'
p131
I5
sS'.thisN'
p132
I5
sS'.thisIndex'
p133
I14
sg15
(lp134
S'k'
asg30
Vm
sg17
S'N'
sg14
I1
sg19
Nsg94
I14
sa(dp135
g16
(lp136
S'd'
asg18
S'N'
sS'.thisRepN'
p137
I0
sg20
S'Y'
sg31
g32
sS'.thisTrialN'
p138
I6
sS'.thisN'
p139
I6
sS'.thisIndex'
p140
I14
sg15
(lp141
S'k'
asg30
Vm
sg17
S'N'
sg14
I1
sg19
Nsg94
I14
sa(dp142
g16
(lp143
S'd'
asg18
S'Y'
sS'.thisRepN'
p144
I0
sg20
S'N'
sg31
g32
sS'.thisTrialN'
p145
I7
sS'.thisN'
p146
I7
sS'.thisIndex'
p147
I10
sg15
(lp148
S'd'
asg30
Vm
sg17
S'Y'
sg14
I1
sg19
Nsg94
I10
sa(dp149
g16
(lp150
S'k'
asg18
S'N'
sS'.thisRepN'
p151
I0
sg20
S'Y'
sg31
g32
sS'.thisTrialN'
p152
I8
sS'.thisN'
p153
I8
sS'.thisIndex'
p154
I8
sg15
(lp155
S'k'
asg30
Vm
sg17
S'Y'
sg14
I1
sg19
Nsg94
I8
sa(dp156
g16
(lp157
S'k'
asg18
S'N'
sS'.thisRepN'
p158
I0
sg20
S'Y'
sg31
g32
sS'.thisTrialN'
p159
I9
sS'.thisN'
p160
I9
sS'.thisIndex'
p161
I0
sg15
(lp162
S'k'
asg30
Vm
sg17
S'Y'
sg14
I1
sg19
Nsg94
I0
sa(dp163
g16
(lp164
S'd'
asg18
S'Y'
sS'.thisRepN'
p165
I0
sg20
S'N'
sg31
g32
sS'.thisTrialN'
p166
I10
sS'.thisN'
p167
I10
sS'.thisIndex'
p168
I6
sg15
(lp169
S'd'
asg30
Vm
sg17
S'Y'
sg14
I1
sg19
Nsg94
I6
sa(dp170
g16
(lp171
S'k'
asg18
S'Y'
sS'.thisRepN'
p172
I0
sg20
S'N'
sg31
g32
sS'.thisTrialN'
p173
I11
sS'.thisN'
p174
I11
sS'.thisIndex'
p175
I10
sg15
(lp176
S'k'
asg30
Vm
sg17
S'Y'
sg14
I1
sg19
Nsg94
I10
sa(dp177
g16
(lp178
S'k'
asg18
S'N'
sS'.thisRepN'
p179
I0
sg20
S'Y'
sg31
g32
sS'.thisTrialN'
p180
I12
sS'.thisN'
p181
I12
sS'.thisIndex'
p182
I4
sg15
(lp183
S'k'
asg30
Vm
sg17
S'Y'
sg14
I1
sg19
Nsg94
I4
sa(dp184
g16
(lp185
S'k'
asg18
S'N'
sS'.thisRepN'
p186
I0
sg20
S'N'
sg31
g32
sS'.thisTrialN'
p187
I13
sS'.thisN'
p188
I13
sS'.thisIndex'
p189
I14
sg15
(lp190
S'k'
asg30
Vm
sg17
S'Y'
sg14
I1
sg19
(lp191
S'space'
p192
asg94
I14
sa(dp193
g16
(lp194
S'k'
asg18
S'N'
sS'.thisRepN'
p195
I0
sg20
S'Y'
sg31
g32
sS'.thisTrialN'
p196
I14
sS'.thisN'
p197
I14
sS'.thisIndex'
p198
I0
sg15
(lp199
S'k'
asg30
Vm
sg17
S'Y'
sg14
I1
sg19
Nsg94
I0
sa(dp200
g16
(lp201
S'k'
asg18
S'N'
sS'.thisRepN'
p202
I1
sg20
S'Y'
sg31
g32
sS'.thisTrialN'
p203
I0
sS'.thisN'
p204
I15
sS'.thisIndex'
p205
I11
sg15
(lp206
S'k'
asg30
Vm
sg17
S'Y'
sg14
I1
sg19
Nsg94
I11
sa(dp207
g16
(lp208
S'k'
asg18
S'Y'
sS'.thisRepN'
p209
I1
sg20
S'Y'
sg31
g32
sS'.thisTrialN'
p210
I1
sS'.thisN'
p211
I16
sS'.thisIndex'
p212
I1
sg15
(lp213
S'k'
asg30
Vm
sg17
S'Y'
sg14
I1
sg19
(lp214
S'space'
p215
asg94
I1
sa(dp216
g16
(lp217
S'k'
asg18
S'N'
sS'.thisRepN'
p218
I1
sg20
S'Y'
sg31
g32
sS'.thisTrialN'
p219
I2
sS'.thisN'
p220
I17
sS'.thisIndex'
p221
I11
sg15
(lp222
S'k'
asg30
Vm
sg17
S'Y'
sg14
I1
sg19
Nsg94
I11
sa(dp223
g16
(lp224
S'd'
asg18
S'N'
sS'.thisRepN'
p225
I1
sg20
S'Y'
sg31
g32
sS'.thisTrialN'
p226
I3
sS'.thisN'
p227
I18
sS'.thisIndex'
p228
I5
sg15
(lp229
S'd'
asg30
Vm
sg17
S'Y'
sg14
I1
sg19
Nsg94
I5
sa(dp230
g16
(lp231
S'k'
asg18
S'Y'
sS'.thisRepN'
p232
I1
sg20
S'N'
sg31
g32
sS'.thisTrialN'
p233
I4
sS'.thisN'
p234
I19
sS'.thisIndex'
p235
I14
sg15
(lp236
S'k'
asg30
Vm
sg17
S'Y'
sg14
I1
sg19
Nsg94
I14
sa(dp237
g16
(lp238
S'd'
asg18
S'Y'
sS'.thisRepN'
p239
I1
sg20
S'Y'
sg31
g32
sS'.thisTrialN'
p240
I5
sS'.thisN'
p241
I20
sS'.thisIndex'
p242
I2
sg15
(lp243
S'd'
asg30
Vm
sg17
S'Y'
sg14
I1
sg19
(lp244
S'space'
p245
asg94
I2
sa(dp246
g16
(lp247
S'd'
asg18
S'N'
sS'.thisRepN'
p248
I1
sg20
S'Y'
sg31
g32
sS'.thisTrialN'
p249
I6
sS'.thisN'
p250
I21
sS'.thisIndex'
p251
I13
sg15
(lp252
S'd'
asg30
Vm
sg17
S'Y'
sg14
I1
sg19
Nsg94
I13
sa(dp253
g16
(lp254
S'd'
asg18
S'N'
sS'.thisRepN'
p255
I1
sg20
S'Y'
sg31
g32
sS'.thisTrialN'
p256
I7
sS'.thisN'
p257
I22
sS'.thisIndex'
p258
I8
sg15
(lp259
S'd'
asg30
Vm
sg17
S'Y'
sg14
I1
sg19
Nsg94
I8
sa(dp260
g16
(lp261
S'k'
asg18
S'N'
sS'.thisRepN'
p262
I1
sg20
S'Y'
sg31
g32
sS'.thisTrialN'
p263
I8
sS'.thisN'
p264
I23
sS'.thisIndex'
p265
I6
sg15
(lp266
S'k'
asg30
Vm
sg17
S'Y'
sg14
I1
sg19
Nsg94
I6
sa(dp267
g16
(lp268
S'k'
asg18
S'N'
sS'.thisRepN'
p269
I1
sg20
S'Y'
sg31
g32
sS'.thisTrialN'
p270
I9
sS'.thisN'
p271
I24
sS'.thisIndex'
p272
I14
sg15
(lp273
S'd'
asg30
Vm
sg17
S'N'
sg14
I1
sg19
Nsg94
I14
sa(dp274
g16
(lp275
S'd'
asg18
S'Y'
sS'.thisRepN'
p276
I1
sg20
S'N'
sg31
g32
sS'.thisTrialN'
p277
I10
sS'.thisN'
p278
I25
sS'.thisIndex'
p279
I9
sg15
(lp280
S'd'
asg30
Vm
sg17
S'Y'
sg14
I1
sg19
Nsg94
I9
sa(dp281
g16
(lp282
S'd'
asg18
S'Y'
sS'.thisRepN'
p283
I1
sg20
S'N'
sg31
g32
sS'.thisTrialN'
p284
I11
sS'.thisN'
p285
I26
sS'.thisIndex'
p286
I11
sg15
(lp287
S'd'
asg30
Vm
sg17
S'Y'
sg14
I1
sg19
Nsg94
I11
sa(dp288
g16
(lp289
S'k'
asg18
S'Y'
sS'.thisRepN'
p290
I1
sg20
S'Y'
sg31
g32
sS'.thisTrialN'
p291
I12
sS'.thisN'
p292
I27
sS'.thisIndex'
p293
I5
sg15
(lp294
S'k'
asg30
Vm
sg17
S'Y'
sg14
I1
sg19
(lp295
S'space'
p296
asg94
I5
sa(dp297
g16
(lp298
S'k'
asg18
S'N'
sS'.thisRepN'
p299
I1
sg20
S'Y'
sg31
g32
sS'.thisTrialN'
p300
I13
sS'.thisN'
p301
I28
sS'.thisIndex'
p302
I10
sg15
(lp303
S'd'
asg30
Vm
sg17
S'N'
sg14
I1
sg19
Nsg94
I10
sa(dp304
g16
(lp305
S'd'
asg18
S'Y'
sS'.thisRepN'
p306
I1
sg20
S'Y'
sg31
g32
sS'.thisTrialN'
p307
I14
sS'.thisN'
p308
I29
sS'.thisIndex'
p309
I3
sg15
(lp310
S'd'
asg30
Vm
sg17
S'Y'
sg14
I1
sg19
(lp311
S'space'
p312
asg94
I3
sa(dp313
g16
(lp314
S'k'
asg18
S'N'
sS'.thisRepN'
p315
I2
sg20
S'Y'
sg31
g32
sS'.thisTrialN'
p316
I0
sS'.thisN'
p317
I30
sS'.thisIndex'
p318
I8
sg15
(lp319
S'k'
asg30
Vm
sg17
S'Y'
sg14
I1
sg19
Nsg94
I8
sa(dp320
g16
(lp321
S'k'
asg18
S'N'
sS'.thisRepN'
p322
I2
sg20
S'N'
sg31
g32
sS'.thisTrialN'
p323
I1
sS'.thisN'
p324
I31
sS'.thisIndex'
p325
I10
sg15
(lp326
S'k'
asg30
Vm
sg17
S'Y'
sg14
I1
sg19
(lp327
S'space'
p328
asg94
I10
sa(dp329
g16
(lp330
S'k'
asg18
S'Y'
sS'.thisRepN'
p331
I2
sg20
S'Y'
sg31
g32
sS'.thisTrialN'
p332
I2
sS'.thisN'
p333
I32
sS'.thisIndex'
p334
I9
sg15
(lp335
S'k'
asg30
Vm
sg17
S'Y'
sg14
I1
sg19
(lp336
S'space'
p337
asg94
I9
sa(dp338
g16
(lp339
S'd'
asg18
S'N'
sS'.thisRepN'
p340
I2
sg20
S'N'
sg31
g32
sS'.thisTrialN'
p341
I3
sS'.thisN'
p342
I33
sS'.thisIndex'
p343
I6
sg15
(lp344
S'd'
asg30
Vm
sg17
S'Y'
sg14
I1
sg19
(lp345
S'space'
p346
asg94
I6
sa(dp347
g16
(lp348
S'k'
asg18
S'Y'
sS'.thisRepN'
p349
I2
sg20
S'Y'
sg31
g32
sS'.thisTrialN'
p350
I4
sS'.thisN'
p351
I34
sS'.thisIndex'
p352
I3
sg15
(lp353
S'k'
asg30
Vm
sg17
S'Y'
sg14
I1
sg19
(lp354
S'space'
p355
asg94
I3
sa(dp356
g16
(lp357
S'k'
asg18
S'Y'
sS'.thisRepN'
p358
I2
sg20
S'Y'
sg31
g32
sS'.thisTrialN'
p359
I5
sS'.thisN'
p360
I35
sS'.thisIndex'
p361
I13
sg15
(lp362
S'k'
asg30
Vm
sg17
S'Y'
sg14
I1
sg19
(lp363
S'space'
p364
asg94
I13
sa(dp365
g16
(lp366
S'd'
asg18
S'Y'
sS'.thisRepN'
p367
I2
sg20
S'Y'
sg31
g32
sS'.thisTrialN'
p368
I6
sS'.thisN'
p369
I36
sS'.thisIndex'
p370
I13
sg15
(lp371
S'd'
asg30
Vm
sg17
S'Y'
sg14
I1
sg19
(lp372
S'space'
p373
asg94
I13
sa(dp374
g16
(lp375
S'd'
asg18
S'Y'
sS'.thisRepN'
p376
I2
sg20
S'Y'
sg31
g32
sS'.thisTrialN'
p377
I7
sS'.thisN'
p378
I37
sS'.thisIndex'
p379
I12
sg15
(lp380
S'd'
asg30
Vm
sg17
S'Y'
sg14
I1
sg19
(lp381
S'space'
p382
asg94
I12
sa(dp383
g16
(lp384
S'k'
asg18
S'Y'
sS'.thisRepN'
p385
I2
sg20
S'Y'
sg31
g32
sS'.thisTrialN'
p386
I8
sS'.thisN'
p387
I38
sS'.thisIndex'
p388
I6
sg15
(lp389
S'k'
asg30
Vm
sg17
S'Y'
sg14
I1
sg19
(lp390
S'space'
p391
asg94
I6
sa(dp392
g16
(lp393
S'k'
asg18
S'N'
sS'.thisRepN'
p394
I2
sg20
S'Y'
sg31
g32
sS'.thisTrialN'
p395
I9
sS'.thisN'
p396
I39
sS'.thisIndex'
p397
I11
sg15
(lp398
S'k'
asg30
Vm
sg17
S'Y'
sg14
I1
sg19
Nsg94
I11
sa(dp399
g16
(lp400
S'k'
asg18
S'Y'
sS'.thisRepN'
p401
I2
sg20
S'N'
sg31
g32
sS'.thisTrialN'
p402
I10
sS'.thisN'
p403
I40
sS'.thisIndex'
p404
I1
sg15
(lp405
S'k'
asg30
Vm
sg17
S'Y'
sg14
I1
sg19
Nsg94
I1
sa(dp406
g16
(lp407
S'd'
asg18
S'Y'
sS'.thisRepN'
p408
I2
sg20
S'Y'
sg31
g32
sS'.thisTrialN'
p409
I11
sS'.thisN'
p410
I41
sS'.thisIndex'
p411
I2
sg15
(lp412
S'd'
asg30
Vm
sg17
S'Y'
sg14
I1
sg19
(lp413
S'space'
p414
asg94
I2
sa(dp415
g16
(lp416
S'k'
asg18
S'Y'
sS'.thisRepN'
p417
I2
sg20
S'Y'
sg31
g32
sS'.thisTrialN'
p418
I12
sS'.thisN'
p419
I42
sS'.thisIndex'
p420
I7
sg15
(lp421
S'k'
asg30
Vm
sg17
S'Y'
sg14
I1
sg19
(lp422
S'space'
p423
asg94
I7
sa(dp424
g16
(lp425
S'd'
asg18
S'Y'
sS'.thisRepN'
p426
I2
sg20
S'Y'
sg31
g32
sS'.thisTrialN'
p427
I13
sS'.thisN'
p428
I43
sS'.thisIndex'
p429
I6
sg15
(lp430
S'd'
asg30
Vm
sg17
S'Y'
sg14
I1
sg19
(lp431
S'space'
p432
asg94
I6
sa(dp433
g16
(lp434
S'd'
asg18
S'N'
sS'.thisRepN'
p435
I2
sg20
S'Y'
sg31
g32
sS'.thisTrialN'
p436
I14
sS'.thisN'
p437
I44
sS'.thisIndex'
p438
I10
sg15
(lp439
S'd'
asg30
Vm
sg17
S'Y'
sg14
I1
sg19
Nsg94
I10
sa(dp440
g16
(lp441
S'd'
asg18
S'N'
sS'.thisRepN'
p442
I3
sg20
S'Y'
sg31
g32
sS'.thisTrialN'
p443
I0
sS'.thisN'
p444
I45
sS'.thisIndex'
p445
I14
sg15
(lp446
S'd'
asg30
Vm
sg17
S'Y'
sg14
I1
sg19
Nsg94
I14
sa(dp447
g16
(lp448
S'd'
asg18
S'N'
sS'.thisRepN'
p449
I3
sg20
S'Y'
sg31
g32
sS'.thisTrialN'
p450
I1
sS'.thisN'
p451
I46
sS'.thisIndex'
p452
I2
sg15
(lp453
S'd'
asg30
Vm
sg17
S'Y'
sg14
I1
sg19
Nsg94
I2
sa(dp454
g16
(lp455
S'k'
asg18
S'Y'
sS'.thisRepN'
p456
I3
sg20
S'Y'
sg31
g32
sS'.thisTrialN'
p457
I2
sS'.thisN'
p458
I47
sS'.thisIndex'
p459
I2
sg15
(lp460
S'k'
asg30
Vm
sg17
S'Y'
sg14
I1
sg19
(lp461
S'space'
p462
asg94
I2
sa(dp463
g16
(lp464
S'k'
asg18
S'N'
sS'.thisRepN'
p465
I3
sg20
S'Y'
sg31
g32
sS'.thisTrialN'
p466
I3
sS'.thisN'
p467
I48
sS'.thisIndex'
p468
I12
sg15
(lp469
S'k'
asg30
Vm
sg17
S'Y'
sg14
I1
sg19
Nsg94
I12
sa(dp470
g16
(lp471
S'k'
asg18
S'Y'
sg22
I36
sS'.thisN'
p472
I49
sg20
S'Y'
sg31
g32
sS'.thisTrialN'
p473
I4
sS'.thisRepN'
p474
I3
sg21
I45
sS'.thisIndex'
p475
I9
sg23
I24
sg15
(lp476
S'k'
asg30
Vm
sg17
S'Y'
sg14
I1
sg19
(lp477
S'space'
p478
asg94
I9
sa(dp479
g16
(lp480
S'd'
asg94
I0
sS'.thisRepN'
p481
I3
sg30
Vm
sg31
g32
sS'.thisTrialN'
p482
I5
sS'.thisN'
p483
I50
sS'.thisIndex'
p484
I0
sg15
(lp485
S'd'
asg17
S'Y'
sg14
I2
sa(dp486
g16
(lp487
S'k'
asg94
I12
sS'.thisRepN'
p488
I3
sg30
Vm
sg31
g32
sS'.thisTrialN'
p489
I6
sS'.thisN'
p490
I51
sS'.thisIndex'
p491
I12
sg15
(lp492
S'k'
asg17
S'Y'
sg14
I2
sa(dp493
g16
(lp494
S'd'
asg18
S'Y'
sS'.thisRepN'
p495
I3
sg20
S'Y'
sg31
g32
sS'.thisTrialN'
p496
I7
sS'.thisN'
p497
I52
sS'.thisIndex'
p498
I2
sg15
(lp499
S'd'
asg30
Vm
sg17
S'Y'
sg14
I2
sg19
(lp500
S'space'
p501
asg94
I2
sa(dp502
g16
(lp503
S'k'
asg18
S'N'
sS'.thisRepN'
p504
I3
sg20
S'Y'
sg31
g32
sS'.thisTrialN'
p505
I8
sS'.thisN'
p506
I53
sS'.thisIndex'
p507
I11
sg15
(lp508
S'k'
asg30
Vm
sg17
S'Y'
sg14
I2
sg19
Nsg94
I11
sa(dp509
g16
(lp510
S'd'
asg18
S'Y'
sS'.thisRepN'
p511
I3
sg20
S'N'
sg31
g32
sS'.thisTrialN'
p512
I9
sS'.thisN'
p513
I54
sS'.thisIndex'
p514
I5
sg15
(lp515
S'd'
asg30
Vm
sg17
S'Y'
sg14
I2
sg19
Nsg94
I5
sa(dp516
g16
(lp517
S'k'
asg18
S'N'
sS'.thisRepN'
p518
I3
sg20
S'Y'
sg31
g32
sS'.thisTrialN'
p519
I10
sS'.thisN'
p520
I55
sS'.thisIndex'
p521
I11
sg15
(lp522
S'k'
asg30
Vm
sg17
S'Y'
sg14
I2
sg19
Nsg94
I11
sa(dp523
g16
(lp524
S'd'
asg18
S'N'
sS'.thisRepN'
p525
I3
sg20
S'Y'
sg31
g32
sS'.thisTrialN'
p526
I11
sS'.thisN'
p527
I56
sS'.thisIndex'
p528
I3
sg15
(lp529
S'd'
asg30
Vm
sg17
S'Y'
sg14
I2
sg19
Nsg94
I3
sa(dp530
g16
(lp531
S'k'
asg18
S'N'
sS'.thisRepN'
p532
I3
sg20
S'Y'
sg31
g32
sS'.thisTrialN'
p533
I12
sS'.thisN'
p534
I57
sS'.thisIndex'
p535
I9
sg15
(lp536
S'k'
asg30
Vm
sg17
S'Y'
sg14
I2
sg19
Nsg94
I9
sa(dp537
g16
(lp538
S'k'
asg18
S'Y'
sS'.thisRepN'
p539
I3
sg20
S'N'
sg31
g32
sS'.thisTrialN'
p540
I13
sS'.thisN'
p541
I58
sS'.thisIndex'
p542
I6
sg15
(lp543
S'k'
asg30
Vm
sg17
S'Y'
sg14
I2
sg19
Nsg94
I6
sa(dp544
g16
(lp545
S'k'
asg18
S'N'
sS'.thisRepN'
p546
I3
sg20
S'Y'
sg31
g32
sS'.thisTrialN'
p547
I14
sS'.thisN'
p548
I59
sS'.thisIndex'
p549
I4
sg15
(lp550
S'k'
asg30
Vm
sg17
S'Y'
sg14
I2
sg19
Nsg94
I4
sa(dp551
g16
(lp552
S'd'
asg18
S'N'
sS'.thisRepN'
p553
I4
sg20
S'Y'
sg31
g32
sS'.thisTrialN'
p554
I0
sS'.thisN'
p555
I60
sS'.thisIndex'
p556
I8
sg15
(lp557
S'd'
asg30
Vm
sg17
S'Y'
sg14
I2
sg19
Nsg94
I8
sa(dp558
g16
(lp559
S'd'
asg18
S'N'
sS'.thisRepN'
p560
I4
sg20
S'Y'
sg31
g32
sS'.thisTrialN'
p561
I1
sS'.thisN'
p562
I61
sS'.thisIndex'
p563
I6
sg15
(lp564
S'd'
asg30
Vm
sg17
S'Y'
sg14
I2
sg19
Nsg94
I6
sa(dp565
g16
(lp566
S'k'
asg18
S'Y'
sS'.thisRepN'
p567
I4
sg20
S'Y'
sg31
g32
sS'.thisTrialN'
p568
I2
sS'.thisN'
p569
I62
sS'.thisIndex'
p570
I13
sg15
(lp571
S'k'
asg30
Vm
sg17
S'Y'
sg14
I2
sg19
(lp572
S'space'
p573
asg94
I13
sa(dp574
g16
(lp575
S'd'
asg18
S'Y'
sS'.thisRepN'
p576
I4
sg20
S'Y'
sg31
g32
sS'.thisTrialN'
p577
I3
sS'.thisN'
p578
I63
sS'.thisIndex'
p579
I12
sg15
(lp580
S'd'
asg30
Vm
sg17
S'Y'
sg14
I2
sg19
(lp581
S'space'
p582
asg94
I12
sa(dp583
g16
(lp584
S'k'
asg18
S'Y'
sS'.thisRepN'
p585
I4
sg20
S'Y'
sg31
g32
sS'.thisTrialN'
p586
I4
sS'.thisN'
p587
I64
sS'.thisIndex'
p588
I3
sg15
(lp589
S'k'
asg30
Vm
sg17
S'Y'
sg14
I2
sg19
(lp590
S'space'
p591
asg94
I3
sa(dp592
g16
(lp593
S'd'
asg18
S'N'
sS'.thisRepN'
p594
I4
sg20
S'Y'
sg31
g32
sS'.thisTrialN'
p595
I5
sS'.thisN'
p596
I65
sS'.thisIndex'
p597
I14
sg15
(lp598
S'd'
asg30
Vm
sg17
S'Y'
sg14
I2
sg19
Nsg94
I14
sa(dp599
g16
(lp600
S'k'
asg18
S'Y'
sS'.thisRepN'
p601
I4
sg20
S'Y'
sg31
g32
sS'.thisTrialN'
p602
I6
sS'.thisN'
p603
I66
sS'.thisIndex'
p604
I2
sg15
(lp605
S'k'
asg30
Vm
sg17
S'Y'
sg14
I2
sg19
(lp606
S'space'
p607
asg94
I2
sa(dp608
g16
(lp609
S'd'
asg18
S'Y'
sS'.thisRepN'
p610
I4
sg20
S'Y'
sg31
g32
sS'.thisTrialN'
p611
I7
sS'.thisN'
p612
I67
sS'.thisIndex'
p613
I9
sg15
(lp614
S'd'
asg30
Vm
sg17
S'Y'
sg14
I2
sg19
(lp615
S'space'
p616
asg94
I9
sa(dp617
g16
(lp618
S'd'
asg18
S'Y'
sS'.thisRepN'
p619
I4
sg20
S'Y'
sg31
g32
sS'.thisTrialN'
p620
I8
sS'.thisN'
p621
I68
sS'.thisIndex'
p622
I8
sg15
(lp623
S'd'
asg30
Vm
sg17
S'Y'
sg14
I2
sg19
(lp624
S'space'
p625
asg94
I8
sa(dp626
g16
(lp627
S'd'
asg18
S'N'
sS'.thisRepN'
p628
I4
sg20
S'Y'
sg31
g32
sS'.thisTrialN'
p629
I9
sS'.thisN'
p630
I69
sS'.thisIndex'
p631
I3
sg15
(lp632
S'd'
asg30
Vm
sg17
S'Y'
sg14
I2
sg19
Nsg94
I3
sa(dp633
g16
(lp634
S'k'
asg18
S'Y'
sS'.thisRepN'
p635
I4
sg20
S'Y'
sg31
g32
sS'.thisTrialN'
p636
I10
sS'.thisN'
p637
I70
sS'.thisIndex'
p638
I10
sg15
(lp639
S'k'
asg30
Vm
sg17
S'Y'
sg14
I2
sg19
(lp640
S'space'
p641
asg94
I10
sa(dp642
g16
(lp643
S'd'
asg18
S'N'
sS'.thisRepN'
p644
I4
sg20
S'Y'
sg31
g32
sS'.thisTrialN'
p645
I11
sS'.thisN'
p646
I71
sS'.thisIndex'
p647
I3
sg15
(lp648
S'd'
asg30
Vm
sg17
S'Y'
sg14
I2
sg19
Nsg94
I3
sa(dp649
g16
(lp650
S'd'
asg18
S'Y'
sS'.thisRepN'
p651
I4
sg20
S'Y'
sg31
g32
sS'.thisTrialN'
p652
I12
sS'.thisN'
p653
I72
sS'.thisIndex'
p654
I9
sg15
(lp655
S'd'
asg30
Vm
sg17
S'Y'
sg14
I2
sg19
(lp656
S'space'
p657
asg94
I9
sa(dp658
g16
(lp659
S'k'
asg18
S'Y'
sS'.thisRepN'
p660
I4
sg20
S'Y'
sg31
g32
sS'.thisTrialN'
p661
I13
sS'.thisN'
p662
I73
sS'.thisIndex'
p663
I2
sg15
(lp664
S'k'
asg30
Vm
sg17
S'Y'
sg14
I2
sg19
(lp665
S'space'
p666
asg94
I2
sa(dp667
g16
(lp668
S'd'
asg18
S'Y'
sS'.thisRepN'
p669
I4
sg20
S'Y'
sg31
g32
sS'.thisTrialN'
p670
I14
sS'.thisN'
p671
I74
sS'.thisIndex'
p672
I3
sg15
(lp673
S'd'
asg30
Vm
sg17
S'Y'
sg14
I2
sg19
(lp674
S'space'
p675
asg94
I3
sa(dp676
g16
(lp677
S'd'
asg18
S'Y'
sS'.thisRepN'
p678
I5
sg20
S'Y'
sg31
g32
sS'.thisTrialN'
p679
I0
sS'.thisN'
p680
I75
sS'.thisIndex'
p681
I7
sg15
(lp682
S'd'
asg30
Vm
sg17
S'Y'
sg14
I2
sg19
(lp683
S'space'
p684
asg94
I7
sa(dp685
g16
(lp686
S'd'
asg18
S'Y'
sS'.thisRepN'
p687
I5
sg20
S'Y'
sg31
g32
sS'.thisTrialN'
p688
I1
sS'.thisN'
p689
I76
sS'.thisIndex'
p690
I12
sg15
(lp691
S'd'
asg30
Vm
sg17
S'Y'
sg14
I2
sg19
(lp692
S'space'
p693
asg94
I12
sa(dp694
g16
(lp695
S'd'
asg18
S'Y'
sS'.thisRepN'
p696
I5
sg20
S'Y'
sg31
g32
sS'.thisTrialN'
p697
I2
sS'.thisN'
p698
I77
sS'.thisIndex'
p699
I12
sg15
(lp700
S'd'
asg30
Vm
sg17
S'Y'
sg14
I2
sg19
(lp701
S'space'
p702
asg94
I12
sa(dp703
g16
(lp704
S'k'
asg18
S'Y'
sS'.thisRepN'
p705
I5
sg20
S'Y'
sg31
g32
sS'.thisTrialN'
p706
I3
sS'.thisN'
p707
I78
sS'.thisIndex'
p708
I9
sg15
(lp709
S'k'
asg30
Vm
sg17
S'Y'
sg14
I2
sg19
(lp710
S'space'
p711
asg94
I9
sa(dp712
g16
(lp713
S'd'
asg18
S'Y'
sS'.thisRepN'
p714
I5
sg20
S'N'
sg31
g32
sS'.thisTrialN'
p715
I4
sS'.thisN'
p716
I79
sS'.thisIndex'
p717
I7
sg15
(lp718
S'd'
asg30
Vm
sg17
S'Y'
sg14
I2
sg19
(lp719
S'd'
asg94
I7
sa(dp720
g16
(lp721
S'd'
asg18
S'N'
sS'.thisRepN'
p722
I5
sg20
S'Y'
sg31
g32
sS'.thisTrialN'
p723
I5
sS'.thisN'
p724
I80
sS'.thisIndex'
p725
I5
sg15
(lp726
S'd'
asg30
Vm
sg17
S'Y'
sg14
I2
sg19
Nsg94
I5
sa(dp727
g16
(lp728
S'd'
asg18
S'Y'
sS'.thisRepN'
p729
I5
sg20
S'N'
sg31
g32
sS'.thisTrialN'
p730
I6
sS'.thisN'
p731
I81
sS'.thisIndex'
p732
I5
sg15
(lp733
S'd'
asg30
Vm
sg17
S'Y'
sg14
I2
sg19
Nsg94
I5
sa(dp734
g16
(lp735
S'd'
asg18
S'N'
sS'.thisRepN'
p736
I5
sg20
S'Y'
sg31
g32
sS'.thisTrialN'
p737
I7
sS'.thisN'
p738
I82
sS'.thisIndex'
p739
I7
sg15
(lp740
S'd'
asg30
Vm
sg17
S'Y'
sg14
I2
sg19
Nsg94
I7
sa(dp741
g16
(lp742
S'd'
asg18
S'Y'
sS'.thisRepN'
p743
I5
sg20
S'Y'
sg31
g32
sS'.thisTrialN'
p744
I8
sS'.thisN'
p745
I83
sS'.thisIndex'
p746
I11
sg15
(lp747
S'd'
asg30
Vm
sg17
S'Y'
sg14
I2
sg19
(lp748
S'space'
p749
asg94
I11
sa(dp750
g16
(lp751
S'd'
asg18
S'N'
sS'.thisRepN'
p752
I5
sg20
S'Y'
sg31
g32
sS'.thisTrialN'
p753
I9
sS'.thisN'
p754
I84
sS'.thisIndex'
p755
I12
sg15
(lp756
S'd'
asg30
Vm
sg17
S'Y'
sg14
I2
sg19
Nsg94
I12
sa(dp757
g16
(lp758
S'k'
asg18
S'N'
sS'.thisRepN'
p759
I5
sg20
S'Y'
sg31
g32
sS'.thisTrialN'
p760
I10
sS'.thisN'
p761
I85
sS'.thisIndex'
p762
I14
sg15
(lp763
S'k'
asg30
Vm
sg17
S'Y'
sg14
I2
sg19
Nsg94
I14
sa(dp764
g16
(lp765
S'k'
asg18
S'Y'
sS'.thisRepN'
p766
I5
sg20
S'Y'
sg31
g32
sS'.thisTrialN'
p767
I11
sS'.thisN'
p768
I86
sS'.thisIndex'
p769
I6
sg15
(lp770
S'd'
asg30
Vm
sg17
S'N'
sg14
I2
sg19
(lp771
S'space'
p772
asg94
I6
sa(dp773
g16
(lp774
S'k'
asg18
S'N'
sS'.thisRepN'
p775
I5
sg20
S'Y'
sg31
g32
sS'.thisTrialN'
p776
I12
sS'.thisN'
p777
I87
sS'.thisIndex'
p778
I14
sg15
(lp779
S'k'
asg30
Vm
sg17
S'Y'
sg14
I2
sg19
Nsg94
I14
sa(dp780
g16
(lp781
S'k'
asg18
S'N'
sS'.thisRepN'
p782
I5
sg20
S'Y'
sg31
g32
sS'.thisTrialN'
p783
I13
sS'.thisN'
p784
I88
sS'.thisIndex'
p785
I13
sg15
(lp786
S'k'
asg30
Vm
sg17
S'Y'
sg14
I2
sg19
Nsg94
I13
sa(dp787
g16
(lp788
S'k'
asg18
S'N'
sS'.thisRepN'
p789
I5
sg20
S'Y'
sg31
g32
sS'.thisTrialN'
p790
I14
sS'.thisN'
p791
I89
sS'.thisIndex'
p792
I10
sg15
(lp793
S'k'
asg30
Vm
sg17
S'Y'
sg14
I2
sg19
Nsg94
I10
sa(dp794
g16
(lp795
S'd'
asg18
S'N'
sS'.thisRepN'
p796
I6
sg20
S'N'
sg31
g32
sS'.thisTrialN'
p797
I0
sS'.thisN'
p798
I90
sS'.thisIndex'
p799
I13
sg15
(lp800
S'd'
asg30
Vm
sg17
S'Y'
sg14
I2
sg19
(lp801
S'space'
p802
asg94
I13
sa(dp803
g16
(lp804
S'k'
asg18
S'N'
sS'.thisRepN'
p805
I6
sg20
S'Y'
sg31
g32
sS'.thisTrialN'
p806
I1
sS'.thisN'
p807
I91
sS'.thisIndex'
p808
I0
sg15
(lp809
S'k'
asg30
Vm
sg17
S'Y'
sg14
I2
sg19
Nsg94
I0
sa(dp810
g16
(lp811
S'd'
asg18
S'N'
sS'.thisRepN'
p812
I6
sg20
S'Y'
sg31
g32
sS'.thisTrialN'
p813
I2
sS'.thisN'
p814
I92
sS'.thisIndex'
p815
I11
sg15
(lp816
S'd'
asg30
Vm
sg17
S'Y'
sg14
I2
sg19
Nsg94
I11
sa(dp817
g16
(lp818
S'd'
asg18
S'N'
sS'.thisRepN'
p819
I6
sg20
S'Y'
sg31
g32
sS'.thisTrialN'
p820
I3
sS'.thisN'
p821
I93
sS'.thisIndex'
p822
I14
sg15
(lp823
S'd'
asg30
Vm
sg17
S'Y'
sg14
I2
sg19
Nsg94
I14
sa(dp824
g16
(lp825
S'd'
asg18
S'Y'
sS'.thisRepN'
p826
I6
sg20
S'Y'
sg31
g32
sS'.thisTrialN'
p827
I4
sS'.thisN'
p828
I94
sS'.thisIndex'
p829
I14
sg15
(lp830
S'd'
asg30
Vm
sg17
S'Y'
sg14
I2
sg19
(lp831
S'space'
p832
asg94
I14
sa(dp833
g16
(lp834
S'k'
asg18
S'Y'
sS'.thisRepN'
p835
I6
sg20
S'Y'
sg31
g32
sS'.thisTrialN'
p836
I5
sS'.thisN'
p837
I95
sS'.thisIndex'
p838
I4
sg15
(lp839
S'k'
asg30
Vm
sg17
S'Y'
sg14
I2
sg19
(lp840
S'space'
p841
asg94
I4
sa(dp842
g16
(lp843
S'd'
asg18
S'Y'
sS'.thisRepN'
p844
I6
sg20
S'Y'
sg31
g32
sS'.thisTrialN'
p845
I6
sS'.thisN'
p846
I96
sS'.thisIndex'
p847
I12
sg15
(lp848
S'd'
asg30
Vm
sg17
S'Y'
sg14
I2
sg19
(lp849
S'space'
p850
asg94
I12
sa(dp851
g16
(lp852
S'd'
asg18
S'Y'
sS'.thisRepN'
p853
I6
sg20
S'Y'
sg31
g32
sS'.thisTrialN'
p854
I7
sS'.thisN'
p855
I97
sS'.thisIndex'
p856
I8
sg15
(lp857
S'd'
asg30
Vm
sg17
S'Y'
sg14
I2
sg19
(lp858
S'space'
p859
asg94
I8
sa(dp860
g16
(lp861
S'k'
asg18
S'N'
sS'.thisRepN'
p862
I6
sg20
S'Y'
sg31
g32
sS'.thisTrialN'
p863
I8
sS'.thisN'
p864
I98
sS'.thisIndex'
p865
I1
sg15
(lp866
S'k'
asg30
Vm
sg17
S'Y'
sg14
I2
sg19
Nsg94
I1
sa(dp867
g16
(lp868
S'd'
asg18
S'N'
sg22
I43
sS'.thisN'
p869
I99
sg20
S'Y'
sg31
g32
sS'.thisTrialN'
p870
I9
sS'.thisRepN'
p871
I6
sg21
I49
sS'.thisIndex'
p872
I12
sg23
I25
sg15
(lp873
S'd'
asg30
Vm
sg17
S'Y'
sg14
I2
sg19
Nsg94
I12
sa(dp874
g16
(lp875
S'd'
asg94
I1
sS'.thisRepN'
p876
I6
sg30
Vm
sg31
g32
sS'.thisTrialN'
p877
I10
sS'.thisN'
p878
I100
sS'.thisIndex'
p879
I1
sg15
(lp880
S'd'
asg17
S'Y'
sg14
I3
sa(dp881
g16
(lp882
S'd'
asg94
I1
sS'.thisRepN'
p883
I6
sg30
Vm
sg31
g32
sS'.thisTrialN'
p884
I11
sS'.thisN'
p885
I101
sS'.thisIndex'
p886
I1
sg15
(lp887
S'd'
asg17
S'Y'
sg14
I3
sa(dp888
g16
(lp889
S'k'
asg18
S'Y'
sS'.thisRepN'
p890
I6
sg20
S'Y'
sg31
g32
sS'.thisTrialN'
p891
I12
sS'.thisN'
p892
I102
sS'.thisIndex'
p893
I13
sg15
(lp894
S'k'
asg30
Vm
sg17
S'Y'
sg14
I3
sg19
(lp895
S'space'
p896
asg94
I13
sa(dp897
g16
(lp898
S'k'
asg18
S'N'
sS'.thisRepN'
p899
I6
sg20
S'Y'
sg31
g32
sS'.thisTrialN'
p900
I13
sS'.thisN'
p901
I103
sS'.thisIndex'
p902
I9
sg15
(lp903
S'k'
asg30
Vm
sg17
S'Y'
sg14
I3
sg19
Nsg94
I9
sa(dp904
g16
(lp905
S'k'
asg18
S'N'
sS'.thisRepN'
p906
I6
sg20
S'Y'
sg31
g32
sS'.thisTrialN'
p907
I14
sS'.thisN'
p908
I104
sS'.thisIndex'
p909
I1
sg15
(lp910
S'k'
asg30
Vm
sg17
S'Y'
sg14
I3
sg19
Nsg94
I1
sa(dp911
g16
(lp912
S'd'
asg18
S'Y'
sS'.thisRepN'
p913
I7
sg20
S'Y'
sg31
g32
sS'.thisTrialN'
p914
I0
sS'.thisN'
p915
I105
sS'.thisIndex'
p916
I13
sg15
(lp917
S'd'
asg30
Vm
sg17
S'Y'
sg14
I3
sg19
(lp918
S'space'
p919
asg94
I13
sa(dp920
g16
(lp921
S'd'
asg18
S'N'
sS'.thisRepN'
p922
I7
sg20
S'Y'
sg31
g32
sS'.thisTrialN'
p923
I1
sS'.thisN'
p924
I106
sS'.thisIndex'
p925
I9
sg15
(lp926
S'd'
asg30
Vm
sg17
S'Y'
sg14
I3
sg19
Nsg94
I9
sa(dp927
g16
(lp928
S'd'
asg18
S'Y'
sS'.thisRepN'
p929
I7
sg20
S'Y'
sg31
g32
sS'.thisTrialN'
p930
I2
sS'.thisN'
p931
I107
sS'.thisIndex'
p932
I1
sg15
(lp933
S'd'
asg30
Vm
sg17
S'Y'
sg14
I3
sg19
(lp934
S'space'
p935
asg94
I1
sa(dp936
g16
(lp937
S'd'
asg18
S'Y'
sS'.thisRepN'
p938
I7
sg20
S'Y'
sg31
g32
sS'.thisTrialN'
p939
I3
sS'.thisN'
p940
I108
sS'.thisIndex'
p941
I14
sg15
(lp942
S'd'
asg30
Vm
sg17
S'Y'
sg14
I3
sg19
(lp943
S'space'
p944
asg94
I14
sa(dp945
g16
(lp946
S'k'
asg18
S'Y'
sS'.thisRepN'
p947
I7
sg20
S'Y'
sg31
g32
sS'.thisTrialN'
p948
I4
sS'.thisN'
p949
I109
sS'.thisIndex'
p950
I8
sg15
(lp951
S'k'
asg30
Vm
sg17
S'Y'
sg14
I3
sg19
(lp952
S'space'
p953
asg94
I8
sa(dp954
g16
(lp955
S'k'
asg18
S'Y'
sS'.thisRepN'
p956
I7
sg20
S'Y'
sg31
g32
sS'.thisTrialN'
p957
I5
sS'.thisN'
p958
I110
sS'.thisIndex'
p959
I9
sg15
(lp960
S'k'
asg30
Vm
sg17
S'Y'
sg14
I3
sg19
(lp961
S'space'
p962
asg94
I9
sa(dp963
g16
(lp964
S'd'
asg18
S'Y'
sS'.thisRepN'
p965
I7
sg20
S'Y'
sg31
g32
sS'.thisTrialN'
p966
I6
sS'.thisN'
p967
I111
sS'.thisIndex'
p968
I12
sg15
(lp969
S'd'
asg30
Vm
sg17
S'Y'
sg14
I3
sg19
(lp970
S'space'
p971
asg94
I12
sa(dp972
g16
(lp973
S'k'
asg18
S'Y'
sS'.thisRepN'
p974
I7
sg20
S'Y'
sg31
g32
sS'.thisTrialN'
p975
I7
sS'.thisN'
p976
I112
sS'.thisIndex'
p977
I11
sg15
(lp978
S'k'
asg30
Vm
sg17
S'Y'
sg14
I3
sg19
(lp979
S'space'
p980
asg94
I11
sa(dp981
g16
(lp982
S'k'
asg18
S'Y'
sS'.thisRepN'
p983
I7
sg20
S'Y'
sg31
g32
sS'.thisTrialN'
p984
I8
sS'.thisN'
p985
I113
sS'.thisIndex'
p986
I4
sg15
(lp987
S'k'
asg30
Vm
sg17
S'Y'
sg14
I3
sg19
(lp988
S'space'
p989
asg94
I4
sa(dp990
g16
(lp991
S'k'
asg18
S'Y'
sS'.thisRepN'
p992
I7
sg20
S'Y'
sg31
g32
sS'.thisTrialN'
p993
I9
sS'.thisN'
p994
I114
sS'.thisIndex'
p995
I8
sg15
(lp996
S'k'
asg30
Vm
sg17
S'Y'
sg14
I3
sg19
(lp997
S'space'
p998
asg94
I8
sa(dp999
g16
(lp1000
S'd'
asg18
S'Y'
sS'.thisRepN'
p1001
I7
sg20
S'Y'
sg31
g32
sS'.thisTrialN'
p1002
I10
sS'.thisN'
p1003
I115
sS'.thisIndex'
p1004
I5
sg15
(lp1005
S'd'
asg30
Vm
sg17
S'Y'
sg14
I3
sg19
(lp1006
S'space'
p1007
asg94
I5
sa(dp1008
g16
(lp1009
S'd'
asg18
S'N'
sS'.thisRepN'
p1010
I7
sg20
S'Y'
sg31
g32
sS'.thisTrialN'
p1011
I11
sS'.thisN'
p1012
I116
sS'.thisIndex'
p1013
I13
sg15
(lp1014
S'k'
asg30
Vm
sg17
S'N'
sg14
I3
sg19
Nsg94
I13
sa(dp1015
g16
(lp1016
S'd'
asg18
S'N'
sS'.thisRepN'
p1017
I7
sg20
S'Y'
sg31
g32
sS'.thisTrialN'
p1018
I12
sS'.thisN'
p1019
I117
sS'.thisIndex'
p1020
I2
sg15
(lp1021
S'd'
asg30
Vm
sg17
S'Y'
sg14
I3
sg19
Nsg94
I2
sa(dp1022
g16
(lp1023
S'k'
asg18
S'N'
sS'.thisRepN'
p1024
I7
sg20
S'Y'
sg31
g32
sS'.thisTrialN'
p1025
I13
sS'.thisN'
p1026
I118
sS'.thisIndex'
p1027
I1
sg15
(lp1028
S'k'
asg30
Vm
sg17
S'Y'
sg14
I3
sg19
Nsg94
I1
sa(dp1029
g16
(lp1030
S'd'
asg18
S'N'
sS'.thisRepN'
p1031
I7
sg20
S'Y'
sg31
g32
sS'.thisTrialN'
p1032
I14
sS'.thisN'
p1033
I119
sS'.thisIndex'
p1034
I13
sg15
(lp1035
S'd'
asg30
Vm
sg17
S'Y'
sg14
I3
sg19
Nsg94
I13
sa(dp1036
g16
(lp1037
S'd'
asg18
S'N'
sS'.thisRepN'
p1038
I8
sg20
S'Y'
sg31
g32
sS'.thisTrialN'
p1039
I0
sS'.thisN'
p1040
I120
sS'.thisIndex'
p1041
I13
sg15
(lp1042
S'd'
asg30
Vm
sg17
S'Y'
sg14
I3
sg19
Nsg94
I13
sa(dp1043
g16
(lp1044
S'd'
asg18
S'Y'
sS'.thisRepN'
p1045
I8
sg20
S'Y'
sg31
g32
sS'.thisTrialN'
p1046
I1
sS'.thisN'
p1047
I121
sS'.thisIndex'
p1048
I13
sg15
(lp1049
S'd'
asg30
Vm
sg17
S'Y'
sg14
I3
sg19
(lp1050
S'space'
p1051
asg94
I13
sa(dp1052
g16
(lp1053
S'k'
asg18
S'N'
sS'.thisRepN'
p1054
I8
sg20
S'Y'
sg31
g32
sS'.thisTrialN'
p1055
I2
sS'.thisN'
p1056
I122
sS'.thisIndex'
p1057
I5
sg15
(lp1058
S'k'
asg30
Vm
sg17
S'Y'
sg14
I3
sg19
Nsg94
I5
sa(dp1059
g16
(lp1060
S'k'
asg18
S'N'
sS'.thisRepN'
p1061
I8
sg20
S'Y'
sg31
g32
sS'.thisTrialN'
p1062
I3
sS'.thisN'
p1063
I123
sS'.thisIndex'
p1064
I10
sg15
(lp1065
S'k'
asg30
Vm
sg17
S'Y'
sg14
I3
sg19
Nsg94
I10
sa(dp1066
g16
(lp1067
S'd'
asg18
S'N'
sS'.thisRepN'
p1068
I8
sg20
S'Y'
sg31
g32
sS'.thisTrialN'
p1069
I4
sS'.thisN'
p1070
I124
sS'.thisIndex'
p1071
I10
sg15
(lp1072
S'd'
asg30
Vm
sg17
S'Y'
sg14
I3
sg19
Nsg94
I10
sa(dp1073
g16
(lp1074
S'd'
asg18
S'N'
sS'.thisRepN'
p1075
I8
sg20
S'Y'
sg31
g32
sS'.thisTrialN'
p1076
I5
sS'.thisN'
p1077
I125
sS'.thisIndex'
p1078
I4
sg15
(lp1079
S'd'
asg30
Vm
sg17
S'Y'
sg14
I3
sg19
Nsg94
I4
sa(dp1080
g16
(lp1081
S'd'
asg18
S'Y'
sS'.thisRepN'
p1082
I8
sg20
S'Y'
sg31
g32
sS'.thisTrialN'
p1083
I6
sS'.thisN'
p1084
I126
sS'.thisIndex'
p1085
I12
sg15
(lp1086
S'd'
asg30
Vm
sg17
S'Y'
sg14
I3
sg19
(lp1087
S'space'
p1088
asg94
I12
sa(dp1089
g16
(lp1090
S'd'
asg18
S'N'
sS'.thisRepN'
p1091
I8
sg20
S'Y'
sg31
g32
sS'.thisTrialN'
p1092
I7
sS'.thisN'
p1093
I127
sS'.thisIndex'
p1094
I3
sg15
(lp1095
S'd'
asg30
Vm
sg17
S'Y'
sg14
I3
sg19
Nsg94
I3
sa(dp1096
g16
(lp1097
S'k'
asg18
S'N'
sS'.thisRepN'
p1098
I8
sg20
S'Y'
sg31
g32
sS'.thisTrialN'
p1099
I8
sS'.thisN'
p1100
I128
sS'.thisIndex'
p1101
I2
sg15
(lp1102
S'k'
asg30
Vm
sg17
S'Y'
sg14
I3
sg19
Nsg94
I2
sa(dp1103
g16
(lp1104
S'k'
asg18
S'N'
sS'.thisRepN'
p1105
I8
sg20
S'Y'
sg31
g32
sS'.thisTrialN'
p1106
I9
sS'.thisN'
p1107
I129
sS'.thisIndex'
p1108
I0
sg15
(lp1109
S'k'
asg30
Vm
sg17
S'Y'
sg14
I3
sg19
Nsg94
I0
sa(dp1110
g16
(lp1111
S'k'
asg18
S'Y'
sS'.thisRepN'
p1112
I8
sg20
S'Y'
sg31
g32
sS'.thisTrialN'
p1113
I10
sS'.thisN'
p1114
I130
sS'.thisIndex'
p1115
I1
sg15
(lp1116
S'k'
asg30
Vm
sg17
S'Y'
sg14
I3
sg19
(lp1117
S'space'
p1118
asg94
I1
sa(dp1119
g16
(lp1120
S'k'
asg18
S'Y'
sS'.thisRepN'
p1121
I8
sg20
S'Y'
sg31
g32
sS'.thisTrialN'
p1122
I11
sS'.thisN'
p1123
I131
sS'.thisIndex'
p1124
I8
sg15
(lp1125
S'k'
asg30
Vm
sg17
S'Y'
sg14
I3
sg19
(lp1126
S'space'
p1127
asg94
I8
sa(dp1128
g16
(lp1129
S'k'
asg18
S'Y'
sS'.thisRepN'
p1130
I8
sg20
S'Y'
sg31
g32
sS'.thisTrialN'
p1131
I12
sS'.thisN'
p1132
I132
sS'.thisIndex'
p1133
I5
sg15
(lp1134
S'k'
asg30
Vm
sg17
S'Y'
sg14
I3
sg19
(lp1135
S'space'
p1136
asg94
I5
sa(dp1137
g16
(lp1138
S'd'
asg18
S'N'
sS'.thisRepN'
p1139
I8
sg20
S'Y'
sg31
g32
sS'.thisTrialN'
p1140
I13
sS'.thisN'
p1141
I133
sS'.thisIndex'
p1142
I7
sg15
(lp1143
S'd'
asg30
Vm
sg17
S'Y'
sg14
I3
sg19
Nsg94
I7
sa(dp1144
g16
(lp1145
S'd'
asg18
S'N'
sS'.thisRepN'
p1146
I8
sg20
S'Y'
sg31
g32
sS'.thisTrialN'
p1147
I14
sS'.thisN'
p1148
I134
sS'.thisIndex'
p1149
I6
sg15
(lp1150
S'd'
asg30
Vm
sg17
S'Y'
sg14
I3
sg19
Nsg94
I6
sa(dp1151
g16
(lp1152
S'k'
asg18
S'N'
sS'.thisRepN'
p1153
I9
sg20
S'Y'
sg31
g32
sS'.thisTrialN'
p1154
I0
sS'.thisN'
p1155
I135
sS'.thisIndex'
p1156
I8
sg15
(lp1157
S'k'
asg30
Vm
sg17
S'Y'
sg14
I3
sg19
Nsg94
I8
sa(dp1158
g16
(lp1159
S'k'
asg18
S'Y'
sS'.thisRepN'
p1160
I9
sg20
S'Y'
sg31
g32
sS'.thisTrialN'
p1161
I1
sS'.thisN'
p1162
I136
sS'.thisIndex'
p1163
I14
sg15
(lp1164
S'k'
asg30
Vm
sg17
S'Y'
sg14
I3
sg19
(lp1165
S'space'
p1166
asg94
I14
sa(dp1167
g16
(lp1168
S'd'
asg18
S'Y'
sS'.thisRepN'
p1169
I9
sg20
S'Y'
sg31
g32
sS'.thisTrialN'
p1170
I2
sS'.thisN'
p1171
I137
sS'.thisIndex'
p1172
I4
sg15
(lp1173
S'd'
asg30
Vm
sg17
S'Y'
sg14
I3
sg19
(lp1174
S'space'
p1175
asg94
I4
sa(dp1176
g16
(lp1177
S'k'
asg18
S'Y'
sS'.thisRepN'
p1178
I9
sg20
S'Y'
sg31
g32
sS'.thisTrialN'
p1179
I3
sS'.thisN'
p1180
I138
sS'.thisIndex'
p1181
I7
sg15
(lp1182
S'k'
asg30
Vm
sg17
S'Y'
sg14
I3
sg19
(lp1183
S'space'
p1184
asg94
I7
sa(dp1185
g16
(lp1186
S'k'
asg18
S'N'
sS'.thisRepN'
p1187
I9
sg20
S'Y'
sg31
g32
sS'.thisTrialN'
p1188
I4
sS'.thisN'
p1189
I139
sS'.thisIndex'
p1190
I10
sg15
(lp1191
S'k'
asg30
Vm
sg17
S'Y'
sg14
I3
sg19
Nsg94
I10
sa(dp1192
g16
(lp1193
S'k'
asg18
S'Y'
sS'.thisRepN'
p1194
I9
sg20
S'N'
sg31
g32
sS'.thisTrialN'
p1195
I5
sS'.thisN'
p1196
I140
sS'.thisIndex'
p1197
I3
sg15
(lp1198
S'k'
asg30
Vm
sg17
S'Y'
sg14
I3
sg19
Nsg94
I3
sa(dp1199
g16
(lp1200
S'k'
asg18
S'N'
sS'.thisRepN'
p1201
I9
sg20
S'N'
sg31
g32
sS'.thisTrialN'
p1202
I6
sS'.thisN'
p1203
I141
sS'.thisIndex'
p1204
I6
sg15
(lp1205
S'k'
asg30
Vm
sg17
S'Y'
sg14
I3
sg19
(lp1206
S'space'
p1207
asg94
I6
sa(dp1208
g16
(lp1209
S'd'
asg18
S'Y'
sS'.thisRepN'
p1210
I9
sg20
S'Y'
sg31
g32
sS'.thisTrialN'
p1211
I7
sS'.thisN'
p1212
I142
sS'.thisIndex'
p1213
I4
sg15
(lp1214
S'd'
asg30
Vm
sg17
S'Y'
sg14
I3
sg19
(lp1215
S'space'
p1216
asg94
I4
sa(dp1217
g16
(lp1218
S'd'
asg18
S'Y'
sS'.thisRepN'
p1219
I9
sg20
S'Y'
sg31
g32
sS'.thisTrialN'
p1220
I8
sS'.thisN'
p1221
I143
sS'.thisIndex'
p1222
I1
sg15
(lp1223
S'd'
asg30
Vm
sg17
S'Y'
sg14
I3
sg19
(lp1224
S'space'
p1225
asg94
I1
sa(dp1226
g16
(lp1227
S'd'
asg18
S'N'
sS'.thisRepN'
p1228
I9
sg20
S'Y'
sg31
g32
sS'.thisTrialN'
p1229
I9
sS'.thisN'
p1230
I144
sS'.thisIndex'
p1231
I2
sg15
(lp1232
S'd'
asg30
Vm
sg17
S'Y'
sg14
I3
sg19
Nsg94
I2
sa(dp1233
g16
(lp1234
S'd'
asg18
S'N'
sS'.thisRepN'
p1235
I9
sg20
S'Y'
sg31
g32
sS'.thisTrialN'
p1236
I10
sS'.thisN'
p1237
I145
sS'.thisIndex'
p1238
I3
sg15
(lp1239
S'd'
asg30
Vm
sg17
S'Y'
sg14
I3
sg19
Nsg94
I3
sa(dp1240
g16
(lp1241
S'k'
asg18
S'Y'
sS'.thisRepN'
p1242
I9
sg20
S'Y'
sg31
g32
sS'.thisTrialN'
p1243
I11
sS'.thisN'
p1244
I146
sS'.thisIndex'
p1245
I13
sg15
(lp1246
S'k'
asg30
Vm
sg17
S'Y'
sg14
I3
sg19
(lp1247
S'space'
p1248
asg94
I13
sa(dp1249
g16
(lp1250
S'd'
asg18
S'Y'
sS'.thisRepN'
p1251
I9
sg20
S'Y'
sg31
g32
sS'.thisTrialN'
p1252
I12
sS'.thisN'
p1253
I147
sS'.thisIndex'
p1254
I1
sg15
(lp1255
S'd'
asg30
Vm
sg17
S'Y'
sg14
I3
sg19
(lp1256
S'space'
p1257
asg94
I1
sa(dp1258
g16
(lp1259
S'd'
asg18
S'Y'
sS'.thisRepN'
p1260
I9
sg20
S'Y'
sg31
g32
sS'.thisTrialN'
p1261
I13
sS'.thisN'
p1262
I148
sS'.thisIndex'
p1263
I9
sg15
(lp1264
S'd'
asg30
Vm
sg17
S'Y'
sg14
I3
sg19
(lp1265
S'space'
p1266
asg94
I9
sa(dp1267
g16
(lp1268
S'k'
asg18
S'N'
sg22
I46
sS'.thisN'
p1269
I149
sg20
S'Y'
sg31
g32
sS'.thisTrialN'
p1270
I14
sS'.thisRepN'
p1271
I9
sg21
I49
sS'.thisIndex'
p1272
I12
sg23
I25
sg15
(lp1273
S'k'
asg30
Vm
sg17
S'Y'
sg14
I3
sg19
Nsg94
I12
sa(dp1274
g16
(lp1275
S'd'
asg94
I13
sS'.thisRepN'
p1276
I10
sg30
Vm
sg31
g32
sS'.thisTrialN'
p1277
I0
sS'.thisN'
p1278
I150
sS'.thisIndex'
p1279
I13
sg15
(lp1280
S'd'
asg17
S'Y'
sg14
I4
sa(dp1281
g16
(lp1282
S'd'
asg94
I14
sS'.thisRepN'
p1283
I10
sg30
Vm
sg31
g32
sS'.thisTrialN'
p1284
I1
sS'.thisN'
p1285
I151
sS'.thisIndex'
p1286
I14
sg15
(lp1287
S'd'
asg17
S'Y'
sg14
I4
sa(dp1288
g16
(lp1289
S'k'
asg18
S'N'
sS'.thisRepN'
p1290
I10
sg20
S'Y'
sg31
g32
sS'.thisTrialN'
p1291
I2
sS'.thisN'
p1292
I152
sS'.thisIndex'
p1293
I5
sg15
(lp1294
S'k'
asg30
Vm
sg17
S'Y'
sg14
I4
sg19
Nsg94
I5
sa(dp1295
g16
(lp1296
S'k'
asg18
S'N'
sS'.thisRepN'
p1297
I10
sg20
S'Y'
sg31
g32
sS'.thisTrialN'
p1298
I3
sS'.thisN'
p1299
I153
sS'.thisIndex'
p1300
I5
sg15
(lp1301
S'k'
asg30
Vm
sg17
S'Y'
sg14
I4
sg19
Nsg94
I5
sa(dp1302
g16
(lp1303
S'd'
asg18
S'N'
sS'.thisRepN'
p1304
I10
sg20
S'Y'
sg31
g32
sS'.thisTrialN'
p1305
I4
sS'.thisN'
p1306
I154
sS'.thisIndex'
p1307
I12
sg15
(lp1308
S'd'
asg30
Vm
sg17
S'Y'
sg14
I4
sg19
Nsg94
I12
sa(dp1309
g16
(lp1310
S'k'
asg18
S'Y'
sS'.thisRepN'
p1311
I10
sg20
S'Y'
sg31
g32
sS'.thisTrialN'
p1312
I5
sS'.thisN'
p1313
I155
sS'.thisIndex'
p1314
I1
sg15
(lp1315
S'k'
asg30
Vm
sg17
S'Y'
sg14
I4
sg19
(lp1316
S'space'
p1317
asg94
I1
sa(dp1318
g16
(lp1319
S'k'
asg18
S'Y'
sS'.thisRepN'
p1320
I10
sg20
S'Y'
sg31
g32
sS'.thisTrialN'
p1321
I6
sS'.thisN'
p1322
I156
sS'.thisIndex'
p1323
I10
sg15
(lp1324
S'd'
asg30
Vm
sg17
S'N'
sg14
I4
sg19
(lp1325
S'space'
p1326
asg94
I10
sa(dp1327
g16
(lp1328
S'k'
asg18
S'N'
sS'.thisRepN'
p1329
I10
sg20
S'Y'
sg31
g32
sS'.thisTrialN'
p1330
I7
sS'.thisN'
p1331
I157
sS'.thisIndex'
p1332
I0
sg15
(lp1333
S'k'
asg30
Vm
sg17
S'Y'
sg14
I4
sg19
Nsg94
I0
sa(dp1334
g16
(lp1335
S'k'
asg18
S'Y'
sS'.thisRepN'
p1336
I10
sg20
S'Y'
sg31
g32
sS'.thisTrialN'
p1337
I8
sS'.thisN'
p1338
I158
sS'.thisIndex'
p1339
I8
sg15
(lp1340
S'k'
asg30
Vm
sg17
S'Y'
sg14
I4
sg19
(lp1341
S'space'
p1342
asg94
I8
sa(dp1343
g16
(lp1344
S'd'
asg18
S'N'
sS'.thisRepN'
p1345
I10
sg20
S'Y'
sg31
g32
sS'.thisTrialN'
p1346
I9
sS'.thisN'
p1347
I159
sS'.thisIndex'
p1348
I9
sg15
(lp1349
S'd'
asg30
Vm
sg17
S'Y'
sg14
I4
sg19
Nsg94
I9
sa(dp1350
g16
(lp1351
S'k'
asg18
S'N'
sS'.thisRepN'
p1352
I10
sg20
S'Y'
sg31
g32
sS'.thisTrialN'
p1353
I10
sS'.thisN'
p1354
I160
sS'.thisIndex'
p1355
I13
sg15
(lp1356
S'k'
asg30
Vm
sg17
S'Y'
sg14
I4
sg19
Nsg94
I13
sa(dp1357
g16
(lp1358
S'k'
asg18
S'Y'
sS'.thisRepN'
p1359
I10
sg20
S'Y'
sg31
g32
sS'.thisTrialN'
p1360
I11
sS'.thisN'
p1361
I161
sS'.thisIndex'
p1362
I1
sg15
(lp1363
S'k'
asg30
Vm
sg17
S'Y'
sg14
I4
sg19
(lp1364
S'space'
p1365
asg94
I1
sa(dp1366
g16
(lp1367
S'd'
asg18
S'Y'
sS'.thisRepN'
p1368
I10
sg20
S'Y'
sg31
g32
sS'.thisTrialN'
p1369
I12
sS'.thisN'
p1370
I162
sS'.thisIndex'
p1371
I5
sg15
(lp1372
S'd'
asg30
Vm
sg17
S'Y'
sg14
I4
sg19
(lp1373
S'space'
p1374
asg94
I5
sa(dp1375
g16
(lp1376
S'd'
asg18
S'N'
sS'.thisRepN'
p1377
I10
sg20
S'Y'
sg31
g32
sS'.thisTrialN'
p1378
I13
sS'.thisN'
p1379
I163
sS'.thisIndex'
p1380
I14
sg15
(lp1381
S'd'
asg30
Vm
sg17
S'Y'
sg14
I4
sg19
Nsg94
I14
sa(dp1382
g16
(lp1383
S'd'
asg18
S'N'
sS'.thisRepN'
p1384
I10
sg20
S'Y'
sg31
g32
sS'.thisTrialN'
p1385
I14
sS'.thisN'
p1386
I164
sS'.thisIndex'
p1387
I0
sg15
(lp1388
S'd'
asg30
Vm
sg17
S'Y'
sg14
I4
sg19
Nsg94
I0
sa(dp1389
g16
(lp1390
S'd'
asg18
S'N'
sS'.thisRepN'
p1391
I11
sg20
S'Y'
sg31
g32
sS'.thisTrialN'
p1392
I0
sS'.thisN'
p1393
I165
sS'.thisIndex'
p1394
I0
sg15
(lp1395
S'd'
asg30
Vm
sg17
S'Y'
sg14
I4
sg19
Nsg94
I0
sa(dp1396
g16
(lp1397
S'k'
asg18
S'N'
sS'.thisRepN'
p1398
I11
sg20
S'Y'
sg31
g32
sS'.thisTrialN'
p1399
I1
sS'.thisN'
p1400
I166
sS'.thisIndex'
p1401
I7
sg15
(lp1402
S'k'
asg30
Vm
sg17
S'Y'
sg14
I4
sg19
Nsg94
I7
sa(dp1403
g16
(lp1404
S'd'
asg18
S'Y'
sS'.thisRepN'
p1405
I11
sg20
S'Y'
sg31
g32
sS'.thisTrialN'
p1406
I2
sS'.thisN'
p1407
I167
sS'.thisIndex'
p1408
I0
sg15
(lp1409
S'd'
asg30
Vm
sg17
S'Y'
sg14
I4
sg19
(lp1410
S'space'
p1411
asg94
I0
sa(dp1412
g16
(lp1413
S'k'
asg18
S'Y'
sS'.thisRepN'
p1414
I11
sg20
S'Y'
sg31
g32
sS'.thisTrialN'
p1415
I3
sS'.thisN'
p1416
I168
sS'.thisIndex'
p1417
I13
sg15
(lp1418
S'k'
asg30
Vm
sg17
S'Y'
sg14
I4
sg19
(lp1419
S'space'
p1420
asg94
I13
sa(dp1421
g16
(lp1422
S'd'
asg18
S'Y'
sS'.thisRepN'
p1423
I11
sg20
S'Y'
sg31
g32
sS'.thisTrialN'
p1424
I4
sS'.thisN'
p1425
I169
sS'.thisIndex'
p1426
I12
sg15
(lp1427
S'd'
asg30
Vm
sg17
S'Y'
sg14
I4
sg19
(lp1428
S'space'
p1429
asg94
I12
sa(dp1430
g16
(lp1431
S'd'
asg18
S'Y'
sS'.thisRepN'
p1432
I11
sg20
S'Y'
sg31
g32
sS'.thisTrialN'
p1433
I5
sS'.thisN'
p1434
I170
sS'.thisIndex'
p1435
I1
sg15
(lp1436
S'd'
asg30
Vm
sg17
S'Y'
sg14
I4
sg19
(lp1437
S'space'
p1438
asg94
I1
sa(dp1439
g16
(lp1440
S'k'
asg18
S'Y'
sS'.thisRepN'
p1441
I11
sg20
S'Y'
sg31
g32
sS'.thisTrialN'
p1442
I6
sS'.thisN'
p1443
I171
sS'.thisIndex'
p1444
I10
sg15
(lp1445
S'k'
asg30
Vm
sg17
S'Y'
sg14
I4
sg19
(lp1446
S'space'
p1447
asg94
I10
sa(dp1448
g16
(lp1449
S'd'
asg18
S'N'
sS'.thisRepN'
p1450
I11
sg20
S'Y'
sg31
g32
sS'.thisTrialN'
p1451
I7
sS'.thisN'
p1452
I172
sS'.thisIndex'
p1453
I2
sg15
(lp1454
S'd'
asg30
Vm
sg17
S'Y'
sg14
I4
sg19
Nsg94
I2
sa(dp1455
g16
(lp1456
S'd'
asg18
S'N'
sS'.thisRepN'
p1457
I11
sg20
S'Y'
sg31
g32
sS'.thisTrialN'
p1458
I8
sS'.thisN'
p1459
I173
sS'.thisIndex'
p1460
I1
sg15
(lp1461
S'd'
asg30
Vm
sg17
S'Y'
sg14
I4
sg19
Nsg94
I1
sa(dp1462
g16
(lp1463
S'k'
asg18
S'Y'
sS'.thisRepN'
p1464
I11
sg20
S'Y'
sg31
g32
sS'.thisTrialN'
p1465
I9
sS'.thisN'
p1466
I174
sS'.thisIndex'
p1467
I8
sg15
(lp1468
S'k'
asg30
Vm
sg17
S'Y'
sg14
I4
sg19
(lp1469
S'space'
p1470
asg94
I8
sa(dp1471
g16
(lp1472
S'd'
asg18
S'Y'
sS'.thisRepN'
p1473
I11
sg20
S'Y'
sg31
g32
sS'.thisTrialN'
p1474
I10
sS'.thisN'
p1475
I175
sS'.thisIndex'
p1476
I14
sg15
(lp1477
S'd'
asg30
Vm
sg17
S'Y'
sg14
I4
sg19
(lp1478
S'space'
p1479
asg94
I14
sa(dp1480
g16
(lp1481
S'd'
asg18
S'Y'
sS'.thisRepN'
p1482
I11
sg20
S'Y'
sg31
g32
sS'.thisTrialN'
p1483
I11
sS'.thisN'
p1484
I176
sS'.thisIndex'
p1485
I12
sg15
(lp1486
S'd'
asg30
Vm
sg17
S'Y'
sg14
I4
sg19
(lp1487
S'space'
p1488
asg94
I12
sa(dp1489
g16
(lp1490
S'k'
asg18
S'Y'
sS'.thisRepN'
p1491
I11
sg20
S'Y'
sg31
g32
sS'.thisTrialN'
p1492
I12
sS'.thisN'
p1493
I177
sS'.thisIndex'
p1494
I13
sg15
(lp1495
S'k'
asg30
Vm
sg17
S'Y'
sg14
I4
sg19
(lp1496
S'space'
p1497
asg94
I13
sa(dp1498
g16
(lp1499
S'd'
asg18
S'Y'
sS'.thisRepN'
p1500
I11
sg20
S'Y'
sg31
g32
sS'.thisTrialN'
p1501
I13
sS'.thisN'
p1502
I178
sS'.thisIndex'
p1503
I1
sg15
(lp1504
S'd'
asg30
Vm
sg17
S'Y'
sg14
I4
sg19
(lp1505
S'space'
p1506
asg94
I1
sa(dp1507
g16
(lp1508
S'd'
asg18
S'Y'
sS'.thisRepN'
p1509
I11
sg20
S'Y'
sg31
g32
sS'.thisTrialN'
p1510
I14
sS'.thisN'
p1511
I179
sS'.thisIndex'
p1512
I1
sg15
(lp1513
S'd'
asg30
Vm
sg17
S'Y'
sg14
I4
sg19
(lp1514
S'space'
p1515
asg94
I1
sa(dp1516
g16
(lp1517
S'k'
asg18
S'Y'
sS'.thisRepN'
p1518
I12
sg20
S'Y'
sg31
g32
sS'.thisTrialN'
p1519
I0
sS'.thisN'
p1520
I180
sS'.thisIndex'
p1521
I6
sg15
(lp1522
S'k'
asg30
Vm
sg17
S'Y'
sg14
I4
sg19
(lp1523
S'space'
p1524
asg94
I6
sa(dp1525
g16
(lp1526
S'k'
asg18
S'N'
sS'.thisRepN'
p1527
I12
sg20
S'Y'
sg31
g32
sS'.thisTrialN'
p1528
I1
sS'.thisN'
p1529
I181
sS'.thisIndex'
p1530
I6
sg15
(lp1531
S'k'
asg30
Vm
sg17
S'Y'
sg14
I4
sg19
Nsg94
I6
sa(dp1532
g16
(lp1533
S'k'
asg18
S'N'
sS'.thisRepN'
p1534
I12
sg20
S'Y'
sg31
g32
sS'.thisTrialN'
p1535
I2
sS'.thisN'
p1536
I182
sS'.thisIndex'
p1537
I0
sg15
(lp1538
S'k'
asg30
Vm
sg17
S'Y'
sg14
I4
sg19
Nsg94
I0
sa(dp1539
g16
(lp1540
S'd'
asg18
S'N'
sS'.thisRepN'
p1541
I12
sg20
S'Y'
sg31
g32
sS'.thisTrialN'
p1542
I3
sS'.thisN'
p1543
I183
sS'.thisIndex'
p1544
I10
sg15
(lp1545
S'd'
asg30
Vm
sg17
S'Y'
sg14
I4
sg19
Nsg94
I10
sa(dp1546
g16
(lp1547
S'd'
asg18
S'N'
sS'.thisRepN'
p1548
I12
sg20
S'Y'
sg31
g32
sS'.thisTrialN'
p1549
I4
sS'.thisN'
p1550
I184
sS'.thisIndex'
p1551
I6
sg15
(lp1552
S'd'
asg30
Vm
sg17
S'Y'
sg14
I4
sg19
Nsg94
I6
sa(dp1553
g16
(lp1554
S'd'
asg18
S'N'
sS'.thisRepN'
p1555
I12
sg20
S'Y'
sg31
g32
sS'.thisTrialN'
p1556
I5
sS'.thisN'
p1557
I185
sS'.thisIndex'
p1558
I14
sg15
(lp1559
S'd'
asg30
Vm
sg17
S'Y'
sg14
I4
sg19
Nsg94
I14
sa(dp1560
g16
(lp1561
S'd'
asg18
S'Y'
sS'.thisRepN'
p1562
I12
sg20
S'Y'
sg31
g32
sS'.thisTrialN'
p1563
I6
sS'.thisN'
p1564
I186
sS'.thisIndex'
p1565
I6
sg15
(lp1566
S'd'
asg30
Vm
sg17
S'Y'
sg14
I4
sg19
(lp1567
S'space'
p1568
asg94
I6
sa(dp1569
g16
(lp1570
S'k'
asg18
S'Y'
sS'.thisRepN'
p1571
I12
sg20
S'Y'
sg31
g32
sS'.thisTrialN'
p1572
I7
sS'.thisN'
p1573
I187
sS'.thisIndex'
p1574
I2
sg15
(lp1575
S'k'
asg30
Vm
sg17
S'Y'
sg14
I4
sg19
(lp1576
S'space'
p1577
asg94
I2
sa(dp1578
g16
(lp1579
S'd'
asg18
S'Y'
sS'.thisRepN'
p1580
I12
sg20
S'Y'
sg31
g32
sS'.thisTrialN'
p1581
I8
sS'.thisN'
p1582
I188
sS'.thisIndex'
p1583
I6
sg15
(lp1584
S'd'
asg30
Vm
sg17
S'Y'
sg14
I4
sg19
(lp1585
S'space'
p1586
asg94
I6
sa(dp1587
g16
(lp1588
S'd'
asg18
S'Y'
sS'.thisRepN'
p1589
I12
sg20
S'Y'
sg31
g32
sS'.thisTrialN'
p1590
I9
sS'.thisN'
p1591
I189
sS'.thisIndex'
p1592
I12
sg15
(lp1593
S'd'
asg30
Vm
sg17
S'Y'
sg14
I4
sg19
(lp1594
S'space'
p1595
asg94
I12
sa(dp1596
g16
(lp1597
S'd'
asg18
S'N'
sS'.thisRepN'
p1598
I12
sg20
S'Y'
sg31
g32
sS'.thisTrialN'
p1599
I10
sS'.thisN'
p1600
I190
sS'.thisIndex'
p1601
I12
sg15
(lp1602
S'd'
asg30
Vm
sg17
S'Y'
sg14
I4
sg19
Nsg94
I12
sa(dp1603
g16
(lp1604
S'd'
asg18
S'N'
sS'.thisRepN'
p1605
I12
sg20
S'Y'
sg31
g32
sS'.thisTrialN'
p1606
I11
sS'.thisN'
p1607
I191
sS'.thisIndex'
p1608
I13
sg15
(lp1609
S'd'
asg30
Vm
sg17
S'Y'
sg14
I4
sg19
Nsg94
I13
sa(dp1610
g16
(lp1611
S'k'
asg18
S'N'
sS'.thisRepN'
p1612
I12
sg20
S'Y'
sg31
g32
sS'.thisTrialN'
p1613
I12
sS'.thisN'
p1614
I192
sS'.thisIndex'
p1615
I10
sg15
(lp1616
S'k'
asg30
Vm
sg17
S'Y'
sg14
I4
sg19
Nsg94
I10
sa(dp1617
g16
(lp1618
S'k'
asg18
S'Y'
sS'.thisRepN'
p1619
I12
sg20
S'Y'
sg31
g32
sS'.thisTrialN'
p1620
I13
sS'.thisN'
p1621
I193
sS'.thisIndex'
p1622
I6
sg15
(lp1623
S'k'
asg30
Vm
sg17
S'Y'
sg14
I4
sg19
(lp1624
S'space'
p1625
asg94
I6
sa(dp1626
g16
(lp1627
S'd'
asg18
S'Y'
sS'.thisRepN'
p1628
I12
sg20
S'N'
sg31
g32
sS'.thisTrialN'
p1629
I14
sS'.thisN'
p1630
I194
sS'.thisIndex'
p1631
I3
sg15
(lp1632
S'd'
asg30
Vm
sg17
S'Y'
sg14
I4
sg19
Nsg94
I3
sa(dp1633
g16
(lp1634
S'd'
asg18
S'Y'
sS'.thisRepN'
p1635
I13
sg20
S'Y'
sg31
g32
sS'.thisTrialN'
p1636
I0
sS'.thisN'
p1637
I195
sS'.thisIndex'
p1638
I6
sg15
(lp1639
S'd'
asg30
Vm
sg17
S'Y'
sg14
I4
sg19
(lp1640
S'space'
p1641
asg94
I6
sa(dp1642
g16
(lp1643
S'k'
asg18
S'Y'
sS'.thisRepN'
p1644
I13
sg20
S'Y'
sg31
g32
sS'.thisTrialN'
p1645
I1
sS'.thisN'
p1646
I196
sS'.thisIndex'
p1647
I1
sg15
(lp1648
S'd'
asg30
Vm
sg17
S'N'
sg14
I4
sg19
(lp1649
S'space'
p1650
asg94
I1
sa(dp1651
g16
(lp1652
S'd'
asg18
S'N'
sS'.thisRepN'
p1653
I13
sg20
S'Y'
sg31
g32
sS'.thisTrialN'
p1654
I2
sS'.thisN'
p1655
I197
sS'.thisIndex'
p1656
I8
sg15
(lp1657
S'd'
asg30
Vm
sg17
S'Y'
sg14
I4
sg19
Nsg94
I8
sa(dp1658
g16
(lp1659
S'd'
asg18
S'N'
sS'.thisRepN'
p1660
I13
sg20
S'Y'
sg31
g32
sS'.thisTrialN'
p1661
I3
sS'.thisN'
p1662
I198
sS'.thisIndex'
p1663
I9
sg15
(lp1664
S'd'
asg30
Vm
sg17
S'Y'
sg14
I4
sg19
Nsg94
I9
sa(dp1665
g16
(lp1666
S'k'
asg18
S'N'
sg22
I47
sS'.thisN'
p1667
I199
sg20
S'Y'
sg31
g32
sS'.thisTrialN'
p1668
I4
sS'.thisRepN'
p1669
I13
sg21
I48
sS'.thisIndex'
p1670
I8
sg23
I25
sg15
(lp1671
S'k'
asg30
Vm
sg17
S'Y'
sg14
I4
sg19
Nsg94
I8
sa(dp1672
g16
(lp1673
S'k'
asg94
I14
sS'.thisRepN'
p1674
I13
sg30
Vm
sg31
g32
sS'.thisTrialN'
p1675
I5
sS'.thisN'
p1676
I200
sS'.thisIndex'
p1677
I14
sg15
(lp1678
S'k'
asg17
S'Y'
sg14
I5
sa(dp1679
g16
(lp1680
S'k'
asg94
I6
sS'.thisRepN'
p1681
I13
sg30
Vm
sg31
g32
sS'.thisTrialN'
p1682
I6
sS'.thisN'
p1683
I201
sS'.thisIndex'
p1684
I6
sg15
(lp1685
S'k'
asg17
S'Y'
sg14
I5
sa(dp1686
g16
(lp1687
S'd'
asg18
S'N'
sS'.thisRepN'
p1688
I13
sg20
S'Y'
sg31
g32
sS'.thisTrialN'
p1689
I7
sS'.thisN'
p1690
I202
sS'.thisIndex'
p1691
I0
sg15
(lp1692
S'd'
asg30
Vm
sg17
S'Y'
sg14
I5
sg19
Nsg94
I0
sa(dp1693
g16
(lp1694
S'd'
asg18
S'N'
sS'.thisRepN'
p1695
I13
sg20
S'Y'
sg31
g32
sS'.thisTrialN'
p1696
I8
sS'.thisN'
p1697
I203
sS'.thisIndex'
p1698
I2
sg15
(lp1699
S'd'
asg30
Vm
sg17
S'Y'
sg14
I5
sg19
Nsg94
I2
sa(dp1700
g16
(lp1701
S'd'
asg18
S'Y'
sS'.thisRepN'
p1702
I13
sg20
S'Y'
sg31
g32
sS'.thisTrialN'
p1703
I9
sS'.thisN'
p1704
I204
sS'.thisIndex'
p1705
I6
sg15
(lp1706
S'd'
asg30
Vm
sg17
S'Y'
sg14
I5
sg19
(lp1707
S'space'
p1708
asg94
I6
sa(dp1709
g16
(lp1710
S'd'
asg18
S'N'
sS'.thisRepN'
p1711
I13
sg20
S'Y'
sg31
g32
sS'.thisTrialN'
p1712
I10
sS'.thisN'
p1713
I205
sS'.thisIndex'
p1714
I3
sg15
(lp1715
S'd'
asg30
Vm
sg17
S'Y'
sg14
I5
sg19
Nsg94
I3
sa(dp1716
g16
(lp1717
S'd'
asg18
S'N'
sS'.thisRepN'
p1718
I13
sg20
S'Y'
sg31
g32
sS'.thisTrialN'
p1719
I11
sS'.thisN'
p1720
I206
sS'.thisIndex'
p1721
I3
sg15
(lp1722
S'd'
asg30
Vm
sg17
S'Y'
sg14
I5
sg19
Nsg94
I3
sa(dp1723
g16
(lp1724
S'k'
asg18
S'Y'
sS'.thisRepN'
p1725
I13
sg20
S'Y'
sg31
g32
sS'.thisTrialN'
p1726
I12
sS'.thisN'
p1727
I207
sS'.thisIndex'
p1728
I7
sg15
(lp1729
S'd'
asg30
Vm
sg17
S'N'
sg14
I5
sg19
(lp1730
S'space'
p1731
asg94
I7
sa(dp1732
g16
(lp1733
S'd'
asg18
S'N'
sS'.thisRepN'
p1734
I13
sg20
S'Y'
sg31
g32
sS'.thisTrialN'
p1735
I13
sS'.thisN'
p1736
I208
sS'.thisIndex'
p1737
I9
sg15
(lp1738
S'd'
asg30
Vm
sg17
S'Y'
sg14
I5
sg19
Nsg94
I9
sa(dp1739
g16
(lp1740
S'k'
asg18
S'N'
sS'.thisRepN'
p1741
I13
sg20
S'Y'
sg31
g32
sS'.thisTrialN'
p1742
I14
sS'.thisN'
p1743
I209
sS'.thisIndex'
p1744
I8
sg15
(lp1745
S'k'
asg30
Vm
sg17
S'Y'
sg14
I5
sg19
Nsg94
I8
sa(dp1746
g16
(lp1747
S'k'
asg18
S'N'
sS'.thisRepN'
p1748
I14
sg20
S'Y'
sg31
g32
sS'.thisTrialN'
p1749
I0
sS'.thisN'
p1750
I210
sS'.thisIndex'
p1751
I8
sg15
(lp1752
S'k'
asg30
Vm
sg17
S'Y'
sg14
I5
sg19
Nsg94
I8
sa(dp1753
g16
(lp1754
S'd'
asg18
S'N'
sS'.thisRepN'
p1755
I14
sg20
S'Y'
sg31
g32
sS'.thisTrialN'
p1756
I1
sS'.thisN'
p1757
I211
sS'.thisIndex'
p1758
I3
sg15
(lp1759
S'd'
asg30
Vm
sg17
S'Y'
sg14
I5
sg19
Nsg94
I3
sa(dp1760
g16
(lp1761
S'k'
asg18
S'N'
sS'.thisRepN'
p1762
I14
sg20
S'Y'
sg31
g32
sS'.thisTrialN'
p1763
I2
sS'.thisN'
p1764
I212
sS'.thisIndex'
p1765
I6
sg15
(lp1766
S'k'
asg30
Vm
sg17
S'Y'
sg14
I5
sg19
Nsg94
I6
sa(dp1767
g16
(lp1768
S'k'
asg18
S'Y'
sS'.thisRepN'
p1769
I14
sg20
S'Y'
sg31
g32
sS'.thisTrialN'
p1770
I3
sS'.thisN'
p1771
I213
sS'.thisIndex'
p1772
I5
sg15
(lp1773
S'd'
asg30
Vm
sg17
S'N'
sg14
I5
sg19
(lp1774
S'space'
p1775
asg94
I5
sa(dp1776
g16
(lp1777
S'd'
asg18
S'N'
sS'.thisRepN'
p1778
I14
sg20
S'Y'
sg31
g32
sS'.thisTrialN'
p1779
I4
sS'.thisN'
p1780
I214
sS'.thisIndex'
p1781
I2
sg15
(lp1782
S'd'
asg30
Vm
sg17
S'Y'
sg14
I5
sg19
Nsg94
I2
sa(dp1783
g16
(lp1784
S'k'
asg18
S'N'
sS'.thisRepN'
p1785
I14
sg20
S'Y'
sg31
g32
sS'.thisTrialN'
p1786
I5
sS'.thisN'
p1787
I215
sS'.thisIndex'
p1788
I3
sg15
(lp1789
S'd'
asg30
Vm
sg17
S'N'
sg14
I5
sg19
Nsg94
I3
sa(dp1790
g16
(lp1791
S'k'
asg18
S'Y'
sS'.thisRepN'
p1792
I14
sg20
S'Y'
sg31
g32
sS'.thisTrialN'
p1793
I6
sS'.thisN'
p1794
I216
sS'.thisIndex'
p1795
I7
sg15
(lp1796
S'k'
asg30
Vm
sg17
S'Y'
sg14
I5
sg19
(lp1797
S'space'
p1798
asg94
I7
sa(dp1799
g16
(lp1800
S'k'
asg18
S'N'
sS'.thisRepN'
p1801
I14
sg20
S'Y'
sg31
g32
sS'.thisTrialN'
p1802
I7
sS'.thisN'
p1803
I217
sS'.thisIndex'
p1804
I0
sg15
(lp1805
S'k'
asg30
Vm
sg17
S'Y'
sg14
I5
sg19
Nsg94
I0
sa(dp1806
g16
(lp1807
S'k'
asg18
S'Y'
sS'.thisRepN'
p1808
I14
sg20
S'N'
sg31
g32
sS'.thisTrialN'
p1809
I8
sS'.thisN'
p1810
I218
sS'.thisIndex'
p1811
I11
sg15
(lp1812
S'k'
asg30
Vm
sg17
S'Y'
sg14
I5
sg19
Nsg94
I11
sa(dp1813
g16
(lp1814
S'd'
asg18
S'N'
sS'.thisRepN'
p1815
I14
sg20
S'Y'
sg31
g32
sS'.thisTrialN'
p1816
I9
sS'.thisN'
p1817
I219
sS'.thisIndex'
p1818
I11
sg15
(lp1819
S'd'
asg30
Vm
sg17
S'Y'
sg14
I5
sg19
Nsg94
I11
sa(dp1820
g16
(lp1821
S'k'
asg18
S'Y'
sS'.thisRepN'
p1822
I14
sg20
S'Y'
sg31
g32
sS'.thisTrialN'
p1823
I10
sS'.thisN'
p1824
I220
sS'.thisIndex'
p1825
I9
sg15
(lp1826
S'k'
asg30
Vm
sg17
S'Y'
sg14
I5
sg19
(lp1827
S'space'
p1828
asg94
I9
sa(dp1829
g16
(lp1830
S'd'
asg18
S'Y'
sS'.thisRepN'
p1831
I14
sg20
S'Y'
sg31
g32
sS'.thisTrialN'
p1832
I11
sS'.thisN'
p1833
I221
sS'.thisIndex'
p1834
I2
sg15
(lp1835
S'd'
asg30
Vm
sg17
S'Y'
sg14
I5
sg19
(lp1836
S'space'
p1837
asg94
I2
sa(dp1838
g16
(lp1839
S'k'
asg18
S'N'
sS'.thisRepN'
p1840
I14
sg20
S'Y'
sg31
g32
sS'.thisTrialN'
p1841
I12
sS'.thisN'
p1842
I222
sS'.thisIndex'
p1843
I6
sg15
(lp1844
S'k'
asg30
Vm
sg17
S'Y'
sg14
I5
sg19
Nsg94
I6
sa(dp1845
g16
(lp1846
S'k'
asg18
S'N'
sS'.thisRepN'
p1847
I14
sg20
S'Y'
sg31
g32
sS'.thisTrialN'
p1848
I13
sS'.thisN'
p1849
I223
sS'.thisIndex'
p1850
I14
sg15
(lp1851
S'k'
asg30
Vm
sg17
S'Y'
sg14
I5
sg19
Nsg94
I14
sa(dp1852
g16
(lp1853
S'd'
asg18
S'N'
sS'.thisRepN'
p1854
I14
sg20
S'Y'
sg31
g32
sS'.thisTrialN'
p1855
I14
sS'.thisN'
p1856
I224
sS'.thisIndex'
p1857
I4
sg15
(lp1858
S'd'
asg30
Vm
sg17
S'Y'
sg14
I5
sg19
Nsg94
I4
sa(dp1859
g16
(lp1860
S'k'
asg18
S'Y'
sS'.thisRepN'
p1861
I15
sg20
S'Y'
sg31
g32
sS'.thisTrialN'
p1862
I0
sS'.thisN'
p1863
I225
sS'.thisIndex'
p1864
I1
sg15
(lp1865
S'k'
asg30
Vm
sg17
S'Y'
sg14
I5
sg19
(lp1866
S'space'
p1867
asg94
I1
sa(dp1868
g16
(lp1869
S'd'
asg18
S'N'
sS'.thisRepN'
p1870
I15
sg20
S'Y'
sg31
g32
sS'.thisTrialN'
p1871
I1
sS'.thisN'
p1872
I226
sS'.thisIndex'
p1873
I10
sg15
(lp1874
S'd'
asg30
Vm
sg17
S'Y'
sg14
I5
sg19
Nsg94
I10
sa(dp1875
g16
(lp1876
S'k'
asg18
S'Y'
sS'.thisRepN'
p1877
I15
sg20
S'Y'
sg31
g32
sS'.thisTrialN'
p1878
I2
sS'.thisN'
p1879
I227
sS'.thisIndex'
p1880
I4
sg15
(lp1881
S'k'
asg30
Vm
sg17
S'Y'
sg14
I5
sg19
(lp1882
S'space'
p1883
asg94
I4
sa(dp1884
g16
(lp1885
S'd'
asg18
S'Y'
sS'.thisRepN'
p1886
I15
sg20
S'Y'
sg31
g32
sS'.thisTrialN'
p1887
I3
sS'.thisN'
p1888
I228
sS'.thisIndex'
p1889
I14
sg15
(lp1890
S'd'
asg30
Vm
sg17
S'Y'
sg14
I5
sg19
(lp1891
S'space'
p1892
asg94
I14
sa(dp1893
g16
(lp1894
S'd'
asg18
S'N'
sS'.thisRepN'
p1895
I15
sg20
S'Y'
sg31
g32
sS'.thisTrialN'
p1896
I4
sS'.thisN'
p1897
I229
sS'.thisIndex'
p1898
I0
sg15
(lp1899
S'd'
asg30
Vm
sg17
S'Y'
sg14
I5
sg19
Nsg94
I0
sa(dp1900
g16
(lp1901
S'd'
asg18
S'Y'
sS'.thisRepN'
p1902
I15
sg20
S'Y'
sg31
g32
sS'.thisTrialN'
p1903
I5
sS'.thisN'
p1904
I230
sS'.thisIndex'
p1905
I5
sg15
(lp1906
S'd'
asg30
Vm
sg17
S'Y'
sg14
I5
sg19
(lp1907
S'space'
p1908
asg94
I5
sa(dp1909
g16
(lp1910
S'k'
asg18
S'Y'
sS'.thisRepN'
p1911
I15
sg20
S'Y'
sg31
g32
sS'.thisTrialN'
p1912
I6
sS'.thisN'
p1913
I231
sS'.thisIndex'
p1914
I6
sg15
(lp1915
S'k'
asg30
Vm
sg17
S'Y'
sg14
I5
sg19
(lp1916
S'space'
p1917
asg94
I6
sa(dp1918
g16
(lp1919
S'd'
asg18
S'N'
sS'.thisRepN'
p1920
I15
sg20
S'Y'
sg31
g32
sS'.thisTrialN'
p1921
I7
sS'.thisN'
p1922
I232
sS'.thisIndex'
p1923
I11
sg15
(lp1924
S'd'
asg30
Vm
sg17
S'Y'
sg14
I5
sg19
Nsg94
I11
sa(dp1925
g16
(lp1926
S'd'
asg18
S'Y'
sS'.thisRepN'
p1927
I15
sg20
S'Y'
sg31
g32
sS'.thisTrialN'
p1928
I8
sS'.thisN'
p1929
I233
sS'.thisIndex'
p1930
I2
sg15
(lp1931
S'd'
asg30
Vm
sg17
S'Y'
sg14
I5
sg19
(lp1932
S'space'
p1933
asg94
I2
sa(dp1934
g16
(lp1935
S'k'
asg18
S'N'
sS'.thisRepN'
p1936
I15
sg20
S'Y'
sg31
g32
sS'.thisTrialN'
p1937
I9
sS'.thisN'
p1938
I234
sS'.thisIndex'
p1939
I1
sg15
(lp1940
S'k'
asg30
Vm
sg17
S'Y'
sg14
I5
sg19
Nsg94
I1
sa(dp1941
g16
(lp1942
S'k'
asg18
S'N'
sS'.thisRepN'
p1943
I15
sg20
S'Y'
sg31
g32
sS'.thisTrialN'
p1944
I10
sS'.thisN'
p1945
I235
sS'.thisIndex'
p1946
I4
sg15
(lp1947
S'd'
asg30
Vm
sg17
S'N'
sg14
I5
sg19
Nsg94
I4
sa(dp1948
g16
(lp1949
S'd'
asg18
S'N'
sS'.thisRepN'
p1950
I15
sg20
S'Y'
sg31
g32
sS'.thisTrialN'
p1951
I11
sS'.thisN'
p1952
I236
sS'.thisIndex'
p1953
I1
sg15
(lp1954
S'd'
asg30
Vm
sg17
S'Y'
sg14
I5
sg19
Nsg94
I1
sa(dp1955
g16
(lp1956
S'k'
asg18
S'N'
sS'.thisRepN'
p1957
I15
sg20
S'Y'
sg31
g32
sS'.thisTrialN'
p1958
I12
sS'.thisN'
p1959
I237
sS'.thisIndex'
p1960
I7
sg15
(lp1961
S'k'
asg30
Vm
sg17
S'Y'
sg14
I5
sg19
Nsg94
I7
sa(dp1962
g16
(lp1963
S'd'
asg18
S'N'
sS'.thisRepN'
p1964
I15
sg20
S'Y'
sg31
g32
sS'.thisTrialN'
p1965
I13
sS'.thisN'
p1966
I238
sS'.thisIndex'
p1967
I2
sg15
(lp1968
S'd'
asg30
Vm
sg17
S'Y'
sg14
I5
sg19
Nsg94
I2
sa(dp1969
g16
(lp1970
S'k'
asg18
S'N'
sS'.thisRepN'
p1971
I15
sg20
S'Y'
sg31
g32
sS'.thisTrialN'
p1972
I14
sS'.thisN'
p1973
I239
sS'.thisIndex'
p1974
I2
sg15
(lp1975
S'k'
asg30
Vm
sg17
S'Y'
sg14
I5
sg19
Nsg94
I2
sa(dp1976
g16
(lp1977
S'k'
asg18
S'N'
sS'.thisRepN'
p1978
I16
sg20
S'Y'
sg31
g32
sS'.thisTrialN'
p1979
I0
sS'.thisN'
p1980
I240
sS'.thisIndex'
p1981
I8
sg15
(lp1982
S'k'
asg30
Vm
sg17
S'Y'
sg14
I5
sg19
Nsg94
I8
sa(dp1983
g16
(lp1984
S'd'
asg18
S'Y'
sS'.thisRepN'
p1985
I16
sg20
S'Y'
sg31
g32
sS'.thisTrialN'
p1986
I1
sS'.thisN'
p1987
I241
sS'.thisIndex'
p1988
I11
sg15
(lp1989
S'd'
asg30
Vm
sg17
S'Y'
sg14
I5
sg19
(lp1990
S'space'
p1991
asg94
I11
sa(dp1992
g16
(lp1993
S'k'
asg18
S'Y'
sS'.thisRepN'
p1994
I16
sg20
S'Y'
sg31
g32
sS'.thisTrialN'
p1995
I2
sS'.thisN'
p1996
I242
sS'.thisIndex'
p1997
I7
sg15
(lp1998
S'k'
asg30
Vm
sg17
S'Y'
sg14
I5
sg19
(lp1999
S'space'
p2000
asg94
I7
sa(dp2001
g16
(lp2002
S'k'
asg18
S'N'
sS'.thisRepN'
p2003
I16
sg20
S'Y'
sg31
g32
sS'.thisTrialN'
p2004
I3
sS'.thisN'
p2005
I243
sS'.thisIndex'
p2006
I2
sg15
(lp2007
S'k'
asg30
Vm
sg17
S'Y'
sg14
I5
sg19
Nsg94
I2
sa(dp2008
g16
(lp2009
S'k'
asg18
S'Y'
sS'.thisRepN'
p2010
I16
sg20
S'N'
sg31
g32
sS'.thisTrialN'
p2011
I4
sS'.thisN'
p2012
I244
sS'.thisIndex'
p2013
I6
sg15
(lp2014
S'k'
asg30
Vm
sg17
S'Y'
sg14
I5
sg19
Nsg94
I6
sa(dp2015
g16
(lp2016
S'k'
asg18
S'Y'
sS'.thisRepN'
p2017
I16
sg20
S'Y'
sg31
g32
sS'.thisTrialN'
p2018
I5
sS'.thisN'
p2019
I245
sS'.thisIndex'
p2020
I6
sg15
(lp2021
S'k'
asg30
Vm
sg17
S'Y'
sg14
I5
sg19
(lp2022
S'space'
p2023
asg94
I6
sa(dp2024
g16
(lp2025
S'd'
asg18
S'Y'
sS'.thisRepN'
p2026
I16
sg20
S'Y'
sg31
g32
sS'.thisTrialN'
p2027
I6
sS'.thisN'
p2028
I246
sS'.thisIndex'
p2029
I0
sg15
(lp2030
S'd'
asg30
Vm
sg17
S'Y'
sg14
I5
sg19
(lp2031
S'space'
p2032
asg94
I0
sa(dp2033
g16
(lp2034
S'k'
asg18
S'N'
sS'.thisRepN'
p2035
I16
sg20
S'Y'
sg31
g32
sS'.thisTrialN'
p2036
I7
sS'.thisN'
p2037
I247
sS'.thisIndex'
p2038
I4
sg15
(lp2039
S'k'
asg30
Vm
sg17
S'Y'
sg14
I5
sg19
Nsg94
I4
sa(dp2040
g16
(lp2041
S'k'
asg18
S'Y'
sS'.thisRepN'
p2042
I16
sg20
S'Y'
sg31
g32
sS'.thisTrialN'
p2043
I8
sS'.thisN'
p2044
I248
sS'.thisIndex'
p2045
I7
sg15
(lp2046
S'k'
asg30
Vm
sg17
S'Y'
sg14
I5
sg19
(lp2047
S'space'
p2048
asg94
I7
sa(dp2049
g16
(lp2050
S'd'
asg18
S'N'
sg22
I46
sS'.thisN'
p2051
I249
sg20
S'Y'
sg31
g32
sS'.thisTrialN'
p2052
I9
sS'.thisRepN'
p2053
I16
sg21
I45
sS'.thisIndex'
p2054
I14
sg23
I19
sg15
(lp2055
S'k'
asg30
Vm
sg17
S'N'
sg14
I5
sg19
Nsg94
I14
sa(dp2056
g16
(lp2057
S'd'
asg94
I8
sS'.thisRepN'
p2058
I16
sg30
Vm
sg31
g32
sS'.thisTrialN'
p2059
I10
sS'.thisN'
p2060
I250
sS'.thisIndex'
p2061
I8
sg15
(lp2062
S'k'
asg17
S'N'
sg14
I6
sa(dp2063
g16
(lp2064
S'k'
asg94
I4
sS'.thisRepN'
p2065
I16
sg30
Vm
sg31
g32
sS'.thisTrialN'
p2066
I11
sS'.thisN'
p2067
I251
sS'.thisIndex'
p2068
I4
sg15
(lp2069
S'k'
asg17
S'Y'
sg14
I6
sa(dp2070
g16
(lp2071
S'd'
asg18
S'Y'
sS'.thisRepN'
p2072
I16
sg20
S'Y'
sg31
g32
sS'.thisTrialN'
p2073
I12
sS'.thisN'
p2074
I252
sS'.thisIndex'
p2075
I7
sg15
(lp2076
S'd'
asg30
Vm
sg17
S'Y'
sg14
I6
sg19
(lp2077
S'space'
p2078
asg94
I7
sa(dp2079
g16
(lp2080
S'k'
asg18
S'N'
sS'.thisRepN'
p2081
I16
sg20
S'Y'
sg31
g32
sS'.thisTrialN'
p2082
I13
sS'.thisN'
p2083
I253
sS'.thisIndex'
p2084
I2
sg15
(lp2085
S'k'
asg30
Vm
sg17
S'Y'
sg14
I6
sg19
Nsg94
I2
sa(dp2086
g16
(lp2087
S'd'
asg18
S'Y'
sS'.thisRepN'
p2088
I16
sg20
S'Y'
sg31
g32
sS'.thisTrialN'
p2089
I14
sS'.thisN'
p2090
I254
sS'.thisIndex'
p2091
I1
sg15
(lp2092
S'd'
asg30
Vm
sg17
S'Y'
sg14
I6
sg19
(lp2093
S'space'
p2094
asg94
I1
sa(dp2095
g16
(lp2096
S'k'
asg18
S'Y'
sS'.thisRepN'
p2097
I17
sg20
S'Y'
sg31
g32
sS'.thisTrialN'
p2098
I0
sS'.thisN'
p2099
I255
sS'.thisIndex'
p2100
I13
sg15
(lp2101
S'k'
asg30
Vm
sg17
S'Y'
sg14
I6
sg19
(lp2102
S'space'
p2103
asg94
I13
sa(dp2104
g16
(lp2105
S'k'
asg18
S'N'
sS'.thisRepN'
p2106
I17
sg20
S'Y'
sg31
g32
sS'.thisTrialN'
p2107
I1
sS'.thisN'
p2108
I256
sS'.thisIndex'
p2109
I3
sg15
(lp2110
S'd'
asg30
Vm
sg17
S'N'
sg14
I6
sg19
Nsg94
I3
sa(dp2111
g16
(lp2112
S'k'
asg18
S'Y'
sS'.thisRepN'
p2113
I17
sg20
S'Y'
sg31
g32
sS'.thisTrialN'
p2114
I2
sS'.thisN'
p2115
I257
sS'.thisIndex'
p2116
I12
sg15
(lp2117
S'k'
asg30
Vm
sg17
S'Y'
sg14
I6
sg19
(lp2118
S'space'
p2119
asg94
I12
sa(dp2120
g16
(lp2121
S'k'
asg18
S'N'
sS'.thisRepN'
p2122
I17
sg20
S'Y'
sg31
g32
sS'.thisTrialN'
p2123
I3
sS'.thisN'
p2124
I258
sS'.thisIndex'
p2125
I7
sg15
(lp2126
S'k'
asg30
Vm
sg17
S'Y'
sg14
I6
sg19
Nsg94
I7
sa(dp2127
g16
(lp2128
S'k'
asg18
S'N'
sS'.thisRepN'
p2129
I17
sg20
S'Y'
sg31
g32
sS'.thisTrialN'
p2130
I4
sS'.thisN'
p2131
I259
sS'.thisIndex'
p2132
I1
sg15
(lp2133
S'k'
asg30
Vm
sg17
S'Y'
sg14
I6
sg19
Nsg94
I1
sa(dp2134
g16
(lp2135
S'k'
asg18
S'N'
sS'.thisRepN'
p2136
I17
sg20
S'Y'
sg31
g32
sS'.thisTrialN'
p2137
I5
sS'.thisN'
p2138
I260
sS'.thisIndex'
p2139
I0
sg15
(lp2140
S'k'
asg30
Vm
sg17
S'Y'
sg14
I6
sg19
Nsg94
I0
sa(dp2141
g16
(lp2142
S'd'
asg18
S'N'
sS'.thisRepN'
p2143
I17
sg20
S'Y'
sg31
g32
sS'.thisTrialN'
p2144
I6
sS'.thisN'
p2145
I261
sS'.thisIndex'
p2146
I14
sg15
(lp2147
S'd'
asg30
Vm
sg17
S'Y'
sg14
I6
sg19
Nsg94
I14
sa(dp2148
g16
(lp2149
S'd'
asg18
S'N'
sS'.thisRepN'
p2150
I17
sg20
S'Y'
sg31
g32
sS'.thisTrialN'
p2151
I7
sS'.thisN'
p2152
I262
sS'.thisIndex'
p2153
I2
sg15
(lp2154
S'd'
asg30
Vm
sg17
S'Y'
sg14
I6
sg19
Nsg94
I2
sa(dp2155
g16
(lp2156
S'd'
asg18
S'Y'
sS'.thisRepN'
p2157
I17
sg20
S'Y'
sg31
g32
sS'.thisTrialN'
p2158
I8
sS'.thisN'
p2159
I263
sS'.thisIndex'
p2160
I9
sg15
(lp2161
S'd'
asg30
Vm
sg17
S'Y'
sg14
I6
sg19
(lp2162
S'space'
p2163
asg94
I9
sa(dp2164
g16
(lp2165
S'd'
asg18
S'Y'
sS'.thisRepN'
p2166
I17
sg20
S'Y'
sg31
g32
sS'.thisTrialN'
p2167
I9
sS'.thisN'
p2168
I264
sS'.thisIndex'
p2169
I12
sg15
(lp2170
S'd'
asg30
Vm
sg17
S'Y'
sg14
I6
sg19
(lp2171
S'space'
p2172
asg94
I12
sa(dp2173
g16
(lp2174
S'k'
asg18
S'Y'
sS'.thisRepN'
p2175
I17
sg20
S'N'
sg31
g32
sS'.thisTrialN'
p2176
I10
sS'.thisN'
p2177
I265
sS'.thisIndex'
p2178
I9
sg15
(lp2179
S'k'
asg30
Vm
sg17
S'Y'
sg14
I6
sg19
Nsg94
I9
sa(dp2180
g16
(lp2181
S'k'
asg18
S'Y'
sS'.thisRepN'
p2182
I17
sg20
S'N'
sg31
g32
sS'.thisTrialN'
p2183
I11
sS'.thisN'
p2184
I266
sS'.thisIndex'
p2185
I14
sg15
(lp2186
S'k'
asg30
Vm
sg17
S'Y'
sg14
I6
sg19
Nsg94
I14
sa(dp2187
g16
(lp2188
S'd'
asg18
S'Y'
sS'.thisRepN'
p2189
I17
sg20
S'Y'
sg31
g32
sS'.thisTrialN'
p2190
I12
sS'.thisN'
p2191
I267
sS'.thisIndex'
p2192
I13
sg15
(lp2193
S'd'
asg30
Vm
sg17
S'Y'
sg14
I6
sg19
(lp2194
S'space'
p2195
asg94
I13
sa(dp2196
g16
(lp2197
S'd'
asg18
S'Y'
sS'.thisRepN'
p2198
I17
sg20
S'Y'
sg31
g32
sS'.thisTrialN'
p2199
I13
sS'.thisN'
p2200
I268
sS'.thisIndex'
p2201
I10
sg15
(lp2202
S'd'
asg30
Vm
sg17
S'Y'
sg14
I6
sg19
(lp2203
S'space'
p2204
asg94
I10
sa(dp2205
g16
(lp2206
S'd'
asg18
S'Y'
sS'.thisRepN'
p2207
I17
sg20
S'Y'
sg31
g32
sS'.thisTrialN'
p2208
I14
sS'.thisN'
p2209
I269
sS'.thisIndex'
p2210
I7
sg15
(lp2211
S'd'
asg30
Vm
sg17
S'Y'
sg14
I6
sg19
(lp2212
S'space'
p2213
asg94
I7
sa(dp2214
g16
(lp2215
S'd'
asg18
S'Y'
sS'.thisRepN'
p2216
I18
sg20
S'Y'
sg31
g32
sS'.thisTrialN'
p2217
I0
sS'.thisN'
p2218
I270
sS'.thisIndex'
p2219
I11
sg15
(lp2220
S'd'
asg30
Vm
sg17
S'Y'
sg14
I6
sg19
(lp2221
S'space'
p2222
asg94
I11
sa(dp2223
g16
(lp2224
S'k'
asg18
S'Y'
sS'.thisRepN'
p2225
I18
sg20
S'Y'
sg31
g32
sS'.thisTrialN'
p2226
I1
sS'.thisN'
p2227
I271
sS'.thisIndex'
p2228
I9
sg15
(lp2229
S'k'
asg30
Vm
sg17
S'Y'
sg14
I6
sg19
(lp2230
S'space'
p2231
asg94
I9
sa(dp2232
g16
(lp2233
S'k'
asg18
S'Y'
sS'.thisRepN'
p2234
I18
sg20
S'Y'
sg31
g32
sS'.thisTrialN'
p2235
I2
sS'.thisN'
p2236
I272
sS'.thisIndex'
p2237
I13
sg15
(lp2238
S'k'
asg30
Vm
sg17
S'Y'
sg14
I6
sg19
(lp2239
S'space'
p2240
asg94
I13
sa(dp2241
g16
(lp2242
S'k'
asg18
S'Y'
sS'.thisRepN'
p2243
I18
sg20
S'Y'
sg31
g32
sS'.thisTrialN'
p2244
I3
sS'.thisN'
p2245
I273
sS'.thisIndex'
p2246
I10
sg15
(lp2247
S'k'
asg30
Vm
sg17
S'Y'
sg14
I6
sg19
(lp2248
S'space'
p2249
asg94
I10
sa(dp2250
g16
(lp2251
S'k'
asg18
S'Y'
sS'.thisRepN'
p2252
I18
sg20
S'Y'
sg31
g32
sS'.thisTrialN'
p2253
I4
sS'.thisN'
p2254
I274
sS'.thisIndex'
p2255
I11
sg15
(lp2256
S'k'
asg30
Vm
sg17
S'Y'
sg14
I6
sg19
(lp2257
S'space'
p2258
asg94
I11
sa(dp2259
g16
(lp2260
S'd'
asg18
S'N'
sS'.thisRepN'
p2261
I18
sg20
S'Y'
sg31
g32
sS'.thisTrialN'
p2262
I5
sS'.thisN'
p2263
I275
sS'.thisIndex'
p2264
I7
sg15
(lp2265
S'd'
asg30
Vm
sg17
S'Y'
sg14
I6
sg19
Nsg94
I7
sa(dp2266
g16
(lp2267
S'd'
asg18
S'N'
sS'.thisRepN'
p2268
I18
sg20
S'Y'
sg31
g32
sS'.thisTrialN'
p2269
I6
sS'.thisN'
p2270
I276
sS'.thisIndex'
p2271
I5
sg15
(lp2272
S'd'
asg30
Vm
sg17
S'Y'
sg14
I6
sg19
Nsg94
I5
sa(dp2273
g16
(lp2274
S'k'
asg18
S'N'
sS'.thisRepN'
p2275
I18
sg20
S'Y'
sg31
g32
sS'.thisTrialN'
p2276
I7
sS'.thisN'
p2277
I277
sS'.thisIndex'
p2278
I12
sg15
(lp2279
S'k'
asg30
Vm
sg17
S'Y'
sg14
I6
sg19
Nsg94
I12
sa(dp2280
g16
(lp2281
S'd'
asg18
S'Y'
sS'.thisRepN'
p2282
I18
sg20
S'Y'
sg31
g32
sS'.thisTrialN'
p2283
I8
sS'.thisN'
p2284
I278
sS'.thisIndex'
p2285
I10
sg15
(lp2286
S'd'
asg30
Vm
sg17
S'Y'
sg14
I6
sg19
(lp2287
S'space'
p2288
asg94
I10
sa(dp2289
g16
(lp2290
S'k'
asg18
S'N'
sS'.thisRepN'
p2291
I18
sg20
S'Y'
sg31
g32
sS'.thisTrialN'
p2292
I9
sS'.thisN'
p2293
I279
sS'.thisIndex'
p2294
I4
sg15
(lp2295
S'k'
asg30
Vm
sg17
S'Y'
sg14
I6
sg19
Nsg94
I4
sa(dp2296
g16
(lp2297
S'k'
asg18
S'Y'
sS'.thisRepN'
p2298
I18
sg20
S'Y'
sg31
g32
sS'.thisTrialN'
p2299
I10
sS'.thisN'
p2300
I280
sS'.thisIndex'
p2301
I13
sg15
(lp2302
S'k'
asg30
Vm
sg17
S'Y'
sg14
I6
sg19
(lp2303
S'space'
p2304
asg94
I13
sa(dp2305
g16
(lp2306
S'd'
asg18
S'N'
sS'.thisRepN'
p2307
I18
sg20
S'Y'
sg31
g32
sS'.thisTrialN'
p2308
I11
sS'.thisN'
p2309
I281
sS'.thisIndex'
p2310
I13
sg15
(lp2311
S'd'
asg30
Vm
sg17
S'Y'
sg14
I6
sg19
Nsg94
I13
sa(dp2312
g16
(lp2313
S'k'
asg18
S'N'
sS'.thisRepN'
p2314
I18
sg20
S'Y'
sg31
g32
sS'.thisTrialN'
p2315
I12
sS'.thisN'
p2316
I282
sS'.thisIndex'
p2317
I3
sg15
(lp2318
S'k'
asg30
Vm
sg17
S'Y'
sg14
I6
sg19
Nsg94
I3
sa(dp2319
g16
(lp2320
S'd'
asg18
S'Y'
sS'.thisRepN'
p2321
I18
sg20
S'N'
sg31
g32
sS'.thisTrialN'
p2322
I13
sS'.thisN'
p2323
I283
sS'.thisIndex'
p2324
I2
sg15
(lp2325
S'd'
asg30
Vm
sg17
S'Y'
sg14
I6
sg19
Nsg94
I2
sa(dp2326
g16
(lp2327
S'k'
asg18
S'Y'
sS'.thisRepN'
p2328
I18
sg20
S'Y'
sg31
g32
sS'.thisTrialN'
p2329
I14
sS'.thisN'
p2330
I284
sS'.thisIndex'
p2331
I3
sg15
(lp2332
S'k'
asg30
Vm
sg17
S'Y'
sg14
I6
sg19
(lp2333
S'space'
p2334
asg94
I3
sa(dp2335
g16
(lp2336
S'k'
asg18
S'Y'
sS'.thisRepN'
p2337
I19
sg20
S'Y'
sg31
g32
sS'.thisTrialN'
p2338
I0
sS'.thisN'
p2339
I285
sS'.thisIndex'
p2340
I9
sg15
(lp2341
S'k'
asg30
Vm
sg17
S'Y'
sg14
I6
sg19
(lp2342
S'space'
p2343
asg94
I9
sa(dp2344
g16
(lp2345
S'd'
asg18
S'Y'
sS'.thisRepN'
p2346
I19
sg20
S'N'
sg31
g32
sS'.thisTrialN'
p2347
I1
sS'.thisN'
p2348
I286
sS'.thisIndex'
p2349
I0
sg15
(lp2350
S'd'
asg30
Vm
sg17
S'Y'
sg14
I6
sg19
Nsg94
I0
sa(dp2351
g16
(lp2352
S'k'
asg18
S'N'
sS'.thisRepN'
p2353
I19
sg20
S'Y'
sg31
g32
sS'.thisTrialN'
p2354
I2
sS'.thisN'
p2355
I287
sS'.thisIndex'
p2356
I7
sg15
(lp2357
S'k'
asg30
Vm
sg17
S'Y'
sg14
I6
sg19
Nsg94
I7
sa(dp2358
g16
(lp2359
S'd'
asg18
S'N'
sS'.thisRepN'
p2360
I19
sg20
S'Y'
sg31
g32
sS'.thisTrialN'
p2361
I3
sS'.thisN'
p2362
I288
sS'.thisIndex'
p2363
I2
sg15
(lp2364
S'd'
asg30
Vm
sg17
S'Y'
sg14
I6
sg19
Nsg94
I2
sa(dp2365
g16
(lp2366
S'k'
asg18
S'N'
sS'.thisRepN'
p2367
I19
sg20
S'Y'
sg31
g32
sS'.thisTrialN'
p2368
I4
sS'.thisN'
p2369
I289
sS'.thisIndex'
p2370
I2
sg15
(lp2371
S'k'
asg30
Vm
sg17
S'Y'
sg14
I6
sg19
Nsg94
I2
sa(dp2372
g16
(lp2373
S'd'
asg18
S'Y'
sS'.thisRepN'
p2374
I19
sg20
S'Y'
sg31
g32
sS'.thisTrialN'
p2375
I5
sS'.thisN'
p2376
I290
sS'.thisIndex'
p2377
I11
sg15
(lp2378
S'd'
asg30
Vm
sg17
S'Y'
sg14
I6
sg19
(lp2379
S'space'
p2380
asg94
I11
sa(dp2381
g16
(lp2382
S'k'
asg18
S'Y'
sS'.thisRepN'
p2383
I19
sg20
S'N'
sg31
g32
sS'.thisTrialN'
p2384
I6
sS'.thisN'
p2385
I291
sS'.thisIndex'
p2386
I6
sg15
(lp2387
S'k'
asg30
Vm
sg17
S'Y'
sg14
I6
sg19
Nsg94
I6
sa(dp2388
g16
(lp2389
S'k'
asg18
S'N'
sS'.thisRepN'
p2390
I19
sg20
S'Y'
sg31
g32
sS'.thisTrialN'
p2391
I7
sS'.thisN'
p2392
I292
sS'.thisIndex'
p2393
I1
sg15
(lp2394
S'k'
asg30
Vm
sg17
S'Y'
sg14
I6
sg19
Nsg94
I1
sa(dp2395
g16
(lp2396
S'k'
asg18
S'N'
sS'.thisRepN'
p2397
I19
sg20
S'Y'
sg31
g32
sS'.thisTrialN'
p2398
I8
sS'.thisN'
p2399
I293
sS'.thisIndex'
p2400
I3
sg15
(lp2401
S'k'
asg30
Vm
sg17
S'Y'
sg14
I6
sg19
Nsg94
I3
sa(dp2402
g16
(lp2403
S'd'
asg18
S'Y'
sS'.thisRepN'
p2404
I19
sg20
S'Y'
sg31
g32
sS'.thisTrialN'
p2405
I9
sS'.thisN'
p2406
I294
sS'.thisIndex'
p2407
I7
sg15
(lp2408
S'd'
asg30
Vm
sg17
S'Y'
sg14
I6
sg19
(lp2409
S'space'
p2410
asg94
I7
sa(dp2411
g16
(lp2412
S'k'
asg18
S'N'
sS'.thisRepN'
p2413
I19
sg20
S'Y'
sg31
g32
sS'.thisTrialN'
p2414
I10
sS'.thisN'
p2415
I295
sS'.thisIndex'
p2416
I13
sg15
(lp2417
S'k'
asg30
Vm
sg17
S'Y'
sg14
I6
sg19
Nsg94
I13
sa(dp2418
g16
(lp2419
S'd'
asg18
S'N'
sS'.thisRepN'
p2420
I19
sg20
S'Y'
sg31
g32
sS'.thisTrialN'
p2421
I11
sS'.thisN'
p2422
I296
sS'.thisIndex'
p2423
I12
sg15
(lp2424
S'd'
asg30
Vm
sg17
S'Y'
sg14
I6
sg19
Nsg94
I12
sa(dp2425
g16
(lp2426
S'k'
asg18
S'N'
sS'.thisRepN'
p2427
I19
sg20
S'Y'
sg31
g32
sS'.thisTrialN'
p2428
I12
sS'.thisN'
p2429
I297
sS'.thisIndex'
p2430
I2
sg15
(lp2431
S'k'
asg30
Vm
sg17
S'Y'
sg14
I6
sg19
Nsg94
I2
sa(dp2432
g16
(lp2433
S'd'
asg18
S'N'
sS'.thisRepN'
p2434
I19
sg20
S'Y'
sg31
g32
sS'.thisTrialN'
p2435
I13
sS'.thisN'
p2436
I298
sS'.thisIndex'
p2437
I9
sg15
(lp2438
S'd'
asg30
Vm
sg17
S'Y'
sg14
I6
sg19
Nsg94
I9
sa(dp2439
g16
(lp2440
S'k'
asg18
S'N'
sg22
I43
sS'.thisN'
p2441
I299
sg20
S'Y'
sg31
g32
sS'.thisTrialN'
p2442
I14
sS'.thisRepN'
p2443
I19
sg21
I48
sS'.thisIndex'
p2444
I8
sg23
I25
sg15
(lp2445
S'k'
asg30
Vm
sg17
S'Y'
sg14
I6
sg19
Nsg94
I8
sa(dp2446
g16
(lp2447
S'd'
asg94
I14
sS'.thisRepN'
p2448
I20
sg30
Vm
sg31
g32
sS'.thisTrialN'
p2449
I0
sS'.thisN'
p2450
I300
sS'.thisIndex'
p2451
I14
sg15
(lp2452
S'd'
asg17
S'Y'
sg14
I7
sa(dp2453
g16
(lp2454
S'd'
asg94
I10
sS'.thisRepN'
p2455
I20
sg30
Vm
sg31
g32
sS'.thisTrialN'
p2456
I1
sS'.thisN'
p2457
I301
sS'.thisIndex'
p2458
I10
sg15
(lp2459
S'd'
asg17
S'Y'
sg14
I7
sa(dp2460
g16
(lp2461
S'k'
asg18
S'Y'
sS'.thisRepN'
p2462
I20
sg20
S'Y'
sg31
g32
sS'.thisTrialN'
p2463
I2
sS'.thisN'
p2464
I302
sS'.thisIndex'
p2465
I14
sg15
(lp2466
S'k'
asg30
Vm
sg17
S'Y'
sg14
I7
sg19
(lp2467
S'space'
p2468
asg94
I14
sa(dp2469
g16
(lp2470
S'd'
asg18
S'Y'
sS'.thisRepN'
p2471
I20
sg20
S'N'
sg31
g32
sS'.thisTrialN'
p2472
I3
sS'.thisN'
p2473
I303
sS'.thisIndex'
p2474
I9
sg15
(lp2475
S'd'
asg30
Vm
sg17
S'Y'
sg14
I7
sg19
(lp2476
S'd'
asg94
I9
sa(dp2477
g16
(lp2478
S'd'
asg18
S'N'
sS'.thisRepN'
p2479
I20
sg20
S'Y'
sg31
g32
sS'.thisTrialN'
p2480
I4
sS'.thisN'
p2481
I304
sS'.thisIndex'
p2482
I3
sg15
(lp2483
S'd'
asg30
Vm
sg17
S'Y'
sg14
I7
sg19
Nsg94
I3
sa(dp2484
g16
(lp2485
S'k'
asg18
S'N'
sS'.thisRepN'
p2486
I20
sg20
S'Y'
sg31
g32
sS'.thisTrialN'
p2487
I5
sS'.thisN'
p2488
I305
sS'.thisIndex'
p2489
I8
sg15
(lp2490
S'k'
asg30
Vm
sg17
S'Y'
sg14
I7
sg19
Nsg94
I8
sa(dp2491
g16
(lp2492
S'k'
asg18
S'Y'
sS'.thisRepN'
p2493
I20
sg20
S'Y'
sg31
g32
sS'.thisTrialN'
p2494
I6
sS'.thisN'
p2495
I306
sS'.thisIndex'
p2496
I13
sg15
(lp2497
S'k'
asg30
Vm
sg17
S'Y'
sg14
I7
sg19
(lp2498
S'space'
p2499
asg94
I13
sa(dp2500
g16
(lp2501
S'd'
asg18
S'N'
sS'.thisRepN'
p2502
I20
sg20
S'Y'
sg31
g32
sS'.thisTrialN'
p2503
I7
sS'.thisN'
p2504
I307
sS'.thisIndex'
p2505
I1
sg15
(lp2506
S'd'
asg30
Vm
sg17
S'Y'
sg14
I7
sg19
Nsg94
I1
sa(dp2507
g16
(lp2508
S'k'
asg18
S'Y'
sS'.thisRepN'
p2509
I20
sg20
S'Y'
sg31
g32
sS'.thisTrialN'
p2510
I8
sS'.thisN'
p2511
I308
sS'.thisIndex'
p2512
I13
sg15
(lp2513
S'k'
asg30
Vm
sg17
S'Y'
sg14
I7
sg19
(lp2514
S'space'
p2515
asg94
I13
sa(dp2516
g16
(lp2517
S'k'
asg18
S'Y'
sS'.thisRepN'
p2518
I20
sg20
S'Y'
sg31
g32
sS'.thisTrialN'
p2519
I9
sS'.thisN'
p2520
I309
sS'.thisIndex'
p2521
I3
sg15
(lp2522
S'd'
asg30
Vm
sg17
S'N'
sg14
I7
sg19
(lp2523
S'space'
p2524
asg94
I3
sa(dp2525
g16
(lp2526
S'd'
asg18
S'Y'
sS'.thisRepN'
p2527
I20
sg20
S'Y'
sg31
g32
sS'.thisTrialN'
p2528
I10
sS'.thisN'
p2529
I310
sS'.thisIndex'
p2530
I0
sg15
(lp2531
S'k'
asg30
Vm
sg17
S'N'
sg14
I7
sg19
(lp2532
S'space'
p2533
asg94
I0
sa(dp2534
g16
(lp2535
S'k'
asg18
S'N'
sS'.thisRepN'
p2536
I20
sg20
S'Y'
sg31
g32
sS'.thisTrialN'
p2537
I11
sS'.thisN'
p2538
I311
sS'.thisIndex'
p2539
I6
sg15
(lp2540
S'k'
asg30
Vm
sg17
S'Y'
sg14
I7
sg19
Nsg94
I6
sa(dp2541
g16
(lp2542
S'k'
asg18
S'Y'
sS'.thisRepN'
p2543
I20
sg20
S'Y'
sg31
g32
sS'.thisTrialN'
p2544
I12
sS'.thisN'
p2545
I312
sS'.thisIndex'
p2546
I1
sg15
(lp2547
S'k'
asg30
Vm
sg17
S'Y'
sg14
I7
sg19
(lp2548
S'space'
p2549
asg94
I1
sa(dp2550
g16
(lp2551
S'd'
asg18
S'N'
sS'.thisRepN'
p2552
I20
sg20
S'Y'
sg31
g32
sS'.thisTrialN'
p2553
I13
sS'.thisN'
p2554
I313
sS'.thisIndex'
p2555
I11
sg15
(lp2556
S'd'
asg30
Vm
sg17
S'Y'
sg14
I7
sg19
Nsg94
I11
sa(dp2557
g16
(lp2558
S'k'
asg18
S'N'
sS'.thisRepN'
p2559
I20
sg20
S'Y'
sg31
g32
sS'.thisTrialN'
p2560
I14
sS'.thisN'
p2561
I314
sS'.thisIndex'
p2562
I0
sg15
(lp2563
S'k'
asg30
Vm
sg17
S'Y'
sg14
I7
sg19
Nsg94
I0
sa(dp2564
g16
(lp2565
S'd'
asg18
S'Y'
sS'.thisRepN'
p2566
I21
sg20
S'Y'
sg31
g32
sS'.thisTrialN'
p2567
I0
sS'.thisN'
p2568
I315
sS'.thisIndex'
p2569
I13
sg15
(lp2570
S'd'
asg30
Vm
sg17
S'Y'
sg14
I7
sg19
(lp2571
S'space'
p2572
asg94
I13
sa(dp2573
g16
(lp2574
S'd'
asg18
S'N'
sS'.thisRepN'
p2575
I21
sg20
S'N'
sg31
g32
sS'.thisTrialN'
p2576
I1
sS'.thisN'
p2577
I316
sS'.thisIndex'
p2578
I8
sg15
(lp2579
S'd'
asg30
Vm
sg17
S'Y'
sg14
I7
sg19
(lp2580
S'space'
p2581
asg94
I8
sa(dp2582
g16
(lp2583
S'k'
asg18
S'Y'
sS'.thisRepN'
p2584
I21
sg20
S'Y'
sg31
g32
sS'.thisTrialN'
p2585
I2
sS'.thisN'
p2586
I317
sS'.thisIndex'
p2587
I8
sg15
(lp2588
S'k'
asg30
Vm
sg17
S'Y'
sg14
I7
sg19
(lp2589
S'space'
p2590
asg94
I8
sa(dp2591
g16
(lp2592
S'k'
asg18
S'N'
sS'.thisRepN'
p2593
I21
sg20
S'Y'
sg31
g32
sS'.thisTrialN'
p2594
I3
sS'.thisN'
p2595
I318
sS'.thisIndex'
p2596
I9
sg15
(lp2597
S'k'
asg30
Vm
sg17
S'Y'
sg14
I7
sg19
Nsg94
I9
sa(dp2598
g16
(lp2599
S'd'
asg18
S'N'
sS'.thisRepN'
p2600
I21
sg20
S'Y'
sg31
g32
sS'.thisTrialN'
p2601
I4
sS'.thisN'
p2602
I319
sS'.thisIndex'
p2603
I3
sg15
(lp2604
S'd'
asg30
Vm
sg17
S'Y'
sg14
I7
sg19
Nsg94
I3
sa(dp2605
g16
(lp2606
S'k'
asg18
S'Y'
sS'.thisRepN'
p2607
I21
sg20
S'Y'
sg31
g32
sS'.thisTrialN'
p2608
I5
sS'.thisN'
p2609
I320
sS'.thisIndex'
p2610
I10
sg15
(lp2611
S'k'
asg30
Vm
sg17
S'Y'
sg14
I7
sg19
(lp2612
S'space'
p2613
asg94
I10
sa(dp2614
g16
(lp2615
S'k'
asg18
S'Y'
sS'.thisRepN'
p2616
I21
sg20
S'N'
sg31
g32
sS'.thisTrialN'
p2617
I6
sS'.thisN'
p2618
I321
sS'.thisIndex'
p2619
I0
sg15
(lp2620
S'k'
asg30
Vm
sg17
S'Y'
sg14
I7
sg19
Nsg94
I0
sa(dp2621
g16
(lp2622
S'k'
asg18
S'Y'
sS'.thisRepN'
p2623
I21
sg20
S'Y'
sg31
g32
sS'.thisTrialN'
p2624
I7
sS'.thisN'
p2625
I322
sS'.thisIndex'
p2626
I12
sg15
(lp2627
S'k'
asg30
Vm
sg17
S'Y'
sg14
I7
sg19
(lp2628
S'space'
p2629
asg94
I12
sa(dp2630
g16
(lp2631
S'd'
asg18
S'N'
sS'.thisRepN'
p2632
I21
sg20
S'Y'
sg31
g32
sS'.thisTrialN'
p2633
I8
sS'.thisN'
p2634
I323
sS'.thisIndex'
p2635
I4
sg15
(lp2636
S'd'
asg30
Vm
sg17
S'Y'
sg14
I7
sg19
Nsg94
I4
sa(dp2637
g16
(lp2638
S'k'
asg18
S'N'
sS'.thisRepN'
p2639
I21
sg20
S'Y'
sg31
g32
sS'.thisTrialN'
p2640
I9
sS'.thisN'
p2641
I324
sS'.thisIndex'
p2642
I2
sg15
(lp2643
S'k'
asg30
Vm
sg17
S'Y'
sg14
I7
sg19
Nsg94
I2
sa(dp2644
g16
(lp2645
S'd'
asg18
S'Y'
sS'.thisRepN'
p2646
I21
sg20
S'Y'
sg31
g32
sS'.thisTrialN'
p2647
I10
sS'.thisN'
p2648
I325
sS'.thisIndex'
p2649
I9
sg15
(lp2650
S'd'
asg30
Vm
sg17
S'Y'
sg14
I7
sg19
(lp2651
S'space'
p2652
asg94
I9
sa(dp2653
g16
(lp2654
S'k'
asg18
S'N'
sS'.thisRepN'
p2655
I21
sg20
S'Y'
sg31
g32
sS'.thisTrialN'
p2656
I11
sS'.thisN'
p2657
I326
sS'.thisIndex'
p2658
I5
sg15
(lp2659
S'k'
asg30
Vm
sg17
S'Y'
sg14
I7
sg19
Nsg94
I5
sa(dp2660
g16
(lp2661
S'd'
asg18
S'N'
sS'.thisRepN'
p2662
I21
sg20
S'Y'
sg31
g32
sS'.thisTrialN'
p2663
I12
sS'.thisN'
p2664
I327
sS'.thisIndex'
p2665
I2
sg15
(lp2666
S'd'
asg30
Vm
sg17
S'Y'
sg14
I7
sg19
Nsg94
I2
sa(dp2667
g16
(lp2668
S'd'
asg18
S'Y'
sS'.thisRepN'
p2669
I21
sg20
S'N'
sg31
g32
sS'.thisTrialN'
p2670
I13
sS'.thisN'
p2671
I328
sS'.thisIndex'
p2672
I0
sg15
(lp2673
S'k'
asg30
Vm
sg17
S'N'
sg14
I7
sg19
Nsg94
I0
sa(dp2674
g16
(lp2675
S'd'
asg18
S'Y'
sS'.thisRepN'
p2676
I21
sg20
S'Y'
sg31
g32
sS'.thisTrialN'
p2677
I14
sS'.thisN'
p2678
I329
sS'.thisIndex'
p2679
I5
sg15
(lp2680
S'd'
asg30
Vm
sg17
S'Y'
sg14
I7
sg19
(lp2681
S'space'
p2682
asg94
I5
sa(dp2683
g16
(lp2684
S'd'
asg18
S'Y'
sS'.thisRepN'
p2685
I22
sg20
S'Y'
sg31
g32
sS'.thisTrialN'
p2686
I0
sS'.thisN'
p2687
I330
sS'.thisIndex'
p2688
I3
sg15
(lp2689
S'd'
asg30
Vm
sg17
S'Y'
sg14
I7
sg19
(lp2690
S'space'
p2691
asg94
I3
sa(dp2692
g16
(lp2693
S'k'
asg18
S'Y'
sS'.thisRepN'
p2694
I22
sg20
S'Y'
sg31
g32
sS'.thisTrialN'
p2695
I1
sS'.thisN'
p2696
I331
sS'.thisIndex'
p2697
I14
sg15
(lp2698
S'k'
asg30
Vm
sg17
S'Y'
sg14
I7
sg19
(lp2699
S'space'
p2700
asg94
I14
sa(dp2701
g16
(lp2702
S'k'
asg18
S'Y'
sS'.thisRepN'
p2703
I22
sg20
S'Y'
sg31
g32
sS'.thisTrialN'
p2704
I2
sS'.thisN'
p2705
I332
sS'.thisIndex'
p2706
I8
sg15
(lp2707
S'k'
asg30
Vm
sg17
S'Y'
sg14
I7
sg19
(lp2708
S'space'
p2709
asg94
I8
sa(dp2710
g16
(lp2711
S'k'
asg18
S'N'
sS'.thisRepN'
p2712
I22
sg20
S'N'
sg31
g32
sS'.thisTrialN'
p2713
I3
sS'.thisN'
p2714
I333
sS'.thisIndex'
p2715
I5
sg15
(lp2716
S'k'
asg30
Vm
sg17
S'Y'
sg14
I7
sg19
(lp2717
S'space'
p2718
asg94
I5
sa(dp2719
g16
(lp2720
S'd'
asg18
S'N'
sS'.thisRepN'
p2721
I22
sg20
S'Y'
sg31
g32
sS'.thisTrialN'
p2722
I4
sS'.thisN'
p2723
I334
sS'.thisIndex'
p2724
I14
sg15
(lp2725
S'd'
asg30
Vm
sg17
S'Y'
sg14
I7
sg19
Nsg94
I14
sa(dp2726
g16
(lp2727
S'k'
asg18
S'N'
sS'.thisRepN'
p2728
I22
sg20
S'Y'
sg31
g32
sS'.thisTrialN'
p2729
I5
sS'.thisN'
p2730
I335
sS'.thisIndex'
p2731
I7
sg15
(lp2732
S'k'
asg30
Vm
sg17
S'Y'
sg14
I7
sg19
Nsg94
I7
sa(dp2733
g16
(lp2734
S'd'
asg18
S'N'
sS'.thisRepN'
p2735
I22
sg20
S'Y'
sg31
g32
sS'.thisTrialN'
p2736
I6
sS'.thisN'
p2737
I336
sS'.thisIndex'
p2738
I0
sg15
(lp2739
S'd'
asg30
Vm
sg17
S'Y'
sg14
I7
sg19
Nsg94
I0
sa(dp2740
g16
(lp2741
S'k'
asg18
S'Y'
sS'.thisRepN'
p2742
I22
sg20
S'N'
sg31
g32
sS'.thisTrialN'
p2743
I7
sS'.thisN'
p2744
I337
sS'.thisIndex'
p2745
I10
sg15
(lp2746
S'k'
asg30
Vm
sg17
S'Y'
sg14
I7
sg19
Nsg94
I10
sa(dp2747
g16
(lp2748
S'k'
asg18
S'N'
sS'.thisRepN'
p2749
I22
sg20
S'Y'
sg31
g32
sS'.thisTrialN'
p2750
I8
sS'.thisN'
p2751
I338
sS'.thisIndex'
p2752
I11
sg15
(lp2753
S'k'
asg30
Vm
sg17
S'Y'
sg14
I7
sg19
Nsg94
I11
sa(dp2754
g16
(lp2755
S'd'
asg18
S'N'
sS'.thisRepN'
p2756
I22
sg20
S'Y'
sg31
g32
sS'.thisTrialN'
p2757
I9
sS'.thisN'
p2758
I339
sS'.thisIndex'
p2759
I4
sg15
(lp2760
S'd'
asg30
Vm
sg17
S'Y'
sg14
I7
sg19
Nsg94
I4
sa(dp2761
g16
(lp2762
S'd'
asg18
S'N'
sS'.thisRepN'
p2763
I22
sg20
S'Y'
sg31
g32
sS'.thisTrialN'
p2764
I10
sS'.thisN'
p2765
I340
sS'.thisIndex'
p2766
I2
sg15
(lp2767
S'd'
asg30
Vm
sg17
S'Y'
sg14
I7
sg19
Nsg94
I2
sa(dp2768
g16
(lp2769
S'k'
asg18
S'N'
sS'.thisRepN'
p2770
I22
sg20
S'Y'
sg31
g32
sS'.thisTrialN'
p2771
I11
sS'.thisN'
p2772
I341
sS'.thisIndex'
p2773
I8
sg15
(lp2774
S'k'
asg30
Vm
sg17
S'Y'
sg14
I7
sg19
Nsg94
I8
sa(dp2775
g16
(lp2776
S'd'
asg18
S'N'
sS'.thisRepN'
p2777
I22
sg20
S'Y'
sg31
g32
sS'.thisTrialN'
p2778
I12
sS'.thisN'
p2779
I342
sS'.thisIndex'
p2780
I13
sg15
(lp2781
S'd'
asg30
Vm
sg17
S'Y'
sg14
I7
sg19
Nsg94
I13
sa(dp2782
g16
(lp2783
S'k'
asg18
S'Y'
sS'.thisRepN'
p2784
I22
sg20
S'N'
sg31
g32
sS'.thisTrialN'
p2785
I13
sS'.thisN'
p2786
I343
sS'.thisIndex'
p2787
I12
sg15
(lp2788
S'k'
asg30
Vm
sg17
S'Y'
sg14
I7
sg19
Nsg94
I12
sa(dp2789
g16
(lp2790
S'd'
asg18
S'N'
sS'.thisRepN'
p2791
I22
sg20
S'Y'
sg31
g32
sS'.thisTrialN'
p2792
I14
sS'.thisN'
p2793
I344
sS'.thisIndex'
p2794
I7
sg15
(lp2795
S'd'
asg30
Vm
sg17
S'Y'
sg14
I7
sg19
Nsg94
I7
sa(dp2796
g16
(lp2797
S'd'
asg18
S'Y'
sS'.thisRepN'
p2798
I23
sg20
S'Y'
sg31
g32
sS'.thisTrialN'
p2799
I0
sS'.thisN'
p2800
I345
sS'.thisIndex'
p2801
I12
sg15
(lp2802
S'k'
asg30
Vm
sg17
S'N'
sg14
I7
sg19
(lp2803
S'space'
p2804
asg94
I12
sa(dp2805
g16
(lp2806
S'k'
asg18
S'N'
sS'.thisRepN'
p2807
I23
sg20
S'Y'
sg31
g32
sS'.thisTrialN'
p2808
I1
sS'.thisN'
p2809
I346
sS'.thisIndex'
p2810
I12
sg15
(lp2811
S'k'
asg30
Vm
sg17
S'Y'
sg14
I7
sg19
Nsg94
I12
sa(dp2812
g16
(lp2813
S'k'
asg18
S'N'
sS'.thisRepN'
p2814
I23
sg20
S'Y'
sg31
g32
sS'.thisTrialN'
p2815
I2
sS'.thisN'
p2816
I347
sS'.thisIndex'
p2817
I14
sg15
(lp2818
S'k'
asg30
Vm
sg17
S'Y'
sg14
I7
sg19
Nsg94
I14
sa(dp2819
g16
(lp2820
S'k'
asg18
S'Y'
sS'.thisRepN'
p2821
I23
sg20
S'Y'
sg31
g32
sS'.thisTrialN'
p2822
I3
sS'.thisN'
p2823
I348
sS'.thisIndex'
p2824
I9
sg15
(lp2825
S'd'
asg30
Vm
sg17
S'N'
sg14
I7
sg19
(lp2826
S'space'
p2827
asg94
I9
sa(dp2828
g16
(lp2829
S'k'
asg18
S'Y'
sg22
I41
sS'.thisN'
p2830
I349
sg20
S'Y'
sg31
g32
sS'.thisTrialN'
p2831
I4
sS'.thisRepN'
p2832
I23
sg21
I45
sS'.thisIndex'
p2833
I6
sg23
I23
sg15
(lp2834
S'k'
asg30
Vm
sg17
S'Y'
sg14
I7
sg19
(lp2835
S'space'
p2836
asg94
I6
sa(dp2837
g16
(lp2838
S'k'
asg94
I9
sS'.thisRepN'
p2839
I23
sg30
Vm
sg31
g32
sS'.thisTrialN'
p2840
I5
sS'.thisN'
p2841
I350
sS'.thisIndex'
p2842
I9
sg15
(lp2843
S'k'
asg17
S'Y'
sg14
I8
sa(dp2844
g16
(lp2845
S'k'
asg94
I13
sS'.thisRepN'
p2846
I23
sg30
Vm
sg31
g32
sS'.thisTrialN'
p2847
I6
sS'.thisN'
p2848
I351
sS'.thisIndex'
p2849
I13
sg15
(lp2850
S'd'
asg17
S'N'
sg14
I8
sa(dp2851
g16
(lp2852
S'd'
asg18
S'N'
sS'.thisRepN'
p2853
I23
sg20
S'Y'
sg31
g32
sS'.thisTrialN'
p2854
I7
sS'.thisN'
p2855
I352
sS'.thisIndex'
p2856
I1
sg15
(lp2857
S'd'
asg30
Vm
sg17
S'Y'
sg14
I8
sg19
Nsg94
I1
sa(dp2858
g16
(lp2859
S'd'
asg18
S'N'
sS'.thisRepN'
p2860
I23
sg20
S'N'
sg31
g32
sS'.thisTrialN'
p2861
I8
sS'.thisN'
p2862
I353
sS'.thisIndex'
p2863
I4
sg15
(lp2864
S'd'
asg30
Vm
sg17
S'Y'
sg14
I8
sg19
(lp2865
S'space'
p2866
asg94
I4
sa(dp2867
g16
(lp2868
S'd'
asg18
S'Y'
sS'.thisRepN'
p2869
I23
sg20
S'Y'
sg31
g32
sS'.thisTrialN'
p2870
I9
sS'.thisN'
p2871
I354
sS'.thisIndex'
p2872
I11
sg15
(lp2873
S'd'
asg30
Vm
sg17
S'Y'
sg14
I8
sg19
(lp2874
S'space'
p2875
asg94
I11
sa(dp2876
g16
(lp2877
S'd'
asg18
S'Y'
sS'.thisRepN'
p2878
I23
sg20
S'Y'
sg31
g32
sS'.thisTrialN'
p2879
I10
sS'.thisN'
p2880
I355
sS'.thisIndex'
p2881
I3
sg15
(lp2882
S'd'
asg30
Vm
sg17
S'Y'
sg14
I8
sg19
(lp2883
S'space'
p2884
asg94
I3
sa(dp2885
g16
(lp2886
S'k'
asg18
S'Y'
sS'.thisRepN'
p2887
I23
sg20
S'Y'
sg31
g32
sS'.thisTrialN'
p2888
I11
sS'.thisN'
p2889
I356
sS'.thisIndex'
p2890
I11
sg15
(lp2891
S'k'
asg30
Vm
sg17
S'Y'
sg14
I8
sg19
(lp2892
S'space'
p2893
asg94
I11
sa(dp2894
g16
(lp2895
S'd'
asg18
S'N'
sS'.thisRepN'
p2896
I23
sg20
S'Y'
sg31
g32
sS'.thisTrialN'
p2897
I12
sS'.thisN'
p2898
I357
sS'.thisIndex'
p2899
I3
sg15
(lp2900
S'd'
asg30
Vm
sg17
S'Y'
sg14
I8
sg19
Nsg94
I3
sa(dp2901
g16
(lp2902
S'd'
asg18
S'Y'
sS'.thisRepN'
p2903
I23
sg20
S'N'
sg31
g32
sS'.thisTrialN'
p2904
I13
sS'.thisN'
p2905
I358
sS'.thisIndex'
p2906
I5
sg15
(lp2907
S'd'
asg30
Vm
sg17
S'Y'
sg14
I8
sg19
Nsg94
I5
sa(dp2908
g16
(lp2909
S'k'
asg18
S'N'
sS'.thisRepN'
p2910
I23
sg20
S'Y'
sg31
g32
sS'.thisTrialN'
p2911
I14
sS'.thisN'
p2912
I359
sS'.thisIndex'
p2913
I0
sg15
(lp2914
S'k'
asg30
Vm
sg17
S'Y'
sg14
I8
sg19
Nsg94
I0
sa(dp2915
g16
(lp2916
S'k'
asg18
S'Y'
sS'.thisRepN'
p2917
I24
sg20
S'Y'
sg31
g32
sS'.thisTrialN'
p2918
I0
sS'.thisN'
p2919
I360
sS'.thisIndex'
p2920
I13
sg15
(lp2921
S'k'
asg30
Vm
sg17
S'Y'
sg14
I8
sg19
(lp2922
S'space'
p2923
asg94
I13
sa(dp2924
g16
(lp2925
S'k'
asg18
S'N'
sS'.thisRepN'
p2926
I24
sg20
S'Y'
sg31
g32
sS'.thisTrialN'
p2927
I1
sS'.thisN'
p2928
I361
sS'.thisIndex'
p2929
I7
sg15
(lp2930
S'k'
asg30
Vm
sg17
S'Y'
sg14
I8
sg19
Nsg94
I7
sa(dp2931
g16
(lp2932
S'k'
asg18
S'Y'
sS'.thisRepN'
p2933
I24
sg20
S'Y'
sg31
g32
sS'.thisTrialN'
p2934
I2
sS'.thisN'
p2935
I362
sS'.thisIndex'
p2936
I5
sg15
(lp2937
S'k'
asg30
Vm
sg17
S'Y'
sg14
I8
sg19
(lp2938
S'space'
p2939
asg94
I5
sa(dp2940
g16
(lp2941
S'd'
asg18
S'Y'
sS'.thisRepN'
p2942
I24
sg20
S'N'
sg31
g32
sS'.thisTrialN'
p2943
I3
sS'.thisN'
p2944
I363
sS'.thisIndex'
p2945
I9
sg15
(lp2946
S'd'
asg30
Vm
sg17
S'Y'
sg14
I8
sg19
(lp2947
S'd'
asg94
I9
sa(dp2948
g16
(lp2949
S'd'
asg18
S'N'
sS'.thisRepN'
p2950
I24
sg20
S'Y'
sg31
g32
sS'.thisTrialN'
p2951
I4
sS'.thisN'
p2952
I364
sS'.thisIndex'
p2953
I3
sg15
(lp2954
S'd'
asg30
Vm
sg17
S'Y'
sg14
I8
sg19
Nsg94
I3
sa(dp2955
g16
(lp2956
S'd'
asg18
S'Y'
sS'.thisRepN'
p2957
I24
sg20
S'Y'
sg31
g32
sS'.thisTrialN'
p2958
I5
sS'.thisN'
p2959
I365
sS'.thisIndex'
p2960
I5
sg15
(lp2961
S'd'
asg30
Vm
sg17
S'Y'
sg14
I8
sg19
(lp2962
S'space'
p2963
asg94
I5
sa(dp2964
g16
(lp2965
S'd'
asg18
S'N'
sS'.thisRepN'
p2966
I24
sg20
S'Y'
sg31
g32
sS'.thisTrialN'
p2967
I6
sS'.thisN'
p2968
I366
sS'.thisIndex'
p2969
I5
sg15
(lp2970
S'd'
asg30
Vm
sg17
S'Y'
sg14
I8
sg19
Nsg94
I5
sa(dp2971
g16
(lp2972
S'k'
asg18
S'Y'
sS'.thisRepN'
p2973
I24
sg20
S'Y'
sg31
g32
sS'.thisTrialN'
p2974
I7
sS'.thisN'
p2975
I367
sS'.thisIndex'
p2976
I4
sg15
(lp2977
S'k'
asg30
Vm
sg17
S'Y'
sg14
I8
sg19
(lp2978
S'space'
p2979
asg94
I4
sa(dp2980
g16
(lp2981
S'k'
asg18
S'Y'
sS'.thisRepN'
p2982
I24
sg20
S'Y'
sg31
g32
sS'.thisTrialN'
p2983
I8
sS'.thisN'
p2984
I368
sS'.thisIndex'
p2985
I7
sg15
(lp2986
S'k'
asg30
Vm
sg17
S'Y'
sg14
I8
sg19
(lp2987
S'space'
p2988
asg94
I7
sa(dp2989
g16
(lp2990
S'k'
asg18
S'N'
sS'.thisRepN'
p2991
I24
sg20
S'Y'
sg31
g32
sS'.thisTrialN'
p2992
I9
sS'.thisN'
p2993
I369
sS'.thisIndex'
p2994
I4
sg15
(lp2995
S'k'
asg30
Vm
sg17
S'Y'
sg14
I8
sg19
Nsg94
I4
sa(dp2996
g16
(lp2997
S'k'
asg18
S'Y'
sS'.thisRepN'
p2998
I24
sg20
S'Y'
sg31
g32
sS'.thisTrialN'
p2999
I10
sS'.thisN'
p3000
I370
sS'.thisIndex'
p3001
I0
sg15
(lp3002
S'd'
asg30
Vm
sg17
S'N'
sg14
I8
sg19
(lp3003
S'space'
p3004
asg94
I0
sa(dp3005
g16
(lp3006
S'k'
asg18
S'N'
sS'.thisRepN'
p3007
I24
sg20
S'Y'
sg31
g32
sS'.thisTrialN'
p3008
I11
sS'.thisN'
p3009
I371
sS'.thisIndex'
p3010
I14
sg15
(lp3011
S'k'
asg30
Vm
sg17
S'Y'
sg14
I8
sg19
Nsg94
I14
sa(dp3012
g16
(lp3013
S'd'
asg18
S'N'
sS'.thisRepN'
p3014
I24
sg20
S'Y'
sg31
g32
sS'.thisTrialN'
p3015
I12
sS'.thisN'
p3016
I372
sS'.thisIndex'
p3017
I12
sg15
(lp3018
S'd'
asg30
Vm
sg17
S'Y'
sg14
I8
sg19
Nsg94
I12
sa(dp3019
g16
(lp3020
S'k'
asg18
S'Y'
sS'.thisRepN'
p3021
I24
sg20
S'Y'
sg31
g32
sS'.thisTrialN'
p3022
I13
sS'.thisN'
p3023
I373
sS'.thisIndex'
p3024
I14
sg15
(lp3025
S'k'
asg30
Vm
sg17
S'Y'
sg14
I8
sg19
(lp3026
S'space'
p3027
asg94
I14
sa(dp3028
g16
(lp3029
S'd'
asg18
S'N'
sS'.thisRepN'
p3030
I24
sg20
S'Y'
sg31
g32
sS'.thisTrialN'
p3031
I14
sS'.thisN'
p3032
I374
sS'.thisIndex'
p3033
I5
sg15
(lp3034
S'd'
asg30
Vm
sg17
S'Y'
sg14
I8
sg19
Nsg94
I5
sa(dp3035
g16
(lp3036
S'k'
asg18
S'Y'
sS'.thisRepN'
p3037
I25
sg20
S'Y'
sg31
g32
sS'.thisTrialN'
p3038
I0
sS'.thisN'
p3039
I375
sS'.thisIndex'
p3040
I0
sg15
(lp3041
S'k'
asg30
Vm
sg17
S'Y'
sg14
I8
sg19
(lp3042
S'space'
p3043
asg94
I0
sa(dp3044
g16
(lp3045
S'd'
asg18
S'Y'
sS'.thisRepN'
p3046
I25
sg20
S'Y'
sg31
g32
sS'.thisTrialN'
p3047
I1
sS'.thisN'
p3048
I376
sS'.thisIndex'
p3049
I9
sg15
(lp3050
S'd'
asg30
Vm
sg17
S'Y'
sg14
I8
sg19
(lp3051
S'space'
p3052
asg94
I9
sa(dp3053
g16
(lp3054
S'k'
asg18
S'Y'
sS'.thisRepN'
p3055
I25
sg20
S'Y'
sg31
g32
sS'.thisTrialN'
p3056
I2
sS'.thisN'
p3057
I377
sS'.thisIndex'
p3058
I1
sg15
(lp3059
S'k'
asg30
Vm
sg17
S'Y'
sg14
I8
sg19
(lp3060
S'space'
p3061
asg94
I1
sa(dp3062
g16
(lp3063
S'd'
asg18
S'Y'
sS'.thisRepN'
p3064
I25
sg20
S'Y'
sg31
g32
sS'.thisTrialN'
p3065
I3
sS'.thisN'
p3066
I378
sS'.thisIndex'
p3067
I5
sg15
(lp3068
S'd'
asg30
Vm
sg17
S'Y'
sg14
I8
sg19
(lp3069
S'space'
p3070
asg94
I5
sa(dp3071
g16
(lp3072
S'd'
asg18
S'Y'
sS'.thisRepN'
p3073
I25
sg20
S'Y'
sg31
g32
sS'.thisTrialN'
p3074
I4
sS'.thisN'
p3075
I379
sS'.thisIndex'
p3076
I8
sg15
(lp3077
S'd'
asg30
Vm
sg17
S'Y'
sg14
I8
sg19
(lp3078
S'space'
p3079
asg94
I8
sa(dp3080
g16
(lp3081
S'd'
asg18
S'Y'
sS'.thisRepN'
p3082
I25
sg20
S'Y'
sg31
g32
sS'.thisTrialN'
p3083
I5
sS'.thisN'
p3084
I380
sS'.thisIndex'
p3085
I8
sg15
(lp3086
S'd'
asg30
Vm
sg17
S'Y'
sg14
I8
sg19
(lp3087
S'space'
p3088
asg94
I8
sa(dp3089
g16
(lp3090
S'd'
asg18
S'Y'
sS'.thisRepN'
p3091
I25
sg20
S'Y'
sg31
g32
sS'.thisTrialN'
p3092
I6
sS'.thisN'
p3093
I381
sS'.thisIndex'
p3094
I7
sg15
(lp3095
S'd'
asg30
Vm
sg17
S'Y'
sg14
I8
sg19
(lp3096
S'space'
p3097
asg94
I7
sa(dp3098
g16
(lp3099
S'k'
asg18
S'N'
sS'.thisRepN'
p3100
I25
sg20
S'Y'
sg31
g32
sS'.thisTrialN'
p3101
I7
sS'.thisN'
p3102
I382
sS'.thisIndex'
p3103
I11
sg15
(lp3104
S'k'
asg30
Vm
sg17
S'Y'
sg14
I8
sg19
Nsg94
I11
sa(dp3105
g16
(lp3106
S'k'
asg18
S'Y'
sS'.thisRepN'
p3107
I25
sg20
S'Y'
sg31
g32
sS'.thisTrialN'
p3108
I8
sS'.thisN'
p3109
I383
sS'.thisIndex'
p3110
I1
sg15
(lp3111
S'k'
asg30
Vm
sg17
S'Y'
sg14
I8
sg19
(lp3112
S'space'
p3113
asg94
I1
sa(dp3114
g16
(lp3115
S'd'
asg18
S'Y'
sS'.thisRepN'
p3116
I25
sg20
S'Y'
sg31
g32
sS'.thisTrialN'
p3117
I9
sS'.thisN'
p3118
I384
sS'.thisIndex'
p3119
I1
sg15
(lp3120
S'd'
asg30
Vm
sg17
S'Y'
sg14
I8
sg19
(lp3121
S'space'
p3122
asg94
I1
sa(dp3123
g16
(lp3124
S'k'
asg18
S'N'
sS'.thisRepN'
p3125
I25
sg20
S'Y'
sg31
g32
sS'.thisTrialN'
p3126
I10
sS'.thisN'
p3127
I385
sS'.thisIndex'
p3128
I7
sg15
(lp3129
S'k'
asg30
Vm
sg17
S'Y'
sg14
I8
sg19
Nsg94
I7
sa(dp3130
g16
(lp3131
S'k'
asg18
S'N'
sS'.thisRepN'
p3132
I25
sg20
S'Y'
sg31
g32
sS'.thisTrialN'
p3133
I11
sS'.thisN'
p3134
I386
sS'.thisIndex'
p3135
I4
sg15
(lp3136
S'k'
asg30
Vm
sg17
S'Y'
sg14
I8
sg19
Nsg94
I4
sa(dp3137
g16
(lp3138
S'd'
asg18
S'Y'
sS'.thisRepN'
p3139
I25
sg20
S'Y'
sg31
g32
sS'.thisTrialN'
p3140
I12
sS'.thisN'
p3141
I387
sS'.thisIndex'
p3142
I9
sg15
(lp3143
S'd'
asg30
Vm
sg17
S'Y'
sg14
I8
sg19
(lp3144
S'space'
p3145
asg94
I9
sa(dp3146
g16
(lp3147
S'k'
asg18
S'N'
sS'.thisRepN'
p3148
I25
sg20
S'N'
sg31
g32
sS'.thisTrialN'
p3149
I13
sS'.thisN'
p3150
I388
sS'.thisIndex'
p3151
I11
sg15
(lp3152
S'k'
asg30
Vm
sg17
S'Y'
sg14
I8
sg19
(lp3153
S'space'
p3154
asg94
I11
sa(dp3155
g16
(lp3156
S'k'
asg18
S'Y'
sS'.thisRepN'
p3157
I25
sg20
S'Y'
sg31
g32
sS'.thisTrialN'
p3158
I14
sS'.thisN'
p3159
I389
sS'.thisIndex'
p3160
I2
sg15
(lp3161
S'k'
asg30
Vm
sg17
S'Y'
sg14
I8
sg19
(lp3162
S'space'
p3163
asg94
I2
sa(dp3164
g16
(lp3165
S'k'
asg18
S'N'
sS'.thisRepN'
p3166
I26
sg20
S'Y'
sg31
g32
sS'.thisTrialN'
p3167
I0
sS'.thisN'
p3168
I390
sS'.thisIndex'
p3169
I14
sg15
(lp3170
S'k'
asg30
Vm
sg17
S'Y'
sg14
I8
sg19
Nsg94
I14
sa(dp3171
g16
(lp3172
S'k'
asg18
S'Y'
sS'.thisRepN'
p3173
I26
sg20
S'Y'
sg31
g32
sS'.thisTrialN'
p3174
I1
sS'.thisN'
p3175
I391
sS'.thisIndex'
p3176
I8
sg15
(lp3177
S'd'
asg30
Vm
sg17
S'N'
sg14
I8
sg19
(lp3178
S'space'
p3179
asg94
I8
sa(dp3180
g16
(lp3181
S'd'
asg18
S'Y'
sS'.thisRepN'
p3182
I26
sg20
S'Y'
sg31
g32
sS'.thisTrialN'
p3183
I2
sS'.thisN'
p3184
I392
sS'.thisIndex'
p3185
I0
sg15
(lp3186
S'd'
asg30
Vm
sg17
S'Y'
sg14
I8
sg19
(lp3187
S'space'
p3188
asg94
I0
sa(dp3189
g16
(lp3190
S'k'
asg18
S'N'
sS'.thisRepN'
p3191
I26
sg20
S'Y'
sg31
g32
sS'.thisTrialN'
p3192
I3
sS'.thisN'
p3193
I393
sS'.thisIndex'
p3194
I1
sg15
(lp3195
S'k'
asg30
Vm
sg17
S'Y'
sg14
I8
sg19
Nsg94
I1
sa(dp3196
g16
(lp3197
S'k'
asg18
S'N'
sS'.thisRepN'
p3198
I26
sg20
S'Y'
sg31
g32
sS'.thisTrialN'
p3199
I4
sS'.thisN'
p3200
I394
sS'.thisIndex'
p3201
I0
sg15
(lp3202
S'k'
asg30
Vm
sg17
S'Y'
sg14
I8
sg19
Nsg94
I0
sa(dp3203
g16
(lp3204
S'd'
asg18
S'N'
sS'.thisRepN'
p3205
I26
sg20
S'Y'
sg31
g32
sS'.thisTrialN'
p3206
I5
sS'.thisN'
p3207
I395
sS'.thisIndex'
p3208
I10
sg15
(lp3209
S'd'
asg30
Vm
sg17
S'Y'
sg14
I8
sg19
Nsg94
I10
sa(dp3210
g16
(lp3211
S'd'
asg18
S'N'
sS'.thisRepN'
p3212
I26
sg20
S'Y'
sg31
g32
sS'.thisTrialN'
p3213
I6
sS'.thisN'
p3214
I396
sS'.thisIndex'
p3215
I0
sg15
(lp3216
S'd'
asg30
Vm
sg17
S'Y'
sg14
I8
sg19
Nsg94
I0
sa(dp3217
g16
(lp3218
S'k'
asg18
S'N'
sS'.thisRepN'
p3219
I26
sg20
S'N'
sg31
g32
sS'.thisTrialN'
p3220
I7
sS'.thisN'
p3221
I397
sS'.thisIndex'
p3222
I0
sg15
(lp3223
S'k'
asg30
Vm
sg17
S'Y'
sg14
I8
sg19
(lp3224
S'space'
p3225
asg94
I0
sa(dp3226
g16
(lp3227
S'd'
asg18
S'N'
sS'.thisRepN'
p3228
I26
sg20
S'Y'
sg31
g32
sS'.thisTrialN'
p3229
I8
sS'.thisN'
p3230
I398
sS'.thisIndex'
p3231
I10
sg15
(lp3232
S'd'
asg30
Vm
sg17
S'Y'
sg14
I8
sg19
Nsg94
I10
sa(dp3233
g16
(lp3234
S'd'
asg18
S'N'
sg22
I43
sS'.thisN'
p3235
I399
sg20
S'Y'
sg31
g32
sS'.thisTrialN'
p3236
I9
sS'.thisRepN'
p3237
I26
sg21
I47
sS'.thisIndex'
p3238
I2
sg23
I25
sg15
(lp3239
S'd'
asg30
Vm
sg17
S'Y'
sg14
I8
sg19
Nsg94
I2
sa(dp3240
g16
(lp3241
S'd'
asg94
I10
sS'.thisRepN'
p3242
I26
sg30
Vm
sg31
g32
sS'.thisTrialN'
p3243
I10
sS'.thisN'
p3244
I400
sS'.thisIndex'
p3245
I10
sg15
(lp3246
S'd'
asg17
S'Y'
sg14
I9
sa(dp3247
g16
(lp3248
S'd'
asg94
I10
sS'.thisRepN'
p3249
I26
sg30
Vm
sg31
g32
sS'.thisTrialN'
p3250
I11
sS'.thisN'
p3251
I401
sS'.thisIndex'
p3252
I10
sg15
(lp3253
S'd'
asg17
S'Y'
sg14
I9
sa(dp3254
g16
(lp3255
S'k'
asg18
S'Y'
sS'.thisRepN'
p3256
I26
sg20
S'Y'
sg31
g32
sS'.thisTrialN'
p3257
I12
sS'.thisN'
p3258
I402
sS'.thisIndex'
p3259
I2
sg15
(lp3260
S'k'
asg30
Vm
sg17
S'Y'
sg14
I9
sg19
(lp3261
S'space'
p3262
asg94
I2
sa(dp3263
g16
(lp3264
S'k'
asg18
S'N'
sS'.thisRepN'
p3265
I26
sg20
S'Y'
sg31
g32
sS'.thisTrialN'
p3266
I13
sS'.thisN'
p3267
I403
sS'.thisIndex'
p3268
I3
sg15
(lp3269
S'k'
asg30
Vm
sg17
S'Y'
sg14
I9
sg19
Nsg94
I3
sa(dp3270
g16
(lp3271
S'k'
asg18
S'N'
sS'.thisRepN'
p3272
I26
sg20
S'Y'
sg31
g32
sS'.thisTrialN'
p3273
I14
sS'.thisN'
p3274
I404
sS'.thisIndex'
p3275
I8
sg15
(lp3276
S'k'
asg30
Vm
sg17
S'Y'
sg14
I9
sg19
Nsg94
I8
sa(dp3277
g16
(lp3278
S'd'
asg18
S'N'
sS'.thisRepN'
p3279
I27
sg20
S'Y'
sg31
g32
sS'.thisTrialN'
p3280
I0
sS'.thisN'
p3281
I405
sS'.thisIndex'
p3282
I8
sg15
(lp3283
S'd'
asg30
Vm
sg17
S'Y'
sg14
I9
sg19
Nsg94
I8
sa(dp3284
g16
(lp3285
S'k'
asg18
S'N'
sS'.thisRepN'
p3286
I27
sg20
S'Y'
sg31
g32
sS'.thisTrialN'
p3287
I1
sS'.thisN'
p3288
I406
sS'.thisIndex'
p3289
I1
sg15
(lp3290
S'k'
asg30
Vm
sg17
S'Y'
sg14
I9
sg19
Nsg94
I1
sa(dp3291
g16
(lp3292
S'd'
asg18
S'N'
sS'.thisRepN'
p3293
I27
sg20
S'Y'
sg31
g32
sS'.thisTrialN'
p3294
I2
sS'.thisN'
p3295
I407
sS'.thisIndex'
p3296
I13
sg15
(lp3297
S'd'
asg30
Vm
sg17
S'Y'
sg14
I9
sg19
Nsg94
I13
sa(dp3298
g16
(lp3299
S'k'
asg18
S'N'
sS'.thisRepN'
p3300
I27
sg20
S'Y'
sg31
g32
sS'.thisTrialN'
p3301
I3
sS'.thisN'
p3302
I408
sS'.thisIndex'
p3303
I4
sg15
(lp3304
S'k'
asg30
Vm
sg17
S'Y'
sg14
I9
sg19
Nsg94
I4
sa(dp3305
g16
(lp3306
S'k'
asg18
S'Y'
sS'.thisRepN'
p3307
I27
sg20
S'Y'
sg31
g32
sS'.thisTrialN'
p3308
I4
sS'.thisN'
p3309
I409
sS'.thisIndex'
p3310
I7
sg15
(lp3311
S'k'
asg30
Vm
sg17
S'Y'
sg14
I9
sg19
(lp3312
S'space'
p3313
asg94
I7
sa(dp3314
g16
(lp3315
S'd'
asg18
S'N'
sS'.thisRepN'
p3316
I27
sg20
S'Y'
sg31
g32
sS'.thisTrialN'
p3317
I5
sS'.thisN'
p3318
I410
sS'.thisIndex'
p3319
I7
sg15
(lp3320
S'd'
asg30
Vm
sg17
S'Y'
sg14
I9
sg19
Nsg94
I7
sa(dp3321
g16
(lp3322
S'k'
asg18
S'Y'
sS'.thisRepN'
p3323
I27
sg20
S'Y'
sg31
g32
sS'.thisTrialN'
p3324
I6
sS'.thisN'
p3325
I411
sS'.thisIndex'
p3326
I6
sg15
(lp3327
S'k'
asg30
Vm
sg17
S'Y'
sg14
I9
sg19
(lp3328
S'space'
p3329
asg94
I6
sa(dp3330
g16
(lp3331
S'd'
asg18
S'N'
sS'.thisRepN'
p3332
I27
sg20
S'Y'
sg31
g32
sS'.thisTrialN'
p3333
I7
sS'.thisN'
p3334
I412
sS'.thisIndex'
p3335
I8
sg15
(lp3336
S'd'
asg30
Vm
sg17
S'Y'
sg14
I9
sg19
Nsg94
I8
sa(dp3337
g16
(lp3338
S'd'
asg18
S'Y'
sS'.thisRepN'
p3339
I27
sg20
S'Y'
sg31
g32
sS'.thisTrialN'
p3340
I8
sS'.thisN'
p3341
I413
sS'.thisIndex'
p3342
I6
sg15
(lp3343
S'd'
asg30
Vm
sg17
S'Y'
sg14
I9
sg19
(lp3344
S'space'
p3345
asg94
I6
sa(dp3346
g16
(lp3347
S'k'
asg18
S'Y'
sS'.thisRepN'
p3348
I27
sg20
S'Y'
sg31
g32
sS'.thisTrialN'
p3349
I9
sS'.thisN'
p3350
I414
sS'.thisIndex'
p3351
I0
sg15
(lp3352
S'k'
asg30
Vm
sg17
S'Y'
sg14
I9
sg19
(lp3353
S'space'
p3354
asg94
I0
sa(dp3355
g16
(lp3356
S'd'
asg18
S'N'
sS'.thisRepN'
p3357
I27
sg20
S'Y'
sg31
g32
sS'.thisTrialN'
p3358
I10
sS'.thisN'
p3359
I415
sS'.thisIndex'
p3360
I5
sg15
(lp3361
S'd'
asg30
Vm
sg17
S'Y'
sg14
I9
sg19
Nsg94
I5
sa(dp3362
g16
(lp3363
S'd'
asg18
S'Y'
sS'.thisRepN'
p3364
I27
sg20
S'Y'
sg31
g32
sS'.thisTrialN'
p3365
I11
sS'.thisN'
p3366
I416
sS'.thisIndex'
p3367
I11
sg15
(lp3368
S'd'
asg30
Vm
sg17
S'Y'
sg14
I9
sg19
(lp3369
S'space'
p3370
asg94
I11
sa(dp3371
g16
(lp3372
S'd'
asg18
S'Y'
sS'.thisRepN'
p3373
I27
sg20
S'Y'
sg31
g32
sS'.thisTrialN'
p3374
I12
sS'.thisN'
p3375
I417
sS'.thisIndex'
p3376
I4
sg15
(lp3377
S'k'
asg30
Vm
sg17
S'N'
sg14
I9
sg19
(lp3378
S'space'
p3379
asg94
I4
sa(dp3380
g16
(lp3381
S'k'
asg18
S'N'
sS'.thisRepN'
p3382
I27
sg20
S'Y'
sg31
g32
sS'.thisTrialN'
p3383
I13
sS'.thisN'
p3384
I418
sS'.thisIndex'
p3385
I11
sg15
(lp3386
S'k'
asg30
Vm
sg17
S'Y'
sg14
I9
sg19
Nsg94
I11
sa(dp3387
g16
(lp3388
S'k'
asg18
S'Y'
sS'.thisRepN'
p3389
I27
sg20
S'Y'
sg31
g32
sS'.thisTrialN'
p3390
I14
sS'.thisN'
p3391
I419
sS'.thisIndex'
p3392
I6
sg15
(lp3393
S'k'
asg30
Vm
sg17
S'Y'
sg14
I9
sg19
(lp3394
S'space'
p3395
asg94
I6
sa(dp3396
g16
(lp3397
S'd'
asg18
S'Y'
sS'.thisRepN'
p3398
I28
sg20
S'Y'
sg31
g32
sS'.thisTrialN'
p3399
I0
sS'.thisN'
p3400
I420
sS'.thisIndex'
p3401
I4
sg15
(lp3402
S'd'
asg30
Vm
sg17
S'Y'
sg14
I9
sg19
(lp3403
S'space'
p3404
asg94
I4
sa(dp3405
g16
(lp3406
S'k'
asg18
S'N'
sS'.thisRepN'
p3407
I28
sg20
S'Y'
sg31
g32
sS'.thisTrialN'
p3408
I1
sS'.thisN'
p3409
I421
sS'.thisIndex'
p3410
I5
sg15
(lp3411
S'k'
asg30
Vm
sg17
S'Y'
sg14
I9
sg19
Nsg94
I5
sa(dp3412
g16
(lp3413
S'd'
asg18
S'N'
sS'.thisRepN'
p3414
I28
sg20
S'Y'
sg31
g32
sS'.thisTrialN'
p3415
I2
sS'.thisN'
p3416
I422
sS'.thisIndex'
p3417
I12
sg15
(lp3418
S'd'
asg30
Vm
sg17
S'Y'
sg14
I9
sg19
Nsg94
I12
sa(dp3419
g16
(lp3420
S'k'
asg18
S'Y'
sS'.thisRepN'
p3421
I28
sg20
S'Y'
sg31
g32
sS'.thisTrialN'
p3422
I3
sS'.thisN'
p3423
I423
sS'.thisIndex'
p3424
I0
sg15
(lp3425
S'k'
asg30
Vm
sg17
S'Y'
sg14
I9
sg19
(lp3426
S'space'
p3427
asg94
I0
sa(dp3428
g16
(lp3429
S'd'
asg18
S'Y'
sS'.thisRepN'
p3430
I28
sg20
S'Y'
sg31
g32
sS'.thisTrialN'
p3431
I4
sS'.thisN'
p3432
I424
sS'.thisIndex'
p3433
I10
sg15
(lp3434
S'd'
asg30
Vm
sg17
S'Y'
sg14
I9
sg19
(lp3435
S'space'
p3436
asg94
I10
sa(dp3437
g16
(lp3438
S'k'
asg18
S'Y'
sS'.thisRepN'
p3439
I28
sg20
S'Y'
sg31
g32
sS'.thisTrialN'
p3440
I5
sS'.thisN'
p3441
I425
sS'.thisIndex'
p3442
I7
sg15
(lp3443
S'k'
asg30
Vm
sg17
S'Y'
sg14
I9
sg19
(lp3444
S'space'
p3445
asg94
I7
sa(dp3446
g16
(lp3447
S'd'
asg18
S'Y'
sS'.thisRepN'
p3448
I28
sg20
S'Y'
sg31
g32
sS'.thisTrialN'
p3449
I6
sS'.thisN'
p3450
I426
sS'.thisIndex'
p3451
I5
sg15
(lp3452
S'd'
asg30
Vm
sg17
S'Y'
sg14
I9
sg19
(lp3453
S'space'
p3454
asg94
I5
sa(dp3455
g16
(lp3456
S'd'
asg18
S'N'
sS'.thisRepN'
p3457
I28
sg20
S'Y'
sg31
g32
sS'.thisTrialN'
p3458
I7
sS'.thisN'
p3459
I427
sS'.thisIndex'
p3460
I14
sg15
(lp3461
S'd'
asg30
Vm
sg17
S'Y'
sg14
I9
sg19
Nsg94
I14
sa(dp3462
g16
(lp3463
S'd'
asg18
S'N'
sS'.thisRepN'
p3464
I28
sg20
S'Y'
sg31
g32
sS'.thisTrialN'
p3465
I8
sS'.thisN'
p3466
I428
sS'.thisIndex'
p3467
I0
sg15
(lp3468
S'd'
asg30
Vm
sg17
S'Y'
sg14
I9
sg19
Nsg94
I0
sa(dp3469
g16
(lp3470
S'd'
asg18
S'Y'
sS'.thisRepN'
p3471
I28
sg20
S'N'
sg31
g32
sS'.thisTrialN'
p3472
I9
sS'.thisN'
p3473
I429
sS'.thisIndex'
p3474
I10
sg15
(lp3475
S'd'
asg30
Vm
sg17
S'Y'
sg14
I9
sg19
Nsg94
I10
sa(dp3476
g16
(lp3477
S'k'
asg18
S'Y'
sS'.thisRepN'
p3478
I28
sg20
S'Y'
sg31
g32
sS'.thisTrialN'
p3479
I10
sS'.thisN'
p3480
I430
sS'.thisIndex'
p3481
I13
sg15
(lp3482
S'k'
asg30
Vm
sg17
S'Y'
sg14
I9
sg19
(lp3483
S'space'
p3484
asg94
I13
sa(dp3485
g16
(lp3486
S'k'
asg18
S'N'
sS'.thisRepN'
p3487
I28
sg20
S'Y'
sg31
g32
sS'.thisTrialN'
p3488
I11
sS'.thisN'
p3489
I431
sS'.thisIndex'
p3490
I12
sg15
(lp3491
S'k'
asg30
Vm
sg17
S'Y'
sg14
I9
sg19
Nsg94
I12
sa(dp3492
g16
(lp3493
S'd'
asg18
S'Y'
sS'.thisRepN'
p3494
I28
sg20
S'Y'
sg31
g32
sS'.thisTrialN'
p3495
I12
sS'.thisN'
p3496
I432
sS'.thisIndex'
p3497
I1
sg15
(lp3498
S'd'
asg30
Vm
sg17
S'Y'
sg14
I9
sg19
(lp3499
S'space'
p3500
asg94
I1
sa(dp3501
g16
(lp3502
S'k'
asg18
S'N'
sS'.thisRepN'
p3503
I28
sg20
S'Y'
sg31
g32
sS'.thisTrialN'
p3504
I13
sS'.thisN'
p3505
I433
sS'.thisIndex'
p3506
I7
sg15
(lp3507
S'k'
asg30
Vm
sg17
S'Y'
sg14
I9
sg19
Nsg94
I7
sa(dp3508
g16
(lp3509
S'k'
asg18
S'Y'
sS'.thisRepN'
p3510
I28
sg20
S'Y'
sg31
g32
sS'.thisTrialN'
p3511
I14
sS'.thisN'
p3512
I434
sS'.thisIndex'
p3513
I8
sg15
(lp3514
S'k'
asg30
Vm
sg17
S'Y'
sg14
I9
sg19
(lp3515
S'space'
p3516
asg94
I8
sa(dp3517
g16
(lp3518
S'k'
asg18
S'N'
sS'.thisRepN'
p3519
I29
sg20
S'Y'
sg31
g32
sS'.thisTrialN'
p3520
I0
sS'.thisN'
p3521
I435
sS'.thisIndex'
p3522
I12
sg15
(lp3523
S'k'
asg30
Vm
sg17
S'Y'
sg14
I9
sg19
Nsg94
I12
sa(dp3524
g16
(lp3525
S'k'
asg18
S'N'
sS'.thisRepN'
p3526
I29
sg20
S'Y'
sg31
g32
sS'.thisTrialN'
p3527
I1
sS'.thisN'
p3528
I436
sS'.thisIndex'
p3529
I0
sg15
(lp3530
S'k'
asg30
Vm
sg17
S'Y'
sg14
I9
sg19
Nsg94
I0
sa(dp3531
g16
(lp3532
S'd'
asg18
S'Y'
sS'.thisRepN'
p3533
I29
sg20
S'Y'
sg31
g32
sS'.thisTrialN'
p3534
I2
sS'.thisN'
p3535
I437
sS'.thisIndex'
p3536
I11
sg15
(lp3537
S'd'
asg30
Vm
sg17
S'Y'
sg14
I9
sg19
(lp3538
S'space'
p3539
asg94
I11
sa(dp3540
g16
(lp3541
S'k'
asg18
S'N'
sS'.thisRepN'
p3542
I29
sg20
S'Y'
sg31
g32
sS'.thisTrialN'
p3543
I3
sS'.thisN'
p3544
I438
sS'.thisIndex'
p3545
I2
sg15
(lp3546
S'k'
asg30
Vm
sg17
S'Y'
sg14
I9
sg19
Nsg94
I2
sa(dp3547
g16
(lp3548
S'k'
asg18
S'Y'
sS'.thisRepN'
p3549
I29
sg20
S'N'
sg31
g32
sS'.thisTrialN'
p3550
I4
sS'.thisN'
p3551
I439
sS'.thisIndex'
p3552
I6
sg15
(lp3553
S'd'
asg30
Vm
sg17
S'N'
sg14
I9
sg19
Nsg94
I6
sa(dp3554
g16
(lp3555
S'k'
asg18
S'Y'
sS'.thisRepN'
p3556
I29
sg20
S'Y'
sg31
g32
sS'.thisTrialN'
p3557
I5
sS'.thisN'
p3558
I440
sS'.thisIndex'
p3559
I10
sg15
(lp3560
S'k'
asg30
Vm
sg17
S'Y'
sg14
I9
sg19
(lp3561
S'space'
p3562
asg94
I10
sa(dp3563
g16
(lp3564
S'd'
asg18
S'Y'
sS'.thisRepN'
p3565
I29
sg20
S'Y'
sg31
g32
sS'.thisTrialN'
p3566
I6
sS'.thisN'
p3567
I441
sS'.thisIndex'
p3568
I12
sg15
(lp3569
S'd'
asg30
Vm
sg17
S'Y'
sg14
I9
sg19
(lp3570
S'space'
p3571
asg94
I12
sa(dp3572
g16
(lp3573
S'd'
asg18
S'Y'
sS'.thisRepN'
p3574
I29
sg20
S'N'
sg31
g32
sS'.thisTrialN'
p3575
I7
sS'.thisN'
p3576
I442
sS'.thisIndex'
p3577
I10
sg15
(lp3578
S'd'
asg30
Vm
sg17
S'Y'
sg14
I9
sg19
Nsg94
I10
sa(dp3579
g16
(lp3580
S'd'
asg18
S'N'
sS'.thisRepN'
p3581
I29
sg20
S'Y'
sg31
g32
sS'.thisTrialN'
p3582
I8
sS'.thisN'
p3583
I443
sS'.thisIndex'
p3584
I4
sg15
(lp3585
S'k'
asg30
Vm
sg17
S'N'
sg14
I9
sg19
Nsg94
I4
sa(dp3586
g16
(lp3587
S'k'
asg18
S'Y'
sS'.thisRepN'
p3588
I29
sg20
S'Y'
sg31
g32
sS'.thisTrialN'
p3589
I9
sS'.thisN'
p3590
I444
sS'.thisIndex'
p3591
I1
sg15
(lp3592
S'k'
asg30
Vm
sg17
S'Y'
sg14
I9
sg19
(lp3593
S'space'
p3594
asg94
I1
sa(dp3595
g16
(lp3596
S'd'
asg18
S'Y'
sS'.thisRepN'
p3597
I29
sg20
S'Y'
sg31
g32
sS'.thisTrialN'
p3598
I10
sS'.thisN'
p3599
I445
sS'.thisIndex'
p3600
I5
sg15
(lp3601
S'd'
asg30
Vm
sg17
S'Y'
sg14
I9
sg19
(lp3602
S'space'
p3603
asg94
I5
sa(dp3604
g16
(lp3605
S'k'
asg18
S'N'
sS'.thisRepN'
p3606
I29
sg20
S'Y'
sg31
g32
sS'.thisTrialN'
p3607
I11
sS'.thisN'
p3608
I446
sS'.thisIndex'
p3609
I4
sg15
(lp3610
S'k'
asg30
Vm
sg17
S'Y'
sg14
I9
sg19
Nsg94
I4
sa(dp3611
g16
(lp3612
S'd'
asg18
S'Y'
sS'.thisRepN'
p3613
I29
sg20
S'Y'
sg31
g32
sS'.thisTrialN'
p3614
I12
sS'.thisN'
p3615
I447
sS'.thisIndex'
p3616
I6
sg15
(lp3617
S'd'
asg30
Vm
sg17
S'Y'
sg14
I9
sg19
(lp3618
S'space'
p3619
asg94
I6
sa(dp3620
g16
(lp3621
S'd'
asg18
S'N'
sS'.thisRepN'
p3622
I29
sg20
S'N'
sg31
g32
sS'.thisTrialN'
p3623
I13
sS'.thisN'
p3624
I448
sS'.thisIndex'
p3625
I4
sg15
(lp3626
S'd'
asg30
Vm
sg17
S'Y'
sg14
I9
sg19
(lp3627
S'space'
p3628
asg94
I4
sa(dp3629
g16
(lp3630
S'd'
asg18
S'N'
sg22
I44
sS'.thisN'
p3631
I449
sg20
S'Y'
sg31
g32
sS'.thisTrialN'
p3632
I14
sS'.thisRepN'
p3633
I29
sg21
I47
sS'.thisIndex'
p3634
I9
sg23
I25
sg15
(lp3635
S'd'
asg30
Vm
sg17
S'Y'
sg14
I9
sg19
Nsg94
I9
sa(dp3636
g16
(lp3637
S'd'
asg94
I13
sS'.thisRepN'
p3638
I30
sg30
Vm
sg31
g32
sS'.thisTrialN'
p3639
I0
sS'.thisN'
p3640
I450
sS'.thisIndex'
p3641
I13
sg15
(lp3642
S'd'
asg17
S'Y'
sg14
I10
sa(dp3643
g16
(lp3644
S'k'
asg94
I4
sS'.thisRepN'
p3645
I30
sg30
Vm
sg31
g32
sS'.thisTrialN'
p3646
I1
sS'.thisN'
p3647
I451
sS'.thisIndex'
p3648
I4
sg15
(lp3649
S'k'
asg17
S'Y'
sg14
I10
sa(dp3650
g16
(lp3651
S'k'
asg18
S'N'
sS'.thisRepN'
p3652
I30
sg20
S'Y'
sg31
g32
sS'.thisTrialN'
p3653
I2
sS'.thisN'
p3654
I452
sS'.thisIndex'
p3655
I0
sg15
(lp3656
S'k'
asg30
Vm
sg17
S'Y'
sg14
I10
sg19
Nsg94
I0
sa(dp3657
g16
(lp3658
S'k'
asg18
S'Y'
sS'.thisRepN'
p3659
I30
sg20
S'Y'
sg31
g32
sS'.thisTrialN'
p3660
I3
sS'.thisN'
p3661
I453
sS'.thisIndex'
p3662
I5
sg15
(lp3663
S'k'
asg30
Vm
sg17
S'Y'
sg14
I10
sg19
(lp3664
S'space'
p3665
asg94
I5
sa(dp3666
g16
(lp3667
S'd'
asg18
S'N'
sS'.thisRepN'
p3668
I30
sg20
S'Y'
sg31
g32
sS'.thisTrialN'
p3669
I4
sS'.thisN'
p3670
I454
sS'.thisIndex'
p3671
I11
sg15
(lp3672
S'd'
asg30
Vm
sg17
S'Y'
sg14
I10
sg19
Nsg94
I11
sa(dp3673
g16
(lp3674
S'd'
asg18
S'Y'
sS'.thisRepN'
p3675
I30
sg20
S'N'
sg31
g32
sS'.thisTrialN'
p3676
I5
sS'.thisN'
p3677
I455
sS'.thisIndex'
p3678
I0
sg15
(lp3679
S'd'
asg30
Vm
sg17
S'Y'
sg14
I10
sg19
Nsg94
I0
sa(dp3680
g16
(lp3681
S'd'
asg18
S'N'
sS'.thisRepN'
p3682
I30
sg20
S'Y'
sg31
g32
sS'.thisTrialN'
p3683
I6
sS'.thisN'
p3684
I456
sS'.thisIndex'
p3685
I3
sg15
(lp3686
S'd'
asg30
Vm
sg17
S'Y'
sg14
I10
sg19
Nsg94
I3
sa(dp3687
g16
(lp3688
S'd'
asg18
S'Y'
sS'.thisRepN'
p3689
I30
sg20
S'Y'
sg31
g32
sS'.thisTrialN'
p3690
I7
sS'.thisN'
p3691
I457
sS'.thisIndex'
p3692
I2
sg15
(lp3693
S'd'
asg30
Vm
sg17
S'Y'
sg14
I10
sg19
(lp3694
S'space'
p3695
asg94
I2
sa(dp3696
g16
(lp3697
S'd'
asg18
S'Y'
sS'.thisRepN'
p3698
I30
sg20
S'Y'
sg31
g32
sS'.thisTrialN'
p3699
I8
sS'.thisN'
p3700
I458
sS'.thisIndex'
p3701
I14
sg15
(lp3702
S'd'
asg30
Vm
sg17
S'Y'
sg14
I10
sg19
(lp3703
S'space'
p3704
asg94
I14
sa(dp3705
g16
(lp3706
S'd'
asg18
S'Y'
sS'.thisRepN'
p3707
I30
sg20
S'Y'
sg31
g32
sS'.thisTrialN'
p3708
I9
sS'.thisN'
p3709
I459
sS'.thisIndex'
p3710
I3
sg15
(lp3711
S'd'
asg30
Vm
sg17
S'Y'
sg14
I10
sg19
(lp3712
S'space'
p3713
asg94
I3
sa(dp3714
g16
(lp3715
S'd'
asg18
S'N'
sS'.thisRepN'
p3716
I30
sg20
S'Y'
sg31
g32
sS'.thisTrialN'
p3717
I10
sS'.thisN'
p3718
I460
sS'.thisIndex'
p3719
I2
sg15
(lp3720
S'd'
asg30
Vm
sg17
S'Y'
sg14
I10
sg19
Nsg94
I2
sa(dp3721
g16
(lp3722
S'd'
asg18
S'N'
sS'.thisRepN'
p3723
I30
sg20
S'Y'
sg31
g32
sS'.thisTrialN'
p3724
I11
sS'.thisN'
p3725
I461
sS'.thisIndex'
p3726
I10
sg15
(lp3727
S'k'
asg30
Vm
sg17
S'N'
sg14
I10
sg19
Nsg94
I10
sa(dp3728
g16
(lp3729
S'd'
asg18
S'Y'
sS'.thisRepN'
p3730
I30
sg20
S'Y'
sg31
g32
sS'.thisTrialN'
p3731
I12
sS'.thisN'
p3732
I462
sS'.thisIndex'
p3733
I9
sg15
(lp3734
S'd'
asg30
Vm
sg17
S'Y'
sg14
I10
sg19
(lp3735
S'space'
p3736
asg94
I9
sa(dp3737
g16
(lp3738
S'k'
asg18
S'N'
sS'.thisRepN'
p3739
I30
sg20
S'Y'
sg31
g32
sS'.thisTrialN'
p3740
I13
sS'.thisN'
p3741
I463
sS'.thisIndex'
p3742
I4
sg15
(lp3743
S'k'
asg30
Vm
sg17
S'Y'
sg14
I10
sg19
Nsg94
I4
sa(dp3744
g16
(lp3745
S'k'
asg18
S'Y'
sS'.thisRepN'
p3746
I30
sg20
S'Y'
sg31
g32
sS'.thisTrialN'
p3747
I14
sS'.thisN'
p3748
I464
sS'.thisIndex'
p3749
I6
sg15
(lp3750
S'k'
asg30
Vm
sg17
S'Y'
sg14
I10
sg19
(lp3751
S'space'
p3752
asg94
I6
sa(dp3753
g16
(lp3754
S'd'
asg18
S'Y'
sS'.thisRepN'
p3755
I31
sg20
S'Y'
sg31
g32
sS'.thisTrialN'
p3756
I0
sS'.thisN'
p3757
I465
sS'.thisIndex'
p3758
I12
sg15
(lp3759
S'd'
asg30
Vm
sg17
S'Y'
sg14
I10
sg19
(lp3760
S'space'
p3761
asg94
I12
sa(dp3762
g16
(lp3763
S'k'
asg18
S'Y'
sS'.thisRepN'
p3764
I31
sg20
S'Y'
sg31
g32
sS'.thisTrialN'
p3765
I1
sS'.thisN'
p3766
I466
sS'.thisIndex'
p3767
I3
sg15
(lp3768
S'k'
asg30
Vm
sg17
S'Y'
sg14
I10
sg19
(lp3769
S'space'
p3770
asg94
I3
sa(dp3771
g16
(lp3772
S'k'
asg18
S'Y'
sS'.thisRepN'
p3773
I31
sg20
S'N'
sg31
g32
sS'.thisTrialN'
p3774
I2
sS'.thisN'
p3775
I467
sS'.thisIndex'
p3776
I5
sg15
(lp3777
S'k'
asg30
Vm
sg17
S'Y'
sg14
I10
sg19
(lp3778
S'd'
asg94
I5
sa(dp3779
g16
(lp3780
S'k'
asg18
S'Y'
sS'.thisRepN'
p3781
I31
sg20
S'N'
sg31
g32
sS'.thisTrialN'
p3782
I3
sS'.thisN'
p3783
I468
sS'.thisIndex'
p3784
I12
sg15
(lp3785
S'k'
asg30
Vm
sg17
S'Y'
sg14
I10
sg19
(lp3786
S'd'
asg94
I12
sa(dp3787
g16
(lp3788
S'd'
asg18
S'Y'
sS'.thisRepN'
p3789
I31
sg20
S'Y'
sg31
g32
sS'.thisTrialN'
p3790
I4
sS'.thisN'
p3791
I469
sS'.thisIndex'
p3792
I12
sg15
(lp3793
S'd'
asg30
Vm
sg17
S'Y'
sg14
I10
sg19
(lp3794
S'space'
p3795
asg94
I12
sa(dp3796
g16
(lp3797
S'k'
asg18
S'Y'
sS'.thisRepN'
p3798
I31
sg20
S'Y'
sg31
g32
sS'.thisTrialN'
p3799
I5
sS'.thisN'
p3800
I470
sS'.thisIndex'
p3801
I10
sg15
(lp3802
S'k'
asg30
Vm
sg17
S'Y'
sg14
I10
sg19
(lp3803
S'space'
p3804
asg94
I10
sa(dp3805
g16
(lp3806
S'd'
asg18
S'N'
sS'.thisRepN'
p3807
I31
sg20
S'Y'
sg31
g32
sS'.thisTrialN'
p3808
I6
sS'.thisN'
p3809
I471
sS'.thisIndex'
p3810
I3
sg15
(lp3811
S'd'
asg30
Vm
sg17
S'Y'
sg14
I10
sg19
Nsg94
I3
sa(dp3812
g16
(lp3813
S'k'
asg18
S'N'
sS'.thisRepN'
p3814
I31
sg20
S'Y'
sg31
g32
sS'.thisTrialN'
p3815
I7
sS'.thisN'
p3816
I472
sS'.thisIndex'
p3817
I7
sg15
(lp3818
S'k'
asg30
Vm
sg17
S'Y'
sg14
I10
sg19
Nsg94
I7
sa(dp3819
g16
(lp3820
S'k'
asg18
S'Y'
sS'.thisRepN'
p3821
I31
sg20
S'Y'
sg31
g32
sS'.thisTrialN'
p3822
I8
sS'.thisN'
p3823
I473
sS'.thisIndex'
p3824
I8
sg15
(lp3825
S'k'
asg30
Vm
sg17
S'Y'
sg14
I10
sg19
(lp3826
S'space'
p3827
asg94
I8
sa(dp3828
g16
(lp3829
S'k'
asg18
S'Y'
sS'.thisRepN'
p3830
I31
sg20
S'Y'
sg31
g32
sS'.thisTrialN'
p3831
I9
sS'.thisN'
p3832
I474
sS'.thisIndex'
p3833
I9
sg15
(lp3834
S'k'
asg30
Vm
sg17
S'Y'
sg14
I10
sg19
(lp3835
S'space'
p3836
asg94
I9
sa(dp3837
g16
(lp3838
S'k'
asg18
S'N'
sS'.thisRepN'
p3839
I31
sg20
S'Y'
sg31
g32
sS'.thisTrialN'
p3840
I10
sS'.thisN'
p3841
I475
sS'.thisIndex'
p3842
I8
sg15
(lp3843
S'k'
asg30
Vm
sg17
S'Y'
sg14
I10
sg19
Nsg94
I8
sa(dp3844
g16
(lp3845
S'd'
asg18
S'N'
sS'.thisRepN'
p3846
I31
sg20
S'Y'
sg31
g32
sS'.thisTrialN'
p3847
I11
sS'.thisN'
p3848
I476
sS'.thisIndex'
p3849
I9
sg15
(lp3850
S'd'
asg30
Vm
sg17
S'Y'
sg14
I10
sg19
Nsg94
I9
sa(dp3851
g16
(lp3852
S'd'
asg18
S'Y'
sS'.thisRepN'
p3853
I31
sg20
S'Y'
sg31
g32
sS'.thisTrialN'
p3854
I12
sS'.thisN'
p3855
I477
sS'.thisIndex'
p3856
I1
sg15
(lp3857
S'd'
asg30
Vm
sg17
S'Y'
sg14
I10
sg19
(lp3858
S'space'
p3859
asg94
I1
sa(dp3860
g16
(lp3861
S'k'
asg18
S'Y'
sS'.thisRepN'
p3862
I31
sg20
S'Y'
sg31
g32
sS'.thisTrialN'
p3863
I13
sS'.thisN'
p3864
I478
sS'.thisIndex'
p3865
I9
sg15
(lp3866
S'k'
asg30
Vm
sg17
S'Y'
sg14
I10
sg19
(lp3867
S'space'
p3868
asg94
I9
sa(dp3869
g16
(lp3870
S'k'
asg18
S'Y'
sS'.thisRepN'
p3871
I31
sg20
S'Y'
sg31
g32
sS'.thisTrialN'
p3872
I14
sS'.thisN'
p3873
I479
sS'.thisIndex'
p3874
I7
sg15
(lp3875
S'k'
asg30
Vm
sg17
S'Y'
sg14
I10
sg19
(lp3876
S'space'
p3877
asg94
I7
sa(dp3878
g16
(lp3879
S'k'
asg18
S'Y'
sS'.thisRepN'
p3880
I32
sg20
S'N'
sg31
g32
sS'.thisTrialN'
p3881
I0
sS'.thisN'
p3882
I480
sS'.thisIndex'
p3883
I4
sg15
(lp3884
S'k'
asg30
Vm
sg17
S'Y'
sg14
I10
sg19
Nsg94
I4
sa(dp3885
g16
(lp3886
S'd'
asg18
S'N'
sS'.thisRepN'
p3887
I32
sg20
S'Y'
sg31
g32
sS'.thisTrialN'
p3888
I1
sS'.thisN'
p3889
I481
sS'.thisIndex'
p3890
I3
sg15
(lp3891
S'd'
asg30
Vm
sg17
S'Y'
sg14
I10
sg19
Nsg94
I3
sa(dp3892
g16
(lp3893
S'k'
asg18
S'N'
sS'.thisRepN'
p3894
I32
sg20
S'Y'
sg31
g32
sS'.thisTrialN'
p3895
I2
sS'.thisN'
p3896
I482
sS'.thisIndex'
p3897
I7
sg15
(lp3898
S'k'
asg30
Vm
sg17
S'Y'
sg14
I10
sg19
Nsg94
I7
sa(dp3899
g16
(lp3900
S'k'
asg18
S'N'
sS'.thisRepN'
p3901
I32
sg20
S'Y'
sg31
g32
sS'.thisTrialN'
p3902
I3
sS'.thisN'
p3903
I483
sS'.thisIndex'
p3904
I4
sg15
(lp3905
S'k'
asg30
Vm
sg17
S'Y'
sg14
I10
sg19
Nsg94
I4
sa(dp3906
g16
(lp3907
S'd'
asg18
S'Y'
sS'.thisRepN'
p3908
I32
sg20
S'N'
sg31
g32
sS'.thisTrialN'
p3909
I4
sS'.thisN'
p3910
I484
sS'.thisIndex'
p3911
I2
sg15
(lp3912
S'd'
asg30
Vm
sg17
S'Y'
sg14
I10
sg19
Nsg94
I2
sa(dp3913
g16
(lp3914
S'd'
asg18
S'Y'
sS'.thisRepN'
p3915
I32
sg20
S'Y'
sg31
g32
sS'.thisTrialN'
p3916
I5
sS'.thisN'
p3917
I485
sS'.thisIndex'
p3918
I6
sg15
(lp3919
S'k'
asg30
Vm
sg17
S'N'
sg14
I10
sg19
(lp3920
S'space'
p3921
asg94
I6
sa(dp3922
g16
(lp3923
S'd'
asg18
S'Y'
sS'.thisRepN'
p3924
I32
sg20
S'Y'
sg31
g32
sS'.thisTrialN'
p3925
I6
sS'.thisN'
p3926
I486
sS'.thisIndex'
p3927
I14
sg15
(lp3928
S'd'
asg30
Vm
sg17
S'Y'
sg14
I10
sg19
(lp3929
S'space'
p3930
asg94
I14
sa(dp3931
g16
(lp3932
S'd'
asg18
S'Y'
sS'.thisRepN'
p3933
I32
sg20
S'Y'
sg31
g32
sS'.thisTrialN'
p3934
I7
sS'.thisN'
p3935
I487
sS'.thisIndex'
p3936
I11
sg15
(lp3937
S'd'
asg30
Vm
sg17
S'Y'
sg14
I10
sg19
(lp3938
S'space'
p3939
asg94
I11
sa(dp3940
g16
(lp3941
S'd'
asg18
S'Y'
sS'.thisRepN'
p3942
I32
sg20
S'Y'
sg31
g32
sS'.thisTrialN'
p3943
I8
sS'.thisN'
p3944
I488
sS'.thisIndex'
p3945
I5
sg15
(lp3946
S'd'
asg30
Vm
sg17
S'Y'
sg14
I10
sg19
(lp3947
S'space'
p3948
asg94
I5
sa(dp3949
g16
(lp3950
S'k'
asg18
S'N'
sS'.thisRepN'
p3951
I32
sg20
S'Y'
sg31
g32
sS'.thisTrialN'
p3952
I9
sS'.thisN'
p3953
I489
sS'.thisIndex'
p3954
I4
sg15
(lp3955
S'k'
asg30
Vm
sg17
S'Y'
sg14
I10
sg19
Nsg94
I4
sa(dp3956
g16
(lp3957
S'd'
asg18
S'N'
sS'.thisRepN'
p3958
I32
sg20
S'Y'
sg31
g32
sS'.thisTrialN'
p3959
I10
sS'.thisN'
p3960
I490
sS'.thisIndex'
p3961
I9
sg15
(lp3962
S'd'
asg30
Vm
sg17
S'Y'
sg14
I10
sg19
Nsg94
I9
sa(dp3963
g16
(lp3964
S'k'
asg18
S'N'
sS'.thisRepN'
p3965
I32
sg20
S'Y'
sg31
g32
sS'.thisTrialN'
p3966
I11
sS'.thisN'
p3967
I491
sS'.thisIndex'
p3968
I2
sg15
(lp3969
S'k'
asg30
Vm
sg17
S'Y'
sg14
I10
sg19
Nsg94
I2
sa(dp3970
g16
(lp3971
S'd'
asg18
S'Y'
sS'.thisRepN'
p3972
I32
sg20
S'Y'
sg31
g32
sS'.thisTrialN'
p3973
I12
sS'.thisN'
p3974
I492
sS'.thisIndex'
p3975
I0
sg15
(lp3976
S'd'
asg30
Vm
sg17
S'Y'
sg14
I10
sg19
(lp3977
S'space'
p3978
asg94
I0
sa(dp3979
g16
(lp3980
S'd'
asg18
S'N'
sS'.thisRepN'
p3981
I32
sg20
S'N'
sg31
g32
sS'.thisTrialN'
p3982
I13
sS'.thisN'
p3983
I493
sS'.thisIndex'
p3984
I7
sg15
(lp3985
S'd'
asg30
Vm
sg17
S'Y'
sg14
I10
sg19
(lp3986
S'space'
p3987
asg94
I7
sa(dp3988
g16
(lp3989
S'k'
asg18
S'N'
sS'.thisRepN'
p3990
I32
sg20
S'Y'
sg31
g32
sS'.thisTrialN'
p3991
I14
sS'.thisN'
p3992
I494
sS'.thisIndex'
p3993
I8
sg15
(lp3994
S'k'
asg30
Vm
sg17
S'Y'
sg14
I10
sg19
Nsg94
I8
sa(dp3995
g16
(lp3996
S'k'
asg18
S'N'
sS'.thisRepN'
p3997
I33
sg20
S'Y'
sg31
g32
sS'.thisTrialN'
p3998
I0
sS'.thisN'
p3999
I495
sS'.thisIndex'
p4000
I5
sg15
(lp4001
S'k'
asg30
Vm
sg17
S'Y'
sg14
I10
sg19
Nsg94
I5
sa(dp4002
g16
(lp4003
S'k'
asg18
S'N'
sS'.thisRepN'
p4004
I33
sg20
S'Y'
sg31
g32
sS'.thisTrialN'
p4005
I1
sS'.thisN'
p4006
I496
sS'.thisIndex'
p4007
I1
sg15
(lp4008
S'k'
asg30
Vm
sg17
S'Y'
sg14
I10
sg19
Nsg94
I1
sa(dp4009
g16
(lp4010
S'k'
asg18
S'N'
sS'.thisRepN'
p4011
I33
sg20
S'Y'
sg31
g32
sS'.thisTrialN'
p4012
I2
sS'.thisN'
p4013
I497
sS'.thisIndex'
p4014
I10
sg15
(lp4015
S'k'
asg30
Vm
sg17
S'Y'
sg14
I10
sg19
Nsg94
I10
sa(dp4016
g16
(lp4017
S'k'
asg18
S'N'
sS'.thisRepN'
p4018
I33
sg20
S'Y'
sg31
g32
sS'.thisTrialN'
p4019
I3
sS'.thisN'
p4020
I498
sS'.thisIndex'
p4021
I3
sg15
(lp4022
S'k'
asg30
Vm
sg17
S'Y'
sg14
I10
sg19
Nsg94
I3
sa(dp4023
g16
(lp4024
S'd'
asg18
S'N'
sg22
I42
sS'.thisN'
p4025
I499
sg20
S'Y'
sg31
g32
sS'.thisTrialN'
p4026
I4
sS'.thisRepN'
p4027
I33
sg21
I48
sS'.thisIndex'
p4028
I3
sg23
I25
sg15
(lp4029
S'd'
asg30
Vm
sg17
S'Y'
sg14
I10
sg19
Nsg94
I3
sa(dp4030
g16
(lp4031
S'k'
asS'.thisIndex'
p4032
I13
sS'.thisRepN'
p4033
I33
sg26
S'Y'
sg30
Vm
sg31
g32
sS'.thisTrialN'
p4034
I5
sS'.thisN'
p4035
I500
sg25
S'Y'
sg24
S'Y'
sg15
(lp4036
S'k'
asg17
S'N'
sg14
I11
sg94
I13
sa(dp4037
g16
(lp4038
S'd'
asS'.thisIndex'
p4039
I5
sS'.thisRepN'
p4040
I33
sg26
S'Y'
sg30
Vm
sg31
g32
sS'.thisTrialN'
p4041
I6
sS'.thisN'
p4042
I501
sg25
S'Y'
sg15
(lp4043
S'k'
asg17
S'Y'
sg14
I11
sg94
I5
sa(dp4044
g16
(lp4045
S'd'
asg18
S'Y'
sS'.thisRepN'
p4046
I33
sg26
S'Y'
sg20
S'Y'
sg31
g32
sS'.thisTrialN'
p4047
I7
sS'.thisN'
p4048
I502
sg25
S'Y'
sg15
(lp4049
S'k'
asg30
Vm
sg17
S'Y'
sg14
I11
sg19
(lp4050
S'space'
p4051
asg94
I10
sS'.thisIndex'
p4052
I10
sa(dp4053
g16
(lp4054
S'd'
asg18
S'Y'
sS'.thisRepN'
p4055
I33
sg26
S'Y'
sg20
S'Y'
sg31
g32
sS'.thisTrialN'
p4056
I8
sS'.thisN'
p4057
I503
sg25
S'Y'
sg15
(lp4058
S'k'
asg30
Vm
sg17
S'Y'
sg14
I11
sg19
(lp4059
S'space'
p4060
asg94
I13
sS'.thisIndex'
p4061
I13
sa(dp4062
g16
(lp4063
S'k'
asg18
S'N'
sS'.thisRepN'
p4064
I33
sg26
S'Y'
sg20
S'Y'
sg31
g32
sS'.thisTrialN'
p4065
I9
sS'.thisN'
p4066
I504
sg25
S'Y'
sg15
(lp4067
S'd'
asg30
Vm
sg17
S'Y'
sg14
I11
sg19
Nsg94
I8
sS'.thisIndex'
p4068
I8
sa(dp4069
g16
(lp4070
S'd'
asg18
S'N'
sS'.thisRepN'
p4071
I33
sg26
S'Y'
sg20
S'Y'
sg31
g32
sS'.thisTrialN'
p4072
I10
sS'.thisN'
p4073
I505
sg25
S'Y'
sg15
(lp4074
S'k'
asg30
Vm
sg17
S'Y'
sg14
I11
sg19
Nsg94
I4
sS'.thisIndex'
p4075
I4
sa(dp4076
g16
(lp4077
S'd'
asg18
S'Y'
sS'.thisRepN'
p4078
I33
sg26
S'Y'
sg20
S'Y'
sg31
g32
sS'.thisTrialN'
p4079
I11
sS'.thisN'
p4080
I506
sg25
S'Y'
sg15
(lp4081
S'k'
asg30
Vm
sg17
S'Y'
sg14
I11
sg19
(lp4082
S'space'
p4083
asg94
I6
sS'.thisIndex'
p4084
I6
sa(dp4085
g16
(lp4086
S'd'
asg18
S'N'
sS'.thisRepN'
p4087
I33
sg26
S'Y'
sg20
S'Y'
sg31
g32
sS'.thisTrialN'
p4088
I12
sS'.thisN'
p4089
I507
sg25
S'Y'
sg15
(lp4090
S'k'
asg30
Vm
sg17
S'Y'
sg14
I11
sg19
Nsg94
I1
sS'.thisIndex'
p4091
I1
sa(dp4092
g16
(lp4093
S'd'
asg18
S'Y'
sS'.thisRepN'
p4094
I33
sg26
S'Y'
sg20
S'N'
sg31
g32
sS'.thisTrialN'
p4095
I13
sS'.thisN'
p4096
I508
sg25
S'Y'
sg15
(lp4097
S'k'
asg30
Vm
sg17
S'Y'
sg14
I11
sg19
Nsg94
I14
sS'.thisIndex'
p4098
I14
sa(dp4099
g16
(lp4100
S'k'
asg18
S'Y'
sS'.thisRepN'
p4101
I33
sg26
S'Y'
sg20
S'Y'
sg31
g32
sS'.thisTrialN'
p4102
I14
sS'.thisN'
p4103
I509
sg25
S'Y'
sg15
(lp4104
S'd'
asg30
Vm
sg17
S'Y'
sg14
I11
sg19
(lp4105
S'space'
p4106
asg94
I0
sS'.thisIndex'
p4107
I0
sa(dp4108
g16
(lp4109
S'd'
asg18
S'N'
sS'.thisRepN'
p4110
I34
sg26
S'Y'
sg20
S'Y'
sg31
g32
sS'.thisTrialN'
p4111
I0
sS'.thisN'
p4112
I510
sg25
S'Y'
sg15
(lp4113
S'k'
asg30
Vm
sg17
S'Y'
sg14
I11
sg19
Nsg94
I13
sS'.thisIndex'
p4114
I13
sa(dp4115
g16
(lp4116
S'k'
asg18
S'N'
sS'.thisRepN'
p4117
I34
sg26
S'Y'
sg20
S'Y'
sg31
g32
sS'.thisTrialN'
p4118
I1
sS'.thisN'
p4119
I511
sg25
S'Y'
sg15
(lp4120
S'd'
asg30
Vm
sg17
S'Y'
sg14
I11
sg19
Nsg94
I5
sS'.thisIndex'
p4121
I5
sa(dp4122
g16
(lp4123
S'k'
asg18
S'Y'
sS'.thisRepN'
p4124
I34
sg26
S'Y'
sg20
S'Y'
sg31
g32
sS'.thisTrialN'
p4125
I2
sS'.thisN'
p4126
I512
sg25
S'Y'
sg15
(lp4127
S'k'
asg30
Vm
sg17
S'N'
sg14
I11
sg19
(lp4128
S'space'
p4129
asg94
I9
sS'.thisIndex'
p4130
I9
sa(dp4131
g16
(lp4132
S'k'
asg18
S'Y'
sS'.thisRepN'
p4133
I34
sg26
S'Y'
sg20
S'Y'
sg31
g32
sS'.thisTrialN'
p4134
I3
sS'.thisN'
p4135
I513
sg25
S'Y'
sg15
(lp4136
S'd'
asg30
Vm
sg17
S'Y'
sg14
I11
sg19
(lp4137
S'space'
p4138
asg94
I1
sS'.thisIndex'
p4139
I1
sa(dp4140
g16
(lp4141
S'd'
asg18
S'N'
sS'.thisRepN'
p4142
I34
sg26
S'Y'
sg20
S'Y'
sg31
g32
sS'.thisTrialN'
p4143
I4
sS'.thisN'
p4144
I514
sg25
S'Y'
sg15
(lp4145
S'k'
asg30
Vm
sg17
S'Y'
sg14
I11
sg19
Nsg94
I10
sS'.thisIndex'
p4146
I10
sa(dp4147
g16
(lp4148
S'd'
asg18
S'N'
sS'.thisRepN'
p4149
I34
sg26
S'Y'
sg20
S'Y'
sg31
g32
sS'.thisTrialN'
p4150
I5
sS'.thisN'
p4151
I515
sg25
S'Y'
sg15
(lp4152
S'k'
asg30
Vm
sg17
S'Y'
sg14
I11
sg19
Nsg94
I9
sS'.thisIndex'
p4153
I9
sa(dp4154
g16
(lp4155
S'k'
asg18
S'Y'
sS'.thisRepN'
p4156
I34
sg26
S'Y'
sg20
S'Y'
sg31
g32
sS'.thisTrialN'
p4157
I6
sS'.thisN'
p4158
I516
sg25
S'Y'
sg15
(lp4159
S'd'
asg30
Vm
sg17
S'Y'
sg14
I11
sg19
(lp4160
S'space'
p4161
asg94
I9
sS'.thisIndex'
p4162
I9
sa(dp4163
g16
(lp4164
S'k'
asg18
S'N'
sS'.thisRepN'
p4165
I34
sg26
S'Y'
sg20
S'Y'
sg31
g32
sS'.thisTrialN'
p4166
I7
sS'.thisN'
p4167
I517
sg25
S'Y'
sg15
(lp4168
S'd'
asg30
Vm
sg17
S'Y'
sg14
I11
sg19
Nsg94
I8
sS'.thisIndex'
p4169
I8
sa(dp4170
g16
(lp4171
S'k'
asg18
S'Y'
sS'.thisRepN'
p4172
I34
sg26
S'Y'
sg20
S'Y'
sg31
g32
sS'.thisTrialN'
p4173
I8
sS'.thisN'
p4174
I518
sg25
S'Y'
sg15
(lp4175
S'd'
asg30
Vm
sg17
S'Y'
sg14
I11
sg19
(lp4176
S'space'
p4177
asg94
I10
sS'.thisIndex'
p4178
I10
sa(dp4179
g16
(lp4180
S'd'
asg18
S'N'
sS'.thisRepN'
p4181
I34
sg26
S'Y'
sg20
S'Y'
sg31
g32
sS'.thisTrialN'
p4182
I9
sS'.thisN'
p4183
I519
sg25
S'Y'
sg15
(lp4184
S'k'
asg30
Vm
sg17
S'Y'
sg14
I11
sg19
Nsg94
I12
sS'.thisIndex'
p4185
I12
sa(dp4186
g16
(lp4187
S'd'
asg18
S'Y'
sS'.thisRepN'
p4188
I34
sg26
S'Y'
sg20
S'Y'
sg31
g32
sS'.thisTrialN'
p4189
I10
sS'.thisN'
p4190
I520
sg25
S'Y'
sg15
(lp4191
S'k'
asg30
Vm
sg17
S'Y'
sg14
I11
sg19
(lp4192
S'space'
p4193
asg94
I14
sS'.thisIndex'
p4194
I14
sa(dp4195
g16
(lp4196
S'd'
asg18
S'Y'
sS'.thisRepN'
p4197
I34
sg26
S'Y'
sg20
S'Y'
sg31
g32
sS'.thisTrialN'
p4198
I11
sS'.thisN'
p4199
I521
sg25
S'Y'
sg15
(lp4200
S'k'
asg30
Vm
sg17
S'Y'
sg14
I11
sg19
(lp4201
S'space'
p4202
asg94
I13
sS'.thisIndex'
p4203
I13
sa(dp4204
g16
(lp4205
S'd'
asg18
S'N'
sS'.thisRepN'
p4206
I34
sg26
S'Y'
sg20
S'Y'
sg31
g32
sS'.thisTrialN'
p4207
I12
sS'.thisN'
p4208
I522
sg25
S'Y'
sg15
(lp4209
S'k'
asg30
Vm
sg17
S'Y'
sg14
I11
sg19
Nsg94
I11
sS'.thisIndex'
p4210
I11
sa(dp4211
g16
(lp4212
S'k'
asg18
S'Y'
sS'.thisRepN'
p4213
I34
sg26
S'Y'
sg20
S'Y'
sg31
g32
sS'.thisTrialN'
p4214
I13
sS'.thisN'
p4215
I523
sg25
S'Y'
sg15
(lp4216
S'd'
asg30
Vm
sg17
S'Y'
sg14
I11
sg19
(lp4217
S'space'
p4218
asg94
I7
sS'.thisIndex'
p4219
I7
sa(dp4220
g16
(lp4221
S'd'
asg18
S'Y'
sS'.thisRepN'
p4222
I34
sg26
S'Y'
sg20
S'Y'
sg31
g32
sS'.thisTrialN'
p4223
I14
sS'.thisN'
p4224
I524
sg25
S'Y'
sg15
(lp4225
S'k'
asg30
Vm
sg17
S'Y'
sg14
I11
sg19
(lp4226
S'space'
p4227
asg94
I11
sS'.thisIndex'
p4228
I11
sa(dp4229
g16
(lp4230
S'd'
asg18
S'Y'
sS'.thisRepN'
p4231
I35
sg26
S'Y'
sg20
S'Y'
sg31
g32
sS'.thisTrialN'
p4232
I0
sS'.thisN'
p4233
I525
sg25
S'Y'
sg15
(lp4234
S'k'
asg30
Vm
sg17
S'Y'
sg14
I11
sg19
(lp4235
S'space'
p4236
asg94
I0
sS'.thisIndex'
p4237
I0
sa(dp4238
g16
(lp4239
S'k'
asg18
S'Y'
sS'.thisRepN'
p4240
I35
sg26
S'Y'
sg20
S'Y'
sg31
g32
sS'.thisTrialN'
p4241
I1
sS'.thisN'
p4242
I526
sg25
S'Y'
sg15
(lp4243
S'd'
asg30
Vm
sg17
S'Y'
sg14
I11
sg19
(lp4244
S'space'
p4245
asg94
I12
sS'.thisIndex'
p4246
I12
sa(dp4247
g16
(lp4248
S'k'
asg18
S'Y'
sS'.thisRepN'
p4249
I35
sg26
S'Y'
sg20
S'Y'
sg31
g32
sS'.thisTrialN'
p4250
I2
sS'.thisN'
p4251
I527
sg25
S'Y'
sg15
(lp4252
S'd'
asg30
Vm
sg17
S'Y'
sg14
I11
sg19
(lp4253
S'space'
p4254
asg94
I11
sS'.thisIndex'
p4255
I11
sa(dp4256
g16
(lp4257
S'k'
asg18
S'Y'
sS'.thisRepN'
p4258
I35
sg26
S'Y'
sg20
S'Y'
sg31
g32
sS'.thisTrialN'
p4259
I3
sS'.thisN'
p4260
I528
sg25
S'Y'
sg15
(lp4261
S'd'
asg30
Vm
sg17
S'Y'
sg14
I11
sg19
(lp4262
S'space'
p4263
asg94
I5
sS'.thisIndex'
p4264
I5
sa(dp4265
g16
(lp4266
S'k'
asg18
S'Y'
sS'.thisRepN'
p4267
I35
sg26
S'Y'
sg20
S'Y'
sg31
g32
sS'.thisTrialN'
p4268
I4
sS'.thisN'
p4269
I529
sg25
S'Y'
sg15
(lp4270
S'd'
asg30
Vm
sg17
S'Y'
sg14
I11
sg19
(lp4271
S'space'
p4272
asg94
I8
sS'.thisIndex'
p4273
I8
sa(dp4274
g16
(lp4275
S'k'
asg18
S'N'
sS'.thisRepN'
p4276
I35
sg26
S'Y'
sg20
S'Y'
sg31
g32
sS'.thisTrialN'
p4277
I5
sS'.thisN'
p4278
I530
sg25
S'Y'
sg15
(lp4279
S'd'
asg30
Vm
sg17
S'Y'
sg14
I11
sg19
Nsg94
I7
sS'.thisIndex'
p4280
I7
sa(dp4281
g16
(lp4282
S'd'
asg18
S'N'
sS'.thisRepN'
p4283
I35
sg26
S'Y'
sg20
S'Y'
sg31
g32
sS'.thisTrialN'
p4284
I6
sS'.thisN'
p4285
I531
sg25
S'Y'
sg15
(lp4286
S'k'
asg30
Vm
sg17
S'Y'
sg14
I11
sg19
Nsg94
I11
sS'.thisIndex'
p4287
I11
sa(dp4288
g16
(lp4289
S'd'
asg18
S'Y'
sS'.thisRepN'
p4290
I35
sg26
S'Y'
sg20
S'Y'
sg31
g32
sS'.thisTrialN'
p4291
I7
sS'.thisN'
p4292
I532
sg25
S'Y'
sg15
(lp4293
S'k'
asg30
Vm
sg17
S'Y'
sg14
I11
sg19
(lp4294
S'space'
p4295
asg94
I11
sS'.thisIndex'
p4296
I11
sa(dp4297
g16
(lp4298
S'k'
asg18
S'N'
sS'.thisRepN'
p4299
I35
sg26
S'Y'
sg20
S'Y'
sg31
g32
sS'.thisTrialN'
p4300
I8
sS'.thisN'
p4301
I533
sg25
S'Y'
sg15
(lp4302
S'd'
asg30
Vm
sg17
S'Y'
sg14
I11
sg19
Nsg94
I4
sS'.thisIndex'
p4303
I4
sa(dp4304
g16
(lp4305
S'd'
asg18
S'N'
sS'.thisRepN'
p4306
I35
sg26
S'Y'
sg20
S'Y'
sg31
g32
sS'.thisTrialN'
p4307
I9
sS'.thisN'
p4308
I534
sg25
S'Y'
sg15
(lp4309
S'k'
asg30
Vm
sg17
S'Y'
sg14
I11
sg19
Nsg94
I7
sS'.thisIndex'
p4310
I7
sa(dp4311
g16
(lp4312
S'k'
asg18
S'N'
sS'.thisRepN'
p4313
I35
sg26
S'Y'
sg20
S'Y'
sg31
g32
sS'.thisTrialN'
p4314
I10
sS'.thisN'
p4315
I535
sg25
S'Y'
sg15
(lp4316
S'd'
asg30
Vm
sg17
S'Y'
sg14
I11
sg19
Nsg94
I12
sS'.thisIndex'
p4317
I12
sa(dp4318
g16
(lp4319
S'd'
asg18
S'N'
sS'.thisRepN'
p4320
I35
sg26
S'Y'
sg20
S'Y'
sg31
g32
sS'.thisTrialN'
p4321
I11
sS'.thisN'
p4322
I536
sg25
S'Y'
sg15
(lp4323
S'k'
asg30
Vm
sg17
S'Y'
sg14
I11
sg19
Nsg94
I7
sS'.thisIndex'
p4324
I7
sa(dp4325
g16
(lp4326
S'k'
asg18
S'Y'
sS'.thisRepN'
p4327
I35
sg26
S'Y'
sg20
S'Y'
sg31
g32
sS'.thisTrialN'
p4328
I12
sS'.thisN'
p4329
I537
sg25
S'Y'
sg15
(lp4330
S'd'
asg30
Vm
sg17
S'Y'
sg14
I11
sg19
(lp4331
S'space'
p4332
asg94
I12
sS'.thisIndex'
p4333
I12
sa(dp4334
g16
(lp4335
S'd'
asg18
S'Y'
sS'.thisRepN'
p4336
I35
sg26
S'Y'
sg20
S'Y'
sg31
g32
sS'.thisTrialN'
p4337
I13
sS'.thisN'
p4338
I538
sg25
S'Y'
sg15
(lp4339
S'k'
asg30
Vm
sg17
S'Y'
sg14
I11
sg19
(lp4340
S'space'
p4341
asg94
I4
sS'.thisIndex'
p4342
I4
sa(dp4343
g16
(lp4344
S'd'
asg18
S'Y'
sS'.thisRepN'
p4345
I35
sg26
S'Y'
sg20
S'Y'
sg31
g32
sS'.thisTrialN'
p4346
I14
sS'.thisN'
p4347
I539
sg25
S'Y'
sg15
(lp4348
S'd'
asg30
Vm
sg17
S'N'
sg14
I11
sg19
(lp4349
S'space'
p4350
asg94
I6
sS'.thisIndex'
p4351
I6
sa(dp4352
g16
(lp4353
S'd'
asg18
S'N'
sS'.thisRepN'
p4354
I36
sg26
S'Y'
sg20
S'Y'
sg31
g32
sS'.thisTrialN'
p4355
I0
sS'.thisN'
p4356
I540
sg25
S'Y'
sg15
(lp4357
S'k'
asg30
Vm
sg17
S'Y'
sg14
I11
sg19
Nsg94
I4
sS'.thisIndex'
p4358
I4
sa(dp4359
g16
(lp4360
S'd'
asg18
S'N'
sS'.thisRepN'
p4361
I36
sg26
S'Y'
sg20
S'Y'
sg31
g32
sS'.thisTrialN'
p4362
I1
sS'.thisN'
p4363
I541
sg25
S'Y'
sg15
(lp4364
S'k'
asg30
Vm
sg17
S'Y'
sg14
I11
sg19
Nsg94
I10
sS'.thisIndex'
p4365
I10
sa(dp4366
g16
(lp4367
S'k'
asg18
S'Y'
sS'.thisRepN'
p4368
I36
sg26
S'Y'
sg20
S'Y'
sg31
g32
sS'.thisTrialN'
p4369
I2
sS'.thisN'
p4370
I542
sg25
S'Y'
sg15
(lp4371
S'd'
asg30
Vm
sg17
S'Y'
sg14
I11
sg19
(lp4372
S'space'
p4373
asg94
I3
sS'.thisIndex'
p4374
I3
sa(dp4375
g16
(lp4376
S'k'
asg18
S'N'
sS'.thisRepN'
p4377
I36
sg26
S'Y'
sg20
S'Y'
sg31
g32
sS'.thisTrialN'
p4378
I3
sS'.thisN'
p4379
I543
sg25
S'Y'
sg15
(lp4380
S'd'
asg30
Vm
sg17
S'Y'
sg14
I11
sg19
Nsg94
I12
sS'.thisIndex'
p4381
I12
sa(dp4382
g16
(lp4383
S'd'
asg18
S'N'
sS'.thisRepN'
p4384
I36
sg26
S'Y'
sg20
S'Y'
sg31
g32
sS'.thisTrialN'
p4385
I4
sS'.thisN'
p4386
I544
sg25
S'Y'
sg15
(lp4387
S'k'
asg30
Vm
sg17
S'Y'
sg14
I11
sg19
Nsg94
I11
sS'.thisIndex'
p4388
I11
sa(dp4389
g16
(lp4390
S'd'
asg18
S'Y'
sS'.thisRepN'
p4391
I36
sg26
S'Y'
sg20
S'Y'
sg31
g32
sS'.thisTrialN'
p4392
I5
sS'.thisN'
p4393
I545
sg25
S'Y'
sg15
(lp4394
S'k'
asg30
Vm
sg17
S'Y'
sg14
I11
sg19
(lp4395
S'space'
p4396
asg94
I4
sS'.thisIndex'
p4397
I4
sa(dp4398
g16
(lp4399
S'k'
asg18
S'N'
sS'.thisRepN'
p4400
I36
sg26
S'Y'
sg20
S'Y'
sg31
g32
sS'.thisTrialN'
p4401
I6
sS'.thisN'
p4402
I546
sg25
S'Y'
sg15
(lp4403
S'd'
asg30
Vm
sg17
S'Y'
sg14
I11
sg19
Nsg94
I3
sS'.thisIndex'
p4404
I3
sa(dp4405
g16
(lp4406
S'k'
asg18
S'N'
sS'.thisRepN'
p4407
I36
sg26
S'Y'
sg20
S'Y'
sg31
g32
sS'.thisTrialN'
p4408
I7
sS'.thisN'
p4409
I547
sg25
S'Y'
sg15
(lp4410
S'k'
asg30
Vm
sg17
S'N'
sg14
I11
sg19
Nsg94
I5
sS'.thisIndex'
p4411
I5
sa(dp4412
g16
(lp4413
S'd'
asg18
S'Y'
sS'.thisRepN'
p4414
I36
sg26
S'Y'
sg20
S'Y'
sg31
g32
sS'.thisTrialN'
p4415
I8
sS'.thisN'
p4416
I548
sg25
S'Y'
sg15
(lp4417
S'k'
asg30
Vm
sg17
S'Y'
sg14
I11
sg19
(lp4418
S'space'
p4419
asg94
I11
sS'.thisIndex'
p4420
I11
sa(dp4421
g16
(lp4422
S'd'
asg18
S'N'
sg22
I47
sg26
S'Y'
sS'.thisN'
p4423
I549
sg20
S'Y'
sg31
g32
sS'.thisTrialN'
p4424
I9
sS'.thisRepN'
p4425
I36
sg21
I46
sg25
S'Y'
sg23
I25
sg15
(lp4426
S'k'
asg30
Vm
sg17
S'Y'
sg14
I11
sg19
Nsg94
I9
sS'.thisIndex'
p4427
I9
sa(dp4428
g16
(lp4429
S'd'
asS'.thisIndex'
p4430
I9
sS'.thisRepN'
p4431
I36
sg26
S'Y'
sg30
Vm
sg31
g32
sS'.thisTrialN'
p4432
I10
sS'.thisN'
p4433
I550
sg25
S'Y'
sg15
(lp4434
S'k'
asg17
S'Y'
sg14
I12
sg94
I9
sa(dp4435
g16
(lp4436
S'k'
asS'.thisIndex'
p4437
I11
sS'.thisRepN'
p4438
I36
sg26
S'Y'
sg30
Vm
sg31
g32
sS'.thisTrialN'
p4439
I11
sS'.thisN'
p4440
I551
sg25
S'Y'
sg15
(lp4441
S'd'
asg17
S'Y'
sg14
I12
sg94
I11
sa(dp4442
g16
(lp4443
S'd'
asg18
S'Y'
sS'.thisRepN'
p4444
I36
sg26
S'Y'
sg20
S'Y'
sg31
g32
sS'.thisTrialN'
p4445
I12
sS'.thisN'
p4446
I552
sg25
S'Y'
sg15
(lp4447
S'k'
asg30
Vm
sg17
S'Y'
sg14
I12
sg19
(lp4448
S'space'
p4449
asg94
I14
sS'.thisIndex'
p4450
I14
sa(dp4451
g16
(lp4452
S'd'
asg18
S'Y'
sS'.thisRepN'
p4453
I36
sg26
S'Y'
sg20
S'Y'
sg31
g32
sS'.thisTrialN'
p4454
I13
sS'.thisN'
p4455
I553
sg25
S'Y'
sg15
(lp4456
S'k'
asg30
Vm
sg17
S'Y'
sg14
I12
sg19
(lp4457
S'space'
p4458
asg94
I2
sS'.thisIndex'
p4459
I2
sa(dp4460
g16
(lp4461
S'd'
asg18
S'Y'
sS'.thisRepN'
p4462
I36
sg26
S'Y'
sg20
S'Y'
sg31
g32
sS'.thisTrialN'
p4463
I14
sS'.thisN'
p4464
I554
sg25
S'Y'
sg15
(lp4465
S'k'
asg30
Vm
sg17
S'Y'
sg14
I12
sg19
(lp4466
S'space'
p4467
asg94
I6
sS'.thisIndex'
p4468
I6
sa(dp4469
g16
(lp4470
S'k'
asg18
S'N'
sS'.thisRepN'
p4471
I37
sg26
S'Y'
sg20
S'Y'
sg31
g32
sS'.thisTrialN'
p4472
I0
sS'.thisN'
p4473
I555
sg25
S'Y'
sg15
(lp4474
S'd'
asg30
Vm
sg17
S'Y'
sg14
I12
sg19
Nsg94
I3
sS'.thisIndex'
p4475
I3
sa(dp4476
g16
(lp4477
S'k'
asg18
S'N'
sS'.thisRepN'
p4478
I37
sg26
S'Y'
sg20
S'Y'
sg31
g32
sS'.thisTrialN'
p4479
I1
sS'.thisN'
p4480
I556
sg25
S'Y'
sg15
(lp4481
S'd'
asg30
Vm
sg17
S'Y'
sg14
I12
sg19
Nsg94
I3
sS'.thisIndex'
p4482
I3
sa(dp4483
g16
(lp4484
S'd'
asg18
S'N'
sS'.thisRepN'
p4485
I37
sg26
S'Y'
sg20
S'Y'
sg31
g32
sS'.thisTrialN'
p4486
I2
sS'.thisN'
p4487
I557
sg25
S'Y'
sg15
(lp4488
S'k'
asg30
Vm
sg17
S'Y'
sg14
I12
sg19
Nsg94
I14
sS'.thisIndex'
p4489
I14
sa(dp4490
g16
(lp4491
S'd'
asg18
S'Y'
sS'.thisRepN'
p4492
I37
sg26
S'Y'
sg20
S'Y'
sg31
g32
sS'.thisTrialN'
p4493
I3
sS'.thisN'
p4494
I558
sg25
S'Y'
sg15
(lp4495
S'k'
asg30
Vm
sg17
S'Y'
sg14
I12
sg19
(lp4496
S'space'
p4497
asg94
I4
sS'.thisIndex'
p4498
I4
sa(dp4499
g16
(lp4500
S'k'
asg18
S'N'
sS'.thisRepN'
p4501
I37
sg26
S'Y'
sg20
S'Y'
sg31
g32
sS'.thisTrialN'
p4502
I4
sS'.thisN'
p4503
I559
sg25
S'Y'
sg15
(lp4504
S'd'
asg30
Vm
sg17
S'Y'
sg14
I12
sg19
Nsg94
I6
sS'.thisIndex'
p4505
I6
sa(dp4506
g16
(lp4507
S'd'
asg18
S'N'
sS'.thisRepN'
p4508
I37
sg26
S'Y'
sg20
S'Y'
sg31
g32
sS'.thisTrialN'
p4509
I5
sS'.thisN'
p4510
I560
sg25
S'Y'
sg15
(lp4511
S'k'
asg30
Vm
sg17
S'Y'
sg14
I12
sg19
Nsg94
I13
sS'.thisIndex'
p4512
I13
sa(dp4513
g16
(lp4514
S'd'
asg18
S'Y'
sS'.thisRepN'
p4515
I37
sg26
S'Y'
sg20
S'Y'
sg31
g32
sS'.thisTrialN'
p4516
I6
sS'.thisN'
p4517
I561
sg25
S'Y'
sg15
(lp4518
S'k'
asg30
Vm
sg17
S'Y'
sg14
I12
sg19
(lp4519
S'space'
p4520
asg94
I7
sS'.thisIndex'
p4521
I7
sa(dp4522
g16
(lp4523
S'd'
asg18
S'N'
sS'.thisRepN'
p4524
I37
sg26
S'Y'
sg20
S'Y'
sg31
g32
sS'.thisTrialN'
p4525
I7
sS'.thisN'
p4526
I562
sg25
S'Y'
sg15
(lp4527
S'k'
asg30
Vm
sg17
S'Y'
sg14
I12
sg19
Nsg94
I11
sS'.thisIndex'
p4528
I11
sa(dp4529
g16
(lp4530
S'k'
asg18
S'N'
sS'.thisRepN'
p4531
I37
sg26
S'Y'
sg20
S'N'
sg31
g32
sS'.thisTrialN'
p4532
I8
sS'.thisN'
p4533
I563
sg25
S'Y'
sg15
(lp4534
S'd'
asg30
Vm
sg17
S'Y'
sg14
I12
sg19
(lp4535
S'space'
p4536
asg94
I4
sS'.thisIndex'
p4537
I4
sa(dp4538
g16
(lp4539
S'd'
asg18
S'Y'
sS'.thisRepN'
p4540
I37
sg26
S'Y'
sg20
S'Y'
sg31
g32
sS'.thisTrialN'
p4541
I9
sS'.thisN'
p4542
I564
sg25
S'Y'
sg15
(lp4543
S'k'
asg30
Vm
sg17
S'Y'
sg14
I12
sg19
(lp4544
S'space'
p4545
asg94
I7
sS'.thisIndex'
p4546
I7
sa(dp4547
g16
(lp4548
S'k'
asg18
S'N'
sS'.thisRepN'
p4549
I37
sg26
S'Y'
sg20
S'Y'
sg31
g32
sS'.thisTrialN'
p4550
I10
sS'.thisN'
p4551
I565
sg25
S'Y'
sg15
(lp4552
S'd'
asg30
Vm
sg17
S'Y'
sg14
I12
sg19
Nsg94
I4
sS'.thisIndex'
p4553
I4
sa(dp4554
g16
(lp4555
S'k'
asg18
S'Y'
sS'.thisRepN'
p4556
I37
sg26
S'Y'
sg20
S'Y'
sg31
g32
sS'.thisTrialN'
p4557
I11
sS'.thisN'
p4558
I566
sg25
S'Y'
sg15
(lp4559
S'd'
asg30
Vm
sg17
S'Y'
sg14
I12
sg19
(lp4560
S'space'
p4561
asg94
I10
sS'.thisIndex'
p4562
I10
sa(dp4563
g16
(lp4564
S'k'
asg18
S'N'
sS'.thisRepN'
p4565
I37
sg26
S'Y'
sg20
S'Y'
sg31
g32
sS'.thisTrialN'
p4566
I12
sS'.thisN'
p4567
I567
sg25
S'Y'
sg15
(lp4568
S'd'
asg30
Vm
sg17
S'Y'
sg14
I12
sg19
Nsg94
I5
sS'.thisIndex'
p4569
I5
sa(dp4570
g16
(lp4571
S'k'
asg18
S'Y'
sS'.thisRepN'
p4572
I37
sg26
S'Y'
sg20
S'N'
sg31
g32
sS'.thisTrialN'
p4573
I13
sS'.thisN'
p4574
I568
sg25
S'Y'
sg15
(lp4575
S'd'
asg30
Vm
sg17
S'Y'
sg14
I12
sg19
Nsg94
I0
sS'.thisIndex'
p4576
I0
sa(dp4577
g16
(lp4578
S'd'
asg18
S'Y'
sS'.thisRepN'
p4579
I37
sg26
S'Y'
sg20
S'Y'
sg31
g32
sS'.thisTrialN'
p4580
I14
sS'.thisN'
p4581
I569
sg25
S'Y'
sg15
(lp4582
S'k'
asg30
Vm
sg17
S'Y'
sg14
I12
sg19
(lp4583
S'space'
p4584
asg94
I10
sS'.thisIndex'
p4585
I10
sa(dp4586
g16
(lp4587
S'k'
asg18
S'N'
sS'.thisRepN'
p4588
I38
sg26
S'Y'
sg20
S'N'
sg31
g32
sS'.thisTrialN'
p4589
I0
sS'.thisN'
p4590
I570
sg25
S'Y'
sg15
(lp4591
S'd'
asg30
Vm
sg17
S'Y'
sg14
I12
sg19
(lp4592
S'space'
p4593
asg94
I5
sS'.thisIndex'
p4594
I5
sa(dp4595
g16
(lp4596
S'k'
asg18
S'Y'
sS'.thisRepN'
p4597
I38
sg26
S'Y'
sg20
S'Y'
sg31
g32
sS'.thisTrialN'
p4598
I1
sS'.thisN'
p4599
I571
sg25
S'Y'
sg15
(lp4600
S'd'
asg30
Vm
sg17
S'Y'
sg14
I12
sg19
(lp4601
S'space'
p4602
asg94
I10
sS'.thisIndex'
p4603
I10
sa(dp4604
g16
(lp4605
S'k'
asg18
S'N'
sS'.thisRepN'
p4606
I38
sg26
S'Y'
sg20
S'Y'
sg31
g32
sS'.thisTrialN'
p4607
I2
sS'.thisN'
p4608
I572
sg25
S'Y'
sg15
(lp4609
S'd'
asg30
Vm
sg17
S'Y'
sg14
I12
sg19
Nsg94
I11
sS'.thisIndex'
p4610
I11
sa(dp4611
g16
(lp4612
S'd'
asg18
S'N'
sS'.thisRepN'
p4613
I38
sg26
S'Y'
sg20
S'Y'
sg31
g32
sS'.thisTrialN'
p4614
I3
sS'.thisN'
p4615
I573
sg25
S'Y'
sg15
(lp4616
S'k'
asg30
Vm
sg17
S'Y'
sg14
I12
sg19
Nsg94
I1
sS'.thisIndex'
p4617
I1
sa(dp4618
g16
(lp4619
S'd'
asg18
S'N'
sS'.thisRepN'
p4620
I38
sg26
S'Y'
sg20
S'Y'
sg31
g32
sS'.thisTrialN'
p4621
I4
sS'.thisN'
p4622
I574
sg25
S'Y'
sg15
(lp4623
S'k'
asg30
Vm
sg17
S'Y'
sg14
I12
sg19
Nsg94
I2
sS'.thisIndex'
p4624
I2
sa(dp4625
g16
(lp4626
S'd'
asg18
S'N'
sS'.thisRepN'
p4627
I38
sg26
S'Y'
sg20
S'Y'
sg31
g32
sS'.thisTrialN'
p4628
I5
sS'.thisN'
p4629
I575
sg25
S'Y'
sg15
(lp4630
S'k'
asg30
Vm
sg17
S'Y'
sg14
I12
sg19
Nsg94
I2
sS'.thisIndex'
p4631
I2
sa(dp4632
g16
(lp4633
S'k'
asg18
S'N'
sS'.thisRepN'
p4634
I38
sg26
S'Y'
sg20
S'Y'
sg31
g32
sS'.thisTrialN'
p4635
I6
sS'.thisN'
p4636
I576
sg25
S'Y'
sg15
(lp4637
S'd'
asg30
Vm
sg17
S'Y'
sg14
I12
sg19
Nsg94
I2
sS'.thisIndex'
p4638
I2
sa(dp4639
g16
(lp4640
S'k'
asg18
S'N'
sS'.thisRepN'
p4641
I38
sg26
S'Y'
sg20
S'Y'
sg31
g32
sS'.thisTrialN'
p4642
I7
sS'.thisN'
p4643
I577
sg25
S'Y'
sg15
(lp4644
S'd'
asg30
Vm
sg17
S'Y'
sg14
I12
sg19
Nsg94
I3
sS'.thisIndex'
p4645
I3
sa(dp4646
g16
(lp4647
S'k'
asg18
S'Y'
sS'.thisRepN'
p4648
I38
sg26
S'Y'
sg20
S'Y'
sg31
g32
sS'.thisTrialN'
p4649
I8
sS'.thisN'
p4650
I578
sg25
S'Y'
sg15
(lp4651
S'd'
asg30
Vm
sg17
S'Y'
sg14
I12
sg19
(lp4652
S'space'
p4653
asg94
I7
sS'.thisIndex'
p4654
I7
sa(dp4655
g16
(lp4656
S'd'
asg18
S'Y'
sS'.thisRepN'
p4657
I38
sg26
S'Y'
sg20
S'Y'
sg31
g32
sS'.thisTrialN'
p4658
I9
sS'.thisN'
p4659
I579
sg25
S'Y'
sg15
(lp4660
S'k'
asg30
Vm
sg17
S'Y'
sg14
I12
sg19
(lp4661
S'space'
p4662
asg94
I9
sS'.thisIndex'
p4663
I9
sa(dp4664
g16
(lp4665
S'k'
asg18
S'N'
sS'.thisRepN'
p4666
I38
sg26
S'Y'
sg20
S'Y'
sg31
g32
sS'.thisTrialN'
p4667
I10
sS'.thisN'
p4668
I580
sg25
S'Y'
sg15
(lp4669
S'd'
asg30
Vm
sg17
S'Y'
sg14
I12
sg19
Nsg94
I0
sS'.thisIndex'
p4670
I0
sa(dp4671
g16
(lp4672
S'k'
asg18
S'Y'
sS'.thisRepN'
p4673
I38
sg26
S'Y'
sg20
S'Y'
sg31
g32
sS'.thisTrialN'
p4674
I11
sS'.thisN'
p4675
I581
sg25
S'Y'
sg15
(lp4676
S'd'
asg30
Vm
sg17
S'Y'
sg14
I12
sg19
(lp4677
S'space'
p4678
asg94
I8
sS'.thisIndex'
p4679
I8
sa(dp4680
g16
(lp4681
S'd'
asg18
S'N'
sS'.thisRepN'
p4682
I38
sg26
S'Y'
sg20
S'Y'
sg31
g32
sS'.thisTrialN'
p4683
I12
sS'.thisN'
p4684
I582
sg25
S'Y'
sg15
(lp4685
S'k'
asg30
Vm
sg17
S'Y'
sg14
I12
sg19
Nsg94
I6
sS'.thisIndex'
p4686
I6
sa(dp4687
g16
(lp4688
S'k'
asg18
S'N'
sS'.thisRepN'
p4689
I38
sg26
S'Y'
sg20
S'Y'
sg31
g32
sS'.thisTrialN'
p4690
I13
sS'.thisN'
p4691
I583
sg25
S'Y'
sg15
(lp4692
S'd'
asg30
Vm
sg17
S'Y'
sg14
I12
sg19
Nsg94
I10
sS'.thisIndex'
p4693
I10
sa(dp4694
g16
(lp4695
S'k'
asg18
S'N'
sS'.thisRepN'
p4696
I38
sg26
S'Y'
sg20
S'Y'
sg31
g32
sS'.thisTrialN'
p4697
I14
sS'.thisN'
p4698
I584
sg25
S'Y'
sg15
(lp4699
S'd'
asg30
Vm
sg17
S'Y'
sg14
I12
sg19
Nsg94
I4
sS'.thisIndex'
p4700
I4
sa(dp4701
g16
(lp4702
S'k'
asg18
S'N'
sS'.thisRepN'
p4703
I39
sg26
S'Y'
sg20
S'Y'
sg31
g32
sS'.thisTrialN'
p4704
I0
sS'.thisN'
p4705
I585
sg25
S'Y'
sg15
(lp4706
S'd'
asg30
Vm
sg17
S'Y'
sg14
I12
sg19
Nsg94
I4
sS'.thisIndex'
p4707
I4
sa(dp4708
g16
(lp4709
S'k'
asg18
S'Y'
sS'.thisRepN'
p4710
I39
sg26
S'Y'
sg20
S'Y'
sg31
g32
sS'.thisTrialN'
p4711
I1
sS'.thisN'
p4712
I586
sg25
S'Y'
sg15
(lp4713
S'd'
asg30
Vm
sg17
S'Y'
sg14
I12
sg19
(lp4714
S'space'
p4715
asg94
I14
sS'.thisIndex'
p4716
I14
sa(dp4717
g16
(lp4718
S'd'
asg18
S'Y'
sS'.thisRepN'
p4719
I39
sg26
S'Y'
sg20
S'Y'
sg31
g32
sS'.thisTrialN'
p4720
I2
sS'.thisN'
p4721
I587
sg25
S'Y'
sg15
(lp4722
S'k'
asg30
Vm
sg17
S'Y'
sg14
I12
sg19
(lp4723
S'space'
p4724
asg94
I5
sS'.thisIndex'
p4725
I5
sa(dp4726
g16
(lp4727
S'd'
asg18
S'Y'
sS'.thisRepN'
p4728
I39
sg26
S'Y'
sg20
S'Y'
sg31
g32
sS'.thisTrialN'
p4729
I3
sS'.thisN'
p4730
I588
sg25
S'Y'
sg15
(lp4731
S'k'
asg30
Vm
sg17
S'Y'
sg14
I12
sg19
(lp4732
S'space'
p4733
asg94
I0
sS'.thisIndex'
p4734
I0
sa(dp4735
g16
(lp4736
S'd'
asg18
S'N'
sS'.thisRepN'
p4737
I39
sg26
S'Y'
sg20
S'Y'
sg31
g32
sS'.thisTrialN'
p4738
I4
sS'.thisN'
p4739
I589
sg25
S'Y'
sg15
(lp4740
S'k'
asg30
Vm
sg17
S'Y'
sg14
I12
sg19
Nsg94
I12
sS'.thisIndex'
p4741
I12
sa(dp4742
g16
(lp4743
S'd'
asg18
S'N'
sS'.thisRepN'
p4744
I39
sg26
S'Y'
sg20
S'Y'
sg31
g32
sS'.thisTrialN'
p4745
I5
sS'.thisN'
p4746
I590
sg25
S'Y'
sg15
(lp4747
S'k'
asg30
Vm
sg17
S'Y'
sg14
I12
sg19
Nsg94
I14
sS'.thisIndex'
p4748
I14
sa(dp4749
g16
(lp4750
S'd'
asg18
S'Y'
sS'.thisRepN'
p4751
I39
sg26
S'Y'
sg20
S'Y'
sg31
g32
sS'.thisTrialN'
p4752
I6
sS'.thisN'
p4753
I591
sg25
S'Y'
sg15
(lp4754
S'd'
asg30
Vm
sg17
S'N'
sg14
I12
sg19
(lp4755
S'space'
p4756
asg94
I5
sS'.thisIndex'
p4757
I5
sa(dp4758
g16
(lp4759
S'k'
asg18
S'Y'
sS'.thisRepN'
p4760
I39
sg26
S'Y'
sg20
S'Y'
sg31
g32
sS'.thisTrialN'
p4761
I7
sS'.thisN'
p4762
I592
sg25
S'Y'
sg15
(lp4763
S'd'
asg30
Vm
sg17
S'Y'
sg14
I12
sg19
(lp4764
S'space'
p4765
asg94
I3
sS'.thisIndex'
p4766
I3
sa(dp4767
g16
(lp4768
S'd'
asg18
S'Y'
sS'.thisRepN'
p4769
I39
sg26
S'Y'
sg20
S'Y'
sg31
g32
sS'.thisTrialN'
p4770
I8
sS'.thisN'
p4771
I593
sg25
S'Y'
sg15
(lp4772
S'k'
asg30
Vm
sg17
S'Y'
sg14
I12
sg19
(lp4773
S'space'
p4774
asg94
I13
sS'.thisIndex'
p4775
I13
sa(dp4776
g16
(lp4777
S'k'
asg18
S'Y'
sS'.thisRepN'
p4778
I39
sg26
S'Y'
sg20
S'Y'
sg31
g32
sS'.thisTrialN'
p4779
I9
sS'.thisN'
p4780
I594
sg25
S'Y'
sg15
(lp4781
S'd'
asg30
Vm
sg17
S'Y'
sg14
I12
sg19
(lp4782
S'space'
p4783
asg94
I13
sS'.thisIndex'
p4784
I13
sa(dp4785
g16
(lp4786
S'k'
asg18
S'Y'
sS'.thisRepN'
p4787
I39
sg26
S'Y'
sg20
S'Y'
sg31
g32
sS'.thisTrialN'
p4788
I10
sS'.thisN'
p4789
I595
sg25
S'Y'
sg15
(lp4790
S'd'
asg30
Vm
sg17
S'Y'
sg14
I12
sg19
(lp4791
S'space'
p4792
asg94
I8
sS'.thisIndex'
p4793
I8
sa(dp4794
g16
(lp4795
S'k'
asg18
S'Y'
sS'.thisRepN'
p4796
I39
sg26
S'Y'
sg20
S'Y'
sg31
g32
sS'.thisTrialN'
p4797
I11
sS'.thisN'
p4798
I596
sg25
S'Y'
sg15
(lp4799
S'd'
asg30
Vm
sg17
S'Y'
sg14
I12
sg19
(lp4800
S'space'
p4801
asg94
I6
sS'.thisIndex'
p4802
I6
sa(dp4803
g16
(lp4804
S'd'
asg18
S'Y'
sS'.thisRepN'
p4805
I39
sg26
S'Y'
sg20
S'Y'
sg31
g32
sS'.thisTrialN'
p4806
I12
sS'.thisN'
p4807
I597
sg25
S'Y'
sg15
(lp4808
S'k'
asg30
Vm
sg17
S'Y'
sg14
I12
sg19
(lp4809
S'space'
p4810
asg94
I11
sS'.thisIndex'
p4811
I11
sa(dp4812
g16
(lp4813
S'd'
asg18
S'N'
sS'.thisRepN'
p4814
I39
sg26
S'Y'
sg20
S'Y'
sg31
g32
sS'.thisTrialN'
p4815
I13
sS'.thisN'
p4816
I598
sg25
S'Y'
sg15
(lp4817
S'k'
asg30
Vm
sg17
S'Y'
sg14
I12
sg19
Nsg94
I12
sS'.thisIndex'
p4818
I12
sa(dp4819
g16
(lp4820
S'd'
asg18
S'Y'
sg22
I45
sg26
S'Y'
sS'.thisN'
p4821
I599
sg20
S'Y'
sg31
g32
sS'.thisTrialN'
p4822
I14
sS'.thisRepN'
p4823
I39
sg21
I49
sg25
S'Y'
sg23
I24
sg15
(lp4824
S'k'
asg30
Vm
sg17
S'Y'
sg14
I12
sg19
(lp4825
S'space'
p4826
asg94
I1
sS'.thisIndex'
p4827
I1
sasS'loops'
p4828
(lp4829
g1
(g35
g3
NtRp4830
(dp4831
g38
Nsg39
(lp4832
sg40
I80733200
sg10
S''
sg6
g41
sg42
I1
sg27
I01
sg28
Nsg43
g1
(g44
g45
(dp4833
g47
g48
(g49
g50
g51
S'b'
tRp4834
(I1
(I600
I1
tg54
I00
S'\x00\x00\x80?\x00\x00\x80?\x00\x00\x80?\x00\x00\x80?\x00\x00\x80?\x00\x00\x80?\x00\x00\x80?\x00\x00\x80?\x00\x00\x80?\x00\x00\x80?\x00\x00\x80?\x00\x00\x80?\x00\x00\x80?\x00\x00\x80?\x00\x00\x80?\x00\x00\x80?\x00\x00\x80?\x00\x00\x80?\x00\x00\x80?\x00\x00\x80?\x00\x00\x80?\x00\x00\x80?\x00\x00\x80?\x00\x00\x80?\x00\x00\x80?\x00\x00\x80?\x00\x00\x80?\x00\x00\x80?\x00\x00\x80?\x00\x00\x80?\x00\x00\x80?\x00\x00\x80?\x00\x00\x80?\x00\x00\x80?\x00\x00\x80?\x00\x00\x80?\x00\x00\x80?\x00\x00\x80?\x00\x00\x80?\x00\x00\x80?\x00\x00\x80?\x00\x00\x80?\x00\x00\x80?\x00\x00\x80?\x00\x00\x80?\x00\x00\x80?\x00\x00\x80?\x00\x00\x80?\x00\x00\x80?\x00\x00\x80?\x00\x00\x80?\x00\x00\x80?\x00\x00\x80?\x00\x00\x80?\x00\x00\x80?\x00\x00\x80?\x00\x00\x80?\x00\x00\x80?\x00\x00\x80?\x00\x00\x80?\x00\x00\x80?\x00\x00\x80?\x00\x00\x80?\x00\x00\x80?\x00\x00\x80?\x00\x00\x80?\x00\x00\x80?\x00\x00\x80?\x00\x00\x80?\x00\x00\x80?\x00\x00\x80?\x00\x00\x80?\x00\x00\x80?\x00\x00\x80?\x00\x00\x80?\x00\x00\x80?\x00\x00\x80?\x00\x00\x80?\x00\x00\x80?\x00\x00\x80?\x00\x00\x80?\x00\x00\x80?\x00\x00\x80?\x00\x00\x80?\x00\x00\x80?\x00\x00\x80?\x00\x00\x80?\x00\x00\x80?\x00\x00\x80?\x00\x00\x80?\x00\x00\x80?\x00\x00\x80?\x00\x00\x80?\x00\x00\x80?\x00\x00\x80?\x00\x00\x80?\x00\x00\x80?\x00\x00\x80?\x00\x00\x80?\x00\x00\x80?\x00\x00\x80?\x00\x00\x80?\x00\x00\x80?\x00\x00\x80?\x00\x00\x80?\x00\x00\x80?\x00\x00\x80?\x00\x00\x80?\x00\x00\x80?\x00\x00\x80?\x00\x00\x80?\x00\x00\x80?\x00\x00\x80?\x00\x00\x80?\x00\x00\x80?\x00\x00\x80?\x00\x00\x80?\x00\x00\x80?\x00\x00\x80?\x00\x00\x80?\x00\x00\x80?\x00\x00\x80?\x00\x00\x80?\x00\x00\x80?\x00\x00\x80?\x00\x00\x80?\x00\x00\x80?\x00\x00\x80?\x00\x00\x80?\x00\x00\x80?\x00\x00\x80?\x00\x00\x80?\x00\x00\x80?\x00\x00\x80?\x00\x00\x80?\x00\x00\x80?\x00\x00\x80?\x00\x00\x80?\x00\x00\x80?\x00\x00\x80?\x00\x00\x80?\x00\x00\x80?\x00\x00\x80?\x00\x00\x80?\x00\x00\x80?\x00\x00\x80?\x00\x00\x80?\x00\x00\x80?\x00\x00\x80?\x00\x00\x80?\x00\x00\x80?\x00\x00\x80?\x00\x00\x80?\x00\x00\x80?\x00\x00\x80?\x00\x00\x80?\x00\x00\x80?\x00\x00\x80?\x00\x00\x80?\x00\x00\x80?\x00\x00\x80?\x00\x00\x80?\x00\x00\x80?\x00\x00\x80?\x00\x00\x80?\x00\x00\x80?\x00\x00\x80?\x00\x00\x80?\x00\x00\x80?\x00\x00\x80?\x00\x00\x80?\x00\x00\x80?\x00\x00\x80?\x00\x00\x80?\x00\x00\x80?\x00\x00\x80?\x00\x00\x80?\x00\x00\x80?\x00\x00\x80?\x00\x00\x80?\x00\x00\x80?\x00\x00\x80?\x00\x00\x80?\x00\x00\x80?\x00\x00\x80?\x00\x00\x80?\x00\x00\x80?\x00\x00\x80?\x00\x00\x80?\x00\x00\x80?\x00\x00\x80?\x00\x00\x80?\x00\x00\x80?\x00\x00\x80?\x00\x00\x80?\x00\x00\x80?\x00\x00\x80?\x00\x00\x80?\x00\x00\x80?\x00\x00\x80?\x00\x00\x80?\x00\x00\x80?\x00\x00\x80?\x00\x00\x80?\x00\x00\x80?\x00\x00\x80?\x00\x00\x80?\x00\x00\x80?\x00\x00\x80?\x00\x00\x80?\x00\x00\x80?\x00\x00\x80?\x00\x00\x80?\x00\x00\x80?\x00\x00\x80?\x00\x00\x80?\x00\x00\x80?\x00\x00\x80?\x00\x00\x80?\x00\x00\x80?\x00\x00\x80?\x00\x00\x80?\x00\x00\x80?\x00\x00\x80?\x00\x00\x80?\x00\x00\x80?\x00\x00\x80?\x00\x00\x80?\x00\x00\x80?\x00\x00\x80?\x00\x00\x80?\x00\x00\x80?\x00\x00\x80?\x00\x00\x80?\x00\x00\x80?\x00\x00\x80?\x00\x00\x80?\x00\x00\x80?\x00\x00\x80?\x00\x00\x80?\x00\x00\x80?\x00\x00\x80?\x00\x00\x80?\x00\x00\x80?\x00\x00\x80?\x00\x00\x80?\x00\x00\x80?\x00\x00\x80?\x00\x00\x80?\x00\x00\x80?\x00\x00\x80?\x00\x00\x80?\x00\x00\x80?\x00\x00\x80?\x00\x00\x80?\x00\x00\x80?\x00\x00\x80?\x00\x00\x80?\x00\x00\x80?\x00\x00\x80?\x00\x00\x80?\x00\x00\x80?\x00\x00\x80?\x00\x00\x80?\x00\x00\x80?\x00\x00\x80?\x00\x00\x80?\x00\x00\x80?\x00\x00\x80?\x00\x00\x80?\x00\x00\x80?\x00\x00\x80?\x00\x00\x80?\x00\x00\x80?\x00\x00\x80?\x00\x00\x80?\x00\x00\x80?\x00\x00\x80?\x00\x00\x80?\x00\x00\x80?\x00\x00\x80?\x00\x00\x80?\x00\x00\x80?\x00\x00\x80?\x00\x00\x80?\x00\x00\x80?\x00\x00\x80?\x00\x00\x80?\x00\x00\x80?\x00\x00\x80?\x00\x00\x80?\x00\x00\x80?\x00\x00\x80?\x00\x00\x80?\x00\x00\x80?\x00\x00\x80?\x00\x00\x80?\x00\x00\x80?\x00\x00\x80?\x00\x00\x80?\x00\x00\x80?\x00\x00\x80?\x00\x00\x80?\x00\x00\x80?\x00\x00\x80?\x00\x00\x80?\x00\x00\x80?\x00\x00\x80?\x00\x00\x80?\x00\x00\x80?\x00\x00\x80?\x00\x00\x80?\x00\x00\x80?\x00\x00\x80?\x00\x00\x80?\x00\x00\x80?\x00\x00\x80?\x00\x00\x80?\x00\x00\x80?\x00\x00\x80?\x00\x00\x80?\x00\x00\x80?\x00\x00\x80?\x00\x00\x80?\x00\x00\x80?\x00\x00\x80?\x00\x00\x80?\x00\x00\x80?\x00\x00\x80?\x00\x00\x80?\x00\x00\x80?\x00\x00\x80?\x00\x00\x80?\x00\x00\x80?\x00\x00\x80?\x00\x00\x80?\x00\x00\x80?\x00\x00\x80?\x00\x00\x80?\x00\x00\x80?\x00\x00\x80?\x00\x00\x80?\x00\x00\x80?\x00\x00\x80?\x00\x00\x80?\x00\x00\x80?\x00\x00\x80?\x00\x00\x80?\x00\x00\x80?\x00\x00\x80?\x00\x00\x80?\x00\x00\x80?\x00\x00\x80?\x00\x00\x80?\x00\x00\x80?\x00\x00\x80?\x00\x00\x80?\x00\x00\x80?\x00\x00\x80?\x00\x00\x80?\x00\x00\x80?\x00\x00\x80?\x00\x00\x80?\x00\x00\x80?\x00\x00\x80?\x00\x00\x80?\x00\x00\x80?\x00\x00\x80?\x00\x00\x80?\x00\x00\x80?\x00\x00\x80?\x00\x00\x80?\x00\x00\x80?\x00\x00\x80?\x00\x00\x80?\x00\x00\x80?\x00\x00\x80?\x00\x00\x80?\x00\x00\x80?\x00\x00\x80?\x00\x00\x80?\x00\x00\x80?\x00\x00\x80?\x00\x00\x80?\x00\x00\x80?\x00\x00\x80?\x00\x00\x80?\x00\x00\x80?\x00\x00\x80?\x00\x00\x80?\x00\x00\x80?\x00\x00\x80?\x00\x00\x80?\x00\x00\x80?\x00\x00\x80?\x00\x00\x80?\x00\x00\x80?\x00\x00\x80?\x00\x00\x80?\x00\x00\x80?\x00\x00\x80?\x00\x00\x80?\x00\x00\x80?\x00\x00\x80?\x00\x00\x80?\x00\x00\x80?\x00\x00\x80?\x00\x00\x80?\x00\x00\x80?\x00\x00\x80?\x00\x00\x80?\x00\x00\x80?\x00\x00\x80?\x00\x00\x80?\x00\x00\x80?\x00\x00\x80?\x00\x00\x80?\x00\x00\x80?\x00\x00\x80?\x00\x00\x80?\x00\x00\x80?\x00\x00\x80?\x00\x00\x80?\x00\x00\x80?\x00\x00\x80?\x00\x00\x80?\x00\x00\x80?\x00\x00\x80?\x00\x00\x80?\x00\x00\x80?\x00\x00\x80?\x00\x00\x80?\x00\x00\x80?\x00\x00\x80?\x00\x00\x80?\x00\x00\x80?\x00\x00\x80?\x00\x00\x80?\x00\x00\x80?\x00\x00\x80?\x00\x00\x80?\x00\x00\x80?\x00\x00\x80?\x00\x00\x80?\x00\x00\x80?\x00\x00\x80?\x00\x00\x80?\x00\x00\x80?\x00\x00\x80?\x00\x00\x80?\x00\x00\x80?\x00\x00\x80?\x00\x00\x80?\x00\x00\x80?\x00\x00\x80?\x00\x00\x80?\x00\x00\x80?\x00\x00\x80?\x00\x00\x80?\x00\x00\x80?\x00\x00\x80?\x00\x00\x80?\x00\x00\x80?\x00\x00\x80?\x00\x00\x80?\x00\x00\x80?\x00\x00\x80?\x00\x00\x80?\x00\x00\x80?\x00\x00\x80?\x00\x00\x80?\x00\x00\x80?\x00\x00\x80?\x00\x00\x80?\x00\x00\x80?\x00\x00\x80?\x00\x00\x80?\x00\x00\x80?\x00\x00\x80?\x00\x00\x80?\x00\x00\x80?\x00\x00\x80?\x00\x00\x80?\x00\x00\x80?\x00\x00\x80?\x00\x00\x80?\x00\x00\x80?\x00\x00\x80?\x00\x00\x80?\x00\x00\x80?\x00\x00\x80?\x00\x00\x80?\x00\x00\x80?\x00\x00\x80?\x00\x00\x80?\x00\x00\x80?\x00\x00\x80?\x00\x00\x80?\x00\x00\x80?\x00\x00\x80?\x00\x00\x80?\x00\x00\x80?\x00\x00\x80?\x00\x00\x80?\x00\x00\x80?\x00\x00\x80?\x00\x00\x80?\x00\x00\x80?\x00\x00\x80?\x00\x00\x80?\x00\x00\x80?\x00\x00\x80?\x00\x00\x80?\x00\x00\x80?\x00\x00\x80?\x00\x00\x80?\x00\x00\x80?\x00\x00\x80?\x00\x00\x80?\x00\x00\x80?\x00\x00\x80?\x00\x00\x80?\x00\x00\x80?\x00\x00\x80?\x00\x00\x80?\x00\x00\x80?\x00\x00\x80?\x00\x00\x80?\x00\x00\x80?\x00\x00\x80?\x00\x00\x80?\x00\x00\x80?\x00\x00\x80?\x00\x00\x80?\x00\x00\x80?\x00\x00\x80?\x00\x00\x80?\x00\x00\x80?\x00\x00\x80?\x00\x00\x80?\x00\x00\x80?\x00\x00\x80?\x00\x00\x80?\x00\x00\x80?\x00\x00\x80?\x00\x00\x80?\x00\x00\x80?\x00\x00\x80?\x00\x00\x80?\x00\x00\x80?\x00\x00\x80?\x00\x00\x80?\x00\x00\x80?\x00\x00\x80?\x00\x00\x80?\x00\x00\x80?\x00\x00\x80?\x00\x00\x80?\x00\x00\x80?\x00\x00\x80?\x00\x00\x80?\x00\x00\x80?\x00\x00\x80?\x00\x00\x80?\x00\x00\x80?\x00\x00\x80?\x00\x00\x80?\x00\x00\x80?\x00\x00\x80?\x00\x00\x80?\x00\x00\x80?\x00\x00\x80?\x00\x00\x80?\x00\x00\x80?\x00\x00\x80?\x00\x00\x80?\x00\x00\x80?\x00\x00\x80?\x00\x00\x80?\x00\x00\x80?\x00\x00\x80?\x00\x00\x80?\x00\x00\x80?\x00\x00\x80?\x00\x00\x80?\x00\x00\x80?\x00\x00\x80?\x00\x00\x80?\x00\x00\x80?\x00\x00\x80?\x00\x00\x80?\x00\x00\x80?\x00\x00\x80?\x00\x00\x80?\x00\x00\x80?\x00\x00\x80?\x00\x00\x80?\x00\x00\x80?\x00\x00\x80?\x00\x00\x80?'
S'\x00\x00\x00\x00\x00\x00\x00\x00\x00\x00\x00\x00\x00\x00\x00\x00\x00\x00\x00\x00\x00\x00\x00\x00\x00\x00\x00\x00\x00\x00\x00\x00\x00\x00\x00\x00\x00\x00\x00\x00\x00\x00\x00\x00\x00\x00\x00\x00\x00\x00\x00\x00\x00\x00\x00\x00\x00\x00\x00\x00\x00\x00\x00\x00\x00\x00\x00\x00\x00\x00\x00\x00\x00\x00\x00\x00\x00\x00\x00\x00\x00\x00\x00\x00\x00\x00\x00\x00\x00\x00\x00\x00\x00\x00\x00\x00\x00\x00\x00\x00\x00\x00\x00\x00\x00\x00\x00\x00\x00\x00\x00\x00\x00\x00\x00\x00\x00\x00\x00\x00\x00\x00\x00\x00\x00\x00\x00\x00\x00\x00\x00\x00\x00\x00\x00\x00\x00\x00\x00\x00\x00\x00\x00\x00\x00\x00\x00\x00\x00\x00\x00\x00\x00\x00\x00\x00\x00\x00\x00\x00\x00\x00\x00\x00\x00\x00\x00\x00\x00\x00\x00\x00\x00\x00\x00\x00\x00\x00\x00\x00\x00\x00\x00\x00\x00\x00\x00\x00\x00\x00\x00\x00\x00\x00\x00\x00\x00\x00\x00\x00\x00\x00\x00\x00\x00\x00\x00\x00\x00\x00\x00\x00\x00\x00\x00\x00\x00\x00\x00\x00\x00\x00\x00\x00\x00\x00\x00\x00\x00\x00\x00\x00\x00\x00\x00\x00\x00\x00\x00\x00\x00\x00\x00\x00\x00\x00\x00\x00\x00\x00\x00\x00\x00\x00\x00\x00\x00\x00\x00\x00\x00\x00\x00\x00\x00\x00\x00\x00\x00\x00\x00\x00\x00\x00\x00\x00\x00\x00\x00\x00\x00\x00\x00\x00\x00\x00\x00\x00\x00\x00\x00\x00\x00\x00\x00\x00\x00\x00\x00\x00\x00\x00\x00\x00\x00\x00\x00\x00\x00\x00\x00\x00\x00\x00\x00\x00\x00\x00\x00\x00\x00\x00\x00\x00\x00\x00\x00\x00\x00\x00\x00\x00\x00\x00\x00\x00\x00\x00\x00\x00\x00\x00\x00\x00\x00\x00\x00\x00\x00\x00\x00\x00\x00\x00\x00\x00\x00\x00\x00\x00\x00\x00\x00\x00\x00\x00\x00\x00\x00\x00\x00\x00\x00\x00\x00\x00\x00\x00\x00\x00\x00\x00\x00\x00\x00\x00\x00\x00\x00\x00\x00\x00\x00\x00\x00\x00\x00\x00\x00\x00\x00\x00\x00\x00\x00\x00\x00\x00\x00\x00\x00\x00\x00\x00\x00\x00\x00\x00\x00\x00\x00\x00\x00\x00\x00\x00\x00\x00\x00\x00\x00\x00\x00\x00\x00\x00\x00\x00\x00\x00\x00\x00\x00\x00\x00\x00\x00\x00\x00\x00\x00\x00\x00\x00\x00\x00\x00\x00\x00\x00\x00\x00\x00\x00\x00\x00\x00\x00\x00\x00\x00\x00\x00\x00\x00\x00\x00\x00\x00\x00\x00\x00\x00\x00\x00\x00\x00\x00\x00\x00\x00\x00\x00\x00\x00\x00\x00\x00\x00\x00\x00\x00\x00\x00\x00\x00\x00\x00\x00\x00\x00\x00\x00\x00\x00\x00\x00\x00\x00\x00\x00\x00\x00\x00\x00\x00\x00\x00\x00\x00\x00\x00\x00\x00\x00\x00\x00\x00\x00\x00\x00\x00\x00\x00\x00\x00\x00\x00\x00\x00\x00\x00\x00\x00\x00\x00\x00\x00\x00\x00\x00\x00\x00\x00\x00\x00\x00\x00\x00\x00\x00\x00\x00\x00\x00\x00\x00\x00\x00\x00\x00\x00\x00\x00\x00\x00\x00\x00\x00\x00\x00\x00\x00\x00\x00\x00\x00\x00\x00\x00'
Ntbsg55
g48
(g49
g50
g51
S'b'
tRp4835
(I1
(I600
I1
tg54
I00
S'\x00\x80\xfcC\x00\x00\xfeB\x00\x00\x06D\x00\x00\xabC\x00\x00\x90B\x00\x80\xf6C\x00\x00\x1fC\x00\x00\x13C\x00\x00\x07D\x00\x00\xbeC\x00\x00 A\x00\x00\nD\x00\x80\xeeC\x00\x00\xc8A\x00\x80\x96C\x00\x80\tD\x00\x00\x94C\x00\x003C\x00\x80\xb5C\x00\x00\xe3C\x00@\x0bD\x00\x00bC\x00\x00|B\x00\x80\x9fC\x00\x00-C\x00\x00\xa5C\x00\x00%C\x00\x00\x8aB\x00\x00\x08D\x00\x00\xcaB\x00\x00\x00\x00\x00\x00\x8fC\x00\x00\xaaC\x00@\x14D\x00\x00\xc0@\x00\x00\x14B\x00\x00\xbaC\x00\x80\x05D\x00\x80\xc5C\x00@\x08D\x00\x00\xe0C\x00\x00hC\x00\x00\x98B\x00\x00\x82B\x00\x00\xf6C\x00\x80\xb0C\x00\x00LC\x00\x008B\x00\x00\xb4B\x00\x80\x0fD\x00\x80\x13D\x00\x00\x90A\x00\x00\xe1C\x00\x00vC\x00\x00,B\x00\x80\xc8C\x00@\tD\x00\x00\x8bC\x00\x00\x98C\x00\x00\rD\x00\x00\xfcB\x00\x80\xf9C\x00\x00iC\x00\x00\x9aB\x00\xc0\x15D\x00\x80\x99C\x00\x00\xe6C\x00\x80\x9dC\x00\x00\xa8C\x00\x00\xceC\x00\x004B\x00\x00\xf0B\x00\x80\xa9C\x00\x00\xbcB\x00\x00tB\x00\x00qC\x00\x00EC\x00\x00XB\x00\x00\x16C\x00\x00\xd6B\x00@\x02D\x00\x00?C\x00\x00\x96C\x00\x00=C\x00\x00"C\x00\x00\x05C\x00@\nD\x00\x00\xd0C\x00\x80\xa4C\x00\x00>C\x00\x80\xa2C\x00\x00\x87C\x00\x00\x86B\x00\x00VC\x00\x00\x93C\x00\x00eC\x00\x80\xfdC\x00\xc0\x00D\x00\x00\xe5C\x00\x80\x02D\x00\x00`C\x00\x80\xebC\x00\x008C\x00\x00\xe4C\x00\x80\xb6C\x00\x00$C\x00\x00\xd4C\x00@\x0eD\x00\x00MC\x00\x80\xd6C\x00\x00\xa2B\x00\x00\x05D\x00\x00dC\x00\x00\x02D\x00\x00[C\x00\x00\xc8B\x00\x80\xbeC\x00\x80\x86C\x00\x80\xf3C\x00\x00\xb0C\x00\x00<C\x00\x80\xb2C\x00\x00\x8eB\x00\x80\xceC\x00\x00\x9bC\x00\x00\xb1C\x00\x00\xa0@\x00\x00\xddC\x00\x00\xc0B\x00\x00\xd3C\x00\x00\x96B\x00\x00\xffC\x00\x00~C\x00\x00\xe7C\x00\x80\xe4C\x00\x00\xf8B\x00\x00\xf2C\x00\x80\xdfC\x00\x80\xe6C\x00\x00*C\x00\x00\xf4C\x00\x002C\x00\x00\'C\x00\x80\x0cD\x00\x00\x84C\x00\x00NC\x00\xc0\x06D\x00\x00:C\x00\x00\xbdC\x00\x00`B\x00\x00pB\x00\x009C\x00\x80\xa3C\x00\x00\xa4B\x00\x00\xe6B\x00\x00\xc7C\x00\x000C\x00\x00$B\x00\x00\xe8A\x00\x00\x04B\x00\x00\xfeC\x00\x80\xe3C\x00\x80\x00D\x00\x80\xdeC\x00\x80\xe8C\x00\x80\xc1C\x00\x00CC\x00\xc0\x0fD\x00\x00\xbcC\x00\x00BC\x00\x00\x13D\x00\x00\x8aC\x00\x00\xb0A\x00\x00\xa8B\x00\x00KC\x00\x00\xd0A\x00\x007C\x00\x00nC\x00\x80\x8dC\x00\x00\xbaB\x00\x00\xc4C\x00@\x13D\x00\xc0\x04D\x00\x00\xc2B\x00\x80\xfaC\x00\x00\xa6B\x00\x00\x11C\x00\xc0\x13D\x00\x80\x83C\x00\x00PC\x00\x80\xeaC\x00\x80\x0bD\x00\x80\xcbC\x00\x80\xacC\x00\x00yC\x00\x00\xeeC\x00@\x0fD\x00\x80\xd0C\x00\x00\xf2B\x00\x80\x97C\x00\x00\x88B\x00\x00#C\x00\x00\x03D\x00\x00\xcdC\x00\x00\xd2C\x00\x00\x95C\x00\x00\xd2B\x00\x00|C\x00\x00\xe8B\x00\x00\xd8B\x00\x00PB\x00\x80\xb1C\x00\x00\xa4C\x00\x00\xc8C\x00\xc0\x01D\x00\x80\xcaC\x00@\x15D\x00\x80\xf2C\x00\x00\x0fC\x00\x00\x83C\x00\x00\xeeB\x00\x00\x9eB\x00\x00\xeaB\x00\xc0\x10D\x00\x00\xf5C\x00\x00\xfaB\x00\x00\xc6C\x00\x00\x0cD\x00@\x07D\x00\x00\xbbC\x00\x00\xb3C\x00\x80\xfbC\x00\x00\xd4B\x00\x80\x82C\x00\x00\xfbC\x00\x80\xd5C\x00\x00\xd5C\x00\xc0\x12D\x00\x00\x17C\x00@\x0cD\x00\x00\xb6C\x00\x80\x15D\x00\x80\xdaC\x00\x80\x89C\x00\x00\xb8B\x00\x00\x9eC\x00\x00\x1aC\x00\x80\x11D\x00\x80\x9cC\x00\x00\x94B\x00\x80\x06D\x00\x00,C\x00\x00\x91C\x00\x00zC\x00\x00\x06C\x00\x00SC\x00\x00\xfdC\x00\x80\xe0C\x00\x80\xdcC\x00\x00\xb7C\x00\x00\x10C\x00\x80\xddC\x00\x00\tC\x00\x00\xc6B\x00\x00\xacC\x00\x00FC\x00\x00lC\x00\x00\xa8A\x00\x00\tD\x00\x00\xc0C\x00@\x03D\x00\x80\xe5C\x00\x80\x8cC\x00\x80\xcfC\x00\x00\xa0B\x00\x00\xdeB\x00\x80\xc7C\x00\x00]C\x00\x00/C\x00\x00\xa0A\x00\x80\xa1C\x00\x00fC\x00\x00\x90C\x00\x00\x0eC\x00\x80\xbdC\x00\x00)C\x00\x00\xe0@\x00\x00\x86C\x00\x00HB\x00\x00\x14C\x00\x80\xf0C\x00\x000B\x00\x00\xd8C\x00\x80\x85C\x00\x00\xf3C\x00\x00\xd6C\x00\x00JC\x00\x00\xa7C\x00\x00\x10B\x00\x80\nD\x00\x80\x93C\x00\x00\x81C\x00\x00\x01D\x00\x80\x87C\x00\x00\xdbC\x00\xc0\x14D\x00\x00\xacB\x00\x00\xecB\x00\x00\x0bD\x00\x00\xe4B\x00\x00jC\x00\x00 C\x00\x00\xb8C\x00\x00\xafC\x00\x80\x80C\x00\x00GC\x00\x00<B\x00\x00\xa6C\x00\x00\xdaC\x00\x00\xc2C\x00\x00lB\x00\x00\\B\x00\x80\xc9C\x00\x00\xaeC\x00\x80\xedC\x00\x00\x84B\x00\x80\xc3C\x00\x00\xbeB\x00\x00YC\x00\x00tC\x00\x005C\x00\x00\x1dC\x00\x00\x04D\x00\x00&C\x00\x00\xc1C\x00@\x04D\x00\xc0\x0eD\x00\x80\xafC\x00\x00\x85C\x00\x00\x00@\x00\x00\rC\x00\x00\xdcC\x00\x00\xf0C\x00\x00\xfcC\x00\x80\xd8C\x00\xc0\x02D\x00\x00\x10D\x00\x00uC\x00@\x00D\x00\x80\x84C\x00\x00\x18B\x00\x00\xa2C\x00\x80\x81C\x00\x00\xb8A\x00\x80\xa7C\x00\x00\xecC\x00\x00(C\x00\x00\xa9C\x00\x80\xf4C\x00\x00\x92C\x00\x00\xe2C\x00\x006C\x00\x00\xc4B\x00\x00\xebC\x00\x80\x94C\x00\x00RC\x00\x80\xfeC\x00\x00\xe0B\x00\x80\xabC\x00\x80\x91C\x00\x00(B\x00\x00\x10A\x00\x00HC\x00\x00\x15D\x00\x80\xbaC\x00\x00\xf8C\x00@\x10D\x00\x00UC\x00\x80\xf7C\x00\x00QC\x00\x00\xa3C\x00\x00\x1eC\x00\x00;C\x00\x80\x8fC\x00\x000A\x00\x80\xd3C\x00\x00hB\x00\x80\x07D\x00\x80\xc2C\x00\x80\xd9C\x00\x80\xb8C\x00\x00 B\x00\x80\x01D\x00\x80\xbfC\x00\x80\xc6C\x00\x80\xb3C\x00\x00\x80?\x00@\rD\x00\x00\xbfC\x00\x80\xccC\x00\x00\x02C\x00\x00LB\x00\x80\x8bC\x00\x00\x1cC\x00@\x01D\x00\x00\x9aC\x00\x80\x90C\x00\x80\xd4C\x00\x00\x9cC\x00\x80\xe2C\x00\x80\x04D\x00\x00\x08C\x00\x00\x01C\x00\x00\xedC\x00\xc0\x0cD\x00\x00\x00A\x00\x80\xa6C\x00\x00mC\x00\x00kC\x00\x80\xefC\x00\x80\x8aC\x00\x00\x9fC\x00\x80\x9aC\x00\x00\xa1C\x00\x00\x11D\x00\x00\xefC\x00\x00\x0cB\x00\x00@C\x00\x00PA\x00\x80\xf1C\x00\x00\x12D\x00\x00\xdeC\x00\x00\xaaB\x00\x00WC\x00\x00\x8cC\x00\x00\x18C\x00\x00\nC\x00\x80\xd2C\x00\x00AC\x00\x80\x8eC\x00\x00\xe2B\x00\x00\xb2B\x00\x00_C\x00\x00DC\x00\x80\xd7C\x00\x00\xf4B\x00\x00\xd0B\x00\xc0\rD\x00\x00@A\x00\x00^C\x00\x00!C\x00\x00\xd8A\x00\x00+C\x00\x00\xc5C\x00\x80\xf5C\x00\x80\xaeC\x00\x00\x80@\x00\x80\x88C\x00\x00wC\x00\x00\x80B\x00\x80\xc0C\x00\x00}C\x00\x00\xd1C\x00\x80\x95C\x00\x00\x7fC\x00\x00\xf6B\x00\x00ZC\x00\x00\xaeB\x00\x00\xe8C\x00\xc0\x07D\x00\x00OC\x00\x00oC\x00\x00\x0fD\x00\x00xB\x00\x00\x8cB\x00\x00\x0eD\x00\x80\xdbC\x00\x00XC\x00\x80\x10D\x00\x00\xe0A\x00\x80\xe1C\x00\x00\x07C\x00\x80\xe7C\x00\x00\x00D\x00\x00\xb5C\x00\x00\x00B\x00\x00TB\x00\x00\x14D\x00\x00\x88C\x00\x00\x04C\x00\x00\xcaC\x00\xc0\nD\x00\x00\xb4C\x00\x00\x08B\x00\x00\x8dC\x00@\x06D\x00\x00\x88A\x00\x80\xcdC\x00\xc0\x05D\x00\x00@B\x00\x80\xaaC\x00\x80\x08D\x00\x00\x9dC\x00\x00\xc0A\x00\x80\xbbC\x00\x00\xb6B\x00\x00@@\x00\x00\x92B\x00\x00\xf1C\x00\x00\x80C\x00\x00\xf7C\x00\x00\xf0A\x00@\x11D\x00\x80\xf8C\x00\x80\x9eC\x00\x00pA\x00\x00\xb2C\x00\x80\xd1C\x00\x00\xc9C\x00\x00\xf9C\x00\xc0\x03D\x00\x00TC\x00\x00\xfaC\x00\x00\xceB\x00\x00\xeaC\x00\x00\xf8A\x00\x80\xffC\x00\x80\xb9C\x00\x00\x89C\x00@\x12D\x00\x00\x8eC\x00\x00\x1bC\x00\x00\xe9C\x00\x00\xdfC\x00\x80\xa8C\x00\xc0\x0bD\x00\x00\x19C\x00\x00\\C\x00\x00\xcfC\x00\x00dB\x00\x00\x15C\x00\x00\x9cB\x00\xc0\x08D\x00\x80\x92C\x00\x00\xd9C\x00\x00\xcbC\x00\x80\xecC\x00\x80\xbcC\x00\xc0\x11D\x00\x00gC\x00\x80\xe9C\x00\x00aC\x00\x00\x03C\x00\x00IC\x00\x00\xdaB\x00\x00\xb9C\x00\x00\x98A\x00\x00\xadC\x00\x00`A\x00\x00\x12C\x00\x00\x0cC\x00\x00\x99C\x00\x00\x00C\x00\x00\xccC\x00\x001C\x00\x00\x82C\x00\x00.C\x00\x80\xa5C\x00\x00\xd7C\x00\x00sC\x00@\x05D\x00\x80\xb4C\x00\x00cC\x00\x80\x03D\x00\x00\xccB\x00\x00\x97C\x00\x80\rD\x00\x00\x0bC\x00\x80\xb7C\x00\x004C\x00\x00\xb0B\x00\x00\x80A\x00\x00DB\x00\x80\x98C\x00\x80\xa0C\x00\x00\xdcB\x00\x80\x12D\x00\x80\x0eD\x00\x00pC\x00\x00xC\x00\xc0\tD\x00\x80\x14D\x00\x80\xc4C\x00\x00\x1cB\x00\x00\xa0C\x00\x00{C\x00\x80\x9bC\x00\x00\xc3C\x00\x80\xadC\x00\x00rC'
S'\x00\x00\x00\x00\x00\x00\x00\x00\x00\x00\x00\x00\x00\x00\x00\x00\x00\x00\x00\x00\x00\x00\x00\x00\x00\x00\x00\x00\x00\x00\x00\x00\x00\x00\x00\x00\x00\x00\x00\x00\x00\x00\x00\x00\x00\x00\x00\x00\x00\x00\x00\x00\x00\x00\x00\x00\x00\x00\x00\x00\x00\x00\x00\x00\x00\x00\x00\x00\x00\x00\x00\x00\x00\x00\x00\x00\x00\x00\x00\x00\x00\x00\x00\x00\x00\x00\x00\x00\x00\x00\x00\x00\x00\x00\x00\x00\x00\x00\x00\x00\x00\x00\x00\x00\x00\x00\x00\x00\x00\x00\x00\x00\x00\x00\x00\x00\x00\x00\x00\x00\x00\x00\x00\x00\x00\x00\x00\x00\x00\x00\x00\x00\x00\x00\x00\x00\x00\x00\x00\x00\x00\x00\x00\x00\x00\x00\x00\x00\x00\x00\x00\x00\x00\x00\x00\x00\x00\x00\x00\x00\x00\x00\x00\x00\x00\x00\x00\x00\x00\x00\x00\x00\x00\x00\x00\x00\x00\x00\x00\x00\x00\x00\x00\x00\x00\x00\x00\x00\x00\x00\x00\x00\x00\x00\x00\x00\x00\x00\x00\x00\x00\x00\x00\x00\x00\x00\x00\x00\x00\x00\x00\x00\x00\x00\x00\x00\x00\x00\x00\x00\x00\x00\x00\x00\x00\x00\x00\x00\x00\x00\x00\x00\x00\x00\x00\x00\x00\x00\x00\x00\x00\x00\x00\x00\x00\x00\x00\x00\x00\x00\x00\x00\x00\x00\x00\x00\x00\x00\x00\x00\x00\x00\x00\x00\x00\x00\x00\x00\x00\x00\x00\x00\x00\x00\x00\x00\x00\x00\x00\x00\x00\x00\x00\x00\x00\x00\x00\x00\x00\x00\x00\x00\x00\x00\x00\x00\x00\x00\x00\x00\x00\x00\x00\x00\x00\x00\x00\x00\x00\x00\x00\x00\x00\x00\x00\x00\x00\x00\x00\x00\x00\x00\x00\x00\x00\x00\x00\x00\x00\x00\x00\x00\x00\x00\x00\x00\x00\x00\x00\x00\x00\x00\x00\x00\x00\x00\x00\x00\x00\x00\x00\x00\x00\x00\x00\x00\x00\x00\x00\x00\x00\x00\x00\x00\x00\x00\x00\x00\x00\x00\x00\x00\x00\x00\x00\x00\x00\x00\x00\x00\x00\x00\x00\x00\x00\x00\x00\x00\x00\x00\x00\x00\x00\x00\x00\x00\x00\x00\x00\x00\x00\x00\x00\x00\x00\x00\x00\x00\x00\x00\x00\x00\x00\x00\x00\x00\x00\x00\x00\x00\x00\x00\x00\x00\x00\x00\x00\x00\x00\x00\x00\x00\x00\x00\x00\x00\x00\x00\x00\x00\x00\x00\x00\x00\x00\x00\x00\x00\x00\x00\x00\x00\x00\x00\x00\x00\x00\x00\x00\x00\x00\x00\x00\x00\x00\x00\x00\x00\x00\x00\x00\x00\x00\x00\x00\x00\x00\x00\x00\x00\x00\x00\x00\x00\x00\x00\x00\x00\x00\x00\x00\x00\x00\x00\x00\x00\x00\x00\x00\x00\x00\x00\x00\x00\x00\x00\x00\x00\x00\x00\x00\x00\x00\x00\x00\x00\x00\x00\x00\x00\x00\x00\x00\x00\x00\x00\x00\x00\x00\x00\x00\x00\x00\x00\x00\x00\x00\x00\x00\x00\x00\x00\x00\x00\x00\x00\x00\x00\x00\x00\x00\x00\x00\x00\x00\x00\x00\x00\x00\x00\x00\x00\x00\x00\x00\x00\x00\x00\x00\x00\x00\x00\x00\x00\x00\x00\x00\x00\x00\x00\x00\x00\x00\x00\x00\x00\x00\x00\x00\x00\x00\x00\x00\x00\x00\x00\x00\x00\x00\x00'
NtbstRp4836
(dp4837
g59
(dp4838
g47
I01
sg55
I01
ssg61
g4830
sg62
(lp4839
g47
ag55
asg64
(lp4840
I600
aI1
asbsg66
S'random'
p4841
sg68
g69
(g50
(I0
tS'b'
tRp4842
(I1
(I600
I1
tg53
(S'i4'
I0
I1
tRp4843
(I3
S'<'
NNNI-1
I-1
I0
tbI01
S'\x1e\x00\x00\x00\x8c\x01\x00\x00S\x01\x00\x00\xfa\x01\x00\x00\xc8\x01\x00\x00~\x00\x00\x00"\x00\x00\x00\x1e\x01\x00\x00\x9f\x01\x00\x00s\x01\x00\x00\n\x00\x00\x00\x80\x01\x00\x00\xc0\x01\x00\x00\xac\x01\x00\x00.\x02\x00\x00\x03\x02\x00\x00E\x02\x00\x00\xf0\x01\x00\x003\x00\x00\x00,\x02\x00\x00\x17\x01\x00\x00\x0b\x01\x00\x00\xac\x00\x00\x00a\x01\x00\x00\xf7\x01\x00\x00\r\x00\x00\x00\xaf\x00\x00\x00\xc3\x01\x00\x00\xdf\x01\x00\x00\x9e\x00\x00\x00\xff\x01\x00\x00\r\x02\x00\x00\xe5\x01\x00\x00\x9f\x00\x00\x00\xed\x01\x00\x00\xaa\x01\x00\x00*\x01\x00\x00#\x00\x00\x00^\x01\x00\x00Q\x02\x00\x00\x87\x01\x00\x00\x9d\x00\x00\x00r\x01\x00\x006\x00\x00\x00#\x01\x00\x00F\x00\x00\x00/\x00\x00\x00<\x01\x00\x00\xf3\x01\x00\x00F\x02\x00\x00 \x01\x00\x00\x91\x01\x00\x00\xd2\x00\x00\x00\xe6\x01\x00\x00M\x00\x00\x00A\x01\x00\x00\x95\x00\x00\x00\x1b\x02\x00\x00\x82\x01\x00\x00@\x01\x00\x00\x96\x00\x00\x00J\x00\x00\x00\xd9\x01\x00\x00\x16\x00\x00\x00\xcb\x01\x00\x00+\x00\x00\x00E\x01\x00\x00\\\x00\x00\x00\xc8\x00\x00\x00\x1b\x00\x00\x00\xda\x01\x00\x00z\x00\x00\x00\x04\x00\x00\x00\xfb\x01\x00\x00\xf9\x00\x00\x00\x82\x00\x00\x00*\x00\x00\x00?\x00\x00\x00\x1d\x02\x00\x00\xdd\x00\x00\x00\x12\x01\x00\x00n\x00\x00\x00\x99\x00\x00\x00\xb9\x00\x00\x00\xad\x00\x00\x00\xb0\x01\x00\x002\x01\x00\x00\xd3\x01\x00\x00D\x02\x00\x00\xb9\x01\x00\x000\x00\x00\x00\xf9\x01\x00\x00\xf4\x00\x00\x00\xb3\x00\x00\x00I\x00\x00\x00G\x01\x00\x00\x80\x00\x00\x00\xb7\x00\x00\x00j\x01\x00\x00\x07\x01\x00\x00s\x00\x00\x00\x1d\x00\x00\x00>\x02\x00\x00\x0b\x02\x00\x00\xbe\x01\x00\x00\xce\x00\x00\x00\xe8\x00\x00\x00O\x00\x00\x00\xd1\x00\x00\x00*\x02\x00\x00I\x02\x00\x00\x13\x01\x00\x00o\x01\x00\x00\xb8\x01\x00\x005\x01\x00\x00\x9a\x00\x00\x00\xd0\x00\x00\x00\xde\x00\x00\x003\x01\x00\x00\xdc\x00\x00\x00G\x00\x00\x00\xc6\x00\x00\x00\xbd\x01\x00\x00\xd1\x01\x00\x00\x87\x00\x00\x00\xe1\x00\x00\x00<\x00\x00\x00\x01\x00\x00\x002\x02\x00\x00\x9c\x01\x00\x00\x90\x01\x00\x00(\x02\x00\x00\xe9\x01\x00\x00U\x00\x00\x00\xfe\x00\x00\x00\xe1\x01\x00\x00\x9b\x01\x00\x00\x06\x01\x00\x00\xb4\x01\x00\x00A\x02\x00\x000\x02\x00\x00T\x01\x00\x00\x1b\x01\x00\x00\xda\x00\x00\x00\x04\x01\x00\x00\xba\x00\x00\x00/\x02\x00\x00\x07\x00\x00\x00!\x01\x00\x00\x1c\x02\x00\x00N\x00\x00\x00\xee\x00\x00\x00\xb3\x01\x00\x00\x18\x02\x00\x00\xf6\x00\x00\x00\x13\x02\x00\x00\x93\x01\x00\x00K\x01\x00\x00}\x01\x00\x00\x06\x00\x00\x007\x01\x00\x00\xc2\x01\x00\x00T\x00\x00\x00\xc9\x00\x00\x00i\x00\x00\x00\x1a\x00\x00\x00M\x01\x00\x00\x8e\x00\x00\x00d\x01\x00\x00\x1d\x01\x00\x00\x8b\x00\x00\x00\xc4\x01\x00\x00\xfb\x00\x00\x00\x18\x00\x00\x006\x02\x00\x00\x16\x01\x00\x00\x9c\x00\x00\x004\x02\x00\x00\x8d\x00\x00\x00\x11\x00\x00\x00C\x02\x00\x00J\x01\x00\x00i\x01\x00\x00\xb0\x00\x00\x00f\x00\x00\x00\x97\x00\x00\x00\x93\x00\x00\x00~\x01\x00\x00x\x00\x00\x00S\x00\x00\x00Y\x00\x00\x00Q\x00\x00\x00\xab\x01\x00\x00\xb6\x01\x00\x00\xa9\x00\x00\x00\xa6\x00\x00\x00\xbb\x01\x00\x00L\x00\x00\x00\t\x01\x00\x00;\x01\x00\x00t\x01\x00\x00)\x02\x00\x00(\x01\x00\x00\xae\x00\x00\x00.\x00\x00\x00l\x00\x00\x00\x91\x00\x00\x00\xd6\x01\x00\x00\xbd\x00\x00\x00{\x01\x00\x00m\x01\x00\x00\xff\x00\x00\x00\t\x02\x00\x00y\x01\x00\x00]\x00\x00\x00\xb1\x01\x00\x00\xdd\x01\x00\x00H\x01\x00\x00\xd2\x01\x00\x00r\x00\x00\x00\x19\x02\x00\x00\x15\x01\x00\x00\xc1\x01\x00\x00\xba\x01\x00\x00d\x00\x00\x00\'\x02\x00\x00\x15\x00\x00\x00<\x02\x00\x00p\x00\x00\x00_\x00\x00\x00\x19\x01\x00\x00%\x02\x00\x00)\x00\x00\x00>\x00\x00\x006\x01\x00\x00\xa2\x01\x00\x00\n\x01\x00\x00\xa1\x01\x00\x00\xb1\x00\x00\x00\xd7\x01\x00\x00L\x02\x00\x00K\x00\x00\x00W\x02\x00\x009\x02\x00\x00I\x01\x00\x00[\x01\x00\x005\x00\x00\x00\xca\x01\x00\x00M\x02\x00\x00\xc2\x00\x00\x00\xfd\x00\x00\x00S\x02\x00\x00\xcf\x00\x00\x00\xcd\x01\x00\x00\x84\x00\x00\x00\xd0\x01\x00\x00\xfd\x01\x00\x00:\x01\x00\x00-\x01\x00\x00`\x01\x00\x005\x02\x00\x00\xe9\x00\x00\x00\xdb\x00\x00\x00\xbc\x00\x00\x00\x90\x00\x00\x00]\x01\x00\x00R\x01\x00\x00%\x01\x00\x00\x1f\x01\x00\x00u\x00\x00\x00[\x00\x00\x00/\x01\x00\x00\xe8\x01\x00\x00\xc9\x01\x00\x00\x10\x02\x00\x00\xf3\x00\x00\x00\xab\x00\x00\x00\xa4\x01\x00\x009\x00\x00\x00\x92\x01\x00\x00\xb2\x01\x00\x00\x10\x01\x00\x00\xee\x01\x00\x00\xb2\x00\x00\x00\x12\x02\x00\x00\xb7\x01\x00\x00\x1f\x00\x00\x00\x7f\x01\x00\x00\x1a\x01\x00\x00\x96\x01\x00\x00\xfc\x00\x00\x00q\x01\x00\x00g\x01\x00\x00\x1f\x02\x00\x00^\x00\x00\x00,\x01\x00\x00\x10\x00\x00\x00l\x01\x00\x00\xcd\x00\x00\x00\xcf\x01\x00\x00R\x00\x00\x00\x0e\x00\x00\x00?\x02\x00\x00\xc7\x00\x00\x00:\x00\x00\x00G\x02\x00\x001\x02\x00\x00A\x00\x00\x00\x95\x01\x00\x00\xa6\x01\x00\x00|\x00\x00\x00T\x02\x00\x00\x98\x01\x00\x00\xf8\x00\x00\x00\xf6\x01\x00\x00C\x00\x00\x00\xf5\x00\x00\x00\x02\x02\x00\x00\xa5\x01\x00\x00\x17\x00\x00\x00R\x02\x00\x00H\x02\x00\x00\xa7\x01\x00\x00\x18\x01\x00\x00_\x01\x00\x00Z\x00\x00\x00|\x01\x00\x00\x98\x00\x00\x00\xd4\x00\x00\x00X\x00\x00\x00\x19\x00\x00\x007\x02\x00\x00=\x01\x00\x00\xa0\x01\x00\x00)\x01\x00\x00b\x01\x00\x00D\x00\x00\x00\x16\x02\x00\x00e\x01\x00\x00H\x00\x00\x00 \x00\x00\x00\xf4\x01\x00\x00\x03\x00\x00\x00p\x01\x00\x00\x08\x01\x00\x00\xc1\x00\x00\x00-\x02\x00\x00V\x02\x00\x00C\x01\x00\x00\xc7\x01\x00\x009\x01\x00\x00Q\x01\x00\x00w\x00\x00\x00-\x00\x00\x00}\x00\x00\x00\xd3\x00\x00\x00\x04\x02\x00\x00y\x00\x00\x00\xe6\x00\x00\x00\x8b\x01\x00\x00\xec\x01\x00\x00;\x02\x00\x00\xe4\x01\x00\x00\x12\x00\x00\x00\xf0\x00\x00\x00h\x00\x00\x00\x03\x01\x00\x00B\x02\x00\x008\x01\x00\x00\x86\x01\x00\x00+\x02\x00\x00\x0f\x02\x00\x00$\x00\x00\x00v\x01\x00\x00\xe5\x00\x00\x00\xf8\x01\x00\x00\xa8\x00\x00\x00#\x02\x00\x00\x94\x00\x00\x00\x1c\x01\x00\x00\t\x00\x00\x00t\x00\x00\x00\x8e\x01\x00\x00\x89\x01\x00\x00\r\x01\x00\x00\xcc\x01\x00\x00N\x01\x00\x00\xa5\x00\x00\x00?\x01\x00\x00\x84\x01\x00\x00U\x02\x00\x00F\x01\x00\x00\xb4\x00\x00\x00P\x02\x00\x00\xc5\x01\x00\x00&\x00\x00\x00\xe2\x00\x00\x00\x8a\x01\x00\x00\x9b\x00\x00\x00\x14\x01\x00\x00\xd5\x00\x00\x007\x00\x00\x00\x06\x02\x00\x00B\x01\x00\x00\xea\x01\x00\x00\xd7\x00\x00\x00!\x02\x00\x00\xc0\x00\x00\x003\x02\x00\x00\x8f\x01\x00\x00\xcb\x00\x00\x00\xf1\x01\x00\x00E\x00\x00\x00{\x00\x00\x00\x1a\x02\x00\x00\x11\x01\x00\x00W\x00\x00\x00\xc5\x00\x00\x00\xce\x01\x00\x00\x05\x02\x00\x00\xcc\x00\x00\x00\xb5\x01\x00\x00\x81\x00\x00\x00\x81\x01\x00\x00j\x00\x00\x00\x97\x01\x00\x00\xec\x00\x00\x00\xeb\x00\x00\x00\'\x01\x00\x00m\x00\x00\x008\x02\x00\x00\xbc\x01\x00\x00$\x01\x00\x00X\x01\x00\x00 \x02\x00\x00\x85\x01\x00\x00>\x01\x00\x00\xf2\x00\x00\x000\x01\x00\x00\xdc\x01\x00\x00U\x01\x00\x00\x02\x01\x00\x00\x7f\x00\x00\x00\x05\x01\x00\x00\xaf\x01\x00\x00\xa3\x00\x00\x00\x15\x02\x00\x00\x89\x00\x00\x00(\x00\x00\x00\x01\x01\x00\x004\x00\x00\x00\xe0\x01\x00\x00h\x01\x00\x00\x99\x01\x00\x00\x13\x00\x00\x00\xa1\x00\x00\x00g\x00\x00\x00\x86\x00\x00\x00b\x00\x00\x00\x0f\x01\x00\x00B\x00\x00\x00\x8a\x00\x00\x00\x85\x00\x00\x00\xe2\x01\x00\x00\xd4\x01\x00\x00\xa4\x00\x00\x00\x14\x02\x00\x00&\x02\x00\x00\x0c\x02\x00\x00\xbe\x00\x00\x00k\x01\x00\x00e\x00\x00\x00c\x01\x00\x00"\x02\x00\x00\x9d\x01\x00\x00D\x01\x00\x00\xc3\x00\x00\x00\x0c\x00\x00\x00\xa9\x01\x00\x00\xa3\x01\x00\x00V\x01\x00\x00"\x01\x00\x00\xfc\x01\x00\x00\xad\x01\x00\x00\x88\x00\x00\x00\xd9\x00\x00\x00&\x01\x00\x00v\x00\x00\x00\x8c\x00\x00\x00f\x01\x00\x00\xe0\x00\x00\x00\xc6\x01\x00\x00,\x00\x00\x00\x05\x00\x00\x00\xfe\x01\x00\x00z\x01\x00\x00w\x01\x00\x00\x01\x02\x00\x00\x07\x02\x00\x00=\x00\x00\x00\n\x02\x00\x00\xb8\x00\x00\x00\xea\x00\x00\x00\xe7\x00\x00\x00W\x01\x00\x00\x00\x00\x00\x00\x00\x01\x00\x00`\x00\x00\x00\xa0\x00\x00\x00n\x01\x00\x00\x83\x00\x00\x00\x0e\x02\x00\x00\xe3\x01\x00\x00\\\x01\x00\x00\xa2\x00\x00\x00a\x00\x00\x00.\x01\x00\x00\x94\x01\x00\x00\x88\x01\x00\x00\xd6\x00\x00\x00q\x00\x00\x00P\x00\x00\x00c\x00\x00\x00Y\x01\x00\x00\xca\x00\x00\x00\x0e\x01\x00\x00=\x02\x00\x00\x08\x02\x00\x00L\x01\x00\x00O\x01\x00\x00\x9a\x01\x00\x00\xb6\x00\x00\x00o\x00\x00\x00:\x02\x00\x00%\x00\x00\x00\xf2\x01\x00\x00\x02\x00\x00\x00\xef\x01\x00\x00\xfa\x00\x00\x00\x92\x00\x00\x00\x08\x00\x00\x00\xe4\x00\x00\x00\x83\x01\x00\x00\xd5\x01\x00\x00\x1c\x00\x00\x00\'\x00\x00\x00\xf5\x01\x00\x00\x1e\x02\x00\x00\x0c\x01\x00\x008\x00\x00\x00\x0f\x00\x00\x00N\x02\x00\x00\x0b\x00\x00\x00V\x00\x00\x00+\x01\x00\x00\xeb\x01\x00\x004\x01\x00\x00\x14\x00\x00\x00\xbf\x00\x00\x00\x17\x02\x00\x00\xe3\x00\x00\x00\xef\x00\x00\x00\x8f\x00\x00\x00\x9e\x01\x00\x00;\x00\x00\x00\x8d\x01\x00\x00@\x02\x00\x00\xbf\x01\x00\x00\xdb\x01\x00\x00k\x00\x00\x00K\x02\x00\x00P\x01\x00\x00\xd8\x01\x00\x00\xc4\x00\x00\x001\x00\x00\x00\xa7\x00\x00\x00Z\x01\x00\x00x\x01\x00\x00\xde\x01\x00\x00\xdf\x00\x00\x00\xa8\x01\x00\x00\x00\x02\x00\x00\xf7\x00\x00\x00$\x02\x00\x00\xae\x01\x00\x00\x11\x02\x00\x00J\x02\x00\x00\xed\x00\x00\x00\xaa\x00\x00\x00\xb5\x00\x00\x002\x00\x00\x00\xbb\x00\x00\x00\xe7\x01\x00\x00!\x00\x00\x00O\x02\x00\x001\x01\x00\x00u\x01\x00\x00\xd8\x00\x00\x00\xf1\x00\x00\x00@\x00\x00\x00'
tbsg73
I01
sg74
I1
sg75
I-1
sg76
(lp4844
I0
aI1
aI2
aI3
aI4
aI5
aI6
aI7
aI8
aI9
aI10
aI11
aI12
aI13
aI14
aI15
aI16
aI17
aI18
aI19
aI20
aI21
aI22
aI23
aI24
aI25
aI26
aI27
aI28
aI29
aI30
aI31
aI32
aI33
aI34
aI35
aI36
aI37
aI38
aI39
aI40
aI41
aI42
aI43
aI44
aI45
aI46
aI47
aI48
aI49
aI50
aI51
aI52
aI53
aI54
aI55
aI56
aI57
aI58
aI59
aI60
aI61
aI62
aI63
aI64
aI65
aI66
aI67
aI68
aI69
aI70
aI71
aI72
aI73
aI74
aI75
aI76
aI77
aI78
aI79
aI80
aI81
aI82
aI83
aI84
aI85
aI86
aI87
aI88
aI89
aI90
aI91
aI92
aI93
aI94
aI95
aI96
aI97
aI98
aI99
aI100
aI101
aI102
aI103
aI104
aI105
aI106
aI107
aI108
aI109
aI110
aI111
aI112
aI113
aI114
aI115
aI116
aI117
aI118
aI119
aI120
aI121
aI122
aI123
aI124
aI125
aI126
aI127
aI128
aI129
aI130
aI131
aI132
aI133
aI134
aI135
aI136
aI137
aI138
aI139
aI140
aI141
aI142
aI143
aI144
aI145
aI146
aI147
aI148
aI149
aI150
aI151
aI152
aI153
aI154
aI155
aI156
aI157
aI158
aI159
aI160
aI161
aI162
aI163
aI164
aI165
aI166
aI167
aI168
aI169
aI170
aI171
aI172
aI173
aI174
aI175
aI176
aI177
aI178
aI179
aI180
aI181
aI182
aI183
aI184
aI185
aI186
aI187
aI188
aI189
aI190
aI191
aI192
aI193
aI194
aI195
aI196
aI197
aI198
aI199
aI200
aI201
aI202
aI203
aI204
aI205
aI206
aI207
aI208
aI209
aI210
aI211
aI212
aI213
aI214
aI215
aI216
aI217
aI218
aI219
aI220
aI221
aI222
aI223
aI224
aI225
aI226
aI227
aI228
aI229
aI230
aI231
aI232
aI233
aI234
aI235
aI236
aI237
aI238
aI239
aI240
aI241
aI242
aI243
aI244
aI245
aI246
aI247
aI248
aI249
aI250
aI251
aI252
aI253
aI254
aI255
aI256
aI257
aI258
aI259
aI260
aI261
aI262
aI263
aI264
aI265
aI266
aI267
aI268
aI269
aI270
aI271
aI272
aI273
aI274
aI275
aI276
aI277
aI278
aI279
aI280
aI281
aI282
aI283
aI284
aI285
aI286
aI287
aI288
aI289
aI290
aI291
aI292
aI293
aI294
aI295
aI296
aI297
aI298
aI299
aI300
aI301
aI302
aI303
aI304
aI305
aI306
aI307
aI308
aI309
aI310
aI311
aI312
aI313
aI314
aI315
aI316
aI317
aI318
aI319
aI320
aI321
aI322
aI323
aI324
aI325
aI326
aI327
aI328
aI329
aI330
aI331
aI332
aI333
aI334
aI335
aI336
aI337
aI338
aI339
aI340
aI341
aI342
aI343
aI344
aI345
aI346
aI347
aI348
aI349
aI350
aI351
aI352
aI353
aI354
aI355
aI356
aI357
aI358
aI359
aI360
aI361
aI362
aI363
aI364
aI365
aI366
aI367
aI368
aI369
aI370
aI371
aI372
aI373
aI374
aI375
aI376
aI377
aI378
aI379
aI380
aI381
aI382
aI383
aI384
aI385
aI386
aI387
aI388
aI389
aI390
aI391
aI392
aI393
aI394
aI395
aI396
aI397
aI398
aI399
aI400
aI401
aI402
aI403
aI404
aI405
aI406
aI407
aI408
aI409
aI410
aI411
aI412
aI413
aI414
aI415
aI416
aI417
aI418
aI419
aI420
aI421
aI422
aI423
aI424
aI425
aI426
aI427
aI428
aI429
aI430
aI431
aI432
aI433
aI434
aI435
aI436
aI437
aI438
aI439
aI440
aI441
aI442
aI443
aI444
aI445
aI446
aI447
aI448
aI449
aI450
aI451
aI452
aI453
aI454
aI455
aI456
aI457
aI458
aI459
aI460
aI461
aI462
aI463
aI464
aI465
aI466
aI467
aI468
aI469
aI470
aI471
aI472
aI473
aI474
aI475
aI476
aI477
aI478
aI479
aI480
aI481
aI482
aI483
aI484
aI485
aI486
aI487
aI488
aI489
aI490
aI491
aI492
aI493
aI494
aI495
aI496
aI497
aI498
aI499
aI500
aI501
aI502
aI503
aI504
aI505
aI506
aI507
aI508
aI509
aI510
aI511
aI512
aI513
aI514
aI515
aI516
aI517
aI518
aI519
aI520
aI521
aI522
aI523
aI524
aI525
aI526
aI527
aI528
aI529
aI530
aI531
aI532
aI533
aI534
aI535
aI536
aI537
aI538
aI539
aI540
aI541
aI542
aI543
aI544
aI545
aI546
aI547
aI548
aI549
aI550
aI551
aI552
aI553
aI554
aI555
aI556
aI557
aI558
aI559
aI560
aI561
aI562
aI563
aI564
aI565
aI566
aI567
aI568
aI569
aI570
aI571
aI572
aI573
aI574
aI575
aI576
aI577
aI578
aI579
aI580
aI581
aI582
aI583
aI584
aI585
aI586
aI587
aI588
aI589
aI590
aI591
aI592
aI593
aI594
aI595
aI596
aI597
aI598
aI599
asg78
Nsg79
cnumpy.core.multiarray
scalar
p4845
(g4843
S'@\x00\x00\x00'
tRp4846
sg80
I600
sg81
I0
sg82
I600
sg83
I01
sbag36
asS'savePickle'
p4847
I00
sb.