ccopy_reg
_reconstructor
p1
(cpsychopy.data
ExperimentHandler
p2
c__builtin__
object
p3
NtRp4
(dp5
S'originPath'
p6
NsS'dataFileName'
p7
Vsubject825
p8
sS'runtimeInfo'
p9
NsS'name'
p10
VVERBALRBsubject 825
p11
sS'dataNames'
p12
(lp13
S'Block Number'
p14
aS'Key pressed'
p15
aS'Category'
p16
aS'Correct?'
p17
aS'Int Match?'
p18
aS'Int Response'
p19
aS'Int Correct?'
p20
aS'Line Accuracy'
p21
aS'Interference Accuracy'
p22
aS'Matching Interferences'
p23
aS'New instruction shown?'
p24
aS'Buttons switched?'
p25
aS'Fast?'
p26
asS'autoLog'
p27
I01
sS'extraInfo'
p28
(dp29
S'gender'
p30
VFemale
p31
sS'age'
p32
V18
p33
ssS'loopsUnfinished'
p34
(lp35
g1
(cpsychopy.data
TrialHandler
p36
g3
NtRp37
(dp38
S'origin'
p39
NsS'thisTrial'
p40
I5
sS'_exp'
p41
I79799280
sg10
S''
sg6
S'C:\\Users\\Mike\\Desktop\\Dual2\\NEWSpatialii.py'
p42
sS'thisRepN'
p43
I39
sg27
I01
sg28
NsS'data'
p44
g1
(cpsychopy.data
DataHandler
p45
c__builtin__
dict
p46
(dp47
S'ran'
p48
cnumpy.ma.core
_mareconstruct
p49
(cnumpy.ma.core
MaskedArray
p50
cnumpy
ndarray
p51
(I0
tp52
S'b'
tRp53
(I1
(I15
I40
tcnumpy
dtype
p54
(S'f4'
I0
I1
tRp55
(I3
S'<'
NNNI-1
I-1
I0
tbI00
S'\x00\x00\x80?\x00\x00\x80?\x00\x00\x80?\x00\x00\x80?\x00\x00\x80?\x00\x00\x80?\x00\x00\x80?\x00\x00\x80?\x00\x00\x80?\x00\x00\x80?\x00\x00\x80?\x00\x00\x80?\x00\x00\x80?\x00\x00\x80?\x00\x00\x80?\x00\x00\x80?\x00\x00\x80?\x00\x00\x80?\x00\x00\x80?\x00\x00\x80?\x00\x00\x80?\x00\x00\x80?\x00\x00\x80?\x00\x00\x80?\x00\x00\x80?\x00\x00\x80?\x00\x00\x80?\x00\x00\x80?\x00\x00\x80?\x00\x00\x80?\x00\x00\x80?\x00\x00\x80?\x00\x00\x80?\x00\x00\x80?\x00\x00\x80?\x00\x00\x80?\x00\x00\x80?\x00\x00\x80?\x00\x00\x80?\x00\x00\x80?\x00\x00\x80?\x00\x00\x80?\x00\x00\x80?\x00\x00\x80?\x00\x00\x80?\x00\x00\x80?\x00\x00\x80?\x00\x00\x80?\x00\x00\x80?\x00\x00\x80?\x00\x00\x80?\x00\x00\x80?\x00\x00\x80?\x00\x00\x80?\x00\x00\x80?\x00\x00\x80?\x00\x00\x80?\x00\x00\x80?\x00\x00\x80?\x00\x00\x80?\x00\x00\x80?\x00\x00\x80?\x00\x00\x80?\x00\x00\x80?\x00\x00\x80?\x00\x00\x80?\x00\x00\x80?\x00\x00\x80?\x00\x00\x80?\x00\x00\x80?\x00\x00\x80?\x00\x00\x80?\x00\x00\x80?\x00\x00\x80?\x00\x00\x80?\x00\x00\x80?\x00\x00\x80?\x00\x00\x80?\x00\x00\x80?\x00\x00\x80?\x00\x00\x80?\x00\x00\x80?\x00\x00\x80?\x00\x00\x80?\x00\x00\x80?\x00\x00\x80?\x00\x00\x80?\x00\x00\x80?\x00\x00\x80?\x00\x00\x80?\x00\x00\x80?\x00\x00\x80?\x00\x00\x80?\x00\x00\x80?\x00\x00\x80?\x00\x00\x80?\x00\x00\x80?\x00\x00\x80?\x00\x00\x80?\x00\x00\x80?\x00\x00\x80?\x00\x00\x80?\x00\x00\x80?\x00\x00\x80?\x00\x00\x80?\x00\x00\x80?\x00\x00\x80?\x00\x00\x80?\x00\x00\x80?\x00\x00\x80?\x00\x00\x80?\x00\x00\x80?\x00\x00\x80?\x00\x00\x80?\x00\x00\x80?\x00\x00\x80?\x00\x00\x80?\x00\x00\x80?\x00\x00\x80?\x00\x00\x80?\x00\x00\x80?\x00\x00\x80?\x00\x00\x80?\x00\x00\x80?\x00\x00\x80?\x00\x00\x80?\x00\x00\x80?\x00\x00\x80?\x00\x00\x80?\x00\x00\x80?\x00\x00\x80?\x00\x00\x80?\x00\x00\x80?\x00\x00\x80?\x00\x00\x80?\x00\x00\x80?\x00\x00\x80?\x00\x00\x80?\x00\x00\x80?\x00\x00\x80?\x00\x00\x80?\x00\x00\x80?\x00\x00\x80?\x00\x00\x80?\x00\x00\x80?\x00\x00\x80?\x00\x00\x80?\x00\x00\x80?\x00\x00\x80?\x00\x00\x80?\x00\x00\x80?\x00\x00\x80?\x00\x00\x80?\x00\x00\x80?\x00\x00\x80?\x00\x00\x80?\x00\x00\x80?\x00\x00\x80?\x00\x00\x80?\x00\x00\x80?\x00\x00\x80?\x00\x00\x80?\x00\x00\x80?\x00\x00\x80?\x00\x00\x80?\x00\x00\x80?\x00\x00\x80?\x00\x00\x80?\x00\x00\x80?\x00\x00\x80?\x00\x00\x80?\x00\x00\x80?\x00\x00\x80?\x00\x00\x80?\x00\x00\x80?\x00\x00\x80?\x00\x00\x80?\x00\x00\x80?\x00\x00\x80?\x00\x00\x80?\x00\x00\x80?\x00\x00\x80?\x00\x00\x80?\x00\x00\x80?\x00\x00\x80?\x00\x00\x80?\x00\x00\x80?\x00\x00\x80?\x00\x00\x80?\x00\x00\x80?\x00\x00\x80?\x00\x00\x80?\x00\x00\x80?\x00\x00\x80?\x00\x00\x80?\x00\x00\x80?\x00\x00\x80?\x00\x00\x80?\x00\x00\x80?\x00\x00\x80?\x00\x00\x80?\x00\x00\x80?\x00\x00\x80?\x00\x00\x80?\x00\x00\x80?\x00\x00\x80?\x00\x00\x80?\x00\x00\x80?\x00\x00\x80?\x00\x00\x80?\x00\x00\x80?\x00\x00\x80?\x00\x00\x80?\x00\x00\x80?\x00\x00\x80?\x00\x00\x80?\x00\x00\x80?\x00\x00\x80?\x00\x00\x80?\x00\x00\x80?\x00\x00\x80?\x00\x00\x80?\x00\x00\x80?\x00\x00\x80?\x00\x00\x80?\x00\x00\x80?\x00\x00\x80?\x00\x00\x80?\x00\x00\x80?\x00\x00\x80?\x00\x00\x80?\x00\x00\x80?\x00\x00\x80?\x00\x00\x80?\x00\x00\x80?\x00\x00\x80?\x00\x00\x80?\x00\x00\x80?\x00\x00\x80?\x00\x00\x80?\x00\x00\x80?\x00\x00\x80?\x00\x00\x80?\x00\x00\x80?\x00\x00\x80?\x00\x00\x80?\x00\x00\x80?\x00\x00\x80?\x00\x00\x80?\x00\x00\x80?\x00\x00\x80?\x00\x00\x80?\x00\x00\x80?\x00\x00\x80?\x00\x00\x80?\x00\x00\x80?\x00\x00\x80?\x00\x00\x80?\x00\x00\x80?\x00\x00\x80?\x00\x00\x80?\x00\x00\x80?\x00\x00\x80?\x00\x00\x80?\x00\x00\x80?\x00\x00\x80?\x00\x00\x80?\x00\x00\x80?\x00\x00\x80?\x00\x00\x80?\x00\x00\x80?\x00\x00\x80?\x00\x00\x80?\x00\x00\x80?\x00\x00\x80?\x00\x00\x80?\x00\x00\x80?\x00\x00\x80?\x00\x00\x80?\x00\x00\x80?\x00\x00\x80?\x00\x00\x80?\x00\x00\x80?\x00\x00\x80?\x00\x00\x80?\x00\x00\x80?\x00\x00\x80?\x00\x00\x80?\x00\x00\x80?\x00\x00\x80?\x00\x00\x80?\x00\x00\x80?\x00\x00\x80?\x00\x00\x80?\x00\x00\x80?\x00\x00\x80?\x00\x00\x80?\x00\x00\x80?\x00\x00\x80?\x00\x00\x80?\x00\x00\x80?\x00\x00\x80?\x00\x00\x80?\x00\x00\x80?\x00\x00\x80?\x00\x00\x80?\x00\x00\x80?\x00\x00\x80?\x00\x00\x80?\x00\x00\x80?\x00\x00\x80?\x00\x00\x80?\x00\x00\x80?\x00\x00\x80?\x00\x00\x80?\x00\x00\x80?\x00\x00\x80?\x00\x00\x80?\x00\x00\x80?\x00\x00\x80?\x00\x00\x80?\x00\x00\x80?\x00\x00\x80?\x00\x00\x80?\x00\x00\x80?\x00\x00\x80?\x00\x00\x80?\x00\x00\x80?\x00\x00\x80?\x00\x00\x80?\x00\x00\x80?\x00\x00\x80?\x00\x00\x80?\x00\x00\x80?\x00\x00\x80?\x00\x00\x80?\x00\x00\x80?\x00\x00\x80?\x00\x00\x80?\x00\x00\x80?\x00\x00\x80?\x00\x00\x80?\x00\x00\x80?\x00\x00\x80?\x00\x00\x80?\x00\x00\x80?\x00\x00\x80?\x00\x00\x80?\x00\x00\x80?\x00\x00\x80?\x00\x00\x80?\x00\x00\x80?\x00\x00\x80?\x00\x00\x80?\x00\x00\x80?\x00\x00\x80?\x00\x00\x80?\x00\x00\x80?\x00\x00\x80?\x00\x00\x80?\x00\x00\x80?\x00\x00\x80?\x00\x00\x80?\x00\x00\x80?\x00\x00\x80?\x00\x00\x80?\x00\x00\x80?\x00\x00\x80?\x00\x00\x80?\x00\x00\x80?\x00\x00\x80?\x00\x00\x80?\x00\x00\x80?\x00\x00\x80?\x00\x00\x80?\x00\x00\x80?\x00\x00\x80?\x00\x00\x80?\x00\x00\x80?\x00\x00\x80?\x00\x00\x80?\x00\x00\x80?\x00\x00\x80?\x00\x00\x80?\x00\x00\x80?\x00\x00\x80?\x00\x00\x80?\x00\x00\x80?\x00\x00\x80?\x00\x00\x80?\x00\x00\x80?\x00\x00\x80?\x00\x00\x80?\x00\x00\x80?\x00\x00\x80?\x00\x00\x80?\x00\x00\x80?\x00\x00\x80?\x00\x00\x80?\x00\x00\x80?\x00\x00\x80?\x00\x00\x80?\x00\x00\x80?\x00\x00\x80?\x00\x00\x80?\x00\x00\x80?\x00\x00\x80?\x00\x00\x80?\x00\x00\x80?\x00\x00\x80?\x00\x00\x80?\x00\x00\x80?\x00\x00\x80?\x00\x00\x80?\x00\x00\x80?\x00\x00\x80?\x00\x00\x80?\x00\x00\x80?\x00\x00\x80?\x00\x00\x80?\x00\x00\x80?\x00\x00\x80?\x00\x00\x80?\x00\x00\x80?\x00\x00\x80?\x00\x00\x80?\x00\x00\x80?\x00\x00\x80?\x00\x00\x80?\x00\x00\x80?\x00\x00\x80?\x00\x00\x80?\x00\x00\x80?\x00\x00\x80?\x00\x00\x80?\x00\x00\x80?\x00\x00\x80?\x00\x00\x80?\x00\x00\x80?\x00\x00\x80?\x00\x00\x80?\x00\x00\x80?\x00\x00\x80?\x00\x00\x80?\x00\x00\x80?\x00\x00\x80?\x00\x00\x80?\x00\x00\x80?\x00\x00\x80?\x00\x00\x80?\x00\x00\x80?\x00\x00\x80?\x00\x00\x80?\x00\x00\x80?\x00\x00\x80?\x00\x00\x80?\x00\x00\x80?\x00\x00\x80?\x00\x00\x80?\x00\x00\x80?\x00\x00\x80?\x00\x00\x80?\x00\x00\x80?\x00\x00\x80?\x00\x00\x80?\x00\x00\x80?\x00\x00\x80?\x00\x00\x80?\x00\x00\x80?\x00\x00\x80?\x00\x00\x80?\x00\x00\x80?\x00\x00\x80?\x00\x00\x80?\x00\x00\x80?\x00\x00\x80?\x00\x00\x80?\x00\x00\x80?\x00\x00\x80?\x00\x00\x80?\x00\x00\x80?\x00\x00\x80?\x00\x00\x80?\x00\x00\x80?\x00\x00\x80?\x00\x00\x80?\x00\x00\x80?\x00\x00\x80?\x00\x00\x80?\x00\x00\x80?\x00\x00\x80?\x00\x00\x80?\x00\x00\x80?\x00\x00\x80?\x00\x00\x80?\x00\x00\x80?\x00\x00\x80?\x00\x00\x80?\x00\x00\x80?\x00\x00\x80?\x00\x00\x80?\x00\x00\x80?\x00\x00\x80?\x00\x00\x80?\x00\x00\x80?\x00\x00\x80?\x00\x00\x80?\x00\x00\x80?\x00\x00\x80?\x00\x00\x80?\x00\x00\x80?\x00\x00\x80?\x00\x00\x80?\x00\x00\x80?\x00\x00\x80?\x00\x00\x80?\x00\x00\x80?\x00\x00\x80?\x00\x00\x80?\x00\x00\x80?\x00\x00\x80?\x00\x00\x80?\x00\x00\x80?\x00\x00\x80?\x00\x00\x80?\x00\x00\x80?\x00\x00\x80?\x00\x00\x80?\x00\x00\x80?\x00\x00\x80?\x00\x00\x80?\x00\x00\x80?\x00\x00\x80?\x00\x00\x80?\x00\x00\x80?\x00\x00\x80?\x00\x00\x80?\x00\x00\x80?\x00\x00\x80?\x00\x00\x80?\x00\x00\x80?\x00\x00\x80?\x00\x00\x80?\x00\x00\x80?\x00\x00\x80?\x00\x00\x80?\x00\x00\x80?\x00\x00\x80?\x00\x00\x80?\x00\x00\x80?\x00\x00\x80?\x00\x00\x80?\x00\x00\x80?\x00\x00\x80?\x00\x00\x80?\x00\x00\x80?\x00\x00\x80?\x00\x00\x80?\x00\x00\x80?\x00\x00\x80?\x00\x00\x80?\x00\x00\x80?\x00\x00\x80?\x00\x00\x80?\x00\x00\x80?\x00\x00\x80?\x00\x00\x80?\x00\x00\x80?\x00\x00\x80?\x00\x00\x80?\x00\x00\x80?\x00\x00\x80?\x00\x00\x80?\x00\x00\x80?\x00\x00\x80?\x00\x00\x80?\x00\x00\x80?\x00\x00\x80?\x00\x00\x80?\x00\x00\x80?\x00\x00\x80?\x00\x00\x80?\x00\x00\x80?\x00\x00\x80?\x00\x00\x80?\x00\x00\x80?\x00\x00\x80?\x00\x00\x80?\x00\x00\x80?\x00\x00\x80?\x00\x00\x80?\x00\x00\x80?\x00\x00\x80?\x00\x00\x80?\x00\x00\x80?\x00\x00\x80?\x00\x00\x80?\x00\x00\x80?\x00\x00\x80?\x00\x00\x80?'
S'\x00\x00\x00\x00\x00\x00\x00\x00\x00\x00\x00\x00\x00\x00\x00\x00\x00\x00\x00\x00\x00\x00\x00\x00\x00\x00\x00\x00\x00\x00\x00\x00\x00\x00\x00\x00\x00\x00\x00\x00\x00\x00\x00\x00\x00\x00\x00\x00\x00\x00\x00\x00\x00\x00\x00\x00\x00\x00\x00\x00\x00\x00\x00\x00\x00\x00\x00\x00\x00\x00\x00\x00\x00\x00\x00\x00\x00\x00\x00\x00\x00\x00\x00\x00\x00\x00\x00\x00\x00\x00\x00\x00\x00\x00\x00\x00\x00\x00\x00\x00\x00\x00\x00\x00\x00\x00\x00\x00\x00\x00\x00\x00\x00\x00\x00\x00\x00\x00\x00\x00\x00\x00\x00\x00\x00\x00\x00\x00\x00\x00\x00\x00\x00\x00\x00\x00\x00\x00\x00\x00\x00\x00\x00\x00\x00\x00\x00\x00\x00\x00\x00\x00\x00\x00\x00\x00\x00\x00\x00\x00\x00\x00\x00\x00\x00\x00\x00\x00\x00\x00\x00\x00\x00\x00\x00\x00\x00\x00\x00\x00\x00\x00\x00\x00\x00\x00\x00\x00\x00\x00\x00\x00\x00\x00\x00\x00\x00\x00\x00\x00\x00\x00\x00\x00\x00\x00\x00\x00\x00\x00\x00\x00\x00\x00\x00\x00\x00\x00\x00\x00\x00\x00\x00\x00\x00\x00\x00\x00\x00\x00\x00\x00\x00\x00\x00\x00\x00\x00\x00\x00\x00\x00\x00\x00\x00\x00\x00\x00\x00\x00\x00\x00\x00\x00\x00\x00\x00\x00\x00\x00\x00\x00\x00\x00\x00\x00\x00\x00\x00\x00\x00\x00\x00\x00\x00\x00\x00\x00\x00\x00\x00\x00\x00\x00\x00\x00\x00\x00\x00\x00\x00\x00\x00\x00\x00\x00\x00\x00\x00\x00\x00\x00\x00\x00\x00\x00\x00\x00\x00\x00\x00\x00\x00\x00\x00\x00\x00\x00\x00\x00\x00\x00\x00\x00\x00\x00\x00\x00\x00\x00\x00\x00\x00\x00\x00\x00\x00\x00\x00\x00\x00\x00\x00\x00\x00\x00\x00\x00\x00\x00\x00\x00\x00\x00\x00\x00\x00\x00\x00\x00\x00\x00\x00\x00\x00\x00\x00\x00\x00\x00\x00\x00\x00\x00\x00\x00\x00\x00\x00\x00\x00\x00\x00\x00\x00\x00\x00\x00\x00\x00\x00\x00\x00\x00\x00\x00\x00\x00\x00\x00\x00\x00\x00\x00\x00\x00\x00\x00\x00\x00\x00\x00\x00\x00\x00\x00\x00\x00\x00\x00\x00\x00\x00\x00\x00\x00\x00\x00\x00\x00\x00\x00\x00\x00\x00\x00\x00\x00\x00\x00\x00\x00\x00\x00\x00\x00\x00\x00\x00\x00\x00\x00\x00\x00\x00\x00\x00\x00\x00\x00\x00\x00\x00\x00\x00\x00\x00\x00\x00\x00\x00\x00\x00\x00\x00\x00\x00\x00\x00\x00\x00\x00\x00\x00\x00\x00\x00\x00\x00\x00\x00\x00\x00\x00\x00\x00\x00\x00\x00\x00\x00\x00\x00\x00\x00\x00\x00\x00\x00\x00\x00\x00\x00\x00\x00\x00\x00\x00\x00\x00\x00\x00\x00\x00\x00\x00\x00\x00\x00\x00\x00\x00\x00\x00\x00\x00\x00\x00\x00\x00\x00\x00\x00\x00\x00\x00\x00\x00\x00\x00\x00\x00\x00\x00\x00\x00\x00\x00\x00\x00\x00\x00\x00\x00\x00\x00\x00\x00\x00\x00\x00\x00\x00\x00\x00\x00\x00\x00\x00\x00\x00\x00\x00\x00\x00\x00\x00\x00\x00\x00\x00\x00\x00\x00\x00\x00\x00\x00\x00\x00'
NtbsS'order'
p56
g49
(g50
g51
g52
S'b'
tRp57
(I1
(I15
I40
tg55
I00
S'\x00\x00\xe0A\x00\x00\x08B\x00\x00\xb6B\x00\x00\xe0B\x00\x00\x12C\x00\x00%C\x00\x003C\x00\x00BC\x00\x00GC\x00\x00JC\x00\x00kC\x00\x00lC\x00\x00rC\x00\x00uC\x00\x00|C\x00\x00\x82C\x00\x00\x8cC\x00\x00\x91C\x00\x00\x96C\x00\x00\x9fC\x00\x00\xa6C\x00\x00\xa8C\x00\x80\xa8C\x00\x00\xb0C\x00\x80\xb6C\x00\x80\xbbC\x00\x80\xbfC\x00\x00\xc0C\x00\x80\xdaC\x00\x00\xdcC\x00\x00\xe9C\x00\x00\xedC\x00\x80\x04D\x00\xc0\x04D\x00\x00\x06D\x00@\x08D\x00\x80\nD\x00@\x0cD\x00\xc0\x0eD\x00\xc0\x11D\x00\x00\x14B\x00\x00 B\x00\x00HB\x00\x00lB\x00\x00\x82B\x00\x00\xf4B\x00\x00\xfaB\x00\x00\nC\x00\x00\x16C\x00\x00\x1eC\x00\x00\'C\x00\x008C\x00\x00<C\x00\x00NC\x00\x00bC\x00\x00eC\x00\x00hC\x00\x00jC\x00\x00sC\x00\x00xC\x00\x00\x88C\x00\x80\x9dC\x00\x00\xaaC\x00\x00\xbaC\x00\x00\xc6C\x00\x00\xceC\x00\x80\xd0C\x00\x80\xd3C\x00\x00\xd9C\x00\x80\xdcC\x00\x80\xeaC\x00\x00\xefC\x00\x80\xf6C\x00\x00\xf7C\x00\x80\xfeC\x00\x00\xffC\x00\x80\x02D\x00\xc0\x06D\x00@\rD\x00\xc0\x13D\x00\x00\x00A\x00\x00\xa0A\x00\x00\xc0A\x00\x00\x18B\x00\x00LB\x00\x00|B\x00\x00\xb2B\x00\x00\xc8B\x00\x00\xdcB\x00\x00\xfeB\x00\x00\x01C\x00\x00\x03C\x00\x00\x05C\x00\x00\tC\x00\x00\x10C\x00\x00CC\x00\x00DC\x00\x00cC\x00\x00~C\x00\x80\x8aC\x00\x80\x8dC\x00\x80\x8eC\x00\x00\x90C\x00\x00\x93C\x00\x80\x98C\x00\x80\xacC\x00\x00\xaeC\x00\x80\xceC\x00\x80\xd2C\x00\x80\xd4C\x00\x00\xd7C\x00\x00\xe4C\x00\x80\xe4C\x00\x00\xeaC\x00\x80\xf1C\x00\x80\xf7C\x00\x80\x05D\x00\x80\x0fD\x00@\x13D\x00@\x14D\x00\x00\xb8A\x00\x00\xc8A\x00\x00\xd8A\x00\x00\xe8A\x00\x00$B\x00\x00\xa2B\x00\x00\xacB\x00\x00\xb0B\x00\x00\xd8B\x00\x00\xe4B\x00\x00\x0bC\x00\x00\x0fC\x00\x00\x1fC\x00\x00#C\x00\x00UC\x00\x00nC\x00\x00qC\x00\x00yC\x00\x00\x89C\x00\x80\x9bC\x00\x80\xa3C\x00\x80\xa7C\x00\x00\xacC\x00\x80\xb3C\x00\x00\xbdC\x00\x00\xc2C\x00\x00\xc8C\x00\x00\xdaC\x00\x80\xe9C\x00\x00\xeeC\x00\x00\xf0C\x00\x00\xf4C\x00\x80\xf9C\x00\x80\xfaC\x00@\x03D\x00@\x05D\x00\xc0\nD\x00\x00\x0eD\x00\x80\x14D\x00\x00\x15D\x00\x00PA\x00\x000B\x00\x008B\x00\x00\x8aB\x00\x00\x98B\x00\x00\xa0B\x00\x00\xb4B\x00\x00\xeaB\x00\x00\xfcB\x00\x00\x07C\x00\x00\x15C\x00\x00"C\x00\x00$C\x00\x00&C\x00\x00KC\x00\x00ZC\x00\x00}C\x00\x80\x85C\x00\x00\xa1C\x00\x00\xa2C\x00\x80\xa5C\x00\x80\xaaC\x00\x00\xadC\x00\x80\xb2C\x00\x00\xb5C\x00\x00\xb9C\x00\x00\xbbC\x00\x80\xc5C\x00\x00\xc9C\x00\x80\xcaC\x00\x00\xd0C\x00\x00\xd4C\x00\x00\xdbC\x00\x00\xdfC\x00\x80\xe7C\x00\x00\xf2C\x00\xc0\x02D\x00\x80\x03D\x00\x00\tD\x00@\x11D\x00\x00 A\x00\x00\xf0A\x00\x00DB\x00\x00\\B\x00\x00\x86B\x00\x00\x88B\x00\x00\xeeB\x00\x00\x14C\x00\x001C\x00\x00?C\x00\x00PC\x00\x00WC\x00\x00XC\x00\x00]C\x00\x00aC\x00\x00mC\x00\x00zC\x00\x80\x83C\x00\x80\x8cC\x00\x00\x97C\x00\x80\x9aC\x00\x80\x9fC\x00\x00\xa0C\x00\x80\xa0C\x00\x00\xafC\x00\x00\xbcC\x00\x80\xbeC\x00\x00\xbfC\x00\x80\xc8C\x00\x80\xcfC\x00\x80\xd6C\x00\x80\xd9C\x00\x80\xdbC\x00\x80\xf8C\x00\x00\xf9C\x00@\x04D\x00\x00\x08D\x00\xc0\tD\x00\x80\rD\x00\xc0\x15D\x00\x00\x0cB\x00\x00\x10B\x00\x00@B\x00\x00`B\x00\x00hB\x00\x00\x8eB\x00\x00\xaeB\x00\x00\xbaB\x00\x00\xccB\x00\x00\x18C\x00\x00\x1dC\x00\x00 C\x00\x00(C\x00\x00/C\x00\x002C\x00\x00`C\x00\x80\x80C\x00\x80\x81C\x00\x80\x89C\x00\x00\x8bC\x00\x00\x9dC\x00\x80\xa2C\x00\x00\xb3C\x00\x80\xbdC\x00\x80\xc0C\x00\x00\xc7C\x00\x80\xc9C\x00\x00\xcaC\x00\x00\xcdC\x00\x00\xd1C\x00\x80\xe5C\x00\x80\xf5C\x00\x00\xf6C\x00\x80\xfbC\x00\x00\x00D\x00\x00\x01D\x00\xc0\x01D\x00\x00\x04D\x00\x80\x08D\x00@\x12D\x00\x00\x80@\x00\x00\x90A\x00\x00\x98A\x00\x00\xa8A\x00\x00dB\x00\x00\xa4B\x00\x00\xd4B\x00\x00\xe6B\x00\x00\xe8B\x00\x005C\x00\x00@C\x00\x00FC\x00\x00RC\x00\x00YC\x00\x00iC\x00\x00wC\x00\x80\x82C\x00\x00\x87C\x00\x80\x87C\x00\x80\x90C\x00\x80\x92C\x00\x80\x94C\x00\x00\x95C\x00\x80\x95C\x00\x00\x9aC\x00\x00\x9bC\x00\x80\xa1C\x00\x80\xafC\x00\x80\xb8C\x00\x80\xc4C\x00\x80\xdeC\x00\x80\xe6C\x00\x80\xefC\x00\x00\xf1C\x00\x80\xf3C\x00\x80\xf4C\x00\x00\xfaC\x00\x80\xffC\x00\x80\x0eD\x00\x00\x0fD\x00\x00\xc0@\x00\x00XB\x00\x00\x84B\x00\x00\xa8B\x00\x00\xbcB\x00\x00\xbeB\x00\x00\xd0B\x00\x00\xdaB\x00\x00\x02C\x00\x00\rC\x00\x00\x1bC\x00\x00IC\x00\x00OC\x00\x00VC\x00\x00dC\x00\x00\x7fC\x00\x00\x8dC\x00\x00\x92C\x00\x00\x9cC\x00\x00\xb4C\x00\x00\xb7C\x00\x80\xc1C\x00\x00\xcbC\x00\x00\xccC\x00\x80\xd1C\x00\x00\xd8C\x00\x80\xddC\x00\x80\xe3C\x00\x80\xf0C\x00\x00\xf8C\x00\x00\xfbC\x00\xc0\x05D\x00@\x06D\x00\x00\x07D\x00\xc0\x07D\x00@\x0eD\x00\x00\x10D\x00\xc0\x10D\x00\xc0\x12D\x00\x80\x13D\x00\x000A\x00\x00`A\x00\x00\xb0A\x00\x00xB\x00\x00\x90B\x00\x00\x94B\x00\x00\xa6B\x00\x00\xb8B\x00\x00\xc6B\x00\x00\xceB\x00\x00\x13C\x00\x00\x1aC\x00\x000C\x00\x00\\C\x00\x00\x81C\x00\x00\x84C\x00\x80\x8bC\x00\x80\x93C\x00\x80\x96C\x00\x80\xa4C\x00\x80\xadC\x00\x00\xb8C\x00\x80\xccC\x00\x80\xd5C\x00\x00\xddC\x00\x80\xe1C\x00\x00\xe3C\x00\x00\xe6C\x00\x80\xe8C\x00\x80\xebC\x00\x80\xecC\x00\x80\xedC\x00\x80\xf2C\x00@\x00D\x00\x00\rD\x00\xc0\x0fD\x00@\x10D\x00\x80\x10D\x00\x00\x12D\x00\xc0\x14D\x00\x00\xa0@\x00\x00\x10A\x00\x00\xd0A\x00\x00\x1cB\x00\x00(B\x00\x004B\x00\x00tB\x00\x00\x8cB\x00\x00\x96B\x00\x00\xc0B\x00\x00\xd6B\x00\x00!C\x00\x006C\x00\x009C\x00\x00;C\x00\x00^C\x00\x00{C\x00\x00\x86C\x00\x00\x8fC\x00\x80\x9eC\x00\x00\xa3C\x00\x00\xa4C\x00\x00\xb6C\x00\x80\xb7C\x00\x00\xc1C\x00\x80\xc2C\x00\x80\xc6C\x00\x80\xc7C\x00\x00\xd2C\x00\x80\xdfC\x00\x00\xe2C\x00\x00\xe7C\x00\x00\xfdC\x00\x00\x05D\x00@\x07D\x00\xc0\x0bD\x00\x80\x0cD\x00\x80\x12D\x00\x00\x14D\x00@\x15D\x00\x00\x00\x00\x00\x00\xe0@\x00\x00<B\x00\x00pB\x00\x00\x9eB\x00\x00\xc4B\x00\x00\xf0B\x00\x00\xf6B\x00\x00\xf8B\x00\x00\x04C\x00\x00\x17C\x00\x00\x19C\x00\x00)C\x00\x00,C\x00\x00EC\x00\x00[C\x00\x00pC\x00\x80\x86C\x00\x80\x88C\x00\x00\x8eC\x00\x80\x8fC\x00\x00\x98C\x00\x80\xabC\x00\x80\xaeC\x00\x00\xb1C\x00\x80\xb1C\x00\x80\xb4C\x00\x80\xbcC\x00\x80\xcdC\x00\x00\xcfC\x00\x00\xd6C\x00\x00\xe1C\x00\x00\xe5C\x00\x00\xecC\x00\x80\x01D\x00\x00\x03D\x00\xc0\x03D\x00\x80\tD\x00\x00\x0cD\x00\x80\x15D\x00\x00\x00@\x00\x00\x80A\x00\x00,B\x00\x00PB\x00\x00\x92B\x00\x00\x9aB\x00\x00\xcaB\x00\x00\xe2B\x00\x00\xf2B\x00\x00\x00C\x00\x00\x08C\x00\x00*C\x00\x00+C\x00\x004C\x00\x00_C\x00\x00fC\x00\x00\x94C\x00\x80\x99C\x00\x00\x9eC\x00\x80\xa6C\x00\x00\xabC\x00\x80\xb0C\x00\x00\xb2C\x00\x80\xb5C\x00\x00\xc3C\x00\x00\xc5C\x00\x80\xcbC\x00\x00\xd3C\x00\x00\xdeC\x00\x00\xe8C\x00\x00\xf3C\x00\x00\xfeC\x00\xc0\x00D\x00@\x01D\x00\x80\x06D\x00\x80\x07D\x00\xc0\x08D\x00@\tD\x00\x00\nD\x00\x80\x11D\x00\x00@@\x00\x00@A\x00\x00pA\x00\x00\x00B\x00\x00TB\x00\x00\x9cB\x00\x00\xaaB\x00\x00\xd2B\x00\x00\xecB\x00\x00\x06C\x00\x00\x1cC\x00\x00-C\x00\x00.C\x00\x007C\x00\x00:C\x00\x00=C\x00\x00LC\x00\x00MC\x00\x00QC\x00\x00SC\x00\x00TC\x00\x00tC\x00\x00vC\x00\x00\x83C\x00\x00\x85C\x00\x80\x91C\x00\x80\x97C\x00\x80\xbaC\x00\x00\xbeC\x00\x80\xd8C\x00\x00\xe0C\x00\x80\xe2C\x00\x00\xebC\x00\x00\xf5C\x00@\x02D\x00@\x0bD\x00\x80\x0bD\x00@\x0fD\x00\x00\x11D\x00\x00\x13D\x00\x00\x80?\x00\x00\x88A\x00\x00\xf8A\x00\x00\x04B\x00\x00\x80B\x00\x00\xc2B\x00\x00\xdeB\x00\x00\x0cC\x00\x00\x0eC\x00\x00\x11C\x00\x00>C\x00\x00AC\x00\x00HC\x00\x00gC\x00\x00oC\x00\x00\x80C\x00\x80\x84C\x00\x00\x8aC\x00\x00\x99C\x00\x80\x9cC\x00\x00\xa5C\x00\x00\xa7C\x00\x00\xa9C\x00\x80\xa9C\x00\x80\xb9C\x00\x80\xc3C\x00\x00\xc4C\x00\x00\xd5C\x00\x80\xd7C\x00\x80\xe0C\x00\x80\xeeC\x00\x00\xfcC\x00\x80\xfcC\x00\x80\xfdC\x00\x80\x00D\x00\x00\x02D\x00@\nD\x00\x00\x0bD\x00\xc0\x0cD\x00\xc0\rD'
S'\x00\x00\x00\x00\x00\x00\x00\x00\x00\x00\x00\x00\x00\x00\x00\x00\x00\x00\x00\x00\x00\x00\x00\x00\x00\x00\x00\x00\x00\x00\x00\x00\x00\x00\x00\x00\x00\x00\x00\x00\x00\x00\x00\x00\x00\x00\x00\x00\x00\x00\x00\x00\x00\x00\x00\x00\x00\x00\x00\x00\x00\x00\x00\x00\x00\x00\x00\x00\x00\x00\x00\x00\x00\x00\x00\x00\x00\x00\x00\x00\x00\x00\x00\x00\x00\x00\x00\x00\x00\x00\x00\x00\x00\x00\x00\x00\x00\x00\x00\x00\x00\x00\x00\x00\x00\x00\x00\x00\x00\x00\x00\x00\x00\x00\x00\x00\x00\x00\x00\x00\x00\x00\x00\x00\x00\x00\x00\x00\x00\x00\x00\x00\x00\x00\x00\x00\x00\x00\x00\x00\x00\x00\x00\x00\x00\x00\x00\x00\x00\x00\x00\x00\x00\x00\x00\x00\x00\x00\x00\x00\x00\x00\x00\x00\x00\x00\x00\x00\x00\x00\x00\x00\x00\x00\x00\x00\x00\x00\x00\x00\x00\x00\x00\x00\x00\x00\x00\x00\x00\x00\x00\x00\x00\x00\x00\x00\x00\x00\x00\x00\x00\x00\x00\x00\x00\x00\x00\x00\x00\x00\x00\x00\x00\x00\x00\x00\x00\x00\x00\x00\x00\x00\x00\x00\x00\x00\x00\x00\x00\x00\x00\x00\x00\x00\x00\x00\x00\x00\x00\x00\x00\x00\x00\x00\x00\x00\x00\x00\x00\x00\x00\x00\x00\x00\x00\x00\x00\x00\x00\x00\x00\x00\x00\x00\x00\x00\x00\x00\x00\x00\x00\x00\x00\x00\x00\x00\x00\x00\x00\x00\x00\x00\x00\x00\x00\x00\x00\x00\x00\x00\x00\x00\x00\x00\x00\x00\x00\x00\x00\x00\x00\x00\x00\x00\x00\x00\x00\x00\x00\x00\x00\x00\x00\x00\x00\x00\x00\x00\x00\x00\x00\x00\x00\x00\x00\x00\x00\x00\x00\x00\x00\x00\x00\x00\x00\x00\x00\x00\x00\x00\x00\x00\x00\x00\x00\x00\x00\x00\x00\x00\x00\x00\x00\x00\x00\x00\x00\x00\x00\x00\x00\x00\x00\x00\x00\x00\x00\x00\x00\x00\x00\x00\x00\x00\x00\x00\x00\x00\x00\x00\x00\x00\x00\x00\x00\x00\x00\x00\x00\x00\x00\x00\x00\x00\x00\x00\x00\x00\x00\x00\x00\x00\x00\x00\x00\x00\x00\x00\x00\x00\x00\x00\x00\x00\x00\x00\x00\x00\x00\x00\x00\x00\x00\x00\x00\x00\x00\x00\x00\x00\x00\x00\x00\x00\x00\x00\x00\x00\x00\x00\x00\x00\x00\x00\x00\x00\x00\x00\x00\x00\x00\x00\x00\x00\x00\x00\x00\x00\x00\x00\x00\x00\x00\x00\x00\x00\x00\x00\x00\x00\x00\x00\x00\x00\x00\x00\x00\x00\x00\x00\x00\x00\x00\x00\x00\x00\x00\x00\x00\x00\x00\x00\x00\x00\x00\x00\x00\x00\x00\x00\x00\x00\x00\x00\x00\x00\x00\x00\x00\x00\x00\x00\x00\x00\x00\x00\x00\x00\x00\x00\x00\x00\x00\x00\x00\x00\x00\x00\x00\x00\x00\x00\x00\x00\x00\x00\x00\x00\x00\x00\x00\x00\x00\x00\x00\x00\x00\x00\x00\x00\x00\x00\x00\x00\x00\x00\x00\x00\x00\x00\x00\x00\x00\x00\x00\x00\x00\x00\x00\x00\x00\x00\x00\x00\x00\x00\x00\x00\x00\x00\x00\x00\x00\x00\x00\x00\x00\x00\x00\x00\x00\x00\x00\x00\x00\x00\x00\x00\x00\x00'
NtbstRp58
(dp59
S'isNumeric'
p60
(dp61
g48
I01
sg56
I01
ssS'trials'
p62
g37
sS'dataTypes'
p63
(lp64
g48
ag56
asS'dataShape'
p65
(lp66
I15
aI40
asbsS'method'
p67
S'fullRandom'
p68
sS'sequenceIndices'
p69
cnumpy.core.multiarray
_reconstruct
p70
(g51
(I0
tS'b'
tRp71
(I1
(I15
I40
tg54
(S'O4'
I0
I1
tRp72
(I3
S'|'
NNNI-1
I-1
I63
tbI00
(lp73
I11
aI13
aI5
aI10
aI11
aI10
aI4
aI13
aI11
aI4
aI1
aI0
aI12
aI2
aI7
aI5
aI11
aI8
aI7
aI2
aI0
aI1
aI14
aI2
aI8
aI0
aI12
aI4
aI10
aI5
aI11
aI9
aI3
aI2
aI1
aI3
aI8
aI3
aI7
aI6
aI14
aI12
aI14
aI4
aI10
aI4
aI0
aI7
aI12
aI12
aI11
aI4
aI7
aI2
aI13
aI1
aI3
aI14
aI7
aI10
aI9
aI12
aI4
aI4
aI11
aI5
aI14
aI8
aI2
aI3
aI9
aI0
aI8
aI8
aI7
aI4
aI10
aI14
aI0
aI10
aI12
aI14
aI13
aI11
aI9
aI12
aI9
aI10
aI1
aI2
aI6
aI1
aI10
aI11
aI13
aI2
aI0
aI6
aI1
aI11
aI5
aI10
aI0
aI9
aI4
aI11
aI14
aI12
aI12
aI0
aI10
aI3
aI7
aI5
aI6
aI11
aI12
aI13
aI7
aI8
aI13
aI7
aI14
aI6
aI2
aI13
aI6
aI3
aI11
aI1
aI11
aI6
aI13
aI7
aI3
aI8
aI1
aI9
aI11
aI2
aI13
aI0
aI12
aI2
aI12
aI3
aI7
aI8
aI1
aI4
aI13
aI2
aI2
aI5
aI9
aI6
aI8
aI13
aI13
aI13
aI7
aI7
aI0
aI5
aI14
aI11
aI8
aI8
aI11
aI3
aI9
aI11
aI1
aI0
aI8
aI1
aI13
aI6
aI3
aI7
aI11
aI5
aI14
aI11
aI10
aI6
aI12
aI9
aI4
aI5
aI9
aI1
aI4
aI3
aI14
aI5
aI5
aI10
aI2
aI2
aI10
aI2
aI6
aI1
aI1
aI4
aI8
aI2
aI1
aI14
aI8
aI12
aI10
aI14
aI5
aI12
aI0
aI0
aI6
aI0
aI2
aI5
aI3
aI5
aI0
aI13
aI4
aI6
aI2
aI0
aI8
aI13
aI9
aI7
aI12
aI0
aI0
aI11
aI9
aI8
aI8
aI7
aI6
aI2
aI8
aI3
aI10
aI14
aI4
aI8
aI13
aI12
aI13
aI8
aI5
aI14
aI13
aI7
aI14
aI13
aI14
aI5
aI0
aI7
aI8
aI5
aI1
aI11
aI14
aI1
aI2
aI9
aI12
aI3
aI6
aI0
aI6
aI0
aI8
aI1
aI11
aI9
aI1
aI12
aI5
aI7
aI14
aI0
aI2
aI14
aI6
aI11
aI10
aI0
aI7
aI1
aI7
aI13
aI2
aI8
aI12
aI4
aI0
aI0
aI10
aI5
aI10
aI1
aI9
aI9
aI2
aI11
aI7
aI8
aI12
aI10
aI12
aI10
aI9
aI10
aI2
aI3
aI2
aI13
aI5
aI9
aI11
aI12
aI12
aI3
aI1
aI13
aI1
aI4
aI4
aI7
aI1
aI5
aI6
aI7
aI7
aI7
aI14
aI12
aI9
aI0
aI6
aI2
aI11
aI8
aI11
aI9
aI3
aI6
aI11
aI3
aI4
aI14
aI9
aI2
aI10
aI2
aI10
aI8
aI4
aI8
aI9
aI3
aI2
aI2
aI3
aI13
aI13
aI13
aI11
aI1
aI3
aI9
aI9
aI2
aI5
aI4
aI14
aI11
aI7
aI0
aI10
aI11
aI5
aI12
aI6
aI0
aI7
aI14
aI6
aI2
aI12
aI9
aI8
aI3
aI5
aI3
aI1
aI5
aI10
aI13
aI2
aI7
aI8
aI14
aI6
aI6
aI14
aI13
aI9
aI0
aI5
aI14
aI0
aI9
aI7
aI6
aI1
aI11
aI4
aI6
aI3
aI5
aI2
aI7
aI9
aI9
aI13
aI14
aI14
aI8
aI11
aI1
aI13
aI9
aI9
aI10
aI3
aI6
aI6
aI3
aI12
aI7
aI2
aI0
aI10
aI9
aI5
aI1
aI5
aI0
aI10
aI13
aI5
aI12
aI3
aI10
aI4
aI12
aI14
aI10
aI5
aI4
aI14
aI4
aI7
aI3
aI6
aI10
aI13
aI0
aI5
aI5
aI4
aI3
aI13
aI3
aI10
aI7
aI9
aI6
aI6
aI4
aI11
aI9
aI4
aI5
aI7
aI8
aI10
aI5
aI0
aI4
aI8
aI7
aI8
aI3
aI12
aI4
aI1
aI8
aI4
aI1
aI8
aI10
aI10
aI14
aI6
aI14
aI1
aI8
aI12
aI14
aI12
aI10
aI4
aI0
aI12
aI6
aI12
aI3
aI9
aI13
aI2
aI5
aI3
aI6
aI14
aI5
aI12
aI3
aI4
aI10
aI2
aI7
aI14
aI10
aI11
aI6
aI13
aI3
aI6
aI6
aI13
aI13
aI4
aI1
aI1
aI12
aI4
aI12
aI14
aI3
aI0
aI11
aI9
aI3
aI4
aI1
aI9
aI2
aI8
aI5
aI13
aI4
aI4
aI0
aI0
aI13
aI6
aI14
aI2
aI11
aI11
aI7
aI6
aI9
aI3
aI3
aI4
aI10
aI6
aI8
aI1
aI14
aI12
aI7
aI1
aI1
aI11
aI1
aI0
aI8
aI9
aI5
atbsS'finished'
p74
I00
sS'nReps'
p75
I40
sS'nRemaining'
p76
I0
sS'trialList'
p77
(lp78
I0
aI1
aI2
aI3
aI4
aI5
aI6
aI7
aI8
aI9
aI10
aI11
aI12
aI13
aI14
asS'seed'
p79
NsS'thisIndex'
p80
I5
sS'thisN'
p81
I599
sS'thisTrialN'
p82
I14
sS'nTotal'
p83
I600
sS'_warnUseOfNext'
p84
I01
sbasS'saveWideText'
p85
I00
sS'thisEntry'
p86
(dp87
sS'version'
p88
S''
sS'_paramNamesSoFar'
p89
(lp90
sS'entries'
p91
(lp92
(dp93
g16
(lp94
S'd'
asS'.thisTrial'
p95
I11
sS'.thisRepN'
p96
I0
sg30
g31
sg32
g33
sS'.thisTrialN'
p97
I0
sS'.thisN'
p98
I0
sS'.thisIndex'
p99
I11
sg15
(lp100
S'k'
asg17
S'N'
sg14
I1
sa(dp101
g16
(lp102
S'd'
asg95
I14
sS'.thisRepN'
p103
I0
sg30
g31
sg32
g33
sS'.thisTrialN'
p104
I1
sS'.thisN'
p105
I1
sS'.thisIndex'
p106
I14
sg15
(lp107
S'd'
asg17
S'Y'
sg14
I1
sa(dp108
g16
(lp109
S'k'
asg18
S'N'
sS'.thisRepN'
p110
I0
sg20
S'Y'
sg32
g33
sS'.thisTrialN'
p111
I2
sS'.thisN'
p112
I2
sS'.thisIndex'
p113
I12
sg15
(lp114
S'k'
asg30
g31
sg17
S'Y'
sg14
I1
sg19
Nsg95
I12
sa(dp115
g16
(lp116
S'k'
asg18
S'Y'
sS'.thisRepN'
p117
I0
sg20
S'N'
sg32
g33
sS'.thisTrialN'
p118
I3
sS'.thisN'
p119
I3
sS'.thisIndex'
p120
I13
sg15
(lp121
S'k'
asg30
g31
sg17
S'Y'
sg14
I1
sg19
(lp122
S'd'
asg95
I13
sa(dp123
g16
(lp124
S'k'
asg18
S'Y'
sS'.thisRepN'
p125
I0
sg20
S'N'
sg32
g33
sS'.thisTrialN'
p126
I4
sS'.thisN'
p127
I4
sS'.thisIndex'
p128
I7
sg15
(lp129
S'd'
asg30
g31
sg17
S'N'
sg14
I1
sg19
Nsg95
I7
sa(dp130
g16
(lp131
S'k'
asg18
S'N'
sS'.thisRepN'
p132
I0
sg20
S'N'
sg32
g33
sS'.thisTrialN'
p133
I5
sS'.thisN'
p134
I5
sS'.thisIndex'
p135
I10
sg15
(lp136
S'k'
asg30
g31
sg17
S'Y'
sg14
I1
sg19
(lp137
S'space'
p138
asg95
I10
sa(dp139
g16
(lp140
S'k'
asg18
S'N'
sS'.thisRepN'
p141
I0
sg20
S'Y'
sg32
g33
sS'.thisTrialN'
p142
I6
sS'.thisN'
p143
I6
sS'.thisIndex'
p144
I8
sg15
(lp145
S'd'
asg30
g31
sg17
S'N'
sg14
I1
sg19
Nsg95
I8
sa(dp146
g16
(lp147
S'd'
asg18
S'Y'
sS'.thisRepN'
p148
I0
sg20
S'N'
sg32
g33
sS'.thisTrialN'
p149
I7
sS'.thisN'
p150
I7
sS'.thisIndex'
p151
I11
sg15
(lp152
S'k'
asg30
g31
sg17
S'N'
sg14
I1
sg19
Nsg95
I11
sa(dp153
g16
(lp154
S'd'
asg18
S'N'
sS'.thisRepN'
p155
I0
sg20
S'Y'
sg32
g33
sS'.thisTrialN'
p156
I8
sS'.thisN'
p157
I8
sS'.thisIndex'
p158
I2
sg15
(lp159
S'd'
asg30
g31
sg17
S'Y'
sg14
I1
sg19
Nsg95
I2
sa(dp160
g16
(lp161
S'd'
asg18
S'Y'
sS'.thisRepN'
p162
I0
sg20
S'Y'
sg32
g33
sS'.thisTrialN'
p163
I9
sS'.thisN'
p164
I9
sS'.thisIndex'
p165
I10
sg15
(lp166
S'k'
asg30
g31
sg17
S'N'
sg14
I1
sg19
(lp167
S'space'
p168
asg95
I10
sa(dp169
g16
(lp170
S'd'
asg18
S'Y'
sS'.thisRepN'
p171
I0
sg20
S'Y'
sg32
g33
sS'.thisTrialN'
p172
I10
sS'.thisN'
p173
I10
sS'.thisIndex'
p174
I5
sg15
(lp175
S'd'
asg30
g31
sg17
S'Y'
sg14
I1
sg19
(lp176
S'space'
p177
asg95
I5
sa(dp178
g16
(lp179
S'k'
asg18
S'N'
sS'.thisRepN'
p180
I0
sg20
S'Y'
sg32
g33
sS'.thisTrialN'
p181
I11
sS'.thisN'
p182
I11
sS'.thisIndex'
p183
I9
sg15
(lp184
S'k'
asg30
g31
sg17
S'Y'
sg14
I1
sg19
Nsg95
I9
sa(dp185
g16
(lp186
S'k'
asg18
S'N'
sS'.thisRepN'
p187
I0
sg20
S'N'
sg32
g33
sS'.thisTrialN'
p188
I12
sS'.thisN'
p189
I12
sS'.thisIndex'
p190
I13
sg15
(lp191
S'd'
asg30
g31
sg17
S'N'
sg14
I1
sg19
(lp192
S'space'
p193
asg95
I13
sa(dp194
g16
(lp195
S'k'
asg18
S'Y'
sS'.thisRepN'
p196
I0
sg20
S'N'
sg32
g33
sS'.thisTrialN'
p197
I13
sS'.thisN'
p198
I13
sS'.thisIndex'
p199
I4
sg15
(lp200
S'k'
asg30
g31
sg17
S'Y'
sg14
I1
sg19
Nsg95
I4
sa(dp201
g16
(lp202
S'k'
asg18
S'Y'
sS'.thisRepN'
p203
I0
sg20
S'N'
sg32
g33
sS'.thisTrialN'
p204
I14
sS'.thisN'
p205
I14
sS'.thisIndex'
p206
I9
sg15
(lp207
S'k'
asg30
g31
sg17
S'Y'
sg14
I1
sg19
Nsg95
I9
sa(dp208
g16
(lp209
S'd'
asg18
S'Y'
sS'.thisRepN'
p210
I1
sg20
S'Y'
sg32
g33
sS'.thisTrialN'
p211
I0
sS'.thisN'
p212
I15
sS'.thisIndex'
p213
I13
sg15
(lp214
S'd'
asg30
g31
sg17
S'Y'
sg14
I1
sg19
(lp215
S'space'
p216
asg95
I13
sa(dp217
g16
(lp218
S'd'
asg18
S'N'
sS'.thisRepN'
p219
I1
sg20
S'N'
sg32
g33
sS'.thisTrialN'
p220
I1
sS'.thisN'
p221
I16
sS'.thisIndex'
p222
I12
sg15
(lp223
S'd'
asg30
g31
sg17
S'Y'
sg14
I1
sg19
(lp224
S'space'
p225
asg95
I12
sa(dp226
g16
(lp227
S'd'
asg18
S'N'
sS'.thisRepN'
p228
I1
sg20
S'Y'
sg32
g33
sS'.thisTrialN'
p229
I2
sS'.thisN'
p230
I17
sS'.thisIndex'
p231
I14
sg15
(lp232
S'd'
asg30
g31
sg17
S'Y'
sg14
I1
sg19
Nsg95
I14
sa(dp233
g16
(lp234
S'k'
asg18
S'Y'
sS'.thisRepN'
p235
I1
sg20
S'Y'
sg32
g33
sS'.thisTrialN'
p236
I3
sS'.thisN'
p237
I18
sS'.thisIndex'
p238
I7
sg15
(lp239
S'k'
asg30
g31
sg17
S'Y'
sg14
I1
sg19
(lp240
S'space'
p241
asg95
I7
sa(dp242
g16
(lp243
S'd'
asg18
S'N'
sS'.thisRepN'
p244
I1
sg20
S'Y'
sg32
g33
sS'.thisTrialN'
p245
I4
sS'.thisN'
p246
I19
sS'.thisIndex'
p247
I7
sg15
(lp248
S'd'
asg30
g31
sg17
S'Y'
sg14
I1
sg19
Nsg95
I7
sa(dp249
g16
(lp250
S'k'
asg18
S'N'
sS'.thisRepN'
p251
I1
sg20
S'Y'
sg32
g33
sS'.thisTrialN'
p252
I5
sS'.thisN'
p253
I20
sS'.thisIndex'
p254
I2
sg15
(lp255
S'k'
asg30
g31
sg17
S'Y'
sg14
I1
sg19
Nsg95
I2
sa(dp256
g16
(lp257
S'k'
asg18
S'N'
sS'.thisRepN'
p258
I1
sg20
S'Y'
sg32
g33
sS'.thisTrialN'
p259
I6
sS'.thisN'
p260
I21
sS'.thisIndex'
p261
I7
sg15
(lp262
S'k'
asg30
g31
sg17
S'Y'
sg14
I1
sg19
Nsg95
I7
sa(dp263
g16
(lp264
S'd'
asg18
S'Y'
sS'.thisRepN'
p265
I1
sg20
S'Y'
sg32
g33
sS'.thisTrialN'
p266
I7
sS'.thisN'
p267
I22
sS'.thisIndex'
p268
I9
sg15
(lp269
S'd'
asg30
g31
sg17
S'Y'
sg14
I1
sg19
(lp270
S'space'
p271
asg95
I9
sa(dp272
g16
(lp273
S'k'
asg18
S'N'
sS'.thisRepN'
p274
I1
sg20
S'Y'
sg32
g33
sS'.thisTrialN'
p275
I8
sS'.thisN'
p276
I23
sS'.thisIndex'
p277
I3
sg15
(lp278
S'k'
asg30
g31
sg17
S'Y'
sg14
I1
sg19
Nsg95
I3
sa(dp279
g16
(lp280
S'k'
asg18
S'N'
sS'.thisRepN'
p281
I1
sg20
S'Y'
sg32
g33
sS'.thisTrialN'
p282
I9
sS'.thisN'
p283
I24
sS'.thisIndex'
p284
I2
sg15
(lp285
S'd'
asg30
g31
sg17
S'N'
sg14
I1
sg19
Nsg95
I2
sa(dp286
g16
(lp287
S'k'
asg18
S'Y'
sS'.thisRepN'
p288
I1
sg20
S'N'
sg32
g33
sS'.thisTrialN'
p289
I10
sS'.thisN'
p290
I25
sS'.thisIndex'
p291
I3
sg15
(lp292
S'k'
asg30
g31
sg17
S'Y'
sg14
I1
sg19
Nsg95
I3
sa(dp293
g16
(lp294
S'd'
asg18
S'Y'
sS'.thisRepN'
p295
I1
sg20
S'N'
sg32
g33
sS'.thisTrialN'
p296
I11
sS'.thisN'
p297
I26
sS'.thisIndex'
p298
I10
sg15
(lp299
S'k'
asg30
g31
sg17
S'N'
sg14
I1
sg19
Nsg95
I10
sa(dp300
g16
(lp301
S'k'
asg18
S'Y'
sS'.thisRepN'
p302
I1
sg20
S'Y'
sg32
g33
sS'.thisTrialN'
p303
I12
sS'.thisN'
p304
I27
sS'.thisIndex'
p305
I3
sg15
(lp306
S'k'
asg30
g31
sg17
S'Y'
sg14
I1
sg19
(lp307
S'space'
p308
asg95
I3
sa(dp309
g16
(lp310
S'k'
asg18
S'N'
sS'.thisRepN'
p311
I1
sg20
S'Y'
sg32
g33
sS'.thisTrialN'
p312
I13
sS'.thisN'
p313
I28
sS'.thisIndex'
p314
I0
sg15
(lp315
S'k'
asg30
g31
sg17
S'Y'
sg14
I1
sg19
Nsg95
I0
sa(dp316
g16
(lp317
S'k'
asg18
S'Y'
sS'.thisRepN'
p318
I1
sg20
S'Y'
sg32
g33
sS'.thisTrialN'
p319
I14
sS'.thisN'
p320
I29
sS'.thisIndex'
p321
I3
sg15
(lp322
S'k'
asg30
g31
sg17
S'Y'
sg14
I1
sg19
(lp323
S'space'
p324
asg95
I3
sa(dp325
g16
(lp326
S'd'
asg18
S'N'
sS'.thisRepN'
p327
I2
sg20
S'Y'
sg32
g33
sS'.thisTrialN'
p328
I0
sS'.thisN'
p329
I30
sS'.thisIndex'
p330
I5
sg15
(lp331
S'd'
asg30
g31
sg17
S'Y'
sg14
I1
sg19
Nsg95
I5
sa(dp332
g16
(lp333
S'k'
asg18
S'Y'
sS'.thisRepN'
p334
I2
sg20
S'Y'
sg32
g33
sS'.thisTrialN'
p335
I1
sS'.thisN'
p336
I31
sS'.thisIndex'
p337
I14
sg15
(lp338
S'd'
asg30
g31
sg17
S'N'
sg14
I1
sg19
(lp339
S'space'
p340
asg95
I14
sa(dp341
g16
(lp342
S'k'
asg18
S'N'
sS'.thisRepN'
p343
I2
sg20
S'N'
sg32
g33
sS'.thisTrialN'
p344
I2
sS'.thisN'
p345
I32
sS'.thisIndex'
p346
I13
sg15
(lp347
S'k'
asg30
g31
sg17
S'Y'
sg14
I1
sg19
(lp348
S'space'
p349
asg95
I13
sa(dp350
g16
(lp351
S'k'
asg18
S'N'
sS'.thisRepN'
p352
I2
sg20
S'Y'
sg32
g33
sS'.thisTrialN'
p353
I3
sS'.thisN'
p354
I33
sS'.thisIndex'
p355
I14
sg15
(lp356
S'k'
asg30
g31
sg17
S'Y'
sg14
I1
sg19
Nsg95
I14
sa(dp357
g16
(lp358
S'd'
asg18
S'N'
sS'.thisRepN'
p359
I2
sg20
S'Y'
sg32
g33
sS'.thisTrialN'
p360
I4
sS'.thisN'
p361
I34
sS'.thisIndex'
p362
I0
sg15
(lp363
S'd'
asg30
g31
sg17
S'Y'
sg14
I1
sg19
Nsg95
I0
sa(dp364
g16
(lp365
S'd'
asg18
S'Y'
sS'.thisRepN'
p366
I2
sg20
S'Y'
sg32
g33
sS'.thisTrialN'
p367
I5
sS'.thisN'
p368
I35
sS'.thisIndex'
p369
I6
sg15
(lp370
S'k'
asg30
g31
sg17
S'N'
sg14
I1
sg19
(lp371
S'space'
p372
asg95
I6
sa(dp373
g16
(lp374
S'k'
asg18
S'N'
sS'.thisRepN'
p375
I2
sg20
S'Y'
sg32
g33
sS'.thisTrialN'
p376
I6
sS'.thisN'
p377
I36
sS'.thisIndex'
p378
I6
sg15
(lp379
S'k'
asg30
g31
sg17
S'Y'
sg14
I1
sg19
Nsg95
I6
sa(dp380
g16
(lp381
S'd'
asg18
S'N'
sS'.thisRepN'
p382
I2
sg20
S'Y'
sg32
g33
sS'.thisTrialN'
p383
I7
sS'.thisN'
p384
I37
sS'.thisIndex'
p385
I1
sg15
(lp386
S'd'
asg30
g31
sg17
S'Y'
sg14
I1
sg19
Nsg95
I1
sa(dp387
g16
(lp388
S'k'
asg18
S'N'
sS'.thisRepN'
p389
I2
sg20
S'Y'
sg32
g33
sS'.thisTrialN'
p390
I8
sS'.thisN'
p391
I38
sS'.thisIndex'
p392
I2
sg15
(lp393
S'k'
asg30
g31
sg17
S'Y'
sg14
I1
sg19
Nsg95
I2
sa(dp394
g16
(lp395
S'd'
asg18
S'Y'
sS'.thisRepN'
p396
I2
sg20
S'Y'
sg32
g33
sS'.thisTrialN'
p397
I9
sS'.thisN'
p398
I39
sS'.thisIndex'
p399
I10
sg15
(lp400
S'd'
asg30
g31
sg17
S'Y'
sg14
I1
sg19
(lp401
S'space'
p402
asg95
I10
sa(dp403
g16
(lp404
S'k'
asg18
S'Y'
sS'.thisRepN'
p405
I2
sg20
S'Y'
sg32
g33
sS'.thisTrialN'
p406
I10
sS'.thisN'
p407
I40
sS'.thisIndex'
p408
I1
sg15
(lp409
S'd'
asg30
g31
sg17
S'N'
sg14
I1
sg19
(lp410
S'space'
p411
asg95
I1
sa(dp412
g16
(lp413
S'd'
asg18
S'N'
sS'.thisRepN'
p414
I2
sg20
S'N'
sg32
g33
sS'.thisTrialN'
p415
I11
sS'.thisN'
p416
I41
sS'.thisIndex'
p417
I3
sg15
(lp418
S'k'
asg30
g31
sg17
S'N'
sg14
I1
sg19
(lp419
S'space'
p420
asg95
I3
sa(dp421
g16
(lp422
S'k'
asg18
S'Y'
sS'.thisRepN'
p423
I2
sg20
S'N'
sg32
g33
sS'.thisTrialN'
p424
I12
sS'.thisN'
p425
I42
sS'.thisIndex'
p426
I10
sg15
(lp427
S'k'
asg30
g31
sg17
S'Y'
sg14
I1
sg19
Nsg95
I10
sa(dp428
g16
(lp429
S'd'
asg18
S'N'
sS'.thisRepN'
p430
I2
sg20
S'Y'
sg32
g33
sS'.thisTrialN'
p431
I13
sS'.thisN'
p432
I43
sS'.thisIndex'
p433
I12
sg15
(lp434
S'd'
asg30
g31
sg17
S'Y'
sg14
I1
sg19
Nsg95
I12
sa(dp435
g16
(lp436
S'k'
asg18
S'N'
sS'.thisRepN'
p437
I2
sg20
S'N'
sg32
g33
sS'.thisTrialN'
p438
I14
sS'.thisN'
p439
I44
sS'.thisIndex'
p440
I4
sg15
(lp441
S'k'
asg30
g31
sg17
S'Y'
sg14
I1
sg19
(lp442
S'space'
p443
asg95
I4
sa(dp444
g16
(lp445
S'k'
asg18
S'Y'
sS'.thisRepN'
p446
I3
sg20
S'Y'
sg32
g33
sS'.thisTrialN'
p447
I0
sS'.thisN'
p448
I45
sS'.thisIndex'
p449
I10
sg15
(lp450
S'k'
asg30
g31
sg17
S'Y'
sg14
I1
sg19
(lp451
S'space'
p452
asg95
I10
sa(dp453
g16
(lp454
S'd'
asg18
S'Y'
sS'.thisRepN'
p455
I3
sg20
S'Y'
sg32
g33
sS'.thisTrialN'
p456
I1
sS'.thisN'
p457
I46
sS'.thisIndex'
p458
I4
sg15
(lp459
S'k'
asg30
g31
sg17
S'N'
sg14
I1
sg19
(lp460
S'space'
p461
asg95
I4
sa(dp462
g16
(lp463
S'k'
asg18
S'N'
sS'.thisRepN'
p464
I3
sg20
S'Y'
sg32
g33
sS'.thisTrialN'
p465
I2
sS'.thisN'
p466
I47
sS'.thisIndex'
p467
I11
sg15
(lp468
S'k'
asg30
g31
sg17
S'Y'
sg14
I1
sg19
Nsg95
I11
sa(dp469
g16
(lp470
S'k'
asg18
S'Y'
sS'.thisRepN'
p471
I3
sg20
S'N'
sg32
g33
sS'.thisTrialN'
p472
I3
sS'.thisN'
p473
I48
sS'.thisIndex'
p474
I6
sg15
(lp475
S'k'
asg30
g31
sg17
S'Y'
sg14
I1
sg19
Nsg95
I6
sa(dp476
g16
(lp477
S'd'
asg18
S'N'
sg22
I33
sS'.thisN'
p478
I49
sg20
S'Y'
sg32
g33
sS'.thisTrialN'
p479
I4
sS'.thisRepN'
p480
I3
sg21
I37
sS'.thisIndex'
p481
I5
sg23
I22
sg15
(lp482
S'd'
asg30
g31
sg17
S'Y'
sg14
I1
sg19
Nsg95
I5
sa(dp483
g16
(lp484
S'd'
asg95
I1
sS'.thisRepN'
p485
I3
sg30
g31
sg32
g33
sS'.thisTrialN'
p486
I5
sS'.thisN'
p487
I50
sS'.thisIndex'
p488
I1
sg15
(lp489
S'd'
asg17
S'Y'
sg14
I2
sa(dp490
g16
(lp491
S'd'
asg95
I2
sS'.thisRepN'
p492
I3
sg30
g31
sg32
g33
sS'.thisTrialN'
p493
I6
sS'.thisN'
p494
I51
sS'.thisIndex'
p495
I2
sg15
(lp496
S'd'
asg17
S'Y'
sg14
I2
sa(dp497
g16
(lp498
S'd'
asg18
S'Y'
sS'.thisRepN'
p499
I3
sg20
S'Y'
sg32
g33
sS'.thisTrialN'
p500
I7
sS'.thisN'
p501
I52
sS'.thisIndex'
p502
I12
sg15
(lp503
S'd'
asg30
g31
sg17
S'Y'
sg14
I2
sg19
(lp504
S'space'
p505
asg95
I12
sa(dp506
g16
(lp507
S'd'
asg18
S'Y'
sS'.thisRepN'
p508
I3
sg20
S'Y'
sg32
g33
sS'.thisTrialN'
p509
I8
sS'.thisN'
p510
I53
sS'.thisIndex'
p511
I13
sg15
(lp512
S'k'
asg30
g31
sg17
S'N'
sg14
I2
sg19
(lp513
S'space'
p514
asg95
I13
sa(dp515
g16
(lp516
S'k'
asg18
S'N'
sS'.thisRepN'
p517
I3
sg20
S'Y'
sg32
g33
sS'.thisTrialN'
p518
I9
sS'.thisN'
p519
I54
sS'.thisIndex'
p520
I8
sg15
(lp521
S'k'
asg30
g31
sg17
S'Y'
sg14
I2
sg19
Nsg95
I8
sa(dp522
g16
(lp523
S'd'
asg18
S'N'
sS'.thisRepN'
p524
I3
sg20
S'N'
sg32
g33
sS'.thisTrialN'
p525
I10
sS'.thisN'
p526
I55
sS'.thisIndex'
p527
I5
sg15
(lp528
S'd'
asg30
g31
sg17
S'Y'
sg14
I2
sg19
(lp529
S'space'
p530
asg95
I5
sa(dp531
g16
(lp532
S'd'
asg18
S'Y'
sS'.thisRepN'
p533
I3
sg20
S'Y'
sg32
g33
sS'.thisTrialN'
p534
I11
sS'.thisN'
p535
I56
sS'.thisIndex'
p536
I6
sg15
(lp537
S'd'
asg30
g31
sg17
S'Y'
sg14
I2
sg19
(lp538
S'space'
p539
asg95
I6
sa(dp540
g16
(lp541
S'd'
asg18
S'N'
sS'.thisRepN'
p542
I3
sg20
S'Y'
sg32
g33
sS'.thisTrialN'
p543
I12
sS'.thisN'
p544
I57
sS'.thisIndex'
p545
I7
sg15
(lp546
S'k'
asg30
g31
sg17
S'N'
sg14
I2
sg19
Nsg95
I7
sa(dp547
g16
(lp548
S'k'
asg18
S'Y'
sS'.thisRepN'
p549
I3
sg20
S'Y'
sg32
g33
sS'.thisTrialN'
p550
I13
sS'.thisN'
p551
I58
sS'.thisIndex'
p552
I6
sg15
(lp553
S'k'
asg30
g31
sg17
S'Y'
sg14
I2
sg19
(lp554
S'space'
p555
asg95
I6
sa(dp556
g16
(lp557
S'd'
asg18
S'Y'
sS'.thisRepN'
p558
I3
sg20
S'Y'
sg32
g33
sS'.thisTrialN'
p559
I14
sS'.thisN'
p560
I59
sS'.thisIndex'
p561
I1
sg15
(lp562
S'd'
asg30
g31
sg17
S'Y'
sg14
I2
sg19
(lp563
S'space'
p564
asg95
I1
sa(dp565
g16
(lp566
S'd'
asg18
S'Y'
sS'.thisRepN'
p567
I4
sg20
S'N'
sg32
g33
sS'.thisTrialN'
p568
I0
sS'.thisN'
p569
I60
sS'.thisIndex'
p570
I11
sg15
(lp571
S'k'
asg30
g31
sg17
S'N'
sg14
I2
sg19
Nsg95
I11
sa(dp572
g16
(lp573
S'd'
asg18
S'N'
sS'.thisRepN'
p574
I4
sg20
S'Y'
sg32
g33
sS'.thisTrialN'
p575
I1
sS'.thisN'
p576
I61
sS'.thisIndex'
p577
I10
sg15
(lp578
S'k'
asg30
g31
sg17
S'N'
sg14
I2
sg19
Nsg95
I10
sa(dp579
g16
(lp580
S'd'
asg18
S'Y'
sS'.thisRepN'
p581
I4
sg20
S'Y'
sg32
g33
sS'.thisTrialN'
p582
I2
sS'.thisN'
p583
I62
sS'.thisIndex'
p584
I9
sg15
(lp585
S'd'
asg30
g31
sg17
S'Y'
sg14
I2
sg19
(lp586
S'space'
p587
asg95
I9
sa(dp588
g16
(lp589
S'd'
asg18
S'N'
sS'.thisRepN'
p590
I4
sg20
S'Y'
sg32
g33
sS'.thisTrialN'
p591
I3
sS'.thisN'
p592
I63
sS'.thisIndex'
p593
I2
sg15
(lp594
S'd'
asg30
g31
sg17
S'Y'
sg14
I2
sg19
Nsg95
I2
sa(dp595
g16
(lp596
S'd'
asg18
S'N'
sS'.thisRepN'
p597
I4
sg20
S'Y'
sg32
g33
sS'.thisTrialN'
p598
I4
sS'.thisN'
p599
I64
sS'.thisIndex'
p600
I14
sg15
(lp601
S'd'
asg30
g31
sg17
S'Y'
sg14
I2
sg19
Nsg95
I14
sa(dp602
g16
(lp603
S'k'
asg18
S'N'
sS'.thisRepN'
p604
I4
sg20
S'N'
sg32
g33
sS'.thisTrialN'
p605
I5
sS'.thisN'
p606
I65
sS'.thisIndex'
p607
I1
sg15
(lp608
S'k'
asg30
g31
sg17
S'Y'
sg14
I2
sg19
(lp609
S'space'
p610
asg95
I1
sa(dp611
g16
(lp612
S'k'
asg18
S'Y'
sS'.thisRepN'
p613
I4
sg20
S'Y'
sg32
g33
sS'.thisTrialN'
p614
I6
sS'.thisN'
p615
I66
sS'.thisIndex'
p616
I8
sg15
(lp617
S'k'
asg30
g31
sg17
S'Y'
sg14
I2
sg19
(lp618
S'space'
p619
asg95
I8
sa(dp620
g16
(lp621
S'd'
asg18
S'Y'
sS'.thisRepN'
p622
I4
sg20
S'Y'
sg32
g33
sS'.thisTrialN'
p623
I7
sS'.thisN'
p624
I67
sS'.thisIndex'
p625
I5
sg15
(lp626
S'd'
asg30
g31
sg17
S'Y'
sg14
I2
sg19
(lp627
S'space'
p628
asg95
I5
sa(dp629
g16
(lp630
S'k'
asg18
S'N'
sS'.thisRepN'
p631
I4
sg20
S'Y'
sg32
g33
sS'.thisTrialN'
p632
I8
sS'.thisN'
p633
I68
sS'.thisIndex'
p634
I5
sg15
(lp635
S'k'
asg30
g31
sg17
S'Y'
sg14
I2
sg19
Nsg95
I5
sa(dp636
g16
(lp637
S'k'
asg18
S'N'
sS'.thisRepN'
p638
I4
sg20
S'Y'
sg32
g33
sS'.thisTrialN'
p639
I9
sS'.thisN'
p640
I69
sS'.thisIndex'
p641
I4
sg15
(lp642
S'k'
asg30
g31
sg17
S'Y'
sg14
I2
sg19
Nsg95
I4
sa(dp643
g16
(lp644
S'd'
asg18
S'Y'
sS'.thisRepN'
p645
I4
sg20
S'Y'
sg32
g33
sS'.thisTrialN'
p646
I10
sS'.thisN'
p647
I70
sS'.thisIndex'
p648
I10
sg15
(lp649
S'k'
asg30
g31
sg17
S'N'
sg14
I2
sg19
(lp650
S'space'
p651
asg95
I10
sa(dp652
g16
(lp653
S'k'
asg18
S'Y'
sS'.thisRepN'
p654
I4
sg20
S'N'
sg32
g33
sS'.thisTrialN'
p655
I11
sS'.thisN'
p656
I71
sS'.thisIndex'
p657
I6
sg15
(lp658
S'k'
asg30
g31
sg17
S'Y'
sg14
I2
sg19
Nsg95
I6
sa(dp659
g16
(lp660
S'k'
asg18
S'Y'
sS'.thisRepN'
p661
I4
sg20
S'Y'
sg32
g33
sS'.thisTrialN'
p662
I12
sS'.thisN'
p663
I72
sS'.thisIndex'
p664
I9
sg15
(lp665
S'k'
asg30
g31
sg17
S'Y'
sg14
I2
sg19
(lp666
S'space'
p667
asg95
I9
sa(dp668
g16
(lp669
S'k'
asg18
S'Y'
sS'.thisRepN'
p670
I4
sg20
S'Y'
sg32
g33
sS'.thisTrialN'
p671
I13
sS'.thisN'
p672
I73
sS'.thisIndex'
p673
I12
sg15
(lp674
S'k'
asg30
g31
sg17
S'Y'
sg14
I2
sg19
(lp675
S'space'
p676
asg95
I12
sa(dp677
g16
(lp678
S'd'
asg18
S'Y'
sS'.thisRepN'
p679
I4
sg20
S'Y'
sg32
g33
sS'.thisTrialN'
p680
I14
sS'.thisN'
p681
I74
sS'.thisIndex'
p682
I9
sg15
(lp683
S'd'
asg30
g31
sg17
S'Y'
sg14
I2
sg19
(lp684
S'space'
p685
asg95
I9
sa(dp686
g16
(lp687
S'k'
asg18
S'Y'
sS'.thisRepN'
p688
I5
sg20
S'Y'
sg32
g33
sS'.thisTrialN'
p689
I0
sS'.thisN'
p690
I75
sS'.thisIndex'
p691
I10
sg15
(lp692
S'k'
asg30
g31
sg17
S'Y'
sg14
I2
sg19
(lp693
S'space'
p694
asg95
I10
sa(dp695
g16
(lp696
S'k'
asg18
S'Y'
sS'.thisRepN'
p697
I5
sg20
S'N'
sg32
g33
sS'.thisTrialN'
p698
I1
sS'.thisN'
p699
I76
sS'.thisIndex'
p700
I4
sg15
(lp701
S'k'
asg30
g31
sg17
S'Y'
sg14
I2
sg19
Nsg95
I4
sa(dp702
g16
(lp703
S'd'
asg18
S'N'
sS'.thisRepN'
p704
I5
sg20
S'Y'
sg32
g33
sS'.thisTrialN'
p705
I2
sS'.thisN'
p706
I77
sS'.thisIndex'
p707
I12
sg15
(lp708
S'k'
asg30
g31
sg17
S'N'
sg14
I2
sg19
Nsg95
I12
sa(dp709
g16
(lp710
S'd'
asg18
S'Y'
sS'.thisRepN'
p711
I5
sg20
S'Y'
sg32
g33
sS'.thisTrialN'
p712
I3
sS'.thisN'
p713
I78
sS'.thisIndex'
p714
I13
sg15
(lp715
S'd'
asg30
g31
sg17
S'Y'
sg14
I2
sg19
(lp716
S'space'
p717
asg95
I13
sa(dp718
g16
(lp719
S'd'
asg18
S'Y'
sS'.thisRepN'
p720
I5
sg20
S'Y'
sg32
g33
sS'.thisTrialN'
p721
I4
sS'.thisN'
p722
I79
sS'.thisIndex'
p723
I11
sg15
(lp724
S'd'
asg30
g31
sg17
S'Y'
sg14
I2
sg19
(lp725
S'space'
p726
asg95
I11
sa(dp727
g16
(lp728
S'd'
asg18
S'Y'
sS'.thisRepN'
p729
I5
sg20
S'Y'
sg32
g33
sS'.thisTrialN'
p730
I5
sS'.thisN'
p731
I80
sS'.thisIndex'
p732
I4
sg15
(lp733
S'd'
asg30
g31
sg17
S'Y'
sg14
I2
sg19
(lp734
S'space'
p735
asg95
I4
sa(dp736
g16
(lp737
S'k'
asg18
S'N'
sS'.thisRepN'
p738
I5
sg20
S'Y'
sg32
g33
sS'.thisTrialN'
p739
I6
sS'.thisN'
p740
I81
sS'.thisIndex'
p741
I3
sg15
(lp742
S'k'
asg30
g31
sg17
S'Y'
sg14
I2
sg19
Nsg95
I3
sa(dp743
g16
(lp744
S'd'
asg18
S'N'
sS'.thisRepN'
p745
I5
sg20
S'Y'
sg32
g33
sS'.thisTrialN'
p746
I7
sS'.thisN'
p747
I82
sS'.thisIndex'
p748
I7
sg15
(lp749
S'd'
asg30
g31
sg17
S'Y'
sg14
I2
sg19
Nsg95
I7
sa(dp750
g16
(lp751
S'd'
asg18
S'Y'
sS'.thisRepN'
p752
I5
sg20
S'Y'
sg32
g33
sS'.thisTrialN'
p753
I8
sS'.thisN'
p754
I83
sS'.thisIndex'
p755
I9
sg15
(lp756
S'k'
asg30
g31
sg17
S'N'
sg14
I2
sg19
(lp757
S'space'
p758
asg95
I9
sa(dp759
g16
(lp760
S'k'
asg18
S'N'
sS'.thisRepN'
p761
I5
sg20
S'Y'
sg32
g33
sS'.thisTrialN'
p762
I9
sS'.thisN'
p763
I84
sS'.thisIndex'
p764
I8
sg15
(lp765
S'd'
asg30
g31
sg17
S'N'
sg14
I2
sg19
Nsg95
I8
sa(dp766
g16
(lp767
S'd'
asg18
S'N'
sS'.thisRepN'
p768
I5
sg20
S'N'
sg32
g33
sS'.thisTrialN'
p769
I10
sS'.thisN'
p770
I85
sS'.thisIndex'
p771
I13
sg15
(lp772
S'k'
asg30
g31
sg17
S'N'
sg14
I2
sg19
(lp773
S'space'
p774
asg95
I13
sa(dp775
g16
(lp776
S'd'
asg18
S'Y'
sS'.thisRepN'
p777
I5
sg20
S'N'
sg32
g33
sS'.thisTrialN'
p778
I11
sS'.thisN'
p779
I86
sS'.thisIndex'
p780
I3
sg15
(lp781
S'd'
asg30
g31
sg17
S'Y'
sg14
I2
sg19
Nsg95
I3
sa(dp782
g16
(lp783
S'd'
asg18
S'Y'
sS'.thisRepN'
p784
I5
sg20
S'Y'
sg32
g33
sS'.thisTrialN'
p785
I12
sS'.thisN'
p786
I87
sS'.thisIndex'
p787
I6
sg15
(lp788
S'd'
asg30
g31
sg17
S'Y'
sg14
I2
sg19
(lp789
S'space'
p790
asg95
I6
sa(dp791
g16
(lp792
S'd'
asg18
S'N'
sS'.thisRepN'
p793
I5
sg20
S'N'
sg32
g33
sS'.thisTrialN'
p794
I13
sS'.thisN'
p795
I88
sS'.thisIndex'
p796
I3
sg15
(lp797
S'd'
asg30
g31
sg17
S'Y'
sg14
I2
sg19
(lp798
S'space'
p799
asg95
I3
sa(dp800
g16
(lp801
S'd'
asg18
S'N'
sS'.thisRepN'
p802
I5
sg20
S'Y'
sg32
g33
sS'.thisTrialN'
p803
I14
sS'.thisN'
p804
I89
sS'.thisIndex'
p805
I2
sg15
(lp806
S'k'
asg30
g31
sg17
S'N'
sg14
I2
sg19
Nsg95
I2
sa(dp807
g16
(lp808
S'k'
asg18
S'Y'
sS'.thisRepN'
p809
I6
sg20
S'Y'
sg32
g33
sS'.thisTrialN'
p810
I0
sS'.thisN'
p811
I90
sS'.thisIndex'
p812
I4
sg15
(lp813
S'k'
asg30
g31
sg17
S'Y'
sg14
I2
sg19
(lp814
S'space'
p815
asg95
I4
sa(dp816
g16
(lp817
S'k'
asg18
S'N'
sS'.thisRepN'
p818
I6
sg20
S'Y'
sg32
g33
sS'.thisTrialN'
p819
I1
sS'.thisN'
p820
I91
sS'.thisIndex'
p821
I0
sg15
(lp822
S'd'
asg30
g31
sg17
S'N'
sg14
I2
sg19
Nsg95
I0
sa(dp823
g16
(lp824
S'k'
asg18
S'N'
sS'.thisRepN'
p825
I6
sg20
S'Y'
sg32
g33
sS'.thisTrialN'
p826
I2
sS'.thisN'
p827
I92
sS'.thisIndex'
p828
I9
sg15
(lp829
S'k'
asg30
g31
sg17
S'Y'
sg14
I2
sg19
Nsg95
I9
sa(dp830
g16
(lp831
S'd'
asg18
S'Y'
sS'.thisRepN'
p832
I6
sg20
S'Y'
sg32
g33
sS'.thisTrialN'
p833
I3
sS'.thisN'
p834
I93
sS'.thisIndex'
p835
I6
sg15
(lp836
S'd'
asg30
g31
sg17
S'Y'
sg14
I2
sg19
(lp837
S'space'
p838
asg95
I6
sa(dp839
g16
(lp840
S'k'
asg18
S'N'
sS'.thisRepN'
p841
I6
sg20
S'N'
sg32
g33
sS'.thisTrialN'
p842
I4
sS'.thisN'
p843
I94
sS'.thisIndex'
p844
I8
sg15
(lp845
S'k'
asg30
g31
sg17
S'Y'
sg14
I2
sg19
(lp846
S'space'
p847
asg95
I8
sa(dp848
g16
(lp849
S'd'
asg18
S'N'
sS'.thisRepN'
p850
I6
sg20
S'N'
sg32
g33
sS'.thisTrialN'
p851
I5
sS'.thisN'
p852
I95
sS'.thisIndex'
p853
I8
sg15
(lp854
S'd'
asg30
g31
sg17
S'Y'
sg14
I2
sg19
(lp855
S'space'
p856
asg95
I8
sa(dp857
g16
(lp858
S'd'
asg18
S'N'
sS'.thisRepN'
p859
I6
sg20
S'Y'
sg32
g33
sS'.thisTrialN'
p860
I6
sS'.thisN'
p861
I96
sS'.thisIndex'
p862
I10
sg15
(lp863
S'd'
asg30
g31
sg17
S'Y'
sg14
I2
sg19
Nsg95
I10
sa(dp864
g16
(lp865
S'k'
asg18
S'Y'
sS'.thisRepN'
p866
I6
sg20
S'Y'
sg32
g33
sS'.thisTrialN'
p867
I7
sS'.thisN'
p868
I97
sS'.thisIndex'
p869
I14
sg15
(lp870
S'k'
asg30
g31
sg17
S'Y'
sg14
I2
sg19
(lp871
S'space'
p872
asg95
I14
sa(dp873
g16
(lp874
S'd'
asg18
S'N'
sS'.thisRepN'
p875
I6
sg20
S'Y'
sg32
g33
sS'.thisTrialN'
p876
I8
sS'.thisN'
p877
I98
sS'.thisIndex'
p878
I11
sg15
(lp879
S'd'
asg30
g31
sg17
S'Y'
sg14
I2
sg19
Nsg95
I11
sa(dp880
g16
(lp881
S'k'
asg18
S'N'
sg22
I38
sS'.thisN'
p882
I99
sg20
S'Y'
sg32
g33
sS'.thisTrialN'
p883
I9
sS'.thisRepN'
p884
I6
sg21
I39
sS'.thisIndex'
p885
I9
sg23
I25
sg15
(lp886
S'k'
asg30
g31
sg17
S'Y'
sg14
I2
sg19
Nsg95
I9
sa(dp887
g16
(lp888
S'k'
asg95
I2
sS'.thisRepN'
p889
I6
sg30
g31
sg32
g33
sS'.thisTrialN'
p890
I10
sS'.thisN'
p891
I100
sS'.thisIndex'
p892
I2
sg15
(lp893
S'k'
asg17
S'Y'
sg14
I3
sa(dp894
g16
(lp895
S'd'
asg95
I12
sS'.thisRepN'
p896
I6
sg30
g31
sg32
g33
sS'.thisTrialN'
p897
I11
sS'.thisN'
p898
I101
sS'.thisIndex'
p899
I12
sg15
(lp900
S'd'
asg17
S'Y'
sg14
I3
sa(dp901
g16
(lp902
S'd'
asg18
S'Y'
sS'.thisRepN'
p903
I6
sg20
S'Y'
sg32
g33
sS'.thisTrialN'
p904
I12
sS'.thisN'
p905
I102
sS'.thisIndex'
p906
I6
sg15
(lp907
S'd'
asg30
g31
sg17
S'Y'
sg14
I3
sg19
(lp908
S'space'
p909
asg95
I6
sa(dp910
g16
(lp911
S'd'
asg18
S'Y'
sS'.thisRepN'
p912
I6
sg20
S'Y'
sg32
g33
sS'.thisTrialN'
p913
I13
sS'.thisN'
p914
I103
sS'.thisIndex'
p915
I9
sg15
(lp916
S'd'
asg30
g31
sg17
S'Y'
sg14
I3
sg19
(lp917
S'space'
p918
asg95
I9
sa(dp919
g16
(lp920
S'd'
asg18
S'N'
sS'.thisRepN'
p921
I6
sg20
S'Y'
sg32
g33
sS'.thisTrialN'
p922
I14
sS'.thisN'
p923
I104
sS'.thisIndex'
p924
I8
sg15
(lp925
S'd'
asg30
g31
sg17
S'Y'
sg14
I3
sg19
Nsg95
I8
sa(dp926
g16
(lp927
S'd'
asg18
S'Y'
sS'.thisRepN'
p928
I7
sg20
S'Y'
sg32
g33
sS'.thisTrialN'
p929
I0
sS'.thisN'
p930
I105
sS'.thisIndex'
p931
I13
sg15
(lp932
S'd'
asg30
g31
sg17
S'Y'
sg14
I3
sg19
(lp933
S'space'
p934
asg95
I13
sa(dp935
g16
(lp936
S'd'
asg18
S'Y'
sS'.thisRepN'
p937
I7
sg20
S'Y'
sg32
g33
sS'.thisTrialN'
p938
I1
sS'.thisN'
p939
I106
sS'.thisIndex'
p940
I7
sg15
(lp941
S'k'
asg30
g31
sg17
S'N'
sg14
I3
sg19
(lp942
S'space'
p943
asg95
I7
sa(dp944
g16
(lp945
S'k'
asg18
S'N'
sS'.thisRepN'
p946
I7
sg20
S'Y'
sg32
g33
sS'.thisTrialN'
p947
I2
sS'.thisN'
p948
I107
sS'.thisIndex'
p949
I10
sg15
(lp950
S'k'
asg30
g31
sg17
S'Y'
sg14
I3
sg19
Nsg95
I10
sa(dp951
g16
(lp952
S'k'
asg18
S'N'
sS'.thisRepN'
p953
I7
sg20
S'Y'
sg32
g33
sS'.thisTrialN'
p954
I3
sS'.thisN'
p955
I108
sS'.thisIndex'
p956
I3
sg15
(lp957
S'k'
asg30
g31
sg17
S'Y'
sg14
I3
sg19
Nsg95
I3
sa(dp958
g16
(lp959
S'k'
asg18
S'N'
sS'.thisRepN'
p960
I7
sg20
S'Y'
sg32
g33
sS'.thisTrialN'
p961
I4
sS'.thisN'
p962
I109
sS'.thisIndex'
p963
I8
sg15
(lp964
S'k'
asg30
g31
sg17
S'Y'
sg14
I3
sg19
Nsg95
I8
sa(dp965
g16
(lp966
S'k'
asg18
S'N'
sS'.thisRepN'
p967
I7
sg20
S'Y'
sg32
g33
sS'.thisTrialN'
p968
I5
sS'.thisN'
p969
I110
sS'.thisIndex'
p970
I2
sg15
(lp971
S'k'
asg30
g31
sg17
S'Y'
sg14
I3
sg19
Nsg95
I2
sa(dp972
g16
(lp973
S'k'
asg18
S'N'
sS'.thisRepN'
p974
I7
sg20
S'N'
sg32
g33
sS'.thisTrialN'
p975
I6
sS'.thisN'
p976
I111
sS'.thisIndex'
p977
I14
sg15
(lp978
S'k'
asg30
g31
sg17
S'Y'
sg14
I3
sg19
(lp979
S'space'
p980
asg95
I14
sa(dp981
g16
(lp982
S'k'
asg18
S'N'
sS'.thisRepN'
p983
I7
sg20
S'Y'
sg32
g33
sS'.thisTrialN'
p984
I7
sS'.thisN'
p985
I112
sS'.thisIndex'
p986
I0
sg15
(lp987
S'k'
asg30
g31
sg17
S'Y'
sg14
I3
sg19
Nsg95
I0
sa(dp988
g16
(lp989
S'k'
asg18
S'N'
sS'.thisRepN'
p990
I7
sg20
S'Y'
sg32
g33
sS'.thisTrialN'
p991
I8
sS'.thisN'
p992
I113
sS'.thisIndex'
p993
I12
sg15
(lp994
S'k'
asg30
g31
sg17
S'Y'
sg14
I3
sg19
Nsg95
I12
sa(dp995
g16
(lp996
S'd'
asg18
S'Y'
sS'.thisRepN'
p997
I7
sg20
S'Y'
sg32
g33
sS'.thisTrialN'
p998
I9
sS'.thisN'
p999
I114
sS'.thisIndex'
p1000
I3
sg15
(lp1001
S'd'
asg30
g31
sg17
S'Y'
sg14
I3
sg19
(lp1002
S'space'
p1003
asg95
I3
sa(dp1004
g16
(lp1005
S'd'
asg18
S'N'
sS'.thisRepN'
p1006
I7
sg20
S'Y'
sg32
g33
sS'.thisTrialN'
p1007
I10
sS'.thisN'
p1008
I115
sS'.thisIndex'
p1009
I7
sg15
(lp1010
S'd'
asg30
g31
sg17
S'Y'
sg14
I3
sg19
Nsg95
I7
sa(dp1011
g16
(lp1012
S'k'
asg18
S'Y'
sS'.thisRepN'
p1013
I7
sg20
S'Y'
sg32
g33
sS'.thisTrialN'
p1014
I11
sS'.thisN'
p1015
I116
sS'.thisIndex'
p1016
I7
sg15
(lp1017
S'k'
asg30
g31
sg17
S'Y'
sg14
I3
sg19
(lp1018
S'space'
p1019
asg95
I7
sa(dp1020
g16
(lp1021
S'd'
asg18
S'N'
sS'.thisRepN'
p1022
I7
sg20
S'Y'
sg32
g33
sS'.thisTrialN'
p1023
I12
sS'.thisN'
p1024
I117
sS'.thisIndex'
p1025
I4
sg15
(lp1026
S'd'
asg30
g31
sg17
S'Y'
sg14
I3
sg19
Nsg95
I4
sa(dp1027
g16
(lp1028
S'k'
asg18
S'N'
sS'.thisRepN'
p1029
I7
sg20
S'Y'
sg32
g33
sS'.thisTrialN'
p1030
I13
sS'.thisN'
p1031
I118
sS'.thisIndex'
p1032
I13
sg15
(lp1033
S'k'
asg30
g31
sg17
S'Y'
sg14
I3
sg19
Nsg95
I13
sa(dp1034
g16
(lp1035
S'd'
asg18
S'N'
sS'.thisRepN'
p1036
I7
sg20
S'Y'
sg32
g33
sS'.thisTrialN'
p1037
I14
sS'.thisN'
p1038
I119
sS'.thisIndex'
p1039
I5
sg15
(lp1040
S'd'
asg30
g31
sg17
S'Y'
sg14
I3
sg19
Nsg95
I5
sa(dp1041
g16
(lp1042
S'd'
asg18
S'Y'
sS'.thisRepN'
p1043
I8
sg20
S'Y'
sg32
g33
sS'.thisTrialN'
p1044
I0
sS'.thisN'
p1045
I120
sS'.thisIndex'
p1046
I11
sg15
(lp1047
S'd'
asg30
g31
sg17
S'Y'
sg14
I3
sg19
(lp1048
S'space'
p1049
asg95
I11
sa(dp1050
g16
(lp1051
S'k'
asg18
S'N'
sS'.thisRepN'
p1052
I8
sg20
S'Y'
sg32
g33
sS'.thisTrialN'
p1053
I1
sS'.thisN'
p1054
I121
sS'.thisIndex'
p1055
I12
sg15
(lp1056
S'k'
asg30
g31
sg17
S'Y'
sg14
I3
sg19
Nsg95
I12
sa(dp1057
g16
(lp1058
S'k'
asg18
S'Y'
sS'.thisRepN'
p1059
I8
sg20
S'N'
sg32
g33
sS'.thisTrialN'
p1060
I2
sS'.thisN'
p1061
I122
sS'.thisIndex'
p1062
I1
sg15
(lp1063
S'k'
asg30
g31
sg17
S'Y'
sg14
I3
sg19
Nsg95
I1
sa(dp1064
g16
(lp1065
S'd'
asg18
S'N'
sS'.thisRepN'
p1066
I8
sg20
S'Y'
sg32
g33
sS'.thisTrialN'
p1067
I3
sS'.thisN'
p1068
I123
sS'.thisIndex'
p1069
I11
sg15
(lp1070
S'd'
asg30
g31
sg17
S'Y'
sg14
I3
sg19
Nsg95
I11
sa(dp1071
g16
(lp1072
S'd'
asg18
S'N'
sS'.thisRepN'
p1073
I8
sg20
S'Y'
sg32
g33
sS'.thisTrialN'
p1074
I4
sS'.thisN'
p1075
I124
sS'.thisIndex'
p1076
I11
sg15
(lp1077
S'd'
asg30
g31
sg17
S'Y'
sg14
I3
sg19
Nsg95
I11
sa(dp1078
g16
(lp1079
S'k'
asg18
S'N'
sS'.thisRepN'
p1080
I8
sg20
S'Y'
sg32
g33
sS'.thisTrialN'
p1081
I5
sS'.thisN'
p1082
I125
sS'.thisIndex'
p1083
I1
sg15
(lp1084
S'k'
asg30
g31
sg17
S'Y'
sg14
I3
sg19
Nsg95
I1
sa(dp1085
g16
(lp1086
S'k'
asg18
S'Y'
sS'.thisRepN'
p1087
I8
sg20
S'Y'
sg32
g33
sS'.thisTrialN'
p1088
I6
sS'.thisN'
p1089
I126
sS'.thisIndex'
p1090
I4
sg15
(lp1091
S'd'
asg30
g31
sg17
S'N'
sg14
I3
sg19
(lp1092
S'space'
p1093
asg95
I4
sa(dp1094
g16
(lp1095
S'd'
asg18
S'Y'
sS'.thisRepN'
p1096
I8
sg20
S'Y'
sg32
g33
sS'.thisTrialN'
p1097
I7
sS'.thisN'
p1098
I127
sS'.thisIndex'
p1099
I2
sg15
(lp1100
S'd'
asg30
g31
sg17
S'Y'
sg14
I3
sg19
(lp1101
S'space'
p1102
asg95
I2
sa(dp1103
g16
(lp1104
S'k'
asg18
S'N'
sS'.thisRepN'
p1105
I8
sg20
S'Y'
sg32
g33
sS'.thisTrialN'
p1106
I8
sS'.thisN'
p1107
I128
sS'.thisIndex'
p1108
I12
sg15
(lp1109
S'k'
asg30
g31
sg17
S'Y'
sg14
I3
sg19
Nsg95
I12
sa(dp1110
g16
(lp1111
S'd'
asg18
S'N'
sS'.thisRepN'
p1112
I8
sg20
S'Y'
sg32
g33
sS'.thisTrialN'
p1113
I9
sS'.thisN'
p1114
I129
sS'.thisIndex'
p1115
I2
sg15
(lp1116
S'd'
asg30
g31
sg17
S'Y'
sg14
I3
sg19
Nsg95
I2
sa(dp1117
g16
(lp1118
S'k'
asg18
S'Y'
sS'.thisRepN'
p1119
I8
sg20
S'Y'
sg32
g33
sS'.thisTrialN'
p1120
I10
sS'.thisN'
p1121
I130
sS'.thisIndex'
p1122
I8
sg15
(lp1123
S'k'
asg30
g31
sg17
S'Y'
sg14
I3
sg19
(lp1124
S'space'
p1125
asg95
I8
sa(dp1126
g16
(lp1127
S'd'
asg18
S'N'
sS'.thisRepN'
p1128
I8
sg20
S'Y'
sg32
g33
sS'.thisTrialN'
p1129
I11
sS'.thisN'
p1130
I131
sS'.thisIndex'
p1131
I2
sg15
(lp1132
S'k'
asg30
g31
sg17
S'N'
sg14
I3
sg19
Nsg95
I2
sa(dp1133
g16
(lp1134
S'd'
asg18
S'N'
sS'.thisRepN'
p1135
I8
sg20
S'Y'
sg32
g33
sS'.thisTrialN'
p1136
I12
sS'.thisN'
p1137
I132
sS'.thisIndex'
p1138
I11
sg15
(lp1139
S'd'
asg30
g31
sg17
S'Y'
sg14
I3
sg19
Nsg95
I11
sa(dp1140
g16
(lp1141
S'd'
asg18
S'Y'
sS'.thisRepN'
p1142
I8
sg20
S'Y'
sg32
g33
sS'.thisTrialN'
p1143
I13
sS'.thisN'
p1144
I133
sS'.thisIndex'
p1145
I2
sg15
(lp1146
S'd'
asg30
g31
sg17
S'Y'
sg14
I3
sg19
(lp1147
S'space'
p1148
asg95
I2
sa(dp1149
g16
(lp1150
S'd'
asg18
S'Y'
sS'.thisRepN'
p1151
I8
sg20
S'Y'
sg32
g33
sS'.thisTrialN'
p1152
I14
sS'.thisN'
p1153
I134
sS'.thisIndex'
p1154
I13
sg15
(lp1155
S'd'
asg30
g31
sg17
S'Y'
sg14
I3
sg19
(lp1156
S'space'
p1157
asg95
I13
sa(dp1158
g16
(lp1159
S'k'
asg18
S'Y'
sS'.thisRepN'
p1160
I9
sg20
S'Y'
sg32
g33
sS'.thisTrialN'
p1161
I0
sS'.thisN'
p1162
I135
sS'.thisIndex'
p1163
I4
sg15
(lp1164
S'k'
asg30
g31
sg17
S'Y'
sg14
I3
sg19
(lp1165
S'space'
p1166
asg95
I4
sa(dp1167
g16
(lp1168
S'd'
asg18
S'N'
sS'.thisRepN'
p1169
I9
sg20
S'Y'
sg32
g33
sS'.thisTrialN'
p1170
I1
sS'.thisN'
p1171
I136
sS'.thisIndex'
p1172
I12
sg15
(lp1173
S'k'
asg30
g31
sg17
S'N'
sg14
I3
sg19
Nsg95
I12
sa(dp1174
g16
(lp1175
S'd'
asg18
S'Y'
sS'.thisRepN'
p1176
I9
sg20
S'Y'
sg32
g33
sS'.thisTrialN'
p1177
I2
sS'.thisN'
p1178
I137
sS'.thisIndex'
p1179
I2
sg15
(lp1180
S'd'
asg30
g31
sg17
S'Y'
sg14
I3
sg19
(lp1181
S'space'
p1182
asg95
I2
sa(dp1183
g16
(lp1184
S'd'
asg18
S'Y'
sS'.thisRepN'
p1185
I9
sg20
S'Y'
sg32
g33
sS'.thisTrialN'
p1186
I3
sS'.thisN'
p1187
I138
sS'.thisIndex'
p1188
I1
sg15
(lp1189
S'd'
asg30
g31
sg17
S'Y'
sg14
I3
sg19
(lp1190
S'space'
p1191
asg95
I1
sa(dp1192
g16
(lp1193
S'k'
asg18
S'Y'
sS'.thisRepN'
p1194
I9
sg20
S'Y'
sg32
g33
sS'.thisTrialN'
p1195
I4
sS'.thisN'
p1196
I139
sS'.thisIndex'
p1197
I3
sg15
(lp1198
S'd'
asg30
g31
sg17
S'N'
sg14
I3
sg19
(lp1199
S'space'
p1200
asg95
I3
sa(dp1201
g16
(lp1202
S'k'
asg18
S'Y'
sS'.thisRepN'
p1203
I9
sg20
S'Y'
sg32
g33
sS'.thisTrialN'
p1204
I5
sS'.thisN'
p1205
I140
sS'.thisIndex'
p1206
I14
sg15
(lp1207
S'k'
asg30
g31
sg17
S'Y'
sg14
I3
sg19
(lp1208
S'space'
p1209
asg95
I14
sa(dp1210
g16
(lp1211
S'k'
asg18
S'N'
sS'.thisRepN'
p1212
I9
sg20
S'Y'
sg32
g33
sS'.thisTrialN'
p1213
I6
sS'.thisN'
p1214
I141
sS'.thisIndex'
p1215
I8
sg15
(lp1216
S'k'
asg30
g31
sg17
S'Y'
sg14
I3
sg19
Nsg95
I8
sa(dp1217
g16
(lp1218
S'd'
asg18
S'N'
sS'.thisRepN'
p1219
I9
sg20
S'Y'
sg32
g33
sS'.thisTrialN'
p1220
I7
sS'.thisN'
p1221
I142
sS'.thisIndex'
p1222
I14
sg15
(lp1223
S'd'
asg30
g31
sg17
S'Y'
sg14
I3
sg19
Nsg95
I14
sa(dp1224
g16
(lp1225
S'd'
asg18
S'Y'
sS'.thisRepN'
p1226
I9
sg20
S'Y'
sg32
g33
sS'.thisTrialN'
p1227
I8
sS'.thisN'
p1228
I143
sS'.thisIndex'
p1229
I3
sg15
(lp1230
S'd'
asg30
g31
sg17
S'Y'
sg14
I3
sg19
(lp1231
S'space'
p1232
asg95
I3
sa(dp1233
g16
(lp1234
S'k'
asg18
S'Y'
sS'.thisRepN'
p1235
I9
sg20
S'Y'
sg32
g33
sS'.thisTrialN'
p1236
I9
sS'.thisN'
p1237
I144
sS'.thisIndex'
p1238
I2
sg15
(lp1239
S'k'
asg30
g31
sg17
S'Y'
sg14
I3
sg19
(lp1240
S'space'
p1241
asg95
I2
sa(dp1242
g16
(lp1243
S'd'
asg18
S'Y'
sS'.thisRepN'
p1244
I9
sg20
S'Y'
sg32
g33
sS'.thisTrialN'
p1245
I10
sS'.thisN'
p1246
I145
sS'.thisIndex'
p1247
I14
sg15
(lp1248
S'k'
asg30
g31
sg17
S'N'
sg14
I3
sg19
(lp1249
S'space'
p1250
asg95
I14
sa(dp1251
g16
(lp1252
S'k'
asg18
S'Y'
sS'.thisRepN'
p1253
I9
sg20
S'Y'
sg32
g33
sS'.thisTrialN'
p1254
I11
sS'.thisN'
p1255
I146
sS'.thisIndex'
p1256
I0
sg15
(lp1257
S'k'
asg30
g31
sg17
S'Y'
sg14
I3
sg19
(lp1258
S'space'
p1259
asg95
I0
sa(dp1260
g16
(lp1261
S'd'
asg18
S'N'
sS'.thisRepN'
p1262
I9
sg20
S'Y'
sg32
g33
sS'.thisTrialN'
p1263
I12
sS'.thisN'
p1264
I147
sS'.thisIndex'
p1265
I9
sg15
(lp1266
S'd'
asg30
g31
sg17
S'Y'
sg14
I3
sg19
Nsg95
I9
sa(dp1267
g16
(lp1268
S'k'
asg18
S'Y'
sS'.thisRepN'
p1269
I9
sg20
S'Y'
sg32
g33
sS'.thisTrialN'
p1270
I13
sS'.thisN'
p1271
I148
sS'.thisIndex'
p1272
I5
sg15
(lp1273
S'k'
asg30
g31
sg17
S'Y'
sg14
I3
sg19
(lp1274
S'space'
p1275
asg95
I5
sa(dp1276
g16
(lp1277
S'k'
asg18
S'Y'
sg22
I46
sS'.thisN'
p1278
I149
sg20
S'Y'
sg32
g33
sS'.thisTrialN'
p1279
I14
sS'.thisRepN'
p1280
I9
sg21
I44
sS'.thisIndex'
p1281
I4
sg23
I24
sg15
(lp1282
S'k'
asg30
g31
sg17
S'Y'
sg14
I3
sg19
(lp1283
S'space'
p1284
asg95
I4
sa(dp1285
g16
(lp1286
S'k'
asg95
I1
sS'.thisRepN'
p1287
I10
sg30
g31
sg32
g33
sS'.thisTrialN'
p1288
I0
sS'.thisN'
p1289
I150
sS'.thisIndex'
p1290
I1
sg15
(lp1291
S'k'
asg17
S'Y'
sg14
I4
sa(dp1292
g16
(lp1293
S'k'
asg95
I11
sS'.thisRepN'
p1294
I10
sg30
g31
sg32
g33
sS'.thisTrialN'
p1295
I1
sS'.thisN'
p1296
I151
sS'.thisIndex'
p1297
I11
sg15
(lp1298
S'k'
asg17
S'Y'
sg14
I4
sa(dp1299
g16
(lp1300
S'd'
asg18
S'Y'
sS'.thisRepN'
p1301
I10
sg20
S'Y'
sg32
g33
sS'.thisTrialN'
p1302
I2
sS'.thisN'
p1303
I152
sS'.thisIndex'
p1304
I6
sg15
(lp1305
S'd'
asg30
g31
sg17
S'Y'
sg14
I4
sg19
(lp1306
S'space'
p1307
asg95
I6
sa(dp1308
g16
(lp1309
S'k'
asg18
S'N'
sS'.thisRepN'
p1310
I10
sg20
S'Y'
sg32
g33
sS'.thisTrialN'
p1311
I3
sS'.thisN'
p1312
I153
sS'.thisIndex'
p1313
I11
sg15
(lp1314
S'k'
asg30
g31
sg17
S'Y'
sg14
I4
sg19
Nsg95
I11
sa(dp1315
g16
(lp1316
S'd'
asg18
S'N'
sS'.thisRepN'
p1317
I10
sg20
S'N'
sg32
g33
sS'.thisTrialN'
p1318
I4
sS'.thisN'
p1319
I154
sS'.thisIndex'
p1320
I9
sg15
(lp1321
S'd'
asg30
g31
sg17
S'Y'
sg14
I4
sg19
(lp1322
S'space'
p1323
asg95
I9
sa(dp1324
g16
(lp1325
S'k'
asg18
S'N'
sS'.thisRepN'
p1326
I10
sg20
S'Y'
sg32
g33
sS'.thisTrialN'
p1327
I5
sS'.thisN'
p1328
I155
sS'.thisIndex'
p1329
I8
sg15
(lp1330
S'k'
asg30
g31
sg17
S'Y'
sg14
I4
sg19
Nsg95
I8
sa(dp1331
g16
(lp1332
S'k'
asg18
S'N'
sS'.thisRepN'
p1333
I10
sg20
S'Y'
sg32
g33
sS'.thisTrialN'
p1334
I6
sS'.thisN'
p1335
I156
sS'.thisIndex'
p1336
I13
sg15
(lp1337
S'd'
asg30
g31
sg17
S'N'
sg14
I4
sg19
Nsg95
I13
sa(dp1338
g16
(lp1339
S'k'
asg18
S'N'
sS'.thisRepN'
p1340
I10
sg20
S'Y'
sg32
g33
sS'.thisTrialN'
p1341
I7
sS'.thisN'
p1342
I157
sS'.thisIndex'
p1343
I6
sg15
(lp1344
S'k'
asg30
g31
sg17
S'Y'
sg14
I4
sg19
Nsg95
I6
sa(dp1345
g16
(lp1346
S'k'
asg18
S'N'
sS'.thisRepN'
p1347
I10
sg20
S'N'
sg32
g33
sS'.thisTrialN'
p1348
I8
sS'.thisN'
p1349
I158
sS'.thisIndex'
p1350
I1
sg15
(lp1351
S'k'
asg30
g31
sg17
S'Y'
sg14
I4
sg19
(lp1352
S'space'
p1353
asg95
I1
sa(dp1354
g16
(lp1355
S'k'
asg18
S'Y'
sS'.thisRepN'
p1356
I10
sg20
S'N'
sg32
g33
sS'.thisTrialN'
p1357
I9
sS'.thisN'
p1358
I159
sS'.thisIndex'
p1359
I3
sg15
(lp1360
S'k'
asg30
g31
sg17
S'Y'
sg14
I4
sg19
Nsg95
I3
sa(dp1361
g16
(lp1362
S'k'
asg18
S'Y'
sS'.thisRepN'
p1363
I10
sg20
S'Y'
sg32
g33
sS'.thisTrialN'
p1364
I10
sS'.thisN'
p1365
I160
sS'.thisIndex'
p1366
I6
sg15
(lp1367
S'd'
asg30
g31
sg17
S'N'
sg14
I4
sg19
(lp1368
S'space'
p1369
asg95
I6
sa(dp1370
g16
(lp1371
S'k'
asg18
S'Y'
sS'.thisRepN'
p1372
I10
sg20
S'N'
sg32
g33
sS'.thisTrialN'
p1373
I11
sS'.thisN'
p1374
I161
sS'.thisIndex'
p1375
I10
sg15
(lp1376
S'k'
asg30
g31
sg17
S'Y'
sg14
I4
sg19
Nsg95
I10
sa(dp1377
g16
(lp1378
S'd'
asg18
S'Y'
sS'.thisRepN'
p1379
I10
sg20
S'Y'
sg32
g33
sS'.thisTrialN'
p1380
I12
sS'.thisN'
p1381
I162
sS'.thisIndex'
p1382
I4
sg15
(lp1383
S'd'
asg30
g31
sg17
S'Y'
sg14
I4
sg19
(lp1384
S'space'
p1385
asg95
I4
sa(dp1386
g16
(lp1387
S'k'
asg18
S'Y'
sS'.thisRepN'
p1388
I10
sg20
S'N'
sg32
g33
sS'.thisTrialN'
p1389
I13
sS'.thisN'
p1390
I163
sS'.thisIndex'
p1391
I3
sg15
(lp1392
S'k'
asg30
g31
sg17
S'Y'
sg14
I4
sg19
Nsg95
I3
sa(dp1393
g16
(lp1394
S'k'
asg18
S'N'
sS'.thisRepN'
p1395
I10
sg20
S'Y'
sg32
g33
sS'.thisTrialN'
p1396
I14
sS'.thisN'
p1397
I164
sS'.thisIndex'
p1398
I4
sg15
(lp1399
S'k'
asg30
g31
sg17
S'Y'
sg14
I4
sg19
Nsg95
I4
sa(dp1400
g16
(lp1401
S'k'
asg18
S'Y'
sS'.thisRepN'
p1402
I11
sg20
S'Y'
sg32
g33
sS'.thisTrialN'
p1403
I0
sS'.thisN'
p1404
I165
sS'.thisIndex'
p1405
I0
sg15
(lp1406
S'k'
asg30
g31
sg17
S'Y'
sg14
I4
sg19
(lp1407
S'space'
p1408
asg95
I0
sa(dp1409
g16
(lp1410
S'd'
asg18
S'Y'
sS'.thisRepN'
p1411
I11
sg20
S'Y'
sg32
g33
sS'.thisTrialN'
p1412
I1
sS'.thisN'
p1413
I166
sS'.thisIndex'
p1414
I4
sg15
(lp1415
S'd'
asg30
g31
sg17
S'Y'
sg14
I4
sg19
(lp1416
S'space'
p1417
asg95
I4
sa(dp1418
g16
(lp1419
S'd'
asg18
S'N'
sS'.thisRepN'
p1420
I11
sg20
S'Y'
sg32
g33
sS'.thisTrialN'
p1421
I2
sS'.thisN'
p1422
I167
sS'.thisIndex'
p1423
I1
sg15
(lp1424
S'd'
asg30
g31
sg17
S'Y'
sg14
I4
sg19
Nsg95
I1
sa(dp1425
g16
(lp1426
S'k'
asg18
S'Y'
sS'.thisRepN'
p1427
I11
sg20
S'Y'
sg32
g33
sS'.thisTrialN'
p1428
I3
sS'.thisN'
p1429
I168
sS'.thisIndex'
p1430
I6
sg15
(lp1431
S'k'
asg30
g31
sg17
S'Y'
sg14
I4
sg19
(lp1432
S'space'
p1433
asg95
I6
sa(dp1434
g16
(lp1435
S'k'
asg18
S'Y'
sS'.thisRepN'
p1436
I11
sg20
S'Y'
sg32
g33
sS'.thisTrialN'
p1437
I4
sS'.thisN'
p1438
I169
sS'.thisIndex'
p1439
I11
sg15
(lp1440
S'k'
asg30
g31
sg17
S'Y'
sg14
I4
sg19
(lp1441
S'space'
p1442
asg95
I11
sa(dp1443
g16
(lp1444
S'd'
asg18
S'N'
sS'.thisRepN'
p1445
I11
sg20
S'Y'
sg32
g33
sS'.thisTrialN'
p1446
I5
sS'.thisN'
p1447
I170
sS'.thisIndex'
p1448
I12
sg15
(lp1449
S'd'
asg30
g31
sg17
S'Y'
sg14
I4
sg19
Nsg95
I12
sa(dp1450
g16
(lp1451
S'd'
asg18
S'Y'
sS'.thisRepN'
p1452
I11
sg20
S'Y'
sg32
g33
sS'.thisTrialN'
p1453
I6
sS'.thisN'
p1454
I171
sS'.thisIndex'
p1455
I12
sg15
(lp1456
S'd'
asg30
g31
sg17
S'Y'
sg14
I4
sg19
(lp1457
S'space'
p1458
asg95
I12
sa(dp1459
g16
(lp1460
S'k'
asg18
S'Y'
sS'.thisRepN'
p1461
I11
sg20
S'Y'
sg32
g33
sS'.thisTrialN'
p1462
I7
sS'.thisN'
p1463
I172
sS'.thisIndex'
p1464
I11
sg15
(lp1465
S'k'
asg30
g31
sg17
S'Y'
sg14
I4
sg19
(lp1466
S'space'
p1467
asg95
I11
sa(dp1468
g16
(lp1469
S'd'
asg18
S'Y'
sS'.thisRepN'
p1470
I11
sg20
S'Y'
sg32
g33
sS'.thisTrialN'
p1471
I8
sS'.thisN'
p1472
I173
sS'.thisIndex'
p1473
I13
sg15
(lp1474
S'd'
asg30
g31
sg17
S'Y'
sg14
I4
sg19
(lp1475
S'space'
p1476
asg95
I13
sa(dp1477
g16
(lp1478
S'k'
asg18
S'Y'
sS'.thisRepN'
p1479
I11
sg20
S'Y'
sg32
g33
sS'.thisTrialN'
p1480
I9
sS'.thisN'
p1481
I174
sS'.thisIndex'
p1482
I13
sg15
(lp1483
S'k'
asg30
g31
sg17
S'Y'
sg14
I4
sg19
(lp1484
S'space'
p1485
asg95
I13
sa(dp1486
g16
(lp1487
S'k'
asg18
S'N'
sS'.thisRepN'
p1488
I11
sg20
S'Y'
sg32
g33
sS'.thisTrialN'
p1489
I10
sS'.thisN'
p1490
I175
sS'.thisIndex'
p1491
I6
sg15
(lp1492
S'k'
asg30
g31
sg17
S'Y'
sg14
I4
sg19
Nsg95
I6
sa(dp1493
g16
(lp1494
S'd'
asg18
S'N'
sS'.thisRepN'
p1495
I11
sg20
S'Y'
sg32
g33
sS'.thisTrialN'
p1496
I11
sS'.thisN'
p1497
I176
sS'.thisIndex'
p1498
I9
sg15
(lp1499
S'k'
asg30
g31
sg17
S'N'
sg14
I4
sg19
Nsg95
I9
sa(dp1500
g16
(lp1501
S'd'
asg18
S'N'
sS'.thisRepN'
p1502
I11
sg20
S'N'
sg32
g33
sS'.thisTrialN'
p1503
I12
sS'.thisN'
p1504
I177
sS'.thisIndex'
p1505
I5
sg15
(lp1506
S'k'
asg30
g31
sg17
S'N'
sg14
I4
sg19
(lp1507
S'space'
p1508
asg95
I5
sa(dp1509
g16
(lp1510
S'd'
asg18
S'N'
sS'.thisRepN'
p1511
I11
sg20
S'Y'
sg32
g33
sS'.thisTrialN'
p1512
I13
sS'.thisN'
p1513
I178
sS'.thisIndex'
p1514
I6
sg15
(lp1515
S'd'
asg30
g31
sg17
S'Y'
sg14
I4
sg19
Nsg95
I6
sa(dp1516
g16
(lp1517
S'k'
asg18
S'Y'
sS'.thisRepN'
p1518
I11
sg20
S'Y'
sg32
g33
sS'.thisTrialN'
p1519
I14
sS'.thisN'
p1520
I179
sS'.thisIndex'
p1521
I0
sg15
(lp1522
S'k'
asg30
g31
sg17
S'Y'
sg14
I4
sg19
(lp1523
S'space'
p1524
asg95
I0
sa(dp1525
g16
(lp1526
S'k'
asg18
S'N'
sS'.thisRepN'
p1527
I12
sg20
S'Y'
sg32
g33
sS'.thisTrialN'
p1528
I0
sS'.thisN'
p1529
I180
sS'.thisIndex'
p1530
I12
sg15
(lp1531
S'k'
asg30
g31
sg17
S'Y'
sg14
I4
sg19
Nsg95
I12
sa(dp1532
g16
(lp1533
S'd'
asg18
S'N'
sS'.thisRepN'
p1534
I12
sg20
S'Y'
sg32
g33
sS'.thisTrialN'
p1535
I1
sS'.thisN'
p1536
I181
sS'.thisIndex'
p1537
I7
sg15
(lp1538
S'd'
asg30
g31
sg17
S'Y'
sg14
I4
sg19
Nsg95
I7
sa(dp1539
g16
(lp1540
S'd'
asg18
S'N'
sS'.thisRepN'
p1541
I12
sg20
S'Y'
sg32
g33
sS'.thisTrialN'
p1542
I2
sS'.thisN'
p1543
I182
sS'.thisIndex'
p1544
I10
sg15
(lp1545
S'd'
asg30
g31
sg17
S'Y'
sg14
I4
sg19
Nsg95
I10
sa(dp1546
g16
(lp1547
S'd'
asg18
S'Y'
sS'.thisRepN'
p1548
I12
sg20
S'Y'
sg32
g33
sS'.thisTrialN'
p1549
I3
sS'.thisN'
p1550
I183
sS'.thisIndex'
p1551
I13
sg15
(lp1552
S'k'
asg30
g31
sg17
S'N'
sg14
I4
sg19
(lp1553
S'space'
p1554
asg95
I13
sa(dp1555
g16
(lp1556
S'd'
asg18
S'N'
sS'.thisRepN'
p1557
I12
sg20
S'Y'
sg32
g33
sS'.thisTrialN'
p1558
I4
sS'.thisN'
p1559
I184
sS'.thisIndex'
p1560
I1
sg15
(lp1561
S'd'
asg30
g31
sg17
S'Y'
sg14
I4
sg19
Nsg95
I1
sa(dp1562
g16
(lp1563
S'd'
asg18
S'Y'
sS'.thisRepN'
p1564
I12
sg20
S'Y'
sg32
g33
sS'.thisTrialN'
p1565
I5
sS'.thisN'
p1566
I185
sS'.thisIndex'
p1567
I10
sg15
(lp1568
S'd'
asg30
g31
sg17
S'Y'
sg14
I4
sg19
(lp1569
S'space'
p1570
asg95
I10
sa(dp1571
g16
(lp1572
S'k'
asg18
S'N'
sS'.thisRepN'
p1573
I12
sg20
S'Y'
sg32
g33
sS'.thisTrialN'
p1574
I6
sS'.thisN'
p1575
I186
sS'.thisIndex'
p1576
I13
sg15
(lp1577
S'k'
asg30
g31
sg17
S'Y'
sg14
I4
sg19
Nsg95
I13
sa(dp1578
g16
(lp1579
S'k'
asg18
S'Y'
sS'.thisRepN'
p1580
I12
sg20
S'Y'
sg32
g33
sS'.thisTrialN'
p1581
I7
sS'.thisN'
p1582
I187
sS'.thisIndex'
p1583
I10
sg15
(lp1584
S'k'
asg30
g31
sg17
S'Y'
sg14
I4
sg19
(lp1585
S'space'
p1586
asg95
I10
sa(dp1587
g16
(lp1588
S'k'
asg18
S'N'
sS'.thisRepN'
p1589
I12
sg20
S'Y'
sg32
g33
sS'.thisTrialN'
p1590
I8
sS'.thisN'
p1591
I188
sS'.thisIndex'
p1592
I1
sg15
(lp1593
S'k'
asg30
g31
sg17
S'Y'
sg14
I4
sg19
Nsg95
I1
sa(dp1594
g16
(lp1595
S'd'
asg18
S'Y'
sS'.thisRepN'
p1596
I12
sg20
S'Y'
sg32
g33
sS'.thisTrialN'
p1597
I9
sS'.thisN'
p1598
I189
sS'.thisIndex'
p1599
I13
sg15
(lp1600
S'd'
asg30
g31
sg17
S'Y'
sg14
I4
sg19
(lp1601
S'space'
p1602
asg95
I13
sa(dp1603
g16
(lp1604
S'k'
asg18
S'N'
sS'.thisRepN'
p1605
I12
sg20
S'Y'
sg32
g33
sS'.thisTrialN'
p1606
I10
sS'.thisN'
p1607
I190
sS'.thisIndex'
p1608
I14
sg15
(lp1609
S'k'
asg30
g31
sg17
S'Y'
sg14
I4
sg19
Nsg95
I14
sa(dp1610
g16
(lp1611
S'k'
asg18
S'N'
sS'.thisRepN'
p1612
I12
sg20
S'Y'
sg32
g33
sS'.thisTrialN'
p1613
I11
sS'.thisN'
p1614
I191
sS'.thisIndex'
p1615
I5
sg15
(lp1616
S'k'
asg30
g31
sg17
S'Y'
sg14
I4
sg19
Nsg95
I5
sa(dp1617
g16
(lp1618
S'd'
asg18
S'N'
sS'.thisRepN'
p1619
I12
sg20
S'Y'
sg32
g33
sS'.thisTrialN'
p1620
I12
sS'.thisN'
p1621
I192
sS'.thisIndex'
p1622
I7
sg15
(lp1623
S'd'
asg30
g31
sg17
S'Y'
sg14
I4
sg19
Nsg95
I7
sa(dp1624
g16
(lp1625
S'k'
asg18
S'N'
sS'.thisRepN'
p1626
I12
sg20
S'N'
sg32
g33
sS'.thisTrialN'
p1627
I13
sS'.thisN'
p1628
I193
sS'.thisIndex'
p1629
I14
sg15
(lp1630
S'k'
asg30
g31
sg17
S'Y'
sg14
I4
sg19
(lp1631
S'k'
asg95
I14
sa(dp1632
g16
(lp1633
S'd'
asg18
S'N'
sS'.thisRepN'
p1634
I12
sg20
S'Y'
sg32
g33
sS'.thisTrialN'
p1635
I14
sS'.thisN'
p1636
I194
sS'.thisIndex'
p1637
I0
sg15
(lp1638
S'k'
asg30
g31
sg17
S'N'
sg14
I4
sg19
Nsg95
I0
sa(dp1639
g16
(lp1640
S'd'
asg18
S'Y'
sS'.thisRepN'
p1641
I13
sg20
S'N'
sg32
g33
sS'.thisTrialN'
p1642
I0
sS'.thisN'
p1643
I195
sS'.thisIndex'
p1644
I2
sg15
(lp1645
S'd'
asg30
g31
sg17
S'Y'
sg14
I4
sg19
(lp1646
S'd'
asg95
I2
sa(dp1647
g16
(lp1648
S'k'
asg18
S'Y'
sS'.thisRepN'
p1649
I13
sg20
S'Y'
sg32
g33
sS'.thisTrialN'
p1650
I1
sS'.thisN'
p1651
I196
sS'.thisIndex'
p1652
I2
sg15
(lp1653
S'k'
asg30
g31
sg17
S'Y'
sg14
I4
sg19
(lp1654
S'space'
p1655
asg95
I2
sa(dp1656
g16
(lp1657
S'k'
asg18
S'N'
sS'.thisRepN'
p1658
I13
sg20
S'Y'
sg32
g33
sS'.thisTrialN'
p1659
I2
sS'.thisN'
p1660
I197
sS'.thisIndex'
p1661
I11
sg15
(lp1662
S'd'
asg30
g31
sg17
S'N'
sg14
I4
sg19
Nsg95
I11
sa(dp1663
g16
(lp1664
S'k'
asg18
S'Y'
sS'.thisRepN'
p1665
I13
sg20
S'N'
sg32
g33
sS'.thisTrialN'
p1666
I3
sS'.thisN'
p1667
I198
sS'.thisIndex'
p1668
I7
sg15
(lp1669
S'k'
asg30
g31
sg17
S'Y'
sg14
I4
sg19
Nsg95
I7
sa(dp1670
g16
(lp1671
S'k'
asg18
S'N'
sg22
I38
sS'.thisN'
p1672
I199
sg20
S'N'
sg32
g33
sS'.thisTrialN'
p1673
I4
sS'.thisRepN'
p1674
I13
sg21
I43
sS'.thisIndex'
p1675
I0
sg23
I22
sg15
(lp1676
S'k'
asg30
g31
sg17
S'Y'
sg14
I4
sg19
(lp1677
S'space'
p1678
asg95
I0
sa(dp1679
g16
(lp1680
S'k'
asg95
I14
sS'.thisRepN'
p1681
I13
sg30
g31
sg32
g33
sS'.thisTrialN'
p1682
I5
sS'.thisN'
p1683
I200
sS'.thisIndex'
p1684
I14
sg15
(lp1685
S'k'
asg17
S'Y'
sg14
I5
sa(dp1686
g16
(lp1687
S'k'
asg95
I8
sS'.thisRepN'
p1688
I13
sg30
g31
sg32
g33
sS'.thisTrialN'
p1689
I6
sS'.thisN'
p1690
I201
sS'.thisIndex'
p1691
I8
sg15
(lp1692
S'k'
asg17
S'Y'
sg14
I5
sa(dp1693
g16
(lp1694
S'd'
asg18
S'Y'
sS'.thisRepN'
p1695
I13
sg20
S'Y'
sg32
g33
sS'.thisTrialN'
p1696
I7
sS'.thisN'
p1697
I202
sS'.thisIndex'
p1698
I0
sg15
(lp1699
S'd'
asg30
g31
sg17
S'Y'
sg14
I5
sg19
(lp1700
S'space'
p1701
asg95
I0
sa(dp1702
g16
(lp1703
S'k'
asg18
S'N'
sS'.thisRepN'
p1704
I13
sg20
S'Y'
sg32
g33
sS'.thisTrialN'
p1705
I8
sS'.thisN'
p1706
I203
sS'.thisIndex'
p1707
I4
sg15
(lp1708
S'k'
asg30
g31
sg17
S'Y'
sg14
I5
sg19
Nsg95
I4
sa(dp1709
g16
(lp1710
S'd'
asg18
S'Y'
sS'.thisRepN'
p1711
I13
sg20
S'Y'
sg32
g33
sS'.thisTrialN'
p1712
I9
sS'.thisN'
p1713
I204
sS'.thisIndex'
p1714
I13
sg15
(lp1715
S'k'
asg30
g31
sg17
S'N'
sg14
I5
sg19
(lp1716
S'space'
p1717
asg95
I13
sa(dp1718
g16
(lp1719
S'd'
asg18
S'Y'
sS'.thisRepN'
p1720
I13
sg20
S'Y'
sg32
g33
sS'.thisTrialN'
p1721
I10
sS'.thisN'
p1722
I205
sS'.thisIndex'
p1723
I13
sg15
(lp1724
S'd'
asg30
g31
sg17
S'Y'
sg14
I5
sg19
(lp1725
S'space'
p1726
asg95
I13
sa(dp1727
g16
(lp1728
S'k'
asg18
S'N'
sS'.thisRepN'
p1729
I13
sg20
S'Y'
sg32
g33
sS'.thisTrialN'
p1730
I11
sS'.thisN'
p1731
I206
sS'.thisIndex'
p1732
I1
sg15
(lp1733
S'k'
asg30
g31
sg17
S'Y'
sg14
I5
sg19
Nsg95
I1
sa(dp1734
g16
(lp1735
S'd'
asg18
S'Y'
sS'.thisRepN'
p1736
I13
sg20
S'Y'
sg32
g33
sS'.thisTrialN'
p1737
I12
sS'.thisN'
p1738
I207
sS'.thisIndex'
p1739
I8
sg15
(lp1740
S'd'
asg30
g31
sg17
S'Y'
sg14
I5
sg19
(lp1741
S'space'
p1742
asg95
I8
sa(dp1743
g16
(lp1744
S'd'
asg18
S'N'
sS'.thisRepN'
p1745
I13
sg20
S'Y'
sg32
g33
sS'.thisTrialN'
p1746
I13
sS'.thisN'
p1747
I208
sS'.thisIndex'
p1748
I5
sg15
(lp1749
S'd'
asg30
g31
sg17
S'Y'
sg14
I5
sg19
Nsg95
I5
sa(dp1750
g16
(lp1751
S'k'
asg18
S'Y'
sS'.thisRepN'
p1752
I13
sg20
S'Y'
sg32
g33
sS'.thisTrialN'
p1753
I14
sS'.thisN'
p1754
I209
sS'.thisIndex'
p1755
I13
sg15
(lp1756
S'k'
asg30
g31
sg17
S'Y'
sg14
I5
sg19
(lp1757
S'space'
p1758
asg95
I13
sa(dp1759
g16
(lp1760
S'k'
asg18
S'N'
sS'.thisRepN'
p1761
I14
sg20
S'Y'
sg32
g33
sS'.thisTrialN'
p1762
I0
sS'.thisN'
p1763
I210
sS'.thisIndex'
p1764
I7
sg15
(lp1765
S'd'
asg30
g31
sg17
S'N'
sg14
I5
sg19
Nsg95
I7
sa(dp1766
g16
(lp1767
S'd'
asg18
S'N'
sS'.thisRepN'
p1768
I14
sg20
S'Y'
sg32
g33
sS'.thisTrialN'
p1769
I1
sS'.thisN'
p1770
I211
sS'.thisIndex'
p1771
I13
sg15
(lp1772
S'd'
asg30
g31
sg17
S'Y'
sg14
I5
sg19
Nsg95
I13
sa(dp1773
g16
(lp1774
S'd'
asg18
S'Y'
sS'.thisRepN'
p1775
I14
sg20
S'Y'
sg32
g33
sS'.thisTrialN'
p1776
I2
sS'.thisN'
p1777
I212
sS'.thisIndex'
p1778
I13
sg15
(lp1779
S'd'
asg30
g31
sg17
S'Y'
sg14
I5
sg19
(lp1780
S'space'
p1781
asg95
I13
sa(dp1782
g16
(lp1783
S'd'
asg18
S'Y'
sS'.thisRepN'
p1784
I14
sg20
S'Y'
sg32
g33
sS'.thisTrialN'
p1785
I3
sS'.thisN'
p1786
I213
sS'.thisIndex'
p1787
I3
sg15
(lp1788
S'k'
asg30
g31
sg17
S'N'
sg14
I5
sg19
(lp1789
S'space'
p1790
asg95
I3
sa(dp1791
g16
(lp1792
S'd'
asg18
S'N'
sS'.thisRepN'
p1793
I14
sg20
S'Y'
sg32
g33
sS'.thisTrialN'
p1794
I4
sS'.thisN'
p1795
I214
sS'.thisIndex'
p1796
I8
sg15
(lp1797
S'k'
asg30
g31
sg17
S'N'
sg14
I5
sg19
Nsg95
I8
sa(dp1798
g16
(lp1799
S'd'
asg18
S'Y'
sS'.thisRepN'
p1800
I14
sg20
S'Y'
sg32
g33
sS'.thisTrialN'
p1801
I5
sS'.thisN'
p1802
I215
sS'.thisIndex'
p1803
I5
sg15
(lp1804
S'k'
asg30
g31
sg17
S'N'
sg14
I5
sg19
(lp1805
S'space'
p1806
asg95
I5
sa(dp1807
g16
(lp1808
S'k'
asg18
S'Y'
sS'.thisRepN'
p1809
I14
sg20
S'Y'
sg32
g33
sS'.thisTrialN'
p1810
I6
sS'.thisN'
p1811
I216
sS'.thisIndex'
p1812
I5
sg15
(lp1813
S'k'
asg30
g31
sg17
S'Y'
sg14
I5
sg19
(lp1814
S'space'
p1815
asg95
I5
sa(dp1816
g16
(lp1817
S'd'
asg18
S'N'
sS'.thisRepN'
p1818
I14
sg20
S'N'
sg32
g33
sS'.thisTrialN'
p1819
I7
sS'.thisN'
p1820
I217
sS'.thisIndex'
p1821
I7
sg15
(lp1822
S'd'
asg30
g31
sg17
S'Y'
sg14
I5
sg19
(lp1823
S'space'
p1824
asg95
I7
sa(dp1825
g16
(lp1826
S'k'
asg18
S'N'
sS'.thisRepN'
p1827
I14
sg20
S'N'
sg32
g33
sS'.thisTrialN'
p1828
I8
sS'.thisN'
p1829
I218
sS'.thisIndex'
p1830
I4
sg15
(lp1831
S'k'
asg30
g31
sg17
S'Y'
sg14
I5
sg19
(lp1832
S'space'
p1833
asg95
I4
sa(dp1834
g16
(lp1835
S'd'
asg18
S'N'
sS'.thisRepN'
p1836
I14
sg20
S'Y'
sg32
g33
sS'.thisTrialN'
p1837
I9
sS'.thisN'
p1838
I219
sS'.thisIndex'
p1839
I11
sg15
(lp1840
S'd'
asg30
g31
sg17
S'Y'
sg14
I5
sg19
Nsg95
I11
sa(dp1841
g16
(lp1842
S'd'
asg18
S'N'
sS'.thisRepN'
p1843
I14
sg20
S'Y'
sg32
g33
sS'.thisTrialN'
p1844
I10
sS'.thisN'
p1845
I220
sS'.thisIndex'
p1846
I9
sg15
(lp1847
S'd'
asg30
g31
sg17
S'Y'
sg14
I5
sg19
Nsg95
I9
sa(dp1848
g16
(lp1849
S'd'
asg18
S'Y'
sS'.thisRepN'
p1850
I14
sg20
S'N'
sg32
g33
sS'.thisTrialN'
p1851
I11
sS'.thisN'
p1852
I221
sS'.thisIndex'
p1853
I5
sg15
(lp1854
S'k'
asg30
g31
sg17
S'N'
sg14
I5
sg19
Nsg95
I5
sa(dp1855
g16
(lp1856
S'd'
asg18
S'N'
sS'.thisRepN'
p1857
I14
sg20
S'Y'
sg32
g33
sS'.thisTrialN'
p1858
I12
sS'.thisN'
p1859
I222
sS'.thisIndex'
p1860
I10
sg15
(lp1861
S'k'
asg30
g31
sg17
S'N'
sg14
I5
sg19
Nsg95
I10
sa(dp1862
g16
(lp1863
S'k'
asg18
S'Y'
sS'.thisRepN'
p1864
I14
sg20
S'Y'
sg32
g33
sS'.thisTrialN'
p1865
I13
sS'.thisN'
p1866
I223
sS'.thisIndex'
p1867
I12
sg15
(lp1868
S'k'
asg30
g31
sg17
S'Y'
sg14
I5
sg19
(lp1869
S'space'
p1870
asg95
I12
sa(dp1871
g16
(lp1872
S'd'
asg18
S'Y'
sS'.thisRepN'
p1873
I14
sg20
S'Y'
sg32
g33
sS'.thisTrialN'
p1874
I14
sS'.thisN'
p1875
I224
sS'.thisIndex'
p1876
I6
sg15
(lp1877
S'd'
asg30
g31
sg17
S'Y'
sg14
I5
sg19
(lp1878
S'space'
p1879
asg95
I6
sa(dp1880
g16
(lp1881
S'k'
asg18
S'N'
sS'.thisRepN'
p1882
I15
sg20
S'Y'
sg32
g33
sS'.thisTrialN'
p1883
I0
sS'.thisN'
p1884
I225
sS'.thisIndex'
p1885
I5
sg15
(lp1886
S'd'
asg30
g31
sg17
S'N'
sg14
I5
sg19
Nsg95
I5
sa(dp1887
g16
(lp1888
S'k'
asg18
S'N'
sS'.thisRepN'
p1889
I15
sg20
S'Y'
sg32
g33
sS'.thisTrialN'
p1890
I1
sS'.thisN'
p1891
I226
sS'.thisIndex'
p1892
I1
sg15
(lp1893
S'k'
asg30
g31
sg17
S'Y'
sg14
I5
sg19
Nsg95
I1
sa(dp1894
g16
(lp1895
S'k'
asg18
S'N'
sS'.thisRepN'
p1896
I15
sg20
S'Y'
sg32
g33
sS'.thisTrialN'
p1897
I2
sS'.thisN'
p1898
I227
sS'.thisIndex'
p1899
I2
sg15
(lp1900
S'k'
asg30
g31
sg17
S'Y'
sg14
I5
sg19
Nsg95
I2
sa(dp1901
g16
(lp1902
S'k'
asg18
S'Y'
sS'.thisRepN'
p1903
I15
sg20
S'Y'
sg32
g33
sS'.thisTrialN'
p1904
I3
sS'.thisN'
p1905
I228
sS'.thisIndex'
p1906
I8
sg15
(lp1907
S'd'
asg30
g31
sg17
S'N'
sg14
I5
sg19
(lp1908
S'space'
p1909
asg95
I8
sa(dp1910
g16
(lp1911
S'k'
asg18
S'Y'
sS'.thisRepN'
p1912
I15
sg20
S'Y'
sg32
g33
sS'.thisTrialN'
p1913
I4
sS'.thisN'
p1914
I229
sS'.thisIndex'
p1915
I1
sg15
(lp1916
S'k'
asg30
g31
sg17
S'Y'
sg14
I5
sg19
(lp1917
S'space'
p1918
asg95
I1
sa(dp1919
g16
(lp1920
S'd'
asg18
S'Y'
sS'.thisRepN'
p1921
I15
sg20
S'Y'
sg32
g33
sS'.thisTrialN'
p1922
I5
sS'.thisN'
p1923
I230
sS'.thisIndex'
p1924
I12
sg15
(lp1925
S'd'
asg30
g31
sg17
S'Y'
sg14
I5
sg19
(lp1926
S'space'
p1927
asg95
I12
sa(dp1928
g16
(lp1929
S'd'
asg18
S'N'
sS'.thisRepN'
p1930
I15
sg20
S'Y'
sg32
g33
sS'.thisTrialN'
p1931
I6
sS'.thisN'
p1932
I231
sS'.thisIndex'
p1933
I14
sg15
(lp1934
S'd'
asg30
g31
sg17
S'Y'
sg14
I5
sg19
Nsg95
I14
sa(dp1935
g16
(lp1936
S'k'
asg18
S'Y'
sS'.thisRepN'
p1937
I15
sg20
S'Y'
sg32
g33
sS'.thisTrialN'
p1938
I7
sS'.thisN'
p1939
I232
sS'.thisIndex'
p1940
I1
sg15
(lp1941
S'k'
asg30
g31
sg17
S'Y'
sg14
I5
sg19
(lp1942
S'space'
p1943
asg95
I1
sa(dp1944
g16
(lp1945
S'k'
asg18
S'N'
sS'.thisRepN'
p1946
I15
sg20
S'Y'
sg32
g33
sS'.thisTrialN'
p1947
I8
sS'.thisN'
p1948
I233
sS'.thisIndex'
p1949
I7
sg15
(lp1950
S'k'
asg30
g31
sg17
S'Y'
sg14
I5
sg19
Nsg95
I7
sa(dp1951
g16
(lp1952
S'd'
asg18
S'N'
sS'.thisRepN'
p1953
I15
sg20
S'N'
sg32
g33
sS'.thisTrialN'
p1954
I9
sS'.thisN'
p1955
I234
sS'.thisIndex'
p1956
I1
sg15
(lp1957
S'd'
asg30
g31
sg17
S'Y'
sg14
I5
sg19
(lp1958
S'space'
p1959
asg95
I1
sa(dp1960
g16
(lp1961
S'd'
asg18
S'N'
sS'.thisRepN'
p1962
I15
sg20
S'Y'
sg32
g33
sS'.thisTrialN'
p1963
I10
sS'.thisN'
p1964
I235
sS'.thisIndex'
p1965
I0
sg15
(lp1966
S'd'
asg30
g31
sg17
S'Y'
sg14
I5
sg19
Nsg95
I0
sa(dp1967
g16
(lp1968
S'k'
asg18
S'Y'
sS'.thisRepN'
p1969
I15
sg20
S'N'
sg32
g33
sS'.thisTrialN'
p1970
I11
sS'.thisN'
p1971
I236
sS'.thisIndex'
p1972
I0
sg15
(lp1973
S'k'
asg30
g31
sg17
S'Y'
sg14
I5
sg19
Nsg95
I0
sa(dp1974
g16
(lp1975
S'k'
asg18
S'Y'
sS'.thisRepN'
p1976
I15
sg20
S'Y'
sg32
g33
sS'.thisTrialN'
p1977
I12
sS'.thisN'
p1978
I237
sS'.thisIndex'
p1979
I5
sg15
(lp1980
S'd'
asg30
g31
sg17
S'N'
sg14
I5
sg19
(lp1981
S'space'
p1982
asg95
I5
sa(dp1983
g16
(lp1984
S'k'
asg18
S'Y'
sS'.thisRepN'
p1985
I15
sg20
S'N'
sg32
g33
sS'.thisTrialN'
p1986
I13
sS'.thisN'
p1987
I238
sS'.thisIndex'
p1988
I3
sg15
(lp1989
S'd'
asg30
g31
sg17
S'N'
sg14
I5
sg19
Nsg95
I3
sa(dp1990
g16
(lp1991
S'd'
asg18
S'N'
sS'.thisRepN'
p1992
I15
sg20
S'N'
sg32
g33
sS'.thisTrialN'
p1993
I14
sS'.thisN'
p1994
I239
sS'.thisIndex'
p1995
I14
sg15
(lp1996
S'k'
asg30
g31
sg17
S'N'
sg14
I5
sg19
(lp1997
S'space'
p1998
asg95
I14
sa(dp1999
g16
(lp2000
S'k'
asg18
S'N'
sS'.thisRepN'
p2001
I16
sg20
S'Y'
sg32
g33
sS'.thisTrialN'
p2002
I0
sS'.thisN'
p2003
I240
sS'.thisIndex'
p2004
I11
sg15
(lp2005
S'k'
asg30
g31
sg17
S'Y'
sg14
I5
sg19
Nsg95
I11
sa(dp2006
g16
(lp2007
S'k'
asg18
S'N'
sS'.thisRepN'
p2008
I16
sg20
S'Y'
sg32
g33
sS'.thisTrialN'
p2009
I1
sS'.thisN'
p2010
I241
sS'.thisIndex'
p2011
I3
sg15
(lp2012
S'k'
asg30
g31
sg17
S'Y'
sg14
I5
sg19
Nsg95
I3
sa(dp2013
g16
(lp2014
S'k'
asg18
S'Y'
sS'.thisRepN'
p2015
I16
sg20
S'Y'
sg32
g33
sS'.thisTrialN'
p2016
I2
sS'.thisN'
p2017
I242
sS'.thisIndex'
p2018
I0
sg15
(lp2019
S'k'
asg30
g31
sg17
S'Y'
sg14
I5
sg19
(lp2020
S'space'
p2021
asg95
I0
sa(dp2022
g16
(lp2023
S'k'
asg18
S'Y'
sS'.thisRepN'
p2024
I16
sg20
S'Y'
sg32
g33
sS'.thisTrialN'
p2025
I3
sS'.thisN'
p2026
I243
sS'.thisIndex'
p2027
I1
sg15
(lp2028
S'd'
asg30
g31
sg17
S'N'
sg14
I5
sg19
(lp2029
S'space'
p2030
asg95
I1
sa(dp2031
g16
(lp2032
S'k'
asg18
S'Y'
sS'.thisRepN'
p2033
I16
sg20
S'N'
sg32
g33
sS'.thisTrialN'
p2034
I4
sS'.thisN'
p2035
I244
sS'.thisIndex'
p2036
I13
sg15
(lp2037
S'k'
asg30
g31
sg17
S'Y'
sg14
I5
sg19
Nsg95
I13
sa(dp2038
g16
(lp2039
S'k'
asg18
S'Y'
sS'.thisRepN'
p2040
I16
sg20
S'Y'
sg32
g33
sS'.thisTrialN'
p2041
I5
sS'.thisN'
p2042
I245
sS'.thisIndex'
p2043
I0
sg15
(lp2044
S'k'
asg30
g31
sg17
S'Y'
sg14
I5
sg19
(lp2045
S'space'
p2046
asg95
I0
sa(dp2047
g16
(lp2048
S'd'
asg18
S'Y'
sS'.thisRepN'
p2049
I16
sg20
S'Y'
sg32
g33
sS'.thisTrialN'
p2050
I6
sS'.thisN'
p2051
I246
sS'.thisIndex'
p2052
I13
sg15
(lp2053
S'd'
asg30
g31
sg17
S'Y'
sg14
I5
sg19
(lp2054
S'space'
p2055
asg95
I13
sa(dp2056
g16
(lp2057
S'k'
asg18
S'Y'
sS'.thisRepN'
p2058
I16
sg20
S'Y'
sg32
g33
sS'.thisTrialN'
p2059
I7
sS'.thisN'
p2060
I247
sS'.thisIndex'
p2061
I7
sg15
(lp2062
S'k'
asg30
g31
sg17
S'Y'
sg14
I5
sg19
(lp2063
S'space'
p2064
asg95
I7
sa(dp2065
g16
(lp2066
S'k'
asg18
S'N'
sS'.thisRepN'
p2067
I16
sg20
S'Y'
sg32
g33
sS'.thisTrialN'
p2068
I8
sS'.thisN'
p2069
I248
sS'.thisIndex'
p2070
I1
sg15
(lp2071
S'd'
asg30
g31
sg17
S'N'
sg14
I5
sg19
Nsg95
I1
sa(dp2072
g16
(lp2073
S'd'
asg18
S'N'
sg22
I40
sS'.thisN'
p2074
I249
sg20
S'Y'
sg32
g33
sS'.thisTrialN'
p2075
I9
sS'.thisRepN'
p2076
I16
sg21
I36
sS'.thisIndex'
p2077
I3
sg23
I25
sg15
(lp2078
S'd'
asg30
g31
sg17
S'Y'
sg14
I5
sg19
Nsg95
I3
sa(dp2079
g16
(lp2080
S'k'
asg95
I5
sS'.thisRepN'
p2081
I16
sg30
g31
sg32
g33
sS'.thisTrialN'
p2082
I10
sS'.thisN'
p2083
I250
sS'.thisIndex'
p2084
I5
sg15
(lp2085
S'k'
asg17
S'Y'
sg14
I6
sa(dp2086
g16
(lp2087
S'd'
asg95
I10
sS'.thisRepN'
p2088
I16
sg30
g31
sg32
g33
sS'.thisTrialN'
p2089
I11
sS'.thisN'
p2090
I251
sS'.thisIndex'
p2091
I10
sg15
(lp2092
S'd'
asg17
S'Y'
sg14
I6
sa(dp2093
g16
(lp2094
S'd'
asg18
S'N'
sS'.thisRepN'
p2095
I16
sg20
S'Y'
sg32
g33
sS'.thisTrialN'
p2096
I12
sS'.thisN'
p2097
I252
sS'.thisIndex'
p2098
I0
sg15
(lp2099
S'd'
asg30
g31
sg17
S'Y'
sg14
I6
sg19
Nsg95
I0
sa(dp2100
g16
(lp2101
S'k'
asg18
S'N'
sS'.thisRepN'
p2102
I16
sg20
S'Y'
sg32
g33
sS'.thisTrialN'
p2103
I13
sS'.thisN'
p2104
I253
sS'.thisIndex'
p2105
I4
sg15
(lp2106
S'k'
asg30
g31
sg17
S'Y'
sg14
I6
sg19
Nsg95
I4
sa(dp2107
g16
(lp2108
S'k'
asg18
S'Y'
sS'.thisRepN'
p2109
I16
sg20
S'Y'
sg32
g33
sS'.thisTrialN'
p2110
I14
sS'.thisN'
p2111
I254
sS'.thisIndex'
p2112
I2
sg15
(lp2113
S'k'
asg30
g31
sg17
S'Y'
sg14
I6
sg19
(lp2114
S'space'
p2115
asg95
I2
sa(dp2116
g16
(lp2117
S'k'
asg18
S'Y'
sS'.thisRepN'
p2118
I17
sg20
S'Y'
sg32
g33
sS'.thisTrialN'
p2119
I0
sS'.thisN'
p2120
I255
sS'.thisIndex'
p2121
I8
sg15
(lp2122
S'k'
asg30
g31
sg17
S'Y'
sg14
I6
sg19
(lp2123
S'space'
p2124
asg95
I8
sa(dp2125
g16
(lp2126
S'd'
asg18
S'Y'
sS'.thisRepN'
p2127
I17
sg20
S'Y'
sg32
g33
sS'.thisTrialN'
p2128
I1
sS'.thisN'
p2129
I256
sS'.thisIndex'
p2130
I14
sg15
(lp2131
S'd'
asg30
g31
sg17
S'Y'
sg14
I6
sg19
(lp2132
S'space'
p2133
asg95
I14
sa(dp2134
g16
(lp2135
S'd'
asg18
S'Y'
sS'.thisRepN'
p2136
I17
sg20
S'Y'
sg32
g33
sS'.thisTrialN'
p2137
I2
sS'.thisN'
p2138
I257
sS'.thisIndex'
p2139
I6
sg15
(lp2140
S'd'
asg30
g31
sg17
S'Y'
sg14
I6
sg19
(lp2141
S'space'
p2142
asg95
I6
sa(dp2143
g16
(lp2144
S'k'
asg18
S'N'
sS'.thisRepN'
p2145
I17
sg20
S'Y'
sg32
g33
sS'.thisTrialN'
p2146
I3
sS'.thisN'
p2147
I258
sS'.thisIndex'
p2148
I9
sg15
(lp2149
S'k'
asg30
g31
sg17
S'Y'
sg14
I6
sg19
Nsg95
I9
sa(dp2150
g16
(lp2151
S'd'
asg18
S'Y'
sS'.thisRepN'
p2152
I17
sg20
S'Y'
sg32
g33
sS'.thisTrialN'
p2153
I4
sS'.thisN'
p2154
I259
sS'.thisIndex'
p2155
I6
sg15
(lp2156
S'd'
asg30
g31
sg17
S'Y'
sg14
I6
sg19
(lp2157
S'space'
p2158
asg95
I6
sa(dp2159
g16
(lp2160
S'k'
asg18
S'Y'
sS'.thisRepN'
p2161
I17
sg20
S'Y'
sg32
g33
sS'.thisTrialN'
p2162
I5
sS'.thisN'
p2163
I260
sS'.thisIndex'
p2164
I0
sg15
(lp2165
S'k'
asg30
g31
sg17
S'Y'
sg14
I6
sg19
(lp2166
S'space'
p2167
asg95
I0
sa(dp2168
g16
(lp2169
S'd'
asg18
S'Y'
sS'.thisRepN'
p2170
I17
sg20
S'Y'
sg32
g33
sS'.thisTrialN'
p2171
I6
sS'.thisN'
p2172
I261
sS'.thisIndex'
p2173
I7
sg15
(lp2174
S'k'
asg30
g31
sg17
S'N'
sg14
I6
sg19
(lp2175
S'space'
p2176
asg95
I7
sa(dp2177
g16
(lp2178
S'd'
asg18
S'N'
sS'.thisRepN'
p2179
I17
sg20
S'Y'
sg32
g33
sS'.thisTrialN'
p2180
I7
sS'.thisN'
p2181
I262
sS'.thisIndex'
p2182
I13
sg15
(lp2183
S'd'
asg30
g31
sg17
S'Y'
sg14
I6
sg19
Nsg95
I13
sa(dp2184
g16
(lp2185
S'd'
asg18
S'Y'
sS'.thisRepN'
p2186
I17
sg20
S'Y'
sg32
g33
sS'.thisTrialN'
p2187
I8
sS'.thisN'
p2188
I263
sS'.thisIndex'
p2189
I5
sg15
(lp2190
S'd'
asg30
g31
sg17
S'Y'
sg14
I6
sg19
(lp2191
S'space'
p2192
asg95
I5
sa(dp2193
g16
(lp2194
S'd'
asg18
S'N'
sS'.thisRepN'
p2195
I17
sg20
S'Y'
sg32
g33
sS'.thisTrialN'
p2196
I9
sS'.thisN'
p2197
I264
sS'.thisIndex'
p2198
I9
sg15
(lp2199
S'd'
asg30
g31
sg17
S'Y'
sg14
I6
sg19
Nsg95
I9
sa(dp2200
g16
(lp2201
S'd'
asg18
S'N'
sS'.thisRepN'
p2202
I17
sg20
S'Y'
sg32
g33
sS'.thisTrialN'
p2203
I10
sS'.thisN'
p2204
I265
sS'.thisIndex'
p2205
I14
sg15
(lp2206
S'k'
asg30
g31
sg17
S'N'
sg14
I6
sg19
Nsg95
I14
sa(dp2207
g16
(lp2208
S'k'
asg18
S'N'
sS'.thisRepN'
p2209
I17
sg20
S'N'
sg32
g33
sS'.thisTrialN'
p2210
I11
sS'.thisN'
p2211
I266
sS'.thisIndex'
p2212
I13
sg15
(lp2213
S'k'
asg30
g31
sg17
S'Y'
sg14
I6
sg19
(lp2214
S'space'
p2215
asg95
I13
sa(dp2216
g16
(lp2217
S'd'
asg18
S'N'
sS'.thisRepN'
p2218
I17
sg20
S'N'
sg32
g33
sS'.thisTrialN'
p2219
I12
sS'.thisN'
p2220
I267
sS'.thisIndex'
p2221
I4
sg15
(lp2222
S'd'
asg30
g31
sg17
S'Y'
sg14
I6
sg19
(lp2223
S'space'
p2224
asg95
I4
sa(dp2225
g16
(lp2226
S'd'
asg18
S'Y'
sS'.thisRepN'
p2227
I17
sg20
S'Y'
sg32
g33
sS'.thisTrialN'
p2228
I13
sS'.thisN'
p2229
I268
sS'.thisIndex'
p2230
I10
sg15
(lp2231
S'd'
asg30
g31
sg17
S'Y'
sg14
I6
sg19
(lp2232
S'space'
p2233
asg95
I10
sa(dp2234
g16
(lp2235
S'k'
asg18
S'N'
sS'.thisRepN'
p2236
I17
sg20
S'Y'
sg32
g33
sS'.thisTrialN'
p2237
I14
sS'.thisN'
p2238
I269
sS'.thisIndex'
p2239
I11
sg15
(lp2240
S'k'
asg30
g31
sg17
S'Y'
sg14
I6
sg19
Nsg95
I11
sa(dp2241
g16
(lp2242
S'k'
asg18
S'Y'
sS'.thisRepN'
p2243
I18
sg20
S'Y'
sg32
g33
sS'.thisTrialN'
p2244
I0
sS'.thisN'
p2245
I270
sS'.thisIndex'
p2246
I7
sg15
(lp2247
S'k'
asg30
g31
sg17
S'Y'
sg14
I6
sg19
(lp2248
S'space'
p2249
asg95
I7
sa(dp2250
g16
(lp2251
S'd'
asg18
S'Y'
sS'.thisRepN'
p2252
I18
sg20
S'N'
sg32
g33
sS'.thisTrialN'
p2253
I1
sS'.thisN'
p2254
I271
sS'.thisIndex'
p2255
I7
sg15
(lp2256
S'k'
asg30
g31
sg17
S'N'
sg14
I6
sg19
Nsg95
I7
sa(dp2257
g16
(lp2258
S'd'
asg18
S'Y'
sS'.thisRepN'
p2259
I18
sg20
S'Y'
sg32
g33
sS'.thisTrialN'
p2260
I2
sS'.thisN'
p2261
I272
sS'.thisIndex'
p2262
I1
sg15
(lp2263
S'd'
asg30
g31
sg17
S'Y'
sg14
I6
sg19
(lp2264
S'space'
p2265
asg95
I1
sa(dp2266
g16
(lp2267
S'd'
asg18
S'N'
sS'.thisRepN'
p2268
I18
sg20
S'Y'
sg32
g33
sS'.thisTrialN'
p2269
I3
sS'.thisN'
p2270
I273
sS'.thisIndex'
p2271
I11
sg15
(lp2272
S'd'
asg30
g31
sg17
S'Y'
sg14
I6
sg19
Nsg95
I11
sa(dp2273
g16
(lp2274
S'k'
asg18
S'N'
sS'.thisRepN'
p2275
I18
sg20
S'Y'
sg32
g33
sS'.thisTrialN'
p2276
I4
sS'.thisN'
p2277
I274
sS'.thisIndex'
p2278
I3
sg15
(lp2279
S'd'
asg30
g31
sg17
S'N'
sg14
I6
sg19
Nsg95
I3
sa(dp2280
g16
(lp2281
S'k'
asg18
S'N'
sS'.thisRepN'
p2282
I18
sg20
S'Y'
sg32
g33
sS'.thisTrialN'
p2283
I5
sS'.thisN'
p2284
I275
sS'.thisIndex'
p2285
I6
sg15
(lp2286
S'd'
asg30
g31
sg17
S'N'
sg14
I6
sg19
Nsg95
I6
sa(dp2287
g16
(lp2288
S'k'
asg18
S'Y'
sS'.thisRepN'
p2289
I18
sg20
S'Y'
sg32
g33
sS'.thisTrialN'
p2290
I6
sS'.thisN'
p2291
I276
sS'.thisIndex'
p2292
I14
sg15
(lp2293
S'k'
asg30
g31
sg17
S'Y'
sg14
I6
sg19
(lp2294
S'space'
p2295
asg95
I14
sa(dp2296
g16
(lp2297
S'd'
asg18
S'Y'
sS'.thisRepN'
p2298
I18
sg20
S'Y'
sg32
g33
sS'.thisTrialN'
p2299
I7
sS'.thisN'
p2300
I277
sS'.thisIndex'
p2301
I2
sg15
(lp2302
S'd'
asg30
g31
sg17
S'Y'
sg14
I6
sg19
(lp2303
S'space'
p2304
asg95
I2
sa(dp2305
g16
(lp2306
S'd'
asg18
S'N'
sS'.thisRepN'
p2307
I18
sg20
S'N'
sg32
g33
sS'.thisTrialN'
p2308
I8
sS'.thisN'
p2309
I278
sS'.thisIndex'
p2310
I6
sg15
(lp2311
S'd'
asg30
g31
sg17
S'Y'
sg14
I6
sg19
(lp2312
S'space'
p2313
asg95
I6
sa(dp2314
g16
(lp2315
S'd'
asg18
S'Y'
sS'.thisRepN'
p2316
I18
sg20
S'Y'
sg32
g33
sS'.thisTrialN'
p2317
I9
sS'.thisN'
p2318
I279
sS'.thisIndex'
p2319
I9
sg15
(lp2320
S'd'
asg30
g31
sg17
S'Y'
sg14
I6
sg19
(lp2321
S'space'
p2322
asg95
I9
sa(dp2323
g16
(lp2324
S'd'
asg18
S'Y'
sS'.thisRepN'
p2325
I18
sg20
S'Y'
sg32
g33
sS'.thisTrialN'
p2326
I10
sS'.thisN'
p2327
I280
sS'.thisIndex'
p2328
I0
sg15
(lp2329
S'd'
asg30
g31
sg17
S'Y'
sg14
I6
sg19
(lp2330
S'space'
p2331
asg95
I0
sa(dp2332
g16
(lp2333
S'k'
asg18
S'N'
sS'.thisRepN'
p2334
I18
sg20
S'N'
sg32
g33
sS'.thisTrialN'
p2335
I11
sS'.thisN'
p2336
I281
sS'.thisIndex'
p2337
I5
sg15
(lp2338
S'k'
asg30
g31
sg17
S'Y'
sg14
I6
sg19
(lp2339
S'space'
p2340
asg95
I5
sa(dp2341
g16
(lp2342
S'k'
asg18
S'Y'
sS'.thisRepN'
p2343
I18
sg20
S'Y'
sg32
g33
sS'.thisTrialN'
p2344
I12
sS'.thisN'
p2345
I282
sS'.thisIndex'
p2346
I8
sg15
(lp2347
S'k'
asg30
g31
sg17
S'Y'
sg14
I6
sg19
(lp2348
S'space'
p2349
asg95
I8
sa(dp2350
g16
(lp2351
S'k'
asg18
S'Y'
sS'.thisRepN'
p2352
I18
sg20
S'N'
sg32
g33
sS'.thisTrialN'
p2353
I13
sS'.thisN'
p2354
I283
sS'.thisIndex'
p2355
I2
sg15
(lp2356
S'k'
asg30
g31
sg17
S'Y'
sg14
I6
sg19
Nsg95
I2
sa(dp2357
g16
(lp2358
S'k'
asg18
S'N'
sS'.thisRepN'
p2359
I18
sg20
S'N'
sg32
g33
sS'.thisTrialN'
p2360
I14
sS'.thisN'
p2361
I284
sS'.thisIndex'
p2362
I11
sg15
(lp2363
S'd'
asg30
g31
sg17
S'N'
sg14
I6
sg19
(lp2364
S'd'
asg95
I11
sa(dp2365
g16
(lp2366
S'k'
asg18
S'Y'
sS'.thisRepN'
p2367
I19
sg20
S'N'
sg32
g33
sS'.thisTrialN'
p2368
I0
sS'.thisN'
p2369
I285
sS'.thisIndex'
p2370
I2
sg15
(lp2371
S'k'
asg30
g31
sg17
S'Y'
sg14
I6
sg19
Nsg95
I2
sa(dp2372
g16
(lp2373
S'k'
asg18
S'Y'
sS'.thisRepN'
p2374
I19
sg20
S'Y'
sg32
g33
sS'.thisTrialN'
p2375
I1
sS'.thisN'
p2376
I286
sS'.thisIndex'
p2377
I10
sg15
(lp2378
S'k'
asg30
g31
sg17
S'Y'
sg14
I6
sg19
(lp2379
S'space'
p2380
asg95
I10
sa(dp2381
g16
(lp2382
S'd'
asg18
S'Y'
sS'.thisRepN'
p2383
I19
sg20
S'Y'
sg32
g33
sS'.thisTrialN'
p2384
I2
sS'.thisN'
p2385
I287
sS'.thisIndex'
p2386
I11
sg15
(lp2387
S'd'
asg30
g31
sg17
S'Y'
sg14
I6
sg19
(lp2388
S'space'
p2389
asg95
I11
sa(dp2390
g16
(lp2391
S'k'
asg18
S'N'
sS'.thisRepN'
p2392
I19
sg20
S'Y'
sg32
g33
sS'.thisTrialN'
p2393
I3
sS'.thisN'
p2394
I288
sS'.thisIndex'
p2395
I2
sg15
(lp2396
S'k'
asg30
g31
sg17
S'Y'
sg14
I6
sg19
Nsg95
I2
sa(dp2397
g16
(lp2398
S'd'
asg18
S'Y'
sS'.thisRepN'
p2399
I19
sg20
S'N'
sg32
g33
sS'.thisTrialN'
p2400
I4
sS'.thisN'
p2401
I289
sS'.thisIndex'
p2402
I7
sg15
(lp2403
S'd'
asg30
g31
sg17
S'Y'
sg14
I6
sg19
Nsg95
I7
sa(dp2404
g16
(lp2405
S'd'
asg18
S'N'
sS'.thisRepN'
p2406
I19
sg20
S'Y'
sg32
g33
sS'.thisTrialN'
p2407
I5
sS'.thisN'
p2408
I290
sS'.thisIndex'
p2409
I0
sg15
(lp2410
S'k'
asg30
g31
sg17
S'N'
sg14
I6
sg19
Nsg95
I0
sa(dp2411
g16
(lp2412
S'k'
asg18
S'N'
sS'.thisRepN'
p2413
I19
sg20
S'N'
sg32
g33
sS'.thisTrialN'
p2414
I6
sS'.thisN'
p2415
I291
sS'.thisIndex'
p2416
I13
sg15
(lp2417
S'k'
asg30
g31
sg17
S'Y'
sg14
I6
sg19
(lp2418
S'space'
p2419
asg95
I13
sa(dp2420
g16
(lp2421
S'd'
asg18
S'Y'
sS'.thisRepN'
p2422
I19
sg20
S'Y'
sg32
g33
sS'.thisTrialN'
p2423
I7
sS'.thisN'
p2424
I292
sS'.thisIndex'
p2425
I8
sg15
(lp2426
S'd'
asg30
g31
sg17
S'Y'
sg14
I6
sg19
(lp2427
S'space'
p2428
asg95
I8
sa(dp2429
g16
(lp2430
S'k'
asg18
S'Y'
sS'.thisRepN'
p2431
I19
sg20
S'Y'
sg32
g33
sS'.thisTrialN'
p2432
I8
sS'.thisN'
p2433
I293
sS'.thisIndex'
p2434
I7
sg15
(lp2435
S'k'
asg30
g31
sg17
S'Y'
sg14
I6
sg19
(lp2436
S'space'
p2437
asg95
I7
sa(dp2438
g16
(lp2439
S'd'
asg18
S'Y'
sS'.thisRepN'
p2440
I19
sg20
S'N'
sg32
g33
sS'.thisTrialN'
p2441
I9
sS'.thisN'
p2442
I294
sS'.thisIndex'
p2443
I2
sg15
(lp2444
S'd'
asg30
g31
sg17
S'Y'
sg14
I6
sg19
Nsg95
I2
sa(dp2445
g16
(lp2446
S'k'
asg18
S'N'
sS'.thisRepN'
p2447
I19
sg20
S'N'
sg32
g33
sS'.thisTrialN'
p2448
I10
sS'.thisN'
p2449
I295
sS'.thisIndex'
p2450
I9
sg15
(lp2451
S'k'
asg30
g31
sg17
S'Y'
sg14
I6
sg19
(lp2452
S'space'
p2453
asg95
I9
sa(dp2454
g16
(lp2455
S'd'
asg18
S'N'
sS'.thisRepN'
p2456
I19
sg20
S'N'
sg32
g33
sS'.thisTrialN'
p2457
I11
sS'.thisN'
p2458
I296
sS'.thisIndex'
p2459
I12
sg15
(lp2460
S'k'
asg30
g31
sg17
S'N'
sg14
I6
sg19
(lp2461
S'd'
asg95
I12
sa(dp2462
g16
(lp2463
S'd'
asg18
S'N'
sS'.thisRepN'
p2464
I19
sg20
S'Y'
sg32
g33
sS'.thisTrialN'
p2465
I12
sS'.thisN'
p2466
I297
sS'.thisIndex'
p2467
I7
sg15
(lp2468
S'd'
asg30
g31
sg17
S'Y'
sg14
I6
sg19
Nsg95
I7
sa(dp2469
g16
(lp2470
S'd'
asg18
S'N'
sS'.thisRepN'
p2471
I19
sg20
S'N'
sg32
g33
sS'.thisTrialN'
p2472
I13
sS'.thisN'
p2473
I298
sS'.thisIndex'
p2474
I7
sg15
(lp2475
S'd'
asg30
g31
sg17
S'Y'
sg14
I6
sg19
(lp2476
S'space'
p2477
asg95
I7
sa(dp2478
g16
(lp2479
S'd'
asg18
S'N'
sg22
I34
sS'.thisN'
p2480
I299
sg20
S'Y'
sg32
g33
sS'.thisTrialN'
p2481
I14
sS'.thisRepN'
p2482
I19
sg21
I42
sS'.thisIndex'
p2483
I7
sg23
I25
sg15
(lp2484
S'd'
asg30
g31
sg17
S'Y'
sg14
I6
sg19
Nsg95
I7
sa(dp2485
g16
(lp2486
S'k'
asg95
I0
sS'.thisRepN'
p2487
I20
sg30
g31
sg32
g33
sS'.thisTrialN'
p2488
I0
sS'.thisN'
p2489
I300
sS'.thisIndex'
p2490
I0
sg15
(lp2491
S'k'
asg17
S'Y'
sg14
I7
sa(dp2492
g16
(lp2493
S'd'
asg95
I9
sS'.thisRepN'
p2494
I20
sg30
g31
sg32
g33
sS'.thisTrialN'
p2495
I1
sS'.thisN'
p2496
I301
sS'.thisIndex'
p2497
I9
sg15
(lp2498
S'd'
asg17
S'Y'
sg14
I7
sa(dp2499
g16
(lp2500
S'd'
asg18
S'N'
sS'.thisRepN'
p2501
I20
sg20
S'Y'
sg32
g33
sS'.thisTrialN'
p2502
I2
sS'.thisN'
p2503
I302
sS'.thisIndex'
p2504
I5
sg15
(lp2505
S'd'
asg30
g31
sg17
S'Y'
sg14
I7
sg19
Nsg95
I5
sa(dp2506
g16
(lp2507
S'd'
asg18
S'Y'
sS'.thisRepN'
p2508
I20
sg20
S'Y'
sg32
g33
sS'.thisTrialN'
p2509
I3
sS'.thisN'
p2510
I303
sS'.thisIndex'
p2511
I13
sg15
(lp2512
S'd'
asg30
g31
sg17
S'Y'
sg14
I7
sg19
(lp2513
S'space'
p2514
asg95
I13
sa(dp2515
g16
(lp2516
S'k'
asg18
S'N'
sS'.thisRepN'
p2517
I20
sg20
S'Y'
sg32
g33
sS'.thisTrialN'
p2518
I4
sS'.thisN'
p2519
I304
sS'.thisIndex'
p2520
I11
sg15
(lp2521
S'd'
asg30
g31
sg17
S'N'
sg14
I7
sg19
Nsg95
I11
sa(dp2522
g16
(lp2523
S'd'
asg18
S'N'
sS'.thisRepN'
p2524
I20
sg20
S'Y'
sg32
g33
sS'.thisTrialN'
p2525
I5
sS'.thisN'
p2526
I305
sS'.thisIndex'
p2527
I2
sg15
(lp2528
S'd'
asg30
g31
sg17
S'Y'
sg14
I7
sg19
Nsg95
I2
sa(dp2529
g16
(lp2530
S'd'
asg18
S'Y'
sS'.thisRepN'
p2531
I20
sg20
S'Y'
sg32
g33
sS'.thisTrialN'
p2532
I6
sS'.thisN'
p2533
I306
sS'.thisIndex'
p2534
I14
sg15
(lp2535
S'd'
asg30
g31
sg17
S'Y'
sg14
I7
sg19
(lp2536
S'space'
p2537
asg95
I14
sa(dp2538
g16
(lp2539
S'd'
asg18
S'Y'
sS'.thisRepN'
p2540
I20
sg20
S'Y'
sg32
g33
sS'.thisTrialN'
p2541
I7
sS'.thisN'
p2542
I307
sS'.thisIndex'
p2543
I12
sg15
(lp2544
S'd'
asg30
g31
sg17
S'Y'
sg14
I7
sg19
(lp2545
S'space'
p2546
asg95
I12
sa(dp2547
g16
(lp2548
S'k'
asg18
S'Y'
sS'.thisRepN'
p2549
I20
sg20
S'Y'
sg32
g33
sS'.thisTrialN'
p2550
I8
sS'.thisN'
p2551
I308
sS'.thisIndex'
p2552
I7
sg15
(lp2553
S'k'
asg30
g31
sg17
S'Y'
sg14
I7
sg19
(lp2554
S'space'
p2555
asg95
I7
sa(dp2556
g16
(lp2557
S'k'
asg18
S'Y'
sS'.thisRepN'
p2558
I20
sg20
S'N'
sg32
g33
sS'.thisTrialN'
p2559
I9
sS'.thisN'
p2560
I309
sS'.thisIndex'
p2561
I5
sg15
(lp2562
S'd'
asg30
g31
sg17
S'N'
sg14
I7
sg19
Nsg95
I5
sa(dp2563
g16
(lp2564
S'k'
asg18
S'N'
sS'.thisRepN'
p2565
I20
sg20
S'Y'
sg32
g33
sS'.thisTrialN'
p2566
I10
sS'.thisN'
p2567
I310
sS'.thisIndex'
p2568
I7
sg15
(lp2569
S'd'
asg30
g31
sg17
S'N'
sg14
I7
sg19
Nsg95
I7
sa(dp2570
g16
(lp2571
S'd'
asg18
S'Y'
sS'.thisRepN'
p2572
I20
sg20
S'Y'
sg32
g33
sS'.thisTrialN'
p2573
I11
sS'.thisN'
p2574
I311
sS'.thisIndex'
p2575
I3
sg15
(lp2576
S'd'
asg30
g31
sg17
S'Y'
sg14
I7
sg19
(lp2577
S'space'
p2578
asg95
I3
sa(dp2579
g16
(lp2580
S'd'
asg18
S'N'
sS'.thisRepN'
p2581
I20
sg20
S'Y'
sg32
g33
sS'.thisTrialN'
p2582
I12
sS'.thisN'
p2583
I312
sS'.thisIndex'
p2584
I8
sg15
(lp2585
S'd'
asg30
g31
sg17
S'Y'
sg14
I7
sg19
Nsg95
I8
sa(dp2586
g16
(lp2587
S'k'
asg18
S'N'
sS'.thisRepN'
p2588
I20
sg20
S'Y'
sg32
g33
sS'.thisTrialN'
p2589
I13
sS'.thisN'
p2590
I313
sS'.thisIndex'
p2591
I14
sg15
(lp2592
S'k'
asg30
g31
sg17
S'Y'
sg14
I7
sg19
Nsg95
I14
sa(dp2593
g16
(lp2594
S'd'
asg18
S'Y'
sS'.thisRepN'
p2595
I20
sg20
S'Y'
sg32
g33
sS'.thisTrialN'
p2596
I14
sS'.thisN'
p2597
I314
sS'.thisIndex'
p2598
I6
sg15
(lp2599
S'd'
asg30
g31
sg17
S'Y'
sg14
I7
sg19
(lp2600
S'space'
p2601
asg95
I6
sa(dp2602
g16
(lp2603
S'd'
asg18
S'Y'
sS'.thisRepN'
p2604
I21
sg20
S'Y'
sg32
g33
sS'.thisTrialN'
p2605
I0
sS'.thisN'
p2606
I315
sS'.thisIndex'
p2607
I1
sg15
(lp2608
S'd'
asg30
g31
sg17
S'Y'
sg14
I7
sg19
(lp2609
S'space'
p2610
asg95
I1
sa(dp2611
g16
(lp2612
S'd'
asg18
S'N'
sS'.thisRepN'
p2613
I21
sg20
S'Y'
sg32
g33
sS'.thisTrialN'
p2614
I1
sS'.thisN'
p2615
I316
sS'.thisIndex'
p2616
I12
sg15
(lp2617
S'd'
asg30
g31
sg17
S'Y'
sg14
I7
sg19
Nsg95
I12
sa(dp2618
g16
(lp2619
S'k'
asg18
S'N'
sS'.thisRepN'
p2620
I21
sg20
S'Y'
sg32
g33
sS'.thisTrialN'
p2621
I2
sS'.thisN'
p2622
I317
sS'.thisIndex'
p2623
I10
sg15
(lp2624
S'k'
asg30
g31
sg17
S'Y'
sg14
I7
sg19
Nsg95
I10
sa(dp2625
g16
(lp2626
S'd'
asg18
S'Y'
sS'.thisRepN'
p2627
I21
sg20
S'N'
sg32
g33
sS'.thisTrialN'
p2628
I3
sS'.thisN'
p2629
I318
sS'.thisIndex'
p2630
I0
sg15
(lp2631
S'd'
asg30
g31
sg17
S'Y'
sg14
I7
sg19
Nsg95
I0
sa(dp2632
g16
(lp2633
S'd'
asg18
S'Y'
sS'.thisRepN'
p2634
I21
sg20
S'Y'
sg32
g33
sS'.thisTrialN'
p2635
I4
sS'.thisN'
p2636
I319
sS'.thisIndex'
p2637
I5
sg15
(lp2638
S'd'
asg30
g31
sg17
S'Y'
sg14
I7
sg19
(lp2639
S'space'
p2640
asg95
I5
sa(dp2641
g16
(lp2642
S'd'
asg18
S'N'
sS'.thisRepN'
p2643
I21
sg20
S'Y'
sg32
g33
sS'.thisTrialN'
p2644
I5
sS'.thisN'
p2645
I320
sS'.thisIndex'
p2646
I5
sg15
(lp2647
S'd'
asg30
g31
sg17
S'Y'
sg14
I7
sg19
Nsg95
I5
sa(dp2648
g16
(lp2649
S'k'
asg18
S'N'
sS'.thisRepN'
p2650
I21
sg20
S'N'
sg32
g33
sS'.thisTrialN'
p2651
I6
sS'.thisN'
p2652
I321
sS'.thisIndex'
p2653
I5
sg15
(lp2654
S'd'
asg30
g31
sg17
S'N'
sg14
I7
sg19
(lp2655
S'space'
p2656
asg95
I5
sa(dp2657
g16
(lp2658
S'd'
asg18
S'N'
sS'.thisRepN'
p2659
I21
sg20
S'Y'
sg32
g33
sS'.thisTrialN'
p2660
I7
sS'.thisN'
p2661
I322
sS'.thisIndex'
p2662
I4
sg15
(lp2663
S'd'
asg30
g31
sg17
S'Y'
sg14
I7
sg19
Nsg95
I4
sa(dp2664
g16
(lp2665
S'd'
asg18
S'N'
sS'.thisRepN'
p2666
I21
sg20
S'N'
sg32
g33
sS'.thisTrialN'
p2667
I8
sS'.thisN'
p2668
I323
sS'.thisIndex'
p2669
I7
sg15
(lp2670
S'd'
asg30
g31
sg17
S'Y'
sg14
I7
sg19
(lp2671
S'space'
p2672
asg95
I7
sa(dp2673
g16
(lp2674
S'k'
asg18
S'Y'
sS'.thisRepN'
p2675
I21
sg20
S'Y'
sg32
g33
sS'.thisTrialN'
p2676
I9
sS'.thisN'
p2677
I324
sS'.thisIndex'
p2678
I4
sg15
(lp2679
S'k'
asg30
g31
sg17
S'Y'
sg14
I7
sg19
(lp2680
S'space'
p2681
asg95
I4
sa(dp2682
g16
(lp2683
S'd'
asg18
S'N'
sS'.thisRepN'
p2684
I21
sg20
S'Y'
sg32
g33
sS'.thisTrialN'
p2685
I10
sS'.thisN'
p2686
I325
sS'.thisIndex'
p2687
I6
sg15
(lp2688
S'd'
asg30
g31
sg17
S'Y'
sg14
I7
sg19
Nsg95
I6
sa(dp2689
g16
(lp2690
S'k'
asg18
S'N'
sS'.thisRepN'
p2691
I21
sg20
S'Y'
sg32
g33
sS'.thisTrialN'
p2692
I11
sS'.thisN'
p2693
I326
sS'.thisIndex'
p2694
I10
sg15
(lp2695
S'k'
asg30
g31
sg17
S'Y'
sg14
I7
sg19
Nsg95
I10
sa(dp2696
g16
(lp2697
S'k'
asg18
S'Y'
sS'.thisRepN'
p2698
I21
sg20
S'N'
sg32
g33
sS'.thisTrialN'
p2699
I12
sS'.thisN'
p2700
I327
sS'.thisIndex'
p2701
I3
sg15
(lp2702
S'k'
asg30
g31
sg17
S'Y'
sg14
I7
sg19
Nsg95
I3
sa(dp2703
g16
(lp2704
S'k'
asg18
S'Y'
sS'.thisRepN'
p2705
I21
sg20
S'N'
sg32
g33
sS'.thisTrialN'
p2706
I13
sS'.thisN'
p2707
I328
sS'.thisIndex'
p2708
I10
sg15
(lp2709
S'k'
asg30
g31
sg17
S'Y'
sg14
I7
sg19
Nsg95
I10
sa(dp2710
g16
(lp2711
S'd'
asg18
S'Y'
sS'.thisRepN'
p2712
I21
sg20
S'N'
sg32
g33
sS'.thisTrialN'
p2713
I14
sS'.thisN'
p2714
I329
sS'.thisIndex'
p2715
I9
sg15
(lp2716
S'd'
asg30
g31
sg17
S'Y'
sg14
I7
sg19
Nsg95
I9
sa(dp2717
g16
(lp2718
S'd'
asg18
S'N'
sS'.thisRepN'
p2719
I22
sg20
S'N'
sg32
g33
sS'.thisTrialN'
p2720
I0
sS'.thisN'
p2721
I330
sS'.thisIndex'
p2722
I14
sg15
(lp2723
S'd'
asg30
g31
sg17
S'Y'
sg14
I7
sg19
(lp2724
S'space'
p2725
asg95
I14
sa(dp2726
g16
(lp2727
S'd'
asg18
S'N'
sS'.thisRepN'
p2728
I22
sg20
S'Y'
sg32
g33
sS'.thisTrialN'
p2729
I1
sS'.thisN'
p2730
I331
sS'.thisIndex'
p2731
I4
sg15
(lp2732
S'd'
asg30
g31
sg17
S'Y'
sg14
I7
sg19
Nsg95
I4
sa(dp2733
g16
(lp2734
S'd'
asg18
S'N'
sS'.thisRepN'
p2735
I22
sg20
S'Y'
sg32
g33
sS'.thisTrialN'
p2736
I2
sS'.thisN'
p2737
I332
sS'.thisIndex'
p2738
I0
sg15
(lp2739
S'd'
asg30
g31
sg17
S'Y'
sg14
I7
sg19
Nsg95
I0
sa(dp2740
g16
(lp2741
S'd'
asg18
S'N'
sS'.thisRepN'
p2742
I22
sg20
S'N'
sg32
g33
sS'.thisTrialN'
p2743
I3
sS'.thisN'
p2744
I333
sS'.thisIndex'
p2745
I12
sg15
(lp2746
S'd'
asg30
g31
sg17
S'Y'
sg14
I7
sg19
(lp2747
S'space'
p2748
asg95
I12
sa(dp2749
g16
(lp2750
S'd'
asg18
S'N'
sS'.thisRepN'
p2751
I22
sg20
S'Y'
sg32
g33
sS'.thisTrialN'
p2752
I4
sS'.thisN'
p2753
I334
sS'.thisIndex'
p2754
I14
sg15
(lp2755
S'd'
asg30
g31
sg17
S'Y'
sg14
I7
sg19
Nsg95
I14
sa(dp2756
g16
(lp2757
S'd'
asg18
S'N'
sS'.thisRepN'
p2758
I22
sg20
S'Y'
sg32
g33
sS'.thisTrialN'
p2759
I5
sS'.thisN'
p2760
I335
sS'.thisIndex'
p2761
I3
sg15
(lp2762
S'd'
asg30
g31
sg17
S'Y'
sg14
I7
sg19
Nsg95
I3
sa(dp2763
g16
(lp2764
S'd'
asg18
S'Y'
sS'.thisRepN'
p2765
I22
sg20
S'Y'
sg32
g33
sS'.thisTrialN'
p2766
I6
sS'.thisN'
p2767
I336
sS'.thisIndex'
p2768
I0
sg15
(lp2769
S'k'
asg30
g31
sg17
S'N'
sg14
I7
sg19
(lp2770
S'space'
p2771
asg95
I0
sa(dp2772
g16
(lp2773
S'k'
asg18
S'Y'
sS'.thisRepN'
p2774
I22
sg20
S'Y'
sg32
g33
sS'.thisTrialN'
p2775
I7
sS'.thisN'
p2776
I337
sS'.thisIndex'
p2777
I0
sg15
(lp2778
S'k'
asg30
g31
sg17
S'Y'
sg14
I7
sg19
(lp2779
S'space'
p2780
asg95
I0
sa(dp2781
g16
(lp2782
S'k'
asg18
S'N'
sS'.thisRepN'
p2783
I22
sg20
S'Y'
sg32
g33
sS'.thisTrialN'
p2784
I8
sS'.thisN'
p2785
I338
sS'.thisIndex'
p2786
I14
sg15
(lp2787
S'k'
asg30
g31
sg17
S'Y'
sg14
I7
sg19
Nsg95
I14
sa(dp2788
g16
(lp2789
S'd'
asg18
S'N'
sS'.thisRepN'
p2790
I22
sg20
S'N'
sg32
g33
sS'.thisTrialN'
p2791
I9
sS'.thisN'
p2792
I339
sS'.thisIndex'
p2793
I14
sg15
(lp2794
S'd'
asg30
g31
sg17
S'Y'
sg14
I7
sg19
(lp2795
S'space'
p2796
asg95
I14
sa(dp2797
g16
(lp2798
S'd'
asg18
S'N'
sS'.thisRepN'
p2799
I22
sg20
S'Y'
sg32
g33
sS'.thisTrialN'
p2800
I10
sS'.thisN'
p2801
I340
sS'.thisIndex'
p2802
I1
sg15
(lp2803
S'd'
asg30
g31
sg17
S'Y'
sg14
I7
sg19
Nsg95
I1
sa(dp2804
g16
(lp2805
S'd'
asg18
S'N'
sS'.thisRepN'
p2806
I22
sg20
S'Y'
sg32
g33
sS'.thisTrialN'
p2807
I11
sS'.thisN'
p2808
I341
sS'.thisIndex'
p2809
I4
sg15
(lp2810
S'd'
asg30
g31
sg17
S'Y'
sg14
I7
sg19
Nsg95
I4
sa(dp2811
g16
(lp2812
S'd'
asg18
S'Y'
sS'.thisRepN'
p2813
I22
sg20
S'Y'
sg32
g33
sS'.thisTrialN'
p2814
I12
sS'.thisN'
p2815
I342
sS'.thisIndex'
p2816
I12
sg15
(lp2817
S'k'
asg30
g31
sg17
S'N'
sg14
I7
sg19
(lp2818
S'space'
p2819
asg95
I12
sa(dp2820
g16
(lp2821
S'd'
asg18
S'N'
sS'.thisRepN'
p2822
I22
sg20
S'Y'
sg32
g33
sS'.thisTrialN'
p2823
I13
sS'.thisN'
p2824
I343
sS'.thisIndex'
p2825
I11
sg15
(lp2826
S'd'
asg30
g31
sg17
S'Y'
sg14
I7
sg19
Nsg95
I11
sa(dp2827
g16
(lp2828
S'd'
asg18
S'Y'
sS'.thisRepN'
p2829
I22
sg20
S'N'
sg32
g33
sS'.thisTrialN'
p2830
I14
sS'.thisN'
p2831
I344
sS'.thisIndex'
p2832
I3
sg15
(lp2833
S'd'
asg30
g31
sg17
S'Y'
sg14
I7
sg19
Nsg95
I3
sa(dp2834
g16
(lp2835
S'k'
asg18
S'Y'
sS'.thisRepN'
p2836
I23
sg20
S'N'
sg32
g33
sS'.thisTrialN'
p2837
I0
sS'.thisN'
p2838
I345
sS'.thisIndex'
p2839
I2
sg15
(lp2840
S'k'
asg30
g31
sg17
S'Y'
sg14
I7
sg19
(lp2841
S'd'
asg95
I2
sa(dp2842
g16
(lp2843
S'd'
asg18
S'N'
sS'.thisRepN'
p2844
I23
sg20
S'Y'
sg32
g33
sS'.thisTrialN'
p2845
I1
sS'.thisN'
p2846
I346
sS'.thisIndex'
p2847
I4
sg15
(lp2848
S'd'
asg30
g31
sg17
S'Y'
sg14
I7
sg19
Nsg95
I4
sa(dp2849
g16
(lp2850
S'd'
asg18
S'N'
sS'.thisRepN'
p2851
I23
sg20
S'Y'
sg32
g33
sS'.thisTrialN'
p2852
I2
sS'.thisN'
p2853
I347
sS'.thisIndex'
p2854
I9
sg15
(lp2855
S'k'
asg30
g31
sg17
S'N'
sg14
I7
sg19
Nsg95
I9
sa(dp2856
g16
(lp2857
S'd'
asg18
S'N'
sS'.thisRepN'
p2858
I23
sg20
S'Y'
sg32
g33
sS'.thisTrialN'
p2859
I3
sS'.thisN'
p2860
I348
sS'.thisIndex'
p2861
I2
sg15
(lp2862
S'd'
asg30
g31
sg17
S'Y'
sg14
I7
sg19
Nsg95
I2
sa(dp2863
g16
(lp2864
S'd'
asg18
S'N'
sg22
I35
sS'.thisN'
p2865
I349
sg20
S'N'
sg32
g33
sS'.thisTrialN'
p2866
I4
sS'.thisRepN'
p2867
I23
sg21
I42
sS'.thisIndex'
p2868
I11
sg23
I19
sg15
(lp2869
S'k'
asg30
g31
sg17
S'N'
sg14
I7
sg19
(lp2870
S'space'
p2871
asg95
I11
sa(dp2872
g16
(lp2873
S'k'
asg95
I5
sS'.thisRepN'
p2874
I23
sg30
g31
sg32
g33
sS'.thisTrialN'
p2875
I5
sS'.thisN'
p2876
I350
sS'.thisIndex'
p2877
I5
sg15
(lp2878
S'k'
asg17
S'Y'
sg14
I8
sa(dp2879
g16
(lp2880
S'k'
asg95
I7
sS'.thisRepN'
p2881
I23
sg30
g31
sg32
g33
sS'.thisTrialN'
p2882
I6
sS'.thisN'
p2883
I351
sS'.thisIndex'
p2884
I7
sg15
(lp2885
S'k'
asg17
S'Y'
sg14
I8
sa(dp2886
g16
(lp2887
S'k'
asg18
S'N'
sS'.thisRepN'
p2888
I23
sg20
S'Y'
sg32
g33
sS'.thisTrialN'
p2889
I7
sS'.thisN'
p2890
I352
sS'.thisIndex'
p2891
I0
sg15
(lp2892
S'k'
asg30
g31
sg17
S'Y'
sg14
I8
sg19
Nsg95
I0
sa(dp2893
g16
(lp2894
S'd'
asg18
S'N'
sS'.thisRepN'
p2895
I23
sg20
S'Y'
sg32
g33
sS'.thisTrialN'
p2896
I8
sS'.thisN'
p2897
I353
sS'.thisIndex'
p2898
I12
sg15
(lp2899
S'd'
asg30
g31
sg17
S'Y'
sg14
I8
sg19
Nsg95
I12
sa(dp2900
g16
(lp2901
S'd'
asg18
S'Y'
sS'.thisRepN'
p2902
I23
sg20
S'Y'
sg32
g33
sS'.thisTrialN'
p2903
I9
sS'.thisN'
p2904
I354
sS'.thisIndex'
p2905
I11
sg15
(lp2906
S'd'
asg30
g31
sg17
S'Y'
sg14
I8
sg19
(lp2907
S'space'
p2908
asg95
I11
sa(dp2909
g16
(lp2910
S'd'
asg18
S'Y'
sS'.thisRepN'
p2911
I23
sg20
S'Y'
sg32
g33
sS'.thisTrialN'
p2912
I10
sS'.thisN'
p2913
I355
sS'.thisIndex'
p2914
I11
sg15
(lp2915
S'd'
asg30
g31
sg17
S'Y'
sg14
I8
sg19
(lp2916
S'space'
p2917
asg95
I11
sa(dp2918
g16
(lp2919
S'd'
asg18
S'Y'
sS'.thisRepN'
p2920
I23
sg20
S'N'
sg32
g33
sS'.thisTrialN'
p2921
I11
sS'.thisN'
p2922
I356
sS'.thisIndex'
p2923
I12
sg15
(lp2924
S'd'
asg30
g31
sg17
S'Y'
sg14
I8
sg19
Nsg95
I12
sa(dp2925
g16
(lp2926
S'k'
asg18
S'N'
sS'.thisRepN'
p2927
I23
sg20
S'Y'
sg32
g33
sS'.thisTrialN'
p2928
I12
sS'.thisN'
p2929
I357
sS'.thisIndex'
p2930
I4
sg15
(lp2931
S'k'
asg30
g31
sg17
S'Y'
sg14
I8
sg19
Nsg95
I4
sa(dp2932
g16
(lp2933
S'k'
asg18
S'Y'
sS'.thisRepN'
p2934
I23
sg20
S'Y'
sg32
g33
sS'.thisTrialN'
p2935
I13
sS'.thisN'
p2936
I358
sS'.thisIndex'
p2937
I6
sg15
(lp2938
S'k'
asg30
g31
sg17
S'Y'
sg14
I8
sg19
(lp2939
S'space'
p2940
asg95
I6
sa(dp2941
g16
(lp2942
S'd'
asg18
S'Y'
sS'.thisRepN'
p2943
I23
sg20
S'Y'
sg32
g33
sS'.thisTrialN'
p2944
I14
sS'.thisN'
p2945
I359
sS'.thisIndex'
p2946
I3
sg15
(lp2947
S'd'
asg30
g31
sg17
S'Y'
sg14
I8
sg19
(lp2948
S'space'
p2949
asg95
I3
sa(dp2950
g16
(lp2951
S'd'
asg18
S'N'
sS'.thisRepN'
p2952
I24
sg20
S'Y'
sg32
g33
sS'.thisTrialN'
p2953
I0
sS'.thisN'
p2954
I360
sS'.thisIndex'
p2955
I8
sg15
(lp2956
S'd'
asg30
g31
sg17
S'Y'
sg14
I8
sg19
Nsg95
I8
sa(dp2957
g16
(lp2958
S'k'
asg18
S'Y'
sS'.thisRepN'
p2959
I24
sg20
S'Y'
sg32
g33
sS'.thisTrialN'
p2960
I1
sS'.thisN'
p2961
I361
sS'.thisIndex'
p2962
I11
sg15
(lp2963
S'k'
asg30
g31
sg17
S'Y'
sg14
I8
sg19
(lp2964
S'space'
p2965
asg95
I11
sa(dp2966
g16
(lp2967
S'd'
asg18
S'N'
sS'.thisRepN'
p2968
I24
sg20
S'N'
sg32
g33
sS'.thisTrialN'
p2969
I2
sS'.thisN'
p2970
I362
sS'.thisIndex'
p2971
I4
sg15
(lp2972
S'd'
asg30
g31
sg17
S'Y'
sg14
I8
sg19
(lp2973
S'space'
p2974
asg95
I4
sa(dp2975
g16
(lp2976
S'd'
asg18
S'Y'
sS'.thisRepN'
p2977
I24
sg20
S'Y'
sg32
g33
sS'.thisTrialN'
p2978
I3
sS'.thisN'
p2979
I363
sS'.thisIndex'
p2980
I12
sg15
(lp2981
S'd'
asg30
g31
sg17
S'Y'
sg14
I8
sg19
(lp2982
S'space'
p2983
asg95
I12
sa(dp2984
g16
(lp2985
S'k'
asg18
S'Y'
sS'.thisRepN'
p2986
I24
sg20
S'Y'
sg32
g33
sS'.thisTrialN'
p2987
I4
sS'.thisN'
p2988
I364
sS'.thisIndex'
p2989
I10
sg15
(lp2990
S'k'
asg30
g31
sg17
S'Y'
sg14
I8
sg19
(lp2991
S'space'
p2992
asg95
I10
sa(dp2993
g16
(lp2994
S'd'
asg18
S'Y'
sS'.thisRepN'
p2995
I24
sg20
S'Y'
sg32
g33
sS'.thisTrialN'
p2996
I5
sS'.thisN'
p2997
I365
sS'.thisIndex'
p2998
I0
sg15
(lp2999
S'd'
asg30
g31
sg17
S'Y'
sg14
I8
sg19
(lp3000
S'space'
p3001
asg95
I0
sa(dp3002
g16
(lp3003
S'd'
asg18
S'N'
sS'.thisRepN'
p3004
I24
sg20
S'Y'
sg32
g33
sS'.thisTrialN'
p3005
I6
sS'.thisN'
p3006
I366
sS'.thisIndex'
p3007
I8
sg15
(lp3008
S'd'
asg30
g31
sg17
S'Y'
sg14
I8
sg19
Nsg95
I8
sa(dp3009
g16
(lp3010
S'd'
asg18
S'N'
sS'.thisRepN'
p3011
I24
sg20
S'N'
sg32
g33
sS'.thisTrialN'
p3012
I7
sS'.thisN'
p3013
I367
sS'.thisIndex'
p3014
I10
sg15
(lp3015
S'd'
asg30
g31
sg17
S'Y'
sg14
I8
sg19
(lp3016
S'space'
p3017
asg95
I10
sa(dp3018
g16
(lp3019
S'k'
asg18
S'Y'
sS'.thisRepN'
p3020
I24
sg20
S'N'
sg32
g33
sS'.thisTrialN'
p3021
I8
sS'.thisN'
p3022
I368
sS'.thisIndex'
p3023
I9
sg15
(lp3024
S'd'
asg30
g31
sg17
S'N'
sg14
I8
sg19
Nsg95
I9
sa(dp3025
g16
(lp3026
S'k'
asg18
S'Y'
sS'.thisRepN'
p3027
I24
sg20
S'Y'
sg32
g33
sS'.thisTrialN'
p3028
I9
sS'.thisN'
p3029
I369
sS'.thisIndex'
p3030
I7
sg15
(lp3031
S'k'
asg30
g31
sg17
S'Y'
sg14
I8
sg19
(lp3032
S'space'
p3033
asg95
I7
sa(dp3034
g16
(lp3035
S'k'
asg18
S'N'
sS'.thisRepN'
p3036
I24
sg20
S'Y'
sg32
g33
sS'.thisTrialN'
p3037
I10
sS'.thisN'
p3038
I370
sS'.thisIndex'
p3039
I4
sg15
(lp3040
S'k'
asg30
g31
sg17
S'Y'
sg14
I8
sg19
Nsg95
I4
sa(dp3041
g16
(lp3042
S'k'
asg18
S'Y'
sS'.thisRepN'
p3043
I24
sg20
S'Y'
sg32
g33
sS'.thisTrialN'
p3044
I11
sS'.thisN'
p3045
I371
sS'.thisIndex'
p3046
I14
sg15
(lp3047
S'k'
asg30
g31
sg17
S'Y'
sg14
I8
sg19
(lp3048
S'space'
p3049
asg95
I14
sa(dp3050
g16
(lp3051
S'k'
asg18
S'Y'
sS'.thisRepN'
p3052
I24
sg20
S'N'
sg32
g33
sS'.thisTrialN'
p3053
I12
sS'.thisN'
p3054
I372
sS'.thisIndex'
p3055
I1
sg15
(lp3056
S'k'
asg30
g31
sg17
S'Y'
sg14
I8
sg19
Nsg95
I1
sa(dp3057
g16
(lp3058
S'k'
asg18
S'Y'
sS'.thisRepN'
p3059
I24
sg20
S'Y'
sg32
g33
sS'.thisTrialN'
p3060
I13
sS'.thisN'
p3061
I373
sS'.thisIndex'
p3062
I13
sg15
(lp3063
S'k'
asg30
g31
sg17
S'Y'
sg14
I8
sg19
(lp3064
S'space'
p3065
asg95
I13
sa(dp3066
g16
(lp3067
S'k'
asg18
S'Y'
sS'.thisRepN'
p3068
I24
sg20
S'N'
sg32
g33
sS'.thisTrialN'
p3069
I14
sS'.thisN'
p3070
I374
sS'.thisIndex'
p3071
I4
sg15
(lp3072
S'k'
asg30
g31
sg17
S'Y'
sg14
I8
sg19
Nsg95
I4
sa(dp3073
g16
(lp3074
S'k'
asg18
S'N'
sS'.thisRepN'
p3075
I25
sg20
S'Y'
sg32
g33
sS'.thisTrialN'
p3076
I0
sS'.thisN'
p3077
I375
sS'.thisIndex'
p3078
I0
sg15
(lp3079
S'k'
asg30
g31
sg17
S'Y'
sg14
I8
sg19
Nsg95
I0
sa(dp3080
g16
(lp3081
S'k'
asg18
S'N'
sS'.thisRepN'
p3082
I25
sg20
S'Y'
sg32
g33
sS'.thisTrialN'
p3083
I1
sS'.thisN'
p3084
I376
sS'.thisIndex'
p3085
I5
sg15
(lp3086
S'k'
asg30
g31
sg17
S'Y'
sg14
I8
sg19
Nsg95
I5
sa(dp3087
g16
(lp3088
S'd'
asg18
S'N'
sS'.thisRepN'
p3089
I25
sg20
S'Y'
sg32
g33
sS'.thisTrialN'
p3090
I2
sS'.thisN'
p3091
I377
sS'.thisIndex'
p3092
I11
sg15
(lp3093
S'd'
asg30
g31
sg17
S'Y'
sg14
I8
sg19
Nsg95
I11
sa(dp3094
g16
(lp3095
S'd'
asg18
S'Y'
sS'.thisRepN'
p3096
I25
sg20
S'N'
sg32
g33
sS'.thisTrialN'
p3097
I3
sS'.thisN'
p3098
I378
sS'.thisIndex'
p3099
I3
sg15
(lp3100
S'd'
asg30
g31
sg17
S'Y'
sg14
I8
sg19
Nsg95
I3
sa(dp3101
g16
(lp3102
S'd'
asg18
S'Y'
sS'.thisRepN'
p3103
I25
sg20
S'N'
sg32
g33
sS'.thisTrialN'
p3104
I4
sS'.thisN'
p3105
I379
sS'.thisIndex'
p3106
I6
sg15
(lp3107
S'd'
asg30
g31
sg17
S'Y'
sg14
I8
sg19
(lp3108
S'k'
asg95
I6
sa(dp3109
g16
(lp3110
S'd'
asg18
S'Y'
sS'.thisRepN'
p3111
I25
sg20
S'Y'
sg32
g33
sS'.thisTrialN'
p3112
I5
sS'.thisN'
p3113
I380
sS'.thisIndex'
p3114
I13
sg15
(lp3115
S'd'
asg30
g31
sg17
S'Y'
sg14
I8
sg19
(lp3116
S'space'
p3117
asg95
I13
sa(dp3118
g16
(lp3119
S'd'
asg18
S'N'
sS'.thisRepN'
p3120
I25
sg20
S'N'
sg32
g33
sS'.thisTrialN'
p3121
I6
sS'.thisN'
p3122
I381
sS'.thisIndex'
p3123
I5
sg15
(lp3124
S'd'
asg30
g31
sg17
S'Y'
sg14
I8
sg19
(lp3125
S'space'
p3126
asg95
I5
sa(dp3127
g16
(lp3128
S'k'
asg18
S'N'
sS'.thisRepN'
p3129
I25
sg20
S'Y'
sg32
g33
sS'.thisTrialN'
p3130
I7
sS'.thisN'
p3131
I382
sS'.thisIndex'
p3132
I5
sg15
(lp3133
S'k'
asg30
g31
sg17
S'Y'
sg14
I8
sg19
Nsg95
I5
sa(dp3134
g16
(lp3135
S'k'
asg18
S'Y'
sS'.thisRepN'
p3136
I25
sg20
S'Y'
sg32
g33
sS'.thisTrialN'
p3137
I8
sS'.thisN'
p3138
I383
sS'.thisIndex'
p3139
I0
sg15
(lp3140
S'k'
asg30
g31
sg17
S'Y'
sg14
I8
sg19
(lp3141
S'space'
p3142
asg95
I0
sa(dp3143
g16
(lp3144
S'k'
asg18
S'N'
sS'.thisRepN'
p3145
I25
sg20
S'Y'
sg32
g33
sS'.thisTrialN'
p3146
I9
sS'.thisN'
p3147
I384
sS'.thisIndex'
p3148
I0
sg15
(lp3149
S'k'
asg30
g31
sg17
S'Y'
sg14
I8
sg19
Nsg95
I0
sa(dp3150
g16
(lp3151
S'd'
asg18
S'N'
sS'.thisRepN'
p3152
I25
sg20
S'Y'
sg32
g33
sS'.thisTrialN'
p3153
I10
sS'.thisN'
p3154
I385
sS'.thisIndex'
p3155
I6
sg15
(lp3156
S'd'
asg30
g31
sg17
S'Y'
sg14
I8
sg19
Nsg95
I6
sa(dp3157
g16
(lp3158
S'd'
asg18
S'N'
sS'.thisRepN'
p3159
I25
sg20
S'Y'
sg32
g33
sS'.thisTrialN'
p3160
I11
sS'.thisN'
p3161
I386
sS'.thisIndex'
p3162
I10
sg15
(lp3163
S'k'
asg30
g31
sg17
S'N'
sg14
I8
sg19
Nsg95
I10
sa(dp3164
g16
(lp3165
S'k'
asg18
S'N'
sS'.thisRepN'
p3166
I25
sg20
S'Y'
sg32
g33
sS'.thisTrialN'
p3167
I12
sS'.thisN'
p3168
I387
sS'.thisIndex'
p3169
I8
sg15
(lp3170
S'k'
asg30
g31
sg17
S'Y'
sg14
I8
sg19
Nsg95
I8
sa(dp3171
g16
(lp3172
S'd'
asg18
S'N'
sS'.thisRepN'
p3173
I25
sg20
S'Y'
sg32
g33
sS'.thisTrialN'
p3174
I13
sS'.thisN'
p3175
I388
sS'.thisIndex'
p3176
I3
sg15
(lp3177
S'k'
asg30
g31
sg17
S'N'
sg14
I8
sg19
Nsg95
I3
sa(dp3178
g16
(lp3179
S'k'
asg18
S'N'
sS'.thisRepN'
p3180
I25
sg20
S'Y'
sg32
g33
sS'.thisTrialN'
p3181
I14
sS'.thisN'
p3182
I389
sS'.thisIndex'
p3183
I10
sg15
(lp3184
S'd'
asg30
g31
sg17
S'N'
sg14
I8
sg19
Nsg95
I10
sa(dp3185
g16
(lp3186
S'k'
asg18
S'Y'
sS'.thisRepN'
p3187
I26
sg20
S'Y'
sg32
g33
sS'.thisTrialN'
p3188
I0
sS'.thisN'
p3189
I390
sS'.thisIndex'
p3190
I12
sg15
(lp3191
S'k'
asg30
g31
sg17
S'Y'
sg14
I8
sg19
(lp3192
S'space'
p3193
asg95
I12
sa(dp3194
g16
(lp3195
S'k'
asg18
S'Y'
sS'.thisRepN'
p3196
I26
sg20
S'Y'
sg32
g33
sS'.thisTrialN'
p3197
I1
sS'.thisN'
p3198
I391
sS'.thisIndex'
p3199
I14
sg15
(lp3200
S'k'
asg30
g31
sg17
S'Y'
sg14
I8
sg19
(lp3201
S'space'
p3202
asg95
I14
sa(dp3203
g16
(lp3204
S'k'
asg18
S'Y'
sS'.thisRepN'
p3205
I26
sg20
S'Y'
sg32
g33
sS'.thisTrialN'
p3206
I2
sS'.thisN'
p3207
I392
sS'.thisIndex'
p3208
I14
sg15
(lp3209
S'k'
asg30
g31
sg17
S'Y'
sg14
I8
sg19
(lp3210
S'space'
p3211
asg95
I14
sa(dp3212
g16
(lp3213
S'd'
asg18
S'Y'
sS'.thisRepN'
p3214
I26
sg20
S'Y'
sg32
g33
sS'.thisTrialN'
p3215
I3
sS'.thisN'
p3216
I393
sS'.thisIndex'
p3217
I7
sg15
(lp3218
S'd'
asg30
g31
sg17
S'Y'
sg14
I8
sg19
(lp3219
S'space'
p3220
asg95
I7
sa(dp3221
g16
(lp3222
S'd'
asg18
S'Y'
sS'.thisRepN'
p3223
I26
sg20
S'Y'
sg32
g33
sS'.thisTrialN'
p3224
I4
sS'.thisN'
p3225
I394
sS'.thisIndex'
p3226
I12
sg15
(lp3227
S'd'
asg30
g31
sg17
S'Y'
sg14
I8
sg19
(lp3228
S'space'
p3229
asg95
I12
sa(dp3230
g16
(lp3231
S'k'
asg18
S'N'
sS'.thisRepN'
p3232
I26
sg20
S'N'
sg32
g33
sS'.thisTrialN'
p3233
I5
sS'.thisN'
p3234
I395
sS'.thisIndex'
p3235
I4
sg15
(lp3236
S'k'
asg30
g31
sg17
S'Y'
sg14
I8
sg19
(lp3237
S'space'
p3238
asg95
I4
sa(dp3239
g16
(lp3240
S'k'
asg18
S'N'
sS'.thisRepN'
p3241
I26
sg20
S'Y'
sg32
g33
sS'.thisTrialN'
p3242
I6
sS'.thisN'
p3243
I396
sS'.thisIndex'
p3244
I1
sg15
(lp3245
S'k'
asg30
g31
sg17
S'Y'
sg14
I8
sg19
Nsg95
I1
sa(dp3246
g16
(lp3247
S'k'
asg18
S'N'
sS'.thisRepN'
p3248
I26
sg20
S'Y'
sg32
g33
sS'.thisTrialN'
p3249
I7
sS'.thisN'
p3250
I397
sS'.thisIndex'
p3251
I10
sg15
(lp3252
S'k'
asg30
g31
sg17
S'Y'
sg14
I8
sg19
Nsg95
I10
sa(dp3253
g16
(lp3254
S'k'
asg18
S'Y'
sS'.thisRepN'
p3255
I26
sg20
S'Y'
sg32
g33
sS'.thisTrialN'
p3256
I8
sS'.thisN'
p3257
I398
sS'.thisIndex'
p3258
I6
sg15
(lp3259
S'k'
asg30
g31
sg17
S'Y'
sg14
I8
sg19
(lp3260
S'space'
p3261
asg95
I6
sa(dp3262
g16
(lp3263
S'd'
asg18
S'N'
sg22
I38
sS'.thisN'
p3264
I399
sg20
S'Y'
sg32
g33
sS'.thisTrialN'
p3265
I9
sS'.thisRepN'
p3266
I26
sg21
I45
sS'.thisIndex'
p3267
I10
sg23
I25
sg15
(lp3268
S'k'
asg30
g31
sg17
S'N'
sg14
I8
sg19
Nsg95
I10
sa(dp3269
g16
(lp3270
S'd'
asg95
I3
sS'.thisRepN'
p3271
I26
sg30
g31
sg32
g33
sS'.thisTrialN'
p3272
I10
sS'.thisN'
p3273
I400
sS'.thisIndex'
p3274
I3
sg15
(lp3275
S'k'
asg17
S'N'
sg14
I9
sa(dp3276
g16
(lp3277
S'k'
asg95
I5
sS'.thisRepN'
p3278
I26
sg30
g31
sg32
g33
sS'.thisTrialN'
p3279
I11
sS'.thisN'
p3280
I401
sS'.thisIndex'
p3281
I5
sg15
(lp3282
S'k'
asg17
S'Y'
sg14
I9
sa(dp3283
g16
(lp3284
S'k'
asg18
S'N'
sS'.thisRepN'
p3285
I26
sg20
S'Y'
sg32
g33
sS'.thisTrialN'
p3286
I12
sS'.thisN'
p3287
I402
sS'.thisIndex'
p3288
I4
sg15
(lp3289
S'k'
asg30
g31
sg17
S'Y'
sg14
I9
sg19
Nsg95
I4
sa(dp3290
g16
(lp3291
S'k'
asg18
S'Y'
sS'.thisRepN'
p3292
I26
sg20
S'N'
sg32
g33
sS'.thisTrialN'
p3293
I13
sS'.thisN'
p3294
I403
sS'.thisIndex'
p3295
I6
sg15
(lp3296
S'd'
asg30
g31
sg17
S'N'
sg14
I9
sg19
(lp3297
S'd'
asg95
I6
sa(dp3298
g16
(lp3299
S'k'
asg18
S'N'
sS'.thisRepN'
p3300
I26
sg20
S'Y'
sg32
g33
sS'.thisTrialN'
p3301
I14
sS'.thisN'
p3302
I404
sS'.thisIndex'
p3303
I6
sg15
(lp3304
S'k'
asg30
g31
sg17
S'Y'
sg14
I9
sg19
Nsg95
I6
sa(dp3305
g16
(lp3306
S'k'
asg18
S'Y'
sS'.thisRepN'
p3307
I27
sg20
S'N'
sg32
g33
sS'.thisTrialN'
p3308
I0
sS'.thisN'
p3309
I405
sS'.thisIndex'
p3310
I4
sg15
(lp3311
S'k'
asg30
g31
sg17
S'Y'
sg14
I9
sg19
Nsg95
I4
sa(dp3312
g16
(lp3313
S'k'
asg18
S'N'
sS'.thisRepN'
p3314
I27
sg20
S'Y'
sg32
g33
sS'.thisTrialN'
p3315
I1
sS'.thisN'
p3316
I406
sS'.thisIndex'
p3317
I8
sg15
(lp3318
S'k'
asg30
g31
sg17
S'Y'
sg14
I9
sg19
Nsg95
I8
sa(dp3319
g16
(lp3320
S'd'
asg18
S'Y'
sS'.thisRepN'
p3321
I27
sg20
S'Y'
sg32
g33
sS'.thisTrialN'
p3322
I2
sS'.thisN'
p3323
I407
sS'.thisIndex'
p3324
I12
sg15
(lp3325
S'd'
asg30
g31
sg17
S'Y'
sg14
I9
sg19
(lp3326
S'space'
p3327
asg95
I12
sa(dp3328
g16
(lp3329
S'd'
asg18
S'N'
sS'.thisRepN'
p3330
I27
sg20
S'Y'
sg32
g33
sS'.thisTrialN'
p3331
I3
sS'.thisN'
p3332
I408
sS'.thisIndex'
p3333
I8
sg15
(lp3334
S'd'
asg30
g31
sg17
S'Y'
sg14
I9
sg19
Nsg95
I8
sa(dp3335
g16
(lp3336
S'k'
asg18
S'Y'
sS'.thisRepN'
p3337
I27
sg20
S'Y'
sg32
g33
sS'.thisTrialN'
p3338
I4
sS'.thisN'
p3339
I409
sS'.thisIndex'
p3340
I9
sg15
(lp3341
S'k'
asg30
g31
sg17
S'Y'
sg14
I9
sg19
(lp3342
S'space'
p3343
asg95
I9
sa(dp3344
g16
(lp3345
S'k'
asg18
S'Y'
sS'.thisRepN'
p3346
I27
sg20
S'Y'
sg32
g33
sS'.thisTrialN'
p3347
I5
sS'.thisN'
p3348
I410
sS'.thisIndex'
p3349
I6
sg15
(lp3350
S'd'
asg30
g31
sg17
S'N'
sg14
I9
sg19
(lp3351
S'space'
p3352
asg95
I6
sa(dp3353
g16
(lp3354
S'd'
asg18
S'Y'
sS'.thisRepN'
p3355
I27
sg20
S'N'
sg32
g33
sS'.thisTrialN'
p3356
I6
sS'.thisN'
p3357
I411
sS'.thisIndex'
p3358
I11
sg15
(lp3359
S'd'
asg30
g31
sg17
S'Y'
sg14
I9
sg19
Nsg95
I11
sa(dp3360
g16
(lp3361
S'd'
asg18
S'Y'
sS'.thisRepN'
p3362
I27
sg20
S'N'
sg32
g33
sS'.thisTrialN'
p3363
I7
sS'.thisN'
p3364
I412
sS'.thisIndex'
p3365
I1
sg15
(lp3366
S'd'
asg30
g31
sg17
S'Y'
sg14
I9
sg19
(lp3367
S'k'
asg95
I1
sa(dp3368
g16
(lp3369
S'k'
asg18
S'Y'
sS'.thisRepN'
p3370
I27
sg20
S'Y'
sg32
g33
sS'.thisTrialN'
p3371
I8
sS'.thisN'
p3372
I413
sS'.thisIndex'
p3373
I2
sg15
(lp3374
S'd'
asg30
g31
sg17
S'N'
sg14
I9
sg19
(lp3375
S'space'
p3376
asg95
I2
sa(dp3377
g16
(lp3378
S'k'
asg18
S'Y'
sS'.thisRepN'
p3379
I27
sg20
S'Y'
sg32
g33
sS'.thisTrialN'
p3380
I9
sS'.thisN'
p3381
I414
sS'.thisIndex'
p3382
I11
sg15
(lp3383
S'k'
asg30
g31
sg17
S'Y'
sg14
I9
sg19
(lp3384
S'space'
p3385
asg95
I11
sa(dp3386
g16
(lp3387
S'd'
asg18
S'Y'
sS'.thisRepN'
p3388
I27
sg20
S'Y'
sg32
g33
sS'.thisTrialN'
p3389
I10
sS'.thisN'
p3390
I415
sS'.thisIndex'
p3391
I5
sg15
(lp3392
S'd'
asg30
g31
sg17
S'Y'
sg14
I9
sg19
(lp3393
S'space'
p3394
asg95
I5
sa(dp3395
g16
(lp3396
S'k'
asg18
S'N'
sS'.thisRepN'
p3397
I27
sg20
S'Y'
sg32
g33
sS'.thisTrialN'
p3398
I11
sS'.thisN'
p3399
I416
sS'.thisIndex'
p3400
I4
sg15
(lp3401
S'k'
asg30
g31
sg17
S'Y'
sg14
I9
sg19
Nsg95
I4
sa(dp3402
g16
(lp3403
S'd'
asg18
S'Y'
sS'.thisRepN'
p3404
I27
sg20
S'Y'
sg32
g33
sS'.thisTrialN'
p3405
I12
sS'.thisN'
p3406
I417
sS'.thisIndex'
p3407
I1
sg15
(lp3408
S'd'
asg30
g31
sg17
S'Y'
sg14
I9
sg19
(lp3409
S'space'
p3410
asg95
I1
sa(dp3411
g16
(lp3412
S'k'
asg18
S'Y'
sS'.thisRepN'
p3413
I27
sg20
S'Y'
sg32
g33
sS'.thisTrialN'
p3414
I13
sS'.thisN'
p3415
I418
sS'.thisIndex'
p3416
I6
sg15
(lp3417
S'k'
asg30
g31
sg17
S'Y'
sg14
I9
sg19
(lp3418
S'space'
p3419
asg95
I6
sa(dp3420
g16
(lp3421
S'd'
asg18
S'N'
sS'.thisRepN'
p3422
I27
sg20
S'Y'
sg32
g33
sS'.thisTrialN'
p3423
I14
sS'.thisN'
p3424
I419
sS'.thisIndex'
p3425
I8
sg15
(lp3426
S'd'
asg30
g31
sg17
S'Y'
sg14
I9
sg19
Nsg95
I8
sa(dp3427
g16
(lp3428
S'k'
asg18
S'Y'
sS'.thisRepN'
p3429
I28
sg20
S'N'
sg32
g33
sS'.thisTrialN'
p3430
I0
sS'.thisN'
p3431
I420
sS'.thisIndex'
p3432
I10
sg15
(lp3433
S'k'
asg30
g31
sg17
S'Y'
sg14
I9
sg19
Nsg95
I10
sa(dp3434
g16
(lp3435
S'k'
asg18
S'N'
sS'.thisRepN'
p3436
I28
sg20
S'Y'
sg32
g33
sS'.thisTrialN'
p3437
I1
sS'.thisN'
p3438
I421
sS'.thisIndex'
p3439
I2
sg15
(lp3440
S'd'
asg30
g31
sg17
S'N'
sg14
I9
sg19
Nsg95
I2
sa(dp3441
g16
(lp3442
S'k'
asg18
S'N'
sS'.thisRepN'
p3443
I28
sg20
S'Y'
sg32
g33
sS'.thisTrialN'
p3444
I2
sS'.thisN'
p3445
I422
sS'.thisIndex'
p3446
I12
sg15
(lp3447
S'k'
asg30
g31
sg17
S'Y'
sg14
I9
sg19
Nsg95
I12
sa(dp3448
g16
(lp3449
S'd'
asg18
S'N'
sS'.thisRepN'
p3450
I28
sg20
S'Y'
sg32
g33
sS'.thisTrialN'
p3451
I3
sS'.thisN'
p3452
I423
sS'.thisIndex'
p3453
I1
sg15
(lp3454
S'd'
asg30
g31
sg17
S'Y'
sg14
I9
sg19
Nsg95
I1
sa(dp3455
g16
(lp3456
S'k'
asg18
S'Y'
sS'.thisRepN'
p3457
I28
sg20
S'Y'
sg32
g33
sS'.thisTrialN'
p3458
I4
sS'.thisN'
p3459
I424
sS'.thisIndex'
p3460
I4
sg15
(lp3461
S'k'
asg30
g31
sg17
S'Y'
sg14
I9
sg19
(lp3462
S'space'
p3463
asg95
I4
sa(dp3464
g16
(lp3465
S'k'
asg18
S'N'
sS'.thisRepN'
p3466
I28
sg20
S'Y'
sg32
g33
sS'.thisTrialN'
p3467
I5
sS'.thisN'
p3468
I425
sS'.thisIndex'
p3469
I2
sg15
(lp3470
S'k'
asg30
g31
sg17
S'Y'
sg14
I9
sg19
Nsg95
I2
sa(dp3471
g16
(lp3472
S'd'
asg18
S'N'
sS'.thisRepN'
p3473
I28
sg20
S'Y'
sg32
g33
sS'.thisTrialN'
p3474
I6
sS'.thisN'
p3475
I426
sS'.thisIndex'
p3476
I14
sg15
(lp3477
S'd'
asg30
g31
sg17
S'Y'
sg14
I9
sg19
Nsg95
I14
sa(dp3478
g16
(lp3479
S'k'
asg18
S'N'
sS'.thisRepN'
p3480
I28
sg20
S'Y'
sg32
g33
sS'.thisTrialN'
p3481
I7
sS'.thisN'
p3482
I427
sS'.thisIndex'
p3483
I9
sg15
(lp3484
S'k'
asg30
g31
sg17
S'Y'
sg14
I9
sg19
Nsg95
I9
sa(dp3485
g16
(lp3486
S'd'
asg18
S'N'
sS'.thisRepN'
p3487
I28
sg20
S'Y'
sg32
g33
sS'.thisTrialN'
p3488
I8
sS'.thisN'
p3489
I428
sS'.thisIndex'
p3490
I11
sg15
(lp3491
S'd'
asg30
g31
sg17
S'Y'
sg14
I9
sg19
Nsg95
I11
sa(dp3492
g16
(lp3493
S'k'
asg18
S'N'
sS'.thisRepN'
p3494
I28
sg20
S'Y'
sg32
g33
sS'.thisTrialN'
p3495
I9
sS'.thisN'
p3496
I429
sS'.thisIndex'
p3497
I5
sg15
(lp3498
S'k'
asg30
g31
sg17
S'Y'
sg14
I9
sg19
Nsg95
I5
sa(dp3499
g16
(lp3500
S'k'
asg18
S'N'
sS'.thisRepN'
p3501
I28
sg20
S'Y'
sg32
g33
sS'.thisTrialN'
p3502
I10
sS'.thisN'
p3503
I430
sS'.thisIndex'
p3504
I2
sg15
(lp3505
S'd'
asg30
g31
sg17
S'N'
sg14
I9
sg19
Nsg95
I2
sa(dp3506
g16
(lp3507
S'k'
asg18
S'Y'
sS'.thisRepN'
p3508
I28
sg20
S'N'
sg32
g33
sS'.thisTrialN'
p3509
I11
sS'.thisN'
p3510
I431
sS'.thisIndex'
p3511
I14
sg15
(lp3512
S'k'
asg30
g31
sg17
S'Y'
sg14
I9
sg19
Nsg95
I14
sa(dp3513
g16
(lp3514
S'd'
asg18
S'Y'
sS'.thisRepN'
p3515
I28
sg20
S'N'
sg32
g33
sS'.thisTrialN'
p3516
I12
sS'.thisN'
p3517
I432
sS'.thisIndex'
p3518
I8
sg15
(lp3519
S'd'
asg30
g31
sg17
S'Y'
sg14
I9
sg19
Nsg95
I8
sa(dp3520
g16
(lp3521
S'd'
asg18
S'Y'
sS'.thisRepN'
p3522
I28
sg20
S'N'
sg32
g33
sS'.thisTrialN'
p3523
I13
sS'.thisN'
p3524
I433
sS'.thisIndex'
p3525
I13
sg15
(lp3526
S'k'
asg30
g31
sg17
S'N'
sg14
I9
sg19
Nsg95
I13
sa(dp3527
g16
(lp3528
S'd'
asg18
S'Y'
sS'.thisRepN'
p3529
I28
sg20
S'Y'
sg32
g33
sS'.thisTrialN'
p3530
I14
sS'.thisN'
p3531
I434
sS'.thisIndex'
p3532
I1
sg15
(lp3533
S'd'
asg30
g31
sg17
S'Y'
sg14
I9
sg19
(lp3534
S'space'
p3535
asg95
I1
sa(dp3536
g16
(lp3537
S'k'
asg18
S'N'
sS'.thisRepN'
p3538
I29
sg20
S'Y'
sg32
g33
sS'.thisTrialN'
p3539
I0
sS'.thisN'
p3540
I435
sS'.thisIndex'
p3541
I5
sg15
(lp3542
S'k'
asg30
g31
sg17
S'Y'
sg14
I9
sg19
Nsg95
I5
sa(dp3543
g16
(lp3544
S'd'
asg18
S'Y'
sS'.thisRepN'
p3545
I29
sg20
S'N'
sg32
g33
sS'.thisTrialN'
p3546
I1
sS'.thisN'
p3547
I436
sS'.thisIndex'
p3548
I3
sg15
(lp3549
S'd'
asg30
g31
sg17
S'Y'
sg14
I9
sg19
Nsg95
I3
sa(dp3550
g16
(lp3551
S'd'
asg18
S'N'
sS'.thisRepN'
p3552
I29
sg20
S'Y'
sg32
g33
sS'.thisTrialN'
p3553
I2
sS'.thisN'
p3554
I437
sS'.thisIndex'
p3555
I0
sg15
(lp3556
S'd'
asg30
g31
sg17
S'Y'
sg14
I9
sg19
Nsg95
I0
sa(dp3557
g16
(lp3558
S'd'
asg18
S'Y'
sS'.thisRepN'
p3559
I29
sg20
S'Y'
sg32
g33
sS'.thisTrialN'
p3560
I3
sS'.thisN'
p3561
I438
sS'.thisIndex'
p3562
I4
sg15
(lp3563
S'd'
asg30
g31
sg17
S'Y'
sg14
I9
sg19
(lp3564
S'space'
p3565
asg95
I4
sa(dp3566
g16
(lp3567
S'k'
asg18
S'N'
sS'.thisRepN'
p3568
I29
sg20
S'Y'
sg32
g33
sS'.thisTrialN'
p3569
I4
sS'.thisN'
p3570
I439
sS'.thisIndex'
p3571
I5
sg15
(lp3572
S'k'
asg30
g31
sg17
S'Y'
sg14
I9
sg19
Nsg95
I5
sa(dp3573
g16
(lp3574
S'd'
asg18
S'N'
sS'.thisRepN'
p3575
I29
sg20
S'Y'
sg32
g33
sS'.thisTrialN'
p3576
I5
sS'.thisN'
p3577
I440
sS'.thisIndex'
p3578
I0
sg15
(lp3579
S'k'
asg30
g31
sg17
S'N'
sg14
I9
sg19
Nsg95
I0
sa(dp3580
g16
(lp3581
S'k'
asg18
S'Y'
sS'.thisRepN'
p3582
I29
sg20
S'Y'
sg32
g33
sS'.thisTrialN'
p3583
I6
sS'.thisN'
p3584
I441
sS'.thisIndex'
p3585
I1
sg15
(lp3586
S'k'
asg30
g31
sg17
S'Y'
sg14
I9
sg19
(lp3587
S'space'
p3588
asg95
I1
sa(dp3589
g16
(lp3590
S'd'
asg18
S'N'
sS'.thisRepN'
p3591
I29
sg20
S'Y'
sg32
g33
sS'.thisTrialN'
p3592
I7
sS'.thisN'
p3593
I442
sS'.thisIndex'
p3594
I9
sg15
(lp3595
S'd'
asg30
g31
sg17
S'Y'
sg14
I9
sg19
Nsg95
I9
sa(dp3596
g16
(lp3597
S'k'
asg18
S'Y'
sS'.thisRepN'
p3598
I29
sg20
S'Y'
sg32
g33
sS'.thisTrialN'
p3599
I8
sS'.thisN'
p3600
I443
sS'.thisIndex'
p3601
I8
sg15
(lp3602
S'k'
asg30
g31
sg17
S'Y'
sg14
I9
sg19
(lp3603
S'space'
p3604
asg95
I8
sa(dp3605
g16
(lp3606
S'd'
asg18
S'Y'
sS'.thisRepN'
p3607
I29
sg20
S'Y'
sg32
g33
sS'.thisTrialN'
p3608
I9
sS'.thisN'
p3609
I444
sS'.thisIndex'
p3610
I12
sg15
(lp3611
S'd'
asg30
g31
sg17
S'Y'
sg14
I9
sg19
(lp3612
S'space'
p3613
asg95
I12
sa(dp3614
g16
(lp3615
S'k'
asg18
S'Y'
sS'.thisRepN'
p3616
I29
sg20
S'Y'
sg32
g33
sS'.thisTrialN'
p3617
I10
sS'.thisN'
p3618
I445
sS'.thisIndex'
p3619
I7
sg15
(lp3620
S'k'
asg30
g31
sg17
S'Y'
sg14
I9
sg19
(lp3621
S'space'
p3622
asg95
I7
sa(dp3623
g16
(lp3624
S'k'
asg18
S'Y'
sS'.thisRepN'
p3625
I29
sg20
S'N'
sg32
g33
sS'.thisTrialN'
p3626
I11
sS'.thisN'
p3627
I446
sS'.thisIndex'
p3628
I4
sg15
(lp3629
S'k'
asg30
g31
sg17
S'Y'
sg14
I9
sg19
Nsg95
I4
sa(dp3630
g16
(lp3631
S'k'
asg18
S'N'
sS'.thisRepN'
p3632
I29
sg20
S'Y'
sg32
g33
sS'.thisTrialN'
p3633
I12
sS'.thisN'
p3634
I447
sS'.thisIndex'
p3635
I10
sg15
(lp3636
S'd'
asg30
g31
sg17
S'N'
sg14
I9
sg19
Nsg95
I10
sa(dp3637
g16
(lp3638
S'k'
asg18
S'N'
sS'.thisRepN'
p3639
I29
sg20
S'Y'
sg32
g33
sS'.thisTrialN'
p3640
I13
sS'.thisN'
p3641
I448
sS'.thisIndex'
p3642
I13
sg15
(lp3643
S'k'
asg30
g31
sg17
S'Y'
sg14
I9
sg19
Nsg95
I13
sa(dp3644
g16
(lp3645
S'k'
asg18
S'N'
sg22
I38
sS'.thisN'
p3646
I449
sg20
S'Y'
sg32
g33
sS'.thisTrialN'
p3647
I14
sS'.thisRepN'
p3648
I29
sg21
I41
sS'.thisIndex'
p3649
I14
sg23
I25
sg15
(lp3650
S'k'
asg30
g31
sg17
S'Y'
sg14
I9
sg19
Nsg95
I14
sa(dp3651
g16
(lp3652
S'd'
asg95
I11
sS'.thisRepN'
p3653
I30
sg30
g31
sg32
g33
sS'.thisTrialN'
p3654
I0
sS'.thisN'
p3655
I450
sS'.thisIndex'
p3656
I11
sg15
(lp3657
S'd'
asg17
S'Y'
sg14
I10
sa(dp3658
g16
(lp3659
S'k'
asg95
I9
sS'.thisRepN'
p3660
I30
sg30
g31
sg32
g33
sS'.thisTrialN'
p3661
I1
sS'.thisN'
p3662
I451
sS'.thisIndex'
p3663
I9
sg15
(lp3664
S'k'
asg17
S'Y'
sg14
I10
sa(dp3665
g16
(lp3666
S'd'
asg18
S'Y'
sS'.thisRepN'
p3667
I30
sg20
S'N'
sg32
g33
sS'.thisTrialN'
p3668
I2
sS'.thisN'
p3669
I452
sS'.thisIndex'
p3670
I10
sg15
(lp3671
S'd'
asg30
g31
sg17
S'Y'
sg14
I10
sg19
Nsg95
I10
sa(dp3672
g16
(lp3673
S'd'
asg18
S'Y'
sS'.thisRepN'
p3674
I30
sg20
S'N'
sg32
g33
sS'.thisTrialN'
p3675
I3
sS'.thisN'
p3676
I453
sS'.thisIndex'
p3677
I13
sg15
(lp3678
S'd'
asg30
g31
sg17
S'Y'
sg14
I10
sg19
Nsg95
I13
sa(dp3679
g16
(lp3680
S'k'
asg18
S'Y'
sS'.thisRepN'
p3681
I30
sg20
S'Y'
sg32
g33
sS'.thisTrialN'
p3682
I4
sS'.thisN'
p3683
I454
sS'.thisIndex'
p3684
I9
sg15
(lp3685
S'k'
asg30
g31
sg17
S'Y'
sg14
I10
sg19
(lp3686
S'space'
p3687
asg95
I9
sa(dp3688
g16
(lp3689
S'k'
asg18
S'Y'
sS'.thisRepN'
p3690
I30
sg20
S'Y'
sg32
g33
sS'.thisTrialN'
p3691
I5
sS'.thisN'
p3692
I455
sS'.thisIndex'
p3693
I8
sg15
(lp3694
S'k'
asg30
g31
sg17
S'Y'
sg14
I10
sg19
(lp3695
S'space'
p3696
asg95
I8
sa(dp3697
g16
(lp3698
S'd'
asg18
S'N'
sS'.thisRepN'
p3699
I30
sg20
S'Y'
sg32
g33
sS'.thisTrialN'
p3700
I6
sS'.thisN'
p3701
I456
sS'.thisIndex'
p3702
I2
sg15
(lp3703
S'd'
asg30
g31
sg17
S'Y'
sg14
I10
sg19
Nsg95
I2
sa(dp3704
g16
(lp3705
S'k'
asg18
S'Y'
sS'.thisRepN'
p3706
I30
sg20
S'Y'
sg32
g33
sS'.thisTrialN'
p3707
I7
sS'.thisN'
p3708
I457
sS'.thisIndex'
p3709
I2
sg15
(lp3710
S'k'
asg30
g31
sg17
S'Y'
sg14
I10
sg19
(lp3711
S'space'
p3712
asg95
I2
sa(dp3713
g16
(lp3714
S'd'
asg18
S'Y'
sS'.thisRepN'
p3715
I30
sg20
S'Y'
sg32
g33
sS'.thisTrialN'
p3716
I8
sS'.thisN'
p3717
I458
sS'.thisIndex'
p3718
I11
sg15
(lp3719
S'k'
asg30
g31
sg17
S'N'
sg14
I10
sg19
(lp3720
S'space'
p3721
asg95
I11
sa(dp3722
g16
(lp3723
S'd'
asg18
S'Y'
sS'.thisRepN'
p3724
I30
sg20
S'Y'
sg32
g33
sS'.thisTrialN'
p3725
I9
sS'.thisN'
p3726
I459
sS'.thisIndex'
p3727
I6
sg15
(lp3728
S'd'
asg30
g31
sg17
S'Y'
sg14
I10
sg19
(lp3729
S'space'
p3730
asg95
I6
sa(dp3731
g16
(lp3732
S'k'
asg18
S'N'
sS'.thisRepN'
p3733
I30
sg20
S'Y'
sg32
g33
sS'.thisTrialN'
p3734
I10
sS'.thisN'
p3735
I460
sS'.thisIndex'
p3736
I9
sg15
(lp3737
S'k'
asg30
g31
sg17
S'Y'
sg14
I10
sg19
Nsg95
I9
sa(dp3738
g16
(lp3739
S'k'
asg18
S'Y'
sS'.thisRepN'
p3740
I30
sg20
S'Y'
sg32
g33
sS'.thisTrialN'
p3741
I11
sS'.thisN'
p3742
I461
sS'.thisIndex'
p3743
I7
sg15
(lp3744
S'k'
asg30
g31
sg17
S'Y'
sg14
I10
sg19
(lp3745
S'space'
p3746
asg95
I7
sa(dp3747
g16
(lp3748
S'd'
asg18
S'N'
sS'.thisRepN'
p3749
I30
sg20
S'Y'
sg32
g33
sS'.thisTrialN'
p3750
I12
sS'.thisN'
p3751
I462
sS'.thisIndex'
p3752
I10
sg15
(lp3753
S'd'
asg30
g31
sg17
S'Y'
sg14
I10
sg19
Nsg95
I10
sa(dp3754
g16
(lp3755
S'k'
asg18
S'N'
sS'.thisRepN'
p3756
I30
sg20
S'Y'
sg32
g33
sS'.thisTrialN'
p3757
I13
sS'.thisN'
p3758
I463
sS'.thisIndex'
p3759
I4
sg15
(lp3760
S'k'
asg30
g31
sg17
S'Y'
sg14
I10
sg19
Nsg95
I4
sa(dp3761
g16
(lp3762
S'd'
asg18
S'Y'
sS'.thisRepN'
p3763
I30
sg20
S'Y'
sg32
g33
sS'.thisTrialN'
p3764
I14
sS'.thisN'
p3765
I464
sS'.thisIndex'
p3766
I12
sg15
(lp3767
S'd'
asg30
g31
sg17
S'Y'
sg14
I10
sg19
(lp3768
S'space'
p3769
asg95
I12
sa(dp3770
g16
(lp3771
S'd'
asg18
S'N'
sS'.thisRepN'
p3772
I31
sg20
S'N'
sg32
g33
sS'.thisTrialN'
p3773
I0
sS'.thisN'
p3774
I465
sS'.thisIndex'
p3775
I9
sg15
(lp3776
S'k'
asg30
g31
sg17
S'N'
sg14
I10
sg19
(lp3777
S'space'
p3778
asg95
I9
sa(dp3779
g16
(lp3780
S'k'
asg18
S'Y'
sS'.thisRepN'
p3781
I31
sg20
S'Y'
sg32
g33
sS'.thisTrialN'
p3782
I1
sS'.thisN'
p3783
I466
sS'.thisIndex'
p3784
I0
sg15
(lp3785
S'k'
asg30
g31
sg17
S'Y'
sg14
I10
sg19
(lp3786
S'space'
p3787
asg95
I0
sa(dp3788
g16
(lp3789
S'd'
asg18
S'Y'
sS'.thisRepN'
p3790
I31
sg20
S'Y'
sg32
g33
sS'.thisTrialN'
p3791
I2
sS'.thisN'
p3792
I467
sS'.thisIndex'
p3793
I3
sg15
(lp3794
S'd'
asg30
g31
sg17
S'Y'
sg14
I10
sg19
(lp3795
S'space'
p3796
asg95
I3
sa(dp3797
g16
(lp3798
S'k'
asg18
S'N'
sS'.thisRepN'
p3799
I31
sg20
S'Y'
sg32
g33
sS'.thisTrialN'
p3800
I3
sS'.thisN'
p3801
I468
sS'.thisIndex'
p3802
I2
sg15
(lp3803
S'k'
asg30
g31
sg17
S'Y'
sg14
I10
sg19
Nsg95
I2
sa(dp3804
g16
(lp3805
S'k'
asg18
S'Y'
sS'.thisRepN'
p3806
I31
sg20
S'Y'
sg32
g33
sS'.thisTrialN'
p3807
I4
sS'.thisN'
p3808
I469
sS'.thisIndex'
p3809
I1
sg15
(lp3810
S'k'
asg30
g31
sg17
S'Y'
sg14
I10
sg19
(lp3811
S'space'
p3812
asg95
I1
sa(dp3813
g16
(lp3814
S'k'
asg18
S'Y'
sS'.thisRepN'
p3815
I31
sg20
S'N'
sg32
g33
sS'.thisTrialN'
p3816
I5
sS'.thisN'
p3817
I470
sS'.thisIndex'
p3818
I13
sg15
(lp3819
S'k'
asg30
g31
sg17
S'Y'
sg14
I10
sg19
Nsg95
I13
sa(dp3820
g16
(lp3821
S'd'
asg18
S'Y'
sS'.thisRepN'
p3822
I31
sg20
S'Y'
sg32
g33
sS'.thisTrialN'
p3823
I6
sS'.thisN'
p3824
I471
sS'.thisIndex'
p3825
I9
sg15
(lp3826
S'd'
asg30
g31
sg17
S'Y'
sg14
I10
sg19
(lp3827
S'space'
p3828
asg95
I9
sa(dp3829
g16
(lp3830
S'd'
asg18
S'Y'
sS'.thisRepN'
p3831
I31
sg20
S'N'
sg32
g33
sS'.thisTrialN'
p3832
I7
sS'.thisN'
p3833
I472
sS'.thisIndex'
p3834
I11
sg15
(lp3835
S'd'
asg30
g31
sg17
S'Y'
sg14
I10
sg19
Nsg95
I11
sa(dp3836
g16
(lp3837
S'd'
asg18
S'Y'
sS'.thisRepN'
p3838
I31
sg20
S'Y'
sg32
g33
sS'.thisTrialN'
p3839
I8
sS'.thisN'
p3840
I473
sS'.thisIndex'
p3841
I9
sg15
(lp3842
S'd'
asg30
g31
sg17
S'Y'
sg14
I10
sg19
(lp3843
S'space'
p3844
asg95
I9
sa(dp3845
g16
(lp3846
S'k'
asg18
S'N'
sS'.thisRepN'
p3847
I31
sg20
S'Y'
sg32
g33
sS'.thisTrialN'
p3848
I9
sS'.thisN'
p3849
I474
sS'.thisIndex'
p3850
I0
sg15
(lp3851
S'k'
asg30
g31
sg17
S'Y'
sg14
I10
sg19
Nsg95
I0
sa(dp3852
g16
(lp3853
S'd'
asg18
S'N'
sS'.thisRepN'
p3854
I31
sg20
S'Y'
sg32
g33
sS'.thisTrialN'
p3855
I10
sS'.thisN'
p3856
I475
sS'.thisIndex'
p3857
I9
sg15
(lp3858
S'd'
asg30
g31
sg17
S'Y'
sg14
I10
sg19
Nsg95
I9
sa(dp3859
g16
(lp3860
S'd'
asg18
S'Y'
sS'.thisRepN'
p3861
I31
sg20
S'Y'
sg32
g33
sS'.thisTrialN'
p3862
I11
sS'.thisN'
p3863
I476
sS'.thisIndex'
p3864
I3
sg15
(lp3865
S'd'
asg30
g31
sg17
S'Y'
sg14
I10
sg19
(lp3866
S'space'
p3867
asg95
I3
sa(dp3868
g16
(lp3869
S'd'
asg18
S'N'
sS'.thisRepN'
p3870
I31
sg20
S'Y'
sg32
g33
sS'.thisTrialN'
p3871
I12
sS'.thisN'
p3872
I477
sS'.thisIndex'
p3873
I14
sg15
(lp3874
S'k'
asg30
g31
sg17
S'N'
sg14
I10
sg19
Nsg95
I14
sa(dp3875
g16
(lp3876
S'k'
asg18
S'N'
sS'.thisRepN'
p3877
I31
sg20
S'N'
sg32
g33
sS'.thisTrialN'
p3878
I13
sS'.thisN'
p3879
I478
sS'.thisIndex'
p3880
I1
sg15
(lp3881
S'k'
asg30
g31
sg17
S'Y'
sg14
I10
sg19
(lp3882
S'space'
p3883
asg95
I1
sa(dp3884
g16
(lp3885
S'k'
asg18
S'Y'
sS'.thisRepN'
p3886
I31
sg20
S'N'
sg32
g33
sS'.thisTrialN'
p3887
I14
sS'.thisN'
p3888
I479
sS'.thisIndex'
p3889
I7
sg15
(lp3890
S'k'
asg30
g31
sg17
S'Y'
sg14
I10
sg19
Nsg95
I7
sa(dp3891
g16
(lp3892
S'd'
asg18
S'N'
sS'.thisRepN'
p3893
I32
sg20
S'Y'
sg32
g33
sS'.thisTrialN'
p3894
I0
sS'.thisN'
p3895
I480
sS'.thisIndex'
p3896
I3
sg15
(lp3897
S'd'
asg30
g31
sg17
S'Y'
sg14
I10
sg19
Nsg95
I3
sa(dp3898
g16
(lp3899
S'd'
asg18
S'Y'
sS'.thisRepN'
p3900
I32
sg20
S'Y'
sg32
g33
sS'.thisTrialN'
p3901
I1
sS'.thisN'
p3902
I481
sS'.thisIndex'
p3903
I8
sg15
(lp3904
S'd'
asg30
g31
sg17
S'Y'
sg14
I10
sg19
(lp3905
S'space'
p3906
asg95
I8
sa(dp3907
g16
(lp3908
S'k'
asg18
S'Y'
sS'.thisRepN'
p3909
I32
sg20
S'N'
sg32
g33
sS'.thisTrialN'
p3910
I2
sS'.thisN'
p3911
I482
sS'.thisIndex'
p3912
I7
sg15
(lp3913
S'k'
asg30
g31
sg17
S'Y'
sg14
I10
sg19
Nsg95
I7
sa(dp3914
g16
(lp3915
S'd'
asg18
S'Y'
sS'.thisRepN'
p3916
I32
sg20
S'N'
sg32
g33
sS'.thisTrialN'
p3917
I3
sS'.thisN'
p3918
I483
sS'.thisIndex'
p3919
I2
sg15
(lp3920
S'd'
asg30
g31
sg17
S'Y'
sg14
I10
sg19
Nsg95
I2
sa(dp3921
g16
(lp3922
S'k'
asg18
S'N'
sS'.thisRepN'
p3923
I32
sg20
S'Y'
sg32
g33
sS'.thisTrialN'
p3924
I4
sS'.thisN'
p3925
I484
sS'.thisIndex'
p3926
I4
sg15
(lp3927
S'k'
asg30
g31
sg17
S'Y'
sg14
I10
sg19
Nsg95
I4
sa(dp3928
g16
(lp3929
S'd'
asg18
S'N'
sS'.thisRepN'
p3930
I32
sg20
S'Y'
sg32
g33
sS'.thisTrialN'
p3931
I5
sS'.thisN'
p3932
I485
sS'.thisIndex'
p3933
I9
sg15
(lp3934
S'd'
asg30
g31
sg17
S'Y'
sg14
I10
sg19
Nsg95
I9
sa(dp3935
g16
(lp3936
S'd'
asg18
S'N'
sS'.thisRepN'
p3937
I32
sg20
S'Y'
sg32
g33
sS'.thisTrialN'
p3938
I6
sS'.thisN'
p3939
I486
sS'.thisIndex'
p3940
I12
sg15
(lp3941
S'd'
asg30
g31
sg17
S'Y'
sg14
I10
sg19
Nsg95
I12
sa(dp3942
g16
(lp3943
S'k'
asg18
S'Y'
sS'.thisRepN'
p3944
I32
sg20
S'Y'
sg32
g33
sS'.thisTrialN'
p3945
I7
sS'.thisN'
p3946
I487
sS'.thisIndex'
p3947
I7
sg15
(lp3948
S'k'
asg30
g31
sg17
S'Y'
sg14
I10
sg19
(lp3949
S'space'
p3950
asg95
I7
sa(dp3951
g16
(lp3952
S'd'
asg18
S'Y'
sS'.thisRepN'
p3953
I32
sg20
S'Y'
sg32
g33
sS'.thisTrialN'
p3954
I8
sS'.thisN'
p3955
I488
sS'.thisIndex'
p3956
I3
sg15
(lp3957
S'd'
asg30
g31
sg17
S'Y'
sg14
I10
sg19
(lp3958
S'space'
p3959
asg95
I3
sa(dp3960
g16
(lp3961
S'd'
asg18
S'Y'
sS'.thisRepN'
p3962
I32
sg20
S'Y'
sg32
g33
sS'.thisTrialN'
p3963
I9
sS'.thisN'
p3964
I489
sS'.thisIndex'
p3965
I7
sg15
(lp3966
S'd'
asg30
g31
sg17
S'Y'
sg14
I10
sg19
(lp3967
S'space'
p3968
asg95
I7
sa(dp3969
g16
(lp3970
S'd'
asg18
S'N'
sS'.thisRepN'
p3971
I32
sg20
S'Y'
sg32
g33
sS'.thisTrialN'
p3972
I10
sS'.thisN'
p3973
I490
sS'.thisIndex'
p3974
I13
sg15
(lp3975
S'd'
asg30
g31
sg17
S'Y'
sg14
I10
sg19
Nsg95
I13
sa(dp3976
g16
(lp3977
S'd'
asg18
S'Y'
sS'.thisRepN'
p3978
I32
sg20
S'Y'
sg32
g33
sS'.thisTrialN'
p3979
I11
sS'.thisN'
p3980
I491
sS'.thisIndex'
p3981
I6
sg15
(lp3982
S'd'
asg30
g31
sg17
S'Y'
sg14
I10
sg19
(lp3983
S'space'
p3984
asg95
I6
sa(dp3985
g16
(lp3986
S'd'
asg18
S'N'
sS'.thisRepN'
p3987
I32
sg20
S'Y'
sg32
g33
sS'.thisTrialN'
p3988
I12
sS'.thisN'
p3989
I492
sS'.thisIndex'
p3990
I6
sg15
(lp3991
S'd'
asg30
g31
sg17
S'Y'
sg14
I10
sg19
Nsg95
I6
sa(dp3992
g16
(lp3993
S'k'
asg18
S'N'
sS'.thisRepN'
p3994
I32
sg20
S'Y'
sg32
g33
sS'.thisTrialN'
p3995
I13
sS'.thisN'
p3996
I493
sS'.thisIndex'
p3997
I1
sg15
(lp3998
S'k'
asg30
g31
sg17
S'Y'
sg14
I10
sg19
Nsg95
I1
sa(dp3999
g16
(lp4000
S'd'
asg18
S'N'
sS'.thisRepN'
p4001
I32
sg20
S'N'
sg32
g33
sS'.thisTrialN'
p4002
I14
sS'.thisN'
p4003
I494
sS'.thisIndex'
p4004
I1
sg15
(lp4005
S'd'
asg30
g31
sg17
S'Y'
sg14
I10
sg19
(lp4006
S'space'
p4007
asg95
I1
sa(dp4008
g16
(lp4009
S'd'
asg18
S'N'
sS'.thisRepN'
p4010
I33
sg20
S'Y'
sg32
g33
sS'.thisTrialN'
p4011
I0
sS'.thisN'
p4012
I495
sS'.thisIndex'
p4013
I2
sg15
(lp4014
S'k'
asg30
g31
sg17
S'N'
sg14
I10
sg19
Nsg95
I2
sa(dp4015
g16
(lp4016
S'd'
asg18
S'N'
sS'.thisRepN'
p4017
I33
sg20
S'Y'
sg32
g33
sS'.thisTrialN'
p4018
I1
sS'.thisN'
p4019
I496
sS'.thisIndex'
p4020
I8
sg15
(lp4021
S'd'
asg30
g31
sg17
S'Y'
sg14
I10
sg19
Nsg95
I8
sa(dp4022
g16
(lp4023
S'k'
asg18
S'N'
sS'.thisRepN'
p4024
I33
sg20
S'Y'
sg32
g33
sS'.thisTrialN'
p4025
I2
sS'.thisN'
p4026
I497
sS'.thisIndex'
p4027
I5
sg15
(lp4028
S'k'
asg30
g31
sg17
S'Y'
sg14
I10
sg19
Nsg95
I5
sa(dp4029
g16
(lp4030
S'k'
asg18
S'N'
sS'.thisRepN'
p4031
I33
sg20
S'Y'
sg32
g33
sS'.thisTrialN'
p4032
I3
sS'.thisN'
p4033
I498
sS'.thisIndex'
p4034
I5
sg15
(lp4035
S'k'
asg30
g31
sg17
S'Y'
sg14
I10
sg19
Nsg95
I5
sa(dp4036
g16
(lp4037
S'd'
asg18
S'N'
sg22
I38
sS'.thisN'
p4038
I499
sg20
S'Y'
sg32
g33
sS'.thisTrialN'
p4039
I4
sS'.thisRepN'
p4040
I33
sg21
I46
sS'.thisIndex'
p4041
I3
sg23
I25
sg15
(lp4042
S'd'
asg30
g31
sg17
S'Y'
sg14
I10
sg19
Nsg95
I3
sa(dp4043
g16
(lp4044
S'k'
asS'.thisIndex'
p4045
I7
sS'.thisRepN'
p4046
I33
sg26
S'Y'
sg30
g31
sg32
g33
sS'.thisTrialN'
p4047
I5
sS'.thisN'
p4048
I500
sg25
S'Y'
sg24
S'Y'
sg15
(lp4049
S'd'
asg17
S'Y'
sg14
I11
sg95
I7
sa(dp4050
g16
(lp4051
S'd'
asS'.thisIndex'
p4052
I3
sS'.thisRepN'
p4053
I33
sg26
S'Y'
sg30
g31
sg32
g33
sS'.thisTrialN'
p4054
I6
sS'.thisN'
p4055
I501
sg25
S'Y'
sg15
(lp4056
S'k'
asg17
S'Y'
sg14
I11
sg95
I3
sa(dp4057
g16
(lp4058
S'd'
asg18
S'N'
sS'.thisRepN'
p4059
I33
sg26
S'Y'
sg20
S'Y'
sg32
g33
sS'.thisTrialN'
p4060
I7
sS'.thisN'
p4061
I502
sg25
S'Y'
sg15
(lp4062
S'k'
asg30
g31
sg17
S'Y'
sg14
I11
sg19
Nsg95
I8
sS'.thisIndex'
p4063
I8
sa(dp4064
g16
(lp4065
S'k'
asg18
S'Y'
sS'.thisRepN'
p4066
I33
sg26
S'Y'
sg20
S'Y'
sg32
g33
sS'.thisTrialN'
p4067
I8
sS'.thisN'
p4068
I503
sg25
S'Y'
sg15
(lp4069
S'd'
asg30
g31
sg17
S'Y'
sg14
I11
sg19
(lp4070
S'space'
p4071
asg95
I6
sS'.thisIndex'
p4072
I6
sa(dp4073
g16
(lp4074
S'd'
asg18
S'Y'
sS'.thisRepN'
p4075
I33
sg26
S'Y'
sg20
S'Y'
sg32
g33
sS'.thisTrialN'
p4076
I9
sS'.thisN'
p4077
I504
sg25
S'Y'
sg15
(lp4078
S'd'
asg30
g31
sg17
S'N'
sg14
I11
sg19
(lp4079
S'space'
p4080
asg95
I14
sS'.thisIndex'
p4081
I14
sa(dp4082
g16
(lp4083
S'k'
asg18
S'N'
sS'.thisRepN'
p4084
I33
sg26
S'Y'
sg20
S'Y'
sg32
g33
sS'.thisTrialN'
p4085
I10
sS'.thisN'
p4086
I505
sg25
S'Y'
sg15
(lp4087
S'k'
asg30
g31
sg17
S'N'
sg14
I11
sg19
Nsg95
I14
sS'.thisIndex'
p4088
I14
sa(dp4089
g16
(lp4090
S'k'
asg18
S'N'
sS'.thisRepN'
p4091
I33
sg26
S'Y'
sg20
S'Y'
sg32
g33
sS'.thisTrialN'
p4092
I11
sS'.thisN'
p4093
I506
sg25
S'Y'
sg15
(lp4094
S'd'
asg30
g31
sg17
S'Y'
sg14
I11
sg19
Nsg95
I10
sS'.thisIndex'
p4095
I10
sa(dp4096
g16
(lp4097
S'k'
asg18
S'N'
sS'.thisRepN'
p4098
I33
sg26
S'Y'
sg20
S'Y'
sg32
g33
sS'.thisTrialN'
p4099
I12
sS'.thisN'
p4100
I507
sg25
S'Y'
sg15
(lp4101
S'd'
asg30
g31
sg17
S'Y'
sg14
I11
sg19
Nsg95
I14
sS'.thisIndex'
p4102
I14
sa(dp4103
g16
(lp4104
S'k'
asg18
S'N'
sS'.thisRepN'
p4105
I33
sg26
S'Y'
sg20
S'Y'
sg32
g33
sS'.thisTrialN'
p4106
I13
sS'.thisN'
p4107
I508
sg25
S'Y'
sg15
(lp4108
S'd'
asg30
g31
sg17
S'Y'
sg14
I11
sg19
Nsg95
I12
sS'.thisIndex'
p4109
I12
sa(dp4110
g16
(lp4111
S'k'
asg18
S'N'
sS'.thisRepN'
p4112
I33
sg26
S'Y'
sg20
S'Y'
sg32
g33
sS'.thisTrialN'
p4113
I14
sS'.thisN'
p4114
I509
sg25
S'Y'
sg15
(lp4115
S'd'
asg30
g31
sg17
S'Y'
sg14
I11
sg19
Nsg95
I1
sS'.thisIndex'
p4116
I1
sa(dp4117
g16
(lp4118
S'k'
asg18
S'Y'
sS'.thisRepN'
p4119
I34
sg26
S'Y'
sg20
S'Y'
sg32
g33
sS'.thisTrialN'
p4120
I0
sS'.thisN'
p4121
I510
sg25
S'Y'
sg15
(lp4122
S'k'
asg30
g31
sg17
S'N'
sg14
I11
sg19
(lp4123
S'space'
p4124
asg95
I1
sS'.thisIndex'
p4125
I1
sa(dp4126
g16
(lp4127
S'k'
asg18
S'Y'
sS'.thisRepN'
p4128
I34
sg26
S'Y'
sg20
S'Y'
sg32
g33
sS'.thisTrialN'
p4129
I1
sS'.thisN'
p4130
I511
sg25
S'Y'
sg15
(lp4131
S'd'
asg30
g31
sg17
S'Y'
sg14
I11
sg19
(lp4132
S'space'
p4133
asg95
I7
sS'.thisIndex'
p4134
I7
sa(dp4135
g16
(lp4136
S'd'
asg18
S'N'
sS'.thisRepN'
p4137
I34
sg26
S'Y'
sg20
S'Y'
sg32
g33
sS'.thisTrialN'
p4138
I2
sS'.thisN'
p4139
I512
sg25
S'Y'
sg15
(lp4140
S'k'
asg30
g31
sg17
S'Y'
sg14
I11
sg19
Nsg95
I6
sS'.thisIndex'
p4141
I6
sa(dp4142
g16
(lp4143
S'k'
asg18
S'N'
sS'.thisRepN'
p4144
I34
sg26
S'Y'
sg20
S'Y'
sg32
g33
sS'.thisTrialN'
p4145
I3
sS'.thisN'
p4146
I513
sg25
S'Y'
sg15
(lp4147
S'd'
asg30
g31
sg17
S'Y'
sg14
I11
sg19
Nsg95
I9
sS'.thisIndex'
p4148
I9
sa(dp4149
g16
(lp4150
S'k'
asg18
S'Y'
sS'.thisRepN'
p4151
I34
sg26
S'Y'
sg20
S'Y'
sg32
g33
sS'.thisTrialN'
p4152
I4
sS'.thisN'
p4153
I514
sg25
S'Y'
sg15
(lp4154
S'd'
asg30
g31
sg17
S'Y'
sg14
I11
sg19
(lp4155
S'space'
p4156
asg95
I14
sS'.thisIndex'
p4157
I14
sa(dp4158
g16
(lp4159
S'k'
asg18
S'N'
sS'.thisRepN'
p4160
I34
sg26
S'Y'
sg20
S'Y'
sg32
g33
sS'.thisTrialN'
p4161
I5
sS'.thisN'
p4162
I515
sg25
S'Y'
sg15
(lp4163
S'd'
asg30
g31
sg17
S'Y'
sg14
I11
sg19
Nsg95
I12
sS'.thisIndex'
p4164
I12
sa(dp4165
g16
(lp4166
S'k'
asg18
S'N'
sS'.thisRepN'
p4167
I34
sg26
S'Y'
sg20
S'Y'
sg32
g33
sS'.thisTrialN'
p4168
I6
sS'.thisN'
p4169
I516
sg25
S'Y'
sg15
(lp4170
S'd'
asg30
g31
sg17
S'Y'
sg14
I11
sg19
Nsg95
I6
sS'.thisIndex'
p4171
I6
sa(dp4172
g16
(lp4173
S'd'
asg18
S'N'
sS'.thisRepN'
p4174
I34
sg26
S'Y'
sg20
S'Y'
sg32
g33
sS'.thisTrialN'
p4175
I7
sS'.thisN'
p4176
I517
sg25
S'Y'
sg15
(lp4177
S'k'
asg30
g31
sg17
S'Y'
sg14
I11
sg19
Nsg95
I12
sS'.thisIndex'
p4178
I12
sa(dp4179
g16
(lp4180
S'd'
asg18
S'N'
sS'.thisRepN'
p4181
I34
sg26
S'Y'
sg20
S'Y'
sg32
g33
sS'.thisTrialN'
p4182
I8
sS'.thisN'
p4183
I518
sg25
S'Y'
sg15
(lp4184
S'k'
asg30
g31
sg17
S'Y'
sg14
I11
sg19
Nsg95
I11
sS'.thisIndex'
p4185
I11
sa(dp4186
g16
(lp4187
S'd'
asg18
S'Y'
sS'.thisRepN'
p4188
I34
sg26
S'Y'
sg20
S'Y'
sg32
g33
sS'.thisTrialN'
p4189
I9
sS'.thisN'
p4190
I519
sg25
S'Y'
sg15
(lp4191
S'k'
asg30
g31
sg17
S'Y'
sg14
I11
sg19
(lp4192
S'space'
p4193
asg95
I6
sS'.thisIndex'
p4194
I6
sa(dp4195
g16
(lp4196
S'd'
asg18
S'N'
sS'.thisRepN'
p4197
I34
sg26
S'Y'
sg20
S'Y'
sg32
g33
sS'.thisTrialN'
p4198
I10
sS'.thisN'
p4199
I520
sg25
S'Y'
sg15
(lp4200
S'k'
asg30
g31
sg17
S'Y'
sg14
I11
sg19
Nsg95
I14
sS'.thisIndex'
p4201
I14
sa(dp4202
g16
(lp4203
S'k'
asg18
S'N'
sS'.thisRepN'
p4204
I34
sg26
S'Y'
sg20
S'Y'
sg32
g33
sS'.thisTrialN'
p4205
I11
sS'.thisN'
p4206
I521
sg25
S'Y'
sg15
(lp4207
S'd'
asg30
g31
sg17
S'Y'
sg14
I11
sg19
Nsg95
I13
sS'.thisIndex'
p4208
I13
sa(dp4209
g16
(lp4210
S'k'
asg18
S'N'
sS'.thisRepN'
p4211
I34
sg26
S'Y'
sg20
S'Y'
sg32
g33
sS'.thisTrialN'
p4212
I12
sS'.thisN'
p4213
I522
sg25
S'Y'
sg15
(lp4214
S'd'
asg30
g31
sg17
S'Y'
sg14
I11
sg19
Nsg95
I1
sS'.thisIndex'
p4215
I1
sa(dp4216
g16
(lp4217
S'k'
asg18
S'Y'
sS'.thisRepN'
p4218
I34
sg26
S'Y'
sg20
S'Y'
sg32
g33
sS'.thisTrialN'
p4219
I13
sS'.thisN'
p4220
I523
sg25
S'Y'
sg15
(lp4221
S'd'
asg30
g31
sg17
S'Y'
sg14
I11
sg19
(lp4222
S'space'
p4223
asg95
I4
sS'.thisIndex'
p4224
I4
sa(dp4225
g16
(lp4226
S'k'
asg18
S'Y'
sS'.thisRepN'
p4227
I34
sg26
S'Y'
sg20
S'N'
sg32
g33
sS'.thisTrialN'
p4228
I14
sS'.thisN'
p4229
I524
sg25
S'Y'
sg15
(lp4230
S'k'
asg30
g31
sg17
S'N'
sg14
I11
sg19
Nsg95
I11
sS'.thisIndex'
p4231
I11
sa(dp4232
g16
(lp4233
S'd'
asg18
S'Y'
sS'.thisRepN'
p4234
I35
sg26
S'Y'
sg20
S'Y'
sg32
g33
sS'.thisTrialN'
p4235
I0
sS'.thisN'
p4236
I525
sg25
S'Y'
sg15
(lp4237
S'k'
asg30
g31
sg17
S'Y'
sg14
I11
sg19
(lp4238
S'space'
p4239
asg95
I3
sS'.thisIndex'
p4240
I3
sa(dp4241
g16
(lp4242
S'd'
asg18
S'Y'
sS'.thisRepN'
p4243
I35
sg26
S'Y'
sg20
S'N'
sg32
g33
sS'.thisTrialN'
p4244
I1
sS'.thisN'
p4245
I526
sg25
S'Y'
sg15
(lp4246
S'k'
asg30
g31
sg17
S'Y'
sg14
I11
sg19
Nsg95
I4
sS'.thisIndex'
p4247
I4
sa(dp4248
g16
(lp4249
S'd'
asg18
S'N'
sS'.thisRepN'
p4250
I35
sg26
S'Y'
sg20
S'Y'
sg32
g33
sS'.thisTrialN'
p4251
I2
sS'.thisN'
p4252
I527
sg25
S'Y'
sg15
(lp4253
S'k'
asg30
g31
sg17
S'Y'
sg14
I11
sg19
Nsg95
I11
sS'.thisIndex'
p4254
I11
sa(dp4255
g16
(lp4256
S'k'
asg18
S'Y'
sS'.thisRepN'
p4257
I35
sg26
S'Y'
sg20
S'Y'
sg32
g33
sS'.thisTrialN'
p4258
I3
sS'.thisN'
p4259
I528
sg25
S'Y'
sg15
(lp4260
S'd'
asg30
g31
sg17
S'Y'
sg14
I11
sg19
(lp4261
S'space'
p4262
asg95
I6
sS'.thisIndex'
p4263
I6
sa(dp4264
g16
(lp4265
S'k'
asg18
S'Y'
sS'.thisRepN'
p4266
I35
sg26
S'Y'
sg20
S'Y'
sg32
g33
sS'.thisTrialN'
p4267
I4
sS'.thisN'
p4268
I529
sg25
S'Y'
sg15
(lp4269
S'd'
asg30
g31
sg17
S'Y'
sg14
I11
sg19
(lp4270
S'space'
p4271
asg95
I5
sS'.thisIndex'
p4272
I5
sa(dp4273
g16
(lp4274
S'd'
asg18
S'Y'
sS'.thisRepN'
p4275
I35
sg26
S'Y'
sg20
S'Y'
sg32
g33
sS'.thisTrialN'
p4276
I5
sS'.thisN'
p4277
I530
sg25
S'Y'
sg15
(lp4278
S'k'
asg30
g31
sg17
S'Y'
sg14
I11
sg19
(lp4279
S'space'
p4280
asg95
I0
sS'.thisIndex'
p4281
I0
sa(dp4282
g16
(lp4283
S'd'
asg18
S'Y'
sS'.thisRepN'
p4284
I35
sg26
S'Y'
sg20
S'N'
sg32
g33
sS'.thisTrialN'
p4285
I6
sS'.thisN'
p4286
I531
sg25
S'Y'
sg15
(lp4287
S'k'
asg30
g31
sg17
S'Y'
sg14
I11
sg19
Nsg95
I0
sS'.thisIndex'
p4288
I0
sa(dp4289
g16
(lp4290
S'k'
asg18
S'Y'
sS'.thisRepN'
p4291
I35
sg26
S'Y'
sg20
S'Y'
sg32
g33
sS'.thisTrialN'
p4292
I7
sS'.thisN'
p4293
I532
sg25
S'Y'
sg15
(lp4294
S'd'
asg30
g31
sg17
S'Y'
sg14
I11
sg19
(lp4295
S'space'
p4296
asg95
I10
sS'.thisIndex'
p4297
I10
sa(dp4298
g16
(lp4299
S'd'
asg18
S'Y'
sS'.thisRepN'
p4300
I35
sg26
S'Y'
sg20
S'N'
sg32
g33
sS'.thisTrialN'
p4301
I8
sS'.thisN'
p4302
I533
sg25
S'Y'
sg15
(lp4303
S'k'
asg30
g31
sg17
S'Y'
sg14
I11
sg19
Nsg95
I3
sS'.thisIndex'
p4304
I3
sa(dp4305
g16
(lp4306
S'd'
asg18
S'N'
sS'.thisRepN'
p4307
I35
sg26
S'Y'
sg20
S'Y'
sg32
g33
sS'.thisTrialN'
p4308
I9
sS'.thisN'
p4309
I534
sg25
S'Y'
sg15
(lp4310
S'k'
asg30
g31
sg17
S'Y'
sg14
I11
sg19
Nsg95
I2
sS'.thisIndex'
p4311
I2
sa(dp4312
g16
(lp4313
S'd'
asg18
S'Y'
sS'.thisRepN'
p4314
I35
sg26
S'Y'
sg20
S'Y'
sg32
g33
sS'.thisTrialN'
p4315
I10
sS'.thisN'
p4316
I535
sg25
S'Y'
sg15
(lp4317
S'd'
asg30
g31
sg17
S'N'
sg14
I11
sg19
(lp4318
S'space'
p4319
asg95
I8
sS'.thisIndex'
p4320
I8
sa(dp4321
g16
(lp4322
S'k'
asg18
S'Y'
sS'.thisRepN'
p4323
I35
sg26
S'Y'
sg20
S'Y'
sg32
g33
sS'.thisTrialN'
p4324
I11
sS'.thisN'
p4325
I536
sg25
S'Y'
sg15
(lp4326
S'd'
asg30
g31
sg17
S'Y'
sg14
I11
sg19
(lp4327
S'space'
p4328
asg95
I0
sS'.thisIndex'
p4329
I0
sa(dp4330
g16
(lp4331
S'k'
asg18
S'N'
sS'.thisRepN'
p4332
I35
sg26
S'Y'
sg20
S'Y'
sg32
g33
sS'.thisTrialN'
p4333
I12
sS'.thisN'
p4334
I537
sg25
S'Y'
sg15
(lp4335
S'k'
asg30
g31
sg17
S'N'
sg14
I11
sg19
Nsg95
I8
sS'.thisIndex'
p4336
I8
sa(dp4337
g16
(lp4338
S'd'
asg18
S'Y'
sS'.thisRepN'
p4339
I35
sg26
S'Y'
sg20
S'Y'
sg32
g33
sS'.thisTrialN'
p4340
I13
sS'.thisN'
p4341
I538
sg25
S'Y'
sg15
(lp4342
S'k'
asg30
g31
sg17
S'Y'
sg14
I11
sg19
(lp4343
S'space'
p4344
asg95
I12
sS'.thisIndex'
p4345
I12
sa(dp4346
g16
(lp4347
S'd'
asg18
S'Y'
sS'.thisRepN'
p4348
I35
sg26
S'Y'
sg20
S'Y'
sg32
g33
sS'.thisTrialN'
p4349
I14
sS'.thisN'
p4350
I539
sg25
S'Y'
sg15
(lp4351
S'k'
asg30
g31
sg17
S'Y'
sg14
I11
sg19
(lp4352
S'space'
p4353
asg95
I1
sS'.thisIndex'
p4354
I1
sa(dp4355
g16
(lp4356
S'k'
asg18
S'Y'
sS'.thisRepN'
p4357
I36
sg26
S'Y'
sg20
S'Y'
sg32
g33
sS'.thisTrialN'
p4358
I0
sS'.thisN'
p4359
I540
sg25
S'Y'
sg15
(lp4360
S'd'
asg30
g31
sg17
S'Y'
sg14
I11
sg19
(lp4361
S'space'
p4362
asg95
I8
sS'.thisIndex'
p4363
I8
sa(dp4364
g16
(lp4365
S'd'
asg18
S'N'
sS'.thisRepN'
p4366
I36
sg26
S'Y'
sg20
S'Y'
sg32
g33
sS'.thisTrialN'
p4367
I1
sS'.thisN'
p4368
I541
sg25
S'Y'
sg15
(lp4369
S'k'
asg30
g31
sg17
S'Y'
sg14
I11
sg19
Nsg95
I10
sS'.thisIndex'
p4370
I10
sa(dp4371
g16
(lp4372
S'k'
asg18
S'N'
sS'.thisRepN'
p4373
I36
sg26
S'Y'
sg20
S'Y'
sg32
g33
sS'.thisTrialN'
p4374
I2
sS'.thisN'
p4375
I542
sg25
S'Y'
sg15
(lp4376
S'd'
asg30
g31
sg17
S'Y'
sg14
I11
sg19
Nsg95
I12
sS'.thisIndex'
p4377
I12
sa(dp4378
g16
(lp4379
S'k'
asg18
S'N'
sS'.thisRepN'
p4380
I36
sg26
S'Y'
sg20
S'Y'
sg32
g33
sS'.thisTrialN'
p4381
I3
sS'.thisN'
p4382
I543
sg25
S'Y'
sg15
(lp4383
S'd'
asg30
g31
sg17
S'Y'
sg14
I11
sg19
Nsg95
I8
sS'.thisIndex'
p4384
I8
sa(dp4385
g16
(lp4386
S'k'
asg18
S'Y'
sS'.thisRepN'
p4387
I36
sg26
S'Y'
sg20
S'N'
sg32
g33
sS'.thisTrialN'
p4388
I4
sS'.thisN'
p4389
I544
sg25
S'Y'
sg15
(lp4390
S'd'
asg30
g31
sg17
S'Y'
sg14
I11
sg19
Nsg95
I5
sS'.thisIndex'
p4391
I5
sa(dp4392
g16
(lp4393
S'd'
asg18
S'N'
sS'.thisRepN'
p4394
I36
sg26
S'Y'
sg20
S'Y'
sg32
g33
sS'.thisTrialN'
p4395
I5
sS'.thisN'
p4396
I545
sg25
S'Y'
sg15
(lp4397
S'k'
asg30
g31
sg17
S'Y'
sg14
I11
sg19
Nsg95
I0
sS'.thisIndex'
p4398
I0
sa(dp4399
g16
(lp4400
S'k'
asg18
S'Y'
sS'.thisRepN'
p4401
I36
sg26
S'Y'
sg20
S'Y'
sg32
g33
sS'.thisTrialN'
p4402
I6
sS'.thisN'
p4403
I546
sg25
S'Y'
sg15
(lp4404
S'k'
asg30
g31
sg17
S'N'
sg14
I11
sg19
(lp4405
S'space'
p4406
asg95
I6
sS'.thisIndex'
p4407
I6
sa(dp4408
g16
(lp4409
S'd'
asg18
S'N'
sS'.thisRepN'
p4410
I36
sg26
S'Y'
sg20
S'N'
sg32
g33
sS'.thisTrialN'
p4411
I7
sS'.thisN'
p4412
I547
sg25
S'Y'
sg15
(lp4413
S'k'
asg30
g31
sg17
S'Y'
sg14
I11
sg19
(lp4414
S'space'
p4415
asg95
I12
sS'.thisIndex'
p4416
I12
sa(dp4417
g16
(lp4418
S'd'
asg18
S'Y'
sS'.thisRepN'
p4419
I36
sg26
S'Y'
sg20
S'Y'
sg32
g33
sS'.thisTrialN'
p4420
I8
sS'.thisN'
p4421
I548
sg25
S'Y'
sg15
(lp4422
S'k'
asg30
g31
sg17
S'Y'
sg14
I11
sg19
(lp4423
S'space'
p4424
asg95
I4
sS'.thisIndex'
p4425
I4
sa(dp4426
g16
(lp4427
S'k'
asg18
S'Y'
sg22
I42
sg26
S'Y'
sS'.thisN'
p4428
I549
sg20
S'Y'
sg32
g33
sS'.thisTrialN'
p4429
I9
sS'.thisRepN'
p4430
I36
sg21
I43
sg25
S'Y'
sg23
I25
sg15
(lp4431
S'd'
asg30
g31
sg17
S'Y'
sg14
I11
sg19
(lp4432
S'space'
p4433
asg95
I12
sS'.thisIndex'
p4434
I12
sa(dp4435
g16
(lp4436
S'k'
asS'.thisIndex'
p4437
I11
sS'.thisRepN'
p4438
I36
sg26
S'Y'
sg30
g31
sg32
g33
sS'.thisTrialN'
p4439
I10
sS'.thisN'
p4440
I550
sg25
S'Y'
sg15
(lp4441
S'd'
asg17
S'Y'
sg14
I12
sg95
I11
sa(dp4442
g16
(lp4443
S'k'
asS'.thisIndex'
p4444
I5
sS'.thisRepN'
p4445
I36
sg26
S'Y'
sg30
g31
sg32
g33
sS'.thisTrialN'
p4446
I11
sS'.thisN'
p4447
I551
sg25
S'Y'
sg15
(lp4448
S'd'
asg17
S'Y'
sg14
I12
sg95
I5
sa(dp4449
g16
(lp4450
S'k'
asg18
S'Y'
sS'.thisRepN'
p4451
I36
sg26
S'Y'
sg20
S'Y'
sg32
g33
sS'.thisTrialN'
p4452
I12
sS'.thisN'
p4453
I552
sg25
S'Y'
sg15
(lp4454
S'd'
asg30
g31
sg17
S'Y'
sg14
I12
sg19
(lp4455
S'space'
p4456
asg95
I12
sS'.thisIndex'
p4457
I12
sa(dp4458
g16
(lp4459
S'd'
asg18
S'N'
sS'.thisRepN'
p4460
I36
sg26
S'Y'
sg20
S'Y'
sg32
g33
sS'.thisTrialN'
p4461
I13
sS'.thisN'
p4462
I553
sg25
S'Y'
sg15
(lp4463
S'k'
asg30
g31
sg17
S'Y'
sg14
I12
sg19
Nsg95
I14
sS'.thisIndex'
p4464
I14
sa(dp4465
g16
(lp4466
S'd'
asg18
S'N'
sS'.thisRepN'
p4467
I36
sg26
S'Y'
sg20
S'Y'
sg32
g33
sS'.thisTrialN'
p4468
I14
sS'.thisN'
p4469
I554
sg25
S'Y'
sg15
(lp4470
S'd'
asg30
g31
sg17
S'N'
sg14
I12
sg19
Nsg95
I0
sS'.thisIndex'
p4471
I0
sa(dp4472
g16
(lp4473
S'k'
asg18
S'Y'
sS'.thisRepN'
p4474
I37
sg26
S'Y'
sg20
S'Y'
sg32
g33
sS'.thisTrialN'
p4475
I0
sS'.thisN'
p4476
I555
sg25
S'Y'
sg15
(lp4477
S'd'
asg30
g31
sg17
S'Y'
sg14
I12
sg19
(lp4478
S'space'
p4479
asg95
I3
sS'.thisIndex'
p4480
I3
sa(dp4481
g16
(lp4482
S'k'
asg18
S'Y'
sS'.thisRepN'
p4483
I37
sg26
S'Y'
sg20
S'Y'
sg32
g33
sS'.thisTrialN'
p4484
I1
sS'.thisN'
p4485
I556
sg25
S'Y'
sg15
(lp4486
S'd'
asg30
g31
sg17
S'Y'
sg14
I12
sg19
(lp4487
S'space'
p4488
asg95
I14
sS'.thisIndex'
p4489
I14
sa(dp4490
g16
(lp4491
S'd'
asg18
S'N'
sS'.thisRepN'
p4492
I37
sg26
S'Y'
sg20
S'Y'
sg32
g33
sS'.thisTrialN'
p4493
I2
sS'.thisN'
p4494
I557
sg25
S'Y'
sg15
(lp4495
S'k'
asg30
g31
sg17
S'Y'
sg14
I12
sg19
Nsg95
I13
sS'.thisIndex'
p4496
I13
sa(dp4497
g16
(lp4498
S'k'
asg18
S'N'
sS'.thisRepN'
p4499
I37
sg26
S'Y'
sg20
S'Y'
sg32
g33
sS'.thisTrialN'
p4500
I3
sS'.thisN'
p4501
I558
sg25
S'Y'
sg15
(lp4502
S'd'
asg30
g31
sg17
S'Y'
sg14
I12
sg19
Nsg95
I13
sS'.thisIndex'
p4503
I13
sa(dp4504
g16
(lp4505
S'k'
asg18
S'N'
sS'.thisRepN'
p4506
I37
sg26
S'Y'
sg20
S'Y'
sg32
g33
sS'.thisTrialN'
p4507
I4
sS'.thisN'
p4508
I559
sg25
S'Y'
sg15
(lp4509
S'k'
asg30
g31
sg17
S'N'
sg14
I12
sg19
Nsg95
I10
sS'.thisIndex'
p4510
I10
sa(dp4511
g16
(lp4512
S'k'
asg18
S'Y'
sS'.thisRepN'
p4513
I37
sg26
S'Y'
sg20
S'Y'
sg32
g33
sS'.thisTrialN'
p4514
I5
sS'.thisN'
p4515
I560
sg25
S'Y'
sg15
(lp4516
S'd'
asg30
g31
sg17
S'Y'
sg14
I12
sg19
(lp4517
S'space'
p4518
asg95
I11
sS'.thisIndex'
p4519
I11
sa(dp4520
g16
(lp4521
S'k'
asg18
S'N'
sS'.thisRepN'
p4522
I37
sg26
S'Y'
sg20
S'Y'
sg32
g33
sS'.thisTrialN'
p4523
I6
sS'.thisN'
p4524
I561
sg25
S'Y'
sg15
(lp4525
S'd'
asg30
g31
sg17
S'Y'
sg14
I12
sg19
Nsg95
I0
sS'.thisIndex'
p4526
I0
sa(dp4527
g16
(lp4528
S'd'
asg18
S'N'
sS'.thisRepN'
p4529
I37
sg26
S'Y'
sg20
S'N'
sg32
g33
sS'.thisTrialN'
p4530
I7
sS'.thisN'
p4531
I562
sg25
S'Y'
sg15
(lp4532
S'd'
asg30
g31
sg17
S'N'
sg14
I12
sg19
(lp4533
S'space'
p4534
asg95
I10
sS'.thisIndex'
p4535
I10
sa(dp4536
g16
(lp4537
S'k'
asg18
S'N'
sS'.thisRepN'
p4538
I37
sg26
S'Y'
sg20
S'Y'
sg32
g33
sS'.thisTrialN'
p4539
I8
sS'.thisN'
p4540
I563
sg25
S'Y'
sg15
(lp4541
S'd'
asg30
g31
sg17
S'Y'
sg14
I12
sg19
Nsg95
I14
sS'.thisIndex'
p4542
I14
sa(dp4543
g16
(lp4544
S'k'
asg18
S'N'
sS'.thisRepN'
p4545
I37
sg26
S'Y'
sg20
S'Y'
sg32
g33
sS'.thisTrialN'
p4546
I9
sS'.thisN'
p4547
I564
sg25
S'Y'
sg15
(lp4548
S'd'
asg30
g31
sg17
S'Y'
sg14
I12
sg19
Nsg95
I9
sS'.thisIndex'
p4549
I9
sa(dp4550
g16
(lp4551
S'd'
asg18
S'Y'
sS'.thisRepN'
p4552
I37
sg26
S'Y'
sg20
S'Y'
sg32
g33
sS'.thisTrialN'
p4553
I10
sS'.thisN'
p4554
I565
sg25
S'Y'
sg15
(lp4555
S'k'
asg30
g31
sg17
S'Y'
sg14
I12
sg19
(lp4556
S'space'
p4557
asg95
I1
sS'.thisIndex'
p4558
I1
sa(dp4559
g16
(lp4560
S'd'
asg18
S'Y'
sS'.thisRepN'
p4561
I37
sg26
S'Y'
sg20
S'Y'
sg32
g33
sS'.thisTrialN'
p4562
I11
sS'.thisN'
p4563
I566
sg25
S'Y'
sg15
(lp4564
S'k'
asg30
g31
sg17
S'Y'
sg14
I12
sg19
(lp4565
S'space'
p4566
asg95
I5
sS'.thisIndex'
p4567
I5
sa(dp4568
g16
(lp4569
S'k'
asg18
S'N'
sS'.thisRepN'
p4570
I37
sg26
S'Y'
sg20
S'Y'
sg32
g33
sS'.thisTrialN'
p4571
I12
sS'.thisN'
p4572
I567
sg25
S'Y'
sg15
(lp4573
S'd'
asg30
g31
sg17
S'Y'
sg14
I12
sg19
Nsg95
I14
sS'.thisIndex'
p4574
I14
sa(dp4575
g16
(lp4576
S'k'
asg18
S'N'
sS'.thisRepN'
p4577
I37
sg26
S'Y'
sg20
S'Y'
sg32
g33
sS'.thisTrialN'
p4578
I13
sS'.thisN'
p4579
I568
sg25
S'Y'
sg15
(lp4580
S'k'
asg30
g31
sg17
S'N'
sg14
I12
sg19
Nsg95
I3
sS'.thisIndex'
p4581
I3
sa(dp4582
g16
(lp4583
S'k'
asg18
S'N'
sS'.thisRepN'
p4584
I37
sg26
S'Y'
sg20
S'Y'
sg32
g33
sS'.thisTrialN'
p4585
I14
sS'.thisN'
p4586
I569
sg25
S'Y'
sg15
(lp4587
S'd'
asg30
g31
sg17
S'Y'
sg14
I12
sg19
Nsg95
I8
sS'.thisIndex'
p4588
I8
sa(dp4589
g16
(lp4590
S'k'
asg18
S'N'
sS'.thisRepN'
p4591
I38
sg26
S'Y'
sg20
S'Y'
sg32
g33
sS'.thisTrialN'
p4592
I0
sS'.thisN'
p4593
I570
sg25
S'Y'
sg15
(lp4594
S'd'
asg30
g31
sg17
S'Y'
sg14
I12
sg19
Nsg95
I7
sS'.thisIndex'
p4595
I7
sa(dp4596
g16
(lp4597
S'd'
asg18
S'Y'
sS'.thisRepN'
p4598
I38
sg26
S'Y'
sg20
S'Y'
sg32
g33
sS'.thisTrialN'
p4599
I1
sS'.thisN'
p4600
I571
sg25
S'Y'
sg15
(lp4601
S'd'
asg30
g31
sg17
S'N'
sg14
I12
sg19
(lp4602
S'space'
p4603
asg95
I0
sS'.thisIndex'
p4604
I0
sa(dp4605
g16
(lp4606
S'k'
asg18
S'N'
sS'.thisRepN'
p4607
I38
sg26
S'Y'
sg20
S'N'
sg32
g33
sS'.thisTrialN'
p4608
I2
sS'.thisN'
p4609
I572
sg25
S'Y'
sg15
(lp4610
S'd'
asg30
g31
sg17
S'Y'
sg14
I12
sg19
(lp4611
S'space'
p4612
asg95
I7
sS'.thisIndex'
p4613
I7
sa(dp4614
g16
(lp4615
S'd'
asg18
S'Y'
sS'.thisRepN'
p4616
I38
sg26
S'Y'
sg20
S'Y'
sg32
g33
sS'.thisTrialN'
p4617
I3
sS'.thisN'
p4618
I573
sg25
S'Y'
sg15
(lp4619
S'k'
asg30
g31
sg17
S'Y'
sg14
I12
sg19
(lp4620
S'space'
p4621
asg95
I13
sS'.thisIndex'
p4622
I13
sa(dp4623
g16
(lp4624
S'd'
asg18
S'N'
sS'.thisRepN'
p4625
I38
sg26
S'Y'
sg20
S'Y'
sg32
g33
sS'.thisTrialN'
p4626
I4
sS'.thisN'
p4627
I574
sg25
S'Y'
sg15
(lp4628
S'k'
asg30
g31
sg17
S'Y'
sg14
I12
sg19
Nsg95
I2
sS'.thisIndex'
p4629
I2
sa(dp4630
g16
(lp4631
S'd'
asg18
S'Y'
sS'.thisRepN'
p4632
I38
sg26
S'Y'
sg20
S'Y'
sg32
g33
sS'.thisTrialN'
p4633
I5
sS'.thisN'
p4634
I575
sg25
S'Y'
sg15
(lp4635
S'k'
asg30
g31
sg17
S'Y'
sg14
I12
sg19
(lp4636
S'space'
p4637
asg95
I9
sS'.thisIndex'
p4638
I9
sa(dp4639
g16
(lp4640
S'd'
asg18
S'N'
sS'.thisRepN'
p4641
I38
sg26
S'Y'
sg20
S'Y'
sg32
g33
sS'.thisTrialN'
p4642
I6
sS'.thisN'
p4643
I576
sg25
S'Y'
sg15
(lp4644
S'k'
asg30
g31
sg17
S'Y'
sg14
I12
sg19
Nsg95
I8
sS'.thisIndex'
p4645
I8
sa(dp4646
g16
(lp4647
S'd'
asg18
S'Y'
sS'.thisRepN'
p4648
I38
sg26
S'Y'
sg20
S'Y'
sg32
g33
sS'.thisTrialN'
p4649
I7
sS'.thisN'
p4650
I577
sg25
S'Y'
sg15
(lp4651
S'k'
asg30
g31
sg17
S'Y'
sg14
I12
sg19
(lp4652
S'space'
p4653
asg95
I9
sS'.thisIndex'
p4654
I9
sa(dp4655
g16
(lp4656
S'd'
asg18
S'Y'
sS'.thisRepN'
p4657
I38
sg26
S'Y'
sg20
S'Y'
sg32
g33
sS'.thisTrialN'
p4658
I8
sS'.thisN'
p4659
I578
sg25
S'Y'
sg15
(lp4660
S'k'
asg30
g31
sg17
S'Y'
sg14
I12
sg19
(lp4661
S'space'
p4662
asg95
I9
sS'.thisIndex'
p4663
I9
sa(dp4664
g16
(lp4665
S'k'
asg18
S'N'
sS'.thisRepN'
p4666
I38
sg26
S'Y'
sg20
S'Y'
sg32
g33
sS'.thisTrialN'
p4667
I9
sS'.thisN'
p4668
I579
sg25
S'Y'
sg15
(lp4669
S'd'
asg30
g31
sg17
S'Y'
sg14
I12
sg19
Nsg95
I8
sS'.thisIndex'
p4670
I8
sa(dp4671
g16
(lp4672
S'k'
asg18
S'N'
sS'.thisRepN'
p4673
I38
sg26
S'Y'
sg20
S'Y'
sg32
g33
sS'.thisTrialN'
p4674
I10
sS'.thisN'
p4675
I580
sg25
S'Y'
sg15
(lp4676
S'd'
asg30
g31
sg17
S'Y'
sg14
I12
sg19
Nsg95
I13
sS'.thisIndex'
p4677
I13
sa(dp4678
g16
(lp4679
S'k'
asg18
S'N'
sS'.thisRepN'
p4680
I38
sg26
S'Y'
sg20
S'Y'
sg32
g33
sS'.thisTrialN'
p4681
I11
sS'.thisN'
p4682
I581
sg25
S'Y'
sg15
(lp4683
S'd'
asg30
g31
sg17
S'Y'
sg14
I12
sg19
Nsg95
I4
sS'.thisIndex'
p4684
I4
sa(dp4685
g16
(lp4686
S'k'
asg18
S'Y'
sS'.thisRepN'
p4687
I38
sg26
S'Y'
sg20
S'Y'
sg32
g33
sS'.thisTrialN'
p4688
I12
sS'.thisN'
p4689
I582
sg25
S'Y'
sg15
(lp4690
S'k'
asg30
g31
sg17
S'N'
sg14
I12
sg19
(lp4691
S'space'
p4692
asg95
I12
sS'.thisIndex'
p4693
I12
sa(dp4694
g16
(lp4695
S'd'
asg18
S'N'
sS'.thisRepN'
p4696
I38
sg26
S'Y'
sg20
S'Y'
sg32
g33
sS'.thisTrialN'
p4697
I13
sS'.thisN'
p4698
I583
sg25
S'Y'
sg15
(lp4699
S'k'
asg30
g31
sg17
S'Y'
sg14
I12
sg19
Nsg95
I0
sS'.thisIndex'
p4700
I0
sa(dp4701
g16
(lp4702
S'd'
asg18
S'N'
sS'.thisRepN'
p4703
I38
sg26
S'Y'
sg20
S'Y'
sg32
g33
sS'.thisTrialN'
p4704
I14
sS'.thisN'
p4705
I584
sg25
S'Y'
sg15
(lp4706
S'k'
asg30
g31
sg17
S'Y'
sg14
I12
sg19
Nsg95
I9
sS'.thisIndex'
p4707
I9
sa(dp4708
g16
(lp4709
S'd'
asg18
S'N'
sS'.thisRepN'
p4710
I39
sg26
S'Y'
sg20
S'Y'
sg32
g33
sS'.thisTrialN'
p4711
I0
sS'.thisN'
p4712
I585
sg25
S'Y'
sg15
(lp4713
S'k'
asg30
g31
sg17
S'Y'
sg14
I12
sg19
Nsg95
I6
sS'.thisIndex'
p4714
I6
sa(dp4715
g16
(lp4716
S'k'
asg18
S'Y'
sS'.thisRepN'
p4717
I39
sg26
S'Y'
sg20
S'Y'
sg32
g33
sS'.thisTrialN'
p4718
I1
sS'.thisN'
p4719
I586
sg25
S'Y'
sg15
(lp4720
S'd'
asg30
g31
sg17
S'Y'
sg14
I12
sg19
(lp4721
S'space'
p4722
asg95
I10
sS'.thisIndex'
p4723
I10
sa(dp4724
g16
(lp4725
S'k'
asg18
S'Y'
sS'.thisRepN'
p4726
I39
sg26
S'Y'
sg20
S'Y'
sg32
g33
sS'.thisTrialN'
p4727
I2
sS'.thisN'
p4728
I587
sg25
S'Y'
sg15
(lp4729
S'd'
asg30
g31
sg17
S'Y'
sg14
I12
sg19
(lp4730
S'space'
p4731
asg95
I8
sS'.thisIndex'
p4732
I8
sa(dp4733
g16
(lp4734
S'k'
asg18
S'N'
sS'.thisRepN'
p4735
I39
sg26
S'Y'
sg20
S'Y'
sg32
g33
sS'.thisTrialN'
p4736
I3
sS'.thisN'
p4737
I588
sg25
S'Y'
sg15
(lp4738
S'd'
asg30
g31
sg17
S'Y'
sg14
I12
sg19
Nsg95
I13
sS'.thisIndex'
p4739
I13
sa(dp4740
g16
(lp4741
S'k'
asg18
S'Y'
sS'.thisRepN'
p4742
I39
sg26
S'Y'
sg20
S'Y'
sg32
g33
sS'.thisTrialN'
p4743
I4
sS'.thisN'
p4744
I589
sg25
S'Y'
sg15
(lp4745
S'd'
asg30
g31
sg17
S'Y'
sg14
I12
sg19
(lp4746
S'space'
p4747
asg95
I2
sS'.thisIndex'
p4748
I2
sa(dp4749
g16
(lp4750
S'k'
asg18
S'N'
sS'.thisRepN'
p4751
I39
sg26
S'Y'
sg20
S'Y'
sg32
g33
sS'.thisTrialN'
p4752
I5
sS'.thisN'
p4753
I590
sg25
S'Y'
sg15
(lp4754
S'k'
asg30
g31
sg17
S'N'
sg14
I12
sg19
Nsg95
I8
sS'.thisIndex'
p4755
I8
sa(dp4756
g16
(lp4757
S'k'
asg18
S'Y'
sS'.thisRepN'
p4758
I39
sg26
S'Y'
sg20
S'Y'
sg32
g33
sS'.thisTrialN'
p4759
I6
sS'.thisN'
p4760
I591
sg25
S'Y'
sg15
(lp4761
S'd'
asg30
g31
sg17
S'Y'
sg14
I12
sg19
(lp4762
S'space'
p4763
asg95
I1
sS'.thisIndex'
p4764
I1
sa(dp4765
g16
(lp4766
S'd'
asg18
S'N'
sS'.thisRepN'
p4767
I39
sg26
S'Y'
sg20
S'Y'
sg32
g33
sS'.thisTrialN'
p4768
I7
sS'.thisN'
p4769
I592
sg25
S'Y'
sg15
(lp4770
S'k'
asg30
g31
sg17
S'Y'
sg14
I12
sg19
Nsg95
I10
sS'.thisIndex'
p4771
I10
sa(dp4772
g16
(lp4773
S'd'
asg18
S'N'
sS'.thisRepN'
p4774
I39
sg26
S'Y'
sg20
S'Y'
sg32
g33
sS'.thisTrialN'
p4775
I8
sS'.thisN'
p4776
I593
sg25
S'Y'
sg15
(lp4777
S'd'
asg30
g31
sg17
S'N'
sg14
I12
sg19
Nsg95
I2
sS'.thisIndex'
p4778
I2
sa(dp4779
g16
(lp4780
S'k'
asg18
S'N'
sS'.thisRepN'
p4781
I39
sg26
S'Y'
sg20
S'Y'
sg32
g33
sS'.thisTrialN'
p4782
I9
sS'.thisN'
p4783
I594
sg25
S'Y'
sg15
(lp4784
S'd'
asg30
g31
sg17
S'Y'
sg14
I12
sg19
Nsg95
I3
sS'.thisIndex'
p4785
I3
sa(dp4786
g16
(lp4787
S'd'
asg18
S'Y'
sS'.thisRepN'
p4788
I39
sg26
S'Y'
sg20
S'Y'
sg32
g33
sS'.thisTrialN'
p4789
I10
sS'.thisN'
p4790
I595
sg25
S'Y'
sg15
(lp4791
S'd'
asg30
g31
sg17
S'N'
sg14
I12
sg19
(lp4792
S'space'
p4793
asg95
I9
sS'.thisIndex'
p4794
I9
sa(dp4795
g16
(lp4796
S'd'
asg18
S'Y'
sS'.thisRepN'
p4797
I39
sg26
S'Y'
sg20
S'Y'
sg32
g33
sS'.thisTrialN'
p4798
I11
sS'.thisN'
p4799
I596
sg25
S'Y'
sg15
(lp4800
S'k'
asg30
g31
sg17
S'Y'
sg14
I12
sg19
(lp4801
S'space'
p4802
asg95
I3
sS'.thisIndex'
p4803
I3
sa(dp4804
g16
(lp4805
S'd'
asg18
S'N'
sS'.thisRepN'
p4806
I39
sg26
S'Y'
sg20
S'Y'
sg32
g33
sS'.thisTrialN'
p4807
I12
sS'.thisN'
p4808
I597
sg25
S'Y'
sg15
(lp4809
S'k'
asg30
g31
sg17
S'Y'
sg14
I12
sg19
Nsg95
I10
sS'.thisIndex'
p4810
I10
sa(dp4811
g16
(lp4812
S'k'
asg18
S'N'
sS'.thisRepN'
p4813
I39
sg26
S'Y'
sg20
S'Y'
sg32
g33
sS'.thisTrialN'
p4814
I13
sS'.thisN'
p4815
I598
sg25
S'Y'
sg15
(lp4816
S'd'
asg30
g31
sg17
S'Y'
sg14
I12
sg19
Nsg95
I11
sS'.thisIndex'
p4817
I11
sa(dp4818
g16
(lp4819
S'd'
asg18
S'N'
sg22
I46
sg26
S'Y'
sS'.thisN'
p4820
I599
sg20
S'Y'
sg32
g33
sS'.thisTrialN'
p4821
I14
sS'.thisRepN'
p4822
I39
sg21
I41
sg25
S'Y'
sg23
I18
sg15
(lp4823
S'k'
asg30
g31
sg17
S'Y'
sg14
I12
sg19
Nsg95
I5
sS'.thisIndex'
p4824
I5
sasS'loops'
p4825
(lp4826
g1
(g36
g3
NtRp4827
(dp4828
g39
Nsg40
(lp4829
sg41
I79799280
sg10
S''
sg6
g42
sg43
I1
sg27
I01
sg28
Nsg44
g1
(g45
g46
(dp4830
g48
g49
(g50
g51
g52
S'b'
tRp4831
(I1
(I600
I1
tg55
I00
S'\x00\x00\x80?\x00\x00\x80?\x00\x00\x80?\x00\x00\x80?\x00\x00\x80?\x00\x00\x80?\x00\x00\x80?\x00\x00\x80?\x00\x00\x80?\x00\x00\x80?\x00\x00\x80?\x00\x00\x80?\x00\x00\x80?\x00\x00\x80?\x00\x00\x80?\x00\x00\x80?\x00\x00\x80?\x00\x00\x80?\x00\x00\x80?\x00\x00\x80?\x00\x00\x80?\x00\x00\x80?\x00\x00\x80?\x00\x00\x80?\x00\x00\x80?\x00\x00\x80?\x00\x00\x80?\x00\x00\x80?\x00\x00\x80?\x00\x00\x80?\x00\x00\x80?\x00\x00\x80?\x00\x00\x80?\x00\x00\x80?\x00\x00\x80?\x00\x00\x80?\x00\x00\x80?\x00\x00\x80?\x00\x00\x80?\x00\x00\x80?\x00\x00\x80?\x00\x00\x80?\x00\x00\x80?\x00\x00\x80?\x00\x00\x80?\x00\x00\x80?\x00\x00\x80?\x00\x00\x80?\x00\x00\x80?\x00\x00\x80?\x00\x00\x80?\x00\x00\x80?\x00\x00\x80?\x00\x00\x80?\x00\x00\x80?\x00\x00\x80?\x00\x00\x80?\x00\x00\x80?\x00\x00\x80?\x00\x00\x80?\x00\x00\x80?\x00\x00\x80?\x00\x00\x80?\x00\x00\x80?\x00\x00\x80?\x00\x00\x80?\x00\x00\x80?\x00\x00\x80?\x00\x00\x80?\x00\x00\x80?\x00\x00\x80?\x00\x00\x80?\x00\x00\x80?\x00\x00\x80?\x00\x00\x80?\x00\x00\x80?\x00\x00\x80?\x00\x00\x80?\x00\x00\x80?\x00\x00\x80?\x00\x00\x80?\x00\x00\x80?\x00\x00\x80?\x00\x00\x80?\x00\x00\x80?\x00\x00\x80?\x00\x00\x80?\x00\x00\x80?\x00\x00\x80?\x00\x00\x80?\x00\x00\x80?\x00\x00\x80?\x00\x00\x80?\x00\x00\x80?\x00\x00\x80?\x00\x00\x80?\x00\x00\x80?\x00\x00\x80?\x00\x00\x80?\x00\x00\x80?\x00\x00\x80?\x00\x00\x80?\x00\x00\x80?\x00\x00\x80?\x00\x00\x80?\x00\x00\x80?\x00\x00\x80?\x00\x00\x80?\x00\x00\x80?\x00\x00\x80?\x00\x00\x80?\x00\x00\x80?\x00\x00\x80?\x00\x00\x80?\x00\x00\x80?\x00\x00\x80?\x00\x00\x80?\x00\x00\x80?\x00\x00\x80?\x00\x00\x80?\x00\x00\x80?\x00\x00\x80?\x00\x00\x80?\x00\x00\x80?\x00\x00\x80?\x00\x00\x80?\x00\x00\x80?\x00\x00\x80?\x00\x00\x80?\x00\x00\x80?\x00\x00\x80?\x00\x00\x80?\x00\x00\x80?\x00\x00\x80?\x00\x00\x80?\x00\x00\x80?\x00\x00\x80?\x00\x00\x80?\x00\x00\x80?\x00\x00\x80?\x00\x00\x80?\x00\x00\x80?\x00\x00\x80?\x00\x00\x80?\x00\x00\x80?\x00\x00\x80?\x00\x00\x80?\x00\x00\x80?\x00\x00\x80?\x00\x00\x80?\x00\x00\x80?\x00\x00\x80?\x00\x00\x80?\x00\x00\x80?\x00\x00\x80?\x00\x00\x80?\x00\x00\x80?\x00\x00\x80?\x00\x00\x80?\x00\x00\x80?\x00\x00\x80?\x00\x00\x80?\x00\x00\x80?\x00\x00\x80?\x00\x00\x80?\x00\x00\x80?\x00\x00\x80?\x00\x00\x80?\x00\x00\x80?\x00\x00\x80?\x00\x00\x80?\x00\x00\x80?\x00\x00\x80?\x00\x00\x80?\x00\x00\x80?\x00\x00\x80?\x00\x00\x80?\x00\x00\x80?\x00\x00\x80?\x00\x00\x80?\x00\x00\x80?\x00\x00\x80?\x00\x00\x80?\x00\x00\x80?\x00\x00\x80?\x00\x00\x80?\x00\x00\x80?\x00\x00\x80?\x00\x00\x80?\x00\x00\x80?\x00\x00\x80?\x00\x00\x80?\x00\x00\x80?\x00\x00\x80?\x00\x00\x80?\x00\x00\x80?\x00\x00\x80?\x00\x00\x80?\x00\x00\x80?\x00\x00\x80?\x00\x00\x80?\x00\x00\x80?\x00\x00\x80?\x00\x00\x80?\x00\x00\x80?\x00\x00\x80?\x00\x00\x80?\x00\x00\x80?\x00\x00\x80?\x00\x00\x80?\x00\x00\x80?\x00\x00\x80?\x00\x00\x80?\x00\x00\x80?\x00\x00\x80?\x00\x00\x80?\x00\x00\x80?\x00\x00\x80?\x00\x00\x80?\x00\x00\x80?\x00\x00\x80?\x00\x00\x80?\x00\x00\x80?\x00\x00\x80?\x00\x00\x80?\x00\x00\x80?\x00\x00\x80?\x00\x00\x80?\x00\x00\x80?\x00\x00\x80?\x00\x00\x80?\x00\x00\x80?\x00\x00\x80?\x00\x00\x80?\x00\x00\x80?\x00\x00\x80?\x00\x00\x80?\x00\x00\x80?\x00\x00\x80?\x00\x00\x80?\x00\x00\x80?\x00\x00\x80?\x00\x00\x80?\x00\x00\x80?\x00\x00\x80?\x00\x00\x80?\x00\x00\x80?\x00\x00\x80?\x00\x00\x80?\x00\x00\x80?\x00\x00\x80?\x00\x00\x80?\x00\x00\x80?\x00\x00\x80?\x00\x00\x80?\x00\x00\x80?\x00\x00\x80?\x00\x00\x80?\x00\x00\x80?\x00\x00\x80?\x00\x00\x80?\x00\x00\x80?\x00\x00\x80?\x00\x00\x80?\x00\x00\x80?\x00\x00\x80?\x00\x00\x80?\x00\x00\x80?\x00\x00\x80?\x00\x00\x80?\x00\x00\x80?\x00\x00\x80?\x00\x00\x80?\x00\x00\x80?\x00\x00\x80?\x00\x00\x80?\x00\x00\x80?\x00\x00\x80?\x00\x00\x80?\x00\x00\x80?\x00\x00\x80?\x00\x00\x80?\x00\x00\x80?\x00\x00\x80?\x00\x00\x80?\x00\x00\x80?\x00\x00\x80?\x00\x00\x80?\x00\x00\x80?\x00\x00\x80?\x00\x00\x80?\x00\x00\x80?\x00\x00\x80?\x00\x00\x80?\x00\x00\x80?\x00\x00\x80?\x00\x00\x80?\x00\x00\x80?\x00\x00\x80?\x00\x00\x80?\x00\x00\x80?\x00\x00\x80?\x00\x00\x80?\x00\x00\x80?\x00\x00\x80?\x00\x00\x80?\x00\x00\x80?\x00\x00\x80?\x00\x00\x80?\x00\x00\x80?\x00\x00\x80?\x00\x00\x80?\x00\x00\x80?\x00\x00\x80?\x00\x00\x80?\x00\x00\x80?\x00\x00\x80?\x00\x00\x80?\x00\x00\x80?\x00\x00\x80?\x00\x00\x80?\x00\x00\x80?\x00\x00\x80?\x00\x00\x80?\x00\x00\x80?\x00\x00\x80?\x00\x00\x80?\x00\x00\x80?\x00\x00\x80?\x00\x00\x80?\x00\x00\x80?\x00\x00\x80?\x00\x00\x80?\x00\x00\x80?\x00\x00\x80?\x00\x00\x80?\x00\x00\x80?\x00\x00\x80?\x00\x00\x80?\x00\x00\x80?\x00\x00\x80?\x00\x00\x80?\x00\x00\x80?\x00\x00\x80?\x00\x00\x80?\x00\x00\x80?\x00\x00\x80?\x00\x00\x80?\x00\x00\x80?\x00\x00\x80?\x00\x00\x80?\x00\x00\x80?\x00\x00\x80?\x00\x00\x80?\x00\x00\x80?\x00\x00\x80?\x00\x00\x80?\x00\x00\x80?\x00\x00\x80?\x00\x00\x80?\x00\x00\x80?\x00\x00\x80?\x00\x00\x80?\x00\x00\x80?\x00\x00\x80?\x00\x00\x80?\x00\x00\x80?\x00\x00\x80?\x00\x00\x80?\x00\x00\x80?\x00\x00\x80?\x00\x00\x80?\x00\x00\x80?\x00\x00\x80?\x00\x00\x80?\x00\x00\x80?\x00\x00\x80?\x00\x00\x80?\x00\x00\x80?\x00\x00\x80?\x00\x00\x80?\x00\x00\x80?\x00\x00\x80?\x00\x00\x80?\x00\x00\x80?\x00\x00\x80?\x00\x00\x80?\x00\x00\x80?\x00\x00\x80?\x00\x00\x80?\x00\x00\x80?\x00\x00\x80?\x00\x00\x80?\x00\x00\x80?\x00\x00\x80?\x00\x00\x80?\x00\x00\x80?\x00\x00\x80?\x00\x00\x80?\x00\x00\x80?\x00\x00\x80?\x00\x00\x80?\x00\x00\x80?\x00\x00\x80?\x00\x00\x80?\x00\x00\x80?\x00\x00\x80?\x00\x00\x80?\x00\x00\x80?\x00\x00\x80?\x00\x00\x80?\x00\x00\x80?\x00\x00\x80?\x00\x00\x80?\x00\x00\x80?\x00\x00\x80?\x00\x00\x80?\x00\x00\x80?\x00\x00\x80?\x00\x00\x80?\x00\x00\x80?\x00\x00\x80?\x00\x00\x80?\x00\x00\x80?\x00\x00\x80?\x00\x00\x80?\x00\x00\x80?\x00\x00\x80?\x00\x00\x80?\x00\x00\x80?\x00\x00\x80?\x00\x00\x80?\x00\x00\x80?\x00\x00\x80?\x00\x00\x80?\x00\x00\x80?\x00\x00\x80?\x00\x00\x80?\x00\x00\x80?\x00\x00\x80?\x00\x00\x80?\x00\x00\x80?\x00\x00\x80?\x00\x00\x80?\x00\x00\x80?\x00\x00\x80?\x00\x00\x80?\x00\x00\x80?\x00\x00\x80?\x00\x00\x80?\x00\x00\x80?\x00\x00\x80?\x00\x00\x80?\x00\x00\x80?\x00\x00\x80?\x00\x00\x80?\x00\x00\x80?\x00\x00\x80?\x00\x00\x80?\x00\x00\x80?\x00\x00\x80?\x00\x00\x80?\x00\x00\x80?\x00\x00\x80?\x00\x00\x80?\x00\x00\x80?\x00\x00\x80?\x00\x00\x80?\x00\x00\x80?\x00\x00\x80?\x00\x00\x80?\x00\x00\x80?\x00\x00\x80?\x00\x00\x80?\x00\x00\x80?\x00\x00\x80?\x00\x00\x80?\x00\x00\x80?\x00\x00\x80?\x00\x00\x80?\x00\x00\x80?\x00\x00\x80?\x00\x00\x80?\x00\x00\x80?\x00\x00\x80?\x00\x00\x80?\x00\x00\x80?\x00\x00\x80?\x00\x00\x80?\x00\x00\x80?\x00\x00\x80?\x00\x00\x80?\x00\x00\x80?\x00\x00\x80?\x00\x00\x80?\x00\x00\x80?\x00\x00\x80?\x00\x00\x80?\x00\x00\x80?\x00\x00\x80?\x00\x00\x80?\x00\x00\x80?\x00\x00\x80?\x00\x00\x80?\x00\x00\x80?\x00\x00\x80?\x00\x00\x80?\x00\x00\x80?\x00\x00\x80?\x00\x00\x80?\x00\x00\x80?\x00\x00\x80?\x00\x00\x80?\x00\x00\x80?\x00\x00\x80?\x00\x00\x80?\x00\x00\x80?\x00\x00\x80?\x00\x00\x80?\x00\x00\x80?\x00\x00\x80?\x00\x00\x80?\x00\x00\x80?\x00\x00\x80?\x00\x00\x80?\x00\x00\x80?\x00\x00\x80?\x00\x00\x80?\x00\x00\x80?\x00\x00\x80?\x00\x00\x80?\x00\x00\x80?\x00\x00\x80?\x00\x00\x80?\x00\x00\x80?\x00\x00\x80?\x00\x00\x80?\x00\x00\x80?\x00\x00\x80?\x00\x00\x80?\x00\x00\x80?\x00\x00\x80?\x00\x00\x80?\x00\x00\x80?\x00\x00\x80?\x00\x00\x80?\x00\x00\x80?\x00\x00\x80?\x00\x00\x80?\x00\x00\x80?\x00\x00\x80?\x00\x00\x80?\x00\x00\x80?\x00\x00\x80?\x00\x00\x80?\x00\x00\x80?\x00\x00\x80?\x00\x00\x80?\x00\x00\x80?\x00\x00\x80?\x00\x00\x80?\x00\x00\x80?\x00\x00\x80?\x00\x00\x80?\x00\x00\x80?\x00\x00\x80?\x00\x00\x80?\x00\x00\x80?\x00\x00\x80?\x00\x00\x80?\x00\x00\x80?\x00\x00\x80?\x00\x00\x80?\x00\x00\x80?\x00\x00\x80?\x00\x00\x80?\x00\x00\x80?\x00\x00\x80?\x00\x00\x80?\x00\x00\x80?\x00\x00\x80?\x00\x00\x80?\x00\x00\x80?\x00\x00\x80?\x00\x00\x80?\x00\x00\x80?\x00\x00\x80?\x00\x00\x80?\x00\x00\x80?\x00\x00\x80?\x00\x00\x80?\x00\x00\x80?\x00\x00\x80?\x00\x00\x80?\x00\x00\x80?\x00\x00\x80?\x00\x00\x80?\x00\x00\x80?\x00\x00\x80?\x00\x00\x80?'
S'\x00\x00\x00\x00\x00\x00\x00\x00\x00\x00\x00\x00\x00\x00\x00\x00\x00\x00\x00\x00\x00\x00\x00\x00\x00\x00\x00\x00\x00\x00\x00\x00\x00\x00\x00\x00\x00\x00\x00\x00\x00\x00\x00\x00\x00\x00\x00\x00\x00\x00\x00\x00\x00\x00\x00\x00\x00\x00\x00\x00\x00\x00\x00\x00\x00\x00\x00\x00\x00\x00\x00\x00\x00\x00\x00\x00\x00\x00\x00\x00\x00\x00\x00\x00\x00\x00\x00\x00\x00\x00\x00\x00\x00\x00\x00\x00\x00\x00\x00\x00\x00\x00\x00\x00\x00\x00\x00\x00\x00\x00\x00\x00\x00\x00\x00\x00\x00\x00\x00\x00\x00\x00\x00\x00\x00\x00\x00\x00\x00\x00\x00\x00\x00\x00\x00\x00\x00\x00\x00\x00\x00\x00\x00\x00\x00\x00\x00\x00\x00\x00\x00\x00\x00\x00\x00\x00\x00\x00\x00\x00\x00\x00\x00\x00\x00\x00\x00\x00\x00\x00\x00\x00\x00\x00\x00\x00\x00\x00\x00\x00\x00\x00\x00\x00\x00\x00\x00\x00\x00\x00\x00\x00\x00\x00\x00\x00\x00\x00\x00\x00\x00\x00\x00\x00\x00\x00\x00\x00\x00\x00\x00\x00\x00\x00\x00\x00\x00\x00\x00\x00\x00\x00\x00\x00\x00\x00\x00\x00\x00\x00\x00\x00\x00\x00\x00\x00\x00\x00\x00\x00\x00\x00\x00\x00\x00\x00\x00\x00\x00\x00\x00\x00\x00\x00\x00\x00\x00\x00\x00\x00\x00\x00\x00\x00\x00\x00\x00\x00\x00\x00\x00\x00\x00\x00\x00\x00\x00\x00\x00\x00\x00\x00\x00\x00\x00\x00\x00\x00\x00\x00\x00\x00\x00\x00\x00\x00\x00\x00\x00\x00\x00\x00\x00\x00\x00\x00\x00\x00\x00\x00\x00\x00\x00\x00\x00\x00\x00\x00\x00\x00\x00\x00\x00\x00\x00\x00\x00\x00\x00\x00\x00\x00\x00\x00\x00\x00\x00\x00\x00\x00\x00\x00\x00\x00\x00\x00\x00\x00\x00\x00\x00\x00\x00\x00\x00\x00\x00\x00\x00\x00\x00\x00\x00\x00\x00\x00\x00\x00\x00\x00\x00\x00\x00\x00\x00\x00\x00\x00\x00\x00\x00\x00\x00\x00\x00\x00\x00\x00\x00\x00\x00\x00\x00\x00\x00\x00\x00\x00\x00\x00\x00\x00\x00\x00\x00\x00\x00\x00\x00\x00\x00\x00\x00\x00\x00\x00\x00\x00\x00\x00\x00\x00\x00\x00\x00\x00\x00\x00\x00\x00\x00\x00\x00\x00\x00\x00\x00\x00\x00\x00\x00\x00\x00\x00\x00\x00\x00\x00\x00\x00\x00\x00\x00\x00\x00\x00\x00\x00\x00\x00\x00\x00\x00\x00\x00\x00\x00\x00\x00\x00\x00\x00\x00\x00\x00\x00\x00\x00\x00\x00\x00\x00\x00\x00\x00\x00\x00\x00\x00\x00\x00\x00\x00\x00\x00\x00\x00\x00\x00\x00\x00\x00\x00\x00\x00\x00\x00\x00\x00\x00\x00\x00\x00\x00\x00\x00\x00\x00\x00\x00\x00\x00\x00\x00\x00\x00\x00\x00\x00\x00\x00\x00\x00\x00\x00\x00\x00\x00\x00\x00\x00\x00\x00\x00\x00\x00\x00\x00\x00\x00\x00\x00\x00\x00\x00\x00\x00\x00\x00\x00\x00\x00\x00\x00\x00\x00\x00\x00\x00\x00\x00\x00\x00\x00\x00\x00\x00\x00\x00\x00\x00\x00\x00\x00\x00\x00\x00\x00\x00\x00\x00\x00\x00\x00\x00\x00\x00\x00\x00\x00'
Ntbsg56
g49
(g50
g51
g52
S'b'
tRp4832
(I1
(I600
I1
tg55
I00
S'\x00\x80\x8fC\x00\x00\tC\x00\x00tB\x00\x00\xb0B\x00\x00CC\x00\x00\xeaB\x00\x80\xd1C\x00\x00\x1aC\x00\x80\x94C\x00\x00\x97C\x00\x80\x98C\x00\x80\x9bC\x00\xc0\x01D\x00\x80\x05D\x00\x00\xf4C\x00\x00\x93C\x00\x00\xa5C\x00\x80\x83C\x00\x00\nC\x00\x00\x15D\x00\x00lB\x00@\x07D\x00\x00DB\x00\x00\x03C\x00\x00\xabC\x00\x00\xecC\x00\x00BC\x00\x00UC\x00\x00\xa6B\x00\x006C\x00\x80\x9fC\x00\x00\xf6C\x00\x00"C\x00\x00LB\x00\x00TB\x00\x00\xdbC\x00\x00\xb0A\x00\x80\xbcC\x00\x00kC\x00\x000C\x00\x80\xaaC\x00\x002C\x00\x00\xacC\x00\x80\x87C\x00\x00\xceB\x00\xc0\x03D\x00\x80\x06D\x00\x80\x04D\x00\x00JC\x00\x001C\x00\x00\x86B\x00\x80\xa9C\x00\x00\x8cC\x00\x00\x14D\x00\x00\x06C\x00\x00\x14B\x00\x00pB\x00\x00`B\x00\x00\xc8C\x00\x00\xf0B\x00\x00\x80?\x00\x00\xa1C\x00\x00\xe6B\x00\x80\xa2C\x00\x80\xf4C\x00\x00\xaeB\x00@\x01D\x00\x00\x08B\x00\x00\xcaB\x00\x00\xfbC\x00\x00\x0cB\x00\x00SC\x00\x00YC\x00\x00\xe5C\x00\x00\x18C\x00\x008C\x00\x00\x04C\x00\x00\x88A\x00\x00\x91C\x00\x00\xf8C\x00\x00\x9cB\x00\x00\xb2B\x00\x00\x98A\x00\x00\x94C\x00\x00|C\x00\xc0\x14D\x00\x80\xe8C\x00\x80\xb3C\x00\x00\x00A\x00\x00VC\x00\x80\xaeC\x00\x00\xc0B\x00\x80\xebC\x00\x00\x95C\x00\x00\xd0B\x00\x80\xdaC\x00\x80\x97C\x00\x00\x86C\x00\x80\x81C\x00\x00\x84C\x00\x00\xd8C\x00\x00\x05C\x00\x00\x1cB\x00\x80\xcfC\x00\x80\x96C\x00\xc0\x06D\x00\xc0\x11D\x00\x00\x00D\x00\x00\xa7C\x00\x00\xf6B\x00\x00\x80B\x00\x00\xd6C\x00\x80\x8bC\x00\x80\x80C\x00\x00MC\x00\x80\rD\x00\xc0\x15D\x00\x00OC\x00\x00\xaaC\x00\x00\xccC\x00\x80\xc4C\x00\x80\xa1C\x00\x80\x84C\x00\x00\xbdC\x00\x00[C\x00\x00\x88C\x00\x00\xe2C\x00\x00\xf0C\x00\x00\x9eC\x00\xc0\x0eD\x00\x00\xd0A\x00\x00=C\x00\x00\xd9C\x00\x00\x9dC\x00\x00\x9fC\x00\x80\xb6C\x00\x00\x8bC\x00\x00\xdcC\x00\x00$B\x00\x80\x0fD\x00\x00\xe8C\x00\x80\xf1C\x00\x80\xbdC\x00\x00fC\x00\xc0\x08D\x00\x00\x13C\x00\x80\xc0C\x00\x80\x10D\x00\x00vC\x00\x80\xf7C\x00\x00\x10D\x00\x00\xa0C\x00\x00\xd4B\x00\x00&C\x00\x00\xbeC\x00\x00\xd2B\x00\x80\xd3C\x00\x00\xddC\x00\x00\xe1C\x00\x00\xbeB\x00\x00\xb2C\x00\x00\x99C\x00\x00\x12D\x00\x00\xdaC\x00\x00\xfcC\x00@\x05D\x00\x00\xa4B\x00\x80\xe2C\x00\x80\xd0C\x00\x00\xf5C\x00\x00\xb4C\x00\x80\xf9C\x00\x80\xfaC\x00\x00\x11C\x00\x00\xfeB\x00\x00\\C\x00\x80\xb0C\x00\x00\\B\x00@\nD\x00\x00\xaaB\x00\x00\x92C\x00\x80\x82C\x00\x00\xf3C\x00\x00\xceC\x00\x00\x10A\x00\x00yC\x00\x00*C\x00\x00\xdeC\x00\x00`C\x00\x00WC\x00\xc0\x05D\x00@\x15D\x00\x80\xa5C\x00\x80\xedC\x00@\x14D\x00\x80\x90C\x00\x00dB\x00\x00PB\x00@\x03D\x00\x80\x88C\x00\x80\xf0C\x00\x00]C\x00\x80\xb1C\x00\x00{C\x00\x00\xaeC\x00\x00PC\x00\x80\xb7C\x00\x80\xe9C\x00\x00 A\x00\x00\xc5C\x00\x80\xcbC\x00\x009C\x00\x00\xc4B\x00\x00\x94B\x00\x00\xa0B\x00\x00\xadC\x00\x00\xc2C\x00\x80\xd8C\x00\x00\x80C\x00\x00@C\x00\x80\x03D\x00\x00-C\x00\x00oC\x00\x00gC\x00\x00\xf0A\x00@\x0bD\x00\x00\xf7C\x00\x80\x0cD\x00\x80\x99C\x00\x00\xf8B\x00\x00TC\x00\x00jC\x00\x00HB\x00\x00xB\x00\x00\xd5C\x00@\x10D\x00\x80\xf5C\x00\x00\xacB\x00\x80\nD\x00\x80\xabC\x00\x00\x0fC\x00\xc0\x04D\x00\x00^C\x00\x00pA\x00\x00\x9eB\x00\x80\x01D\x00\xc0\x0fD\x00\x80\x95C\x00\x80\xbeC\x00\x80\xecC\x00\x80\xf2C\x00\x00\x02D\x00\x00\xccB\x00\x00LC\x00\x008B\x00\x007C\x00\x80\xa4C\x00\x80\x85C\x00\x00|B\x00\x00\x08C\x00@\x12D\x00\x80\x9dC\x00\x00\xe7C\x00\x00\x00\x00\x00@\x0fD\x00\x00,B\x00\x80\x8aC\x00@\x08D\x00\x80\xb5C\x00\x00\x0eC\x00\x005C\x00\x00\x01C\x00\x00\xa8C\x00\x80\xeeC\x00\x00\tD\x00\x00\xe4C\x00\x00\xeeB\x00\x00\xb5C\x00\x00\xbaB\x00\x80\xe5C\x00\x00\xe4B\x00@\rD\x00\x80\xa7C\x00\x80\xc7C\x00\x00\x83C\x00\x00\xa6C\x00\x00\xb1C\x00\x80\xcdC\x00\x00\x9aB\x00\x00\xb7C\x00\x00\'C\x00\x80\xadC\x00\x00\xc1C\x00\x00\x80A\x00\x80\xa6C\x00\x00+C\x00\x00\xeeC\x00\x00\x9cC\x00\x00\x8cB\x00\x00\xe0@\x00\x80\xe1C\x00\x00\x02C\x00\x00!C\x00\x00\x10B\x00\x00\xc6B\x00\x00:C\x00\xc0\x0bD\x00\x00eC\x00\x00\xc0C\x00\x00\x04B\x00\x00hC\x00\x00\x0eD\x00\x80\xf6C\x00\x00\xdeB\x00\x00)C\x00\x80\xd9C\x00\x80\xe0C\x00\x80\xb8C\x00\x00\x17C\x00\x00\x88B\x00\x00\x90A\x00\x00cC\x00\x00\xc9C\x00\x00\x9bC\x00\x00\xbaC\x00\x00\xeaC\x00\x00dC\x00@\x0eD\x00\x80\x8cC\x00\x00\xbfC\x00\x80\xb2C\x00\x80\xd7C\x00@\x13D\x00\x00\xc6C\x00\x00\xf2B\x00\x80\xccC\x00\x00\xc8B\x00\x00mC\x00\x80\xe6C\x00\x80\xddC\x00\x00\x92B\x00\x00 C\x00\x00\xefC\x00\x00\x04D\x00\x00\x96B\x00\x00\xa9C\x00\x00\xf8A\x00\x00\xecB\x00\x00\xb8A\x00\x80\xdfC\x00\x00\x8dC\x00\x00\xb8C\x00@\x04D\x00\x80\x00D\x00\x00\xd8A\x00\x00wC\x00\x00\xe2B\x00\x00\x98C\x00\x00@A\x00\x00\x8eC\x00\x00\x90C\x00\x00\x1fC\x00\x80\x89C\x00\x00\x0cC\x00\x00#C\x00\x00\xb4B\x00\x80\xc6C\x00\x00\x82C\x00\xc0\tD\x00\x80\xfdC\x00\x00\xa8B\x00\x00\xa0@\x00\x80\xd4C\x00\x00\xc0@\x00\x00 B\x00@\x02D\x00\x00\x80@\x00\x80\xafC\x00\x00\x0fD\x00\x80\x08D\x00\x00\x0bD\x00\x00`A\x00\x00DC\x00\x00$C\x00\x80\xa8C\x00\x00\xa0A\x00\x00uC\x00\x00_C\x00\x00\xfaB\x00\x80\xdbC\x00\x00\x96C\x00\x00\xebC\x00\x80\xa0C\x00\x80\xdeC\x00\x80\x02D\x00\x00\x00C\x00\x00\xc2B\x00\x00\x03D\x00\x80\x86C\x00\x80\xffC\x00\x00PA\x00\x00\xd1C\x00\x80\xcaC\x00\x00\xd7C\x00\x80\xceC\x00\x00\xc7C\x00\xc0\rD\x00\x00XB\x00\x00\x00@\x00\x80\xfeC\x00\x00\x12C\x00\x000B\x00\x80\x12D\x00\x00\xafC\x00\x00\x16C\x00\x00\xd4C\x00\x80\xc3C\x00\x00\x1cC\x00\x00\x13D\x00\x80\x0bD\x00\x80\x8dC\x00\x80\xacC\x00\x00NC\x00\x00\xf2C\x00\x80\xa3C\x00\x00\x08D\x00\x00\xedC\x00\x00rC\x00\x00IC\x00\x00(C\x00\x00\x8eB\x00\x80\tD\x00\x00sC\x00@\x06D\x00\xc0\x00D\x00\x00\xcfC\x00\x00\x8aB\x00\x00qC\x00\x00\x14C\x00\x00aC\x00\x00\x81C\x00\x00\x87C\x00\x80\xd6C\x00\x00EC\x00\x00\rD\x00\x80\x07D\x00\x00AC\x00\x003C\x00\x00\xdfC\x00\x00XC\x00\x00\x89C\x00\x00@@\x00\x00\xb3C\x00\x00\rC\x00\x00\x07C\x00\x80\xbaC\x00\x80\xefC\x00\x80\xe3C\x00\x00\xbcB\x00\x00\xf1C\x00\x00\x1eC\x00\x00iC\x00\x00RC\x00\x00\xc4C\x00\x00\xd3C\x00\x004B\x00\x00\xe8B\x00\xc0\x02D\x00\x00hB\x00\x00\xcbC\x00\x00\x19C\x00\x80\x13D\x00\x80\xbfC\x00\x00\xb8B\x00\x00\x07D\x00\x80\xfcC\x00\x00.C\x00\x80\xbbC\x00\x00\x05D\x00\x80\xb9C\x00\x00\x1bC\x00\xc0\x07D\x00\x00\xe0B\x00\x00\x0bC\x00\x80\x92C\x00\x00GC\x00\x00/C\x00\x80\xeaC\x00\x004C\x00\x00\x98B\x00\x00\xe3C\x00\x00,C\x00\x00\xa4C\x00\x00~C\x00\x00\x84B\x00\x00\xcdC\x00\x00\x8aC\x00\x80\xf3C\x00@\tD\x00\x80\x0eD\x00\x80\xc9C\x00\x80\xe7C\x00\x00>C\x00\x80\x93C\x00\x00\xcaC\x00\x00\xfcB\x00\x00\xfdC\x00\x00<C\x00\x80\xb4C\x00\x00ZC\x00\x00;C\x00\x00\x00B\x00\x80\xc5C\x00\x80\x9cC\x00\x80\x8eC\x00\x00<B\x00\x00\xb6C\x00\x00?C\x00\x00\xe8A\x00\x00\xdcB\x00\x00\xa2B\x00\x80\xdcC\x00\x00\xc0A\x00\x00(B\x00\x00\xf9C\x00\x00\xb9C\x00\x80\xc8C\x00\x00\xb0C\x00\x00\xe9C\x00\x00\x15C\x00\xc0\x12D\x00\x00\xfaC\x00@\x11D\x00\x00\x10C\x00@\x00D\x00\x00KC\x00\x00\xe0A\x00\x80\xc1C\x00\x00\xb6B\x00\x000A\x00\x00zC\x00\x00\x85C\x00\x00\xd6B\x00\x00\xa3C\x00\x00\x90B\x00\xc0\x0cD\x00\x00bC\x00\x80\xe4C\x00\x00QC\x00\x80\x15D\x00@\x0cD\x00\x00\x8fC\x00\x80\xf8C\x00\x00lC\x00\x00tC\x00\x00\xd0C\x00\xc0\x13D\x00\x00\x01D\x00\x00\nD\x00\x00\x06D\x00\x00\x1dC\x00\x00\xd2C\x00\x00\x18B\x00\xc0\nD\x00\x00\xffC\x00\x80\x9eC\x00\x00\xe6C\x00\x80\x9aC\x00\x80\x11D\x00\x80\xfbC\x00\x00\x0cD\x00\x00\xdaB\x00\xc0\x10D\x00\x00\x7fC\x00\x80\xd5C\x00\x00\xe0C\x00\x00\xc8A\x00\x00nC\x00\x00FC\x00\x80\xc2C\x00\x00pC\x00\x00\x9aC\x00\x00HC\x00\x00\x82B\x00\x80\xd2C\x00\x00\xf4B\x00\x00@B\x00\x00\xd8B\x00\x00\xbcC\x00\x00xC\x00\x00\x11D\x00\x00\xa8A\x00\x80\x14D\x00\x00\xbbC\x00\x00}C\x00\x00\xc3C\x00\x00%C\x00\x00\xfeC\x00\x80\x91C\x00\x00\xa2C'
S'\x00\x00\x00\x00\x00\x00\x00\x00\x00\x00\x00\x00\x00\x00\x00\x00\x00\x00\x00\x00\x00\x00\x00\x00\x00\x00\x00\x00\x00\x00\x00\x00\x00\x00\x00\x00\x00\x00\x00\x00\x00\x00\x00\x00\x00\x00\x00\x00\x00\x00\x00\x00\x00\x00\x00\x00\x00\x00\x00\x00\x00\x00\x00\x00\x00\x00\x00\x00\x00\x00\x00\x00\x00\x00\x00\x00\x00\x00\x00\x00\x00\x00\x00\x00\x00\x00\x00\x00\x00\x00\x00\x00\x00\x00\x00\x00\x00\x00\x00\x00\x00\x00\x00\x00\x00\x00\x00\x00\x00\x00\x00\x00\x00\x00\x00\x00\x00\x00\x00\x00\x00\x00\x00\x00\x00\x00\x00\x00\x00\x00\x00\x00\x00\x00\x00\x00\x00\x00\x00\x00\x00\x00\x00\x00\x00\x00\x00\x00\x00\x00\x00\x00\x00\x00\x00\x00\x00\x00\x00\x00\x00\x00\x00\x00\x00\x00\x00\x00\x00\x00\x00\x00\x00\x00\x00\x00\x00\x00\x00\x00\x00\x00\x00\x00\x00\x00\x00\x00\x00\x00\x00\x00\x00\x00\x00\x00\x00\x00\x00\x00\x00\x00\x00\x00\x00\x00\x00\x00\x00\x00\x00\x00\x00\x00\x00\x00\x00\x00\x00\x00\x00\x00\x00\x00\x00\x00\x00\x00\x00\x00\x00\x00\x00\x00\x00\x00\x00\x00\x00\x00\x00\x00\x00\x00\x00\x00\x00\x00\x00\x00\x00\x00\x00\x00\x00\x00\x00\x00\x00\x00\x00\x00\x00\x00\x00\x00\x00\x00\x00\x00\x00\x00\x00\x00\x00\x00\x00\x00\x00\x00\x00\x00\x00\x00\x00\x00\x00\x00\x00\x00\x00\x00\x00\x00\x00\x00\x00\x00\x00\x00\x00\x00\x00\x00\x00\x00\x00\x00\x00\x00\x00\x00\x00\x00\x00\x00\x00\x00\x00\x00\x00\x00\x00\x00\x00\x00\x00\x00\x00\x00\x00\x00\x00\x00\x00\x00\x00\x00\x00\x00\x00\x00\x00\x00\x00\x00\x00\x00\x00\x00\x00\x00\x00\x00\x00\x00\x00\x00\x00\x00\x00\x00\x00\x00\x00\x00\x00\x00\x00\x00\x00\x00\x00\x00\x00\x00\x00\x00\x00\x00\x00\x00\x00\x00\x00\x00\x00\x00\x00\x00\x00\x00\x00\x00\x00\x00\x00\x00\x00\x00\x00\x00\x00\x00\x00\x00\x00\x00\x00\x00\x00\x00\x00\x00\x00\x00\x00\x00\x00\x00\x00\x00\x00\x00\x00\x00\x00\x00\x00\x00\x00\x00\x00\x00\x00\x00\x00\x00\x00\x00\x00\x00\x00\x00\x00\x00\x00\x00\x00\x00\x00\x00\x00\x00\x00\x00\x00\x00\x00\x00\x00\x00\x00\x00\x00\x00\x00\x00\x00\x00\x00\x00\x00\x00\x00\x00\x00\x00\x00\x00\x00\x00\x00\x00\x00\x00\x00\x00\x00\x00\x00\x00\x00\x00\x00\x00\x00\x00\x00\x00\x00\x00\x00\x00\x00\x00\x00\x00\x00\x00\x00\x00\x00\x00\x00\x00\x00\x00\x00\x00\x00\x00\x00\x00\x00\x00\x00\x00\x00\x00\x00\x00\x00\x00\x00\x00\x00\x00\x00\x00\x00\x00\x00\x00\x00\x00\x00\x00\x00\x00\x00\x00\x00\x00\x00\x00\x00\x00\x00\x00\x00\x00\x00\x00\x00\x00\x00\x00\x00\x00\x00\x00\x00\x00\x00\x00\x00\x00\x00\x00\x00\x00\x00\x00\x00\x00\x00\x00\x00\x00\x00\x00\x00\x00\x00\x00\x00\x00\x00\x00'
NtbstRp4833
(dp4834
g60
(dp4835
g48
I01
sg56
I01
ssg62
g4827
sg63
(lp4836
g48
ag56
asg65
(lp4837
I600
aI1
asbsg67
S'random'
p4838
sg69
g70
(g51
(I0
tS'b'
tRp4839
(I1
(I600
I1
tg54
(S'i4'
I0
I1
tRp4840
(I3
S'<'
NNNI-1
I-1
I0
tbI01
S'\x07\x01\x00\x00<\x00\x00\x00\x98\x01\x00\x00\xc3\x01\x00\x00x\x01\x00\x00s\x01\x00\x00u\x01\x00\x00+\x01\x00\x00X\x00\x00\x00\xb8\x00\x00\x00\xd0\x00\x00\x00\x1b\x02\x00\x00f\x01\x00\x00\x90\x01\x00\x00}\x01\x00\x00\xf3\x00\x00\x00%\x01\x00\x00M\x00\x00\x00@\x01\x00\x00R\x00\x00\x00\x81\x01\x00\x00O\x02\x00\x00$\x00\x00\x00\\\x01\x00\x00\n\x02\x00\x00@\x02\x00\x00\x82\x00\x00\x00b\x01\x00\x00\x18\x02\x00\x00\x06\x02\x00\x00\xe0\x00\x00\x00Z\x01\x00\x00\xff\x01\x00\x005\x01\x00\x00C\x00\x00\x00F\x00\x00\x00/\x01\x00\x007\x00\x00\x002\x02\x00\x00f\x00\x00\x00v\x01\x00\x00\x8a\x00\x00\x00\x0b\x02\x00\x00\t\x01\x00\x00\x9b\x01\x00\x00\xd1\x01\x00\x00\xfe\x00\x00\x00\x03\x02\x00\x00J\x02\x00\x00\x16\x00\x00\x00\xe8\x00\x00\x00!\x00\x00\x00\xc5\x00\x00\x00"\x00\x00\x00\x97\x01\x00\x00\xb1\x00\x00\x009\x00\x00\x00\xc4\x00\x00\x00\xd4\x01\x00\x00\x14\x00\x00\x008\x00\x00\x00\x02\x00\x00\x00\xe9\x00\x00\x00\x02\x01\x00\x00n\x00\x00\x00G\x02\x00\x00\xee\x01\x00\x002\x00\x00\x00?\x01\x00\x00\xb4\x01\x00\x00*\x01\x00\x00\xae\x01\x00\x00 \x02\x00\x00T\x01\x00\x00\xd5\x00\x00\x00X\x01\x00\x00\xe9\x01\x00\x00 \x01\x00\x00P\x00\x00\x00\xf4\x00\x00\x00\xd6\x00\x00\x00\x08\x02\x00\x00\xa6\x00\x00\x00\x1c\x00\x00\x00r\x01\x00\x00\xb3\x00\x00\x00\xed\x00\x00\x00A\x00\x00\x00\x03\x00\x00\x00Q\x00\x00\x00m\x01\x00\x00\x1a\x02\x00\x00\xd9\x01\x00\x00\x16\x01\x00\x00\xca\x01\x00\x00\x9f\x00\x00\x00[\x00\x00\x00\x8c\x01\x00\x00\xd4\x00\x00\x000\x01\x00\x00P\x01\x00\x00D\x00\x00\x00\xfc\x00\x00\x00,\x00\x00\x00^\x00\x00\x00\x9b\x00\x00\x00\x98\x00\x00\x00\x1e\x02\x00\x00K\x02\x00\x00;\x02\x00\x00\x07\x02\x00\x009\x01\x00\x00\xe2\x01\x00\x00d\x01\x00\x00\x18\x01\x00\x00>\x00\x00\x00\xd2\x01\x00\x00\x05\x00\x00\x00[\x01\x00\x00\x14\x01\x00\x00;\x00\x00\x00N\x01\x00\x00I\x02\x00\x00m\x00\x00\x00\xe5\x00\x00\x00\x84\x01\x00\x00\xf9\x01\x00\x00\xae\x00\x00\x00\x8b\x01\x00\x00\x0f\x01\x00\x00-\x01\x00\x00\x17\x00\x00\x00L\x00\x00\x00e\x00\x00\x006\x00\x00\x00\xc6\x01\x00\x00\x03\x01\x00\x00\x01\x00\x00\x00\x12\x00\x00\x00\xe3\x01\x00\x00k\x01\x00\x00\xc5\x01\x00\x00\r\x01\x00\x00\xf0\x00\x00\x00\x15\x02\x00\x00\xad\x00\x00\x00\x9a\x01\x00\x00\x91\x00\x00\x00\xb6\x01\x00\x00\x11\x02\x00\x00\x9e\x01\x00\x00>\x01\x00\x00J\x00\x00\x00\xd6\x01\x00\x00\x07\x00\x00\x00\xe0\x01\x00\x00\xa1\x01\x00\x000\x02\x00\x00\xcc\x01\x00\x00i\x01\x00\x00U\x01\x00\x00.\x01\x00\x00 \x00\x00\x00l\x01\x00\x00\x7f\x01\x00\x00T\x02\x00\x00\x99\x00\x00\x00"\x01\x00\x00\xad\x01\x00\x00:\x01\x00\x00\xba\x00\x00\x00\'\x01\x00\x00\xeb\x01\x00\x00\xdd\x00\x00\x00\xdc\x01\x00\x00\xe6\x01\x00\x00\'\x00\x00\x001\x00\x00\x00)\x00\x00\x00\xbf\x01\x00\x00\xe8\x01\x00\x00\x0e\x01\x00\x00\x1d\x00\x00\x00\xff\x00\x00\x00K\x00\x00\x00\xd3\x00\x00\x001\x01\x00\x00\xfe\x01\x00\x00\xfb\x01\x00\x00\x83\x00\x00\x00\xf6\x01\x00\x00\x05\x02\x00\x00\xdb\x00\x00\x00\xbe\x01\x00\x00\x1a\x00\x00\x00\x04\x00\x00\x00~\x01\x00\x00\xbb\x01\x00\x00B\x02\x00\x00\xe5\x01\x00\x00F\x02\x00\x00\xac\x01\x00\x000\x00\x00\x00\x17\x02\x00\x00\xfd\x00\x00\x00r\x00\x00\x00\xa6\x01\x00\x00u\x00\x00\x00\xcd\x00\x00\x00$\x02\x00\x00\xce\x01\x00\x00G\x00\x00\x00\xe6\x00\x00\x00\x1b\x00\x00\x00Y\x00\x00\x00\xbd\x00\x00\x00\xc1\x01\x00\x00H\x00\x00\x00\xfd\x01\x00\x00|\x00\x00\x00\xaf\x00\x00\x00\xc9\x00\x00\x00\xf2\x00\x00\x00\x83\x01\x00\x00\xbc\x00\x00\x00\xb7\x01\x00\x00"\x02\x00\x00A\x01\x00\x00F\x01\x00\x003\x01\x00\x00\x8f\x00\x00\x00\xdf\x00\x00\x006\x01\x00\x00\xcd\x01\x00\x00\xe7\x00\x00\x00&\x00\x00\x00)\x02\x00\x00Q\x01\x00\x00A\x02\x00\x00\xde\x00\x00\x00D\x02\x00\x00\xb5\x01\x00\x00\xab\x01\x00\x00\xb0\x01\x00\x00*\x02\x00\x00\x82\x01\x00\x00\x94\x00\x00\x00c\x01\x00\x00M\x02\x00\x00\xb9\x00\x00\x00\x1c\x02\x00\x00\xcb\x00\x00\x00T\x00\x00\x00R\x02\x00\x00\xed\x01\x00\x00=\x02\x00\x00\xda\x00\x00\x00q\x00\x00\x00\xb8\x01\x00\x00b\x00\x00\x00o\x01\x00\x00\xb5\x00\x00\x00\x1c\x01\x00\x00\x11\x00\x00\x00c\x00\x00\x00z\x00\x00\x00\x1d\x02\x00\x00\x01\x01\x00\x00a\x00\x00\x00\x8e\x01\x00\x00\xb9\x01\x00\x00+\x00\x00\x00}\x00\x00\x00\xc7\x00\x00\x00\xc2\x01\x00\x00j\x01\x00\x00\xf0\x01\x00\x00\n\x01\x00\x00\x88\x00\x00\x00p\x00\x00\x004\x00\x00\x00H\x01\x00\x00^\x01\x00\x00\xa4\x01\x00\x00g\x01\x00\x00\x02\x02\x00\x00\'\x02\x00\x00\x00\x00\x00\x00h\x01\x00\x00\xc3\x00\x00\x00N\x00\x00\x00V\x02\x00\x00\xb4\x00\x00\x00\xe4\x01\x00\x00\x0f\x00\x00\x00\xf7\x01\x00\x00S\x00\x00\x00\x08\x00\x00\x00]\x00\x00\x00\xf7\x00\x00\x00\x86\x01\x00\x00h\x00\x00\x00\t\x00\x00\x00`\x00\x00\x00e\x01\x00\x00\n\x00\x00\x00\xa1\x00\x00\x00\xe4\x00\x00\x00E\x02\x00\x007\x02\x00\x00C\x01\x00\x00\x0b\x00\x00\x00)\x01\x00\x00\x01\x02\x00\x00\x85\x00\x00\x00\x05\x01\x00\x00\x80\x00\x00\x005\x02\x00\x00\x86\x00\x00\x00\x1e\x00\x00\x00\x97\x00\x00\x00\x88\x01\x00\x00=\x00\x00\x00y\x00\x00\x00W\x02\x00\x00?\x00\x00\x00\x1f\x02\x00\x00\xa8\x01\x00\x00\xec\x01\x00\x00\x00\x01\x00\x00\x10\x00\x00\x00\xc0\x00\x00\x00\x1d\x01\x00\x00&\x01\x00\x00l\x00\x00\x00\x1a\x01\x00\x00\x10\x01\x00\x00\x80\x01\x00\x00Y\x01\x00\x003\x00\x00\x00v\x00\x00\x00(\x00\x00\x00\x18\x00\x00\x00\xef\x00\x00\x00*\x00\x00\x00\xa5\x01\x00\x00\xd7\x00\x00\x00#\x01\x00\x00\xcc\x00\x00\x00Z\x00\x00\x00\x9d\x01\x00\x00y\x01\x00\x00\x0f\x02\x00\x00\xb0\x00\x00\x00\x1e\x01\x00\x00\xca\x00\x00\x00\xa0\x00\x00\x00J\x01\x00\x00\xc4\x01\x00\x00W\x00\x00\x00\xaa\x00\x00\x00\xfc\x01\x00\x00\x15\x01\x00\x00\x0c\x01\x00\x00\x04\x02\x00\x00\x87\x00\x00\x00!\x01\x00\x00\xce\x00\x00\x00_\x01\x00\x00=\x01\x00\x00\r\x02\x00\x00\xdf\x01\x00\x00D\x01\x00\x00\xc7\x01\x00\x00Q\x02\x00\x00\xdd\x01\x00\x00L\x02\x00\x00%\x00\x00\x00{\x00\x00\x00\x8e\x00\x00\x00\x9a\x00\x00\x00\xf8\x00\x00\x00I\x01\x00\x00\xd8\x01\x00\x004\x01\x00\x00\x92\x00\x00\x00$\x01\x00\x00\x19\x02\x00\x00\xd8\x00\x00\x00C\x02\x00\x00S\x02\x00\x00\xa0\x01\x00\x00\xcf\x01\x00\x00x\x00\x00\x00\xd1\x00\x00\x00\x00\x02\x00\x00M\x01\x00\x00n\x01\x00\x00\x95\x01\x00\x00\x1b\x01\x00\x00:\x00\x00\x00\x0e\x02\x00\x00B\x01\x00\x00\xf4\x01\x00\x00\xf8\x01\x00\x00\x92\x01\x00\x00\xd5\x01\x00\x00\xd2\x00\x00\x00w\x00\x00\x00O\x01\x00\x00\xef\x01\x00\x00\x1f\x01\x00\x00\xb7\x00\x00\x00\x94\x01\x00\x00\xb3\x01\x00\x00g\x00\x00\x00+\x02\x00\x00\xa8\x00\x00\x00\x91\x01\x00\x00\x06\x00\x00\x001\x02\x00\x00H\x02\x00\x00\xd0\x01\x00\x00\x9c\x00\x00\x00\x9f\x01\x00\x00t\x01\x00\x00\xea\x00\x00\x00>\x02\x00\x00o\x00\x00\x00\xba\x01\x00\x00\x93\x01\x00\x00K\x01\x00\x00d\x00\x00\x00\xd9\x00\x00\x00\x84\x00\x00\x00;\x01\x00\x00\xa3\x00\x00\x00_\x00\x00\x00#\x00\x00\x00\x85\x01\x00\x00\x89\x00\x00\x00\t\x02\x00\x00\x9d\x00\x00\x00S\x01\x00\x00\xbb\x00\x00\x00\x89\x01\x00\x00\xc0\x01\x00\x00]\x01\x00\x00?\x02\x00\x00<\x01\x00\x00\x9e\x00\x00\x00,\x01\x00\x00~\x00\x00\x00\xa7\x00\x00\x00\xea\x01\x00\x00\xc9\x01\x00\x00\x13\x01\x00\x00#\x02\x00\x00I\x00\x00\x00\x17\x01\x00\x006\x02\x00\x00R\x01\x00\x00\x06\x01\x00\x00\xf5\x01\x00\x00\x8c\x00\x00\x00V\x00\x00\x00\x10\x02\x00\x00\xcf\x00\x00\x00E\x01\x00\x00\xe7\x01\x00\x00\x87\x01\x00\x00\\\x00\x00\x00\x19\x00\x00\x00\xf9\x00\x00\x00\xaa\x01\x00\x00\xc1\x00\x00\x00(\x01\x00\x00\x11\x01\x00\x00V\x01\x00\x00\xc8\x01\x00\x00\x7f\x00\x00\x00\xc8\x00\x00\x00\xcb\x01\x00\x00\x8d\x00\x00\x00\xa7\x01\x00\x00\xfa\x00\x00\x00\xb6\x00\x00\x00\xf1\x01\x00\x00\x0e\x00\x00\x00@\x00\x00\x00\xa9\x00\x00\x00\xec\x00\x00\x00\x1f\x00\x00\x008\x01\x00\x00\xe2\x00\x00\x00\x95\x00\x00\x00O\x00\x00\x00(\x02\x00\x00\x0c\x02\x00\x00\xab\x00\x00\x00\x13\x02\x00\x00\xac\x00\x00\x00E\x00\x00\x009\x02\x00\x00\xa4\x00\x00\x00\xdb\x01\x00\x00\xfa\x01\x00\x00q\x01\x00\x00U\x02\x00\x00\x99\x01\x00\x004\x02\x00\x00\x8f\x01\x00\x00k\x00\x00\x00\x16\x02\x00\x00a\x01\x00\x00\xb2\x01\x00\x00-\x02\x00\x00B\x00\x00\x00\xf5\x00\x00\x00\x0c\x00\x00\x00\xfb\x00\x00\x00w\x01\x00\x00\x8a\x01\x00\x00\xd3\x01\x00\x00\x8d\x01\x00\x00\xc6\x00\x00\x00\xdc\x00\x00\x00-\x00\x00\x00W\x01\x00\x00`\x01\x00\x00/\x00\x00\x00\xf1\x00\x00\x00\xde\x01\x00\x00\xa5\x00\x00\x00\r\x00\x00\x00\xbe\x00\x00\x00/\x02\x00\x00\xb1\x01\x00\x00.\x00\x00\x00i\x00\x00\x00\xda\x01\x00\x00\x15\x00\x00\x00\xbd\x01\x00\x00\xe1\x01\x00\x00\xa9\x01\x00\x00\x0b\x01\x00\x00{\x01\x00\x00\x90\x00\x00\x00\x12\x01\x00\x00\xf2\x01\x00\x00\xaf\x01\x00\x00p\x01\x00\x00.\x02\x00\x00\xb2\x00\x00\x00\xee\x00\x00\x003\x02\x00\x00|\x01\x00\x00\xe1\x00\x00\x00\xa3\x01\x00\x002\x01\x00\x00:\x02\x00\x00&\x02\x00\x00\xe3\x00\x00\x00!\x02\x00\x00\xbc\x01\x00\x00\x19\x01\x00\x00s\x00\x00\x00\x96\x01\x00\x007\x01\x00\x00G\x01\x00\x00\xf3\x01\x00\x00\x81\x00\x00\x00z\x01\x00\x00\x08\x01\x00\x00\x8b\x00\x00\x00\xf6\x00\x00\x00\x96\x00\x00\x00\xeb\x00\x00\x00\x93\x00\x00\x00<\x02\x00\x00N\x02\x00\x00\x14\x02\x00\x008\x02\x00\x00j\x00\x00\x00\xa2\x00\x00\x00\x04\x01\x00\x00\x9c\x01\x00\x00\x12\x02\x00\x00\xa2\x01\x00\x00L\x01\x00\x00\xd7\x01\x00\x00,\x02\x00\x005\x00\x00\x00\xc2\x00\x00\x00P\x02\x00\x00U\x00\x00\x00\x13\x00\x00\x00\xbf\x00\x00\x00%\x02\x00\x00t\x00\x00\x00'
tbsg74
I01
sg75
I1
sg76
I-1
sg77
(lp4841
I0
aI1
aI2
aI3
aI4
aI5
aI6
aI7
aI8
aI9
aI10
aI11
aI12
aI13
aI14
aI15
aI16
aI17
aI18
aI19
aI20
aI21
aI22
aI23
aI24
aI25
aI26
aI27
aI28
aI29
aI30
aI31
aI32
aI33
aI34
aI35
aI36
aI37
aI38
aI39
aI40
aI41
aI42
aI43
aI44
aI45
aI46
aI47
aI48
aI49
aI50
aI51
aI52
aI53
aI54
aI55
aI56
aI57
aI58
aI59
aI60
aI61
aI62
aI63
aI64
aI65
aI66
aI67
aI68
aI69
aI70
aI71
aI72
aI73
aI74
aI75
aI76
aI77
aI78
aI79
aI80
aI81
aI82
aI83
aI84
aI85
aI86
aI87
aI88
aI89
aI90
aI91
aI92
aI93
aI94
aI95
aI96
aI97
aI98
aI99
aI100
aI101
aI102
aI103
aI104
aI105
aI106
aI107
aI108
aI109
aI110
aI111
aI112
aI113
aI114
aI115
aI116
aI117
aI118
aI119
aI120
aI121
aI122
aI123
aI124
aI125
aI126
aI127
aI128
aI129
aI130
aI131
aI132
aI133
aI134
aI135
aI136
aI137
aI138
aI139
aI140
aI141
aI142
aI143
aI144
aI145
aI146
aI147
aI148
aI149
aI150
aI151
aI152
aI153
aI154
aI155
aI156
aI157
aI158
aI159
aI160
aI161
aI162
aI163
aI164
aI165
aI166
aI167
aI168
aI169
aI170
aI171
aI172
aI173
aI174
aI175
aI176
aI177
aI178
aI179
aI180
aI181
aI182
aI183
aI184
aI185
aI186
aI187
aI188
aI189
aI190
aI191
aI192
aI193
aI194
aI195
aI196
aI197
aI198
aI199
aI200
aI201
aI202
aI203
aI204
aI205
aI206
aI207
aI208
aI209
aI210
aI211
aI212
aI213
aI214
aI215
aI216
aI217
aI218
aI219
aI220
aI221
aI222
aI223
aI224
aI225
aI226
aI227
aI228
aI229
aI230
aI231
aI232
aI233
aI234
aI235
aI236
aI237
aI238
aI239
aI240
aI241
aI242
aI243
aI244
aI245
aI246
aI247
aI248
aI249
aI250
aI251
aI252
aI253
aI254
aI255
aI256
aI257
aI258
aI259
aI260
aI261
aI262
aI263
aI264
aI265
aI266
aI267
aI268
aI269
aI270
aI271
aI272
aI273
aI274
aI275
aI276
aI277
aI278
aI279
aI280
aI281
aI282
aI283
aI284
aI285
aI286
aI287
aI288
aI289
aI290
aI291
aI292
aI293
aI294
aI295
aI296
aI297
aI298
aI299
aI300
aI301
aI302
aI303
aI304
aI305
aI306
aI307
aI308
aI309
aI310
aI311
aI312
aI313
aI314
aI315
aI316
aI317
aI318
aI319
aI320
aI321
aI322
aI323
aI324
aI325
aI326
aI327
aI328
aI329
aI330
aI331
aI332
aI333
aI334
aI335
aI336
aI337
aI338
aI339
aI340
aI341
aI342
aI343
aI344
aI345
aI346
aI347
aI348
aI349
aI350
aI351
aI352
aI353
aI354
aI355
aI356
aI357
aI358
aI359
aI360
aI361
aI362
aI363
aI364
aI365
aI366
aI367
aI368
aI369
aI370
aI371
aI372
aI373
aI374
aI375
aI376
aI377
aI378
aI379
aI380
aI381
aI382
aI383
aI384
aI385
aI386
aI387
aI388
aI389
aI390
aI391
aI392
aI393
aI394
aI395
aI396
aI397
aI398
aI399
aI400
aI401
aI402
aI403
aI404
aI405
aI406
aI407
aI408
aI409
aI410
aI411
aI412
aI413
aI414
aI415
aI416
aI417
aI418
aI419
aI420
aI421
aI422
aI423
aI424
aI425
aI426
aI427
aI428
aI429
aI430
aI431
aI432
aI433
aI434
aI435
aI436
aI437
aI438
aI439
aI440
aI441
aI442
aI443
aI444
aI445
aI446
aI447
aI448
aI449
aI450
aI451
aI452
aI453
aI454
aI455
aI456
aI457
aI458
aI459
aI460
aI461
aI462
aI463
aI464
aI465
aI466
aI467
aI468
aI469
aI470
aI471
aI472
aI473
aI474
aI475
aI476
aI477
aI478
aI479
aI480
aI481
aI482
aI483
aI484
aI485
aI486
aI487
aI488
aI489
aI490
aI491
aI492
aI493
aI494
aI495
aI496
aI497
aI498
aI499
aI500
aI501
aI502
aI503
aI504
aI505
aI506
aI507
aI508
aI509
aI510
aI511
aI512
aI513
aI514
aI515
aI516
aI517
aI518
aI519
aI520
aI521
aI522
aI523
aI524
aI525
aI526
aI527
aI528
aI529
aI530
aI531
aI532
aI533
aI534
aI535
aI536
aI537
aI538
aI539
aI540
aI541
aI542
aI543
aI544
aI545
aI546
aI547
aI548
aI549
aI550
aI551
aI552
aI553
aI554
aI555
aI556
aI557
aI558
aI559
aI560
aI561
aI562
aI563
aI564
aI565
aI566
aI567
aI568
aI569
aI570
aI571
aI572
aI573
aI574
aI575
aI576
aI577
aI578
aI579
aI580
aI581
aI582
aI583
aI584
aI585
aI586
aI587
aI588
aI589
aI590
aI591
aI592
aI593
aI594
aI595
aI596
aI597
aI598
aI599
asg79
Nsg80
cnumpy.core.multiarray
scalar
p4842
(g4840
S't\x00\x00\x00'
tRp4843
sg81
I600
sg82
I0
sg83
I600
sg84
I01
sbag37
asS'savePickle'
p4844
I00
sb.