ccopy_reg
_reconstructor
p1
(cpsychopy.data
ExperimentHandler
p2
c__builtin__
object
p3
NtRp4
(dp5
S'originPath'
p6
NsS'dataFileName'
p7
Vsubject643
p8
sS'runtimeInfo'
p9
NsS'name'
p10
VVERBALRBsubject 643
p11
sS'dataNames'
p12
(lp13
S'Block Number'
p14
aS'Key pressed'
p15
aS'Category'
p16
aS'Correct?'
p17
aS'Int Match?'
p18
aS'Int Response'
p19
aS'Int Correct?'
p20
aS'Line Accuracy'
p21
aS'Interference Accuracy'
p22
aS'Matching Interferences'
p23
aS'New instruction shown?'
p24
aS'Buttons switched?'
p25
aS'Fast?'
p26
asS'autoLog'
p27
I01
sS'extraInfo'
p28
(dp29
S'gender'
p30
VF
sS'age'
p31
V21
p32
ssS'loopsUnfinished'
p33
(lp34
g1
(cpsychopy.data
TrialHandler
p35
g3
NtRp36
(dp37
S'origin'
p38
NsS'thisTrial'
p39
I10
sS'_exp'
p40
I79799280
sg10
S''
sg6
S'C:\\Users\\Mike\\Desktop\\Dual2\\NEWSpatialRB.py'
p41
sS'thisRepN'
p42
I39
sg27
I01
sg28
NsS'data'
p43
g1
(cpsychopy.data
DataHandler
p44
c__builtin__
dict
p45
(dp46
S'ran'
p47
cnumpy.ma.core
_mareconstruct
p48
(cnumpy.ma.core
MaskedArray
p49
cnumpy
ndarray
p50
(I0
tp51
S'b'
tRp52
(I1
(I15
I40
tcnumpy
dtype
p53
(S'f4'
I0
I1
tRp54
(I3
S'<'
NNNI-1
I-1
I0
tbI00
S'\x00\x00\x80?\x00\x00\x80?\x00\x00\x80?\x00\x00\x80?\x00\x00\x80?\x00\x00\x80?\x00\x00\x80?\x00\x00\x80?\x00\x00\x80?\x00\x00\x80?\x00\x00\x80?\x00\x00\x80?\x00\x00\x80?\x00\x00\x80?\x00\x00\x80?\x00\x00\x80?\x00\x00\x80?\x00\x00\x80?\x00\x00\x80?\x00\x00\x80?\x00\x00\x80?\x00\x00\x80?\x00\x00\x80?\x00\x00\x80?\x00\x00\x80?\x00\x00\x80?\x00\x00\x80?\x00\x00\x80?\x00\x00\x80?\x00\x00\x80?\x00\x00\x80?\x00\x00\x80?\x00\x00\x80?\x00\x00\x80?\x00\x00\x80?\x00\x00\x80?\x00\x00\x80?\x00\x00\x80?\x00\x00\x80?\x00\x00\x80?\x00\x00\x80?\x00\x00\x80?\x00\x00\x80?\x00\x00\x80?\x00\x00\x80?\x00\x00\x80?\x00\x00\x80?\x00\x00\x80?\x00\x00\x80?\x00\x00\x80?\x00\x00\x80?\x00\x00\x80?\x00\x00\x80?\x00\x00\x80?\x00\x00\x80?\x00\x00\x80?\x00\x00\x80?\x00\x00\x80?\x00\x00\x80?\x00\x00\x80?\x00\x00\x80?\x00\x00\x80?\x00\x00\x80?\x00\x00\x80?\x00\x00\x80?\x00\x00\x80?\x00\x00\x80?\x00\x00\x80?\x00\x00\x80?\x00\x00\x80?\x00\x00\x80?\x00\x00\x80?\x00\x00\x80?\x00\x00\x80?\x00\x00\x80?\x00\x00\x80?\x00\x00\x80?\x00\x00\x80?\x00\x00\x80?\x00\x00\x80?\x00\x00\x80?\x00\x00\x80?\x00\x00\x80?\x00\x00\x80?\x00\x00\x80?\x00\x00\x80?\x00\x00\x80?\x00\x00\x80?\x00\x00\x80?\x00\x00\x80?\x00\x00\x80?\x00\x00\x80?\x00\x00\x80?\x00\x00\x80?\x00\x00\x80?\x00\x00\x80?\x00\x00\x80?\x00\x00\x80?\x00\x00\x80?\x00\x00\x80?\x00\x00\x80?\x00\x00\x80?\x00\x00\x80?\x00\x00\x80?\x00\x00\x80?\x00\x00\x80?\x00\x00\x80?\x00\x00\x80?\x00\x00\x80?\x00\x00\x80?\x00\x00\x80?\x00\x00\x80?\x00\x00\x80?\x00\x00\x80?\x00\x00\x80?\x00\x00\x80?\x00\x00\x80?\x00\x00\x80?\x00\x00\x80?\x00\x00\x80?\x00\x00\x80?\x00\x00\x80?\x00\x00\x80?\x00\x00\x80?\x00\x00\x80?\x00\x00\x80?\x00\x00\x80?\x00\x00\x80?\x00\x00\x80?\x00\x00\x80?\x00\x00\x80?\x00\x00\x80?\x00\x00\x80?\x00\x00\x80?\x00\x00\x80?\x00\x00\x80?\x00\x00\x80?\x00\x00\x80?\x00\x00\x80?\x00\x00\x80?\x00\x00\x80?\x00\x00\x80?\x00\x00\x80?\x00\x00\x80?\x00\x00\x80?\x00\x00\x80?\x00\x00\x80?\x00\x00\x80?\x00\x00\x80?\x00\x00\x80?\x00\x00\x80?\x00\x00\x80?\x00\x00\x80?\x00\x00\x80?\x00\x00\x80?\x00\x00\x80?\x00\x00\x80?\x00\x00\x80?\x00\x00\x80?\x00\x00\x80?\x00\x00\x80?\x00\x00\x80?\x00\x00\x80?\x00\x00\x80?\x00\x00\x80?\x00\x00\x80?\x00\x00\x80?\x00\x00\x80?\x00\x00\x80?\x00\x00\x80?\x00\x00\x80?\x00\x00\x80?\x00\x00\x80?\x00\x00\x80?\x00\x00\x80?\x00\x00\x80?\x00\x00\x80?\x00\x00\x80?\x00\x00\x80?\x00\x00\x80?\x00\x00\x80?\x00\x00\x80?\x00\x00\x80?\x00\x00\x80?\x00\x00\x80?\x00\x00\x80?\x00\x00\x80?\x00\x00\x80?\x00\x00\x80?\x00\x00\x80?\x00\x00\x80?\x00\x00\x80?\x00\x00\x80?\x00\x00\x80?\x00\x00\x80?\x00\x00\x80?\x00\x00\x80?\x00\x00\x80?\x00\x00\x80?\x00\x00\x80?\x00\x00\x80?\x00\x00\x80?\x00\x00\x80?\x00\x00\x80?\x00\x00\x80?\x00\x00\x80?\x00\x00\x80?\x00\x00\x80?\x00\x00\x80?\x00\x00\x80?\x00\x00\x80?\x00\x00\x80?\x00\x00\x80?\x00\x00\x80?\x00\x00\x80?\x00\x00\x80?\x00\x00\x80?\x00\x00\x80?\x00\x00\x80?\x00\x00\x80?\x00\x00\x80?\x00\x00\x80?\x00\x00\x80?\x00\x00\x80?\x00\x00\x80?\x00\x00\x80?\x00\x00\x80?\x00\x00\x80?\x00\x00\x80?\x00\x00\x80?\x00\x00\x80?\x00\x00\x80?\x00\x00\x80?\x00\x00\x80?\x00\x00\x80?\x00\x00\x80?\x00\x00\x80?\x00\x00\x80?\x00\x00\x80?\x00\x00\x80?\x00\x00\x80?\x00\x00\x80?\x00\x00\x80?\x00\x00\x80?\x00\x00\x80?\x00\x00\x80?\x00\x00\x80?\x00\x00\x80?\x00\x00\x80?\x00\x00\x80?\x00\x00\x80?\x00\x00\x80?\x00\x00\x80?\x00\x00\x80?\x00\x00\x80?\x00\x00\x80?\x00\x00\x80?\x00\x00\x80?\x00\x00\x80?\x00\x00\x80?\x00\x00\x80?\x00\x00\x80?\x00\x00\x80?\x00\x00\x80?\x00\x00\x80?\x00\x00\x80?\x00\x00\x80?\x00\x00\x80?\x00\x00\x80?\x00\x00\x80?\x00\x00\x80?\x00\x00\x80?\x00\x00\x80?\x00\x00\x80?\x00\x00\x80?\x00\x00\x80?\x00\x00\x80?\x00\x00\x80?\x00\x00\x80?\x00\x00\x80?\x00\x00\x80?\x00\x00\x80?\x00\x00\x80?\x00\x00\x80?\x00\x00\x80?\x00\x00\x80?\x00\x00\x80?\x00\x00\x80?\x00\x00\x80?\x00\x00\x80?\x00\x00\x80?\x00\x00\x80?\x00\x00\x80?\x00\x00\x80?\x00\x00\x80?\x00\x00\x80?\x00\x00\x80?\x00\x00\x80?\x00\x00\x80?\x00\x00\x80?\x00\x00\x80?\x00\x00\x80?\x00\x00\x80?\x00\x00\x80?\x00\x00\x80?\x00\x00\x80?\x00\x00\x80?\x00\x00\x80?\x00\x00\x80?\x00\x00\x80?\x00\x00\x80?\x00\x00\x80?\x00\x00\x80?\x00\x00\x80?\x00\x00\x80?\x00\x00\x80?\x00\x00\x80?\x00\x00\x80?\x00\x00\x80?\x00\x00\x80?\x00\x00\x80?\x00\x00\x80?\x00\x00\x80?\x00\x00\x80?\x00\x00\x80?\x00\x00\x80?\x00\x00\x80?\x00\x00\x80?\x00\x00\x80?\x00\x00\x80?\x00\x00\x80?\x00\x00\x80?\x00\x00\x80?\x00\x00\x80?\x00\x00\x80?\x00\x00\x80?\x00\x00\x80?\x00\x00\x80?\x00\x00\x80?\x00\x00\x80?\x00\x00\x80?\x00\x00\x80?\x00\x00\x80?\x00\x00\x80?\x00\x00\x80?\x00\x00\x80?\x00\x00\x80?\x00\x00\x80?\x00\x00\x80?\x00\x00\x80?\x00\x00\x80?\x00\x00\x80?\x00\x00\x80?\x00\x00\x80?\x00\x00\x80?\x00\x00\x80?\x00\x00\x80?\x00\x00\x80?\x00\x00\x80?\x00\x00\x80?\x00\x00\x80?\x00\x00\x80?\x00\x00\x80?\x00\x00\x80?\x00\x00\x80?\x00\x00\x80?\x00\x00\x80?\x00\x00\x80?\x00\x00\x80?\x00\x00\x80?\x00\x00\x80?\x00\x00\x80?\x00\x00\x80?\x00\x00\x80?\x00\x00\x80?\x00\x00\x80?\x00\x00\x80?\x00\x00\x80?\x00\x00\x80?\x00\x00\x80?\x00\x00\x80?\x00\x00\x80?\x00\x00\x80?\x00\x00\x80?\x00\x00\x80?\x00\x00\x80?\x00\x00\x80?\x00\x00\x80?\x00\x00\x80?\x00\x00\x80?\x00\x00\x80?\x00\x00\x80?\x00\x00\x80?\x00\x00\x80?\x00\x00\x80?\x00\x00\x80?\x00\x00\x80?\x00\x00\x80?\x00\x00\x80?\x00\x00\x80?\x00\x00\x80?\x00\x00\x80?\x00\x00\x80?\x00\x00\x80?\x00\x00\x80?\x00\x00\x80?\x00\x00\x80?\x00\x00\x80?\x00\x00\x80?\x00\x00\x80?\x00\x00\x80?\x00\x00\x80?\x00\x00\x80?\x00\x00\x80?\x00\x00\x80?\x00\x00\x80?\x00\x00\x80?\x00\x00\x80?\x00\x00\x80?\x00\x00\x80?\x00\x00\x80?\x00\x00\x80?\x00\x00\x80?\x00\x00\x80?\x00\x00\x80?\x00\x00\x80?\x00\x00\x80?\x00\x00\x80?\x00\x00\x80?\x00\x00\x80?\x00\x00\x80?\x00\x00\x80?\x00\x00\x80?\x00\x00\x80?\x00\x00\x80?\x00\x00\x80?\x00\x00\x80?\x00\x00\x80?\x00\x00\x80?\x00\x00\x80?\x00\x00\x80?\x00\x00\x80?\x00\x00\x80?\x00\x00\x80?\x00\x00\x80?\x00\x00\x80?\x00\x00\x80?\x00\x00\x80?\x00\x00\x80?\x00\x00\x80?\x00\x00\x80?\x00\x00\x80?\x00\x00\x80?\x00\x00\x80?\x00\x00\x80?\x00\x00\x80?\x00\x00\x80?\x00\x00\x80?\x00\x00\x80?\x00\x00\x80?\x00\x00\x80?\x00\x00\x80?\x00\x00\x80?\x00\x00\x80?\x00\x00\x80?\x00\x00\x80?\x00\x00\x80?\x00\x00\x80?\x00\x00\x80?\x00\x00\x80?\x00\x00\x80?\x00\x00\x80?\x00\x00\x80?\x00\x00\x80?\x00\x00\x80?\x00\x00\x80?\x00\x00\x80?\x00\x00\x80?\x00\x00\x80?\x00\x00\x80?\x00\x00\x80?\x00\x00\x80?\x00\x00\x80?\x00\x00\x80?\x00\x00\x80?\x00\x00\x80?\x00\x00\x80?\x00\x00\x80?\x00\x00\x80?\x00\x00\x80?\x00\x00\x80?\x00\x00\x80?\x00\x00\x80?\x00\x00\x80?\x00\x00\x80?\x00\x00\x80?\x00\x00\x80?\x00\x00\x80?\x00\x00\x80?\x00\x00\x80?\x00\x00\x80?\x00\x00\x80?\x00\x00\x80?\x00\x00\x80?\x00\x00\x80?\x00\x00\x80?\x00\x00\x80?\x00\x00\x80?\x00\x00\x80?\x00\x00\x80?\x00\x00\x80?\x00\x00\x80?\x00\x00\x80?\x00\x00\x80?\x00\x00\x80?\x00\x00\x80?\x00\x00\x80?\x00\x00\x80?\x00\x00\x80?\x00\x00\x80?\x00\x00\x80?\x00\x00\x80?\x00\x00\x80?\x00\x00\x80?\x00\x00\x80?\x00\x00\x80?\x00\x00\x80?\x00\x00\x80?\x00\x00\x80?\x00\x00\x80?\x00\x00\x80?\x00\x00\x80?\x00\x00\x80?\x00\x00\x80?\x00\x00\x80?\x00\x00\x80?\x00\x00\x80?\x00\x00\x80?\x00\x00\x80?\x00\x00\x80?\x00\x00\x80?\x00\x00\x80?\x00\x00\x80?\x00\x00\x80?\x00\x00\x80?\x00\x00\x80?\x00\x00\x80?\x00\x00\x80?\x00\x00\x80?\x00\x00\x80?\x00\x00\x80?\x00\x00\x80?\x00\x00\x80?\x00\x00\x80?\x00\x00\x80?\x00\x00\x80?\x00\x00\x80?\x00\x00\x80?\x00\x00\x80?\x00\x00\x80?\x00\x00\x80?\x00\x00\x80?\x00\x00\x80?\x00\x00\x80?\x00\x00\x80?\x00\x00\x80?\x00\x00\x80?\x00\x00\x80?\x00\x00\x80?\x00\x00\x80?\x00\x00\x80?\x00\x00\x80?\x00\x00\x80?\x00\x00\x80?\x00\x00\x80?\x00\x00\x80?\x00\x00\x80?\x00\x00\x80?\x00\x00\x80?\x00\x00\x80?\x00\x00\x80?\x00\x00\x80?\x00\x00\x80?\x00\x00\x80?\x00\x00\x80?\x00\x00\x80?\x00\x00\x80?\x00\x00\x80?\x00\x00\x80?\x00\x00\x80?\x00\x00\x80?\x00\x00\x80?\x00\x00\x80?\x00\x00\x80?\x00\x00\x80?\x00\x00\x80?\x00\x00\x80?\x00\x00\x80?\x00\x00\x80?\x00\x00\x80?'
S'\x00\x00\x00\x00\x00\x00\x00\x00\x00\x00\x00\x00\x00\x00\x00\x00\x00\x00\x00\x00\x00\x00\x00\x00\x00\x00\x00\x00\x00\x00\x00\x00\x00\x00\x00\x00\x00\x00\x00\x00\x00\x00\x00\x00\x00\x00\x00\x00\x00\x00\x00\x00\x00\x00\x00\x00\x00\x00\x00\x00\x00\x00\x00\x00\x00\x00\x00\x00\x00\x00\x00\x00\x00\x00\x00\x00\x00\x00\x00\x00\x00\x00\x00\x00\x00\x00\x00\x00\x00\x00\x00\x00\x00\x00\x00\x00\x00\x00\x00\x00\x00\x00\x00\x00\x00\x00\x00\x00\x00\x00\x00\x00\x00\x00\x00\x00\x00\x00\x00\x00\x00\x00\x00\x00\x00\x00\x00\x00\x00\x00\x00\x00\x00\x00\x00\x00\x00\x00\x00\x00\x00\x00\x00\x00\x00\x00\x00\x00\x00\x00\x00\x00\x00\x00\x00\x00\x00\x00\x00\x00\x00\x00\x00\x00\x00\x00\x00\x00\x00\x00\x00\x00\x00\x00\x00\x00\x00\x00\x00\x00\x00\x00\x00\x00\x00\x00\x00\x00\x00\x00\x00\x00\x00\x00\x00\x00\x00\x00\x00\x00\x00\x00\x00\x00\x00\x00\x00\x00\x00\x00\x00\x00\x00\x00\x00\x00\x00\x00\x00\x00\x00\x00\x00\x00\x00\x00\x00\x00\x00\x00\x00\x00\x00\x00\x00\x00\x00\x00\x00\x00\x00\x00\x00\x00\x00\x00\x00\x00\x00\x00\x00\x00\x00\x00\x00\x00\x00\x00\x00\x00\x00\x00\x00\x00\x00\x00\x00\x00\x00\x00\x00\x00\x00\x00\x00\x00\x00\x00\x00\x00\x00\x00\x00\x00\x00\x00\x00\x00\x00\x00\x00\x00\x00\x00\x00\x00\x00\x00\x00\x00\x00\x00\x00\x00\x00\x00\x00\x00\x00\x00\x00\x00\x00\x00\x00\x00\x00\x00\x00\x00\x00\x00\x00\x00\x00\x00\x00\x00\x00\x00\x00\x00\x00\x00\x00\x00\x00\x00\x00\x00\x00\x00\x00\x00\x00\x00\x00\x00\x00\x00\x00\x00\x00\x00\x00\x00\x00\x00\x00\x00\x00\x00\x00\x00\x00\x00\x00\x00\x00\x00\x00\x00\x00\x00\x00\x00\x00\x00\x00\x00\x00\x00\x00\x00\x00\x00\x00\x00\x00\x00\x00\x00\x00\x00\x00\x00\x00\x00\x00\x00\x00\x00\x00\x00\x00\x00\x00\x00\x00\x00\x00\x00\x00\x00\x00\x00\x00\x00\x00\x00\x00\x00\x00\x00\x00\x00\x00\x00\x00\x00\x00\x00\x00\x00\x00\x00\x00\x00\x00\x00\x00\x00\x00\x00\x00\x00\x00\x00\x00\x00\x00\x00\x00\x00\x00\x00\x00\x00\x00\x00\x00\x00\x00\x00\x00\x00\x00\x00\x00\x00\x00\x00\x00\x00\x00\x00\x00\x00\x00\x00\x00\x00\x00\x00\x00\x00\x00\x00\x00\x00\x00\x00\x00\x00\x00\x00\x00\x00\x00\x00\x00\x00\x00\x00\x00\x00\x00\x00\x00\x00\x00\x00\x00\x00\x00\x00\x00\x00\x00\x00\x00\x00\x00\x00\x00\x00\x00\x00\x00\x00\x00\x00\x00\x00\x00\x00\x00\x00\x00\x00\x00\x00\x00\x00\x00\x00\x00\x00\x00\x00\x00\x00\x00\x00\x00\x00\x00\x00\x00\x00\x00\x00\x00\x00\x00\x00\x00\x00\x00\x00\x00\x00\x00\x00\x00\x00\x00\x00\x00\x00\x00\x00\x00\x00\x00\x00\x00\x00\x00\x00\x00\x00\x00\x00\x00\x00\x00\x00\x00\x00'
NtbsS'order'
p55
g48
(g49
g50
g51
S'b'
tRp56
(I1
(I15
I40
tg54
I00
S'\x00\x00\x00@\x00\x00\xe0@\x00\x00\x0cB\x00\x00\x80B\x00\x00\x90B\x00\x00\xb4B\x00\x00\xc8B\x00\x00\xd6B\x00\x00\xf8B\x00\x00\x05C\x00\x00\x0cC\x00\x00\x12C\x00\x00%C\x00\x00?C\x00\x00OC\x00\x00ZC\x00\x00\\C\x00\x00bC\x00\x00vC\x00\x00\x8cC\x00\x80\x8dC\x00\x00\x92C\x00\x80\x98C\x00\x00\x9aC\x00\x00\x9cC\x00\x00\xaeC\x00\x00\xb2C\x00\x80\xb5C\x00\x80\xbdC\x00\x00\xc8C\x00\x00\xd9C\x00\x80\xdeC\x00\x80\xf1C\x00\x00\xf7C\x00@\x01D\x00\xc0\x04D\x00\x80\x0bD\x00\x00\x11D\x00\xc0\x11D\x00@\x15D\x00\x00\x14B\x00\x00PB\x00\x00\x9eB\x00\x00\xd2B\x00\x00\xeaB\x00\x00\x03C\x00\x00\x08C\x00\x00\x11C\x00\x00\x1aC\x00\x00&C\x00\x000C\x00\x001C\x00\x00TC\x00\x00mC\x00\x00\x86C\x00\x80\x86C\x00\x00\x87C\x00\x80\x88C\x00\x80\x93C\x00\x00\x9bC\x00\x80\xa7C\x00\x80\xaeC\x00\x00\xafC\x00\x80\xbbC\x00\x00\xc5C\x00\x00\xd8C\x00\x00\xe8C\x00\x80\xe8C\x00\x00\xf3C\x00\x80\xf5C\x00\x80\xfbC\x00\x00\x02D\x00\x80\x03D\x00\xc0\x03D\x00@\x07D\x00\x00\tD\x00\xc0\tD\x00@\rD\x00\x00\x0fD\x00\x80\x14D\x00\x00`A\x00\x00DB\x00\x00xB\x00\x00\x94B\x00\x00\xa4B\x00\x00\xc6B\x00\x00\xdcB\x00\x00\xe6B\x00\x00\x02C\x00\x00\x17C\x00\x00!C\x00\x007C\x00\x00AC\x00\x00EC\x00\x00RC\x00\x00rC\x00\x80\x82C\x00\x00\x85C\x00\x80\x8bC\x00\x80\x8cC\x00\x00\x8eC\x00\x00\x97C\x00\x80\x9bC\x00\x00\xa5C\x00\x00\xa8C\x00\x80\xabC\x00\x00\xb4C\x00\x00\xb5C\x00\x80\xccC\x00\x80\xd1C\x00\x00\xd6C\x00\x80\xe3C\x00\x80\xe7C\x00\x00\xfdC\x00@\x05D\x00@\nD\x00\xc0\x0eD\x00\xc0\x10D\x00\x80\x13D\x00\xc0\x14D\x00\x00 A\x00\x00\x00B\x00\x00 B\x00\x00lB\x00\x00\x8eB\x00\x00\x04C\x00\x00<C\x00\x00NC\x00\x00dC\x00\x00gC\x00\x00wC\x00\x00{C\x00\x00\x82C\x00\x80\x87C\x00\x00\x9eC\x00\x00\xa0C\x00\x80\xa3C\x00\x00\xabC\x00\x80\xafC\x00\x80\xb2C\x00\x80\xb6C\x00\x00\xbdC\x00\x80\xceC\x00\x00\xd0C\x00\x00\xd5C\x00\x00\xdaC\x00\x80\xdcC\x00\x80\xdfC\x00\x00\xe0C\x00\x80\xe6C\x00\x80\xecC\x00\x00\xedC\x00\x00\xefC\x00\x00\xfcC\x00\x80\x02D\x00\xc0\nD\x00\x00\x0bD\x00\xc0\x0bD\x00\x80\x0fD\x00@\x10D\x00\x00\xf8A\x00\x00,B\x00\x008B\x00\x00`B\x00\x00\xb0B\x00\x00\xb2B\x00\x00\xc2B\x00\x00\xceB\x00\x00\xf2B\x00\x00\x1eC\x00\x00*C\x00\x00>C\x00\x00KC\x00\x00LC\x00\x00hC\x00\x00kC\x00\x00\x83C\x00\x00\x8aC\x00\x00\x8bC\x00\x80\xacC\x00\x80\xb3C\x00\x00\xc6C\x00\x00\xc7C\x00\x80\xcbC\x00\x00\xccC\x00\x80\xcdC\x00\x00\xdfC\x00\x80\xeaC\x00\x80\xedC\x00\x80\xf9C\x00\x00\xfbC\x00\xc0\x00D\x00\x00\x03D\x00\x00\x05D\x00\x00\x06D\x00@\x08D\x00@\tD\x00\x80\tD\x00\x00\x12D\x00\x00\x13D\x00\x00\x10A\x00\x00\x04B\x00\x00(B\x00\x00\x8cB\x00\x00\x92B\x00\x00\x96B\x00\x00\xb6B\x00\x00\xc0B\x00\x00\xe4B\x00\x00\xeeB\x00\x00(C\x00\x009C\x00\x00BC\x00\x00YC\x00\x00[C\x00\x00]C\x00\x00`C\x00\x00aC\x00\x00\x80C\x00\x00\x93C\x00\x00\x94C\x00\x00\xa1C\x00\x00\xb1C\x00\x00\xbaC\x00\x80\xdaC\x00\x00\xebC\x00\x00\xf1C\x00\x00\xf4C\x00\x00\xf9C\x00\x00\x04D\x00@\x04D\x00\xc0\x05D\x00\xc0\x07D\x00\x00\x08D\x00\xc0\x08D\x00\xc0\rD\x00\x00\x0eD\x00@\x11D\x00\x80\x11D\x00@\x12D\x00\x00\x00\x00\x00\x00@A\x00\x00PA\x00\x00\xa8A\x00\x00\xc0A\x00\x00\xe0A\x00\x00\x10B\x00\x00\\B\x00\x00dB\x00\x00\xa6B\x00\x00\xa8B\x00\x00\x14C\x00\x00GC\x00\x00SC\x00\x00oC\x00\x80\x83C\x00\x80\x85C\x00\x80\x8fC\x00\x00\x9dC\x00\x80\xa2C\x00\x00\xa4C\x00\x80\xa5C\x00\x80\xaaC\x00\x00\xbcC\x00\x80\xbcC\x00\x00\xbfC\x00\x80\xbfC\x00\x80\xc6C\x00\x00\xc9C\x00\x00\xcaC\x00\x80\xd5C\x00\x80\xd8C\x00\x00\xddC\x00\x80\xe2C\x00\x80\xe5C\x00\x00\xe9C\x00\x80\xfeC\x00\x00\x01D\x00\xc0\x0fD\x00\xc0\x12D\x00\x00\xc0@\x00\x000A\x00\x00\x90A\x00\x00\xb8A\x00\x00\xc8A\x00\x004B\x00\x00\x84B\x00\x00\xdaB\x00\x00\xf4B\x00\x00\tC\x00\x00\x10C\x00\x00 C\x00\x00$C\x00\x00_C\x00\x00qC\x00\x00yC\x00\x00\x91C\x00\x00\x95C\x00\x00\x99C\x00\x80\x9aC\x00\x00\xaaC\x00\x00\xacC\x00\x00\xbbC\x00\x00\xc3C\x00\x80\xc5C\x00\x80\xc7C\x00\x80\xcaC\x00\x80\xd7C\x00\x00\xe1C\x00\x80\xe4C\x00\x80\xeeC\x00\x80\xf4C\x00\x00\xf8C\x00\x80\xf8C\x00\x80\xfcC\x00@\x03D\x00\x80\x05D\x00\x80\nD\x00@\x0bD\x00\x80\x12D\x00\x00\x80@\x00\x00\xe8A\x00\x00\x18B\x00\x00hB\x00\x00\xaaB\x00\x00\xb8B\x00\x00\xbeB\x00\x00\xe2B\x00\x00\xe8B\x00\x00\xf0B\x00\x00\rC\x00\x00,C\x00\x005C\x00\x00;C\x00\x00IC\x00\x00PC\x00\x00VC\x00\x00lC\x00\x00zC\x00\x80\x94C\x00\x80\x9cC\x00\x00\xa7C\x00\x80\xa9C\x00\x80\xb0C\x00\x80\xb7C\x00\x00\xbeC\x00\x00\xc0C\x00\x80\xc2C\x00\x00\xdbC\x00\x80\xdbC\x00\x80\xddC\x00\x80\xe0C\x00\x00\xe2C\x00\x00\xe6C\x00\x00\xeaC\x00\x80\xf2C\x00\x80\xfdC\x00\x80\xffC\x00@\x0cD\x00\x80\rD\x00\x00pA\x00\x00\x80A\x00\x00\x1cB\x00\x00LB\x00\x00TB\x00\x00|B\x00\x00\x88B\x00\x00\x98B\x00\x00\x9cB\x00\x00\xaeB\x00\x00\xcaB\x00\x00\xd0B\x00\x00\xd4B\x00\x00\xd8B\x00\x00\xf6B\x00\x00\x0bC\x00\x008C\x00\x00:C\x00\x00JC\x00\x00\x81C\x00\x00\x84C\x00\x00\x8dC\x00\x80\x8eC\x00\x00\x8fC\x00\x80\x91C\x00\x00\x96C\x00\x80\xa8C\x00\x80\xb4C\x00\x80\xb9C\x00\x80\xc0C\x00\x00\xc1C\x00\x80\xc1C\x00\x80\xcfC\x00\x00\xeeC\x00\x80\xf0C\x00\x80\xf3C\x00\x00\x07D\x00\x80\x07D\x00\x00\x0cD\x00\x80\x10D\x00\x00\x80?\x00\x00\xa0A\x00\x00\xd8A\x00\x00\xf0A\x00\x00\x08B\x00\x000B\x00\x00\xa0B\x00\x00\xa2B\x00\x00\xbcB\x00\x00\xe0B\x00\x00\xfaB\x00\x00\x19C\x00\x002C\x00\x00CC\x00\x00DC\x00\x00HC\x00\x00XC\x00\x00^C\x00\x00eC\x00\x00fC\x00\x00}C\x00\x00~C\x00\x80\x80C\x00\x80\x84C\x00\x80\x9dC\x00\x00\xb9C\x00\x00\xd3C\x00\x80\xd6C\x00\x00\xd7C\x00\x80\xd9C\x00\x00\xe3C\x00\x00\xecC\x00\x80\xfaC\x00\x00\xffC\x00@\x02D\x00\x80\x06D\x00\x00\nD\x00\xc0\x0cD\x00\xc0\x13D\x00\xc0\x15D\x00\x00\x00A\x00\x00$B\x00\x00<B\x00\x00pB\x00\x00\x86B\x00\x00\x9aB\x00\x00\xacB\x00\x00\xfcB\x00\x00\nC\x00\x00\x16C\x00\x00\x1bC\x00\x00"C\x00\x00/C\x00\x004C\x00\x00FC\x00\x00MC\x00\x00pC\x00\x00sC\x00\x00tC\x00\x00|C\x00\x00\x98C\x00\x80\x99C\x00\x80\x9eC\x00\x80\xadC\x00\x80\xb1C\x00\x00\xb6C\x00\x80\xbeC\x00\x00\xc2C\x00\x00\xc4C\x00\x80\xd0C\x00\x00\xd1C\x00\x00\xd2C\x00\x80\xd2C\x00\x00\xf5C\x00\x80\xf6C\x00\x80\x01D\x00\xc0\x01D\x00\x80\x0cD\x00@\x0eD\x00\x80\x15D\x00\x00@@\x00\x00\xa0@\x00\x00\xb0A\x00\x00\xd0A\x00\x00XB\x00\x00\xdeB\x00\x00\x1dC\x00\x00\x1fC\x00\x00.C\x00\x00cC\x00\x00iC\x00\x00nC\x00\x00uC\x00\x00\x7fC\x00\x80\x81C\x00\x00\x88C\x00\x00\x89C\x00\x80\x8aC\x00\x00\x90C\x00\x80\x96C\x00\x80\x9fC\x00\x00\xa6C\x00\x80\xa6C\x00\x00\xb3C\x00\x00\xb8C\x00\x80\xbaC\x00\x80\xc8C\x00\x00\xcbC\x00\x00\xcdC\x00\x80\xd3C\x00\x80\xefC\x00\x00\xf0C\x00\x00\xfeC\x00\x80\x04D\x00@\x06D\x00\x80\x08D\x00@\x0fD\x00\x00\x10D\x00@\x13D\x00@\x14D\x00\x00\x98A\x00\x00HB\x00\x00\x82B\x00\x00\xbaB\x00\x00\xccB\x00\x00\xecB\x00\x00\x06C\x00\x00\x0fC\x00\x00\x15C\x00\x00#C\x00\x00\'C\x00\x00)C\x00\x00+C\x00\x003C\x00\x00=C\x00\x00@C\x00\x00UC\x00\x80\x90C\x00\x80\x92C\x00\x80\x95C\x00\x80\x97C\x00\x80\xa0C\x00\x00\xa2C\x00\x00\xa3C\x00\x80\xa4C\x00\x00\xadC\x00\x00\xb7C\x00\x80\xc3C\x00\x80\xc9C\x00\x00\xcfC\x00\x00\xdcC\x00\x80\xe1C\x00\x00\xf2C\x00\x00\xf6C\x00\x80\xf7C\x00\x00\x00D\x00@\x00D\x00\x80\x00D\x00\xc0\x02D\x00\x00\rD\x00\x00\x88A\x00\x00@B\x00\x00tB\x00\x00\x8aB\x00\x00\xc4B\x00\x00\xfeB\x00\x00\x00C\x00\x00\x01C\x00\x00\x07C\x00\x00\x0eC\x00\x00\x13C\x00\x00\x18C\x00\x00\x1cC\x00\x00-C\x00\x006C\x00\x00QC\x00\x00WC\x00\x00jC\x00\x00xC\x00\x80\x89C\x00\x00\x9fC\x00\x80\xa1C\x00\x00\xa9C\x00\x00\xb0C\x00\x80\xb8C\x00\x80\xc4C\x00\x00\xceC\x00\x00\xd4C\x00\x80\xd4C\x00\x00\xdeC\x00\x00\xe4C\x00\x00\xe5C\x00\x00\xe7C\x00\x80\xe9C\x00\x80\xebC\x00\x00\xfaC\x00\xc0\x06D\x00\x80\x0eD\x00\x00\x14D\x00\x00\x15D'
S'\x00\x00\x00\x00\x00\x00\x00\x00\x00\x00\x00\x00\x00\x00\x00\x00\x00\x00\x00\x00\x00\x00\x00\x00\x00\x00\x00\x00\x00\x00\x00\x00\x00\x00\x00\x00\x00\x00\x00\x00\x00\x00\x00\x00\x00\x00\x00\x00\x00\x00\x00\x00\x00\x00\x00\x00\x00\x00\x00\x00\x00\x00\x00\x00\x00\x00\x00\x00\x00\x00\x00\x00\x00\x00\x00\x00\x00\x00\x00\x00\x00\x00\x00\x00\x00\x00\x00\x00\x00\x00\x00\x00\x00\x00\x00\x00\x00\x00\x00\x00\x00\x00\x00\x00\x00\x00\x00\x00\x00\x00\x00\x00\x00\x00\x00\x00\x00\x00\x00\x00\x00\x00\x00\x00\x00\x00\x00\x00\x00\x00\x00\x00\x00\x00\x00\x00\x00\x00\x00\x00\x00\x00\x00\x00\x00\x00\x00\x00\x00\x00\x00\x00\x00\x00\x00\x00\x00\x00\x00\x00\x00\x00\x00\x00\x00\x00\x00\x00\x00\x00\x00\x00\x00\x00\x00\x00\x00\x00\x00\x00\x00\x00\x00\x00\x00\x00\x00\x00\x00\x00\x00\x00\x00\x00\x00\x00\x00\x00\x00\x00\x00\x00\x00\x00\x00\x00\x00\x00\x00\x00\x00\x00\x00\x00\x00\x00\x00\x00\x00\x00\x00\x00\x00\x00\x00\x00\x00\x00\x00\x00\x00\x00\x00\x00\x00\x00\x00\x00\x00\x00\x00\x00\x00\x00\x00\x00\x00\x00\x00\x00\x00\x00\x00\x00\x00\x00\x00\x00\x00\x00\x00\x00\x00\x00\x00\x00\x00\x00\x00\x00\x00\x00\x00\x00\x00\x00\x00\x00\x00\x00\x00\x00\x00\x00\x00\x00\x00\x00\x00\x00\x00\x00\x00\x00\x00\x00\x00\x00\x00\x00\x00\x00\x00\x00\x00\x00\x00\x00\x00\x00\x00\x00\x00\x00\x00\x00\x00\x00\x00\x00\x00\x00\x00\x00\x00\x00\x00\x00\x00\x00\x00\x00\x00\x00\x00\x00\x00\x00\x00\x00\x00\x00\x00\x00\x00\x00\x00\x00\x00\x00\x00\x00\x00\x00\x00\x00\x00\x00\x00\x00\x00\x00\x00\x00\x00\x00\x00\x00\x00\x00\x00\x00\x00\x00\x00\x00\x00\x00\x00\x00\x00\x00\x00\x00\x00\x00\x00\x00\x00\x00\x00\x00\x00\x00\x00\x00\x00\x00\x00\x00\x00\x00\x00\x00\x00\x00\x00\x00\x00\x00\x00\x00\x00\x00\x00\x00\x00\x00\x00\x00\x00\x00\x00\x00\x00\x00\x00\x00\x00\x00\x00\x00\x00\x00\x00\x00\x00\x00\x00\x00\x00\x00\x00\x00\x00\x00\x00\x00\x00\x00\x00\x00\x00\x00\x00\x00\x00\x00\x00\x00\x00\x00\x00\x00\x00\x00\x00\x00\x00\x00\x00\x00\x00\x00\x00\x00\x00\x00\x00\x00\x00\x00\x00\x00\x00\x00\x00\x00\x00\x00\x00\x00\x00\x00\x00\x00\x00\x00\x00\x00\x00\x00\x00\x00\x00\x00\x00\x00\x00\x00\x00\x00\x00\x00\x00\x00\x00\x00\x00\x00\x00\x00\x00\x00\x00\x00\x00\x00\x00\x00\x00\x00\x00\x00\x00\x00\x00\x00\x00\x00\x00\x00\x00\x00\x00\x00\x00\x00\x00\x00\x00\x00\x00\x00\x00\x00\x00\x00\x00\x00\x00\x00\x00\x00\x00\x00\x00\x00\x00\x00\x00\x00\x00\x00\x00\x00\x00\x00\x00\x00\x00\x00\x00\x00\x00\x00\x00\x00\x00\x00\x00\x00\x00\x00\x00\x00\x00\x00\x00\x00'
NtbstRp57
(dp58
S'isNumeric'
p59
(dp60
g47
I01
sg55
I01
ssS'trials'
p61
g36
sS'dataTypes'
p62
(lp63
g47
ag55
asS'dataShape'
p64
(lp65
I15
aI40
asbsS'method'
p66
S'fullRandom'
p67
sS'sequenceIndices'
p68
cnumpy.core.multiarray
_reconstruct
p69
(g50
(I0
tS'b'
tRp70
(I1
(I15
I40
tg53
(S'O4'
I0
I1
tRp71
(I3
S'|'
NNNI-1
I-1
I63
tbI00
(lp72
I6
aI9
aI10
aI7
aI11
aI5
aI0
aI1
aI8
aI14
aI11
aI0
aI11
aI10
aI2
aI5
aI11
aI12
aI1
aI9
aI9
aI10
aI2
aI4
aI2
aI1
aI7
aI7
aI11
aI10
aI7
aI1
aI12
aI13
aI10
aI7
aI9
aI3
aI14
aI5
aI10
aI9
aI4
aI4
aI14
aI9
aI5
aI9
aI4
aI1
aI2
aI1
aI8
aI10
aI6
aI0
aI7
aI5
aI3
aI9
aI12
aI3
aI6
aI13
aI9
aI6
aI13
aI12
aI11
aI3
aI13
aI6
aI9
aI7
aI8
aI1
aI1
aI3
aI2
aI7
aI0
aI14
aI3
aI11
aI2
aI11
aI8
aI0
aI7
aI7
aI14
aI13
aI14
aI2
aI1
aI12
aI2
aI10
aI12
aI6
aI2
aI11
aI12
aI11
aI2
aI6
aI11
aI4
aI10
aI5
aI8
aI14
aI5
aI7
aI13
aI1
aI9
aI7
aI1
aI6
aI12
aI7
aI5
aI14
aI9
aI9
aI13
aI9
aI9
aI11
aI10
aI5
aI2
aI11
aI13
aI3
aI11
aI9
aI1
aI12
aI13
aI14
aI12
aI0
aI0
aI3
aI14
aI4
aI12
aI8
aI6
aI8
aI0
aI5
aI13
aI5
aI5
aI0
aI12
aI4
aI8
aI13
aI10
aI2
aI0
aI1
aI10
aI7
aI0
aI9
aI1
aI13
aI9
aI6
aI8
aI10
aI11
aI12
aI12
aI13
aI11
aI12
aI8
aI1
aI11
aI0
aI1
aI2
aI14
aI8
aI10
aI4
aI13
aI4
aI13
aI5
aI5
aI3
aI3
aI12
aI12
aI10
aI0
aI13
aI13
aI10
aI8
aI2
aI10
aI0
aI11
aI4
aI5
aI10
aI14
aI10
aI12
aI3
aI14
aI7
aI0
aI3
aI1
aI1
aI3
aI8
aI7
aI12
aI14
aI13
aI2
aI5
aI8
aI14
aI4
aI12
aI4
aI9
aI6
aI2
aI7
aI6
aI6
aI9
aI7
aI10
aI5
aI12
aI11
aI8
aI14
aI13
aI9
aI8
aI10
aI3
aI0
aI2
aI4
aI9
aI7
aI13
aI2
aI3
aI13
aI11
aI4
aI4
aI3
aI3
aI14
aI14
aI1
aI10
aI6
aI0
aI12
aI8
aI12
aI10
aI0
aI12
aI1
aI1
aI11
aI2
aI4
aI10
aI14
aI14
aI12
aI8
aI8
aI9
aI5
aI4
aI3
aI4
aI12
aI0
aI11
aI5
aI9
aI14
aI8
aI6
aI6
aI14
aI6
aI6
aI7
aI10
aI9
aI4
aI0
aI4
aI5
aI11
aI3
aI14
aI11
aI7
aI8
aI9
aI9
aI6
aI14
aI8
aI14
aI13
aI4
aI14
aI3
aI4
aI0
aI12
aI14
aI6
aI4
aI13
aI0
aI14
aI14
aI8
aI12
aI6
aI4
aI3
aI2
aI8
aI14
aI3
aI5
aI1
aI11
aI2
aI1
aI10
aI9
aI12
aI5
aI6
aI9
aI12
aI14
aI6
aI2
aI5
aI14
aI7
aI12
aI12
aI13
aI4
aI5
aI14
aI7
aI9
aI2
aI5
aI7
aI13
aI8
aI5
aI14
aI8
aI7
aI13
aI10
aI14
aI6
aI3
aI7
aI3
aI11
aI7
aI4
aI13
aI2
aI1
aI3
aI7
aI3
aI6
aI5
aI8
aI0
aI2
aI2
aI1
aI7
aI11
aI4
aI11
aI0
aI4
aI8
aI10
aI0
aI1
aI1
aI6
aI7
aI11
aI10
aI9
aI0
aI9
aI10
aI0
aI8
aI4
aI11
aI7
aI1
aI5
aI4
aI1
aI0
aI2
aI7
aI12
aI11
aI4
aI3
aI11
aI9
aI8
aI1
aI0
aI2
aI1
aI0
aI3
aI5
aI8
aI3
aI2
aI2
aI5
aI2
aI13
aI6
aI0
aI9
aI9
aI12
aI3
aI7
aI4
aI3
aI9
aI1
aI2
aI10
aI4
aI1
aI8
aI5
aI14
aI6
aI10
aI5
aI6
aI0
aI9
aI13
aI1
aI3
aI14
aI11
aI1
aI13
aI0
aI10
aI1
aI11
aI6
aI9
aI8
aI0
aI3
aI3
aI3
aI5
aI9
aI6
aI11
aI1
aI3
aI14
aI7
aI13
aI8
aI3
aI12
aI10
aI5
aI5
aI0
aI6
aI6
aI4
aI8
aI5
aI4
aI4
aI13
aI0
aI6
aI13
aI10
aI2
aI8
aI7
aI12
aI10
aI1
aI0
aI7
aI8
aI6
aI2
aI12
aI12
aI11
aI13
aI11
aI6
aI3
aI2
aI3
aI11
aI12
aI13
aI10
aI2
aI5
aI0
aI11
aI2
aI8
aI10
aI3
aI2
aI4
aI9
aI5
aI13
aI13
aI7
aI13
aI5
aI14
aI5
aI6
aI10
aI1
aI2
aI13
aI6
aI13
aI7
aI4
aI7
aI8
aI6
aI2
aI0
aI8
aI1
aI12
aI0
aI6
aI4
aI14
aI7
aI11
aI4
aI10
atbsS'finished'
p73
I00
sS'nReps'
p74
I40
sS'nRemaining'
p75
I0
sS'trialList'
p76
(lp77
I0
aI1
aI2
aI3
aI4
aI5
aI6
aI7
aI8
aI9
aI10
aI11
aI12
aI13
aI14
asS'seed'
p78
NsS'thisIndex'
p79
I10
sS'thisN'
p80
I599
sS'thisTrialN'
p81
I14
sS'nTotal'
p82
I600
sS'_warnUseOfNext'
p83
I01
sbasS'saveWideText'
p84
I00
sS'thisEntry'
p85
(dp86
sS'version'
p87
S''
sS'_paramNamesSoFar'
p88
(lp89
sS'entries'
p90
(lp91
(dp92
g16
(lp93
S'k'
asS'.thisTrial'
p94
I6
sS'.thisRepN'
p95
I0
sg30
VF
sg31
g32
sS'.thisTrialN'
p96
I0
sS'.thisN'
p97
I0
sS'.thisIndex'
p98
I6
sg15
(lp99
S'k'
asg17
S'Y'
sg14
I1
sa(dp100
g16
(lp101
S'k'
asg94
I10
sS'.thisRepN'
p102
I0
sg30
VF
sg31
g32
sS'.thisTrialN'
p103
I1
sS'.thisN'
p104
I1
sS'.thisIndex'
p105
I10
sg15
(lp106
S'k'
asg17
S'Y'
sg14
I1
sa(dp107
g16
(lp108
S'd'
asg18
S'Y'
sS'.thisRepN'
p109
I0
sg20
S'Y'
sg31
g32
sS'.thisTrialN'
p110
I2
sS'.thisN'
p111
I2
sS'.thisIndex'
p112
I0
sg15
(lp113
S'd'
asg30
VF
sg17
S'Y'
sg14
I1
sg19
(lp114
S'space'
p115
asg94
I0
sa(dp116
g16
(lp117
S'd'
asg18
S'N'
sS'.thisRepN'
p118
I0
sg20
S'Y'
sg31
g32
sS'.thisTrialN'
p119
I3
sS'.thisN'
p120
I3
sS'.thisIndex'
p121
I12
sg15
(lp122
S'k'
asg30
VF
sg17
S'N'
sg14
I1
sg19
Nsg94
I12
sa(dp123
g16
(lp124
S'k'
asg18
S'N'
sS'.thisRepN'
p125
I0
sg20
S'Y'
sg31
g32
sS'.thisTrialN'
p126
I4
sS'.thisN'
p127
I4
sS'.thisIndex'
p128
I8
sg15
(lp129
S'k'
asg30
VF
sg17
S'Y'
sg14
I1
sg19
Nsg94
I8
sa(dp130
g16
(lp131
S'd'
asg18
S'N'
sS'.thisRepN'
p132
I0
sg20
S'Y'
sg31
g32
sS'.thisTrialN'
p133
I5
sS'.thisN'
p134
I5
sS'.thisIndex'
p135
I12
sg15
(lp136
S'd'
asg30
VF
sg17
S'Y'
sg14
I1
sg19
Nsg94
I12
sa(dp137
g16
(lp138
S'd'
asg18
S'Y'
sS'.thisRepN'
p139
I0
sg20
S'N'
sg31
g32
sS'.thisTrialN'
p140
I6
sS'.thisN'
p141
I6
sS'.thisIndex'
p142
I7
sg15
(lp143
S'd'
asg30
VF
sg17
S'Y'
sg14
I1
sg19
Nsg94
I7
sa(dp144
g16
(lp145
S'k'
asg18
S'N'
sS'.thisRepN'
p146
I0
sg20
S'Y'
sg31
g32
sS'.thisTrialN'
p147
I7
sS'.thisN'
p148
I7
sS'.thisIndex'
p149
I0
sg15
(lp150
S'k'
asg30
VF
sg17
S'Y'
sg14
I1
sg19
Nsg94
I0
sa(dp151
g16
(lp152
S'k'
asg18
S'Y'
sS'.thisRepN'
p153
I0
sg20
S'Y'
sg31
g32
sS'.thisTrialN'
p154
I8
sS'.thisN'
p155
I8
sS'.thisIndex'
p156
I11
sg15
(lp157
S'k'
asg30
VF
sg17
S'Y'
sg14
I1
sg19
(lp158
S'space'
p159
asg94
I11
sa(dp160
g16
(lp161
S'k'
asg18
S'N'
sS'.thisRepN'
p162
I0
sg20
S'Y'
sg31
g32
sS'.thisTrialN'
p163
I9
sS'.thisN'
p164
I9
sS'.thisIndex'
p165
I5
sg15
(lp166
S'k'
asg30
VF
sg17
S'Y'
sg14
I1
sg19
Nsg94
I5
sa(dp167
g16
(lp168
S'k'
asg18
S'Y'
sS'.thisRepN'
p169
I0
sg20
S'Y'
sg31
g32
sS'.thisTrialN'
p170
I10
sS'.thisN'
p171
I10
sS'.thisIndex'
p172
I3
sg15
(lp173
S'k'
asg30
VF
sg17
S'Y'
sg14
I1
sg19
(lp174
S'space'
p175
asg94
I3
sa(dp176
g16
(lp177
S'd'
asg18
S'Y'
sS'.thisRepN'
p178
I0
sg20
S'Y'
sg31
g32
sS'.thisTrialN'
p179
I11
sS'.thisN'
p180
I11
sS'.thisIndex'
p181
I7
sg15
(lp182
S'k'
asg30
VF
sg17
S'N'
sg14
I1
sg19
(lp183
S'space'
p184
asg94
I7
sa(dp185
g16
(lp186
S'k'
asg18
S'N'
sS'.thisRepN'
p187
I0
sg20
S'N'
sg31
g32
sS'.thisTrialN'
p188
I12
sS'.thisN'
p189
I12
sS'.thisIndex'
p190
I6
sg15
(lp191
S'k'
asg30
VF
sg17
S'Y'
sg14
I1
sg19
(lp192
S'space'
p193
asg94
I6
sa(dp194
g16
(lp195
S'd'
asg18
S'Y'
sS'.thisRepN'
p196
I0
sg20
S'Y'
sg31
g32
sS'.thisTrialN'
p197
I13
sS'.thisN'
p198
I13
sS'.thisIndex'
p199
I6
sg15
(lp200
S'd'
asg30
VF
sg17
S'Y'
sg14
I1
sg19
(lp201
S'space'
p202
asg94
I6
sa(dp203
g16
(lp204
S'k'
asg18
S'N'
sS'.thisRepN'
p205
I0
sg20
S'Y'
sg31
g32
sS'.thisTrialN'
p206
I14
sS'.thisN'
p207
I14
sS'.thisIndex'
p208
I2
sg15
(lp209
S'k'
asg30
VF
sg17
S'Y'
sg14
I1
sg19
Nsg94
I2
sa(dp210
g16
(lp211
S'k'
asg18
S'N'
sS'.thisRepN'
p212
I1
sg20
S'Y'
sg31
g32
sS'.thisTrialN'
p213
I0
sS'.thisN'
p214
I15
sS'.thisIndex'
p215
I9
sg15
(lp216
S'k'
asg30
VF
sg17
S'Y'
sg14
I1
sg19
Nsg94
I9
sa(dp217
g16
(lp218
S'd'
asg18
S'Y'
sS'.thisRepN'
p219
I1
sg20
S'Y'
sg31
g32
sS'.thisTrialN'
p220
I1
sS'.thisN'
p221
I16
sS'.thisIndex'
p222
I9
sg15
(lp223
S'd'
asg30
VF
sg17
S'Y'
sg14
I1
sg19
(lp224
S'space'
p225
asg94
I9
sa(dp226
g16
(lp227
S'k'
asg18
S'N'
sS'.thisRepN'
p228
I1
sg20
S'Y'
sg31
g32
sS'.thisTrialN'
p229
I2
sS'.thisN'
p230
I17
sS'.thisIndex'
p231
I14
sg15
(lp232
S'k'
asg30
VF
sg17
S'Y'
sg14
I1
sg19
Nsg94
I14
sa(dp233
g16
(lp234
S'd'
asg18
S'N'
sS'.thisRepN'
p235
I1
sg20
S'Y'
sg31
g32
sS'.thisTrialN'
p236
I3
sS'.thisN'
p237
I18
sS'.thisIndex'
p238
I7
sg15
(lp239
S'k'
asg30
VF
sg17
S'N'
sg14
I1
sg19
Nsg94
I7
sa(dp240
g16
(lp241
S'k'
asg18
S'N'
sS'.thisRepN'
p242
I1
sg20
S'N'
sg31
g32
sS'.thisTrialN'
p243
I4
sS'.thisN'
p244
I19
sS'.thisIndex'
p245
I13
sg15
(lp246
S'k'
asg30
VF
sg17
S'Y'
sg14
I1
sg19
(lp247
S'space'
p248
asg94
I13
sa(dp249
g16
(lp250
S'd'
asg18
S'Y'
sS'.thisRepN'
p251
I1
sg20
S'Y'
sg31
g32
sS'.thisTrialN'
p252
I5
sS'.thisN'
p253
I20
sS'.thisIndex'
p254
I10
sg15
(lp255
S'k'
asg30
VF
sg17
S'N'
sg14
I1
sg19
(lp256
S'space'
p257
asg94
I10
sa(dp258
g16
(lp259
S'k'
asg18
S'Y'
sS'.thisRepN'
p260
I1
sg20
S'N'
sg31
g32
sS'.thisTrialN'
p261
I6
sS'.thisN'
p262
I21
sS'.thisIndex'
p263
I6
sg15
(lp264
S'd'
asg30
VF
sg17
S'N'
sg14
I1
sg19
Nsg94
I6
sa(dp265
g16
(lp266
S'k'
asg18
S'Y'
sS'.thisRepN'
p267
I1
sg20
S'Y'
sg31
g32
sS'.thisTrialN'
p268
I7
sS'.thisN'
p269
I22
sS'.thisIndex'
p270
I12
sg15
(lp271
S'k'
asg30
VF
sg17
S'Y'
sg14
I1
sg19
(lp272
S'space'
p273
asg94
I12
sa(dp274
g16
(lp275
S'd'
asg18
S'Y'
sS'.thisRepN'
p276
I1
sg20
S'Y'
sg31
g32
sS'.thisTrialN'
p277
I8
sS'.thisN'
p278
I23
sS'.thisIndex'
p279
I7
sg15
(lp280
S'k'
asg30
VF
sg17
S'N'
sg14
I1
sg19
(lp281
S'space'
p282
asg94
I7
sa(dp283
g16
(lp284
S'k'
asg18
S'Y'
sS'.thisRepN'
p285
I1
sg20
S'Y'
sg31
g32
sS'.thisTrialN'
p286
I9
sS'.thisN'
p287
I24
sS'.thisIndex'
p288
I6
sg15
(lp289
S'k'
asg30
VF
sg17
S'Y'
sg14
I1
sg19
(lp290
S'space'
p291
asg94
I6
sa(dp292
g16
(lp293
S'k'
asg18
S'N'
sS'.thisRepN'
p294
I1
sg20
S'Y'
sg31
g32
sS'.thisTrialN'
p295
I10
sS'.thisN'
p296
I25
sS'.thisIndex'
p297
I7
sg15
(lp298
S'k'
asg30
VF
sg17
S'Y'
sg14
I1
sg19
Nsg94
I7
sa(dp299
g16
(lp300
S'd'
asg18
S'N'
sS'.thisRepN'
p301
I1
sg20
S'Y'
sg31
g32
sS'.thisTrialN'
p302
I11
sS'.thisN'
p303
I26
sS'.thisIndex'
p304
I12
sg15
(lp305
S'd'
asg30
VF
sg17
S'Y'
sg14
I1
sg19
Nsg94
I12
sa(dp306
g16
(lp307
S'd'
asg18
S'N'
sS'.thisRepN'
p308
I1
sg20
S'Y'
sg31
g32
sS'.thisTrialN'
p309
I12
sS'.thisN'
p310
I27
sS'.thisIndex'
p311
I10
sg15
(lp312
S'k'
asg30
VF
sg17
S'N'
sg14
I1
sg19
Nsg94
I10
sa(dp313
g16
(lp314
S'd'
asg18
S'N'
sS'.thisRepN'
p315
I1
sg20
S'N'
sg31
g32
sS'.thisTrialN'
p316
I13
sS'.thisN'
p317
I28
sS'.thisIndex'
p318
I6
sg15
(lp319
S'd'
asg30
VF
sg17
S'Y'
sg14
I1
sg19
(lp320
S'space'
p321
asg94
I6
sa(dp322
g16
(lp323
S'd'
asg18
S'N'
sS'.thisRepN'
p324
I1
sg20
S'Y'
sg31
g32
sS'.thisTrialN'
p325
I14
sS'.thisN'
p326
I29
sS'.thisIndex'
p327
I8
sg15
(lp328
S'k'
asg30
VF
sg17
S'N'
sg14
I1
sg19
Nsg94
I8
sa(dp329
g16
(lp330
S'd'
asg18
S'Y'
sS'.thisRepN'
p331
I2
sg20
S'Y'
sg31
g32
sS'.thisTrialN'
p332
I0
sS'.thisN'
p333
I30
sS'.thisIndex'
p334
I10
sg15
(lp335
S'k'
asg30
VF
sg17
S'N'
sg14
I1
sg19
(lp336
S'space'
p337
asg94
I10
sa(dp338
g16
(lp339
S'd'
asg18
S'Y'
sS'.thisRepN'
p340
I2
sg20
S'Y'
sg31
g32
sS'.thisTrialN'
p341
I1
sS'.thisN'
p342
I31
sS'.thisIndex'
p343
I4
sg15
(lp344
S'k'
asg30
VF
sg17
S'N'
sg14
I1
sg19
(lp345
S'space'
p346
asg94
I4
sa(dp347
g16
(lp348
S'k'
asg18
S'N'
sS'.thisRepN'
p349
I2
sg20
S'Y'
sg31
g32
sS'.thisTrialN'
p350
I2
sS'.thisN'
p351
I32
sS'.thisIndex'
p352
I3
sg15
(lp353
S'k'
asg30
VF
sg17
S'Y'
sg14
I1
sg19
Nsg94
I3
sa(dp354
g16
(lp355
S'k'
asg18
S'Y'
sS'.thisRepN'
p356
I2
sg20
S'Y'
sg31
g32
sS'.thisTrialN'
p357
I3
sS'.thisN'
p358
I33
sS'.thisIndex'
p359
I5
sg15
(lp360
S'd'
asg30
VF
sg17
S'N'
sg14
I1
sg19
(lp361
S'space'
p362
asg94
I5
sa(dp363
g16
(lp364
S'd'
asg18
S'Y'
sS'.thisRepN'
p365
I2
sg20
S'Y'
sg31
g32
sS'.thisTrialN'
p366
I4
sS'.thisN'
p367
I34
sS'.thisIndex'
p368
I10
sg15
(lp369
S'd'
asg30
VF
sg17
S'Y'
sg14
I1
sg19
(lp370
S'space'
p371
asg94
I10
sa(dp372
g16
(lp373
S'd'
asg18
S'Y'
sS'.thisRepN'
p374
I2
sg20
S'Y'
sg31
g32
sS'.thisTrialN'
p375
I5
sS'.thisN'
p376
I35
sS'.thisIndex'
p377
I0
sg15
(lp378
S'k'
asg30
VF
sg17
S'N'
sg14
I1
sg19
(lp379
S'space'
p380
asg94
I0
sa(dp381
g16
(lp382
S'd'
asg18
S'Y'
sS'.thisRepN'
p383
I2
sg20
S'Y'
sg31
g32
sS'.thisTrialN'
p384
I6
sS'.thisN'
p385
I36
sS'.thisIndex'
p386
I6
sg15
(lp387
S'k'
asg30
VF
sg17
S'N'
sg14
I1
sg19
(lp388
S'space'
p389
asg94
I6
sa(dp390
g16
(lp391
S'd'
asg18
S'N'
sS'.thisRepN'
p392
I2
sg20
S'Y'
sg31
g32
sS'.thisTrialN'
p393
I7
sS'.thisN'
p394
I37
sS'.thisIndex'
p395
I1
sg15
(lp396
S'k'
asg30
VF
sg17
S'N'
sg14
I1
sg19
Nsg94
I1
sa(dp397
g16
(lp398
S'd'
asg18
S'Y'
sS'.thisRepN'
p399
I2
sg20
S'Y'
sg31
g32
sS'.thisTrialN'
p400
I8
sS'.thisN'
p401
I38
sS'.thisIndex'
p402
I8
sg15
(lp403
S'k'
asg30
VF
sg17
S'N'
sg14
I1
sg19
(lp404
S'space'
p405
asg94
I8
sa(dp406
g16
(lp407
S'k'
asg18
S'N'
sS'.thisRepN'
p408
I2
sg20
S'Y'
sg31
g32
sS'.thisTrialN'
p409
I9
sS'.thisN'
p410
I39
sS'.thisIndex'
p411
I9
sg15
(lp412
S'd'
asg30
VF
sg17
S'N'
sg14
I1
sg19
Nsg94
I9
sa(dp413
g16
(lp414
S'k'
asg18
S'Y'
sS'.thisRepN'
p415
I2
sg20
S'Y'
sg31
g32
sS'.thisTrialN'
p416
I10
sS'.thisN'
p417
I40
sS'.thisIndex'
p418
I3
sg15
(lp419
S'k'
asg30
VF
sg17
S'Y'
sg14
I1
sg19
(lp420
S'space'
p421
asg94
I3
sa(dp422
g16
(lp423
S'k'
asg18
S'Y'
sS'.thisRepN'
p424
I2
sg20
S'Y'
sg31
g32
sS'.thisTrialN'
p425
I11
sS'.thisN'
p426
I41
sS'.thisIndex'
p427
I11
sg15
(lp428
S'k'
asg30
VF
sg17
S'Y'
sg14
I1
sg19
(lp429
S'space'
p430
asg94
I11
sa(dp431
g16
(lp432
S'k'
asg18
S'N'
sS'.thisRepN'
p433
I2
sg20
S'N'
sg31
g32
sS'.thisTrialN'
p434
I12
sS'.thisN'
p435
I42
sS'.thisIndex'
p436
I5
sg15
(lp437
S'k'
asg30
VF
sg17
S'Y'
sg14
I1
sg19
(lp438
S'space'
p439
asg94
I5
sa(dp440
g16
(lp441
S'd'
asg18
S'Y'
sS'.thisRepN'
p442
I2
sg20
S'Y'
sg31
g32
sS'.thisTrialN'
p443
I13
sS'.thisN'
p444
I43
sS'.thisIndex'
p445
I4
sg15
(lp446
S'k'
asg30
VF
sg17
S'N'
sg14
I1
sg19
(lp447
S'space'
p448
asg94
I4
sa(dp449
g16
(lp450
S'k'
asg18
S'N'
sS'.thisRepN'
p451
I2
sg20
S'Y'
sg31
g32
sS'.thisTrialN'
p452
I14
sS'.thisN'
p453
I44
sS'.thisIndex'
p454
I10
sg15
(lp455
S'd'
asg30
VF
sg17
S'N'
sg14
I1
sg19
Nsg94
I10
sa(dp456
g16
(lp457
S'k'
asg18
S'N'
sS'.thisRepN'
p458
I3
sg20
S'N'
sg31
g32
sS'.thisTrialN'
p459
I0
sS'.thisN'
p460
I45
sS'.thisIndex'
p461
I7
sg15
(lp462
S'k'
asg30
VF
sg17
S'Y'
sg14
I1
sg19
(lp463
S'space'
p464
asg94
I7
sa(dp465
g16
(lp466
S'd'
asg18
S'N'
sS'.thisRepN'
p467
I3
sg20
S'Y'
sg31
g32
sS'.thisTrialN'
p468
I1
sS'.thisN'
p469
I46
sS'.thisIndex'
p470
I4
sg15
(lp471
S'k'
asg30
VF
sg17
S'N'
sg14
I1
sg19
Nsg94
I4
sa(dp472
g16
(lp473
S'd'
asg18
S'Y'
sS'.thisRepN'
p474
I3
sg20
S'Y'
sg31
g32
sS'.thisTrialN'
p475
I2
sS'.thisN'
p476
I47
sS'.thisIndex'
p477
I11
sg15
(lp478
S'k'
asg30
VF
sg17
S'N'
sg14
I1
sg19
(lp479
S'space'
p480
asg94
I11
sa(dp481
g16
(lp482
S'k'
asg18
S'Y'
sS'.thisRepN'
p483
I3
sg20
S'Y'
sg31
g32
sS'.thisTrialN'
p484
I3
sS'.thisN'
p485
I48
sS'.thisIndex'
p486
I14
sg15
(lp487
S'k'
asg30
VF
sg17
S'Y'
sg14
I1
sg19
(lp488
S'space'
p489
asg94
I14
sa(dp490
g16
(lp491
S'd'
asg18
S'N'
sg22
I41
sS'.thisN'
p492
I49
sg20
S'Y'
sg31
g32
sS'.thisTrialN'
p493
I4
sS'.thisRepN'
p494
I3
sg21
I29
sS'.thisIndex'
p495
I2
sg23
I24
sg15
(lp496
S'k'
asg30
VF
sg17
S'N'
sg14
I1
sg19
Nsg94
I2
sa(dp497
g16
(lp498
S'k'
asg94
I13
sS'.thisRepN'
p499
I3
sg30
VF
sg31
g32
sS'.thisTrialN'
p500
I5
sS'.thisN'
p501
I50
sS'.thisIndex'
p502
I13
sg15
(lp503
S'k'
asg17
S'Y'
sg14
I2
sa(dp504
g16
(lp505
S'k'
asg94
I9
sS'.thisRepN'
p506
I3
sg30
VF
sg31
g32
sS'.thisTrialN'
p507
I6
sS'.thisN'
p508
I51
sS'.thisIndex'
p509
I9
sg15
(lp510
S'k'
asg17
S'Y'
sg14
I2
sa(dp511
g16
(lp512
S'd'
asg18
S'N'
sS'.thisRepN'
p513
I3
sg20
S'N'
sg31
g32
sS'.thisTrialN'
p514
I7
sS'.thisN'
p515
I52
sS'.thisIndex'
p516
I1
sg15
(lp517
S'k'
asg30
VF
sg17
S'N'
sg14
I2
sg19
(lp518
S'space'
p519
asg94
I1
sa(dp520
g16
(lp521
S'd'
asg18
S'N'
sS'.thisRepN'
p522
I3
sg20
S'Y'
sg31
g32
sS'.thisTrialN'
p523
I8
sS'.thisN'
p524
I53
sS'.thisIndex'
p525
I9
sg15
(lp526
S'k'
asg30
VF
sg17
S'N'
sg14
I2
sg19
Nsg94
I9
sa(dp527
g16
(lp528
S'k'
asg18
S'Y'
sS'.thisRepN'
p529
I3
sg20
S'Y'
sg31
g32
sS'.thisTrialN'
p530
I9
sS'.thisN'
p531
I54
sS'.thisIndex'
p532
I12
sg15
(lp533
S'k'
asg30
VF
sg17
S'Y'
sg14
I2
sg19
(lp534
S'space'
p535
asg94
I12
sa(dp536
g16
(lp537
S'd'
asg18
S'N'
sS'.thisRepN'
p538
I3
sg20
S'N'
sg31
g32
sS'.thisTrialN'
p539
I10
sS'.thisN'
p540
I55
sS'.thisIndex'
p541
I6
sg15
(lp542
S'k'
asg30
VF
sg17
S'N'
sg14
I2
sg19
(lp543
S'space'
p544
asg94
I6
sa(dp545
g16
(lp546
S'k'
asg18
S'N'
sS'.thisRepN'
p547
I3
sg20
S'N'
sg31
g32
sS'.thisTrialN'
p548
I11
sS'.thisN'
p549
I56
sS'.thisIndex'
p550
I4
sg15
(lp551
S'd'
asg30
VF
sg17
S'N'
sg14
I2
sg19
(lp552
S'space'
p553
asg94
I4
sa(dp554
g16
(lp555
S'd'
asg18
S'N'
sS'.thisRepN'
p556
I3
sg20
S'N'
sg31
g32
sS'.thisTrialN'
p557
I12
sS'.thisN'
p558
I57
sS'.thisIndex'
p559
I6
sg15
(lp560
S'k'
asg30
VF
sg17
S'N'
sg14
I2
sg19
(lp561
S'space'
p562
asg94
I6
sa(dp563
g16
(lp564
S'd'
asg18
S'N'
sS'.thisRepN'
p565
I3
sg20
S'N'
sg31
g32
sS'.thisTrialN'
p566
I13
sS'.thisN'
p567
I58
sS'.thisIndex'
p568
I8
sg15
(lp569
S'k'
asg30
VF
sg17
S'N'
sg14
I2
sg19
(lp570
S'k'
asg94
I8
sa(dp571
g16
(lp572
S'k'
asg18
S'Y'
sS'.thisRepN'
p573
I3
sg20
S'Y'
sg31
g32
sS'.thisTrialN'
p574
I14
sS'.thisN'
p575
I59
sS'.thisIndex'
p576
I3
sg15
(lp577
S'k'
asg30
VF
sg17
S'Y'
sg14
I2
sg19
(lp578
S'space'
p579
asg94
I3
sa(dp580
g16
(lp581
S'd'
asg18
S'N'
sS'.thisRepN'
p582
I4
sg20
S'Y'
sg31
g32
sS'.thisTrialN'
p583
I0
sS'.thisN'
p584
I60
sS'.thisIndex'
p585
I11
sg15
(lp586
S'k'
asg30
VF
sg17
S'N'
sg14
I2
sg19
Nsg94
I11
sa(dp587
g16
(lp588
S'd'
asg18
S'N'
sS'.thisRepN'
p589
I4
sg20
S'N'
sg31
g32
sS'.thisTrialN'
p590
I1
sS'.thisN'
p591
I61
sS'.thisIndex'
p592
I14
sg15
(lp593
S'k'
asg30
VF
sg17
S'N'
sg14
I2
sg19
(lp594
S'k'
asg94
I14
sa(dp595
g16
(lp596
S'd'
asg18
S'Y'
sS'.thisRepN'
p597
I4
sg20
S'Y'
sg31
g32
sS'.thisTrialN'
p598
I2
sS'.thisN'
p599
I62
sS'.thisIndex'
p600
I2
sg15
(lp601
S'd'
asg30
VF
sg17
S'Y'
sg14
I2
sg19
(lp602
S'space'
p603
asg94
I2
sa(dp604
g16
(lp605
S'k'
asg18
S'Y'
sS'.thisRepN'
p606
I4
sg20
S'N'
sg31
g32
sS'.thisTrialN'
p607
I3
sS'.thisN'
p608
I63
sS'.thisIndex'
p609
I9
sg15
(lp610
S'd'
asg30
VF
sg17
S'N'
sg14
I2
sg19
Nsg94
I9
sa(dp611
g16
(lp612
S'd'
asg18
S'Y'
sS'.thisRepN'
p613
I4
sg20
S'Y'
sg31
g32
sS'.thisTrialN'
p614
I4
sS'.thisN'
p615
I64
sS'.thisIndex'
p616
I0
sg15
(lp617
S'k'
asg30
VF
sg17
S'N'
sg14
I2
sg19
(lp618
S'space'
p619
asg94
I0
sa(dp620
g16
(lp621
S'd'
asg18
S'N'
sS'.thisRepN'
p622
I4
sg20
S'N'
sg31
g32
sS'.thisTrialN'
p623
I5
sS'.thisN'
p624
I65
sS'.thisIndex'
p625
I13
sg15
(lp626
S'k'
asg30
VF
sg17
S'N'
sg14
I2
sg19
(lp627
S'd'
asg94
I13
sa(dp628
g16
(lp629
S'd'
asg18
S'N'
sS'.thisRepN'
p630
I4
sg20
S'Y'
sg31
g32
sS'.thisTrialN'
p631
I6
sS'.thisN'
p632
I66
sS'.thisIndex'
p633
I7
sg15
(lp634
S'k'
asg30
VF
sg17
S'N'
sg14
I2
sg19
Nsg94
I7
sa(dp635
g16
(lp636
S'd'
asg18
S'N'
sS'.thisRepN'
p637
I4
sg20
S'N'
sg31
g32
sS'.thisTrialN'
p638
I7
sS'.thisN'
p639
I67
sS'.thisIndex'
p640
I11
sg15
(lp641
S'k'
asg30
VF
sg17
S'N'
sg14
I2
sg19
(lp642
S'space'
p643
asg94
I11
sa(dp644
g16
(lp645
S'd'
asg18
S'N'
sS'.thisRepN'
p646
I4
sg20
S'N'
sg31
g32
sS'.thisTrialN'
p647
I8
sS'.thisN'
p648
I68
sS'.thisIndex'
p649
I9
sg15
(lp650
S'k'
asg30
VF
sg17
S'N'
sg14
I2
sg19
(lp651
S'd'
asg94
I9
sa(dp652
g16
(lp653
S'd'
asg18
S'Y'
sS'.thisRepN'
p654
I4
sg20
S'Y'
sg31
g32
sS'.thisTrialN'
p655
I9
sS'.thisN'
p656
I69
sS'.thisIndex'
p657
I14
sg15
(lp658
S'd'
asg30
VF
sg17
S'Y'
sg14
I2
sg19
(lp659
S'space'
p660
asg94
I14
sa(dp661
g16
(lp662
S'k'
asg18
S'Y'
sS'.thisRepN'
p663
I4
sg20
S'N'
sg31
g32
sS'.thisTrialN'
p664
I10
sS'.thisN'
p665
I70
sS'.thisIndex'
p666
I5
sg15
(lp667
S'k'
asg30
VF
sg17
S'Y'
sg14
I2
sg19
(lp668
S'k'
asg94
I5
sa(dp669
g16
(lp670
S'd'
asg18
S'Y'
sS'.thisRepN'
p671
I4
sg20
S'Y'
sg31
g32
sS'.thisTrialN'
p672
I11
sS'.thisN'
p673
I71
sS'.thisIndex'
p674
I3
sg15
(lp675
S'k'
asg30
VF
sg17
S'N'
sg14
I2
sg19
(lp676
S'space'
p677
asg94
I3
sa(dp678
g16
(lp679
S'd'
asg18
S'N'
sS'.thisRepN'
p680
I4
sg20
S'Y'
sg31
g32
sS'.thisTrialN'
p681
I12
sS'.thisN'
p682
I72
sS'.thisIndex'
p683
I0
sg15
(lp684
S'k'
asg30
VF
sg17
S'N'
sg14
I2
sg19
Nsg94
I0
sa(dp685
g16
(lp686
S'd'
asg18
S'Y'
sS'.thisRepN'
p687
I4
sg20
S'N'
sg31
g32
sS'.thisTrialN'
p688
I13
sS'.thisN'
p689
I73
sS'.thisIndex'
p690
I5
sg15
(lp691
S'k'
asg30
VF
sg17
S'N'
sg14
I2
sg19
(lp692
S'd'
asg94
I5
sa(dp693
g16
(lp694
S'd'
asg18
S'Y'
sS'.thisRepN'
p695
I4
sg20
S'Y'
sg31
g32
sS'.thisTrialN'
p696
I14
sS'.thisN'
p697
I74
sS'.thisIndex'
p698
I2
sg15
(lp699
S'd'
asg30
VF
sg17
S'Y'
sg14
I2
sg19
(lp700
S'space'
p701
asg94
I2
sa(dp702
g16
(lp703
S'd'
asg18
S'N'
sS'.thisRepN'
p704
I5
sg20
S'N'
sg31
g32
sS'.thisTrialN'
p705
I0
sS'.thisN'
p706
I75
sS'.thisIndex'
p707
I5
sg15
(lp708
S'k'
asg30
VF
sg17
S'N'
sg14
I2
sg19
(lp709
S'd'
asg94
I5
sa(dp710
g16
(lp711
S'd'
asg18
S'Y'
sS'.thisRepN'
p712
I5
sg20
S'Y'
sg31
g32
sS'.thisTrialN'
p713
I1
sS'.thisN'
p714
I76
sS'.thisIndex'
p715
I9
sg15
(lp716
S'k'
asg30
VF
sg17
S'N'
sg14
I2
sg19
(lp717
S'space'
p718
asg94
I9
sa(dp719
g16
(lp720
S'd'
asg18
S'Y'
sS'.thisRepN'
p721
I5
sg20
S'Y'
sg31
g32
sS'.thisTrialN'
p722
I2
sS'.thisN'
p723
I77
sS'.thisIndex'
p724
I11
sg15
(lp725
S'd'
asg30
VF
sg17
S'Y'
sg14
I2
sg19
(lp726
S'space'
p727
asg94
I11
sa(dp728
g16
(lp729
S'k'
asg18
S'Y'
sS'.thisRepN'
p730
I5
sg20
S'Y'
sg31
g32
sS'.thisTrialN'
p731
I3
sS'.thisN'
p732
I78
sS'.thisIndex'
p733
I9
sg15
(lp734
S'k'
asg30
VF
sg17
S'Y'
sg14
I2
sg19
(lp735
S'space'
p736
asg94
I9
sa(dp737
g16
(lp738
S'd'
asg18
S'N'
sS'.thisRepN'
p739
I5
sg20
S'N'
sg31
g32
sS'.thisTrialN'
p740
I4
sS'.thisN'
p741
I79
sS'.thisIndex'
p742
I1
sg15
(lp743
S'k'
asg30
VF
sg17
S'N'
sg14
I2
sg19
(lp744
S'space'
p745
asg94
I1
sa(dp746
g16
(lp747
S'k'
asg18
S'N'
sS'.thisRepN'
p748
I5
sg20
S'N'
sg31
g32
sS'.thisTrialN'
p749
I5
sS'.thisN'
p750
I80
sS'.thisIndex'
p751
I10
sg15
(lp752
S'k'
asg30
VF
sg17
S'Y'
sg14
I2
sg19
(lp753
S'space'
p754
asg94
I10
sa(dp755
g16
(lp756
S'k'
asg18
S'Y'
sS'.thisRepN'
p757
I5
sg20
S'N'
sg31
g32
sS'.thisTrialN'
p758
I6
sS'.thisN'
p759
I81
sS'.thisIndex'
p760
I10
sg15
(lp761
S'd'
asg30
VF
sg17
S'N'
sg14
I2
sg19
(lp762
S'k'
asg94
I10
sa(dp763
g16
(lp764
S'd'
asg18
S'Y'
sS'.thisRepN'
p765
I5
sg20
S'Y'
sg31
g32
sS'.thisTrialN'
p766
I7
sS'.thisN'
p767
I82
sS'.thisIndex'
p768
I2
sg15
(lp769
S'k'
asg30
VF
sg17
S'N'
sg14
I2
sg19
(lp770
S'space'
p771
asg94
I2
sa(dp772
g16
(lp773
S'd'
asg18
S'Y'
sS'.thisRepN'
p774
I5
sg20
S'N'
sg31
g32
sS'.thisTrialN'
p775
I8
sS'.thisN'
p776
I83
sS'.thisIndex'
p777
I6
sg15
(lp778
S'k'
asg30
VF
sg17
S'N'
sg14
I2
sg19
Nsg94
I6
sa(dp779
g16
(lp780
S'd'
asg18
S'Y'
sS'.thisRepN'
p781
I5
sg20
S'Y'
sg31
g32
sS'.thisTrialN'
p782
I9
sS'.thisN'
p783
I84
sS'.thisIndex'
p784
I6
sg15
(lp785
S'd'
asg30
VF
sg17
S'Y'
sg14
I2
sg19
(lp786
S'space'
p787
asg94
I6
sa(dp788
g16
(lp789
S'd'
asg18
S'N'
sS'.thisRepN'
p790
I5
sg20
S'Y'
sg31
g32
sS'.thisTrialN'
p791
I10
sS'.thisN'
p792
I85
sS'.thisIndex'
p793
I8
sg15
(lp794
S'k'
asg30
VF
sg17
S'N'
sg14
I2
sg19
Nsg94
I8
sa(dp795
g16
(lp796
S'd'
asg18
S'N'
sS'.thisRepN'
p797
I5
sg20
S'Y'
sg31
g32
sS'.thisTrialN'
p798
I11
sS'.thisN'
p799
I86
sS'.thisIndex'
p800
I11
sg15
(lp801
S'd'
asg30
VF
sg17
S'Y'
sg14
I2
sg19
Nsg94
I11
sa(dp802
g16
(lp803
S'k'
asg18
S'N'
sS'.thisRepN'
p804
I5
sg20
S'Y'
sg31
g32
sS'.thisTrialN'
p805
I12
sS'.thisN'
p806
I87
sS'.thisIndex'
p807
I9
sg15
(lp808
S'k'
asg30
VF
sg17
S'Y'
sg14
I2
sg19
Nsg94
I9
sa(dp809
g16
(lp810
S'd'
asg18
S'Y'
sS'.thisRepN'
p811
I5
sg20
S'Y'
sg31
g32
sS'.thisTrialN'
p812
I13
sS'.thisN'
p813
I88
sS'.thisIndex'
p814
I4
sg15
(lp815
S'k'
asg30
VF
sg17
S'N'
sg14
I2
sg19
(lp816
S'space'
p817
asg94
I4
sa(dp818
g16
(lp819
S'd'
asg18
S'N'
sS'.thisRepN'
p820
I5
sg20
S'Y'
sg31
g32
sS'.thisTrialN'
p821
I14
sS'.thisN'
p822
I89
sS'.thisIndex'
p823
I4
sg15
(lp824
S'k'
asg30
VF
sg17
S'N'
sg14
I2
sg19
Nsg94
I4
sa(dp825
g16
(lp826
S'd'
asg18
S'Y'
sS'.thisRepN'
p827
I6
sg20
S'Y'
sg31
g32
sS'.thisTrialN'
p828
I0
sS'.thisN'
p829
I90
sS'.thisIndex'
p830
I0
sg15
(lp831
S'd'
asg30
VF
sg17
S'Y'
sg14
I2
sg19
(lp832
S'space'
p833
asg94
I0
sa(dp834
g16
(lp835
S'k'
asg18
S'N'
sS'.thisRepN'
p836
I6
sg20
S'Y'
sg31
g32
sS'.thisTrialN'
p837
I1
sS'.thisN'
p838
I91
sS'.thisIndex'
p839
I5
sg15
(lp840
S'd'
asg30
VF
sg17
S'N'
sg14
I2
sg19
Nsg94
I5
sa(dp841
g16
(lp842
S'd'
asg18
S'N'
sS'.thisRepN'
p843
I6
sg20
S'N'
sg31
g32
sS'.thisTrialN'
p844
I2
sS'.thisN'
p845
I92
sS'.thisIndex'
p846
I8
sg15
(lp847
S'k'
asg30
VF
sg17
S'N'
sg14
I2
sg19
(lp848
S'space'
p849
asg94
I8
sa(dp850
g16
(lp851
S'k'
asg18
S'N'
sS'.thisRepN'
p852
I6
sg20
S'N'
sg31
g32
sS'.thisTrialN'
p853
I3
sS'.thisN'
p854
I93
sS'.thisIndex'
p855
I13
sg15
(lp856
S'd'
asg30
VF
sg17
S'N'
sg14
I2
sg19
(lp857
S'space'
p858
asg94
I13
sa(dp859
g16
(lp860
S'd'
asg18
S'Y'
sS'.thisRepN'
p861
I6
sg20
S'Y'
sg31
g32
sS'.thisTrialN'
p862
I4
sS'.thisN'
p863
I94
sS'.thisIndex'
p864
I10
sg15
(lp865
S'k'
asg30
VF
sg17
S'N'
sg14
I2
sg19
(lp866
S'space'
p867
asg94
I10
sa(dp868
g16
(lp869
S'd'
asg18
S'Y'
sS'.thisRepN'
p870
I6
sg20
S'Y'
sg31
g32
sS'.thisTrialN'
p871
I5
sS'.thisN'
p872
I95
sS'.thisIndex'
p873
I8
sg15
(lp874
S'd'
asg30
VF
sg17
S'Y'
sg14
I2
sg19
(lp875
S'space'
p876
asg94
I8
sa(dp877
g16
(lp878
S'k'
asg18
S'Y'
sS'.thisRepN'
p879
I6
sg20
S'Y'
sg31
g32
sS'.thisTrialN'
p880
I6
sS'.thisN'
p881
I96
sS'.thisIndex'
p882
I5
sg15
(lp883
S'k'
asg30
VF
sg17
S'Y'
sg14
I2
sg19
(lp884
S'space'
p885
asg94
I5
sa(dp886
g16
(lp887
S'k'
asg18
S'Y'
sS'.thisRepN'
p888
I6
sg20
S'Y'
sg31
g32
sS'.thisTrialN'
p889
I7
sS'.thisN'
p890
I97
sS'.thisIndex'
p891
I4
sg15
(lp892
S'k'
asg30
VF
sg17
S'Y'
sg14
I2
sg19
(lp893
S'space'
p894
asg94
I4
sa(dp895
g16
(lp896
S'k'
asg18
S'Y'
sS'.thisRepN'
p897
I6
sg20
S'Y'
sg31
g32
sS'.thisTrialN'
p898
I8
sS'.thisN'
p899
I98
sS'.thisIndex'
p900
I14
sg15
(lp901
S'k'
asg30
VF
sg17
S'Y'
sg14
I2
sg19
(lp902
S'space'
p903
asg94
I14
sa(dp904
g16
(lp905
S'd'
asg18
S'N'
sg22
I29
sS'.thisN'
p906
I99
sg20
S'Y'
sg31
g32
sS'.thisTrialN'
p907
I9
sS'.thisRepN'
p908
I6
sg21
I20
sS'.thisIndex'
p909
I2
sg23
I24
sg15
(lp910
S'd'
asg30
VF
sg17
S'Y'
sg14
I2
sg19
Nsg94
I2
sa(dp911
g16
(lp912
S'k'
asg94
I0
sS'.thisRepN'
p913
I6
sg30
VF
sg31
g32
sS'.thisTrialN'
p914
I10
sS'.thisN'
p915
I100
sS'.thisIndex'
p916
I0
sg15
(lp917
S'k'
asg17
S'Y'
sg14
I3
sa(dp918
g16
(lp919
S'k'
asg94
I9
sS'.thisRepN'
p920
I6
sg30
VF
sg31
g32
sS'.thisTrialN'
p921
I11
sS'.thisN'
p922
I101
sS'.thisIndex'
p923
I9
sg15
(lp924
S'k'
asg17
S'Y'
sg14
I3
sa(dp925
g16
(lp926
S'd'
asg18
S'Y'
sS'.thisRepN'
p927
I6
sg20
S'Y'
sg31
g32
sS'.thisTrialN'
p928
I12
sS'.thisN'
p929
I102
sS'.thisIndex'
p930
I13
sg15
(lp931
S'k'
asg30
VF
sg17
S'N'
sg14
I3
sg19
(lp932
S'space'
p933
asg94
I13
sa(dp934
g16
(lp935
S'k'
asg18
S'N'
sS'.thisRepN'
p936
I6
sg20
S'Y'
sg31
g32
sS'.thisTrialN'
p937
I13
sS'.thisN'
p938
I103
sS'.thisIndex'
p939
I4
sg15
(lp940
S'd'
asg30
VF
sg17
S'N'
sg14
I3
sg19
Nsg94
I4
sa(dp941
g16
(lp942
S'd'
asg18
S'Y'
sS'.thisRepN'
p943
I6
sg20
S'Y'
sg31
g32
sS'.thisTrialN'
p944
I14
sS'.thisN'
p945
I104
sS'.thisIndex'
p946
I9
sg15
(lp947
S'k'
asg30
VF
sg17
S'N'
sg14
I3
sg19
(lp948
S'space'
p949
asg94
I9
sa(dp950
g16
(lp951
S'd'
asg18
S'Y'
sS'.thisRepN'
p952
I7
sg20
S'Y'
sg31
g32
sS'.thisTrialN'
p953
I0
sS'.thisN'
p954
I105
sS'.thisIndex'
p955
I1
sg15
(lp956
S'k'
asg30
VF
sg17
S'N'
sg14
I3
sg19
(lp957
S'space'
p958
asg94
I1
sa(dp959
g16
(lp960
S'k'
asg18
S'Y'
sS'.thisRepN'
p961
I7
sg20
S'N'
sg31
g32
sS'.thisTrialN'
p962
I1
sS'.thisN'
p963
I106
sS'.thisIndex'
p964
I9
sg15
(lp965
S'd'
asg30
VF
sg17
S'N'
sg14
I3
sg19
Nsg94
I9
sa(dp966
g16
(lp967
S'd'
asg18
S'Y'
sS'.thisRepN'
p968
I7
sg20
S'Y'
sg31
g32
sS'.thisTrialN'
p969
I2
sS'.thisN'
p970
I107
sS'.thisIndex'
p971
I0
sg15
(lp972
S'k'
asg30
VF
sg17
S'N'
sg14
I3
sg19
(lp973
S'space'
p974
asg94
I0
sa(dp975
g16
(lp976
S'k'
asg18
S'N'
sS'.thisRepN'
p977
I7
sg20
S'N'
sg31
g32
sS'.thisTrialN'
p978
I3
sS'.thisN'
p979
I108
sS'.thisIndex'
p980
I9
sg15
(lp981
S'k'
asg30
VF
sg17
S'Y'
sg14
I3
sg19
(lp982
S'space'
p983
asg94
I9
sa(dp984
g16
(lp985
S'd'
asg18
S'Y'
sS'.thisRepN'
p986
I7
sg20
S'Y'
sg31
g32
sS'.thisTrialN'
p987
I4
sS'.thisN'
p988
I109
sS'.thisIndex'
p989
I7
sg15
(lp990
S'k'
asg30
VF
sg17
S'N'
sg14
I3
sg19
(lp991
S'space'
p992
asg94
I7
sa(dp993
g16
(lp994
S'd'
asg18
S'Y'
sS'.thisRepN'
p995
I7
sg20
S'N'
sg31
g32
sS'.thisTrialN'
p996
I5
sS'.thisN'
p997
I110
sS'.thisIndex'
p998
I2
sg15
(lp999
S'k'
asg30
VF
sg17
S'N'
sg14
I3
sg19
Nsg94
I2
sa(dp1000
g16
(lp1001
S'k'
asg18
S'Y'
sS'.thisRepN'
p1002
I7
sg20
S'Y'
sg31
g32
sS'.thisTrialN'
p1003
I6
sS'.thisN'
p1004
I111
sS'.thisIndex'
p1005
I12
sg15
(lp1006
S'd'
asg30
VF
sg17
S'N'
sg14
I3
sg19
(lp1007
S'space'
p1008
asg94
I12
sa(dp1009
g16
(lp1010
S'k'
asg18
S'Y'
sS'.thisRepN'
p1011
I7
sg20
S'N'
sg31
g32
sS'.thisTrialN'
p1012
I7
sS'.thisN'
p1013
I112
sS'.thisIndex'
p1014
I10
sg15
(lp1015
S'k'
asg30
VF
sg17
S'Y'
sg14
I3
sg19
Nsg94
I10
sa(dp1016
g16
(lp1017
S'd'
asg18
S'N'
sS'.thisRepN'
p1018
I7
sg20
S'N'
sg31
g32
sS'.thisTrialN'
p1019
I8
sS'.thisN'
p1020
I113
sS'.thisIndex'
p1021
I8
sg15
(lp1022
S'k'
asg30
VF
sg17
S'N'
sg14
I3
sg19
(lp1023
S'space'
p1024
asg94
I8
sa(dp1025
g16
(lp1026
S'd'
asg18
S'N'
sS'.thisRepN'
p1027
I7
sg20
S'N'
sg31
g32
sS'.thisTrialN'
p1028
I9
sS'.thisN'
p1029
I114
sS'.thisIndex'
p1030
I5
sg15
(lp1031
S'k'
asg30
VF
sg17
S'N'
sg14
I3
sg19
(lp1032
S'd'
asg94
I5
sa(dp1033
g16
(lp1034
S'd'
asg18
S'N'
sS'.thisRepN'
p1035
I7
sg20
S'Y'
sg31
g32
sS'.thisTrialN'
p1036
I10
sS'.thisN'
p1037
I115
sS'.thisIndex'
p1038
I2
sg15
(lp1039
S'd'
asg30
VF
sg17
S'Y'
sg14
I3
sg19
Nsg94
I2
sa(dp1040
g16
(lp1041
S'k'
asg18
S'Y'
sS'.thisRepN'
p1042
I7
sg20
S'N'
sg31
g32
sS'.thisTrialN'
p1043
I11
sS'.thisN'
p1044
I116
sS'.thisIndex'
p1045
I8
sg15
(lp1046
S'k'
asg30
VF
sg17
S'Y'
sg14
I3
sg19
Nsg94
I8
sa(dp1047
g16
(lp1048
S'd'
asg18
S'Y'
sS'.thisRepN'
p1049
I7
sg20
S'Y'
sg31
g32
sS'.thisTrialN'
p1050
I12
sS'.thisN'
p1051
I117
sS'.thisIndex'
p1052
I1
sg15
(lp1053
S'k'
asg30
VF
sg17
S'N'
sg14
I3
sg19
(lp1054
S'space'
p1055
asg94
I1
sa(dp1056
g16
(lp1057
S'k'
asg18
S'N'
sS'.thisRepN'
p1058
I7
sg20
S'Y'
sg31
g32
sS'.thisTrialN'
p1059
I13
sS'.thisN'
p1060
I118
sS'.thisIndex'
p1061
I13
sg15
(lp1062
S'd'
asg30
VF
sg17
S'N'
sg14
I3
sg19
Nsg94
I13
sa(dp1063
g16
(lp1064
S'k'
asg18
S'N'
sS'.thisRepN'
p1065
I7
sg20
S'N'
sg31
g32
sS'.thisTrialN'
p1066
I14
sS'.thisN'
p1067
I119
sS'.thisIndex'
p1068
I5
sg15
(lp1069
S'k'
asg30
VF
sg17
S'Y'
sg14
I3
sg19
(lp1070
S'space'
p1071
asg94
I5
sa(dp1072
g16
(lp1073
S'k'
asg18
S'N'
sS'.thisRepN'
p1074
I8
sg20
S'N'
sg31
g32
sS'.thisTrialN'
p1075
I0
sS'.thisN'
p1076
I120
sS'.thisIndex'
p1077
I8
sg15
(lp1078
S'k'
asg30
VF
sg17
S'Y'
sg14
I3
sg19
(lp1079
S'd'
asg94
I8
sa(dp1080
g16
(lp1081
S'k'
asg18
S'Y'
sS'.thisRepN'
p1082
I8
sg20
S'Y'
sg31
g32
sS'.thisTrialN'
p1083
I1
sS'.thisN'
p1084
I121
sS'.thisIndex'
p1085
I4
sg15
(lp1086
S'k'
asg30
VF
sg17
S'Y'
sg14
I3
sg19
(lp1087
S'space'
p1088
asg94
I4
sa(dp1089
g16
(lp1090
S'd'
asg18
S'Y'
sS'.thisRepN'
p1091
I8
sg20
S'Y'
sg31
g32
sS'.thisTrialN'
p1092
I2
sS'.thisN'
p1093
I122
sS'.thisIndex'
p1094
I7
sg15
(lp1095
S'k'
asg30
VF
sg17
S'N'
sg14
I3
sg19
(lp1096
S'space'
p1097
asg94
I7
sa(dp1098
g16
(lp1099
S'd'
asg18
S'N'
sS'.thisRepN'
p1100
I8
sg20
S'N'
sg31
g32
sS'.thisTrialN'
p1101
I3
sS'.thisN'
p1102
I123
sS'.thisIndex'
p1103
I9
sg15
(lp1104
S'k'
asg30
VF
sg17
S'N'
sg14
I3
sg19
(lp1105
S'd'
asg94
I9
sa(dp1106
g16
(lp1107
S'd'
asg18
S'Y'
sS'.thisRepN'
p1108
I8
sg20
S'Y'
sg31
g32
sS'.thisTrialN'
p1109
I4
sS'.thisN'
p1110
I124
sS'.thisIndex'
p1111
I0
sg15
(lp1112
S'd'
asg30
VF
sg17
S'Y'
sg14
I3
sg19
(lp1113
S'space'
p1114
asg94
I0
sa(dp1115
g16
(lp1116
S'd'
asg18
S'Y'
sS'.thisRepN'
p1117
I8
sg20
S'Y'
sg31
g32
sS'.thisTrialN'
p1118
I5
sS'.thisN'
p1119
I125
sS'.thisIndex'
p1120
I10
sg15
(lp1121
S'k'
asg30
VF
sg17
S'N'
sg14
I3
sg19
(lp1122
S'space'
p1123
asg94
I10
sa(dp1124
g16
(lp1125
S'd'
asg18
S'Y'
sS'.thisRepN'
p1126
I8
sg20
S'Y'
sg31
g32
sS'.thisTrialN'
p1127
I6
sS'.thisN'
p1128
I126
sS'.thisIndex'
p1129
I11
sg15
(lp1130
S'd'
asg30
VF
sg17
S'Y'
sg14
I3
sg19
(lp1131
S'space'
p1132
asg94
I11
sa(dp1133
g16
(lp1134
S'k'
asg18
S'N'
sS'.thisRepN'
p1135
I8
sg20
S'Y'
sg31
g32
sS'.thisTrialN'
p1136
I7
sS'.thisN'
p1137
I127
sS'.thisIndex'
p1138
I14
sg15
(lp1139
S'k'
asg30
VF
sg17
S'Y'
sg14
I3
sg19
Nsg94
I14
sa(dp1140
g16
(lp1141
S'd'
asg18
S'Y'
sS'.thisRepN'
p1142
I8
sg20
S'Y'
sg31
g32
sS'.thisTrialN'
p1143
I8
sS'.thisN'
p1144
I128
sS'.thisIndex'
p1145
I14
sg15
(lp1146
S'k'
asg30
VF
sg17
S'N'
sg14
I3
sg19
(lp1147
S'space'
p1148
asg94
I14
sa(dp1149
g16
(lp1150
S'd'
asg18
S'N'
sS'.thisRepN'
p1151
I8
sg20
S'N'
sg31
g32
sS'.thisTrialN'
p1152
I9
sS'.thisN'
p1153
I129
sS'.thisIndex'
p1154
I14
sg15
(lp1155
S'k'
asg30
VF
sg17
S'N'
sg14
I3
sg19
(lp1156
S'space'
p1157
asg94
I14
sa(dp1158
g16
(lp1159
S'd'
asg18
S'N'
sS'.thisRepN'
p1160
I8
sg20
S'Y'
sg31
g32
sS'.thisTrialN'
p1161
I10
sS'.thisN'
p1162
I130
sS'.thisIndex'
p1163
I2
sg15
(lp1164
S'd'
asg30
VF
sg17
S'Y'
sg14
I3
sg19
Nsg94
I2
sa(dp1165
g16
(lp1166
S'k'
asg18
S'N'
sS'.thisRepN'
p1167
I8
sg20
S'Y'
sg31
g32
sS'.thisTrialN'
p1168
I11
sS'.thisN'
p1169
I131
sS'.thisIndex'
p1170
I1
sg15
(lp1171
S'k'
asg30
VF
sg17
S'Y'
sg14
I3
sg19
Nsg94
I1
sa(dp1172
g16
(lp1173
S'd'
asg18
S'Y'
sS'.thisRepN'
p1174
I8
sg20
S'Y'
sg31
g32
sS'.thisTrialN'
p1175
I12
sS'.thisN'
p1176
I132
sS'.thisIndex'
p1177
I3
sg15
(lp1178
S'k'
asg30
VF
sg17
S'N'
sg14
I3
sg19
(lp1179
S'space'
p1180
asg94
I3
sa(dp1181
g16
(lp1182
S'k'
asg18
S'Y'
sS'.thisRepN'
p1183
I8
sg20
S'Y'
sg31
g32
sS'.thisTrialN'
p1184
I13
sS'.thisN'
p1185
I133
sS'.thisIndex'
p1186
I0
sg15
(lp1187
S'k'
asg30
VF
sg17
S'Y'
sg14
I3
sg19
(lp1188
S'space'
p1189
asg94
I0
sa(dp1190
g16
(lp1191
S'd'
asg18
S'N'
sS'.thisRepN'
p1192
I8
sg20
S'N'
sg31
g32
sS'.thisTrialN'
p1193
I14
sS'.thisN'
p1194
I134
sS'.thisIndex'
p1195
I13
sg15
(lp1196
S'k'
asg30
VF
sg17
S'N'
sg14
I3
sg19
(lp1197
S'space'
p1198
asg94
I13
sa(dp1199
g16
(lp1200
S'k'
asg18
S'N'
sS'.thisRepN'
p1201
I9
sg20
S'N'
sg31
g32
sS'.thisTrialN'
p1202
I0
sS'.thisN'
p1203
I135
sS'.thisIndex'
p1204
I14
sg15
(lp1205
S'k'
asg30
VF
sg17
S'Y'
sg14
I3
sg19
(lp1206
S'd'
asg94
I14
sa(dp1207
g16
(lp1208
S'd'
asg18
S'N'
sS'.thisRepN'
p1209
I9
sg20
S'Y'
sg31
g32
sS'.thisTrialN'
p1210
I1
sS'.thisN'
p1211
I136
sS'.thisIndex'
p1212
I1
sg15
(lp1213
S'k'
asg30
VF
sg17
S'N'
sg14
I3
sg19
Nsg94
I1
sa(dp1214
g16
(lp1215
S'd'
asg18
S'Y'
sS'.thisRepN'
p1216
I9
sg20
S'N'
sg31
g32
sS'.thisTrialN'
p1217
I2
sS'.thisN'
p1218
I137
sS'.thisIndex'
p1219
I7
sg15
(lp1220
S'k'
asg30
VF
sg17
S'N'
sg14
I3
sg19
(lp1221
S'd'
asg94
I7
sa(dp1222
g16
(lp1223
S'd'
asg18
S'Y'
sS'.thisRepN'
p1224
I9
sg20
S'Y'
sg31
g32
sS'.thisTrialN'
p1225
I3
sS'.thisN'
p1226
I138
sS'.thisIndex'
p1227
I11
sg15
(lp1228
S'd'
asg30
VF
sg17
S'Y'
sg14
I3
sg19
(lp1229
S'space'
p1230
asg94
I11
sa(dp1231
g16
(lp1232
S'k'
asg18
S'N'
sS'.thisRepN'
p1233
I9
sg20
S'N'
sg31
g32
sS'.thisTrialN'
p1234
I4
sS'.thisN'
p1235
I139
sS'.thisIndex'
p1236
I9
sg15
(lp1237
S'k'
asg30
VF
sg17
S'Y'
sg14
I3
sg19
(lp1238
S'k'
asg94
I9
sa(dp1239
g16
(lp1240
S'k'
asg18
S'N'
sS'.thisRepN'
p1241
I9
sg20
S'N'
sg31
g32
sS'.thisTrialN'
p1242
I5
sS'.thisN'
p1243
I140
sS'.thisIndex'
p1244
I0
sg15
(lp1245
S'k'
asg30
VF
sg17
S'Y'
sg14
I3
sg19
(lp1246
S'space'
p1247
asg94
I0
sa(dp1248
g16
(lp1249
S'd'
asg18
S'Y'
sS'.thisRepN'
p1250
I9
sg20
S'N'
sg31
g32
sS'.thisTrialN'
p1251
I6
sS'.thisN'
p1252
I141
sS'.thisIndex'
p1253
I8
sg15
(lp1254
S'k'
asg30
VF
sg17
S'N'
sg14
I3
sg19
Nsg94
I8
sa(dp1255
g16
(lp1256
S'd'
asg18
S'N'
sS'.thisRepN'
p1257
I9
sg20
S'N'
sg31
g32
sS'.thisTrialN'
p1258
I7
sS'.thisN'
p1259
I142
sS'.thisIndex'
p1260
I14
sg15
(lp1261
S'k'
asg30
VF
sg17
S'N'
sg14
I3
sg19
(lp1262
S'space'
p1263
asg94
I14
sa(dp1264
g16
(lp1265
S'k'
asg18
S'Y'
sS'.thisRepN'
p1266
I9
sg20
S'Y'
sg31
g32
sS'.thisTrialN'
p1267
I8
sS'.thisN'
p1268
I143
sS'.thisIndex'
p1269
I13
sg15
(lp1270
S'k'
asg30
VF
sg17
S'Y'
sg14
I3
sg19
(lp1271
S'space'
p1272
asg94
I13
sa(dp1273
g16
(lp1274
S'k'
asg18
S'N'
sS'.thisRepN'
p1275
I9
sg20
S'Y'
sg31
g32
sS'.thisTrialN'
p1276
I9
sS'.thisN'
p1277
I144
sS'.thisIndex'
p1278
I7
sg15
(lp1279
S'k'
asg30
VF
sg17
S'Y'
sg14
I3
sg19
Nsg94
I7
sa(dp1280
g16
(lp1281
S'k'
asg18
S'Y'
sS'.thisRepN'
p1282
I9
sg20
S'Y'
sg31
g32
sS'.thisTrialN'
p1283
I10
sS'.thisN'
p1284
I145
sS'.thisIndex'
p1285
I1
sg15
(lp1286
S'd'
asg30
VF
sg17
S'N'
sg14
I3
sg19
(lp1287
S'space'
p1288
asg94
I1
sa(dp1289
g16
(lp1290
S'k'
asg18
S'N'
sS'.thisRepN'
p1291
I9
sg20
S'Y'
sg31
g32
sS'.thisTrialN'
p1292
I11
sS'.thisN'
p1293
I146
sS'.thisIndex'
p1294
I0
sg15
(lp1295
S'k'
asg30
VF
sg17
S'Y'
sg14
I3
sg19
Nsg94
I0
sa(dp1296
g16
(lp1297
S'k'
asg18
S'Y'
sS'.thisRepN'
p1298
I9
sg20
S'Y'
sg31
g32
sS'.thisTrialN'
p1299
I12
sS'.thisN'
p1300
I147
sS'.thisIndex'
p1301
I14
sg15
(lp1302
S'k'
asg30
VF
sg17
S'Y'
sg14
I3
sg19
(lp1303
S'space'
p1304
asg94
I14
sa(dp1305
g16
(lp1306
S'd'
asg18
S'N'
sS'.thisRepN'
p1307
I9
sg20
S'Y'
sg31
g32
sS'.thisTrialN'
p1308
I13
sS'.thisN'
p1309
I148
sS'.thisIndex'
p1310
I6
sg15
(lp1311
S'k'
asg30
VF
sg17
S'N'
sg14
I3
sg19
Nsg94
I6
sa(dp1312
g16
(lp1313
S'd'
asg18
S'N'
sg22
I29
sS'.thisN'
p1314
I149
sg20
S'N'
sg31
g32
sS'.thisTrialN'
p1315
I14
sS'.thisRepN'
p1316
I9
sg21
I23
sS'.thisIndex'
p1317
I13
sg23
I25
sg15
(lp1318
S'k'
asg30
VF
sg17
S'N'
sg14
I3
sg19
(lp1319
S'space'
p1320
asg94
I13
sa(dp1321
g16
(lp1322
S'k'
asg94
I11
sS'.thisRepN'
p1323
I10
sg30
VF
sg31
g32
sS'.thisTrialN'
p1324
I0
sS'.thisN'
p1325
I150
sS'.thisIndex'
p1326
I11
sg15
(lp1327
S'k'
asg17
S'Y'
sg14
I4
sa(dp1328
g16
(lp1329
S'd'
asg94
I2
sS'.thisRepN'
p1330
I10
sg30
VF
sg31
g32
sS'.thisTrialN'
p1331
I1
sS'.thisN'
p1332
I151
sS'.thisIndex'
p1333
I2
sg15
(lp1334
S'd'
asg17
S'Y'
sg14
I4
sa(dp1335
g16
(lp1336
S'd'
asg18
S'Y'
sS'.thisRepN'
p1337
I10
sg20
S'Y'
sg31
g32
sS'.thisTrialN'
p1338
I2
sS'.thisN'
p1339
I152
sS'.thisIndex'
p1340
I14
sg15
(lp1341
S'k'
asg30
VF
sg17
S'N'
sg14
I4
sg19
(lp1342
S'space'
p1343
asg94
I14
sa(dp1344
g16
(lp1345
S'k'
asg18
S'N'
sS'.thisRepN'
p1346
I10
sg20
S'Y'
sg31
g32
sS'.thisTrialN'
p1347
I3
sS'.thisN'
p1348
I153
sS'.thisIndex'
p1349
I10
sg15
(lp1350
S'k'
asg30
VF
sg17
S'Y'
sg14
I4
sg19
Nsg94
I10
sa(dp1351
g16
(lp1352
S'd'
asg18
S'N'
sS'.thisRepN'
p1353
I10
sg20
S'Y'
sg31
g32
sS'.thisTrialN'
p1354
I4
sS'.thisN'
p1355
I154
sS'.thisIndex'
p1356
I1
sg15
(lp1357
S'k'
asg30
VF
sg17
S'N'
sg14
I4
sg19
Nsg94
I1
sa(dp1358
g16
(lp1359
S'd'
asg18
S'Y'
sS'.thisRepN'
p1360
I10
sg20
S'Y'
sg31
g32
sS'.thisTrialN'
p1361
I5
sS'.thisN'
p1362
I155
sS'.thisIndex'
p1363
I11
sg15
(lp1364
S'd'
asg30
VF
sg17
S'Y'
sg14
I4
sg19
(lp1365
S'space'
p1366
asg94
I11
sa(dp1367
g16
(lp1368
S'd'
asg18
S'Y'
sS'.thisRepN'
p1369
I10
sg20
S'N'
sg31
g32
sS'.thisTrialN'
p1370
I6
sS'.thisN'
p1371
I156
sS'.thisIndex'
p1372
I14
sg15
(lp1373
S'k'
asg30
VF
sg17
S'N'
sg14
I4
sg19
Nsg94
I14
sa(dp1374
g16
(lp1375
S'd'
asg18
S'Y'
sS'.thisRepN'
p1376
I10
sg20
S'Y'
sg31
g32
sS'.thisTrialN'
p1377
I7
sS'.thisN'
p1378
I157
sS'.thisIndex'
p1379
I12
sg15
(lp1380
S'k'
asg30
VF
sg17
S'N'
sg14
I4
sg19
(lp1381
S'space'
p1382
asg94
I12
sa(dp1383
g16
(lp1384
S'd'
asg18
S'N'
sS'.thisRepN'
p1385
I10
sg20
S'Y'
sg31
g32
sS'.thisTrialN'
p1386
I8
sS'.thisN'
p1387
I158
sS'.thisIndex'
p1388
I4
sg15
(lp1389
S'k'
asg30
VF
sg17
S'N'
sg14
I4
sg19
Nsg94
I4
sa(dp1390
g16
(lp1391
S'd'
asg18
S'Y'
sS'.thisRepN'
p1392
I10
sg20
S'Y'
sg31
g32
sS'.thisTrialN'
p1393
I9
sS'.thisN'
p1394
I159
sS'.thisIndex'
p1395
I12
sg15
(lp1396
S'd'
asg30
VF
sg17
S'Y'
sg14
I4
sg19
(lp1397
S'space'
p1398
asg94
I12
sa(dp1399
g16
(lp1400
S'd'
asg18
S'N'
sS'.thisRepN'
p1401
I10
sg20
S'Y'
sg31
g32
sS'.thisTrialN'
p1402
I10
sS'.thisN'
p1403
I160
sS'.thisIndex'
p1404
I7
sg15
(lp1405
S'k'
asg30
VF
sg17
S'N'
sg14
I4
sg19
Nsg94
I7
sa(dp1406
g16
(lp1407
S'k'
asg18
S'Y'
sS'.thisRepN'
p1408
I10
sg20
S'Y'
sg31
g32
sS'.thisTrialN'
p1409
I11
sS'.thisN'
p1410
I161
sS'.thisIndex'
p1411
I2
sg15
(lp1412
S'k'
asg30
VF
sg17
S'Y'
sg14
I4
sg19
(lp1413
S'space'
p1414
asg94
I2
sa(dp1415
g16
(lp1416
S'k'
asg18
S'Y'
sS'.thisRepN'
p1417
I10
sg20
S'Y'
sg31
g32
sS'.thisTrialN'
p1418
I12
sS'.thisN'
p1419
I162
sS'.thisIndex'
p1420
I11
sg15
(lp1421
S'k'
asg30
VF
sg17
S'Y'
sg14
I4
sg19
(lp1422
S'space'
p1423
asg94
I11
sa(dp1424
g16
(lp1425
S'k'
asg18
S'N'
sS'.thisRepN'
p1426
I10
sg20
S'Y'
sg31
g32
sS'.thisTrialN'
p1427
I13
sS'.thisN'
p1428
I163
sS'.thisIndex'
p1429
I13
sg15
(lp1430
S'd'
asg30
VF
sg17
S'N'
sg14
I4
sg19
Nsg94
I13
sa(dp1431
g16
(lp1432
S'k'
asg18
S'N'
sS'.thisRepN'
p1433
I10
sg20
S'N'
sg31
g32
sS'.thisTrialN'
p1434
I14
sS'.thisN'
p1435
I164
sS'.thisIndex'
p1436
I7
sg15
(lp1437
S'k'
asg30
VF
sg17
S'Y'
sg14
I4
sg19
(lp1438
S'space'
p1439
asg94
I7
sa(dp1440
g16
(lp1441
S'k'
asg18
S'N'
sS'.thisRepN'
p1442
I11
sg20
S'Y'
sg31
g32
sS'.thisTrialN'
p1443
I0
sS'.thisN'
p1444
I165
sS'.thisIndex'
p1445
I0
sg15
(lp1446
S'k'
asg30
VF
sg17
S'Y'
sg14
I4
sg19
Nsg94
I0
sa(dp1447
g16
(lp1448
S'd'
asg18
S'N'
sS'.thisRepN'
p1449
I11
sg20
S'N'
sg31
g32
sS'.thisTrialN'
p1450
I1
sS'.thisN'
p1451
I166
sS'.thisIndex'
p1452
I1
sg15
(lp1453
S'd'
asg30
VF
sg17
S'Y'
sg14
I4
sg19
(lp1454
S'space'
p1455
asg94
I1
sa(dp1456
g16
(lp1457
S'k'
asg18
S'Y'
sS'.thisRepN'
p1458
I11
sg20
S'N'
sg31
g32
sS'.thisTrialN'
p1459
I2
sS'.thisN'
p1460
I167
sS'.thisIndex'
p1461
I13
sg15
(lp1462
S'k'
asg30
VF
sg17
S'Y'
sg14
I4
sg19
Nsg94
I13
sa(dp1463
g16
(lp1464
S'd'
asg18
S'Y'
sS'.thisRepN'
p1465
I11
sg20
S'Y'
sg31
g32
sS'.thisTrialN'
p1466
I3
sS'.thisN'
p1467
I168
sS'.thisIndex'
p1468
I5
sg15
(lp1469
S'k'
asg30
VF
sg17
S'N'
sg14
I4
sg19
(lp1470
S'space'
p1471
asg94
I5
sa(dp1472
g16
(lp1473
S'd'
asg18
S'N'
sS'.thisRepN'
p1474
I11
sg20
S'N'
sg31
g32
sS'.thisTrialN'
p1475
I4
sS'.thisN'
p1476
I169
sS'.thisIndex'
p1477
I13
sg15
(lp1478
S'd'
asg30
VF
sg17
S'Y'
sg14
I4
sg19
(lp1479
S'space'
p1480
asg94
I13
sa(dp1481
g16
(lp1482
S'd'
asg18
S'Y'
sS'.thisRepN'
p1483
I11
sg20
S'N'
sg31
g32
sS'.thisTrialN'
p1484
I5
sS'.thisN'
p1485
I170
sS'.thisIndex'
p1486
I4
sg15
(lp1487
S'd'
asg30
VF
sg17
S'Y'
sg14
I4
sg19
(lp1488
S'k'
asg94
I4
sa(dp1489
g16
(lp1490
S'd'
asg18
S'Y'
sS'.thisRepN'
p1491
I11
sg20
S'Y'
sg31
g32
sS'.thisTrialN'
p1492
I6
sS'.thisN'
p1493
I171
sS'.thisIndex'
p1494
I13
sg15
(lp1495
S'd'
asg30
VF
sg17
S'Y'
sg14
I4
sg19
(lp1496
S'space'
p1497
asg94
I13
sa(dp1498
g16
(lp1499
S'k'
asg18
S'Y'
sS'.thisRepN'
p1500
I11
sg20
S'Y'
sg31
g32
sS'.thisTrialN'
p1501
I7
sS'.thisN'
p1502
I172
sS'.thisIndex'
p1503
I8
sg15
(lp1504
S'k'
asg30
VF
sg17
S'Y'
sg14
I4
sg19
(lp1505
S'space'
p1506
asg94
I8
sa(dp1507
g16
(lp1508
S'k'
asg18
S'N'
sS'.thisRepN'
p1509
I11
sg20
S'Y'
sg31
g32
sS'.thisTrialN'
p1510
I8
sS'.thisN'
p1511
I173
sS'.thisIndex'
p1512
I14
sg15
(lp1513
S'k'
asg30
VF
sg17
S'Y'
sg14
I4
sg19
Nsg94
I14
sa(dp1514
g16
(lp1515
S'd'
asg18
S'Y'
sS'.thisRepN'
p1516
I11
sg20
S'Y'
sg31
g32
sS'.thisTrialN'
p1517
I9
sS'.thisN'
p1518
I174
sS'.thisIndex'
p1519
I12
sg15
(lp1520
S'd'
asg30
VF
sg17
S'Y'
sg14
I4
sg19
(lp1521
S'space'
p1522
asg94
I12
sa(dp1523
g16
(lp1524
S'd'
asg18
S'N'
sS'.thisRepN'
p1525
I11
sg20
S'Y'
sg31
g32
sS'.thisTrialN'
p1526
I10
sS'.thisN'
p1527
I175
sS'.thisIndex'
p1528
I11
sg15
(lp1529
S'd'
asg30
VF
sg17
S'Y'
sg14
I4
sg19
Nsg94
I11
sa(dp1530
g16
(lp1531
S'd'
asg18
S'N'
sS'.thisRepN'
p1532
I11
sg20
S'Y'
sg31
g32
sS'.thisTrialN'
p1533
I11
sS'.thisN'
p1534
I176
sS'.thisIndex'
p1535
I1
sg15
(lp1536
S'd'
asg30
VF
sg17
S'Y'
sg14
I4
sg19
Nsg94
I1
sa(dp1537
g16
(lp1538
S'd'
asg18
S'N'
sS'.thisRepN'
p1539
I11
sg20
S'N'
sg31
g32
sS'.thisTrialN'
p1540
I12
sS'.thisN'
p1541
I177
sS'.thisIndex'
p1542
I1
sg15
(lp1543
S'd'
asg30
VF
sg17
S'Y'
sg14
I4
sg19
(lp1544
S'space'
p1545
asg94
I1
sa(dp1546
g16
(lp1547
S'd'
asg18
S'N'
sS'.thisRepN'
p1548
I11
sg20
S'Y'
sg31
g32
sS'.thisTrialN'
p1549
I13
sS'.thisN'
p1550
I178
sS'.thisIndex'
p1551
I10
sg15
(lp1552
S'd'
asg30
VF
sg17
S'Y'
sg14
I4
sg19
Nsg94
I10
sa(dp1553
g16
(lp1554
S'd'
asg18
S'N'
sS'.thisRepN'
p1555
I11
sg20
S'N'
sg31
g32
sS'.thisTrialN'
p1556
I14
sS'.thisN'
p1557
I179
sS'.thisIndex'
p1558
I13
sg15
(lp1559
S'd'
asg30
VF
sg17
S'Y'
sg14
I4
sg19
(lp1560
S'space'
p1561
asg94
I13
sa(dp1562
g16
(lp1563
S'k'
asg18
S'N'
sS'.thisRepN'
p1564
I12
sg20
S'N'
sg31
g32
sS'.thisTrialN'
p1565
I0
sS'.thisN'
p1566
I180
sS'.thisIndex'
p1567
I11
sg15
(lp1568
S'k'
asg30
VF
sg17
S'Y'
sg14
I4
sg19
(lp1569
S'space'
p1570
asg94
I11
sa(dp1571
g16
(lp1572
S'k'
asg18
S'Y'
sS'.thisRepN'
p1573
I12
sg20
S'Y'
sg31
g32
sS'.thisTrialN'
p1574
I1
sS'.thisN'
p1575
I181
sS'.thisIndex'
p1576
I8
sg15
(lp1577
S'k'
asg30
VF
sg17
S'Y'
sg14
I4
sg19
(lp1578
S'space'
p1579
asg94
I8
sa(dp1580
g16
(lp1581
S'd'
asg18
S'Y'
sS'.thisRepN'
p1582
I12
sg20
S'N'
sg31
g32
sS'.thisTrialN'
p1583
I2
sS'.thisN'
p1584
I182
sS'.thisIndex'
p1585
I14
sg15
(lp1586
S'd'
asg30
VF
sg17
S'Y'
sg14
I4
sg19
Nsg94
I14
sa(dp1587
g16
(lp1588
S'k'
asg18
S'N'
sS'.thisRepN'
p1589
I12
sg20
S'Y'
sg31
g32
sS'.thisTrialN'
p1590
I3
sS'.thisN'
p1591
I183
sS'.thisIndex'
p1592
I2
sg15
(lp1593
S'k'
asg30
VF
sg17
S'Y'
sg14
I4
sg19
Nsg94
I2
sa(dp1594
g16
(lp1595
S'k'
asg18
S'N'
sS'.thisRepN'
p1596
I12
sg20
S'N'
sg31
g32
sS'.thisTrialN'
p1597
I4
sS'.thisN'
p1598
I184
sS'.thisIndex'
p1599
I9
sg15
(lp1600
S'k'
asg30
VF
sg17
S'Y'
sg14
I4
sg19
(lp1601
S'space'
p1602
asg94
I9
sa(dp1603
g16
(lp1604
S'k'
asg18
S'N'
sS'.thisRepN'
p1605
I12
sg20
S'Y'
sg31
g32
sS'.thisTrialN'
p1606
I5
sS'.thisN'
p1607
I185
sS'.thisIndex'
p1608
I5
sg15
(lp1609
S'k'
asg30
VF
sg17
S'Y'
sg14
I4
sg19
Nsg94
I5
sa(dp1610
g16
(lp1611
S'd'
asg18
S'N'
sS'.thisRepN'
p1612
I12
sg20
S'N'
sg31
g32
sS'.thisTrialN'
p1613
I6
sS'.thisN'
p1614
I186
sS'.thisIndex'
p1615
I9
sg15
(lp1616
S'd'
asg30
VF
sg17
S'Y'
sg14
I4
sg19
(lp1617
S'space'
p1618
asg94
I9
sa(dp1619
g16
(lp1620
S'k'
asg18
S'N'
sS'.thisRepN'
p1621
I12
sg20
S'Y'
sg31
g32
sS'.thisTrialN'
p1622
I7
sS'.thisN'
p1623
I187
sS'.thisIndex'
p1624
I8
sg15
(lp1625
S'k'
asg30
VF
sg17
S'Y'
sg14
I4
sg19
Nsg94
I8
sa(dp1626
g16
(lp1627
S'd'
asg18
S'N'
sS'.thisRepN'
p1628
I12
sg20
S'Y'
sg31
g32
sS'.thisTrialN'
p1629
I8
sS'.thisN'
p1630
I188
sS'.thisIndex'
p1631
I3
sg15
(lp1632
S'd'
asg30
VF
sg17
S'Y'
sg14
I4
sg19
Nsg94
I3
sa(dp1633
g16
(lp1634
S'k'
asg18
S'N'
sS'.thisRepN'
p1635
I12
sg20
S'N'
sg31
g32
sS'.thisTrialN'
p1636
I9
sS'.thisN'
p1637
I189
sS'.thisIndex'
p1638
I13
sg15
(lp1639
S'k'
asg30
VF
sg17
S'Y'
sg14
I4
sg19
(lp1640
S'space'
p1641
asg94
I13
sa(dp1642
g16
(lp1643
S'd'
asg18
S'N'
sS'.thisRepN'
p1644
I12
sg20
S'Y'
sg31
g32
sS'.thisTrialN'
p1645
I10
sS'.thisN'
p1646
I190
sS'.thisIndex'
p1647
I4
sg15
(lp1648
S'd'
asg30
VF
sg17
S'Y'
sg14
I4
sg19
Nsg94
I4
sa(dp1649
g16
(lp1650
S'k'
asg18
S'Y'
sS'.thisRepN'
p1651
I12
sg20
S'Y'
sg31
g32
sS'.thisTrialN'
p1652
I11
sS'.thisN'
p1653
I191
sS'.thisIndex'
p1654
I0
sg15
(lp1655
S'k'
asg30
VF
sg17
S'Y'
sg14
I4
sg19
(lp1656
S'space'
p1657
asg94
I0
sa(dp1658
g16
(lp1659
S'd'
asg18
S'N'
sS'.thisRepN'
p1660
I12
sg20
S'Y'
sg31
g32
sS'.thisTrialN'
p1661
I12
sS'.thisN'
p1662
I192
sS'.thisIndex'
p1663
I13
sg15
(lp1664
S'k'
asg30
VF
sg17
S'N'
sg14
I4
sg19
Nsg94
I13
sa(dp1665
g16
(lp1666
S'd'
asg18
S'N'
sS'.thisRepN'
p1667
I12
sg20
S'Y'
sg31
g32
sS'.thisTrialN'
p1668
I13
sS'.thisN'
p1669
I193
sS'.thisIndex'
p1670
I2
sg15
(lp1671
S'd'
asg30
VF
sg17
S'Y'
sg14
I4
sg19
Nsg94
I2
sa(dp1672
g16
(lp1673
S'd'
asg18
S'N'
sS'.thisRepN'
p1674
I12
sg20
S'Y'
sg31
g32
sS'.thisTrialN'
p1675
I14
sS'.thisN'
p1676
I194
sS'.thisIndex'
p1677
I5
sg15
(lp1678
S'd'
asg30
VF
sg17
S'Y'
sg14
I4
sg19
Nsg94
I5
sa(dp1679
g16
(lp1680
S'd'
asg18
S'Y'
sS'.thisRepN'
p1681
I13
sg20
S'Y'
sg31
g32
sS'.thisTrialN'
p1682
I0
sS'.thisN'
p1683
I195
sS'.thisIndex'
p1684
I10
sg15
(lp1685
S'd'
asg30
VF
sg17
S'Y'
sg14
I4
sg19
(lp1686
S'space'
p1687
asg94
I10
sa(dp1688
g16
(lp1689
S'd'
asg18
S'Y'
sS'.thisRepN'
p1690
I13
sg20
S'Y'
sg31
g32
sS'.thisTrialN'
p1691
I1
sS'.thisN'
p1692
I196
sS'.thisIndex'
p1693
I10
sg15
(lp1694
S'k'
asg30
VF
sg17
S'N'
sg14
I4
sg19
(lp1695
S'space'
p1696
asg94
I10
sa(dp1697
g16
(lp1698
S'd'
asg18
S'Y'
sS'.thisRepN'
p1699
I13
sg20
S'Y'
sg31
g32
sS'.thisTrialN'
p1700
I2
sS'.thisN'
p1701
I197
sS'.thisIndex'
p1702
I2
sg15
(lp1703
S'd'
asg30
VF
sg17
S'Y'
sg14
I4
sg19
(lp1704
S'space'
p1705
asg94
I2
sa(dp1706
g16
(lp1707
S'd'
asg18
S'Y'
sS'.thisRepN'
p1708
I13
sg20
S'Y'
sg31
g32
sS'.thisTrialN'
p1709
I3
sS'.thisN'
p1710
I198
sS'.thisIndex'
p1711
I11
sg15
(lp1712
S'd'
asg30
VF
sg17
S'Y'
sg14
I4
sg19
(lp1713
S'space'
p1714
asg94
I11
sa(dp1715
g16
(lp1716
S'k'
asg18
S'N'
sg22
I35
sS'.thisN'
p1717
I199
sg20
S'Y'
sg31
g32
sS'.thisTrialN'
p1718
I4
sS'.thisRepN'
p1719
I13
sg21
I40
sS'.thisIndex'
p1720
I6
sg23
I20
sg15
(lp1721
S'k'
asg30
VF
sg17
S'Y'
sg14
I4
sg19
Nsg94
I6
sa(dp1722
g16
(lp1723
S'd'
asg94
I10
sS'.thisRepN'
p1724
I13
sg30
VF
sg31
g32
sS'.thisTrialN'
p1725
I5
sS'.thisN'
p1726
I200
sS'.thisIndex'
p1727
I10
sg15
(lp1728
S'd'
asg17
S'Y'
sg14
I5
sa(dp1729
g16
(lp1730
S'k'
asg94
I8
sS'.thisRepN'
p1731
I13
sg30
VF
sg31
g32
sS'.thisTrialN'
p1732
I6
sS'.thisN'
p1733
I201
sS'.thisIndex'
p1734
I8
sg15
(lp1735
S'k'
asg17
S'Y'
sg14
I5
sa(dp1736
g16
(lp1737
S'k'
asg18
S'N'
sS'.thisRepN'
p1738
I13
sg20
S'Y'
sg31
g32
sS'.thisTrialN'
p1739
I7
sS'.thisN'
p1740
I202
sS'.thisIndex'
p1741
I9
sg15
(lp1742
S'k'
asg30
VF
sg17
S'Y'
sg14
I5
sg19
Nsg94
I9
sa(dp1743
g16
(lp1744
S'd'
asg18
S'Y'
sS'.thisRepN'
p1745
I13
sg20
S'Y'
sg31
g32
sS'.thisTrialN'
p1746
I8
sS'.thisN'
p1747
I203
sS'.thisIndex'
p1748
I4
sg15
(lp1749
S'd'
asg30
VF
sg17
S'Y'
sg14
I5
sg19
(lp1750
S'space'
p1751
asg94
I4
sa(dp1752
g16
(lp1753
S'k'
asg18
S'Y'
sS'.thisRepN'
p1754
I13
sg20
S'N'
sg31
g32
sS'.thisTrialN'
p1755
I9
sS'.thisN'
p1756
I204
sS'.thisIndex'
p1757
I4
sg15
(lp1758
S'k'
asg30
VF
sg17
S'Y'
sg14
I5
sg19
Nsg94
I4
sa(dp1759
g16
(lp1760
S'd'
asg18
S'Y'
sS'.thisRepN'
p1761
I13
sg20
S'Y'
sg31
g32
sS'.thisTrialN'
p1762
I10
sS'.thisN'
p1763
I205
sS'.thisIndex'
p1764
I11
sg15
(lp1765
S'k'
asg30
VF
sg17
S'N'
sg14
I5
sg19
(lp1766
S'space'
p1767
asg94
I11
sa(dp1768
g16
(lp1769
S'd'
asg18
S'Y'
sS'.thisRepN'
p1770
I13
sg20
S'Y'
sg31
g32
sS'.thisTrialN'
p1771
I11
sS'.thisN'
p1772
I206
sS'.thisIndex'
p1773
I3
sg15
(lp1774
S'd'
asg30
VF
sg17
S'Y'
sg14
I5
sg19
(lp1775
S'space'
p1776
asg94
I3
sa(dp1777
g16
(lp1778
S'd'
asg18
S'N'
sS'.thisRepN'
p1779
I13
sg20
S'Y'
sg31
g32
sS'.thisTrialN'
p1780
I12
sS'.thisN'
p1781
I207
sS'.thisIndex'
p1782
I0
sg15
(lp1783
S'k'
asg30
VF
sg17
S'N'
sg14
I5
sg19
Nsg94
I0
sa(dp1784
g16
(lp1785
S'k'
asg18
S'Y'
sS'.thisRepN'
p1786
I13
sg20
S'Y'
sg31
g32
sS'.thisTrialN'
p1787
I13
sS'.thisN'
p1788
I208
sS'.thisIndex'
p1789
I8
sg15
(lp1790
S'k'
asg30
VF
sg17
S'Y'
sg14
I5
sg19
(lp1791
S'space'
p1792
asg94
I8
sa(dp1793
g16
(lp1794
S'd'
asg18
S'N'
sS'.thisRepN'
p1795
I13
sg20
S'Y'
sg31
g32
sS'.thisTrialN'
p1796
I14
sS'.thisN'
p1797
I209
sS'.thisIndex'
p1798
I14
sg15
(lp1799
S'd'
asg30
VF
sg17
S'Y'
sg14
I5
sg19
Nsg94
I14
sa(dp1800
g16
(lp1801
S'k'
asg18
S'Y'
sS'.thisRepN'
p1802
I14
sg20
S'Y'
sg31
g32
sS'.thisTrialN'
p1803
I0
sS'.thisN'
p1804
I210
sS'.thisIndex'
p1805
I2
sg15
(lp1806
S'k'
asg30
VF
sg17
S'Y'
sg14
I5
sg19
(lp1807
S'space'
p1808
asg94
I2
sa(dp1809
g16
(lp1810
S'd'
asg18
S'Y'
sS'.thisRepN'
p1811
I14
sg20
S'N'
sg31
g32
sS'.thisTrialN'
p1812
I1
sS'.thisN'
p1813
I211
sS'.thisIndex'
p1814
I6
sg15
(lp1815
S'd'
asg30
VF
sg17
S'Y'
sg14
I5
sg19
Nsg94
I6
sa(dp1816
g16
(lp1817
S'd'
asg18
S'Y'
sS'.thisRepN'
p1818
I14
sg20
S'Y'
sg31
g32
sS'.thisTrialN'
p1819
I2
sS'.thisN'
p1820
I212
sS'.thisIndex'
p1821
I1
sg15
(lp1822
S'd'
asg30
VF
sg17
S'Y'
sg14
I5
sg19
(lp1823
S'space'
p1824
asg94
I1
sa(dp1825
g16
(lp1826
S'd'
asg18
S'Y'
sS'.thisRepN'
p1827
I14
sg20
S'N'
sg31
g32
sS'.thisTrialN'
p1828
I3
sS'.thisN'
p1829
I213
sS'.thisIndex'
p1830
I13
sg15
(lp1831
S'd'
asg30
VF
sg17
S'Y'
sg14
I5
sg19
Nsg94
I13
sa(dp1832
g16
(lp1833
S'k'
asg18
S'Y'
sS'.thisRepN'
p1834
I14
sg20
S'Y'
sg31
g32
sS'.thisTrialN'
p1835
I4
sS'.thisN'
p1836
I214
sS'.thisIndex'
p1837
I8
sg15
(lp1838
S'k'
asg30
VF
sg17
S'Y'
sg14
I5
sg19
(lp1839
S'space'
p1840
asg94
I8
sa(dp1841
g16
(lp1842
S'k'
asg18
S'Y'
sS'.thisRepN'
p1843
I14
sg20
S'Y'
sg31
g32
sS'.thisTrialN'
p1844
I5
sS'.thisN'
p1845
I215
sS'.thisIndex'
p1846
I14
sg15
(lp1847
S'k'
asg30
VF
sg17
S'Y'
sg14
I5
sg19
(lp1848
S'space'
p1849
asg94
I14
sa(dp1850
g16
(lp1851
S'k'
asg18
S'N'
sS'.thisRepN'
p1852
I14
sg20
S'Y'
sg31
g32
sS'.thisTrialN'
p1853
I6
sS'.thisN'
p1854
I216
sS'.thisIndex'
p1855
I10
sg15
(lp1856
S'k'
asg30
VF
sg17
S'Y'
sg14
I5
sg19
Nsg94
I10
sa(dp1857
g16
(lp1858
S'k'
asg18
S'N'
sS'.thisRepN'
p1859
I14
sg20
S'Y'
sg31
g32
sS'.thisTrialN'
p1860
I7
sS'.thisN'
p1861
I217
sS'.thisIndex'
p1862
I5
sg15
(lp1863
S'k'
asg30
VF
sg17
S'Y'
sg14
I5
sg19
Nsg94
I5
sa(dp1864
g16
(lp1865
S'd'
asg18
S'Y'
sS'.thisRepN'
p1866
I14
sg20
S'Y'
sg31
g32
sS'.thisTrialN'
p1867
I8
sS'.thisN'
p1868
I218
sS'.thisIndex'
p1869
I0
sg15
(lp1870
S'd'
asg30
VF
sg17
S'Y'
sg14
I5
sg19
(lp1871
S'space'
p1872
asg94
I0
sa(dp1873
g16
(lp1874
S'k'
asg18
S'Y'
sS'.thisRepN'
p1875
I14
sg20
S'Y'
sg31
g32
sS'.thisTrialN'
p1876
I9
sS'.thisN'
p1877
I219
sS'.thisIndex'
p1878
I5
sg15
(lp1879
S'k'
asg30
VF
sg17
S'Y'
sg14
I5
sg19
(lp1880
S'space'
p1881
asg94
I5
sa(dp1882
g16
(lp1883
S'd'
asg18
S'Y'
sS'.thisRepN'
p1884
I14
sg20
S'Y'
sg31
g32
sS'.thisTrialN'
p1885
I10
sS'.thisN'
p1886
I220
sS'.thisIndex'
p1887
I0
sg15
(lp1888
S'd'
asg30
VF
sg17
S'Y'
sg14
I5
sg19
(lp1889
S'space'
p1890
asg94
I0
sa(dp1891
g16
(lp1892
S'k'
asg18
S'Y'
sS'.thisRepN'
p1893
I14
sg20
S'Y'
sg31
g32
sS'.thisTrialN'
p1894
I11
sS'.thisN'
p1895
I221
sS'.thisIndex'
p1896
I5
sg15
(lp1897
S'k'
asg30
VF
sg17
S'Y'
sg14
I5
sg19
(lp1898
S'space'
p1899
asg94
I5
sa(dp1900
g16
(lp1901
S'd'
asg18
S'Y'
sS'.thisRepN'
p1902
I14
sg20
S'Y'
sg31
g32
sS'.thisTrialN'
p1903
I12
sS'.thisN'
p1904
I222
sS'.thisIndex'
p1905
I10
sg15
(lp1906
S'd'
asg30
VF
sg17
S'Y'
sg14
I5
sg19
(lp1907
S'space'
p1908
asg94
I10
sa(dp1909
g16
(lp1910
S'k'
asg18
S'Y'
sS'.thisRepN'
p1911
I14
sg20
S'Y'
sg31
g32
sS'.thisTrialN'
p1912
I13
sS'.thisN'
p1913
I223
sS'.thisIndex'
p1914
I7
sg15
(lp1915
S'k'
asg30
VF
sg17
S'Y'
sg14
I5
sg19
(lp1916
S'space'
p1917
asg94
I7
sa(dp1918
g16
(lp1919
S'd'
asg18
S'N'
sS'.thisRepN'
p1920
I14
sg20
S'Y'
sg31
g32
sS'.thisTrialN'
p1921
I14
sS'.thisN'
p1922
I224
sS'.thisIndex'
p1923
I5
sg15
(lp1924
S'd'
asg30
VF
sg17
S'Y'
sg14
I5
sg19
Nsg94
I5
sa(dp1925
g16
(lp1926
S'd'
asg18
S'Y'
sS'.thisRepN'
p1927
I15
sg20
S'Y'
sg31
g32
sS'.thisTrialN'
p1928
I0
sS'.thisN'
p1929
I225
sS'.thisIndex'
p1930
I5
sg15
(lp1931
S'k'
asg30
VF
sg17
S'N'
sg14
I5
sg19
(lp1932
S'space'
p1933
asg94
I5
sa(dp1934
g16
(lp1935
S'k'
asg18
S'Y'
sS'.thisRepN'
p1936
I15
sg20
S'Y'
sg31
g32
sS'.thisTrialN'
p1937
I1
sS'.thisN'
p1938
I226
sS'.thisIndex'
p1939
I0
sg15
(lp1940
S'k'
asg30
VF
sg17
S'Y'
sg14
I5
sg19
(lp1941
S'space'
p1942
asg94
I0
sa(dp1943
g16
(lp1944
S'd'
asg18
S'N'
sS'.thisRepN'
p1945
I15
sg20
S'Y'
sg31
g32
sS'.thisTrialN'
p1946
I2
sS'.thisN'
p1947
I227
sS'.thisIndex'
p1948
I12
sg15
(lp1949
S'd'
asg30
VF
sg17
S'Y'
sg14
I5
sg19
Nsg94
I12
sa(dp1950
g16
(lp1951
S'k'
asg18
S'Y'
sS'.thisRepN'
p1952
I15
sg20
S'Y'
sg31
g32
sS'.thisTrialN'
p1953
I3
sS'.thisN'
p1954
I228
sS'.thisIndex'
p1955
I3
sg15
(lp1956
S'k'
asg30
VF
sg17
S'Y'
sg14
I5
sg19
(lp1957
S'space'
p1958
asg94
I3
sa(dp1959
g16
(lp1960
S'k'
asg18
S'Y'
sS'.thisRepN'
p1961
I15
sg20
S'Y'
sg31
g32
sS'.thisTrialN'
p1962
I4
sS'.thisN'
p1963
I229
sS'.thisIndex'
p1964
I10
sg15
(lp1965
S'k'
asg30
VF
sg17
S'Y'
sg14
I5
sg19
(lp1966
S'space'
p1967
asg94
I10
sa(dp1968
g16
(lp1969
S'd'
asg18
S'N'
sS'.thisRepN'
p1970
I15
sg20
S'Y'
sg31
g32
sS'.thisTrialN'
p1971
I5
sS'.thisN'
p1972
I230
sS'.thisIndex'
p1973
I10
sg15
(lp1974
S'k'
asg30
VF
sg17
S'N'
sg14
I5
sg19
Nsg94
I10
sa(dp1975
g16
(lp1976
S'd'
asg18
S'Y'
sS'.thisRepN'
p1977
I15
sg20
S'Y'
sg31
g32
sS'.thisTrialN'
p1978
I6
sS'.thisN'
p1979
I231
sS'.thisIndex'
p1980
I3
sg15
(lp1981
S'd'
asg30
VF
sg17
S'Y'
sg14
I5
sg19
(lp1982
S'space'
p1983
asg94
I3
sa(dp1984
g16
(lp1985
S'k'
asg18
S'Y'
sS'.thisRepN'
p1986
I15
sg20
S'Y'
sg31
g32
sS'.thisTrialN'
p1987
I7
sS'.thisN'
p1988
I232
sS'.thisIndex'
p1989
I4
sg15
(lp1990
S'k'
asg30
VF
sg17
S'Y'
sg14
I5
sg19
(lp1991
S'space'
p1992
asg94
I4
sa(dp1993
g16
(lp1994
S'k'
asg18
S'N'
sS'.thisRepN'
p1995
I15
sg20
S'Y'
sg31
g32
sS'.thisTrialN'
p1996
I8
sS'.thisN'
p1997
I233
sS'.thisIndex'
p1998
I12
sg15
(lp1999
S'k'
asg30
VF
sg17
S'Y'
sg14
I5
sg19
Nsg94
I12
sa(dp2000
g16
(lp2001
S'd'
asg18
S'Y'
sS'.thisRepN'
p2002
I15
sg20
S'Y'
sg31
g32
sS'.thisTrialN'
p2003
I9
sS'.thisN'
p2004
I234
sS'.thisIndex'
p2005
I14
sg15
(lp2006
S'd'
asg30
VF
sg17
S'Y'
sg14
I5
sg19
(lp2007
S'space'
p2008
asg94
I14
sa(dp2009
g16
(lp2010
S'k'
asg18
S'N'
sS'.thisRepN'
p2011
I15
sg20
S'Y'
sg31
g32
sS'.thisTrialN'
p2012
I10
sS'.thisN'
p2013
I235
sS'.thisIndex'
p2014
I4
sg15
(lp2015
S'k'
asg30
VF
sg17
S'Y'
sg14
I5
sg19
Nsg94
I4
sa(dp2016
g16
(lp2017
S'k'
asg18
S'Y'
sS'.thisRepN'
p2018
I15
sg20
S'Y'
sg31
g32
sS'.thisTrialN'
p2019
I11
sS'.thisN'
p2020
I236
sS'.thisIndex'
p2021
I8
sg15
(lp2022
S'k'
asg30
VF
sg17
S'Y'
sg14
I5
sg19
(lp2023
S'space'
p2024
asg94
I8
sa(dp2025
g16
(lp2026
S'k'
asg18
S'N'
sS'.thisRepN'
p2027
I15
sg20
S'Y'
sg31
g32
sS'.thisTrialN'
p2028
I12
sS'.thisN'
p2029
I237
sS'.thisIndex'
p2030
I1
sg15
(lp2031
S'd'
asg30
VF
sg17
S'N'
sg14
I5
sg19
Nsg94
I1
sa(dp2032
g16
(lp2033
S'k'
asg18
S'N'
sS'.thisRepN'
p2034
I15
sg20
S'Y'
sg31
g32
sS'.thisTrialN'
p2035
I13
sS'.thisN'
p2036
I238
sS'.thisIndex'
p2037
I12
sg15
(lp2038
S'k'
asg30
VF
sg17
S'Y'
sg14
I5
sg19
Nsg94
I12
sa(dp2039
g16
(lp2040
S'k'
asg18
S'N'
sS'.thisRepN'
p2041
I15
sg20
S'Y'
sg31
g32
sS'.thisTrialN'
p2042
I14
sS'.thisN'
p2043
I239
sS'.thisIndex'
p2044
I6
sg15
(lp2045
S'k'
asg30
VF
sg17
S'Y'
sg14
I5
sg19
Nsg94
I6
sa(dp2046
g16
(lp2047
S'd'
asg18
S'N'
sS'.thisRepN'
p2048
I16
sg20
S'Y'
sg31
g32
sS'.thisTrialN'
p2049
I0
sS'.thisN'
p2050
I240
sS'.thisIndex'
p2051
I11
sg15
(lp2052
S'k'
asg30
VF
sg17
S'N'
sg14
I5
sg19
Nsg94
I11
sa(dp2053
g16
(lp2054
S'd'
asg18
S'N'
sS'.thisRepN'
p2055
I16
sg20
S'Y'
sg31
g32
sS'.thisTrialN'
p2056
I1
sS'.thisN'
p2057
I241
sS'.thisIndex'
p2058
I7
sg15
(lp2059
S'd'
asg30
VF
sg17
S'Y'
sg14
I5
sg19
Nsg94
I7
sa(dp2060
g16
(lp2061
S'k'
asg18
S'N'
sS'.thisRepN'
p2062
I16
sg20
S'Y'
sg31
g32
sS'.thisTrialN'
p2063
I2
sS'.thisN'
p2064
I242
sS'.thisIndex'
p2065
I2
sg15
(lp2066
S'k'
asg30
VF
sg17
S'Y'
sg14
I5
sg19
Nsg94
I2
sa(dp2067
g16
(lp2068
S'd'
asg18
S'N'
sS'.thisRepN'
p2069
I16
sg20
S'Y'
sg31
g32
sS'.thisTrialN'
p2070
I3
sS'.thisN'
p2071
I243
sS'.thisIndex'
p2072
I11
sg15
(lp2073
S'd'
asg30
VF
sg17
S'Y'
sg14
I5
sg19
Nsg94
I11
sa(dp2074
g16
(lp2075
S'k'
asg18
S'N'
sS'.thisRepN'
p2076
I16
sg20
S'Y'
sg31
g32
sS'.thisTrialN'
p2077
I4
sS'.thisN'
p2078
I244
sS'.thisIndex'
p2079
I11
sg15
(lp2080
S'k'
asg30
VF
sg17
S'Y'
sg14
I5
sg19
Nsg94
I11
sa(dp2081
g16
(lp2082
S'k'
asg18
S'N'
sS'.thisRepN'
p2083
I16
sg20
S'Y'
sg31
g32
sS'.thisTrialN'
p2084
I5
sS'.thisN'
p2085
I245
sS'.thisIndex'
p2086
I12
sg15
(lp2087
S'k'
asg30
VF
sg17
S'Y'
sg14
I5
sg19
Nsg94
I12
sa(dp2088
g16
(lp2089
S'k'
asg18
S'N'
sS'.thisRepN'
p2090
I16
sg20
S'Y'
sg31
g32
sS'.thisTrialN'
p2091
I6
sS'.thisN'
p2092
I246
sS'.thisIndex'
p2093
I0
sg15
(lp2094
S'k'
asg30
VF
sg17
S'Y'
sg14
I5
sg19
Nsg94
I0
sa(dp2095
g16
(lp2096
S'k'
asg18
S'N'
sS'.thisRepN'
p2097
I16
sg20
S'Y'
sg31
g32
sS'.thisTrialN'
p2098
I7
sS'.thisN'
p2099
I247
sS'.thisIndex'
p2100
I3
sg15
(lp2101
S'k'
asg30
VF
sg17
S'Y'
sg14
I5
sg19
Nsg94
I3
sa(dp2102
g16
(lp2103
S'k'
asg18
S'N'
sS'.thisRepN'
p2104
I16
sg20
S'Y'
sg31
g32
sS'.thisTrialN'
p2105
I8
sS'.thisN'
p2106
I248
sS'.thisIndex'
p2107
I14
sg15
(lp2108
S'k'
asg30
VF
sg17
S'Y'
sg14
I5
sg19
Nsg94
I14
sa(dp2109
g16
(lp2110
S'k'
asg18
S'N'
sg22
I45
sS'.thisN'
p2111
I249
sg20
S'Y'
sg31
g32
sS'.thisTrialN'
p2112
I9
sS'.thisRepN'
p2113
I16
sg21
I44
sS'.thisIndex'
p2114
I7
sg23
I25
sg15
(lp2115
S'k'
asg30
VF
sg17
S'Y'
sg14
I5
sg19
Nsg94
I7
sa(dp2116
g16
(lp2117
S'k'
asg94
I8
sS'.thisRepN'
p2118
I16
sg30
VF
sg31
g32
sS'.thisTrialN'
p2119
I10
sS'.thisN'
p2120
I250
sS'.thisIndex'
p2121
I8
sg15
(lp2122
S'k'
asg17
S'Y'
sg14
I6
sa(dp2123
g16
(lp2124
S'd'
asg94
I3
sS'.thisRepN'
p2125
I16
sg30
VF
sg31
g32
sS'.thisTrialN'
p2126
I11
sS'.thisN'
p2127
I251
sS'.thisIndex'
p2128
I3
sg15
(lp2129
S'd'
asg17
S'Y'
sg14
I6
sa(dp2130
g16
(lp2131
S'd'
asg18
S'Y'
sS'.thisRepN'
p2132
I16
sg20
S'Y'
sg31
g32
sS'.thisTrialN'
p2133
I12
sS'.thisN'
p2134
I252
sS'.thisIndex'
p2135
I11
sg15
(lp2136
S'd'
asg30
VF
sg17
S'Y'
sg14
I6
sg19
(lp2137
S'space'
p2138
asg94
I11
sa(dp2139
g16
(lp2140
S'd'
asg18
S'N'
sS'.thisRepN'
p2141
I16
sg20
S'Y'
sg31
g32
sS'.thisTrialN'
p2142
I13
sS'.thisN'
p2143
I253
sS'.thisIndex'
p2144
I10
sg15
(lp2145
S'd'
asg30
VF
sg17
S'Y'
sg14
I6
sg19
Nsg94
I10
sa(dp2146
g16
(lp2147
S'k'
asg18
S'Y'
sS'.thisRepN'
p2148
I16
sg20
S'N'
sg31
g32
sS'.thisTrialN'
p2149
I14
sS'.thisN'
p2150
I254
sS'.thisIndex'
p2151
I10
sg15
(lp2152
S'k'
asg30
VF
sg17
S'Y'
sg14
I6
sg19
Nsg94
I10
sa(dp2153
g16
(lp2154
S'd'
asg18
S'N'
sS'.thisRepN'
p2155
I17
sg20
S'Y'
sg31
g32
sS'.thisTrialN'
p2156
I0
sS'.thisN'
p2157
I255
sS'.thisIndex'
p2158
I12
sg15
(lp2159
S'd'
asg30
VF
sg17
S'Y'
sg14
I6
sg19
Nsg94
I12
sa(dp2160
g16
(lp2161
S'k'
asg18
S'N'
sS'.thisRepN'
p2162
I17
sg20
S'Y'
sg31
g32
sS'.thisTrialN'
p2163
I1
sS'.thisN'
p2164
I256
sS'.thisIndex'
p2165
I5
sg15
(lp2166
S'k'
asg30
VF
sg17
S'Y'
sg14
I6
sg19
Nsg94
I5
sa(dp2167
g16
(lp2168
S'd'
asg18
S'Y'
sS'.thisRepN'
p2169
I17
sg20
S'Y'
sg31
g32
sS'.thisTrialN'
p2170
I2
sS'.thisN'
p2171
I257
sS'.thisIndex'
p2172
I10
sg15
(lp2173
S'd'
asg30
VF
sg17
S'Y'
sg14
I6
sg19
(lp2174
S'space'
p2175
asg94
I10
sa(dp2176
g16
(lp2177
S'd'
asg18
S'Y'
sS'.thisRepN'
p2178
I17
sg20
S'Y'
sg31
g32
sS'.thisTrialN'
p2179
I3
sS'.thisN'
p2180
I258
sS'.thisIndex'
p2181
I9
sg15
(lp2182
S'd'
asg30
VF
sg17
S'Y'
sg14
I6
sg19
(lp2183
S'space'
p2184
asg94
I9
sa(dp2185
g16
(lp2186
S'd'
asg18
S'Y'
sS'.thisRepN'
p2187
I17
sg20
S'Y'
sg31
g32
sS'.thisTrialN'
p2188
I4
sS'.thisN'
p2189
I259
sS'.thisIndex'
p2190
I12
sg15
(lp2191
S'd'
asg30
VF
sg17
S'Y'
sg14
I6
sg19
(lp2192
S'space'
p2193
asg94
I12
sa(dp2194
g16
(lp2195
S'd'
asg18
S'Y'
sS'.thisRepN'
p2196
I17
sg20
S'N'
sg31
g32
sS'.thisTrialN'
p2197
I5
sS'.thisN'
p2198
I260
sS'.thisIndex'
p2199
I3
sg15
(lp2200
S'd'
asg30
VF
sg17
S'Y'
sg14
I6
sg19
Nsg94
I3
sa(dp2201
g16
(lp2202
S'd'
asg18
S'N'
sS'.thisRepN'
p2203
I17
sg20
S'Y'
sg31
g32
sS'.thisTrialN'
p2204
I6
sS'.thisN'
p2205
I261
sS'.thisIndex'
p2206
I2
sg15
(lp2207
S'k'
asg30
VF
sg17
S'N'
sg14
I6
sg19
Nsg94
I2
sa(dp2208
g16
(lp2209
S'k'
asg18
S'Y'
sS'.thisRepN'
p2210
I17
sg20
S'N'
sg31
g32
sS'.thisTrialN'
p2211
I7
sS'.thisN'
p2212
I262
sS'.thisIndex'
p2213
I4
sg15
(lp2214
S'k'
asg30
VF
sg17
S'Y'
sg14
I6
sg19
(lp2215
S'd'
asg94
I4
sa(dp2216
g16
(lp2217
S'd'
asg18
S'N'
sS'.thisRepN'
p2218
I17
sg20
S'Y'
sg31
g32
sS'.thisTrialN'
p2219
I8
sS'.thisN'
p2220
I263
sS'.thisIndex'
p2221
I6
sg15
(lp2222
S'd'
asg30
VF
sg17
S'Y'
sg14
I6
sg19
Nsg94
I6
sa(dp2223
g16
(lp2224
S'd'
asg18
S'N'
sS'.thisRepN'
p2225
I17
sg20
S'Y'
sg31
g32
sS'.thisTrialN'
p2226
I9
sS'.thisN'
p2227
I264
sS'.thisIndex'
p2228
I9
sg15
(lp2229
S'k'
asg30
VF
sg17
S'N'
sg14
I6
sg19
Nsg94
I9
sa(dp2230
g16
(lp2231
S'k'
asg18
S'Y'
sS'.thisRepN'
p2232
I17
sg20
S'N'
sg31
g32
sS'.thisTrialN'
p2233
I10
sS'.thisN'
p2234
I265
sS'.thisIndex'
p2235
I10
sg15
(lp2236
S'k'
asg30
VF
sg17
S'Y'
sg14
I6
sg19
Nsg94
I10
sa(dp2237
g16
(lp2238
S'k'
asg18
S'N'
sS'.thisRepN'
p2239
I17
sg20
S'N'
sg31
g32
sS'.thisTrialN'
p2240
I11
sS'.thisN'
p2241
I266
sS'.thisIndex'
p2242
I2
sg15
(lp2243
S'k'
asg30
VF
sg17
S'Y'
sg14
I6
sg19
(lp2244
S'space'
p2245
asg94
I2
sa(dp2246
g16
(lp2247
S'd'
asg18
S'Y'
sS'.thisRepN'
p2248
I17
sg20
S'Y'
sg31
g32
sS'.thisTrialN'
p2249
I12
sS'.thisN'
p2250
I267
sS'.thisIndex'
p2251
I6
sg15
(lp2252
S'd'
asg30
VF
sg17
S'Y'
sg14
I6
sg19
(lp2253
S'space'
p2254
asg94
I6
sa(dp2255
g16
(lp2256
S'k'
asg18
S'N'
sS'.thisRepN'
p2257
I17
sg20
S'Y'
sg31
g32
sS'.thisTrialN'
p2258
I13
sS'.thisN'
p2259
I268
sS'.thisIndex'
p2260
I1
sg15
(lp2261
S'k'
asg30
VF
sg17
S'Y'
sg14
I6
sg19
Nsg94
I1
sa(dp2262
g16
(lp2263
S'k'
asg18
S'N'
sS'.thisRepN'
p2264
I17
sg20
S'Y'
sg31
g32
sS'.thisTrialN'
p2265
I14
sS'.thisN'
p2266
I269
sS'.thisIndex'
p2267
I1
sg15
(lp2268
S'k'
asg30
VF
sg17
S'Y'
sg14
I6
sg19
Nsg94
I1
sa(dp2269
g16
(lp2270
S'k'
asg18
S'Y'
sS'.thisRepN'
p2271
I18
sg20
S'Y'
sg31
g32
sS'.thisTrialN'
p2272
I0
sS'.thisN'
p2273
I270
sS'.thisIndex'
p2274
I1
sg15
(lp2275
S'k'
asg30
VF
sg17
S'Y'
sg14
I6
sg19
(lp2276
S'space'
p2277
asg94
I1
sa(dp2278
g16
(lp2279
S'd'
asg18
S'Y'
sS'.thisRepN'
p2280
I18
sg20
S'N'
sg31
g32
sS'.thisTrialN'
p2281
I1
sS'.thisN'
p2282
I271
sS'.thisIndex'
p2283
I3
sg15
(lp2284
S'd'
asg30
VF
sg17
S'Y'
sg14
I6
sg19
Nsg94
I3
sa(dp2285
g16
(lp2286
S'd'
asg18
S'Y'
sS'.thisRepN'
p2287
I18
sg20
S'Y'
sg31
g32
sS'.thisTrialN'
p2288
I2
sS'.thisN'
p2289
I272
sS'.thisIndex'
p2290
I12
sg15
(lp2291
S'd'
asg30
VF
sg17
S'Y'
sg14
I6
sg19
(lp2292
S'space'
p2293
asg94
I12
sa(dp2294
g16
(lp2295
S'd'
asg18
S'Y'
sS'.thisRepN'
p2296
I18
sg20
S'Y'
sg31
g32
sS'.thisTrialN'
p2297
I3
sS'.thisN'
p2298
I273
sS'.thisIndex'
p2299
I1
sg15
(lp2300
S'd'
asg30
VF
sg17
S'Y'
sg14
I6
sg19
(lp2301
S'space'
p2302
asg94
I1
sa(dp2303
g16
(lp2304
S'k'
asg18
S'N'
sS'.thisRepN'
p2305
I18
sg20
S'Y'
sg31
g32
sS'.thisTrialN'
p2306
I4
sS'.thisN'
p2307
I274
sS'.thisIndex'
p2308
I12
sg15
(lp2309
S'k'
asg30
VF
sg17
S'Y'
sg14
I6
sg19
Nsg94
I12
sa(dp2310
g16
(lp2311
S'k'
asg18
S'N'
sS'.thisRepN'
p2312
I18
sg20
S'Y'
sg31
g32
sS'.thisTrialN'
p2313
I5
sS'.thisN'
p2314
I275
sS'.thisIndex'
p2315
I14
sg15
(lp2316
S'k'
asg30
VF
sg17
S'Y'
sg14
I6
sg19
Nsg94
I14
sa(dp2317
g16
(lp2318
S'k'
asg18
S'N'
sS'.thisRepN'
p2319
I18
sg20
S'Y'
sg31
g32
sS'.thisTrialN'
p2320
I6
sS'.thisN'
p2321
I276
sS'.thisIndex'
p2322
I4
sg15
(lp2323
S'k'
asg30
VF
sg17
S'Y'
sg14
I6
sg19
Nsg94
I4
sa(dp2324
g16
(lp2325
S'k'
asg18
S'Y'
sS'.thisRepN'
p2326
I18
sg20
S'Y'
sg31
g32
sS'.thisTrialN'
p2327
I7
sS'.thisN'
p2328
I277
sS'.thisIndex'
p2329
I12
sg15
(lp2330
S'k'
asg30
VF
sg17
S'Y'
sg14
I6
sg19
(lp2331
S'space'
p2332
asg94
I12
sa(dp2333
g16
(lp2334
S'd'
asg18
S'Y'
sS'.thisRepN'
p2335
I18
sg20
S'Y'
sg31
g32
sS'.thisTrialN'
p2336
I8
sS'.thisN'
p2337
I278
sS'.thisIndex'
p2338
I4
sg15
(lp2339
S'k'
asg30
VF
sg17
S'N'
sg14
I6
sg19
(lp2340
S'space'
p2341
asg94
I4
sa(dp2342
g16
(lp2343
S'd'
asg18
S'Y'
sS'.thisRepN'
p2344
I18
sg20
S'N'
sg31
g32
sS'.thisTrialN'
p2345
I9
sS'.thisN'
p2346
I279
sS'.thisIndex'
p2347
I2
sg15
(lp2348
S'd'
asg30
VF
sg17
S'Y'
sg14
I6
sg19
Nsg94
I2
sa(dp2349
g16
(lp2350
S'k'
asg18
S'Y'
sS'.thisRepN'
p2351
I18
sg20
S'Y'
sg31
g32
sS'.thisTrialN'
p2352
I10
sS'.thisN'
p2353
I280
sS'.thisIndex'
p2354
I0
sg15
(lp2355
S'k'
asg30
VF
sg17
S'Y'
sg14
I6
sg19
(lp2356
S'space'
p2357
asg94
I0
sa(dp2358
g16
(lp2359
S'd'
asg18
S'N'
sS'.thisRepN'
p2360
I18
sg20
S'Y'
sg31
g32
sS'.thisTrialN'
p2361
I11
sS'.thisN'
p2362
I281
sS'.thisIndex'
p2363
I2
sg15
(lp2364
S'd'
asg30
VF
sg17
S'Y'
sg14
I6
sg19
Nsg94
I2
sa(dp2365
g16
(lp2366
S'k'
asg18
S'N'
sS'.thisRepN'
p2367
I18
sg20
S'Y'
sg31
g32
sS'.thisTrialN'
p2368
I12
sS'.thisN'
p2369
I282
sS'.thisIndex'
p2370
I9
sg15
(lp2371
S'k'
asg30
VF
sg17
S'Y'
sg14
I6
sg19
Nsg94
I9
sa(dp2372
g16
(lp2373
S'd'
asg18
S'Y'
sS'.thisRepN'
p2374
I18
sg20
S'Y'
sg31
g32
sS'.thisTrialN'
p2375
I13
sS'.thisN'
p2376
I283
sS'.thisIndex'
p2377
I0
sg15
(lp2378
S'd'
asg30
VF
sg17
S'Y'
sg14
I6
sg19
(lp2379
S'space'
p2380
asg94
I0
sa(dp2381
g16
(lp2382
S'k'
asg18
S'N'
sS'.thisRepN'
p2383
I18
sg20
S'Y'
sg31
g32
sS'.thisTrialN'
p2384
I14
sS'.thisN'
p2385
I284
sS'.thisIndex'
p2386
I2
sg15
(lp2387
S'k'
asg30
VF
sg17
S'Y'
sg14
I6
sg19
Nsg94
I2
sa(dp2388
g16
(lp2389
S'd'
asg18
S'N'
sS'.thisRepN'
p2390
I19
sg20
S'N'
sg31
g32
sS'.thisTrialN'
p2391
I0
sS'.thisN'
p2392
I285
sS'.thisIndex'
p2393
I9
sg15
(lp2394
S'd'
asg30
VF
sg17
S'Y'
sg14
I6
sg19
(lp2395
S'space'
p2396
asg94
I9
sa(dp2397
g16
(lp2398
S'k'
asg18
S'Y'
sS'.thisRepN'
p2399
I19
sg20
S'Y'
sg31
g32
sS'.thisTrialN'
p2400
I1
sS'.thisN'
p2401
I286
sS'.thisIndex'
p2402
I9
sg15
(lp2403
S'd'
asg30
VF
sg17
S'N'
sg14
I6
sg19
(lp2404
S'space'
p2405
asg94
I9
sa(dp2406
g16
(lp2407
S'd'
asg18
S'Y'
sS'.thisRepN'
p2408
I19
sg20
S'Y'
sg31
g32
sS'.thisTrialN'
p2409
I2
sS'.thisN'
p2410
I287
sS'.thisIndex'
p2411
I6
sg15
(lp2412
S'd'
asg30
VF
sg17
S'Y'
sg14
I6
sg19
(lp2413
S'space'
p2414
asg94
I6
sa(dp2415
g16
(lp2416
S'd'
asg18
S'N'
sS'.thisRepN'
p2417
I19
sg20
S'Y'
sg31
g32
sS'.thisTrialN'
p2418
I3
sS'.thisN'
p2419
I288
sS'.thisIndex'
p2420
I12
sg15
(lp2421
S'd'
asg30
VF
sg17
S'Y'
sg14
I6
sg19
Nsg94
I12
sa(dp2422
g16
(lp2423
S'd'
asg18
S'Y'
sS'.thisRepN'
p2424
I19
sg20
S'Y'
sg31
g32
sS'.thisTrialN'
p2425
I4
sS'.thisN'
p2426
I289
sS'.thisIndex'
p2427
I13
sg15
(lp2428
S'k'
asg30
VF
sg17
S'N'
sg14
I6
sg19
(lp2429
S'space'
p2430
asg94
I13
sa(dp2431
g16
(lp2432
S'k'
asg18
S'N'
sS'.thisRepN'
p2433
I19
sg20
S'Y'
sg31
g32
sS'.thisTrialN'
p2434
I5
sS'.thisN'
p2435
I290
sS'.thisIndex'
p2436
I7
sg15
(lp2437
S'k'
asg30
VF
sg17
S'Y'
sg14
I6
sg19
Nsg94
I7
sa(dp2438
g16
(lp2439
S'd'
asg18
S'Y'
sS'.thisRepN'
p2440
I19
sg20
S'N'
sg31
g32
sS'.thisTrialN'
p2441
I6
sS'.thisN'
p2442
I291
sS'.thisIndex'
p2443
I9
sg15
(lp2444
S'd'
asg30
VF
sg17
S'Y'
sg14
I6
sg19
Nsg94
I9
sa(dp2445
g16
(lp2446
S'k'
asg18
S'Y'
sS'.thisRepN'
p2447
I19
sg20
S'N'
sg31
g32
sS'.thisTrialN'
p2448
I7
sS'.thisN'
p2449
I292
sS'.thisIndex'
p2450
I0
sg15
(lp2451
S'd'
asg30
VF
sg17
S'N'
sg14
I6
sg19
Nsg94
I0
sa(dp2452
g16
(lp2453
S'k'
asg18
S'Y'
sS'.thisRepN'
p2454
I19
sg20
S'Y'
sg31
g32
sS'.thisTrialN'
p2455
I8
sS'.thisN'
p2456
I293
sS'.thisIndex'
p2457
I13
sg15
(lp2458
S'k'
asg30
VF
sg17
S'Y'
sg14
I6
sg19
(lp2459
S'space'
p2460
asg94
I13
sa(dp2461
g16
(lp2462
S'd'
asg18
S'Y'
sS'.thisRepN'
p2463
I19
sg20
S'Y'
sg31
g32
sS'.thisTrialN'
p2464
I9
sS'.thisN'
p2465
I294
sS'.thisIndex'
p2466
I5
sg15
(lp2467
S'd'
asg30
VF
sg17
S'Y'
sg14
I6
sg19
(lp2468
S'space'
p2469
asg94
I5
sa(dp2470
g16
(lp2471
S'd'
asg18
S'N'
sS'.thisRepN'
p2472
I19
sg20
S'N'
sg31
g32
sS'.thisTrialN'
p2473
I10
sS'.thisN'
p2474
I295
sS'.thisIndex'
p2475
I1
sg15
(lp2476
S'k'
asg30
VF
sg17
S'N'
sg14
I6
sg19
(lp2477
S'space'
p2478
asg94
I1
sa(dp2479
g16
(lp2480
S'k'
asg18
S'N'
sS'.thisRepN'
p2481
I19
sg20
S'N'
sg31
g32
sS'.thisTrialN'
p2482
I11
sS'.thisN'
p2483
I296
sS'.thisIndex'
p2484
I5
sg15
(lp2485
S'k'
asg30
VF
sg17
S'Y'
sg14
I6
sg19
(lp2486
S'space'
p2487
asg94
I5
sa(dp2488
g16
(lp2489
S'd'
asg18
S'N'
sS'.thisRepN'
p2490
I19
sg20
S'Y'
sg31
g32
sS'.thisTrialN'
p2491
I12
sS'.thisN'
p2492
I297
sS'.thisIndex'
p2493
I8
sg15
(lp2494
S'd'
asg30
VF
sg17
S'Y'
sg14
I6
sg19
Nsg94
I8
sa(dp2495
g16
(lp2496
S'd'
asg18
S'N'
sS'.thisRepN'
p2497
I19
sg20
S'Y'
sg31
g32
sS'.thisTrialN'
p2498
I13
sS'.thisN'
p2499
I298
sS'.thisIndex'
p2500
I7
sg15
(lp2501
S'd'
asg30
VF
sg17
S'Y'
sg14
I6
sg19
Nsg94
I7
sa(dp2502
g16
(lp2503
S'd'
asg18
S'N'
sg22
I36
sS'.thisN'
p2504
I299
sg20
S'Y'
sg31
g32
sS'.thisTrialN'
p2505
I14
sS'.thisRepN'
p2506
I19
sg21
I43
sS'.thisIndex'
p2507
I13
sg23
I25
sg15
(lp2508
S'd'
asg30
VF
sg17
S'Y'
sg14
I6
sg19
Nsg94
I13
sa(dp2509
g16
(lp2510
S'k'
asg94
I9
sS'.thisRepN'
p2511
I20
sg30
VF
sg31
g32
sS'.thisTrialN'
p2512
I0
sS'.thisN'
p2513
I300
sS'.thisIndex'
p2514
I9
sg15
(lp2515
S'k'
asg17
S'Y'
sg14
I7
sa(dp2516
g16
(lp2517
S'k'
asg94
I12
sS'.thisRepN'
p2518
I20
sg30
VF
sg31
g32
sS'.thisTrialN'
p2519
I1
sS'.thisN'
p2520
I301
sS'.thisIndex'
p2521
I12
sg15
(lp2522
S'd'
asg17
S'N'
sg14
I7
sa(dp2523
g16
(lp2524
S'k'
asg18
S'N'
sS'.thisRepN'
p2525
I20
sg20
S'Y'
sg31
g32
sS'.thisTrialN'
p2526
I2
sS'.thisN'
p2527
I302
sS'.thisIndex'
p2528
I2
sg15
(lp2529
S'k'
asg30
VF
sg17
S'Y'
sg14
I7
sg19
Nsg94
I2
sa(dp2530
g16
(lp2531
S'k'
asg18
S'N'
sS'.thisRepN'
p2532
I20
sg20
S'Y'
sg31
g32
sS'.thisTrialN'
p2533
I3
sS'.thisN'
p2534
I303
sS'.thisIndex'
p2535
I13
sg15
(lp2536
S'k'
asg30
VF
sg17
S'Y'
sg14
I7
sg19
Nsg94
I13
sa(dp2537
g16
(lp2538
S'd'
asg18
S'Y'
sS'.thisRepN'
p2539
I20
sg20
S'Y'
sg31
g32
sS'.thisTrialN'
p2540
I4
sS'.thisN'
p2541
I304
sS'.thisIndex'
p2542
I11
sg15
(lp2543
S'd'
asg30
VF
sg17
S'Y'
sg14
I7
sg19
(lp2544
S'space'
p2545
asg94
I11
sa(dp2546
g16
(lp2547
S'd'
asg18
S'Y'
sS'.thisRepN'
p2548
I20
sg20
S'Y'
sg31
g32
sS'.thisTrialN'
p2549
I5
sS'.thisN'
p2550
I305
sS'.thisIndex'
p2551
I0
sg15
(lp2552
S'd'
asg30
VF
sg17
S'Y'
sg14
I7
sg19
(lp2553
S'space'
p2554
asg94
I0
sa(dp2555
g16
(lp2556
S'd'
asg18
S'N'
sS'.thisRepN'
p2557
I20
sg20
S'Y'
sg31
g32
sS'.thisTrialN'
p2558
I6
sS'.thisN'
p2559
I306
sS'.thisIndex'
p2560
I7
sg15
(lp2561
S'd'
asg30
VF
sg17
S'Y'
sg14
I7
sg19
Nsg94
I7
sa(dp2562
g16
(lp2563
S'k'
asg18
S'Y'
sS'.thisRepN'
p2564
I20
sg20
S'Y'
sg31
g32
sS'.thisTrialN'
p2565
I7
sS'.thisN'
p2566
I307
sS'.thisIndex'
p2567
I11
sg15
(lp2568
S'k'
asg30
VF
sg17
S'Y'
sg14
I7
sg19
(lp2569
S'space'
p2570
asg94
I11
sa(dp2571
g16
(lp2572
S'd'
asg18
S'Y'
sS'.thisRepN'
p2573
I20
sg20
S'Y'
sg31
g32
sS'.thisTrialN'
p2574
I8
sS'.thisN'
p2575
I308
sS'.thisIndex'
p2576
I0
sg15
(lp2577
S'd'
asg30
VF
sg17
S'Y'
sg14
I7
sg19
(lp2578
S'space'
p2579
asg94
I0
sa(dp2580
g16
(lp2581
S'k'
asg18
S'Y'
sS'.thisRepN'
p2582
I20
sg20
S'N'
sg31
g32
sS'.thisTrialN'
p2583
I9
sS'.thisN'
p2584
I309
sS'.thisIndex'
p2585
I7
sg15
(lp2586
S'k'
asg30
VF
sg17
S'Y'
sg14
I7
sg19
Nsg94
I7
sa(dp2587
g16
(lp2588
S'd'
asg18
S'N'
sS'.thisRepN'
p2589
I20
sg20
S'Y'
sg31
g32
sS'.thisTrialN'
p2590
I10
sS'.thisN'
p2591
I310
sS'.thisIndex'
p2592
I1
sg15
(lp2593
S'd'
asg30
VF
sg17
S'Y'
sg14
I7
sg19
Nsg94
I1
sa(dp2594
g16
(lp2595
S'k'
asg18
S'Y'
sS'.thisRepN'
p2596
I20
sg20
S'Y'
sg31
g32
sS'.thisTrialN'
p2597
I11
sS'.thisN'
p2598
I311
sS'.thisIndex'
p2599
I2
sg15
(lp2600
S'k'
asg30
VF
sg17
S'Y'
sg14
I7
sg19
(lp2601
S'space'
p2602
asg94
I2
sa(dp2603
g16
(lp2604
S'd'
asg18
S'Y'
sS'.thisRepN'
p2605
I20
sg20
S'Y'
sg31
g32
sS'.thisTrialN'
p2606
I12
sS'.thisN'
p2607
I312
sS'.thisIndex'
p2608
I0
sg15
(lp2609
S'd'
asg30
VF
sg17
S'Y'
sg14
I7
sg19
(lp2610
S'space'
p2611
asg94
I0
sa(dp2612
g16
(lp2613
S'd'
asg18
S'Y'
sS'.thisRepN'
p2614
I20
sg20
S'N'
sg31
g32
sS'.thisTrialN'
p2615
I13
sS'.thisN'
p2616
I313
sS'.thisIndex'
p2617
I8
sg15
(lp2618
S'd'
asg30
VF
sg17
S'Y'
sg14
I7
sg19
Nsg94
I8
sa(dp2619
g16
(lp2620
S'k'
asg18
S'N'
sS'.thisRepN'
p2621
I20
sg20
S'Y'
sg31
g32
sS'.thisTrialN'
p2622
I14
sS'.thisN'
p2623
I314
sS'.thisIndex'
p2624
I6
sg15
(lp2625
S'k'
asg30
VF
sg17
S'Y'
sg14
I7
sg19
Nsg94
I6
sa(dp2626
g16
(lp2627
S'k'
asg18
S'Y'
sS'.thisRepN'
p2628
I21
sg20
S'Y'
sg31
g32
sS'.thisTrialN'
p2629
I0
sS'.thisN'
p2630
I315
sS'.thisIndex'
p2631
I10
sg15
(lp2632
S'k'
asg30
VF
sg17
S'Y'
sg14
I7
sg19
(lp2633
S'space'
p2634
asg94
I10
sa(dp2635
g16
(lp2636
S'k'
asg18
S'N'
sS'.thisRepN'
p2637
I21
sg20
S'Y'
sg31
g32
sS'.thisTrialN'
p2638
I1
sS'.thisN'
p2639
I316
sS'.thisIndex'
p2640
I3
sg15
(lp2641
S'k'
asg30
VF
sg17
S'Y'
sg14
I7
sg19
Nsg94
I3
sa(dp2642
g16
(lp2643
S'k'
asg18
S'Y'
sS'.thisRepN'
p2644
I21
sg20
S'Y'
sg31
g32
sS'.thisTrialN'
p2645
I2
sS'.thisN'
p2646
I317
sS'.thisIndex'
p2647
I11
sg15
(lp2648
S'd'
asg30
VF
sg17
S'N'
sg14
I7
sg19
(lp2649
S'space'
p2650
asg94
I11
sa(dp2651
g16
(lp2652
S'd'
asg18
S'Y'
sS'.thisRepN'
p2653
I21
sg20
S'Y'
sg31
g32
sS'.thisTrialN'
p2654
I3
sS'.thisN'
p2655
I318
sS'.thisIndex'
p2656
I14
sg15
(lp2657
S'k'
asg30
VF
sg17
S'N'
sg14
I7
sg19
(lp2658
S'space'
p2659
asg94
I14
sa(dp2660
g16
(lp2661
S'k'
asg18
S'N'
sS'.thisRepN'
p2662
I21
sg20
S'Y'
sg31
g32
sS'.thisTrialN'
p2663
I4
sS'.thisN'
p2664
I319
sS'.thisIndex'
p2665
I12
sg15
(lp2666
S'k'
asg30
VF
sg17
S'Y'
sg14
I7
sg19
Nsg94
I12
sa(dp2667
g16
(lp2668
S'k'
asg18
S'Y'
sS'.thisRepN'
p2669
I21
sg20
S'Y'
sg31
g32
sS'.thisTrialN'
p2670
I5
sS'.thisN'
p2671
I320
sS'.thisIndex'
p2672
I3
sg15
(lp2673
S'k'
asg30
VF
sg17
S'Y'
sg14
I7
sg19
(lp2674
S'space'
p2675
asg94
I3
sa(dp2676
g16
(lp2677
S'd'
asg18
S'N'
sS'.thisRepN'
p2678
I21
sg20
S'Y'
sg31
g32
sS'.thisTrialN'
p2679
I6
sS'.thisN'
p2680
I321
sS'.thisIndex'
p2681
I13
sg15
(lp2682
S'd'
asg30
VF
sg17
S'Y'
sg14
I7
sg19
Nsg94
I13
sa(dp2683
g16
(lp2684
S'k'
asg18
S'N'
sS'.thisRepN'
p2685
I21
sg20
S'Y'
sg31
g32
sS'.thisTrialN'
p2686
I7
sS'.thisN'
p2687
I322
sS'.thisIndex'
p2688
I5
sg15
(lp2689
S'k'
asg30
VF
sg17
S'Y'
sg14
I7
sg19
Nsg94
I5
sa(dp2690
g16
(lp2691
S'd'
asg18
S'Y'
sS'.thisRepN'
p2692
I21
sg20
S'Y'
sg31
g32
sS'.thisTrialN'
p2693
I8
sS'.thisN'
p2694
I323
sS'.thisIndex'
p2695
I14
sg15
(lp2696
S'k'
asg30
VF
sg17
S'N'
sg14
I7
sg19
(lp2697
S'space'
p2698
asg94
I14
sa(dp2699
g16
(lp2700
S'd'
asg18
S'N'
sS'.thisRepN'
p2701
I21
sg20
S'N'
sg31
g32
sS'.thisTrialN'
p2702
I9
sS'.thisN'
p2703
I324
sS'.thisIndex'
p2704
I13
sg15
(lp2705
S'd'
asg30
VF
sg17
S'Y'
sg14
I7
sg19
(lp2706
S'space'
p2707
asg94
I13
sa(dp2708
g16
(lp2709
S'k'
asg18
S'Y'
sS'.thisRepN'
p2710
I21
sg20
S'Y'
sg31
g32
sS'.thisTrialN'
p2711
I10
sS'.thisN'
p2712
I325
sS'.thisIndex'
p2713
I6
sg15
(lp2714
S'k'
asg30
VF
sg17
S'Y'
sg14
I7
sg19
(lp2715
S'space'
p2716
asg94
I6
sa(dp2717
g16
(lp2718
S'k'
asg18
S'Y'
sS'.thisRepN'
p2719
I21
sg20
S'Y'
sg31
g32
sS'.thisTrialN'
p2720
I11
sS'.thisN'
p2721
I326
sS'.thisIndex'
p2722
I13
sg15
(lp2723
S'k'
asg30
VF
sg17
S'Y'
sg14
I7
sg19
(lp2724
S'space'
p2725
asg94
I13
sa(dp2726
g16
(lp2727
S'k'
asg18
S'Y'
sS'.thisRepN'
p2728
I21
sg20
S'Y'
sg31
g32
sS'.thisTrialN'
p2729
I12
sS'.thisN'
p2730
I327
sS'.thisIndex'
p2731
I3
sg15
(lp2732
S'k'
asg30
VF
sg17
S'Y'
sg14
I7
sg19
(lp2733
S'space'
p2734
asg94
I3
sa(dp2735
g16
(lp2736
S'k'
asg18
S'N'
sS'.thisRepN'
p2737
I21
sg20
S'Y'
sg31
g32
sS'.thisTrialN'
p2738
I13
sS'.thisN'
p2739
I328
sS'.thisIndex'
p2740
I6
sg15
(lp2741
S'k'
asg30
VF
sg17
S'Y'
sg14
I7
sg19
Nsg94
I6
sa(dp2742
g16
(lp2743
S'd'
asg18
S'Y'
sS'.thisRepN'
p2744
I21
sg20
S'Y'
sg31
g32
sS'.thisTrialN'
p2745
I14
sS'.thisN'
p2746
I329
sS'.thisIndex'
p2747
I13
sg15
(lp2748
S'd'
asg30
VF
sg17
S'Y'
sg14
I7
sg19
(lp2749
S'space'
p2750
asg94
I13
sa(dp2751
g16
(lp2752
S'k'
asg18
S'Y'
sS'.thisRepN'
p2753
I22
sg20
S'Y'
sg31
g32
sS'.thisTrialN'
p2754
I0
sS'.thisN'
p2755
I330
sS'.thisIndex'
p2756
I2
sg15
(lp2757
S'k'
asg30
VF
sg17
S'Y'
sg14
I7
sg19
(lp2758
S'space'
p2759
asg94
I2
sa(dp2760
g16
(lp2761
S'k'
asg18
S'N'
sS'.thisRepN'
p2762
I22
sg20
S'N'
sg31
g32
sS'.thisTrialN'
p2763
I1
sS'.thisN'
p2764
I331
sS'.thisIndex'
p2765
I6
sg15
(lp2766
S'k'
asg30
VF
sg17
S'Y'
sg14
I7
sg19
(lp2767
S'space'
p2768
asg94
I6
sa(dp2769
g16
(lp2770
S'd'
asg18
S'N'
sS'.thisRepN'
p2771
I22
sg20
S'Y'
sg31
g32
sS'.thisTrialN'
p2772
I2
sS'.thisN'
p2773
I332
sS'.thisIndex'
p2774
I12
sg15
(lp2775
S'd'
asg30
VF
sg17
S'Y'
sg14
I7
sg19
Nsg94
I12
sa(dp2776
g16
(lp2777
S'd'
asg18
S'N'
sS'.thisRepN'
p2778
I22
sg20
S'N'
sg31
g32
sS'.thisTrialN'
p2779
I3
sS'.thisN'
p2780
I333
sS'.thisIndex'
p2781
I12
sg15
(lp2782
S'k'
asg30
VF
sg17
S'N'
sg14
I7
sg19
(lp2783
S'space'
p2784
asg94
I12
sa(dp2785
g16
(lp2786
S'k'
asg18
S'Y'
sS'.thisRepN'
p2787
I22
sg20
S'N'
sg31
g32
sS'.thisTrialN'
p2788
I4
sS'.thisN'
p2789
I334
sS'.thisIndex'
p2790
I8
sg15
(lp2791
S'k'
asg30
VF
sg17
S'Y'
sg14
I7
sg19
Nsg94
I8
sa(dp2792
g16
(lp2793
S'k'
asg18
S'Y'
sS'.thisRepN'
p2794
I22
sg20
S'Y'
sg31
g32
sS'.thisTrialN'
p2795
I5
sS'.thisN'
p2796
I335
sS'.thisIndex'
p2797
I1
sg15
(lp2798
S'k'
asg30
VF
sg17
S'Y'
sg14
I7
sg19
(lp2799
S'space'
p2800
asg94
I1
sa(dp2801
g16
(lp2802
S'd'
asg18
S'Y'
sS'.thisRepN'
p2803
I22
sg20
S'Y'
sg31
g32
sS'.thisTrialN'
p2804
I6
sS'.thisN'
p2805
I336
sS'.thisIndex'
p2806
I2
sg15
(lp2807
S'd'
asg30
VF
sg17
S'Y'
sg14
I7
sg19
(lp2808
S'space'
p2809
asg94
I2
sa(dp2810
g16
(lp2811
S'd'
asg18
S'N'
sS'.thisRepN'
p2812
I22
sg20
S'Y'
sg31
g32
sS'.thisTrialN'
p2813
I7
sS'.thisN'
p2814
I337
sS'.thisIndex'
p2815
I9
sg15
(lp2816
S'd'
asg30
VF
sg17
S'Y'
sg14
I7
sg19
Nsg94
I9
sa(dp2817
g16
(lp2818
S'k'
asg18
S'N'
sS'.thisRepN'
p2819
I22
sg20
S'Y'
sg31
g32
sS'.thisTrialN'
p2820
I8
sS'.thisN'
p2821
I338
sS'.thisIndex'
p2822
I14
sg15
(lp2823
S'k'
asg30
VF
sg17
S'Y'
sg14
I7
sg19
Nsg94
I14
sa(dp2824
g16
(lp2825
S'd'
asg18
S'Y'
sS'.thisRepN'
p2826
I22
sg20
S'Y'
sg31
g32
sS'.thisTrialN'
p2827
I9
sS'.thisN'
p2828
I339
sS'.thisIndex'
p2829
I8
sg15
(lp2830
S'd'
asg30
VF
sg17
S'Y'
sg14
I7
sg19
(lp2831
S'space'
p2832
asg94
I8
sa(dp2833
g16
(lp2834
S'k'
asg18
S'N'
sS'.thisRepN'
p2835
I22
sg20
S'Y'
sg31
g32
sS'.thisTrialN'
p2836
I10
sS'.thisN'
p2837
I340
sS'.thisIndex'
p2838
I7
sg15
(lp2839
S'k'
asg30
VF
sg17
S'Y'
sg14
I7
sg19
Nsg94
I7
sa(dp2840
g16
(lp2841
S'd'
asg18
S'Y'
sS'.thisRepN'
p2842
I22
sg20
S'N'
sg31
g32
sS'.thisTrialN'
p2843
I11
sS'.thisN'
p2844
I341
sS'.thisIndex'
p2845
I6
sg15
(lp2846
S'd'
asg30
VF
sg17
S'Y'
sg14
I7
sg19
Nsg94
I6
sa(dp2847
g16
(lp2848
S'k'
asg18
S'N'
sS'.thisRepN'
p2849
I22
sg20
S'Y'
sg31
g32
sS'.thisTrialN'
p2850
I12
sS'.thisN'
p2851
I342
sS'.thisIndex'
p2852
I3
sg15
(lp2853
S'd'
asg30
VF
sg17
S'N'
sg14
I7
sg19
Nsg94
I3
sa(dp2854
g16
(lp2855
S'k'
asg18
S'Y'
sS'.thisRepN'
p2856
I22
sg20
S'Y'
sg31
g32
sS'.thisTrialN'
p2857
I13
sS'.thisN'
p2858
I343
sS'.thisIndex'
p2859
I2
sg15
(lp2860
S'k'
asg30
VF
sg17
S'Y'
sg14
I7
sg19
(lp2861
S'space'
p2862
asg94
I2
sa(dp2863
g16
(lp2864
S'd'
asg18
S'Y'
sS'.thisRepN'
p2865
I22
sg20
S'Y'
sg31
g32
sS'.thisTrialN'
p2866
I14
sS'.thisN'
p2867
I344
sS'.thisIndex'
p2868
I7
sg15
(lp2869
S'd'
asg30
VF
sg17
S'Y'
sg14
I7
sg19
(lp2870
S'space'
p2871
asg94
I7
sa(dp2872
g16
(lp2873
S'k'
asg18
S'N'
sS'.thisRepN'
p2874
I23
sg20
S'Y'
sg31
g32
sS'.thisTrialN'
p2875
I0
sS'.thisN'
p2876
I345
sS'.thisIndex'
p2877
I4
sg15
(lp2878
S'k'
asg30
VF
sg17
S'Y'
sg14
I7
sg19
Nsg94
I4
sa(dp2879
g16
(lp2880
S'd'
asg18
S'N'
sS'.thisRepN'
p2881
I23
sg20
S'Y'
sg31
g32
sS'.thisTrialN'
p2882
I1
sS'.thisN'
p2883
I346
sS'.thisIndex'
p2884
I13
sg15
(lp2885
S'd'
asg30
VF
sg17
S'Y'
sg14
I7
sg19
Nsg94
I13
sa(dp2886
g16
(lp2887
S'k'
asg18
S'N'
sS'.thisRepN'
p2888
I23
sg20
S'Y'
sg31
g32
sS'.thisTrialN'
p2889
I2
sS'.thisN'
p2890
I347
sS'.thisIndex'
p2891
I11
sg15
(lp2892
S'k'
asg30
VF
sg17
S'Y'
sg14
I7
sg19
Nsg94
I11
sa(dp2893
g16
(lp2894
S'd'
asg18
S'N'
sS'.thisRepN'
p2895
I23
sg20
S'N'
sg31
g32
sS'.thisTrialN'
p2896
I3
sS'.thisN'
p2897
I348
sS'.thisIndex'
p2898
I0
sg15
(lp2899
S'd'
asg30
VF
sg17
S'Y'
sg14
I7
sg19
(lp2900
S'space'
p2901
asg94
I0
sa(dp2902
g16
(lp2903
S'k'
asg18
S'N'
sg22
I39
sS'.thisN'
p2904
I349
sg20
S'N'
sg31
g32
sS'.thisTrialN'
p2905
I4
sS'.thisRepN'
p2906
I23
sg21
I44
sS'.thisIndex'
p2907
I1
sg23
I25
sg15
(lp2908
S'k'
asg30
VF
sg17
S'Y'
sg14
I7
sg19
(lp2909
S'space'
p2910
asg94
I1
sa(dp2911
g16
(lp2912
S'd'
asg94
I1
sS'.thisRepN'
p2913
I23
sg30
VF
sg31
g32
sS'.thisTrialN'
p2914
I5
sS'.thisN'
p2915
I350
sS'.thisIndex'
p2916
I1
sg15
(lp2917
S'd'
asg17
S'Y'
sg14
I8
sa(dp2918
g16
(lp2919
S'k'
asg94
I3
sS'.thisRepN'
p2920
I23
sg30
VF
sg31
g32
sS'.thisTrialN'
p2921
I6
sS'.thisN'
p2922
I351
sS'.thisIndex'
p2923
I3
sg15
(lp2924
S'k'
asg17
S'Y'
sg14
I8
sa(dp2925
g16
(lp2926
S'k'
asg18
S'N'
sS'.thisRepN'
p2927
I23
sg20
S'Y'
sg31
g32
sS'.thisTrialN'
p2928
I7
sS'.thisN'
p2929
I352
sS'.thisIndex'
p2930
I14
sg15
(lp2931
S'd'
asg30
VF
sg17
S'N'
sg14
I8
sg19
Nsg94
I14
sa(dp2932
g16
(lp2933
S'k'
asg18
S'Y'
sS'.thisRepN'
p2934
I23
sg20
S'Y'
sg31
g32
sS'.thisTrialN'
p2935
I8
sS'.thisN'
p2936
I353
sS'.thisIndex'
p2937
I8
sg15
(lp2938
S'k'
asg30
VF
sg17
S'Y'
sg14
I8
sg19
(lp2939
S'space'
p2940
asg94
I8
sa(dp2941
g16
(lp2942
S'd'
asg18
S'N'
sS'.thisRepN'
p2943
I23
sg20
S'Y'
sg31
g32
sS'.thisTrialN'
p2944
I9
sS'.thisN'
p2945
I354
sS'.thisIndex'
p2946
I5
sg15
(lp2947
S'd'
asg30
VF
sg17
S'Y'
sg14
I8
sg19
Nsg94
I5
sa(dp2948
g16
(lp2949
S'k'
asg18
S'Y'
sS'.thisRepN'
p2950
I23
sg20
S'Y'
sg31
g32
sS'.thisTrialN'
p2951
I10
sS'.thisN'
p2952
I355
sS'.thisIndex'
p2953
I11
sg15
(lp2954
S'k'
asg30
VF
sg17
S'Y'
sg14
I8
sg19
(lp2955
S'space'
p2956
asg94
I11
sa(dp2957
g16
(lp2958
S'k'
asg18
S'N'
sS'.thisRepN'
p2959
I23
sg20
S'N'
sg31
g32
sS'.thisTrialN'
p2960
I11
sS'.thisN'
p2961
I356
sS'.thisIndex'
p2962
I0
sg15
(lp2963
S'k'
asg30
VF
sg17
S'Y'
sg14
I8
sg19
(lp2964
S'space'
p2965
asg94
I0
sa(dp2966
g16
(lp2967
S'k'
asg18
S'N'
sS'.thisRepN'
p2968
I23
sg20
S'Y'
sg31
g32
sS'.thisTrialN'
p2969
I12
sS'.thisN'
p2970
I357
sS'.thisIndex'
p2971
I3
sg15
(lp2972
S'k'
asg30
VF
sg17
S'Y'
sg14
I8
sg19
Nsg94
I3
sa(dp2973
g16
(lp2974
S'k'
asg18
S'Y'
sS'.thisRepN'
p2975
I23
sg20
S'Y'
sg31
g32
sS'.thisTrialN'
p2976
I13
sS'.thisN'
p2977
I358
sS'.thisIndex'
p2978
I12
sg15
(lp2979
S'd'
asg30
VF
sg17
S'N'
sg14
I8
sg19
(lp2980
S'space'
p2981
asg94
I12
sa(dp2982
g16
(lp2983
S'k'
asg18
S'Y'
sS'.thisRepN'
p2984
I23
sg20
S'Y'
sg31
g32
sS'.thisTrialN'
p2985
I14
sS'.thisN'
p2986
I359
sS'.thisIndex'
p2987
I4
sg15
(lp2988
S'k'
asg30
VF
sg17
S'Y'
sg14
I8
sg19
(lp2989
S'space'
p2990
asg94
I4
sa(dp2991
g16
(lp2992
S'd'
asg18
S'N'
sS'.thisRepN'
p2993
I24
sg20
S'Y'
sg31
g32
sS'.thisTrialN'
p2994
I0
sS'.thisN'
p2995
I360
sS'.thisIndex'
p2996
I2
sg15
(lp2997
S'd'
asg30
VF
sg17
S'Y'
sg14
I8
sg19
Nsg94
I2
sa(dp2998
g16
(lp2999
S'k'
asg18
S'N'
sS'.thisRepN'
p3000
I24
sg20
S'N'
sg31
g32
sS'.thisTrialN'
p3001
I1
sS'.thisN'
p3002
I361
sS'.thisIndex'
p3003
I9
sg15
(lp3004
S'k'
asg30
VF
sg17
S'Y'
sg14
I8
sg19
(lp3005
S'space'
p3006
asg94
I9
sa(dp3007
g16
(lp3008
S'k'
asg18
S'Y'
sS'.thisRepN'
p3009
I24
sg20
S'Y'
sg31
g32
sS'.thisTrialN'
p3010
I2
sS'.thisN'
p3011
I362
sS'.thisIndex'
p3012
I2
sg15
(lp3013
S'k'
asg30
VF
sg17
S'Y'
sg14
I8
sg19
(lp3014
S'space'
p3015
asg94
I2
sa(dp3016
g16
(lp3017
S'k'
asg18
S'N'
sS'.thisRepN'
p3018
I24
sg20
S'N'
sg31
g32
sS'.thisTrialN'
p3019
I3
sS'.thisN'
p3020
I363
sS'.thisIndex'
p3021
I0
sg15
(lp3022
S'k'
asg30
VF
sg17
S'Y'
sg14
I8
sg19
(lp3023
S'space'
p3024
asg94
I0
sa(dp3025
g16
(lp3026
S'd'
asg18
S'N'
sS'.thisRepN'
p3027
I24
sg20
S'N'
sg31
g32
sS'.thisTrialN'
p3028
I4
sS'.thisN'
p3029
I364
sS'.thisIndex'
p3030
I11
sg15
(lp3031
S'd'
asg30
VF
sg17
S'Y'
sg14
I8
sg19
(lp3032
S'space'
p3033
asg94
I11
sa(dp3034
g16
(lp3035
S'k'
asg18
S'Y'
sS'.thisRepN'
p3036
I24
sg20
S'N'
sg31
g32
sS'.thisTrialN'
p3037
I5
sS'.thisN'
p3038
I365
sS'.thisIndex'
p3039
I3
sg15
(lp3040
S'k'
asg30
VF
sg17
S'Y'
sg14
I8
sg19
Nsg94
I3
sa(dp3041
g16
(lp3042
S'd'
asg18
S'N'
sS'.thisRepN'
p3043
I24
sg20
S'N'
sg31
g32
sS'.thisTrialN'
p3044
I6
sS'.thisN'
p3045
I366
sS'.thisIndex'
p3046
I13
sg15
(lp3047
S'k'
asg30
VF
sg17
S'N'
sg14
I8
sg19
(lp3048
S'space'
p3049
asg94
I13
sa(dp3050
g16
(lp3051
S'd'
asg18
S'Y'
sS'.thisRepN'
p3052
I24
sg20
S'Y'
sg31
g32
sS'.thisTrialN'
p3053
I7
sS'.thisN'
p3054
I367
sS'.thisIndex'
p3055
I8
sg15
(lp3056
S'd'
asg30
VF
sg17
S'Y'
sg14
I8
sg19
(lp3057
S'space'
p3058
asg94
I8
sa(dp3059
g16
(lp3060
S'd'
asg18
S'N'
sS'.thisRepN'
p3061
I24
sg20
S'Y'
sg31
g32
sS'.thisTrialN'
p3062
I8
sS'.thisN'
p3063
I368
sS'.thisIndex'
p3064
I12
sg15
(lp3065
S'd'
asg30
VF
sg17
S'Y'
sg14
I8
sg19
Nsg94
I12
sa(dp3066
g16
(lp3067
S'k'
asg18
S'Y'
sS'.thisRepN'
p3068
I24
sg20
S'Y'
sg31
g32
sS'.thisTrialN'
p3069
I9
sS'.thisN'
p3070
I369
sS'.thisIndex'
p3071
I14
sg15
(lp3072
S'k'
asg30
VF
sg17
S'Y'
sg14
I8
sg19
(lp3073
S'space'
p3074
asg94
I14
sa(dp3075
g16
(lp3076
S'd'
asg18
S'N'
sS'.thisRepN'
p3077
I24
sg20
S'Y'
sg31
g32
sS'.thisTrialN'
p3078
I10
sS'.thisN'
p3079
I370
sS'.thisIndex'
p3080
I10
sg15
(lp3081
S'd'
asg30
VF
sg17
S'Y'
sg14
I8
sg19
Nsg94
I10
sa(dp3082
g16
(lp3083
S'k'
asg18
S'N'
sS'.thisRepN'
p3084
I24
sg20
S'Y'
sg31
g32
sS'.thisTrialN'
p3085
I11
sS'.thisN'
p3086
I371
sS'.thisIndex'
p3087
I9
sg15
(lp3088
S'k'
asg30
VF
sg17
S'Y'
sg14
I8
sg19
Nsg94
I9
sa(dp3089
g16
(lp3090
S'd'
asg18
S'Y'
sS'.thisRepN'
p3091
I24
sg20
S'Y'
sg31
g32
sS'.thisTrialN'
p3092
I12
sS'.thisN'
p3093
I372
sS'.thisIndex'
p3094
I5
sg15
(lp3095
S'd'
asg30
VF
sg17
S'Y'
sg14
I8
sg19
(lp3096
S'space'
p3097
asg94
I5
sa(dp3098
g16
(lp3099
S'd'
asg18
S'N'
sS'.thisRepN'
p3100
I24
sg20
S'Y'
sg31
g32
sS'.thisTrialN'
p3101
I13
sS'.thisN'
p3102
I373
sS'.thisIndex'
p3103
I12
sg15
(lp3104
S'k'
asg30
VF
sg17
S'N'
sg14
I8
sg19
Nsg94
I12
sa(dp3105
g16
(lp3106
S'd'
asg18
S'Y'
sS'.thisRepN'
p3107
I24
sg20
S'N'
sg31
g32
sS'.thisTrialN'
p3108
I14
sS'.thisN'
p3109
I374
sS'.thisIndex'
p3110
I7
sg15
(lp3111
S'd'
asg30
VF
sg17
S'Y'
sg14
I8
sg19
Nsg94
I7
sa(dp3112
g16
(lp3113
S'k'
asg18
S'N'
sS'.thisRepN'
p3114
I25
sg20
S'Y'
sg31
g32
sS'.thisTrialN'
p3115
I0
sS'.thisN'
p3116
I375
sS'.thisIndex'
p3117
I1
sg15
(lp3118
S'k'
asg30
VF
sg17
S'Y'
sg14
I8
sg19
Nsg94
I1
sa(dp3119
g16
(lp3120
S'd'
asg18
S'N'
sS'.thisRepN'
p3121
I25
sg20
S'Y'
sg31
g32
sS'.thisTrialN'
p3122
I1
sS'.thisN'
p3123
I376
sS'.thisIndex'
p3124
I6
sg15
(lp3125
S'd'
asg30
VF
sg17
S'Y'
sg14
I8
sg19
Nsg94
I6
sa(dp3126
g16
(lp3127
S'k'
asg18
S'N'
sS'.thisRepN'
p3128
I25
sg20
S'Y'
sg31
g32
sS'.thisTrialN'
p3129
I2
sS'.thisN'
p3130
I377
sS'.thisIndex'
p3131
I6
sg15
(lp3132
S'k'
asg30
VF
sg17
S'Y'
sg14
I8
sg19
Nsg94
I6
sa(dp3133
g16
(lp3134
S'k'
asg18
S'N'
sS'.thisRepN'
p3135
I25
sg20
S'N'
sg31
g32
sS'.thisTrialN'
p3136
I3
sS'.thisN'
p3137
I378
sS'.thisIndex'
p3138
I3
sg15
(lp3139
S'k'
asg30
VF
sg17
S'Y'
sg14
I8
sg19
(lp3140
S'space'
p3141
asg94
I3
sa(dp3142
g16
(lp3143
S'k'
asg18
S'N'
sS'.thisRepN'
p3144
I25
sg20
S'Y'
sg31
g32
sS'.thisTrialN'
p3145
I4
sS'.thisN'
p3146
I379
sS'.thisIndex'
p3147
I0
sg15
(lp3148
S'k'
asg30
VF
sg17
S'Y'
sg14
I8
sg19
Nsg94
I0
sa(dp3149
g16
(lp3150
S'k'
asg18
S'Y'
sS'.thisRepN'
p3151
I25
sg20
S'N'
sg31
g32
sS'.thisTrialN'
p3152
I5
sS'.thisN'
p3153
I380
sS'.thisIndex'
p3154
I8
sg15
(lp3155
S'k'
asg30
VF
sg17
S'Y'
sg14
I8
sg19
Nsg94
I8
sa(dp3156
g16
(lp3157
S'd'
asg18
S'Y'
sS'.thisRepN'
p3158
I25
sg20
S'Y'
sg31
g32
sS'.thisTrialN'
p3159
I6
sS'.thisN'
p3160
I381
sS'.thisIndex'
p3161
I11
sg15
(lp3162
S'd'
asg30
VF
sg17
S'Y'
sg14
I8
sg19
(lp3163
S'space'
p3164
asg94
I11
sa(dp3165
g16
(lp3166
S'k'
asg18
S'Y'
sS'.thisRepN'
p3167
I25
sg20
S'Y'
sg31
g32
sS'.thisTrialN'
p3168
I7
sS'.thisN'
p3169
I382
sS'.thisIndex'
p3170
I6
sg15
(lp3171
S'k'
asg30
VF
sg17
S'Y'
sg14
I8
sg19
(lp3172
S'space'
p3173
asg94
I6
sa(dp3174
g16
(lp3175
S'd'
asg18
S'N'
sS'.thisRepN'
p3176
I25
sg20
S'N'
sg31
g32
sS'.thisTrialN'
p3177
I8
sS'.thisN'
p3178
I383
sS'.thisIndex'
p3179
I6
sg15
(lp3180
S'd'
asg30
VF
sg17
S'Y'
sg14
I8
sg19
(lp3181
S'space'
p3182
asg94
I6
sa(dp3183
g16
(lp3184
S'k'
asg18
S'Y'
sS'.thisRepN'
p3185
I25
sg20
S'N'
sg31
g32
sS'.thisTrialN'
p3186
I9
sS'.thisN'
p3187
I384
sS'.thisIndex'
p3188
I8
sg15
(lp3189
S'k'
asg30
VF
sg17
S'Y'
sg14
I8
sg19
Nsg94
I8
sa(dp3190
g16
(lp3191
S'd'
asg18
S'N'
sS'.thisRepN'
p3192
I25
sg20
S'Y'
sg31
g32
sS'.thisTrialN'
p3193
I10
sS'.thisN'
p3194
I385
sS'.thisIndex'
p3195
I9
sg15
(lp3196
S'd'
asg30
VF
sg17
S'Y'
sg14
I8
sg19
Nsg94
I9
sa(dp3197
g16
(lp3198
S'd'
asg18
S'Y'
sS'.thisRepN'
p3199
I25
sg20
S'Y'
sg31
g32
sS'.thisTrialN'
p3200
I11
sS'.thisN'
p3201
I386
sS'.thisIndex'
p3202
I9
sg15
(lp3203
S'd'
asg30
VF
sg17
S'Y'
sg14
I8
sg19
(lp3204
S'space'
p3205
asg94
I9
sa(dp3206
g16
(lp3207
S'k'
asg18
S'Y'
sS'.thisRepN'
p3208
I25
sg20
S'Y'
sg31
g32
sS'.thisTrialN'
p3209
I12
sS'.thisN'
p3210
I387
sS'.thisIndex'
p3211
I9
sg15
(lp3212
S'k'
asg30
VF
sg17
S'Y'
sg14
I8
sg19
(lp3213
S'space'
p3214
asg94
I9
sa(dp3215
g16
(lp3216
S'k'
asg18
S'Y'
sS'.thisRepN'
p3217
I25
sg20
S'N'
sg31
g32
sS'.thisTrialN'
p3218
I13
sS'.thisN'
p3219
I388
sS'.thisIndex'
p3220
I11
sg15
(lp3221
S'd'
asg30
VF
sg17
S'N'
sg14
I8
sg19
Nsg94
I11
sa(dp3222
g16
(lp3223
S'k'
asg18
S'N'
sS'.thisRepN'
p3224
I25
sg20
S'Y'
sg31
g32
sS'.thisTrialN'
p3225
I14
sS'.thisN'
p3226
I389
sS'.thisIndex'
p3227
I8
sg15
(lp3228
S'k'
asg30
VF
sg17
S'Y'
sg14
I8
sg19
Nsg94
I8
sa(dp3229
g16
(lp3230
S'k'
asg18
S'Y'
sS'.thisRepN'
p3231
I26
sg20
S'Y'
sg31
g32
sS'.thisTrialN'
p3232
I0
sS'.thisN'
p3233
I390
sS'.thisIndex'
p3234
I7
sg15
(lp3235
S'k'
asg30
VF
sg17
S'Y'
sg14
I8
sg19
(lp3236
S'space'
p3237
asg94
I7
sa(dp3238
g16
(lp3239
S'k'
asg18
S'N'
sS'.thisRepN'
p3240
I26
sg20
S'N'
sg31
g32
sS'.thisTrialN'
p3241
I1
sS'.thisN'
p3242
I391
sS'.thisIndex'
p3243
I13
sg15
(lp3244
S'k'
asg30
VF
sg17
S'Y'
sg14
I8
sg19
(lp3245
S'space'
p3246
asg94
I13
sa(dp3247
g16
(lp3248
S'd'
asg18
S'Y'
sS'.thisRepN'
p3249
I26
sg20
S'N'
sg31
g32
sS'.thisTrialN'
p3250
I2
sS'.thisN'
p3251
I392
sS'.thisIndex'
p3252
I11
sg15
(lp3253
S'd'
asg30
VF
sg17
S'Y'
sg14
I8
sg19
Nsg94
I11
sa(dp3254
g16
(lp3255
S'd'
asg18
S'Y'
sS'.thisRepN'
p3256
I26
sg20
S'Y'
sg31
g32
sS'.thisTrialN'
p3257
I3
sS'.thisN'
p3258
I393
sS'.thisIndex'
p3259
I14
sg15
(lp3260
S'd'
asg30
VF
sg17
S'Y'
sg14
I8
sg19
(lp3261
S'space'
p3262
asg94
I14
sa(dp3263
g16
(lp3264
S'k'
asg18
S'Y'
sS'.thisRepN'
p3265
I26
sg20
S'Y'
sg31
g32
sS'.thisTrialN'
p3266
I4
sS'.thisN'
p3267
I394
sS'.thisIndex'
p3268
I1
sg15
(lp3269
S'k'
asg30
VF
sg17
S'Y'
sg14
I8
sg19
(lp3270
S'space'
p3271
asg94
I1
sa(dp3272
g16
(lp3273
S'd'
asg18
S'N'
sS'.thisRepN'
p3274
I26
sg20
S'Y'
sg31
g32
sS'.thisTrialN'
p3275
I5
sS'.thisN'
p3276
I395
sS'.thisIndex'
p3277
I7
sg15
(lp3278
S'k'
asg30
VF
sg17
S'N'
sg14
I8
sg19
Nsg94
I7
sa(dp3279
g16
(lp3280
S'd'
asg18
S'N'
sS'.thisRepN'
p3281
I26
sg20
S'Y'
sg31
g32
sS'.thisTrialN'
p3282
I6
sS'.thisN'
p3283
I396
sS'.thisIndex'
p3284
I4
sg15
(lp3285
S'd'
asg30
VF
sg17
S'Y'
sg14
I8
sg19
Nsg94
I4
sa(dp3286
g16
(lp3287
S'd'
asg18
S'N'
sS'.thisRepN'
p3288
I26
sg20
S'Y'
sg31
g32
sS'.thisTrialN'
p3289
I7
sS'.thisN'
p3290
I397
sS'.thisIndex'
p3291
I6
sg15
(lp3292
S'd'
asg30
VF
sg17
S'Y'
sg14
I8
sg19
Nsg94
I6
sa(dp3293
g16
(lp3294
S'k'
asg18
S'Y'
sS'.thisRepN'
p3295
I26
sg20
S'Y'
sg31
g32
sS'.thisTrialN'
p3296
I8
sS'.thisN'
p3297
I398
sS'.thisIndex'
p3298
I4
sg15
(lp3299
S'k'
asg30
VF
sg17
S'Y'
sg14
I8
sg19
(lp3300
S'space'
p3301
asg94
I4
sa(dp3302
g16
(lp3303
S'd'
asg18
S'N'
sg22
I34
sS'.thisN'
p3304
I399
sg20
S'Y'
sg31
g32
sS'.thisTrialN'
p3305
I9
sS'.thisRepN'
p3306
I26
sg21
I44
sS'.thisIndex'
p3307
I7
sg23
I22
sg15
(lp3308
S'd'
asg30
VF
sg17
S'Y'
sg14
I8
sg19
Nsg94
I7
sa(dp3309
g16
(lp3310
S'k'
asg94
I0
sS'.thisRepN'
p3311
I26
sg30
VF
sg31
g32
sS'.thisTrialN'
p3312
I10
sS'.thisN'
p3313
I400
sS'.thisIndex'
p3314
I0
sg15
(lp3315
S'k'
asg17
S'Y'
sg14
I9
sa(dp3316
g16
(lp3317
S'd'
asg94
I12
sS'.thisRepN'
p3318
I26
sg30
VF
sg31
g32
sS'.thisTrialN'
p3319
I11
sS'.thisN'
p3320
I401
sS'.thisIndex'
p3321
I12
sg15
(lp3322
S'd'
asg17
S'Y'
sg14
I9
sa(dp3323
g16
(lp3324
S'k'
asg18
S'N'
sS'.thisRepN'
p3325
I26
sg20
S'Y'
sg31
g32
sS'.thisTrialN'
p3326
I12
sS'.thisN'
p3327
I402
sS'.thisIndex'
p3328
I6
sg15
(lp3329
S'k'
asg30
VF
sg17
S'Y'
sg14
I9
sg19
Nsg94
I6
sa(dp3330
g16
(lp3331
S'd'
asg18
S'Y'
sS'.thisRepN'
p3332
I26
sg20
S'Y'
sg31
g32
sS'.thisTrialN'
p3333
I13
sS'.thisN'
p3334
I403
sS'.thisIndex'
p3335
I13
sg15
(lp3336
S'd'
asg30
VF
sg17
S'Y'
sg14
I9
sg19
(lp3337
S'space'
p3338
asg94
I13
sa(dp3339
g16
(lp3340
S'd'
asg18
S'Y'
sS'.thisRepN'
p3341
I26
sg20
S'Y'
sg31
g32
sS'.thisTrialN'
p3342
I14
sS'.thisN'
p3343
I404
sS'.thisIndex'
p3344
I6
sg15
(lp3345
S'd'
asg30
VF
sg17
S'Y'
sg14
I9
sg19
(lp3346
S'space'
p3347
asg94
I6
sa(dp3348
g16
(lp3349
S'k'
asg18
S'N'
sS'.thisRepN'
p3350
I27
sg20
S'Y'
sg31
g32
sS'.thisTrialN'
p3351
I0
sS'.thisN'
p3352
I405
sS'.thisIndex'
p3353
I7
sg15
(lp3354
S'k'
asg30
VF
sg17
S'Y'
sg14
I9
sg19
Nsg94
I7
sa(dp3355
g16
(lp3356
S'd'
asg18
S'Y'
sS'.thisRepN'
p3357
I27
sg20
S'Y'
sg31
g32
sS'.thisTrialN'
p3358
I1
sS'.thisN'
p3359
I406
sS'.thisIndex'
p3360
I12
sg15
(lp3361
S'k'
asg30
VF
sg17
S'N'
sg14
I9
sg19
(lp3362
S'space'
p3363
asg94
I12
sa(dp3364
g16
(lp3365
S'd'
asg18
S'N'
sS'.thisRepN'
p3366
I27
sg20
S'N'
sg31
g32
sS'.thisTrialN'
p3367
I2
sS'.thisN'
p3368
I407
sS'.thisIndex'
p3369
I4
sg15
(lp3370
S'k'
asg30
VF
sg17
S'N'
sg14
I9
sg19
(lp3371
S'space'
p3372
asg94
I4
sa(dp3373
g16
(lp3374
S'k'
asg18
S'Y'
sS'.thisRepN'
p3375
I27
sg20
S'Y'
sg31
g32
sS'.thisTrialN'
p3376
I3
sS'.thisN'
p3377
I408
sS'.thisIndex'
p3378
I4
sg15
(lp3379
S'k'
asg30
VF
sg17
S'Y'
sg14
I9
sg19
(lp3380
S'space'
p3381
asg94
I4
sa(dp3382
g16
(lp3383
S'k'
asg18
S'N'
sS'.thisRepN'
p3384
I27
sg20
S'Y'
sg31
g32
sS'.thisTrialN'
p3385
I4
sS'.thisN'
p3386
I409
sS'.thisIndex'
p3387
I2
sg15
(lp3388
S'k'
asg30
VF
sg17
S'Y'
sg14
I9
sg19
Nsg94
I2
sa(dp3389
g16
(lp3390
S'd'
asg18
S'N'
sS'.thisRepN'
p3391
I27
sg20
S'Y'
sg31
g32
sS'.thisTrialN'
p3392
I5
sS'.thisN'
p3393
I410
sS'.thisIndex'
p3394
I12
sg15
(lp3395
S'k'
asg30
VF
sg17
S'N'
sg14
I9
sg19
Nsg94
I12
sa(dp3396
g16
(lp3397
S'k'
asg18
S'N'
sS'.thisRepN'
p3398
I27
sg20
S'Y'
sg31
g32
sS'.thisTrialN'
p3399
I6
sS'.thisN'
p3400
I411
sS'.thisIndex'
p3401
I4
sg15
(lp3402
S'k'
asg30
VF
sg17
S'Y'
sg14
I9
sg19
Nsg94
I4
sa(dp3403
g16
(lp3404
S'd'
asg18
S'N'
sS'.thisRepN'
p3405
I27
sg20
S'Y'
sg31
g32
sS'.thisTrialN'
p3406
I7
sS'.thisN'
p3407
I412
sS'.thisIndex'
p3408
I14
sg15
(lp3409
S'd'
asg30
VF
sg17
S'Y'
sg14
I9
sg19
Nsg94
I14
sa(dp3410
g16
(lp3411
S'd'
asg18
S'Y'
sS'.thisRepN'
p3412
I27
sg20
S'Y'
sg31
g32
sS'.thisTrialN'
p3413
I8
sS'.thisN'
p3414
I413
sS'.thisIndex'
p3415
I3
sg15
(lp3416
S'k'
asg30
VF
sg17
S'N'
sg14
I9
sg19
(lp3417
S'space'
p3418
asg94
I3
sa(dp3419
g16
(lp3420
S'k'
asg18
S'N'
sS'.thisRepN'
p3421
I27
sg20
S'Y'
sg31
g32
sS'.thisTrialN'
p3422
I9
sS'.thisN'
p3423
I414
sS'.thisIndex'
p3424
I13
sg15
(lp3425
S'k'
asg30
VF
sg17
S'Y'
sg14
I9
sg19
Nsg94
I13
sa(dp3426
g16
(lp3427
S'd'
asg18
S'Y'
sS'.thisRepN'
p3428
I27
sg20
S'N'
sg31
g32
sS'.thisTrialN'
p3429
I10
sS'.thisN'
p3430
I415
sS'.thisIndex'
p3431
I9
sg15
(lp3432
S'd'
asg30
VF
sg17
S'Y'
sg14
I9
sg19
Nsg94
I9
sa(dp3433
g16
(lp3434
S'k'
asg18
S'Y'
sS'.thisRepN'
p3435
I27
sg20
S'Y'
sg31
g32
sS'.thisTrialN'
p3436
I11
sS'.thisN'
p3437
I416
sS'.thisIndex'
p3438
I3
sg15
(lp3439
S'k'
asg30
VF
sg17
S'Y'
sg14
I9
sg19
(lp3440
S'space'
p3441
asg94
I3
sa(dp3442
g16
(lp3443
S'd'
asg18
S'Y'
sS'.thisRepN'
p3444
I27
sg20
S'Y'
sg31
g32
sS'.thisTrialN'
p3445
I12
sS'.thisN'
p3446
I417
sS'.thisIndex'
p3447
I11
sg15
(lp3448
S'd'
asg30
VF
sg17
S'Y'
sg14
I9
sg19
(lp3449
S'space'
p3450
asg94
I11
sa(dp3451
g16
(lp3452
S'd'
asg18
S'Y'
sS'.thisRepN'
p3453
I27
sg20
S'Y'
sg31
g32
sS'.thisTrialN'
p3454
I13
sS'.thisN'
p3455
I418
sS'.thisIndex'
p3456
I11
sg15
(lp3457
S'd'
asg30
VF
sg17
S'Y'
sg14
I9
sg19
(lp3458
S'space'
p3459
asg94
I11
sa(dp3460
g16
(lp3461
S'd'
asg18
S'N'
sS'.thisRepN'
p3462
I27
sg20
S'N'
sg31
g32
sS'.thisTrialN'
p3463
I14
sS'.thisN'
p3464
I419
sS'.thisIndex'
p3465
I2
sg15
(lp3466
S'k'
asg30
VF
sg17
S'N'
sg14
I9
sg19
(lp3467
S'space'
p3468
asg94
I2
sa(dp3469
g16
(lp3470
S'd'
asg18
S'N'
sS'.thisRepN'
p3471
I28
sg20
S'Y'
sg31
g32
sS'.thisTrialN'
p3472
I0
sS'.thisN'
p3473
I420
sS'.thisIndex'
p3474
I11
sg15
(lp3475
S'd'
asg30
VF
sg17
S'Y'
sg14
I9
sg19
Nsg94
I11
sa(dp3476
g16
(lp3477
S'k'
asg18
S'Y'
sS'.thisRepN'
p3478
I28
sg20
S'N'
sg31
g32
sS'.thisTrialN'
p3479
I1
sS'.thisN'
p3480
I421
sS'.thisIndex'
p3481
I11
sg15
(lp3482
S'k'
asg30
VF
sg17
S'Y'
sg14
I9
sg19
Nsg94
I11
sa(dp3483
g16
(lp3484
S'd'
asg18
S'Y'
sS'.thisRepN'
p3485
I28
sg20
S'Y'
sg31
g32
sS'.thisTrialN'
p3486
I2
sS'.thisN'
p3487
I422
sS'.thisIndex'
p3488
I10
sg15
(lp3489
S'd'
asg30
VF
sg17
S'Y'
sg14
I9
sg19
(lp3490
S'space'
p3491
asg94
I10
sa(dp3492
g16
(lp3493
S'k'
asg18
S'N'
sS'.thisRepN'
p3494
I28
sg20
S'Y'
sg31
g32
sS'.thisTrialN'
p3495
I3
sS'.thisN'
p3496
I423
sS'.thisIndex'
p3497
I12
sg15
(lp3498
S'k'
asg30
VF
sg17
S'Y'
sg14
I9
sg19
Nsg94
I12
sa(dp3499
g16
(lp3500
S'k'
asg18
S'Y'
sS'.thisRepN'
p3501
I28
sg20
S'N'
sg31
g32
sS'.thisTrialN'
p3502
I4
sS'.thisN'
p3503
I424
sS'.thisIndex'
p3504
I14
sg15
(lp3505
S'd'
asg30
VF
sg17
S'N'
sg14
I9
sg19
Nsg94
I14
sa(dp3506
g16
(lp3507
S'k'
asg18
S'N'
sS'.thisRepN'
p3508
I28
sg20
S'Y'
sg31
g32
sS'.thisTrialN'
p3509
I5
sS'.thisN'
p3510
I425
sS'.thisIndex'
p3511
I14
sg15
(lp3512
S'k'
asg30
VF
sg17
S'Y'
sg14
I9
sg19
Nsg94
I14
sa(dp3513
g16
(lp3514
S'k'
asg18
S'Y'
sS'.thisRepN'
p3515
I28
sg20
S'Y'
sg31
g32
sS'.thisTrialN'
p3516
I6
sS'.thisN'
p3517
I426
sS'.thisIndex'
p3518
I3
sg15
(lp3519
S'd'
asg30
VF
sg17
S'N'
sg14
I9
sg19
(lp3520
S'space'
p3521
asg94
I3
sa(dp3522
g16
(lp3523
S'k'
asg18
S'Y'
sS'.thisRepN'
p3524
I28
sg20
S'N'
sg31
g32
sS'.thisTrialN'
p3525
I7
sS'.thisN'
p3526
I427
sS'.thisIndex'
p3527
I6
sg15
(lp3528
S'k'
asg30
VF
sg17
S'Y'
sg14
I9
sg19
Nsg94
I6
sa(dp3529
g16
(lp3530
S'd'
asg18
S'Y'
sS'.thisRepN'
p3531
I28
sg20
S'N'
sg31
g32
sS'.thisTrialN'
p3532
I8
sS'.thisN'
p3533
I428
sS'.thisIndex'
p3534
I2
sg15
(lp3535
S'd'
asg30
VF
sg17
S'Y'
sg14
I9
sg19
Nsg94
I2
sa(dp3536
g16
(lp3537
S'k'
asg18
S'Y'
sS'.thisRepN'
p3538
I28
sg20
S'Y'
sg31
g32
sS'.thisTrialN'
p3539
I9
sS'.thisN'
p3540
I429
sS'.thisIndex'
p3541
I10
sg15
(lp3542
S'k'
asg30
VF
sg17
S'Y'
sg14
I9
sg19
(lp3543
S'space'
p3544
asg94
I10
sa(dp3545
g16
(lp3546
S'k'
asg18
S'N'
sS'.thisRepN'
p3547
I28
sg20
S'Y'
sg31
g32
sS'.thisTrialN'
p3548
I10
sS'.thisN'
p3549
I430
sS'.thisIndex'
p3550
I10
sg15
(lp3551
S'k'
asg30
VF
sg17
S'Y'
sg14
I9
sg19
Nsg94
I10
sa(dp3552
g16
(lp3553
S'd'
asg18
S'Y'
sS'.thisRepN'
p3554
I28
sg20
S'Y'
sg31
g32
sS'.thisTrialN'
p3555
I11
sS'.thisN'
p3556
I431
sS'.thisIndex'
p3557
I7
sg15
(lp3558
S'd'
asg30
VF
sg17
S'Y'
sg14
I9
sg19
(lp3559
S'space'
p3560
asg94
I7
sa(dp3561
g16
(lp3562
S'k'
asg18
S'N'
sS'.thisRepN'
p3563
I28
sg20
S'Y'
sg31
g32
sS'.thisTrialN'
p3564
I12
sS'.thisN'
p3565
I432
sS'.thisIndex'
p3566
I1
sg15
(lp3567
S'k'
asg30
VF
sg17
S'Y'
sg14
I9
sg19
Nsg94
I1
sa(dp3568
g16
(lp3569
S'd'
asg18
S'N'
sS'.thisRepN'
p3570
I28
sg20
S'Y'
sg31
g32
sS'.thisTrialN'
p3571
I13
sS'.thisN'
p3572
I433
sS'.thisIndex'
p3573
I6
sg15
(lp3574
S'd'
asg30
VF
sg17
S'Y'
sg14
I9
sg19
Nsg94
I6
sa(dp3575
g16
(lp3576
S'd'
asg18
S'N'
sS'.thisRepN'
p3577
I28
sg20
S'Y'
sg31
g32
sS'.thisTrialN'
p3578
I14
sS'.thisN'
p3579
I434
sS'.thisIndex'
p3580
I0
sg15
(lp3581
S'd'
asg30
VF
sg17
S'Y'
sg14
I9
sg19
Nsg94
I0
sa(dp3582
g16
(lp3583
S'd'
asg18
S'N'
sS'.thisRepN'
p3584
I29
sg20
S'Y'
sg31
g32
sS'.thisTrialN'
p3585
I0
sS'.thisN'
p3586
I435
sS'.thisIndex'
p3587
I10
sg15
(lp3588
S'k'
asg30
VF
sg17
S'N'
sg14
I9
sg19
Nsg94
I10
sa(dp3589
g16
(lp3590
S'd'
asg18
S'N'
sS'.thisRepN'
p3591
I29
sg20
S'Y'
sg31
g32
sS'.thisTrialN'
p3592
I1
sS'.thisN'
p3593
I436
sS'.thisIndex'
p3594
I3
sg15
(lp3595
S'k'
asg30
VF
sg17
S'N'
sg14
I9
sg19
Nsg94
I3
sa(dp3596
g16
(lp3597
S'k'
asg18
S'Y'
sS'.thisRepN'
p3598
I29
sg20
S'Y'
sg31
g32
sS'.thisTrialN'
p3599
I2
sS'.thisN'
p3600
I437
sS'.thisIndex'
p3601
I5
sg15
(lp3602
S'k'
asg30
VF
sg17
S'Y'
sg14
I9
sg19
(lp3603
S'space'
p3604
asg94
I5
sa(dp3605
g16
(lp3606
S'k'
asg18
S'N'
sS'.thisRepN'
p3607
I29
sg20
S'Y'
sg31
g32
sS'.thisTrialN'
p3608
I3
sS'.thisN'
p3609
I438
sS'.thisIndex'
p3610
I8
sg15
(lp3611
S'k'
asg30
VF
sg17
S'Y'
sg14
I9
sg19
Nsg94
I8
sa(dp3612
g16
(lp3613
S'k'
asg18
S'N'
sS'.thisRepN'
p3614
I29
sg20
S'Y'
sg31
g32
sS'.thisTrialN'
p3615
I4
sS'.thisN'
p3616
I439
sS'.thisIndex'
p3617
I8
sg15
(lp3618
S'k'
asg30
VF
sg17
S'Y'
sg14
I9
sg19
Nsg94
I8
sa(dp3619
g16
(lp3620
S'k'
asg18
S'N'
sS'.thisRepN'
p3621
I29
sg20
S'N'
sg31
g32
sS'.thisTrialN'
p3622
I5
sS'.thisN'
p3623
I440
sS'.thisIndex'
p3624
I13
sg15
(lp3625
S'k'
asg30
VF
sg17
S'Y'
sg14
I9
sg19
(lp3626
S'space'
p3627
asg94
I13
sa(dp3628
g16
(lp3629
S'k'
asg18
S'N'
sS'.thisRepN'
p3630
I29
sg20
S'Y'
sg31
g32
sS'.thisTrialN'
p3631
I6
sS'.thisN'
p3632
I441
sS'.thisIndex'
p3633
I3
sg15
(lp3634
S'd'
asg30
VF
sg17
S'N'
sg14
I9
sg19
Nsg94
I3
sa(dp3635
g16
(lp3636
S'k'
asg18
S'Y'
sS'.thisRepN'
p3637
I29
sg20
S'Y'
sg31
g32
sS'.thisTrialN'
p3638
I7
sS'.thisN'
p3639
I442
sS'.thisIndex'
p3640
I6
sg15
(lp3641
S'k'
asg30
VF
sg17
S'Y'
sg14
I9
sg19
(lp3642
S'space'
p3643
asg94
I6
sa(dp3644
g16
(lp3645
S'k'
asg18
S'N'
sS'.thisRepN'
p3646
I29
sg20
S'N'
sg31
g32
sS'.thisTrialN'
p3647
I8
sS'.thisN'
p3648
I443
sS'.thisIndex'
p3649
I8
sg15
(lp3650
S'k'
asg30
VF
sg17
S'Y'
sg14
I9
sg19
(lp3651
S'space'
p3652
asg94
I8
sa(dp3653
g16
(lp3654
S'd'
asg18
S'N'
sS'.thisRepN'
p3655
I29
sg20
S'N'
sg31
g32
sS'.thisTrialN'
p3656
I9
sS'.thisN'
p3657
I444
sS'.thisIndex'
p3658
I14
sg15
(lp3659
S'd'
asg30
VF
sg17
S'Y'
sg14
I9
sg19
(lp3660
S'space'
p3661
asg94
I14
sa(dp3662
g16
(lp3663
S'd'
asg18
S'N'
sS'.thisRepN'
p3664
I29
sg20
S'Y'
sg31
g32
sS'.thisTrialN'
p3665
I10
sS'.thisN'
p3666
I445
sS'.thisIndex'
p3667
I0
sg15
(lp3668
S'k'
asg30
VF
sg17
S'N'
sg14
I9
sg19
Nsg94
I0
sa(dp3669
g16
(lp3670
S'k'
asg18
S'Y'
sS'.thisRepN'
p3671
I29
sg20
S'N'
sg31
g32
sS'.thisTrialN'
p3672
I11
sS'.thisN'
p3673
I446
sS'.thisIndex'
p3674
I4
sg15
(lp3675
S'k'
asg30
VF
sg17
S'Y'
sg14
I9
sg19
Nsg94
I4
sa(dp3676
g16
(lp3677
S'k'
asg18
S'Y'
sS'.thisRepN'
p3678
I29
sg20
S'Y'
sg31
g32
sS'.thisTrialN'
p3679
I12
sS'.thisN'
p3680
I447
sS'.thisIndex'
p3681
I3
sg15
(lp3682
S'k'
asg30
VF
sg17
S'Y'
sg14
I9
sg19
(lp3683
S'space'
p3684
asg94
I3
sa(dp3685
g16
(lp3686
S'k'
asg18
S'Y'
sS'.thisRepN'
p3687
I29
sg20
S'N'
sg31
g32
sS'.thisTrialN'
p3688
I13
sS'.thisN'
p3689
I448
sS'.thisIndex'
p3690
I3
sg15
(lp3691
S'k'
asg30
VF
sg17
S'Y'
sg14
I9
sg19
Nsg94
I3
sa(dp3692
g16
(lp3693
S'k'
asg18
S'Y'
sg22
I36
sS'.thisN'
p3694
I449
sg20
S'Y'
sg31
g32
sS'.thisTrialN'
p3695
I14
sS'.thisRepN'
p3696
I29
sg21
I38
sS'.thisIndex'
p3697
I8
sg23
I23
sg15
(lp3698
S'd'
asg30
VF
sg17
S'N'
sg14
I9
sg19
(lp3699
S'space'
p3700
asg94
I8
sa(dp3701
g16
(lp3702
S'k'
asg94
I7
sS'.thisRepN'
p3703
I30
sg30
VF
sg31
g32
sS'.thisTrialN'
p3704
I0
sS'.thisN'
p3705
I450
sS'.thisIndex'
p3706
I7
sg15
(lp3707
S'k'
asg17
S'Y'
sg14
I10
sa(dp3708
g16
(lp3709
S'k'
asg94
I13
sS'.thisRepN'
p3710
I30
sg30
VF
sg31
g32
sS'.thisTrialN'
p3711
I1
sS'.thisN'
p3712
I451
sS'.thisIndex'
p3713
I13
sg15
(lp3714
S'k'
asg17
S'Y'
sg14
I10
sa(dp3715
g16
(lp3716
S'd'
asg18
S'Y'
sS'.thisRepN'
p3717
I30
sg20
S'N'
sg31
g32
sS'.thisTrialN'
p3718
I2
sS'.thisN'
p3719
I452
sS'.thisIndex'
p3720
I8
sg15
(lp3721
S'k'
asg30
VF
sg17
S'N'
sg14
I10
sg19
Nsg94
I8
sa(dp3722
g16
(lp3723
S'd'
asg18
S'N'
sS'.thisRepN'
p3724
I30
sg20
S'Y'
sg31
g32
sS'.thisTrialN'
p3725
I3
sS'.thisN'
p3726
I453
sS'.thisIndex'
p3727
I6
sg15
(lp3728
S'd'
asg30
VF
sg17
S'Y'
sg14
I10
sg19
Nsg94
I6
sa(dp3729
g16
(lp3730
S'd'
asg18
S'Y'
sS'.thisRepN'
p3731
I30
sg20
S'Y'
sg31
g32
sS'.thisTrialN'
p3732
I4
sS'.thisN'
p3733
I454
sS'.thisIndex'
p3734
I10
sg15
(lp3735
S'd'
asg30
VF
sg17
S'Y'
sg14
I10
sg19
(lp3736
S'space'
p3737
asg94
I10
sa(dp3738
g16
(lp3739
S'k'
asg18
S'N'
sS'.thisRepN'
p3740
I30
sg20
S'Y'
sg31
g32
sS'.thisTrialN'
p3741
I5
sS'.thisN'
p3742
I455
sS'.thisIndex'
p3743
I2
sg15
(lp3744
S'k'
asg30
VF
sg17
S'Y'
sg14
I10
sg19
Nsg94
I2
sa(dp3745
g16
(lp3746
S'd'
asg18
S'N'
sS'.thisRepN'
p3747
I30
sg20
S'Y'
sg31
g32
sS'.thisTrialN'
p3748
I6
sS'.thisN'
p3749
I456
sS'.thisIndex'
p3750
I14
sg15
(lp3751
S'd'
asg30
VF
sg17
S'Y'
sg14
I10
sg19
Nsg94
I14
sa(dp3752
g16
(lp3753
S'k'
asg18
S'N'
sS'.thisRepN'
p3754
I30
sg20
S'Y'
sg31
g32
sS'.thisTrialN'
p3755
I7
sS'.thisN'
p3756
I457
sS'.thisIndex'
p3757
I7
sg15
(lp3758
S'k'
asg30
VF
sg17
S'Y'
sg14
I10
sg19
Nsg94
I7
sa(dp3759
g16
(lp3760
S'd'
asg18
S'N'
sS'.thisRepN'
p3761
I30
sg20
S'Y'
sg31
g32
sS'.thisTrialN'
p3762
I8
sS'.thisN'
p3763
I458
sS'.thisIndex'
p3764
I14
sg15
(lp3765
S'd'
asg30
VF
sg17
S'Y'
sg14
I10
sg19
Nsg94
I14
sa(dp3766
g16
(lp3767
S'k'
asg18
S'Y'
sS'.thisRepN'
p3768
I30
sg20
S'Y'
sg31
g32
sS'.thisTrialN'
p3769
I9
sS'.thisN'
p3770
I459
sS'.thisIndex'
p3771
I6
sg15
(lp3772
S'k'
asg30
VF
sg17
S'Y'
sg14
I10
sg19
(lp3773
S'space'
p3774
asg94
I6
sa(dp3775
g16
(lp3776
S'k'
asg18
S'Y'
sS'.thisRepN'
p3777
I30
sg20
S'N'
sg31
g32
sS'.thisTrialN'
p3778
I10
sS'.thisN'
p3779
I460
sS'.thisIndex'
p3780
I8
sg15
(lp3781
S'k'
asg30
VF
sg17
S'Y'
sg14
I10
sg19
(lp3782
S'k'
asg94
I8
sa(dp3783
g16
(lp3784
S'k'
asg18
S'N'
sS'.thisRepN'
p3785
I30
sg20
S'Y'
sg31
g32
sS'.thisTrialN'
p3786
I11
sS'.thisN'
p3787
I461
sS'.thisIndex'
p3788
I3
sg15
(lp3789
S'k'
asg30
VF
sg17
S'Y'
sg14
I10
sg19
Nsg94
I3
sa(dp3790
g16
(lp3791
S'd'
asg18
S'Y'
sS'.thisRepN'
p3792
I30
sg20
S'Y'
sg31
g32
sS'.thisTrialN'
p3793
I12
sS'.thisN'
p3794
I462
sS'.thisIndex'
p3795
I14
sg15
(lp3796
S'd'
asg30
VF
sg17
S'Y'
sg14
I10
sg19
(lp3797
S'space'
p3798
asg94
I14
sa(dp3799
g16
(lp3800
S'd'
asg18
S'N'
sS'.thisRepN'
p3801
I30
sg20
S'Y'
sg31
g32
sS'.thisTrialN'
p3802
I13
sS'.thisN'
p3803
I463
sS'.thisIndex'
p3804
I2
sg15
(lp3805
S'd'
asg30
VF
sg17
S'Y'
sg14
I10
sg19
Nsg94
I2
sa(dp3806
g16
(lp3807
S'd'
asg18
S'Y'
sS'.thisRepN'
p3808
I30
sg20
S'N'
sg31
g32
sS'.thisTrialN'
p3809
I14
sS'.thisN'
p3810
I464
sS'.thisIndex'
p3811
I1
sg15
(lp3812
S'd'
asg30
VF
sg17
S'Y'
sg14
I10
sg19
Nsg94
I1
sa(dp3813
g16
(lp3814
S'k'
asg18
S'N'
sS'.thisRepN'
p3815
I31
sg20
S'Y'
sg31
g32
sS'.thisTrialN'
p3816
I0
sS'.thisN'
p3817
I465
sS'.thisIndex'
p3818
I1
sg15
(lp3819
S'k'
asg30
VF
sg17
S'Y'
sg14
I10
sg19
Nsg94
I1
sa(dp3820
g16
(lp3821
S'k'
asg18
S'Y'
sS'.thisRepN'
p3822
I31
sg20
S'Y'
sg31
g32
sS'.thisTrialN'
p3823
I1
sS'.thisN'
p3824
I466
sS'.thisIndex'
p3825
I6
sg15
(lp3826
S'k'
asg30
VF
sg17
S'Y'
sg14
I10
sg19
(lp3827
S'space'
p3828
asg94
I6
sa(dp3829
g16
(lp3830
S'k'
asg18
S'N'
sS'.thisRepN'
p3831
I31
sg20
S'Y'
sg31
g32
sS'.thisTrialN'
p3832
I2
sS'.thisN'
p3833
I467
sS'.thisIndex'
p3834
I14
sg15
(lp3835
S'k'
asg30
VF
sg17
S'Y'
sg14
I10
sg19
Nsg94
I14
sa(dp3836
g16
(lp3837
S'k'
asg18
S'Y'
sS'.thisRepN'
p3838
I31
sg20
S'N'
sg31
g32
sS'.thisTrialN'
p3839
I3
sS'.thisN'
p3840
I468
sS'.thisIndex'
p3841
I8
sg15
(lp3842
S'd'
asg30
VF
sg17
S'N'
sg14
I10
sg19
Nsg94
I8
sa(dp3843
g16
(lp3844
S'd'
asg18
S'N'
sS'.thisRepN'
p3845
I31
sg20
S'Y'
sg31
g32
sS'.thisTrialN'
p3846
I4
sS'.thisN'
p3847
I469
sS'.thisIndex'
p3848
I4
sg15
(lp3849
S'k'
asg30
VF
sg17
S'N'
sg14
I10
sg19
Nsg94
I4
sa(dp3850
g16
(lp3851
S'k'
asg18
S'Y'
sS'.thisRepN'
p3852
I31
sg20
S'Y'
sg31
g32
sS'.thisTrialN'
p3853
I5
sS'.thisN'
p3854
I470
sS'.thisIndex'
p3855
I5
sg15
(lp3856
S'k'
asg30
VF
sg17
S'Y'
sg14
I10
sg19
(lp3857
S'space'
p3858
asg94
I5
sa(dp3859
g16
(lp3860
S'k'
asg18
S'Y'
sS'.thisRepN'
p3861
I31
sg20
S'Y'
sg31
g32
sS'.thisTrialN'
p3862
I6
sS'.thisN'
p3863
I471
sS'.thisIndex'
p3864
I14
sg15
(lp3865
S'd'
asg30
VF
sg17
S'N'
sg14
I10
sg19
(lp3866
S'space'
p3867
asg94
I14
sa(dp3868
g16
(lp3869
S'k'
asg18
S'N'
sS'.thisRepN'
p3870
I31
sg20
S'Y'
sg31
g32
sS'.thisTrialN'
p3871
I7
sS'.thisN'
p3872
I472
sS'.thisIndex'
p3873
I10
sg15
(lp3874
S'k'
asg30
VF
sg17
S'Y'
sg14
I10
sg19
Nsg94
I10
sa(dp3875
g16
(lp3876
S'd'
asg18
S'N'
sS'.thisRepN'
p3877
I31
sg20
S'Y'
sg31
g32
sS'.thisTrialN'
p3878
I8
sS'.thisN'
p3879
I473
sS'.thisIndex'
p3880
I3
sg15
(lp3881
S'd'
asg30
VF
sg17
S'Y'
sg14
I10
sg19
Nsg94
I3
sa(dp3882
g16
(lp3883
S'k'
asg18
S'Y'
sS'.thisRepN'
p3884
I31
sg20
S'Y'
sg31
g32
sS'.thisTrialN'
p3885
I9
sS'.thisN'
p3886
I474
sS'.thisIndex'
p3887
I3
sg15
(lp3888
S'k'
asg30
VF
sg17
S'Y'
sg14
I10
sg19
(lp3889
S'space'
p3890
asg94
I3
sa(dp3891
g16
(lp3892
S'k'
asg18
S'Y'
sS'.thisRepN'
p3893
I31
sg20
S'Y'
sg31
g32
sS'.thisTrialN'
p3894
I10
sS'.thisN'
p3895
I475
sS'.thisIndex'
p3896
I4
sg15
(lp3897
S'd'
asg30
VF
sg17
S'N'
sg14
I10
sg19
(lp3898
S'space'
p3899
asg94
I4
sa(dp3900
g16
(lp3901
S'k'
asg18
S'Y'
sS'.thisRepN'
p3902
I31
sg20
S'Y'
sg31
g32
sS'.thisTrialN'
p3903
I11
sS'.thisN'
p3904
I476
sS'.thisIndex'
p3905
I9
sg15
(lp3906
S'k'
asg30
VF
sg17
S'Y'
sg14
I10
sg19
(lp3907
S'space'
p3908
asg94
I9
sa(dp3909
g16
(lp3910
S'd'
asg18
S'Y'
sS'.thisRepN'
p3911
I31
sg20
S'Y'
sg31
g32
sS'.thisTrialN'
p3912
I12
sS'.thisN'
p3913
I477
sS'.thisIndex'
p3914
I7
sg15
(lp3915
S'd'
asg30
VF
sg17
S'Y'
sg14
I10
sg19
(lp3916
S'space'
p3917
asg94
I7
sa(dp3918
g16
(lp3919
S'k'
asg18
S'Y'
sS'.thisRepN'
p3920
I31
sg20
S'Y'
sg31
g32
sS'.thisTrialN'
p3921
I13
sS'.thisN'
p3922
I478
sS'.thisIndex'
p3923
I3
sg15
(lp3924
S'k'
asg30
VF
sg17
S'Y'
sg14
I10
sg19
(lp3925
S'space'
p3926
asg94
I3
sa(dp3927
g16
(lp3928
S'd'
asg18
S'N'
sS'.thisRepN'
p3929
I31
sg20
S'Y'
sg31
g32
sS'.thisTrialN'
p3930
I14
sS'.thisN'
p3931
I479
sS'.thisIndex'
p3932
I12
sg15
(lp3933
S'd'
asg30
VF
sg17
S'Y'
sg14
I10
sg19
Nsg94
I12
sa(dp3934
g16
(lp3935
S'k'
asg18
S'Y'
sS'.thisRepN'
p3936
I32
sg20
S'N'
sg31
g32
sS'.thisTrialN'
p3937
I0
sS'.thisN'
p3938
I480
sS'.thisIndex'
p3939
I12
sg15
(lp3940
S'k'
asg30
VF
sg17
S'Y'
sg14
I10
sg19
Nsg94
I12
sa(dp3941
g16
(lp3942
S'k'
asg18
S'N'
sS'.thisRepN'
p3943
I32
sg20
S'Y'
sg31
g32
sS'.thisTrialN'
p3944
I1
sS'.thisN'
p3945
I481
sS'.thisIndex'
p3946
I9
sg15
(lp3947
S'k'
asg30
VF
sg17
S'Y'
sg14
I10
sg19
Nsg94
I9
sa(dp3948
g16
(lp3949
S'd'
asg18
S'Y'
sS'.thisRepN'
p3950
I32
sg20
S'N'
sg31
g32
sS'.thisTrialN'
p3951
I2
sS'.thisN'
p3952
I482
sS'.thisIndex'
p3953
I5
sg15
(lp3954
S'd'
asg30
VF
sg17
S'Y'
sg14
I10
sg19
Nsg94
I5
sa(dp3955
g16
(lp3956
S'k'
asg18
S'Y'
sS'.thisRepN'
p3957
I32
sg20
S'N'
sg31
g32
sS'.thisTrialN'
p3958
I3
sS'.thisN'
p3959
I483
sS'.thisIndex'
p3960
I0
sg15
(lp3961
S'k'
asg30
VF
sg17
S'Y'
sg14
I10
sg19
Nsg94
I0
sa(dp3962
g16
(lp3963
S'k'
asg18
S'Y'
sS'.thisRepN'
p3964
I32
sg20
S'Y'
sg31
g32
sS'.thisTrialN'
p3965
I4
sS'.thisN'
p3966
I484
sS'.thisIndex'
p3967
I13
sg15
(lp3968
S'k'
asg30
VF
sg17
S'Y'
sg14
I10
sg19
(lp3969
S'space'
p3970
asg94
I13
sa(dp3971
g16
(lp3972
S'k'
asg18
S'N'
sS'.thisRepN'
p3973
I32
sg20
S'Y'
sg31
g32
sS'.thisTrialN'
p3974
I5
sS'.thisN'
p3975
I485
sS'.thisIndex'
p3976
I8
sg15
(lp3977
S'd'
asg30
VF
sg17
S'N'
sg14
I10
sg19
Nsg94
I8
sa(dp3978
g16
(lp3979
S'd'
asg18
S'Y'
sS'.thisRepN'
p3980
I32
sg20
S'N'
sg31
g32
sS'.thisTrialN'
p3981
I6
sS'.thisN'
p3982
I486
sS'.thisIndex'
p3983
I1
sg15
(lp3984
S'k'
asg30
VF
sg17
S'N'
sg14
I10
sg19
Nsg94
I1
sa(dp3985
g16
(lp3986
S'd'
asg18
S'Y'
sS'.thisRepN'
p3987
I32
sg20
S'Y'
sg31
g32
sS'.thisTrialN'
p3988
I7
sS'.thisN'
p3989
I487
sS'.thisIndex'
p3990
I9
sg15
(lp3991
S'd'
asg30
VF
sg17
S'Y'
sg14
I10
sg19
(lp3992
S'space'
p3993
asg94
I9
sa(dp3994
g16
(lp3995
S'k'
asg18
S'Y'
sS'.thisRepN'
p3996
I32
sg20
S'Y'
sg31
g32
sS'.thisTrialN'
p3997
I8
sS'.thisN'
p3998
I488
sS'.thisIndex'
p3999
I5
sg15
(lp4000
S'k'
asg30
VF
sg17
S'Y'
sg14
I10
sg19
(lp4001
S'space'
p4002
asg94
I5
sa(dp4003
g16
(lp4004
S'k'
asg18
S'N'
sS'.thisRepN'
p4005
I32
sg20
S'Y'
sg31
g32
sS'.thisTrialN'
p4006
I9
sS'.thisN'
p4007
I489
sS'.thisIndex'
p4008
I7
sg15
(lp4009
S'k'
asg30
VF
sg17
S'Y'
sg14
I10
sg19
Nsg94
I7
sa(dp4010
g16
(lp4011
S'd'
asg18
S'Y'
sS'.thisRepN'
p4012
I32
sg20
S'Y'
sg31
g32
sS'.thisTrialN'
p4013
I10
sS'.thisN'
p4014
I490
sS'.thisIndex'
p4015
I11
sg15
(lp4016
S'd'
asg30
VF
sg17
S'Y'
sg14
I10
sg19
(lp4017
S'space'
p4018
asg94
I11
sa(dp4019
g16
(lp4020
S'd'
asg18
S'N'
sS'.thisRepN'
p4021
I32
sg20
S'Y'
sg31
g32
sS'.thisTrialN'
p4022
I11
sS'.thisN'
p4023
I491
sS'.thisIndex'
p4024
I1
sg15
(lp4025
S'd'
asg30
VF
sg17
S'Y'
sg14
I10
sg19
Nsg94
I1
sa(dp4026
g16
(lp4027
S'd'
asg18
S'Y'
sS'.thisRepN'
p4028
I32
sg20
S'N'
sg31
g32
sS'.thisTrialN'
p4029
I12
sS'.thisN'
p4030
I492
sS'.thisIndex'
p4031
I13
sg15
(lp4032
S'k'
asg30
VF
sg17
S'N'
sg14
I10
sg19
Nsg94
I13
sa(dp4033
g16
(lp4034
S'd'
asg18
S'Y'
sS'.thisRepN'
p4035
I32
sg20
S'Y'
sg31
g32
sS'.thisTrialN'
p4036
I13
sS'.thisN'
p4037
I493
sS'.thisIndex'
p4038
I11
sg15
(lp4039
S'd'
asg30
VF
sg17
S'Y'
sg14
I10
sg19
(lp4040
S'space'
p4041
asg94
I11
sa(dp4042
g16
(lp4043
S'd'
asg18
S'N'
sS'.thisRepN'
p4044
I32
sg20
S'Y'
sg31
g32
sS'.thisTrialN'
p4045
I14
sS'.thisN'
p4046
I494
sS'.thisIndex'
p4047
I0
sg15
(lp4048
S'd'
asg30
VF
sg17
S'Y'
sg14
I10
sg19
Nsg94
I0
sa(dp4049
g16
(lp4050
S'k'
asg18
S'N'
sS'.thisRepN'
p4051
I33
sg20
S'Y'
sg31
g32
sS'.thisTrialN'
p4052
I0
sS'.thisN'
p4053
I495
sS'.thisIndex'
p4054
I13
sg15
(lp4055
S'k'
asg30
VF
sg17
S'Y'
sg14
I10
sg19
Nsg94
I13
sa(dp4056
g16
(lp4057
S'k'
asg18
S'N'
sS'.thisRepN'
p4058
I33
sg20
S'Y'
sg31
g32
sS'.thisTrialN'
p4059
I1
sS'.thisN'
p4060
I496
sS'.thisIndex'
p4061
I7
sg15
(lp4062
S'k'
asg30
VF
sg17
S'Y'
sg14
I10
sg19
Nsg94
I7
sa(dp4063
g16
(lp4064
S'd'
asg18
S'N'
sS'.thisRepN'
p4065
I33
sg20
S'Y'
sg31
g32
sS'.thisTrialN'
p4066
I2
sS'.thisN'
p4067
I497
sS'.thisIndex'
p4068
I7
sg15
(lp4069
S'd'
asg30
VF
sg17
S'Y'
sg14
I10
sg19
Nsg94
I7
sa(dp4070
g16
(lp4071
S'd'
asg18
S'N'
sS'.thisRepN'
p4072
I33
sg20
S'Y'
sg31
g32
sS'.thisTrialN'
p4073
I3
sS'.thisN'
p4074
I498
sS'.thisIndex'
p4075
I5
sg15
(lp4076
S'd'
asg30
VF
sg17
S'Y'
sg14
I10
sg19
Nsg94
I5
sa(dp4077
g16
(lp4078
S'k'
asg18
S'N'
sg22
I39
sS'.thisN'
p4079
I499
sg20
S'Y'
sg31
g32
sS'.thisTrialN'
p4080
I4
sS'.thisRepN'
p4081
I33
sg21
I41
sS'.thisIndex'
p4082
I4
sg23
I25
sg15
(lp4083
S'd'
asg30
VF
sg17
S'N'
sg14
I10
sg19
Nsg94
I4
sa(dp4084
g16
(lp4085
S'k'
asS'.thisIndex'
p4086
I14
sS'.thisRepN'
p4087
I33
sg26
S'Y'
sg30
VF
sg31
g32
sS'.thisTrialN'
p4088
I5
sS'.thisN'
p4089
I500
sg25
S'Y'
sg24
S'Y'
sg15
(lp4090
S'd'
asg17
S'Y'
sg14
I11
sg94
I14
sa(dp4091
g16
(lp4092
S'k'
asS'.thisIndex'
p4093
I10
sS'.thisRepN'
p4094
I33
sg26
S'Y'
sg30
VF
sg31
g32
sS'.thisTrialN'
p4095
I6
sS'.thisN'
p4096
I501
sg25
S'Y'
sg15
(lp4097
S'd'
asg17
S'Y'
sg14
I11
sg94
I10
sa(dp4098
g16
(lp4099
S'k'
asg18
S'N'
sS'.thisRepN'
p4100
I33
sg26
S'Y'
sg20
S'Y'
sg31
g32
sS'.thisTrialN'
p4101
I7
sS'.thisN'
p4102
I502
sg25
S'Y'
sg15
(lp4103
S'd'
asg30
VF
sg17
S'Y'
sg14
I11
sg19
Nsg94
I4
sS'.thisIndex'
p4104
I4
sa(dp4105
g16
(lp4106
S'k'
asg18
S'N'
sS'.thisRepN'
p4107
I33
sg26
S'Y'
sg20
S'Y'
sg31
g32
sS'.thisTrialN'
p4108
I8
sS'.thisN'
p4109
I503
sg25
S'Y'
sg15
(lp4110
S'k'
asg30
VF
sg17
S'N'
sg14
I11
sg19
Nsg94
I1
sS'.thisIndex'
p4111
I1
sa(dp4112
g16
(lp4113
S'd'
asg18
S'N'
sS'.thisRepN'
p4114
I33
sg26
S'Y'
sg20
S'Y'
sg31
g32
sS'.thisTrialN'
p4115
I9
sS'.thisN'
p4116
I504
sg25
S'Y'
sg15
(lp4117
S'k'
asg30
VF
sg17
S'Y'
sg14
I11
sg19
Nsg94
I3
sS'.thisIndex'
p4118
I3
sa(dp4119
g16
(lp4120
S'k'
asg18
S'N'
sS'.thisRepN'
p4121
I33
sg26
S'Y'
sg20
S'Y'
sg31
g32
sS'.thisTrialN'
p4122
I10
sS'.thisN'
p4123
I505
sg25
S'Y'
sg15
(lp4124
S'd'
asg30
VF
sg17
S'Y'
sg14
I11
sg19
Nsg94
I7
sS'.thisIndex'
p4125
I7
sa(dp4126
g16
(lp4127
S'k'
asg18
S'N'
sS'.thisRepN'
p4128
I33
sg26
S'Y'
sg20
S'Y'
sg31
g32
sS'.thisTrialN'
p4129
I11
sS'.thisN'
p4130
I506
sg25
S'Y'
sg15
(lp4131
S'k'
asg30
VF
sg17
S'N'
sg14
I11
sg19
Nsg94
I2
sS'.thisIndex'
p4132
I2
sa(dp4133
g16
(lp4134
S'k'
asg18
S'Y'
sS'.thisRepN'
p4135
I33
sg26
S'Y'
sg20
S'Y'
sg31
g32
sS'.thisTrialN'
p4136
I12
sS'.thisN'
p4137
I507
sg25
S'Y'
sg15
(lp4138
S'd'
asg30
VF
sg17
S'Y'
sg14
I11
sg19
(lp4139
S'space'
p4140
asg94
I8
sS'.thisIndex'
p4141
I8
sa(dp4142
g16
(lp4143
S'd'
asg18
S'Y'
sS'.thisRepN'
p4144
I33
sg26
S'Y'
sg20
S'Y'
sg31
g32
sS'.thisTrialN'
p4145
I13
sS'.thisN'
p4146
I508
sg25
S'Y'
sg15
(lp4147
S'd'
asg30
VF
sg17
S'N'
sg14
I11
sg19
(lp4148
S'space'
p4149
asg94
I12
sS'.thisIndex'
p4150
I12
sa(dp4151
g16
(lp4152
S'd'
asg18
S'Y'
sS'.thisRepN'
p4153
I33
sg26
S'Y'
sg20
S'Y'
sg31
g32
sS'.thisTrialN'
p4154
I14
sS'.thisN'
p4155
I509
sg25
S'Y'
sg15
(lp4156
S'd'
asg30
VF
sg17
S'N'
sg14
I11
sg19
(lp4157
S'space'
p4158
asg94
I6
sS'.thisIndex'
p4159
I6
sa(dp4160
g16
(lp4161
S'd'
asg18
S'Y'
sS'.thisRepN'
p4162
I34
sg26
S'Y'
sg20
S'Y'
sg31
g32
sS'.thisTrialN'
p4163
I0
sS'.thisN'
p4164
I510
sg25
S'Y'
sg15
(lp4165
S'd'
asg30
VF
sg17
S'N'
sg14
I11
sg19
(lp4166
S'space'
p4167
asg94
I10
sS'.thisIndex'
p4168
I10
sa(dp4169
g16
(lp4170
S'd'
asg18
S'Y'
sS'.thisRepN'
p4171
I34
sg26
S'Y'
sg20
S'Y'
sg31
g32
sS'.thisTrialN'
p4172
I1
sS'.thisN'
p4173
I511
sg25
S'Y'
sg15
(lp4174
S'd'
asg30
VF
sg17
S'N'
sg14
I11
sg19
(lp4175
S'space'
p4176
asg94
I8
sS'.thisIndex'
p4177
I8
sa(dp4178
g16
(lp4179
S'd'
asg18
S'Y'
sS'.thisRepN'
p4180
I34
sg26
S'Y'
sg20
S'Y'
sg31
g32
sS'.thisTrialN'
p4181
I2
sS'.thisN'
p4182
I512
sg25
S'Y'
sg15
(lp4183
S'k'
asg30
VF
sg17
S'Y'
sg14
I11
sg19
(lp4184
S'space'
p4185
asg94
I13
sS'.thisIndex'
p4186
I13
sa(dp4187
g16
(lp4188
S'k'
asg18
S'N'
sS'.thisRepN'
p4189
I34
sg26
S'Y'
sg20
S'Y'
sg31
g32
sS'.thisTrialN'
p4190
I3
sS'.thisN'
p4191
I513
sg25
S'Y'
sg15
(lp4192
S'd'
asg30
VF
sg17
S'Y'
sg14
I11
sg19
Nsg94
I13
sS'.thisIndex'
p4193
I13
sa(dp4194
g16
(lp4195
S'k'
asg18
S'N'
sS'.thisRepN'
p4196
I34
sg26
S'Y'
sg20
S'N'
sg31
g32
sS'.thisTrialN'
p4197
I4
sS'.thisN'
p4198
I514
sg25
S'Y'
sg15
(lp4199
S'd'
asg30
VF
sg17
S'Y'
sg14
I11
sg19
(lp4200
S'space'
p4201
asg94
I13
sS'.thisIndex'
p4202
I13
sa(dp4203
g16
(lp4204
S'k'
asg18
S'N'
sS'.thisRepN'
p4205
I34
sg26
S'Y'
sg20
S'Y'
sg31
g32
sS'.thisTrialN'
p4206
I5
sS'.thisN'
p4207
I515
sg25
S'Y'
sg15
(lp4208
S'd'
asg30
VF
sg17
S'Y'
sg14
I11
sg19
Nsg94
I4
sS'.thisIndex'
p4209
I4
sa(dp4210
g16
(lp4211
S'k'
asg18
S'Y'
sS'.thisRepN'
p4212
I34
sg26
S'Y'
sg20
S'Y'
sg31
g32
sS'.thisTrialN'
p4213
I6
sS'.thisN'
p4214
I516
sg25
S'Y'
sg15
(lp4215
S'd'
asg30
VF
sg17
S'Y'
sg14
I11
sg19
(lp4216
S'space'
p4217
asg94
I6
sS'.thisIndex'
p4218
I6
sa(dp4219
g16
(lp4220
S'k'
asg18
S'Y'
sS'.thisRepN'
p4221
I34
sg26
S'Y'
sg20
S'Y'
sg31
g32
sS'.thisTrialN'
p4222
I7
sS'.thisN'
p4223
I517
sg25
S'Y'
sg15
(lp4224
S'd'
asg30
VF
sg17
S'Y'
sg14
I11
sg19
(lp4225
S'space'
p4226
asg94
I0
sS'.thisIndex'
p4227
I0
sa(dp4228
g16
(lp4229
S'd'
asg18
S'N'
sS'.thisRepN'
p4230
I34
sg26
S'Y'
sg20
S'N'
sg31
g32
sS'.thisTrialN'
p4231
I8
sS'.thisN'
p4232
I518
sg25
S'Y'
sg15
(lp4233
S'd'
asg30
VF
sg17
S'N'
sg14
I11
sg19
(lp4234
S'space'
p4235
asg94
I11
sS'.thisIndex'
p4236
I11
sa(dp4237
g16
(lp4238
S'k'
asg18
S'Y'
sS'.thisRepN'
p4239
I34
sg26
S'Y'
sg20
S'Y'
sg31
g32
sS'.thisTrialN'
p4240
I9
sS'.thisN'
p4241
I519
sg25
S'Y'
sg15
(lp4242
S'd'
asg30
VF
sg17
S'Y'
sg14
I11
sg19
(lp4243
S'space'
p4244
asg94
I11
sS'.thisIndex'
p4245
I11
sa(dp4246
g16
(lp4247
S'k'
asg18
S'N'
sS'.thisRepN'
p4248
I34
sg26
S'Y'
sg20
S'Y'
sg31
g32
sS'.thisTrialN'
p4249
I10
sS'.thisN'
p4250
I520
sg25
S'Y'
sg15
(lp4251
S'k'
asg30
VF
sg17
S'N'
sg14
I11
sg19
Nsg94
I1
sS'.thisIndex'
p4252
I1
sa(dp4253
g16
(lp4254
S'k'
asg18
S'Y'
sS'.thisRepN'
p4255
I34
sg26
S'Y'
sg20
S'Y'
sg31
g32
sS'.thisTrialN'
p4256
I11
sS'.thisN'
p4257
I521
sg25
S'Y'
sg15
(lp4258
S'd'
asg30
VF
sg17
S'Y'
sg14
I11
sg19
(lp4259
S'space'
p4260
asg94
I10
sS'.thisIndex'
p4261
I10
sa(dp4262
g16
(lp4263
S'k'
asg18
S'Y'
sS'.thisRepN'
p4264
I34
sg26
S'Y'
sg20
S'Y'
sg31
g32
sS'.thisTrialN'
p4265
I12
sS'.thisN'
p4266
I522
sg25
S'Y'
sg15
(lp4267
S'd'
asg30
VF
sg17
S'Y'
sg14
I11
sg19
(lp4268
S'space'
p4269
asg94
I3
sS'.thisIndex'
p4270
I3
sa(dp4271
g16
(lp4272
S'k'
asg18
S'Y'
sS'.thisRepN'
p4273
I34
sg26
S'Y'
sg20
S'N'
sg31
g32
sS'.thisTrialN'
p4274
I13
sS'.thisN'
p4275
I523
sg25
S'Y'
sg15
(lp4276
S'd'
asg30
VF
sg17
S'Y'
sg14
I11
sg19
Nsg94
I13
sS'.thisIndex'
p4277
I13
sa(dp4278
g16
(lp4279
S'd'
asg18
S'N'
sS'.thisRepN'
p4280
I34
sg26
S'Y'
sg20
S'Y'
sg31
g32
sS'.thisTrialN'
p4281
I14
sS'.thisN'
p4282
I524
sg25
S'Y'
sg15
(lp4283
S'k'
asg30
VF
sg17
S'Y'
sg14
I11
sg19
Nsg94
I4
sS'.thisIndex'
p4284
I4
sa(dp4285
g16
(lp4286
S'd'
asg18
S'N'
sS'.thisRepN'
p4287
I35
sg26
S'Y'
sg20
S'Y'
sg31
g32
sS'.thisTrialN'
p4288
I0
sS'.thisN'
p4289
I525
sg25
S'Y'
sg15
(lp4290
S'k'
asg30
VF
sg17
S'Y'
sg14
I11
sg19
Nsg94
I7
sS'.thisIndex'
p4291
I7
sa(dp4292
g16
(lp4293
S'k'
asg18
S'N'
sS'.thisRepN'
p4294
I35
sg26
S'Y'
sg20
S'Y'
sg31
g32
sS'.thisTrialN'
p4295
I1
sS'.thisN'
p4296
I526
sg25
S'Y'
sg15
(lp4297
S'd'
asg30
VF
sg17
S'Y'
sg14
I11
sg19
Nsg94
I1
sS'.thisIndex'
p4298
I1
sa(dp4299
g16
(lp4300
S'd'
asg18
S'Y'
sS'.thisRepN'
p4301
I35
sg26
S'Y'
sg20
S'Y'
sg31
g32
sS'.thisTrialN'
p4302
I2
sS'.thisN'
p4303
I527
sg25
S'Y'
sg15
(lp4304
S'k'
asg30
VF
sg17
S'Y'
sg14
I11
sg19
(lp4305
S'space'
p4306
asg94
I1
sS'.thisIndex'
p4307
I1
sa(dp4308
g16
(lp4309
S'd'
asg18
S'N'
sS'.thisRepN'
p4310
I35
sg26
S'Y'
sg20
S'Y'
sg31
g32
sS'.thisTrialN'
p4311
I3
sS'.thisN'
p4312
I528
sg25
S'Y'
sg15
(lp4313
S'k'
asg30
VF
sg17
S'Y'
sg14
I11
sg19
Nsg94
I5
sS'.thisIndex'
p4314
I5
sa(dp4315
g16
(lp4316
S'd'
asg18
S'Y'
sS'.thisRepN'
p4317
I35
sg26
S'Y'
sg20
S'N'
sg31
g32
sS'.thisTrialN'
p4318
I4
sS'.thisN'
p4319
I529
sg25
S'Y'
sg15
(lp4320
S'k'
asg30
VF
sg17
S'Y'
sg14
I11
sg19
Nsg94
I5
sS'.thisIndex'
p4321
I5
sa(dp4322
g16
(lp4323
S'd'
asg18
S'Y'
sS'.thisRepN'
p4324
I35
sg26
S'Y'
sg20
S'Y'
sg31
g32
sS'.thisTrialN'
p4325
I5
sS'.thisN'
p4326
I530
sg25
S'Y'
sg15
(lp4327
S'k'
asg30
VF
sg17
S'Y'
sg14
I11
sg19
(lp4328
S'space'
p4329
asg94
I12
sS'.thisIndex'
p4330
I12
sa(dp4331
g16
(lp4332
S'k'
asg18
S'Y'
sS'.thisRepN'
p4333
I35
sg26
S'Y'
sg20
S'Y'
sg31
g32
sS'.thisTrialN'
p4334
I6
sS'.thisN'
p4335
I531
sg25
S'Y'
sg15
(lp4336
S'd'
asg30
VF
sg17
S'Y'
sg14
I11
sg19
(lp4337
S'space'
p4338
asg94
I0
sS'.thisIndex'
p4339
I0
sa(dp4340
g16
(lp4341
S'k'
asg18
S'N'
sS'.thisRepN'
p4342
I35
sg26
S'Y'
sg20
S'N'
sg31
g32
sS'.thisTrialN'
p4343
I7
sS'.thisN'
p4344
I532
sg25
S'Y'
sg15
(lp4345
S'd'
asg30
VF
sg17
S'Y'
sg14
I11
sg19
(lp4346
S'space'
p4347
asg94
I4
sS'.thisIndex'
p4348
I4
sa(dp4349
g16
(lp4350
S'd'
asg18
S'Y'
sS'.thisRepN'
p4351
I35
sg26
S'Y'
sg20
S'Y'
sg31
g32
sS'.thisTrialN'
p4352
I8
sS'.thisN'
p4353
I533
sg25
S'Y'
sg15
(lp4354
S'k'
asg30
VF
sg17
S'Y'
sg14
I11
sg19
(lp4355
S'space'
p4356
asg94
I2
sS'.thisIndex'
p4357
I2
sa(dp4358
g16
(lp4359
S'd'
asg18
S'N'
sS'.thisRepN'
p4360
I35
sg26
S'Y'
sg20
S'N'
sg31
g32
sS'.thisTrialN'
p4361
I9
sS'.thisN'
p4362
I534
sg25
S'Y'
sg15
(lp4363
S'k'
asg30
VF
sg17
S'Y'
sg14
I11
sg19
(lp4364
S'space'
p4365
asg94
I7
sS'.thisIndex'
p4366
I7
sa(dp4367
g16
(lp4368
S'd'
asg18
S'N'
sS'.thisRepN'
p4369
I35
sg26
S'Y'
sg20
S'Y'
sg31
g32
sS'.thisTrialN'
p4370
I10
sS'.thisN'
p4371
I535
sg25
S'Y'
sg15
(lp4372
S'k'
asg30
VF
sg17
S'Y'
sg14
I11
sg19
Nsg94
I5
sS'.thisIndex'
p4373
I5
sa(dp4374
g16
(lp4375
S'd'
asg18
S'Y'
sS'.thisRepN'
p4376
I35
sg26
S'Y'
sg20
S'Y'
sg31
g32
sS'.thisTrialN'
p4377
I11
sS'.thisN'
p4378
I536
sg25
S'Y'
sg15
(lp4379
S'k'
asg30
VF
sg17
S'Y'
sg14
I11
sg19
(lp4380
S'space'
p4381
asg94
I4
sS'.thisIndex'
p4382
I4
sa(dp4383
g16
(lp4384
S'd'
asg18
S'N'
sS'.thisRepN'
p4385
I35
sg26
S'Y'
sg20
S'Y'
sg31
g32
sS'.thisTrialN'
p4386
I12
sS'.thisN'
p4387
I537
sg25
S'Y'
sg15
(lp4388
S'k'
asg30
VF
sg17
S'Y'
sg14
I11
sg19
Nsg94
I12
sS'.thisIndex'
p4389
I12
sa(dp4390
g16
(lp4391
S'd'
asg18
S'Y'
sS'.thisRepN'
p4392
I35
sg26
S'Y'
sg20
S'N'
sg31
g32
sS'.thisTrialN'
p4393
I13
sS'.thisN'
p4394
I538
sg25
S'Y'
sg15
(lp4395
S'd'
asg30
VF
sg17
S'N'
sg14
I11
sg19
Nsg94
I10
sS'.thisIndex'
p4396
I10
sa(dp4397
g16
(lp4398
S'k'
asg18
S'Y'
sS'.thisRepN'
p4399
I35
sg26
S'Y'
sg20
S'Y'
sg31
g32
sS'.thisTrialN'
p4400
I14
sS'.thisN'
p4401
I539
sg25
S'Y'
sg15
(lp4402
S'd'
asg30
VF
sg17
S'Y'
sg14
I11
sg19
(lp4403
S'space'
p4404
asg94
I14
sS'.thisIndex'
p4405
I14
sa(dp4406
g16
(lp4407
S'k'
asg18
S'Y'
sS'.thisRepN'
p4408
I36
sg26
S'Y'
sg20
S'Y'
sg31
g32
sS'.thisTrialN'
p4409
I0
sS'.thisN'
p4410
I540
sg25
S'Y'
sg15
(lp4411
S'd'
asg30
VF
sg17
S'Y'
sg14
I11
sg19
(lp4412
S'space'
p4413
asg94
I9
sS'.thisIndex'
p4414
I9
sa(dp4415
g16
(lp4416
S'd'
asg18
S'N'
sS'.thisRepN'
p4417
I36
sg26
S'Y'
sg20
S'Y'
sg31
g32
sS'.thisTrialN'
p4418
I1
sS'.thisN'
p4419
I541
sg25
S'Y'
sg15
(lp4420
S'k'
asg30
VF
sg17
S'Y'
sg14
I11
sg19
Nsg94
I1
sS'.thisIndex'
p4421
I1
sa(dp4422
g16
(lp4423
S'd'
asg18
S'Y'
sS'.thisRepN'
p4424
I36
sg26
S'Y'
sg20
S'Y'
sg31
g32
sS'.thisTrialN'
p4425
I2
sS'.thisN'
p4426
I542
sg25
S'Y'
sg15
(lp4427
S'd'
asg30
VF
sg17
S'N'
sg14
I11
sg19
(lp4428
S'space'
p4429
asg94
I9
sS'.thisIndex'
p4430
I9
sa(dp4431
g16
(lp4432
S'k'
asg18
S'N'
sS'.thisRepN'
p4433
I36
sg26
S'Y'
sg20
S'Y'
sg31
g32
sS'.thisTrialN'
p4434
I3
sS'.thisN'
p4435
I543
sg25
S'Y'
sg15
(lp4436
S'k'
asg30
VF
sg17
S'N'
sg14
I11
sg19
Nsg94
I5
sS'.thisIndex'
p4437
I5
sa(dp4438
g16
(lp4439
S'd'
asg18
S'N'
sS'.thisRepN'
p4440
I36
sg26
S'Y'
sg20
S'Y'
sg31
g32
sS'.thisTrialN'
p4441
I4
sS'.thisN'
p4442
I544
sg25
S'Y'
sg15
(lp4443
S'k'
asg30
VF
sg17
S'Y'
sg14
I11
sg19
Nsg94
I5
sS'.thisIndex'
p4444
I5
sa(dp4445
g16
(lp4446
S'd'
asg18
S'N'
sS'.thisRepN'
p4447
I36
sg26
S'Y'
sg20
S'Y'
sg31
g32
sS'.thisTrialN'
p4448
I5
sS'.thisN'
p4449
I545
sg25
S'Y'
sg15
(lp4450
S'k'
asg30
VF
sg17
S'Y'
sg14
I11
sg19
Nsg94
I4
sS'.thisIndex'
p4451
I4
sa(dp4452
g16
(lp4453
S'k'
asg18
S'Y'
sS'.thisRepN'
p4454
I36
sg26
S'Y'
sg20
S'Y'
sg31
g32
sS'.thisTrialN'
p4455
I6
sS'.thisN'
p4456
I546
sg25
S'Y'
sg15
(lp4457
S'd'
asg30
VF
sg17
S'Y'
sg14
I11
sg19
(lp4458
S'space'
p4459
asg94
I12
sS'.thisIndex'
p4460
I12
sa(dp4461
g16
(lp4462
S'd'
asg18
S'Y'
sS'.thisRepN'
p4463
I36
sg26
S'Y'
sg20
S'Y'
sg31
g32
sS'.thisTrialN'
p4464
I7
sS'.thisN'
p4465
I547
sg25
S'Y'
sg15
(lp4466
S'k'
asg30
VF
sg17
S'Y'
sg14
I11
sg19
(lp4467
S'space'
p4468
asg94
I5
sS'.thisIndex'
p4469
I5
sa(dp4470
g16
(lp4471
S'k'
asg18
S'Y'
sS'.thisRepN'
p4472
I36
sg26
S'Y'
sg20
S'N'
sg31
g32
sS'.thisTrialN'
p4473
I8
sS'.thisN'
p4474
I548
sg25
S'Y'
sg15
(lp4475
S'd'
asg30
VF
sg17
S'Y'
sg14
I11
sg19
(lp4476
S'k'
asg94
I1
sS'.thisIndex'
p4477
I1
sa(dp4478
g16
(lp4479
S'k'
asg18
S'N'
sg22
I39
sg26
S'Y'
sS'.thisN'
p4480
I549
sg20
S'N'
sg31
g32
sS'.thisTrialN'
p4481
I9
sS'.thisRepN'
p4482
I36
sg21
I39
sg25
S'Y'
sg23
I25
sg15
(lp4483
S'd'
asg30
VF
sg17
S'Y'
sg14
I11
sg19
(lp4484
S'space'
p4485
asg94
I4
sS'.thisIndex'
p4486
I4
sa(dp4487
g16
(lp4488
S'k'
asS'.thisIndex'
p4489
I4
sS'.thisRepN'
p4490
I36
sg26
S'Y'
sg30
VF
sg31
g32
sS'.thisTrialN'
p4491
I10
sS'.thisN'
p4492
I550
sg25
S'Y'
sg15
(lp4493
S'd'
asg17
S'Y'
sg14
I12
sg94
I4
sa(dp4494
g16
(lp4495
S'k'
asS'.thisIndex'
p4496
I1
sS'.thisRepN'
p4497
I36
sg26
S'Y'
sg30
VF
sg31
g32
sS'.thisTrialN'
p4498
I11
sS'.thisN'
p4499
I551
sg25
S'Y'
sg15
(lp4500
S'd'
asg17
S'Y'
sg14
I12
sg94
I1
sa(dp4501
g16
(lp4502
S'k'
asg18
S'N'
sS'.thisRepN'
p4503
I36
sg26
S'Y'
sg20
S'Y'
sg31
g32
sS'.thisTrialN'
p4504
I12
sS'.thisN'
p4505
I552
sg25
S'Y'
sg15
(lp4506
S'd'
asg30
VF
sg17
S'Y'
sg14
I12
sg19
Nsg94
I10
sS'.thisIndex'
p4507
I10
sa(dp4508
g16
(lp4509
S'd'
asg18
S'Y'
sS'.thisRepN'
p4510
I36
sg26
S'Y'
sg20
S'N'
sg31
g32
sS'.thisTrialN'
p4511
I13
sS'.thisN'
p4512
I553
sg25
S'Y'
sg15
(lp4513
S'k'
asg30
VF
sg17
S'Y'
sg14
I12
sg19
Nsg94
I2
sS'.thisIndex'
p4514
I2
sa(dp4515
g16
(lp4516
S'd'
asg18
S'Y'
sS'.thisRepN'
p4517
I36
sg26
S'Y'
sg20
S'Y'
sg31
g32
sS'.thisTrialN'
p4518
I14
sS'.thisN'
p4519
I554
sg25
S'Y'
sg15
(lp4520
S'k'
asg30
VF
sg17
S'Y'
sg14
I12
sg19
(lp4521
S'space'
p4522
asg94
I7
sS'.thisIndex'
p4523
I7
sa(dp4524
g16
(lp4525
S'd'
asg18
S'N'
sS'.thisRepN'
p4526
I37
sg26
S'Y'
sg20
S'Y'
sg31
g32
sS'.thisTrialN'
p4527
I0
sS'.thisN'
p4528
I555
sg25
S'Y'
sg15
(lp4529
S'k'
asg30
VF
sg17
S'Y'
sg14
I12
sg19
Nsg94
I3
sS'.thisIndex'
p4530
I3
sa(dp4531
g16
(lp4532
S'd'
asg18
S'N'
sS'.thisRepN'
p4533
I37
sg26
S'Y'
sg20
S'Y'
sg31
g32
sS'.thisTrialN'
p4534
I1
sS'.thisN'
p4535
I556
sg25
S'Y'
sg15
(lp4536
S'k'
asg30
VF
sg17
S'Y'
sg14
I12
sg19
Nsg94
I3
sS'.thisIndex'
p4537
I3
sa(dp4538
g16
(lp4539
S'k'
asg18
S'Y'
sS'.thisRepN'
p4540
I37
sg26
S'Y'
sg20
S'Y'
sg31
g32
sS'.thisTrialN'
p4541
I2
sS'.thisN'
p4542
I557
sg25
S'Y'
sg15
(lp4543
S'd'
asg30
VF
sg17
S'Y'
sg14
I12
sg19
(lp4544
S'space'
p4545
asg94
I7
sS'.thisIndex'
p4546
I7
sa(dp4547
g16
(lp4548
S'k'
asg18
S'N'
sS'.thisRepN'
p4549
I37
sg26
S'Y'
sg20
S'Y'
sg31
g32
sS'.thisTrialN'
p4550
I3
sS'.thisN'
p4551
I558
sg25
S'Y'
sg15
(lp4552
S'd'
asg30
VF
sg17
S'Y'
sg14
I12
sg19
Nsg94
I0
sS'.thisIndex'
p4553
I0
sa(dp4554
g16
(lp4555
S'd'
asg18
S'N'
sS'.thisRepN'
p4556
I37
sg26
S'Y'
sg20
S'Y'
sg31
g32
sS'.thisTrialN'
p4557
I4
sS'.thisN'
p4558
I559
sg25
S'Y'
sg15
(lp4559
S'k'
asg30
VF
sg17
S'Y'
sg14
I12
sg19
Nsg94
I3
sS'.thisIndex'
p4560
I3
sa(dp4561
g16
(lp4562
S'k'
asg18
S'N'
sS'.thisRepN'
p4563
I37
sg26
S'Y'
sg20
S'N'
sg31
g32
sS'.thisTrialN'
p4564
I5
sS'.thisN'
p4565
I560
sg25
S'Y'
sg15
(lp4566
S'd'
asg30
VF
sg17
S'Y'
sg14
I12
sg19
(lp4567
S'space'
p4568
asg94
I9
sS'.thisIndex'
p4569
I9
sa(dp4570
g16
(lp4571
S'k'
asg18
S'N'
sS'.thisRepN'
p4572
I37
sg26
S'Y'
sg20
S'N'
sg31
g32
sS'.thisTrialN'
p4573
I6
sS'.thisN'
p4574
I561
sg25
S'Y'
sg15
(lp4575
S'd'
asg30
VF
sg17
S'Y'
sg14
I12
sg19
(lp4576
S'space'
p4577
asg94
I8
sS'.thisIndex'
p4578
I8
sa(dp4579
g16
(lp4580
S'd'
asg18
S'N'
sS'.thisRepN'
p4581
I37
sg26
S'Y'
sg20
S'Y'
sg31
g32
sS'.thisTrialN'
p4582
I7
sS'.thisN'
p4583
I562
sg25
S'Y'
sg15
(lp4584
S'k'
asg30
VF
sg17
S'Y'
sg14
I12
sg19
Nsg94
I11
sS'.thisIndex'
p4585
I11
sa(dp4586
g16
(lp4587
S'k'
asg18
S'Y'
sS'.thisRepN'
p4588
I37
sg26
S'Y'
sg20
S'Y'
sg31
g32
sS'.thisTrialN'
p4589
I8
sS'.thisN'
p4590
I563
sg25
S'Y'
sg15
(lp4591
S'd'
asg30
VF
sg17
S'Y'
sg14
I12
sg19
(lp4592
S'space'
p4593
asg94
I10
sS'.thisIndex'
p4594
I10
sa(dp4595
g16
(lp4596
S'k'
asg18
S'Y'
sS'.thisRepN'
p4597
I37
sg26
S'Y'
sg20
S'Y'
sg31
g32
sS'.thisTrialN'
p4598
I9
sS'.thisN'
p4599
I564
sg25
S'Y'
sg15
(lp4600
S'd'
asg30
VF
sg17
S'Y'
sg14
I12
sg19
(lp4601
S'space'
p4602
asg94
I13
sS'.thisIndex'
p4603
I13
sa(dp4604
g16
(lp4605
S'd'
asg18
S'N'
sS'.thisRepN'
p4606
I37
sg26
S'Y'
sg20
S'N'
sg31
g32
sS'.thisTrialN'
p4607
I10
sS'.thisN'
p4608
I565
sg25
S'Y'
sg15
(lp4609
S'k'
asg30
VF
sg17
S'Y'
sg14
I12
sg19
(lp4610
S'space'
p4611
asg94
I1
sS'.thisIndex'
p4612
I1
sa(dp4613
g16
(lp4614
S'k'
asg18
S'Y'
sS'.thisRepN'
p4615
I37
sg26
S'Y'
sg20
S'Y'
sg31
g32
sS'.thisTrialN'
p4616
I11
sS'.thisN'
p4617
I566
sg25
S'Y'
sg15
(lp4618
S'd'
asg30
VF
sg17
S'Y'
sg14
I12
sg19
(lp4619
S'space'
p4620
asg94
I8
sS'.thisIndex'
p4621
I8
sa(dp4622
g16
(lp4623
S'd'
asg18
S'N'
sS'.thisRepN'
p4624
I37
sg26
S'Y'
sg20
S'N'
sg31
g32
sS'.thisTrialN'
p4625
I12
sS'.thisN'
p4626
I567
sg25
S'Y'
sg15
(lp4627
S'k'
asg30
VF
sg17
S'Y'
sg14
I12
sg19
(lp4628
S'space'
p4629
asg94
I5
sS'.thisIndex'
p4630
I5
sa(dp4631
g16
(lp4632
S'd'
asg18
S'N'
sS'.thisRepN'
p4633
I37
sg26
S'Y'
sg20
S'Y'
sg31
g32
sS'.thisTrialN'
p4634
I13
sS'.thisN'
p4635
I568
sg25
S'Y'
sg15
(lp4636
S'k'
asg30
VF
sg17
S'Y'
sg14
I12
sg19
Nsg94
I5
sS'.thisIndex'
p4637
I5
sa(dp4638
g16
(lp4639
S'k'
asg18
S'N'
sS'.thisRepN'
p4640
I37
sg26
S'Y'
sg20
S'Y'
sg31
g32
sS'.thisTrialN'
p4641
I14
sS'.thisN'
p4642
I569
sg25
S'Y'
sg15
(lp4643
S'd'
asg30
VF
sg17
S'Y'
sg14
I12
sg19
Nsg94
I11
sS'.thisIndex'
p4644
I11
sa(dp4645
g16
(lp4646
S'k'
asg18
S'N'
sS'.thisRepN'
p4647
I38
sg26
S'Y'
sg20
S'Y'
sg31
g32
sS'.thisTrialN'
p4648
I0
sS'.thisN'
p4649
I570
sg25
S'Y'
sg15
(lp4650
S'k'
asg30
VF
sg17
S'N'
sg14
I12
sg19
Nsg94
I14
sS'.thisIndex'
p4651
I14
sa(dp4652
g16
(lp4653
S'd'
asg18
S'Y'
sS'.thisRepN'
p4654
I38
sg26
S'Y'
sg20
S'Y'
sg31
g32
sS'.thisTrialN'
p4655
I1
sS'.thisN'
p4656
I571
sg25
S'Y'
sg15
(lp4657
S'd'
asg30
VF
sg17
S'N'
sg14
I12
sg19
(lp4658
S'space'
p4659
asg94
I2
sS'.thisIndex'
p4660
I2
sa(dp4661
g16
(lp4662
S'k'
asg18
S'N'
sS'.thisRepN'
p4663
I38
sg26
S'Y'
sg20
S'Y'
sg31
g32
sS'.thisTrialN'
p4664
I2
sS'.thisN'
p4665
I572
sg25
S'Y'
sg15
(lp4666
S'd'
asg30
VF
sg17
S'Y'
sg14
I12
sg19
Nsg94
I1
sS'.thisIndex'
p4667
I1
sa(dp4668
g16
(lp4669
S'd'
asg18
S'N'
sS'.thisRepN'
p4670
I38
sg26
S'Y'
sg20
S'Y'
sg31
g32
sS'.thisTrialN'
p4671
I3
sS'.thisN'
p4672
I573
sg25
S'Y'
sg15
(lp4673
S'k'
asg30
VF
sg17
S'Y'
sg14
I12
sg19
Nsg94
I12
sS'.thisIndex'
p4674
I12
sa(dp4675
g16
(lp4676
S'k'
asg18
S'N'
sS'.thisRepN'
p4677
I38
sg26
S'Y'
sg20
S'Y'
sg31
g32
sS'.thisTrialN'
p4678
I4
sS'.thisN'
p4679
I574
sg25
S'Y'
sg15
(lp4680
S'd'
asg30
VF
sg17
S'Y'
sg14
I12
sg19
Nsg94
I3
sS'.thisIndex'
p4681
I3
sa(dp4682
g16
(lp4683
S'k'
asg18
S'Y'
sS'.thisRepN'
p4684
I38
sg26
S'Y'
sg20
S'Y'
sg31
g32
sS'.thisTrialN'
p4685
I5
sS'.thisN'
p4686
I575
sg25
S'Y'
sg15
(lp4687
S'k'
asg30
VF
sg17
S'N'
sg14
I12
sg19
(lp4688
S'space'
p4689
asg94
I6
sS'.thisIndex'
p4690
I6
sa(dp4691
g16
(lp4692
S'd'
asg18
S'N'
sS'.thisRepN'
p4693
I38
sg26
S'Y'
sg20
S'N'
sg31
g32
sS'.thisTrialN'
p4694
I6
sS'.thisN'
p4695
I576
sg25
S'Y'
sg15
(lp4696
S'k'
asg30
VF
sg17
S'Y'
sg14
I12
sg19
(lp4697
S'space'
p4698
asg94
I12
sS'.thisIndex'
p4699
I12
sa(dp4700
g16
(lp4701
S'k'
asg18
S'Y'
sS'.thisRepN'
p4702
I38
sg26
S'Y'
sg20
S'Y'
sg31
g32
sS'.thisTrialN'
p4703
I7
sS'.thisN'
p4704
I577
sg25
S'Y'
sg15
(lp4705
S'd'
asg30
VF
sg17
S'Y'
sg14
I12
sg19
(lp4706
S'space'
p4707
asg94
I3
sS'.thisIndex'
p4708
I3
sa(dp4709
g16
(lp4710
S'k'
asg18
S'N'
sS'.thisRepN'
p4711
I38
sg26
S'Y'
sg20
S'Y'
sg31
g32
sS'.thisTrialN'
p4712
I8
sS'.thisN'
p4713
I578
sg25
S'Y'
sg15
(lp4714
S'k'
asg30
VF
sg17
S'N'
sg14
I12
sg19
Nsg94
I9
sS'.thisIndex'
p4715
I9
sa(dp4716
g16
(lp4717
S'k'
asg18
S'N'
sS'.thisRepN'
p4718
I38
sg26
S'Y'
sg20
S'Y'
sg31
g32
sS'.thisTrialN'
p4719
I9
sS'.thisN'
p4720
I579
sg25
S'Y'
sg15
(lp4721
S'd'
asg30
VF
sg17
S'Y'
sg14
I12
sg19
Nsg94
I2
sS'.thisIndex'
p4722
I2
sa(dp4723
g16
(lp4724
S'k'
asg18
S'N'
sS'.thisRepN'
p4725
I38
sg26
S'Y'
sg20
S'N'
sg31
g32
sS'.thisTrialN'
p4726
I10
sS'.thisN'
p4727
I580
sg25
S'Y'
sg15
(lp4728
S'd'
asg30
VF
sg17
S'Y'
sg14
I12
sg19
(lp4729
S'space'
p4730
asg94
I0
sS'.thisIndex'
p4731
I0
sa(dp4732
g16
(lp4733
S'd'
asg18
S'Y'
sS'.thisRepN'
p4734
I38
sg26
S'Y'
sg20
S'Y'
sg31
g32
sS'.thisTrialN'
p4735
I11
sS'.thisN'
p4736
I581
sg25
S'Y'
sg15
(lp4737
S'k'
asg30
VF
sg17
S'Y'
sg14
I12
sg19
(lp4738
S'space'
p4739
asg94
I5
sS'.thisIndex'
p4740
I5
sa(dp4741
g16
(lp4742
S'd'
asg18
S'N'
sS'.thisRepN'
p4743
I38
sg26
S'Y'
sg20
S'N'
sg31
g32
sS'.thisTrialN'
p4744
I12
sS'.thisN'
p4745
I582
sg25
S'Y'
sg15
(lp4746
S'k'
asg30
VF
sg17
S'Y'
sg14
I12
sg19
(lp4747
S'space'
p4748
asg94
I5
sS'.thisIndex'
p4749
I5
sa(dp4750
g16
(lp4751
S'd'
asg18
S'N'
sS'.thisRepN'
p4752
I38
sg26
S'Y'
sg20
S'Y'
sg31
g32
sS'.thisTrialN'
p4753
I13
sS'.thisN'
p4754
I583
sg25
S'Y'
sg15
(lp4755
S'k'
asg30
VF
sg17
S'Y'
sg14
I12
sg19
Nsg94
I0
sS'.thisIndex'
p4756
I0
sa(dp4757
g16
(lp4758
S'd'
asg18
S'Y'
sS'.thisRepN'
p4759
I38
sg26
S'Y'
sg20
S'N'
sg31
g32
sS'.thisTrialN'
p4760
I14
sS'.thisN'
p4761
I584
sg25
S'Y'
sg15
(lp4762
S'k'
asg30
VF
sg17
S'Y'
sg14
I12
sg19
Nsg94
I4
sS'.thisIndex'
p4763
I4
sa(dp4764
g16
(lp4765
S'd'
asg18
S'N'
sS'.thisRepN'
p4766
I39
sg26
S'Y'
sg20
S'N'
sg31
g32
sS'.thisTrialN'
p4767
I0
sS'.thisN'
p4768
I585
sg25
S'Y'
sg15
(lp4769
S'k'
asg30
VF
sg17
S'Y'
sg14
I12
sg19
(lp4770
S'space'
p4771
asg94
I5
sS'.thisIndex'
p4772
I5
sa(dp4773
g16
(lp4774
S'k'
asg18
S'N'
sS'.thisRepN'
p4775
I39
sg26
S'Y'
sg20
S'Y'
sg31
g32
sS'.thisTrialN'
p4776
I1
sS'.thisN'
p4777
I586
sg25
S'Y'
sg15
(lp4778
S'd'
asg30
VF
sg17
S'Y'
sg14
I12
sg19
Nsg94
I7
sS'.thisIndex'
p4779
I7
sa(dp4780
g16
(lp4781
S'k'
asg18
S'Y'
sS'.thisRepN'
p4782
I39
sg26
S'Y'
sg20
S'Y'
sg31
g32
sS'.thisTrialN'
p4783
I2
sS'.thisN'
p4784
I587
sg25
S'Y'
sg15
(lp4785
S'k'
asg30
VF
sg17
S'N'
sg14
I12
sg19
(lp4786
S'space'
p4787
asg94
I6
sS'.thisIndex'
p4788
I6
sa(dp4789
g16
(lp4790
S'd'
asg18
S'N'
sS'.thisRepN'
p4791
I39
sg26
S'Y'
sg20
S'Y'
sg31
g32
sS'.thisTrialN'
p4792
I3
sS'.thisN'
p4793
I588
sg25
S'Y'
sg15
(lp4794
S'k'
asg30
VF
sg17
S'Y'
sg14
I12
sg19
Nsg94
I4
sS'.thisIndex'
p4795
I4
sa(dp4796
g16
(lp4797
S'd'
asg18
S'Y'
sS'.thisRepN'
p4798
I39
sg26
S'Y'
sg20
S'N'
sg31
g32
sS'.thisTrialN'
p4799
I4
sS'.thisN'
p4800
I589
sg25
S'Y'
sg15
(lp4801
S'k'
asg30
VF
sg17
S'Y'
sg14
I12
sg19
Nsg94
I12
sS'.thisIndex'
p4802
I12
sa(dp4803
g16
(lp4804
S'd'
asg18
S'N'
sS'.thisRepN'
p4805
I39
sg26
S'Y'
sg20
S'Y'
sg31
g32
sS'.thisTrialN'
p4806
I5
sS'.thisN'
p4807
I590
sg25
S'Y'
sg15
(lp4808
S'k'
asg30
VF
sg17
S'Y'
sg14
I12
sg19
Nsg94
I2
sS'.thisIndex'
p4809
I2
sa(dp4810
g16
(lp4811
S'k'
asg18
S'N'
sS'.thisRepN'
p4812
I39
sg26
S'Y'
sg20
S'Y'
sg31
g32
sS'.thisTrialN'
p4813
I6
sS'.thisN'
p4814
I591
sg25
S'Y'
sg15
(lp4815
S'd'
asg30
VF
sg17
S'Y'
sg14
I12
sg19
Nsg94
I10
sS'.thisIndex'
p4816
I10
sa(dp4817
g16
(lp4818
S'k'
asg18
S'N'
sS'.thisRepN'
p4819
I39
sg26
S'Y'
sg20
S'Y'
sg31
g32
sS'.thisTrialN'
p4820
I7
sS'.thisN'
p4821
I592
sg25
S'Y'
sg15
(lp4822
S'd'
asg30
VF
sg17
S'Y'
sg14
I12
sg19
Nsg94
I14
sS'.thisIndex'
p4823
I14
sa(dp4824
g16
(lp4825
S'k'
asg18
S'N'
sS'.thisRepN'
p4826
I39
sg26
S'Y'
sg20
S'Y'
sg31
g32
sS'.thisTrialN'
p4827
I8
sS'.thisN'
p4828
I593
sg25
S'Y'
sg15
(lp4829
S'd'
asg30
VF
sg17
S'Y'
sg14
I12
sg19
Nsg94
I12
sS'.thisIndex'
p4830
I12
sa(dp4831
g16
(lp4832
S'k'
asg18
S'Y'
sS'.thisRepN'
p4833
I39
sg26
S'Y'
sg20
S'Y'
sg31
g32
sS'.thisTrialN'
p4834
I9
sS'.thisN'
p4835
I594
sg25
S'Y'
sg15
(lp4836
S'd'
asg30
VF
sg17
S'Y'
sg14
I12
sg19
(lp4837
S'space'
p4838
asg94
I1
sS'.thisIndex'
p4839
I1
sa(dp4840
g16
(lp4841
S'd'
asg18
S'N'
sS'.thisRepN'
p4842
I39
sg26
S'Y'
sg20
S'Y'
sg31
g32
sS'.thisTrialN'
p4843
I10
sS'.thisN'
p4844
I595
sg25
S'Y'
sg15
(lp4845
S'k'
asg30
VF
sg17
S'Y'
sg14
I12
sg19
Nsg94
I2
sS'.thisIndex'
p4846
I2
sa(dp4847
g16
(lp4848
S'k'
asg18
S'N'
sS'.thisRepN'
p4849
I39
sg26
S'Y'
sg20
S'Y'
sg31
g32
sS'.thisTrialN'
p4850
I11
sS'.thisN'
p4851
I596
sg25
S'Y'
sg15
(lp4852
S'd'
asg30
VF
sg17
S'Y'
sg14
I12
sg19
Nsg94
I14
sS'.thisIndex'
p4853
I14
sa(dp4854
g16
(lp4855
S'k'
asg18
S'Y'
sS'.thisRepN'
p4856
I39
sg26
S'Y'
sg20
S'Y'
sg31
g32
sS'.thisTrialN'
p4857
I12
sS'.thisN'
p4858
I597
sg25
S'Y'
sg15
(lp4859
S'd'
asg30
VF
sg17
S'Y'
sg14
I12
sg19
(lp4860
S'space'
p4861
asg94
I0
sS'.thisIndex'
p4862
I0
sa(dp4863
g16
(lp4864
S'k'
asg18
S'Y'
sS'.thisRepN'
p4865
I39
sg26
S'Y'
sg20
S'Y'
sg31
g32
sS'.thisTrialN'
p4866
I13
sS'.thisN'
p4867
I598
sg25
S'Y'
sg15
(lp4868
S'd'
asg30
VF
sg17
S'Y'
sg14
I12
sg19
(lp4869
S'space'
p4870
asg94
I11
sS'.thisIndex'
p4871
I11
sa(dp4872
g16
(lp4873
S'd'
asg18
S'N'
sg22
I37
sg26
S'Y'
sS'.thisN'
p4874
I599
sg20
S'Y'
sg31
g32
sS'.thisTrialN'
p4875
I14
sS'.thisRepN'
p4876
I39
sg21
I45
sg25
S'Y'
sg23
I16
sg15
(lp4877
S'k'
asg30
VF
sg17
S'Y'
sg14
I12
sg19
Nsg94
I10
sS'.thisIndex'
p4878
I10
sasS'loops'
p4879
(lp4880
g1
(g35
g3
NtRp4881
(dp4882
g38
Nsg39
(lp4883
sg40
I79799280
sg10
S''
sg6
g41
sg42
I1
sg27
I01
sg28
Nsg43
g1
(g44
g45
(dp4884
g47
g48
(g49
g50
g51
S'b'
tRp4885
(I1
(I600
I1
tg54
I00
S'\x00\x00\x80?\x00\x00\x80?\x00\x00\x80?\x00\x00\x80?\x00\x00\x80?\x00\x00\x80?\x00\x00\x80?\x00\x00\x80?\x00\x00\x80?\x00\x00\x80?\x00\x00\x80?\x00\x00\x80?\x00\x00\x80?\x00\x00\x80?\x00\x00\x80?\x00\x00\x80?\x00\x00\x80?\x00\x00\x80?\x00\x00\x80?\x00\x00\x80?\x00\x00\x80?\x00\x00\x80?\x00\x00\x80?\x00\x00\x80?\x00\x00\x80?\x00\x00\x80?\x00\x00\x80?\x00\x00\x80?\x00\x00\x80?\x00\x00\x80?\x00\x00\x80?\x00\x00\x80?\x00\x00\x80?\x00\x00\x80?\x00\x00\x80?\x00\x00\x80?\x00\x00\x80?\x00\x00\x80?\x00\x00\x80?\x00\x00\x80?\x00\x00\x80?\x00\x00\x80?\x00\x00\x80?\x00\x00\x80?\x00\x00\x80?\x00\x00\x80?\x00\x00\x80?\x00\x00\x80?\x00\x00\x80?\x00\x00\x80?\x00\x00\x80?\x00\x00\x80?\x00\x00\x80?\x00\x00\x80?\x00\x00\x80?\x00\x00\x80?\x00\x00\x80?\x00\x00\x80?\x00\x00\x80?\x00\x00\x80?\x00\x00\x80?\x00\x00\x80?\x00\x00\x80?\x00\x00\x80?\x00\x00\x80?\x00\x00\x80?\x00\x00\x80?\x00\x00\x80?\x00\x00\x80?\x00\x00\x80?\x00\x00\x80?\x00\x00\x80?\x00\x00\x80?\x00\x00\x80?\x00\x00\x80?\x00\x00\x80?\x00\x00\x80?\x00\x00\x80?\x00\x00\x80?\x00\x00\x80?\x00\x00\x80?\x00\x00\x80?\x00\x00\x80?\x00\x00\x80?\x00\x00\x80?\x00\x00\x80?\x00\x00\x80?\x00\x00\x80?\x00\x00\x80?\x00\x00\x80?\x00\x00\x80?\x00\x00\x80?\x00\x00\x80?\x00\x00\x80?\x00\x00\x80?\x00\x00\x80?\x00\x00\x80?\x00\x00\x80?\x00\x00\x80?\x00\x00\x80?\x00\x00\x80?\x00\x00\x80?\x00\x00\x80?\x00\x00\x80?\x00\x00\x80?\x00\x00\x80?\x00\x00\x80?\x00\x00\x80?\x00\x00\x80?\x00\x00\x80?\x00\x00\x80?\x00\x00\x80?\x00\x00\x80?\x00\x00\x80?\x00\x00\x80?\x00\x00\x80?\x00\x00\x80?\x00\x00\x80?\x00\x00\x80?\x00\x00\x80?\x00\x00\x80?\x00\x00\x80?\x00\x00\x80?\x00\x00\x80?\x00\x00\x80?\x00\x00\x80?\x00\x00\x80?\x00\x00\x80?\x00\x00\x80?\x00\x00\x80?\x00\x00\x80?\x00\x00\x80?\x00\x00\x80?\x00\x00\x80?\x00\x00\x80?\x00\x00\x80?\x00\x00\x80?\x00\x00\x80?\x00\x00\x80?\x00\x00\x80?\x00\x00\x80?\x00\x00\x80?\x00\x00\x80?\x00\x00\x80?\x00\x00\x80?\x00\x00\x80?\x00\x00\x80?\x00\x00\x80?\x00\x00\x80?\x00\x00\x80?\x00\x00\x80?\x00\x00\x80?\x00\x00\x80?\x00\x00\x80?\x00\x00\x80?\x00\x00\x80?\x00\x00\x80?\x00\x00\x80?\x00\x00\x80?\x00\x00\x80?\x00\x00\x80?\x00\x00\x80?\x00\x00\x80?\x00\x00\x80?\x00\x00\x80?\x00\x00\x80?\x00\x00\x80?\x00\x00\x80?\x00\x00\x80?\x00\x00\x80?\x00\x00\x80?\x00\x00\x80?\x00\x00\x80?\x00\x00\x80?\x00\x00\x80?\x00\x00\x80?\x00\x00\x80?\x00\x00\x80?\x00\x00\x80?\x00\x00\x80?\x00\x00\x80?\x00\x00\x80?\x00\x00\x80?\x00\x00\x80?\x00\x00\x80?\x00\x00\x80?\x00\x00\x80?\x00\x00\x80?\x00\x00\x80?\x00\x00\x80?\x00\x00\x80?\x00\x00\x80?\x00\x00\x80?\x00\x00\x80?\x00\x00\x80?\x00\x00\x80?\x00\x00\x80?\x00\x00\x80?\x00\x00\x80?\x00\x00\x80?\x00\x00\x80?\x00\x00\x80?\x00\x00\x80?\x00\x00\x80?\x00\x00\x80?\x00\x00\x80?\x00\x00\x80?\x00\x00\x80?\x00\x00\x80?\x00\x00\x80?\x00\x00\x80?\x00\x00\x80?\x00\x00\x80?\x00\x00\x80?\x00\x00\x80?\x00\x00\x80?\x00\x00\x80?\x00\x00\x80?\x00\x00\x80?\x00\x00\x80?\x00\x00\x80?\x00\x00\x80?\x00\x00\x80?\x00\x00\x80?\x00\x00\x80?\x00\x00\x80?\x00\x00\x80?\x00\x00\x80?\x00\x00\x80?\x00\x00\x80?\x00\x00\x80?\x00\x00\x80?\x00\x00\x80?\x00\x00\x80?\x00\x00\x80?\x00\x00\x80?\x00\x00\x80?\x00\x00\x80?\x00\x00\x80?\x00\x00\x80?\x00\x00\x80?\x00\x00\x80?\x00\x00\x80?\x00\x00\x80?\x00\x00\x80?\x00\x00\x80?\x00\x00\x80?\x00\x00\x80?\x00\x00\x80?\x00\x00\x80?\x00\x00\x80?\x00\x00\x80?\x00\x00\x80?\x00\x00\x80?\x00\x00\x80?\x00\x00\x80?\x00\x00\x80?\x00\x00\x80?\x00\x00\x80?\x00\x00\x80?\x00\x00\x80?\x00\x00\x80?\x00\x00\x80?\x00\x00\x80?\x00\x00\x80?\x00\x00\x80?\x00\x00\x80?\x00\x00\x80?\x00\x00\x80?\x00\x00\x80?\x00\x00\x80?\x00\x00\x80?\x00\x00\x80?\x00\x00\x80?\x00\x00\x80?\x00\x00\x80?\x00\x00\x80?\x00\x00\x80?\x00\x00\x80?\x00\x00\x80?\x00\x00\x80?\x00\x00\x80?\x00\x00\x80?\x00\x00\x80?\x00\x00\x80?\x00\x00\x80?\x00\x00\x80?\x00\x00\x80?\x00\x00\x80?\x00\x00\x80?\x00\x00\x80?\x00\x00\x80?\x00\x00\x80?\x00\x00\x80?\x00\x00\x80?\x00\x00\x80?\x00\x00\x80?\x00\x00\x80?\x00\x00\x80?\x00\x00\x80?\x00\x00\x80?\x00\x00\x80?\x00\x00\x80?\x00\x00\x80?\x00\x00\x80?\x00\x00\x80?\x00\x00\x80?\x00\x00\x80?\x00\x00\x80?\x00\x00\x80?\x00\x00\x80?\x00\x00\x80?\x00\x00\x80?\x00\x00\x80?\x00\x00\x80?\x00\x00\x80?\x00\x00\x80?\x00\x00\x80?\x00\x00\x80?\x00\x00\x80?\x00\x00\x80?\x00\x00\x80?\x00\x00\x80?\x00\x00\x80?\x00\x00\x80?\x00\x00\x80?\x00\x00\x80?\x00\x00\x80?\x00\x00\x80?\x00\x00\x80?\x00\x00\x80?\x00\x00\x80?\x00\x00\x80?\x00\x00\x80?\x00\x00\x80?\x00\x00\x80?\x00\x00\x80?\x00\x00\x80?\x00\x00\x80?\x00\x00\x80?\x00\x00\x80?\x00\x00\x80?\x00\x00\x80?\x00\x00\x80?\x00\x00\x80?\x00\x00\x80?\x00\x00\x80?\x00\x00\x80?\x00\x00\x80?\x00\x00\x80?\x00\x00\x80?\x00\x00\x80?\x00\x00\x80?\x00\x00\x80?\x00\x00\x80?\x00\x00\x80?\x00\x00\x80?\x00\x00\x80?\x00\x00\x80?\x00\x00\x80?\x00\x00\x80?\x00\x00\x80?\x00\x00\x80?\x00\x00\x80?\x00\x00\x80?\x00\x00\x80?\x00\x00\x80?\x00\x00\x80?\x00\x00\x80?\x00\x00\x80?\x00\x00\x80?\x00\x00\x80?\x00\x00\x80?\x00\x00\x80?\x00\x00\x80?\x00\x00\x80?\x00\x00\x80?\x00\x00\x80?\x00\x00\x80?\x00\x00\x80?\x00\x00\x80?\x00\x00\x80?\x00\x00\x80?\x00\x00\x80?\x00\x00\x80?\x00\x00\x80?\x00\x00\x80?\x00\x00\x80?\x00\x00\x80?\x00\x00\x80?\x00\x00\x80?\x00\x00\x80?\x00\x00\x80?\x00\x00\x80?\x00\x00\x80?\x00\x00\x80?\x00\x00\x80?\x00\x00\x80?\x00\x00\x80?\x00\x00\x80?\x00\x00\x80?\x00\x00\x80?\x00\x00\x80?\x00\x00\x80?\x00\x00\x80?\x00\x00\x80?\x00\x00\x80?\x00\x00\x80?\x00\x00\x80?\x00\x00\x80?\x00\x00\x80?\x00\x00\x80?\x00\x00\x80?\x00\x00\x80?\x00\x00\x80?\x00\x00\x80?\x00\x00\x80?\x00\x00\x80?\x00\x00\x80?\x00\x00\x80?\x00\x00\x80?\x00\x00\x80?\x00\x00\x80?\x00\x00\x80?\x00\x00\x80?\x00\x00\x80?\x00\x00\x80?\x00\x00\x80?\x00\x00\x80?\x00\x00\x80?\x00\x00\x80?\x00\x00\x80?\x00\x00\x80?\x00\x00\x80?\x00\x00\x80?\x00\x00\x80?\x00\x00\x80?\x00\x00\x80?\x00\x00\x80?\x00\x00\x80?\x00\x00\x80?\x00\x00\x80?\x00\x00\x80?\x00\x00\x80?\x00\x00\x80?\x00\x00\x80?\x00\x00\x80?\x00\x00\x80?\x00\x00\x80?\x00\x00\x80?\x00\x00\x80?\x00\x00\x80?\x00\x00\x80?\x00\x00\x80?\x00\x00\x80?\x00\x00\x80?\x00\x00\x80?\x00\x00\x80?\x00\x00\x80?\x00\x00\x80?\x00\x00\x80?\x00\x00\x80?\x00\x00\x80?\x00\x00\x80?\x00\x00\x80?\x00\x00\x80?\x00\x00\x80?\x00\x00\x80?\x00\x00\x80?\x00\x00\x80?\x00\x00\x80?\x00\x00\x80?\x00\x00\x80?\x00\x00\x80?\x00\x00\x80?\x00\x00\x80?\x00\x00\x80?\x00\x00\x80?\x00\x00\x80?\x00\x00\x80?\x00\x00\x80?\x00\x00\x80?\x00\x00\x80?\x00\x00\x80?\x00\x00\x80?\x00\x00\x80?\x00\x00\x80?\x00\x00\x80?\x00\x00\x80?\x00\x00\x80?\x00\x00\x80?\x00\x00\x80?\x00\x00\x80?\x00\x00\x80?\x00\x00\x80?\x00\x00\x80?\x00\x00\x80?\x00\x00\x80?\x00\x00\x80?\x00\x00\x80?\x00\x00\x80?\x00\x00\x80?\x00\x00\x80?\x00\x00\x80?\x00\x00\x80?\x00\x00\x80?\x00\x00\x80?\x00\x00\x80?\x00\x00\x80?\x00\x00\x80?\x00\x00\x80?\x00\x00\x80?\x00\x00\x80?\x00\x00\x80?\x00\x00\x80?\x00\x00\x80?\x00\x00\x80?\x00\x00\x80?\x00\x00\x80?\x00\x00\x80?\x00\x00\x80?\x00\x00\x80?\x00\x00\x80?\x00\x00\x80?\x00\x00\x80?\x00\x00\x80?\x00\x00\x80?\x00\x00\x80?\x00\x00\x80?\x00\x00\x80?\x00\x00\x80?\x00\x00\x80?\x00\x00\x80?\x00\x00\x80?\x00\x00\x80?\x00\x00\x80?\x00\x00\x80?\x00\x00\x80?\x00\x00\x80?\x00\x00\x80?\x00\x00\x80?\x00\x00\x80?\x00\x00\x80?\x00\x00\x80?\x00\x00\x80?\x00\x00\x80?\x00\x00\x80?\x00\x00\x80?\x00\x00\x80?\x00\x00\x80?\x00\x00\x80?\x00\x00\x80?\x00\x00\x80?\x00\x00\x80?\x00\x00\x80?\x00\x00\x80?\x00\x00\x80?\x00\x00\x80?\x00\x00\x80?\x00\x00\x80?\x00\x00\x80?\x00\x00\x80?\x00\x00\x80?\x00\x00\x80?\x00\x00\x80?\x00\x00\x80?\x00\x00\x80?\x00\x00\x80?\x00\x00\x80?\x00\x00\x80?\x00\x00\x80?\x00\x00\x80?\x00\x00\x80?\x00\x00\x80?\x00\x00\x80?\x00\x00\x80?\x00\x00\x80?\x00\x00\x80?\x00\x00\x80?\x00\x00\x80?\x00\x00\x80?\x00\x00\x80?\x00\x00\x80?\x00\x00\x80?\x00\x00\x80?\x00\x00\x80?\x00\x00\x80?\x00\x00\x80?\x00\x00\x80?\x00\x00\x80?\x00\x00\x80?\x00\x00\x80?\x00\x00\x80?\x00\x00\x80?\x00\x00\x80?\x00\x00\x80?\x00\x00\x80?\x00\x00\x80?\x00\x00\x80?\x00\x00\x80?'
S'\x00\x00\x00\x00\x00\x00\x00\x00\x00\x00\x00\x00\x00\x00\x00\x00\x00\x00\x00\x00\x00\x00\x00\x00\x00\x00\x00\x00\x00\x00\x00\x00\x00\x00\x00\x00\x00\x00\x00\x00\x00\x00\x00\x00\x00\x00\x00\x00\x00\x00\x00\x00\x00\x00\x00\x00\x00\x00\x00\x00\x00\x00\x00\x00\x00\x00\x00\x00\x00\x00\x00\x00\x00\x00\x00\x00\x00\x00\x00\x00\x00\x00\x00\x00\x00\x00\x00\x00\x00\x00\x00\x00\x00\x00\x00\x00\x00\x00\x00\x00\x00\x00\x00\x00\x00\x00\x00\x00\x00\x00\x00\x00\x00\x00\x00\x00\x00\x00\x00\x00\x00\x00\x00\x00\x00\x00\x00\x00\x00\x00\x00\x00\x00\x00\x00\x00\x00\x00\x00\x00\x00\x00\x00\x00\x00\x00\x00\x00\x00\x00\x00\x00\x00\x00\x00\x00\x00\x00\x00\x00\x00\x00\x00\x00\x00\x00\x00\x00\x00\x00\x00\x00\x00\x00\x00\x00\x00\x00\x00\x00\x00\x00\x00\x00\x00\x00\x00\x00\x00\x00\x00\x00\x00\x00\x00\x00\x00\x00\x00\x00\x00\x00\x00\x00\x00\x00\x00\x00\x00\x00\x00\x00\x00\x00\x00\x00\x00\x00\x00\x00\x00\x00\x00\x00\x00\x00\x00\x00\x00\x00\x00\x00\x00\x00\x00\x00\x00\x00\x00\x00\x00\x00\x00\x00\x00\x00\x00\x00\x00\x00\x00\x00\x00\x00\x00\x00\x00\x00\x00\x00\x00\x00\x00\x00\x00\x00\x00\x00\x00\x00\x00\x00\x00\x00\x00\x00\x00\x00\x00\x00\x00\x00\x00\x00\x00\x00\x00\x00\x00\x00\x00\x00\x00\x00\x00\x00\x00\x00\x00\x00\x00\x00\x00\x00\x00\x00\x00\x00\x00\x00\x00\x00\x00\x00\x00\x00\x00\x00\x00\x00\x00\x00\x00\x00\x00\x00\x00\x00\x00\x00\x00\x00\x00\x00\x00\x00\x00\x00\x00\x00\x00\x00\x00\x00\x00\x00\x00\x00\x00\x00\x00\x00\x00\x00\x00\x00\x00\x00\x00\x00\x00\x00\x00\x00\x00\x00\x00\x00\x00\x00\x00\x00\x00\x00\x00\x00\x00\x00\x00\x00\x00\x00\x00\x00\x00\x00\x00\x00\x00\x00\x00\x00\x00\x00\x00\x00\x00\x00\x00\x00\x00\x00\x00\x00\x00\x00\x00\x00\x00\x00\x00\x00\x00\x00\x00\x00\x00\x00\x00\x00\x00\x00\x00\x00\x00\x00\x00\x00\x00\x00\x00\x00\x00\x00\x00\x00\x00\x00\x00\x00\x00\x00\x00\x00\x00\x00\x00\x00\x00\x00\x00\x00\x00\x00\x00\x00\x00\x00\x00\x00\x00\x00\x00\x00\x00\x00\x00\x00\x00\x00\x00\x00\x00\x00\x00\x00\x00\x00\x00\x00\x00\x00\x00\x00\x00\x00\x00\x00\x00\x00\x00\x00\x00\x00\x00\x00\x00\x00\x00\x00\x00\x00\x00\x00\x00\x00\x00\x00\x00\x00\x00\x00\x00\x00\x00\x00\x00\x00\x00\x00\x00\x00\x00\x00\x00\x00\x00\x00\x00\x00\x00\x00\x00\x00\x00\x00\x00\x00\x00\x00\x00\x00\x00\x00\x00\x00\x00\x00\x00\x00\x00\x00\x00\x00\x00\x00\x00\x00\x00\x00\x00\x00\x00\x00\x00\x00\x00\x00\x00\x00\x00\x00\x00\x00\x00\x00\x00\x00\x00\x00\x00\x00\x00\x00\x00\x00\x00\x00\x00\x00\x00\x00\x00\x00\x00\x00\x00\x00\x00\x00'
Ntbsg55
g48
(g49
g50
g51
S'b'
tRp4886
(I1
(I600
I1
tg54
I00
S'\x00\x80\x04D\x00\x00\xf6C\x00\x00\xbaC\x00\xc0\x08D\x00\x00\x00D\x00\x80\x11D\x00\x80\x81C\x00\x80\xd9C\x00\x80\xfeC\x00@\x13D\x00\x00\\C\x00\x00\xd6C\x00\x00\xacB\x00\x00\xb6C\x00\x00\xf0A\x00\x00\xa6C\x00\x80\xaaC\x00\x00\xd2C\x00\x00\xcbC\x00\x80\x93C\x00\x80\xd7C\x00\x80\x85C\x00\xc0\x0bD\x00\x00\x10D\x00\x00pB\x00\x00\x08C\x00\x00\xadC\x00\x00\x9bC\x00\x00\x9fC\x00\x00\x93C\x00@\x08D\x00\x80\x8fC\x00\x001C\x00\x00\x14C\x00\x80\xf5C\x00\x00\xc6C\x00\x00\x82C\x00\x00\x81C\x00\x00\x92B\x00\x00EC\x00\x00\xfeC\x00\x00\x80A\x00\x00\x06D\x00\x00ZC\x00\x80\xbaC\x00\x00\xceC\x00@\x12D\x00\x80\xa0C\x00\x00\xaeC\x00\x00\x94B\x00\x00\x1dC\x00\x00\xb7C\x00\x00\x08B\x00\x00\x8bC\x00\x80\xf8C\x00\x80\x8eC\x00\x00cC\x00\x00\x15C\x00\x80\x98C\x00\x00\x8eB\x00\x00DB\x00\x00\x8aB\x00\x00\xfaB\x00\x00\xdcB\x00\x00\x80B\x00\x80\xa9C\x00\x00\xd9C\x00\x00\x08D\x00\x00\xf7C\x00\x00\x1bC\x00\x80\x8cC\x00\x00\xdeC\x00@\nD\x00\x00\xb2B\x00\xc0\nD\x00\x00\x12D\x00\x00\x95C\x00\x00\xf6B\x00\x00@C\x00\x00\xe6B\x00\x00qC\x00\x80\xffC\x00\x00:C\x00\x00pC\x00\x00\x00C\x00\x00\x1cC\x00\x00dB\x00\x00gC\x00\x00\xcdC\x00\x00\xe2B\x00\x00\x1fC\x00\x00\x04D\x00@\x11D\x00\xc0\rD\x00\x00\xe7C\x00\x00\xccB\x00\x00\tC\x00\x00\xeaB\x00\x80\xefC\x00\xc0\x0eD\x00\x00\xc6B\x00\x00aC\x00\x003C\x00\x00\xe0A\x00\x00\x98C\x00\x80\xa1C\x00\x00)C\x00\x80\xdeC\x00\x80\x0cD\x00\x80\xeeC\x00\x00\x9aC\x00\x00\xb0B\x00\x00\xb8A\x00\xc0\x03D\x00\x00\x18C\x00\x00}C\x00\x00\x0bD\x00\x00jC\x00\x00\x90A\x00\x00 C\x00\x00\xf8B\x00\x00DC\x00\x00\xb9C\x00@\x04D\x00\x80\x90C\x00\x00BC\x00\x002C\x00\x80\x95C\x00\x80\xd0C\x00\x00\xe4B\x00\x80\xe7C\x00\x00^C\x00\x00\xc4C\x00\x80\x91C\x00\x00\x13D\x00\x80\xc8C\x00\x00\xe4C\x00\x006C\x00\x00\x90C\x00\x00\xd1C\x00\x80\xa4C\x00\x00(C\x00\x00\xfcB\x00\x80\x88C\x00\x00\xe5C\x00\x00\xbcB\x00\x00\xf9C\x00\x00fC\x00\x00\xe2C\x00\x00<C\x00\x00\x04C\x00\x80\x8dC\x00\x00\x7fC\x00\x00&C\x00\x80\xd8C\x00\x00,B\x00\x00\xd6B\x00\x00OC\x00\x00\\B\x00\x00\x00@\x00\x00\xb1C\x00\x00NC\x00\x008B\x00\x80\x83C\x00\x00\nC\x00\x00\xdaC\x00@\rD\x00\x00SC\x00\x00\x1eC\x00\x80\x9cC\x00\x00\xf4B\x00\x80\x06D\x00\x00\xf5C\x00\x00\xa8C\x00\x80\xceC\x00\x00`C\x00\x80\xf6C\x00\x00\xd8A\x00\x00\xc1C\x00\x00\xb8B\x00\x00@@\x00\x00\xf3C\x00\x00\xa0@\x00\x00\x10B\x00\x00\xffC\x00@\x05D\x00\x80\xd1C\x00\x00\x01C\x00\x00\x9eB\x00\x00\xafC\x00\x00<B\x00\x00CC\x00\x80\x07D\x00\x00\xf8A\x00@\x03D\x00\x00TC\x00\x00\x84B\x00\x00\xbcC\x00\x00\xd0A\x00\x00\xe8C\x00\x00{C\x00\x00+C\x00\x80\xc6C\x00@\x06D\x00\x00\x14B\x00\x80\x94C\x00\x00>C\x00\x00KC\x00\x80\xeaC\x00\x00FC\x00\x00\x86B\x00\x00\xe3C\x00\x80\xf3C\x00\x00\rC\x00\x00\xa4B\x00\x00TB\x00\x00\xb8C\x00\x80\xc4C\x00\x00\x0eC\x00\x00\x88C\x00\x00QC\x00\x00\x98B\x00\x80\x13D\x00\x00\x18B\x00\x80\xa8C\x00\xc0\x15D\x00\x80\nD\x00\x00AC\x00\x00\xd2B\x00\x00\xdaB\x00\x00xB\x00\x00\xe8A\x00\x00|C\x00\xc0\x11D\x00\x80\x80C\x00\x00.C\x00\x00\x96B\x00\x00\x06C\x00\x00\x0eD\x00\x00\xf1C\x00\x00\x90B\x00\x00\x17C\x00\x00\xfcC\x00@\x0fD\x00\x00tB\x00\x80\x01D\x00\x80\x87C\x00\xc0\x14D\x00\x80\x82C\x00\x00\xd3C\x00\x00\xbeB\x00\x00\xb4C\x00\x00MC\x00\x00\x03D\x00\x000C\x00\x00\xa0A\x00\x80\xc9C\x00\x00\xa8B\x00\x00PA\x00\x00\xacC\x00\x80\xc0C\x00\x00\x9aB\x00\x00PB\x00\x80\xe2C\x00\x000A\x00\x00hB\x00\x00\xd0B\x00\x00\x84C\x00\x80\xb7C\x00\x80\xc5C\x00\x00/C\x00@\x07D\x00\x80\x05D\x00\x80\xecC\x00\x00*C\x00\x00\xb4B\x00\xc0\x05D\x00\x00UC\x00\x00\xaaB\x00\x00\x02C\x00\x80\xcbC\x00\x00\x99C\x00\x80\xc7C\x00\x00\xc0@\x00\x80\x8bC\x00\x00HC\x00\x00\x9cC\x00\x00\x88B\x00\x00\xcaC\x00\x80\xbeC\x00\x00\x0cB\x00\x00\xbbC\x00\x80\xbfC\x00\x80\xcfC\x00\x00\xa2C\x00\x00sC\x00\x80\xa6C\x00\x00\xa6B\x00\x00\x82B\x00\x00\x1aC\x00\x00\x8aC\x00\x80\xacC\x00\x00\xf0C\x00\x00\xa5C\x00\x00\x04B\x00\x00hC\x00\x80\xc3C\x00\x80\xa5C\x00\x00lC\x00\x00\xceB\x00\x80\x10D\x00\x00\xc8A\x00\x00-C\x00\x80\xb2C\x00\x00\x19C\x00\xc0\x0fD\x00\x00yC\x00\x80\x15D\x00\x004C\x00\x80\xe6C\x00\x80\x89C\x00\xc0\x06D\x00\x00\xd4B\x00\x00\xe8B\x00\x00\xdbC\x00\x00\x13C\x00\x00\x8dC\x00\x00\x14D\x00\x00@A\x00\x00\xc2C\x00\x80\xe3C\x00\x80\xd3C\x00\x80\xb0C\x00\x00 B\x00\x00\tD\x00@\x02D\x00\x00\xa8A\x00\x00\x02D\x00\x00\xeeC\x00\x80\xddC\x00\x00\x8cC\x00\x00\x0cC\x00\x00iC\x00\x00\xb0C\x00\x80\x08D\x00\x00$C\x00\x80\xd2C\x00\x80\xc1C\x00\x00\xaeB\x00\x00\x00\x00\x00@\x14D\x00\x80\xdfC\x00\x80\xedC\x00\x80\xaeC\x00\x00\xabC\x00\x00\xb5C\x00\x00\xfeB\x00\x80\xe8C\x00\x00\x05C\x00\x00\xa2B\x00\x00\xeeB\x00\x00\xcfC\x00\x00\x80C\x00\x00\x07D\x00\xc0\x10D\x00\x00\xcaB\x00\x00\xa3C\x00\x00\xefC\x00\x80\x86C\x00\x00\xe9C\x00\x00\xdfC\x00\x00\x89C\x00\x80\xfbC\x00\x80\x9eC\x00\x00\xc0B\x00\x00\xfbC\x00\x00\xb2C\x00\x00_C\x00\x00JC\x00\x00\xc8B\x00\x80\x9dC\x00\x00\x83C\x00\x00VC\x00\x80\x8aC\x00\x00\xf2C\x00\xc0\x12D\x00@\x0cD\x00\x00LB\x00\x80\x9bC\x00\x00\x05D\x00\x80\xf9C\x00\x00YC\x00\x80\xd4C\x00\x80\xbbC\x00\x00\xecC\x00\x007C\x00\x80\xb6C\x00\x80\xccC\x00\x00\xfdC\x00\x00\x80?\x00\x00\x96C\x00\x00\x00A\x00\x00\xd7C\x00\x80\xbcC\x00\x00#C\x00\x00\x0fD\x00\x00\xebC\x00\x00\x15D\x00\x00LC\x00\x80\xcdC\x00\x00\x12C\x00\x00\x10C\x00\x00,C\x00\x80\xdbC\x00\x00HB\x00\x00\x87C\x00\x00\xc2B\x00\x80\x0eD\x00\x80\xc2C\x00\x80\xadC\x00\x00\xc9C\x00\x80\xdaC\x00\x00\x11D\x00\x00\x8cB\x00\x80\xfaC\x00\x00bC\x00\x00\x88A\x00\x80\xf7C\x00\x80\x14D\x00\x80\xf4C\x00\x00\xe0B\x00\x00\xddC\x00\x80\xd5C\x00\x00\x98A\x00\x00?C\x00\x00\xedC\x00\xc0\x0cD\x00\x00\xd0C\x00\x00\xf8C\x00\x00GC\x00\x00\xd8C\x00\x00\x0cD\x00\x00\x91C\x00\x00$B\x00\x00=C\x00\xc0\x00D\x00\x00`B\x00\x80\xe9C\x00\x00\xf4C\x00\x00nC\x00\x80\xebC\x00\x00"C\x00\x004B\x00\x80\xa7C\x00\x00rC\x00\x80\x0bD\x00\x00~C\x00\x00WC\x00\x00\x85C\x00\x00%C\x00\x80\rD\x00\x00\xe0@\x00@\x00D\x00\x00\xd5C\x00\x00\x1cB\x00\x00\xc5C\x00\x00\xe0C\x00\x00PC\x00\x00XB\x00\x00\x10A\x00\x00\x0bC\x00\x00dC\x00\x80\xafC\x00\x00\x00B\x00\x00\x92C\x00\x80\xdcC\x00\x00\xb3C\x00\x00pA\x00\x80\xb4C\x00\x00\xd4C\x00\x80\x0fD\x00\x00\xc3C\x00\x00\xa0C\x00\x00\x8fC\x00\x00kC\x00\x80\xa3C\x00\x00\xd8B\x00\x80\xf1C\x00\x00\rD\x00\x80\xbdC\x00\x00\xdeB\x00\x00\xb6B\x00\x00\xb0A\x00\x00\x80@\x00\x00\x86C\x00\x00\x8eC\x00@\x0eD\x00\x00\xecB\x00\x00\x03C\x00\x00\x9cB\x00\x80\xb9C\x00\x00lB\x00\x00\xeaC\x00\x80\x9aC\x00\x00\xccC\x00\x00|B\x00\x00\xdcC\x00\x80\xb8C\x00\x00XC\x00\x00\xc8C\x00\x00oC\x00\x00\xf2B\x00\x80\xb1C\x00\x00\xa4C\x00\xc0\tD\x00\xc0\x04D\x00\x00\xaaC\x00\x80\xe5C\x00\x00RC\x00\x00zC\x00\x80\tD\x00\x008C\x00\x80\x96C\x00\x80\xcaC\x00\x80\xb3C\x00@\tD\x00\x00uC\x00\x80\xfcC\x00\x80\x99C\x00\x00[C\x00\x00;C\x00\x80\xe0C\x00\x00\xe6C\x00\x00\x07C\x00\x80\x92C\x00\x80\xf0C\x00\x00 A\x00@\x10D\x00\x00\xc0C\x00\x80\x97C\x00\x005C\x00\x00\'C\x00\x00IC\x00\x80\x12D\x00\x80\xa2C\x00\x80\xb5C\x00\x80\xe1C\x00\x00\x0fC\x00\x80\x9fC\x00\x000B\x00\x80\xd6C\x00\x00mC\x00\xc0\x02D\x00\x00\xa0B\x00\x00\x94C\x00\x00\xc7C\x00@\x0bD\x00\x00\xbeC\x00\x00\x97C\x00\x00eC\x00\x00\xbaB\x00\x80\x02D\x00\xc0\x01D\x00\x80\x84C\x00\x00!C\x00\x00@B\x00\x00\xe1C\x00\x80\xfdC\x00\x00\x11C\x00\x00\xf0B\x00\x80\xf2C\x00\xc0\x13D\x00\x00\x16C\x00\x00\xbfC\x00\x00\xa7C\x00@\x01D\x00\x80\x03D\x00\x00xC\x00\xc0\x07D\x00\x00]C\x00\x00wC\x00\x00\xfaC\x00\x00(B\x00\x80\xabC\x00\x00vC\x00\x00tC\x00\x00\x9eC\x00\x00\xa1C\x00\x00\xa9C\x00\x00\x9dC\x00\x00\xc0A\x00\x00\xbdC\x00@\x15D\x00\x00\xc4B\x00\x00`A\x00\x80\x00D\x00\x00\nD\x00\x009C\x00\x80\xe4C\x00\x00\x01D'
S'\x00\x00\x00\x00\x00\x00\x00\x00\x00\x00\x00\x00\x00\x00\x00\x00\x00\x00\x00\x00\x00\x00\x00\x00\x00\x00\x00\x00\x00\x00\x00\x00\x00\x00\x00\x00\x00\x00\x00\x00\x00\x00\x00\x00\x00\x00\x00\x00\x00\x00\x00\x00\x00\x00\x00\x00\x00\x00\x00\x00\x00\x00\x00\x00\x00\x00\x00\x00\x00\x00\x00\x00\x00\x00\x00\x00\x00\x00\x00\x00\x00\x00\x00\x00\x00\x00\x00\x00\x00\x00\x00\x00\x00\x00\x00\x00\x00\x00\x00\x00\x00\x00\x00\x00\x00\x00\x00\x00\x00\x00\x00\x00\x00\x00\x00\x00\x00\x00\x00\x00\x00\x00\x00\x00\x00\x00\x00\x00\x00\x00\x00\x00\x00\x00\x00\x00\x00\x00\x00\x00\x00\x00\x00\x00\x00\x00\x00\x00\x00\x00\x00\x00\x00\x00\x00\x00\x00\x00\x00\x00\x00\x00\x00\x00\x00\x00\x00\x00\x00\x00\x00\x00\x00\x00\x00\x00\x00\x00\x00\x00\x00\x00\x00\x00\x00\x00\x00\x00\x00\x00\x00\x00\x00\x00\x00\x00\x00\x00\x00\x00\x00\x00\x00\x00\x00\x00\x00\x00\x00\x00\x00\x00\x00\x00\x00\x00\x00\x00\x00\x00\x00\x00\x00\x00\x00\x00\x00\x00\x00\x00\x00\x00\x00\x00\x00\x00\x00\x00\x00\x00\x00\x00\x00\x00\x00\x00\x00\x00\x00\x00\x00\x00\x00\x00\x00\x00\x00\x00\x00\x00\x00\x00\x00\x00\x00\x00\x00\x00\x00\x00\x00\x00\x00\x00\x00\x00\x00\x00\x00\x00\x00\x00\x00\x00\x00\x00\x00\x00\x00\x00\x00\x00\x00\x00\x00\x00\x00\x00\x00\x00\x00\x00\x00\x00\x00\x00\x00\x00\x00\x00\x00\x00\x00\x00\x00\x00\x00\x00\x00\x00\x00\x00\x00\x00\x00\x00\x00\x00\x00\x00\x00\x00\x00\x00\x00\x00\x00\x00\x00\x00\x00\x00\x00\x00\x00\x00\x00\x00\x00\x00\x00\x00\x00\x00\x00\x00\x00\x00\x00\x00\x00\x00\x00\x00\x00\x00\x00\x00\x00\x00\x00\x00\x00\x00\x00\x00\x00\x00\x00\x00\x00\x00\x00\x00\x00\x00\x00\x00\x00\x00\x00\x00\x00\x00\x00\x00\x00\x00\x00\x00\x00\x00\x00\x00\x00\x00\x00\x00\x00\x00\x00\x00\x00\x00\x00\x00\x00\x00\x00\x00\x00\x00\x00\x00\x00\x00\x00\x00\x00\x00\x00\x00\x00\x00\x00\x00\x00\x00\x00\x00\x00\x00\x00\x00\x00\x00\x00\x00\x00\x00\x00\x00\x00\x00\x00\x00\x00\x00\x00\x00\x00\x00\x00\x00\x00\x00\x00\x00\x00\x00\x00\x00\x00\x00\x00\x00\x00\x00\x00\x00\x00\x00\x00\x00\x00\x00\x00\x00\x00\x00\x00\x00\x00\x00\x00\x00\x00\x00\x00\x00\x00\x00\x00\x00\x00\x00\x00\x00\x00\x00\x00\x00\x00\x00\x00\x00\x00\x00\x00\x00\x00\x00\x00\x00\x00\x00\x00\x00\x00\x00\x00\x00\x00\x00\x00\x00\x00\x00\x00\x00\x00\x00\x00\x00\x00\x00\x00\x00\x00\x00\x00\x00\x00\x00\x00\x00\x00\x00\x00\x00\x00\x00\x00\x00\x00\x00\x00\x00\x00\x00\x00\x00\x00\x00\x00\x00\x00\x00\x00\x00\x00\x00\x00\x00\x00\x00\x00\x00\x00\x00\x00\x00\x00\x00\x00\x00\x00\x00\x00\x00'
NtbstRp4887
(dp4888
g59
(dp4889
g47
I01
sg55
I01
ssg61
g4881
sg62
(lp4890
g47
ag55
asg64
(lp4891
I600
aI1
asbsg66
S'random'
p4892
sg68
g69
(g50
(I0
tS'b'
tRp4893
(I1
(I600
I1
tg53
(S'i4'
I0
I1
tRp4894
(I3
S'<'
NNNI-1
I-1
I0
tbI01
S']\x01\x00\x00\x8f\x01\x00\x00\x9f\x00\x00\x00\xb4\x00\x00\x00\xed\x01\x00\x00\xb6\x00\x00\x00\x1b\x01\x00\x00\xcd\x01\x00\x00\x91\x01\x00\x00\xd5\x01\x00\x00\x18\x02\x00\x00\x08\x01\x00\x00H\x01\x00\x00\x02\x01\x00\x00R\x02\x00\x00\xdd\x01\x00\x00)\x00\x00\x00\xaa\x01\x00\x00v\x00\x00\x00\xb1\x01\x00\x00\xff\x00\x00\x00P\x01\x00\x00\xec\x01\x00\x00p\x00\x00\x00N\x02\x00\x007\x01\x00\x00\xc6\x00\x00\x00\xb1\x00\x00\x00g\x00\x00\x00\xe7\x00\x00\x00\x0e\x00\x00\x00\xc1\x00\x00\x00\xd9\x01\x00\x000\x01\x00\x004\x00\x00\x00"\x01\x00\x00\xb7\x00\x00\x00\xcc\x00\x00\x00\xdf\x00\x00\x00\xd0\x01\x00\x00M\x01\x00\x00\xbb\x01\x00\x00F\x02\x00\x00\x9b\x00\x00\x00%\x02\x00\x00\xc4\x01\x00\x00\xa2\x00\x00\x00\xbe\x00\x00\x005\x02\x00\x00<\x00\x00\x00\x9e\x01\x00\x00\x83\x01\x00\x00\x06\x01\x00\x00\xd7\x00\x00\x00\xd4\x01\x00\x00\x9e\x00\x00\x00\xbe\x01\x00\x00V\x00\x00\x00\t\x01\x00\x00\xf5\x01\x00\x00\x18\x00\x00\x00\xf4\x00\x00\x00\xe6\x00\x00\x00\xf9\x01\x00\x00@\x00\x00\x00*\x01\x00\x00\xc4\x00\x00\x00\xd2\x00\x00\x00\x1f\x01\x00\x00=\x00\x00\x00\xa7\x01\x00\x00;\x00\x00\x00\xf0\x00\x00\x00&\x00\x00\x001\x00\x00\x00\xec\x00\x00\x00\xdd\x00\x00\x00\x05\x01\x00\x00\xf3\x01\x00\x00\xbc\x00\x00\x00)\x02\x00\x00g\x01\x00\x00\xd6\x00\x00\x00)\x01\x00\x00\x01\x01\x00\x00\x16\x01\x00\x00\x0c\x00\x00\x00\\\x01\x00\x00o\x00\x00\x00I\x00\x00\x00\x13\x01\x00\x00\xeb\x01\x00\x00\xb3\x00\x00\x000\x02\x00\x00\x91\x00\x00\x00\xfa\x00\x00\x00v\x01\x00\x00\xa0\x01\x00\x00Q\x02\x00\x00d\x00\x00\x00{\x01\x00\x00m\x01\x00\x00_\x00\x00\x005\x01\x00\x00\n\x01\x00\x00\xe4\x00\x00\x00B\x01\x00\x00\x9c\x00\x00\x00\xe6\x01\x00\x00\xe5\x00\x00\x00?\x00\x00\x00\xea\x01\x00\x00\xae\x01\x00\x00Y\x00\x00\x00\x81\x00\x00\x00O\x00\x00\x00C\x01\x00\x00a\x00\x00\x00\xf1\x01\x00\x00h\x01\x00\x009\x02\x00\x00\xff\x01\x00\x00\xaa\x00\x00\x00M\x00\x00\x00x\x00\x00\x00>\x00\x00\x00\x8e\x00\x00\x00d\x01\x00\x00T\x00\x00\x00\xbb\x00\x00\x00\x17\x01\x00\x00\xf2\x01\x00\x00\x96\x00\x00\x00f\x01\x00\x00\xed\x00\x00\x00\x15\x02\x00\x00\x19\x00\x00\x00`\x00\x00\x00\xa4\x00\x00\x00\xd6\x01\x00\x00U\x01\x00\x00\xd5\x00\x00\x00\xda\x00\x00\x00#\x02\x00\x00\x9b\x01\x00\x008\x02\x00\x00\x9a\x01\x00\x00E\x01\x00\x00!\x00\x00\x009\x00\x00\x00<\x02\x00\x00\xf1\x00\x00\x00r\x00\x00\x00:\x01\x00\x00+\x01\x00\x00E\x00\x00\x00U\x00\x00\x002\x00\x00\x00\xa8\x00\x00\x00Z\x00\x00\x00w\x00\x00\x004\x02\x00\x00\xc3\x01\x00\x00\x94\x01\x00\x00Y\x01\x00\x00\xcb\x01\x00\x00\x99\x00\x00\x00\x1d\x02\x00\x00\x8d\x00\x00\x00j\x00\x00\x00\x12\x01\x00\x00\xc9\x00\x00\x00\x9c\x01\x00\x008\x01\x00\x00\xeb\x00\x00\x00\x0e\x01\x00\x00\xfe\x00\x00\x00 \x00\x00\x00~\x00\x00\x00f\x00\x00\x00>\x01\x00\x00\x1c\x02\x00\x00\x89\x00\x00\x00\x8b\x01\x00\x00\t\x02\x00\x00U\x02\x00\x00R\x00\x00\x00\x12\x02\x00\x00\x95\x00\x00\x00\xbc\x01\x00\x00\xce\x00\x00\x00\xb2\x01\x00\x00N\x00\x00\x00\xe3\x00\x00\x00}\x00\x00\x00\xbf\x00\x00\x00y\x00\x00\x00\'\x00\x00\x00\xd1\x00\x00\x00\xb7\x01\x00\x00\x1d\x01\x00\x00\x1e\x02\x00\x00z\x01\x00\x00\xcf\x00\x00\x00\x98\x01\x00\x00\xfc\x00\x00\x00\xa1\x00\x00\x00\x9d\x00\x00\x00\xd3\x01\x00\x00\xdc\x00\x00\x00\x06\x02\x00\x00\xa7\x00\x00\x00\xc3\x00\x00\x00\x15\x01\x00\x00~\x01\x00\x00\xc9\x01\x00\x00\xfc\x01\x00\x00\x87\x01\x00\x00+\x00\x00\x00\x11\x02\x00\x00\n\x00\x00\x00C\x02\x00\x00\x83\x00\x00\x00y\x01\x00\x00\xaf\x00\x00\x00e\x00\x00\x00\xa9\x01\x00\x008\x00\x00\x00\xd7\x01\x00\x00/\x02\x00\x00\x93\x00\x00\x00W\x00\x00\x001\x01\x00\x00V\x01\x00\x00u\x00\x00\x00\xe4\x01\x00\x004\x01\x00\x00\'\x02\x00\x00\xc1\x01\x00\x00\xfe\x01\x00\x00S\x00\x00\x00P\x00\x00\x00\xc6\x01\x00\x00\'\x01\x00\x00I\x02\x00\x00\x0e\x02\x00\x00H\x02\x00\x00D\x02\x00\x00A\x02\x00\x00<\x01\x00\x00\x07\x02\x00\x00\xc8\x00\x00\x00\xe8\x00\x00\x00s\x00\x00\x00\xc8\x01\x00\x00\x98\x00\x00\x00j\x01\x00\x00\xea\x00\x00\x00%\x00\x00\x00\x06\x00\x00\x00$\x00\x00\x00\xf8\x00\x00\x00}\x01\x00\x00\xa3\x00\x00\x00\x0b\x01\x00\x003\x02\x00\x00\xca\x01\x00\x00\x15\x00\x00\x00\xee\x01\x00\x00p\x01\x00\x00\x9f\x01\x00\x00\xf6\x00\x00\x00\xdb\x00\x00\x00\x8f\x00\x00\x00s\x01\x00\x00@\x01\x00\x00,\x01\x00\x00\x7f\x01\x00\x005\x00\x00\x00\x1c\x01\x00\x00T\x01\x00\x00F\x00\x00\x00F\x01\x00\x00\x97\x00\x00\x00\xef\x01\x00\x007\x00\x00\x00\xe3\x01\x00\x00\x1f\x00\x00\x00\x8a\x00\x00\x00|\x00\x00\x00\xba\x01\x00\x00\x85\x00\x00\x00\xda\x01\x00\x00\x16\x02\x00\x00\x1d\x00\x00\x00\x13\x00\x00\x00*\x02\x00\x00\xcd\x00\x00\x00L\x00\x00\x00\x7f\x00\x00\x00\x90\x01\x00\x00\n\x02\x00\x00.\x02\x00\x00\x1b\x02\x00\x00h\x00\x00\x00:\x00\x00\x00\x19\x01\x00\x00\x10\x02\x00\x00n\x00\x00\x00\xf7\x01\x00\x00\x1b\x00\x00\x00\x84\x01\x00\x00\x1e\x01\x00\x00\xa9\x00\x00\x00M\x02\x00\x00|\x01\x00\x00J\x02\x00\x00u\x01\x00\x00\x1c\x00\x00\x00$\x02\x00\x00\xe2\x01\x00\x00/\x00\x00\x00K\x02\x00\x00i\x00\x00\x00&\x01\x00\x00 \x02\x00\x00n\x01\x00\x00\xe5\x01\x00\x00\x01\x02\x00\x00\x8c\x00\x00\x00/\x01\x00\x003\x01\x00\x00\x0f\x00\x00\x00(\x01\x00\x00>\x02\x00\x00\xc5\x01\x00\x00\xad\x00\x00\x00\xe0\x00\x00\x00L\x02\x00\x00A\x00\x00\x00\x04\x02\x00\x00\x10\x00\x00\x00b\x01\x00\x00G\x02\x00\x00\x03\x01\x00\x00-\x01\x00\x00\x1a\x00\x00\x00\xa3\x01\x00\x000\x00\x00\x00a\x01\x00\x00\xbd\x00\x00\x00\xd8\x01\x00\x00W\x01\x00\x00L\x01\x00\x00\xa0\x00\x00\x00\x00\x02\x00\x00x\x01\x00\x009\x01\x00\x00\xdc\x01\x00\x00\x0c\x02\x00\x00\xfb\x00\x00\x00\xde\x01\x00\x00c\x01\x00\x00!\x02\x00\x00\r\x00\x00\x00\x8c\x01\x00\x003\x00\x00\x00\x0c\x01\x00\x00\xd8\x00\x00\x00\xfb\x01\x00\x00z\x00\x00\x00\xf4\x01\x00\x00\x02\x00\x00\x00,\x00\x00\x00#\x01\x00\x00\x89\x01\x00\x00\xc5\x00\x00\x00\x93\x01\x00\x00O\x02\x00\x00\xe9\x01\x00\x00-\x02\x00\x00!\x01\x00\x00=\x02\x00\x00$\x01\x00\x00\x1a\x02\x00\x00\x04\x01\x00\x00\xb2\x00\x00\x00[\x01\x00\x00I\x01\x00\x00\xa2\x01\x00\x00\xe1\x01\x00\x002\x01\x00\x00\x84\x00\x00\x00\xd9\x00\x00\x00\xd1\x01\x00\x00\r\x01\x00\x00#\x00\x00\x00\xca\x00\x00\x00+\x02\x00\x00\x1a\x01\x00\x00\xfd\x01\x00\x00\x87\x00\x00\x00\xa4\x01\x00\x00\x00\x01\x00\x00 \x01\x00\x00\x0b\x02\x00\x00\x12\x00\x00\x00\x18\x01\x00\x00\xf8\x01\x00\x00\x8d\x01\x00\x00X\x00\x00\x00\x99\x01\x00\x00-\x00\x00\x00\xae\x00\x00\x00i\x01\x00\x00%\x01\x00\x00\xb5\x01\x00\x00\x80\x00\x00\x00\x8b\x00\x00\x00\xba\x00\x00\x00\x11\x00\x00\x00Z\x01\x00\x00\xf9\x00\x00\x00K\x01\x00\x00\xdf\x01\x00\x00\x88\x01\x00\x00\xcf\x01\x00\x00\xb0\x01\x00\x00\x0b\x00\x00\x00&\x02\x00\x00\x92\x01\x00\x00\x14\x00\x00\x00\xb8\x01\x00\x00\x9a\x00\x00\x00B\x00\x00\x00\x07\x00\x00\x00\xa5\x00\x00\x00\xa5\x01\x00\x00D\x01\x00\x00\x9d\x01\x00\x00\xfa\x01\x00\x00\xdb\x01\x00\x00\xaf\x01\x00\x00S\x01\x00\x00G\x00\x00\x00k\x00\x00\x00r\x01\x00\x00_\x01\x00\x00\xd2\x01\x00\x00\x13\x02\x00\x006\x02\x00\x00"\x02\x00\x00\x94\x00\x00\x00\x07\x01\x00\x00\xd3\x00\x00\x00J\x01\x00\x00\x88\x00\x00\x00V\x02\x00\x00\x90\x00\x00\x00\x05\x02\x00\x00\x14\x02\x00\x00?\x01\x00\x00^\x00\x00\x00\x82\x00\x00\x00\xc7\x00\x00\x00e\x01\x00\x00q\x01\x00\x00\xbf\x01\x00\x00\xf6\x01\x00\x00\xd0\x00\x00\x00\x96\x01\x00\x00\xc2\x01\x00\x00\x8a\x01\x00\x00\x11\x01\x00\x00\xb3\x01\x00\x00`\x01\x00\x00R\x01\x00\x00m\x00\x00\x00o\x01\x00\x00b\x00\x00\x00.\x01\x00\x00\x17\x02\x00\x00\xef\x00\x00\x00\xe7\x01\x00\x00\x80\x01\x00\x00:\x02\x00\x00\xb5\x00\x00\x00\xd4\x00\x00\x00\xc0\x01\x00\x00\xad\x01\x00\x00\xac\x00\x00\x00"\x00\x00\x00\x01\x00\x00\x00\xb0\x00\x00\x00D\x00\x00\x00\xab\x01\x00\x00\xb6\x01\x00\x006\x00\x00\x00\x92\x00\x00\x00\x86\x01\x00\x00E\x02\x00\x00\xa8\x01\x00\x00w\x01\x00\x00t\x01\x00\x00\xf2\x00\x00\x00\x0f\x02\x00\x00\x8e\x01\x00\x007\x02\x00\x00(\x00\x00\x00\x08\x00\x00\x00\xb8\x00\x00\x00Q\x00\x00\x00\x04\x00\x00\x00\xce\x01\x00\x00S\x02\x00\x00\xbd\x01\x00\x00W\x02\x00\x00?\x02\x00\x00\xf5\x00\x00\x002\x02\x00\x00Q\x01\x00\x00O\x01\x00\x001\x02\x00\x00(\x02\x00\x00\xfd\x00\x00\x00\xc2\x00\x00\x00@\x02\x00\x00q\x00\x00\x00[\x00\x00\x00{\x00\x00\x00\x00\x00\x00\x00\x03\x02\x00\x00\x85\x01\x00\x00\xb9\x00\x00\x00\x10\x01\x00\x00\x14\x01\x00\x00*\x00\x00\x00\xcb\x00\x00\x00\xab\x00\x00\x00A\x01\x00\x00k\x01\x00\x00\x0f\x01\x00\x00\xc0\x00\x00\x00B\x02\x00\x00C\x00\x00\x00\x1e\x00\x00\x00X\x01\x00\x00\x03\x00\x00\x00N\x01\x00\x00\r\x02\x00\x00\x08\x02\x00\x00\x02\x02\x00\x00T\x02\x00\x00H\x00\x00\x00\xe2\x00\x00\x00J\x00\x00\x00t\x00\x00\x00,\x02\x00\x00\xc7\x01\x00\x00\x16\x00\x00\x00\xb9\x01\x00\x00\x82\x01\x00\x00l\x00\x00\x00\xb4\x01\x00\x00\xe8\x01\x00\x00\xa6\x00\x00\x00\xcc\x01\x00\x00]\x00\x00\x00\xee\x00\x00\x00\xf0\x01\x00\x00\xa1\x01\x00\x00c\x00\x00\x00\x95\x01\x00\x00\xf3\x00\x00\x00\xe0\x01\x00\x00;\x01\x00\x00\x17\x00\x00\x00\x19\x02\x00\x006\x01\x00\x00l\x01\x00\x00\xa6\x01\x00\x00\\\x00\x00\x00\x05\x00\x00\x00\xe9\x00\x00\x00K\x00\x00\x00.\x00\x00\x00\x1f\x02\x00\x00\x81\x01\x00\x00\x86\x00\x00\x00\t\x00\x00\x00\xde\x00\x00\x00;\x02\x00\x00G\x01\x00\x00^\x01\x00\x00\xac\x01\x00\x00\xf7\x00\x00\x00\x97\x01\x00\x00P\x02\x00\x00=\x01\x00\x00\xe1\x00\x00\x00'
tbsg73
I01
sg74
I1
sg75
I-1
sg76
(lp4895
I0
aI1
aI2
aI3
aI4
aI5
aI6
aI7
aI8
aI9
aI10
aI11
aI12
aI13
aI14
aI15
aI16
aI17
aI18
aI19
aI20
aI21
aI22
aI23
aI24
aI25
aI26
aI27
aI28
aI29
aI30
aI31
aI32
aI33
aI34
aI35
aI36
aI37
aI38
aI39
aI40
aI41
aI42
aI43
aI44
aI45
aI46
aI47
aI48
aI49
aI50
aI51
aI52
aI53
aI54
aI55
aI56
aI57
aI58
aI59
aI60
aI61
aI62
aI63
aI64
aI65
aI66
aI67
aI68
aI69
aI70
aI71
aI72
aI73
aI74
aI75
aI76
aI77
aI78
aI79
aI80
aI81
aI82
aI83
aI84
aI85
aI86
aI87
aI88
aI89
aI90
aI91
aI92
aI93
aI94
aI95
aI96
aI97
aI98
aI99
aI100
aI101
aI102
aI103
aI104
aI105
aI106
aI107
aI108
aI109
aI110
aI111
aI112
aI113
aI114
aI115
aI116
aI117
aI118
aI119
aI120
aI121
aI122
aI123
aI124
aI125
aI126
aI127
aI128
aI129
aI130
aI131
aI132
aI133
aI134
aI135
aI136
aI137
aI138
aI139
aI140
aI141
aI142
aI143
aI144
aI145
aI146
aI147
aI148
aI149
aI150
aI151
aI152
aI153
aI154
aI155
aI156
aI157
aI158
aI159
aI160
aI161
aI162
aI163
aI164
aI165
aI166
aI167
aI168
aI169
aI170
aI171
aI172
aI173
aI174
aI175
aI176
aI177
aI178
aI179
aI180
aI181
aI182
aI183
aI184
aI185
aI186
aI187
aI188
aI189
aI190
aI191
aI192
aI193
aI194
aI195
aI196
aI197
aI198
aI199
aI200
aI201
aI202
aI203
aI204
aI205
aI206
aI207
aI208
aI209
aI210
aI211
aI212
aI213
aI214
aI215
aI216
aI217
aI218
aI219
aI220
aI221
aI222
aI223
aI224
aI225
aI226
aI227
aI228
aI229
aI230
aI231
aI232
aI233
aI234
aI235
aI236
aI237
aI238
aI239
aI240
aI241
aI242
aI243
aI244
aI245
aI246
aI247
aI248
aI249
aI250
aI251
aI252
aI253
aI254
aI255
aI256
aI257
aI258
aI259
aI260
aI261
aI262
aI263
aI264
aI265
aI266
aI267
aI268
aI269
aI270
aI271
aI272
aI273
aI274
aI275
aI276
aI277
aI278
aI279
aI280
aI281
aI282
aI283
aI284
aI285
aI286
aI287
aI288
aI289
aI290
aI291
aI292
aI293
aI294
aI295
aI296
aI297
aI298
aI299
aI300
aI301
aI302
aI303
aI304
aI305
aI306
aI307
aI308
aI309
aI310
aI311
aI312
aI313
aI314
aI315
aI316
aI317
aI318
aI319
aI320
aI321
aI322
aI323
aI324
aI325
aI326
aI327
aI328
aI329
aI330
aI331
aI332
aI333
aI334
aI335
aI336
aI337
aI338
aI339
aI340
aI341
aI342
aI343
aI344
aI345
aI346
aI347
aI348
aI349
aI350
aI351
aI352
aI353
aI354
aI355
aI356
aI357
aI358
aI359
aI360
aI361
aI362
aI363
aI364
aI365
aI366
aI367
aI368
aI369
aI370
aI371
aI372
aI373
aI374
aI375
aI376
aI377
aI378
aI379
aI380
aI381
aI382
aI383
aI384
aI385
aI386
aI387
aI388
aI389
aI390
aI391
aI392
aI393
aI394
aI395
aI396
aI397
aI398
aI399
aI400
aI401
aI402
aI403
aI404
aI405
aI406
aI407
aI408
aI409
aI410
aI411
aI412
aI413
aI414
aI415
aI416
aI417
aI418
aI419
aI420
aI421
aI422
aI423
aI424
aI425
aI426
aI427
aI428
aI429
aI430
aI431
aI432
aI433
aI434
aI435
aI436
aI437
aI438
aI439
aI440
aI441
aI442
aI443
aI444
aI445
aI446
aI447
aI448
aI449
aI450
aI451
aI452
aI453
aI454
aI455
aI456
aI457
aI458
aI459
aI460
aI461
aI462
aI463
aI464
aI465
aI466
aI467
aI468
aI469
aI470
aI471
aI472
aI473
aI474
aI475
aI476
aI477
aI478
aI479
aI480
aI481
aI482
aI483
aI484
aI485
aI486
aI487
aI488
aI489
aI490
aI491
aI492
aI493
aI494
aI495
aI496
aI497
aI498
aI499
aI500
aI501
aI502
aI503
aI504
aI505
aI506
aI507
aI508
aI509
aI510
aI511
aI512
aI513
aI514
aI515
aI516
aI517
aI518
aI519
aI520
aI521
aI522
aI523
aI524
aI525
aI526
aI527
aI528
aI529
aI530
aI531
aI532
aI533
aI534
aI535
aI536
aI537
aI538
aI539
aI540
aI541
aI542
aI543
aI544
aI545
aI546
aI547
aI548
aI549
aI550
aI551
aI552
aI553
aI554
aI555
aI556
aI557
aI558
aI559
aI560
aI561
aI562
aI563
aI564
aI565
aI566
aI567
aI568
aI569
aI570
aI571
aI572
aI573
aI574
aI575
aI576
aI577
aI578
aI579
aI580
aI581
aI582
aI583
aI584
aI585
aI586
aI587
aI588
aI589
aI590
aI591
aI592
aI593
aI594
aI595
aI596
aI597
aI598
aI599
asg78
Nsg79
cnumpy.core.multiarray
scalar
p4896
(g4894
S'\xe1\x00\x00\x00'
tRp4897
sg80
I600
sg81
I0
sg82
I600
sg83
I01
sbag36
asS'savePickle'
p4898
I00
sb.