ccopy_reg
_reconstructor
p1
(cpsychopy.data
ExperimentHandler
p2
c__builtin__
object
p3
NtRp4
(dp5
S'originPath'
p6
NsS'dataFileName'
p7
Vsubject631
p8
sS'runtimeInfo'
p9
NsS'name'
p10
VVERBALRBsubject 631
p11
sS'dataNames'
p12
(lp13
S'Block Number'
p14
aS'Key pressed'
p15
aS'Correct?'
p16
aS'Category'
p17
aS'Int Match?'
p18
aS'Int Response'
p19
aS'Int Correct?'
p20
aS'Line Accuracy'
p21
aS'Interference Accuracy'
p22
aS'Matching Interferences'
p23
aS'New instruction shown?'
p24
aS'Buttons switched?'
p25
aS'Fast?'
p26
asS'autoLog'
p27
I01
sS'extraInfo'
p28
(dp29
S'gender'
p30
Vfemale
p31
sS'age'
p32
V20
p33
ssS'loopsUnfinished'
p34
(lp35
g1
(cpsychopy.data
TrialHandler
p36
g3
NtRp37
(dp38
S'origin'
p39
NsS'thisTrial'
p40
I0
sS'_exp'
p41
I77714416
sg10
S''
sg6
S'C:\\Users\\Mike\\Desktop\\Dual2\\NEWSpatialRB.py'
p42
sS'thisRepN'
p43
I39
sg27
I01
sg28
NsS'data'
p44
g1
(cpsychopy.data
DataHandler
p45
c__builtin__
dict
p46
(dp47
S'ran'
p48
cnumpy.ma.core
_mareconstruct
p49
(cnumpy.ma.core
MaskedArray
p50
cnumpy
ndarray
p51
(I0
tp52
S'b'
tRp53
(I1
(I15
I40
tcnumpy
dtype
p54
(S'f4'
I0
I1
tRp55
(I3
S'<'
NNNI-1
I-1
I0
tbI00
S'\x00\x00\x80?\x00\x00\x80?\x00\x00\x80?\x00\x00\x80?\x00\x00\x80?\x00\x00\x80?\x00\x00\x80?\x00\x00\x80?\x00\x00\x80?\x00\x00\x80?\x00\x00\x80?\x00\x00\x80?\x00\x00\x80?\x00\x00\x80?\x00\x00\x80?\x00\x00\x80?\x00\x00\x80?\x00\x00\x80?\x00\x00\x80?\x00\x00\x80?\x00\x00\x80?\x00\x00\x80?\x00\x00\x80?\x00\x00\x80?\x00\x00\x80?\x00\x00\x80?\x00\x00\x80?\x00\x00\x80?\x00\x00\x80?\x00\x00\x80?\x00\x00\x80?\x00\x00\x80?\x00\x00\x80?\x00\x00\x80?\x00\x00\x80?\x00\x00\x80?\x00\x00\x80?\x00\x00\x80?\x00\x00\x80?\x00\x00\x80?\x00\x00\x80?\x00\x00\x80?\x00\x00\x80?\x00\x00\x80?\x00\x00\x80?\x00\x00\x80?\x00\x00\x80?\x00\x00\x80?\x00\x00\x80?\x00\x00\x80?\x00\x00\x80?\x00\x00\x80?\x00\x00\x80?\x00\x00\x80?\x00\x00\x80?\x00\x00\x80?\x00\x00\x80?\x00\x00\x80?\x00\x00\x80?\x00\x00\x80?\x00\x00\x80?\x00\x00\x80?\x00\x00\x80?\x00\x00\x80?\x00\x00\x80?\x00\x00\x80?\x00\x00\x80?\x00\x00\x80?\x00\x00\x80?\x00\x00\x80?\x00\x00\x80?\x00\x00\x80?\x00\x00\x80?\x00\x00\x80?\x00\x00\x80?\x00\x00\x80?\x00\x00\x80?\x00\x00\x80?\x00\x00\x80?\x00\x00\x80?\x00\x00\x80?\x00\x00\x80?\x00\x00\x80?\x00\x00\x80?\x00\x00\x80?\x00\x00\x80?\x00\x00\x80?\x00\x00\x80?\x00\x00\x80?\x00\x00\x80?\x00\x00\x80?\x00\x00\x80?\x00\x00\x80?\x00\x00\x80?\x00\x00\x80?\x00\x00\x80?\x00\x00\x80?\x00\x00\x80?\x00\x00\x80?\x00\x00\x80?\x00\x00\x80?\x00\x00\x80?\x00\x00\x80?\x00\x00\x80?\x00\x00\x80?\x00\x00\x80?\x00\x00\x80?\x00\x00\x80?\x00\x00\x80?\x00\x00\x80?\x00\x00\x80?\x00\x00\x80?\x00\x00\x80?\x00\x00\x80?\x00\x00\x80?\x00\x00\x80?\x00\x00\x80?\x00\x00\x80?\x00\x00\x80?\x00\x00\x80?\x00\x00\x80?\x00\x00\x80?\x00\x00\x80?\x00\x00\x80?\x00\x00\x80?\x00\x00\x80?\x00\x00\x80?\x00\x00\x80?\x00\x00\x80?\x00\x00\x80?\x00\x00\x80?\x00\x00\x80?\x00\x00\x80?\x00\x00\x80?\x00\x00\x80?\x00\x00\x80?\x00\x00\x80?\x00\x00\x80?\x00\x00\x80?\x00\x00\x80?\x00\x00\x80?\x00\x00\x80?\x00\x00\x80?\x00\x00\x80?\x00\x00\x80?\x00\x00\x80?\x00\x00\x80?\x00\x00\x80?\x00\x00\x80?\x00\x00\x80?\x00\x00\x80?\x00\x00\x80?\x00\x00\x80?\x00\x00\x80?\x00\x00\x80?\x00\x00\x80?\x00\x00\x80?\x00\x00\x80?\x00\x00\x80?\x00\x00\x80?\x00\x00\x80?\x00\x00\x80?\x00\x00\x80?\x00\x00\x80?\x00\x00\x80?\x00\x00\x80?\x00\x00\x80?\x00\x00\x80?\x00\x00\x80?\x00\x00\x80?\x00\x00\x80?\x00\x00\x80?\x00\x00\x80?\x00\x00\x80?\x00\x00\x80?\x00\x00\x80?\x00\x00\x80?\x00\x00\x80?\x00\x00\x80?\x00\x00\x80?\x00\x00\x80?\x00\x00\x80?\x00\x00\x80?\x00\x00\x80?\x00\x00\x80?\x00\x00\x80?\x00\x00\x80?\x00\x00\x80?\x00\x00\x80?\x00\x00\x80?\x00\x00\x80?\x00\x00\x80?\x00\x00\x80?\x00\x00\x80?\x00\x00\x80?\x00\x00\x80?\x00\x00\x80?\x00\x00\x80?\x00\x00\x80?\x00\x00\x80?\x00\x00\x80?\x00\x00\x80?\x00\x00\x80?\x00\x00\x80?\x00\x00\x80?\x00\x00\x80?\x00\x00\x80?\x00\x00\x80?\x00\x00\x80?\x00\x00\x80?\x00\x00\x80?\x00\x00\x80?\x00\x00\x80?\x00\x00\x80?\x00\x00\x80?\x00\x00\x80?\x00\x00\x80?\x00\x00\x80?\x00\x00\x80?\x00\x00\x80?\x00\x00\x80?\x00\x00\x80?\x00\x00\x80?\x00\x00\x80?\x00\x00\x80?\x00\x00\x80?\x00\x00\x80?\x00\x00\x80?\x00\x00\x80?\x00\x00\x80?\x00\x00\x80?\x00\x00\x80?\x00\x00\x80?\x00\x00\x80?\x00\x00\x80?\x00\x00\x80?\x00\x00\x80?\x00\x00\x80?\x00\x00\x80?\x00\x00\x80?\x00\x00\x80?\x00\x00\x80?\x00\x00\x80?\x00\x00\x80?\x00\x00\x80?\x00\x00\x80?\x00\x00\x80?\x00\x00\x80?\x00\x00\x80?\x00\x00\x80?\x00\x00\x80?\x00\x00\x80?\x00\x00\x80?\x00\x00\x80?\x00\x00\x80?\x00\x00\x80?\x00\x00\x80?\x00\x00\x80?\x00\x00\x80?\x00\x00\x80?\x00\x00\x80?\x00\x00\x80?\x00\x00\x80?\x00\x00\x80?\x00\x00\x80?\x00\x00\x80?\x00\x00\x80?\x00\x00\x80?\x00\x00\x80?\x00\x00\x80?\x00\x00\x80?\x00\x00\x80?\x00\x00\x80?\x00\x00\x80?\x00\x00\x80?\x00\x00\x80?\x00\x00\x80?\x00\x00\x80?\x00\x00\x80?\x00\x00\x80?\x00\x00\x80?\x00\x00\x80?\x00\x00\x80?\x00\x00\x80?\x00\x00\x80?\x00\x00\x80?\x00\x00\x80?\x00\x00\x80?\x00\x00\x80?\x00\x00\x80?\x00\x00\x80?\x00\x00\x80?\x00\x00\x80?\x00\x00\x80?\x00\x00\x80?\x00\x00\x80?\x00\x00\x80?\x00\x00\x80?\x00\x00\x80?\x00\x00\x80?\x00\x00\x80?\x00\x00\x80?\x00\x00\x80?\x00\x00\x80?\x00\x00\x80?\x00\x00\x80?\x00\x00\x80?\x00\x00\x80?\x00\x00\x80?\x00\x00\x80?\x00\x00\x80?\x00\x00\x80?\x00\x00\x80?\x00\x00\x80?\x00\x00\x80?\x00\x00\x80?\x00\x00\x80?\x00\x00\x80?\x00\x00\x80?\x00\x00\x80?\x00\x00\x80?\x00\x00\x80?\x00\x00\x80?\x00\x00\x80?\x00\x00\x80?\x00\x00\x80?\x00\x00\x80?\x00\x00\x80?\x00\x00\x80?\x00\x00\x80?\x00\x00\x80?\x00\x00\x80?\x00\x00\x80?\x00\x00\x80?\x00\x00\x80?\x00\x00\x80?\x00\x00\x80?\x00\x00\x80?\x00\x00\x80?\x00\x00\x80?\x00\x00\x80?\x00\x00\x80?\x00\x00\x80?\x00\x00\x80?\x00\x00\x80?\x00\x00\x80?\x00\x00\x80?\x00\x00\x80?\x00\x00\x80?\x00\x00\x80?\x00\x00\x80?\x00\x00\x80?\x00\x00\x80?\x00\x00\x80?\x00\x00\x80?\x00\x00\x80?\x00\x00\x80?\x00\x00\x80?\x00\x00\x80?\x00\x00\x80?\x00\x00\x80?\x00\x00\x80?\x00\x00\x80?\x00\x00\x80?\x00\x00\x80?\x00\x00\x80?\x00\x00\x80?\x00\x00\x80?\x00\x00\x80?\x00\x00\x80?\x00\x00\x80?\x00\x00\x80?\x00\x00\x80?\x00\x00\x80?\x00\x00\x80?\x00\x00\x80?\x00\x00\x80?\x00\x00\x80?\x00\x00\x80?\x00\x00\x80?\x00\x00\x80?\x00\x00\x80?\x00\x00\x80?\x00\x00\x80?\x00\x00\x80?\x00\x00\x80?\x00\x00\x80?\x00\x00\x80?\x00\x00\x80?\x00\x00\x80?\x00\x00\x80?\x00\x00\x80?\x00\x00\x80?\x00\x00\x80?\x00\x00\x80?\x00\x00\x80?\x00\x00\x80?\x00\x00\x80?\x00\x00\x80?\x00\x00\x80?\x00\x00\x80?\x00\x00\x80?\x00\x00\x80?\x00\x00\x80?\x00\x00\x80?\x00\x00\x80?\x00\x00\x80?\x00\x00\x80?\x00\x00\x80?\x00\x00\x80?\x00\x00\x80?\x00\x00\x80?\x00\x00\x80?\x00\x00\x80?\x00\x00\x80?\x00\x00\x80?\x00\x00\x80?\x00\x00\x80?\x00\x00\x80?\x00\x00\x80?\x00\x00\x80?\x00\x00\x80?\x00\x00\x80?\x00\x00\x80?\x00\x00\x80?\x00\x00\x80?\x00\x00\x80?\x00\x00\x80?\x00\x00\x80?\x00\x00\x80?\x00\x00\x80?\x00\x00\x80?\x00\x00\x80?\x00\x00\x80?\x00\x00\x80?\x00\x00\x80?\x00\x00\x80?\x00\x00\x80?\x00\x00\x80?\x00\x00\x80?\x00\x00\x80?\x00\x00\x80?\x00\x00\x80?\x00\x00\x80?\x00\x00\x80?\x00\x00\x80?\x00\x00\x80?\x00\x00\x80?\x00\x00\x80?\x00\x00\x80?\x00\x00\x80?\x00\x00\x80?\x00\x00\x80?\x00\x00\x80?\x00\x00\x80?\x00\x00\x80?\x00\x00\x80?\x00\x00\x80?\x00\x00\x80?\x00\x00\x80?\x00\x00\x80?\x00\x00\x80?\x00\x00\x80?\x00\x00\x80?\x00\x00\x80?\x00\x00\x80?\x00\x00\x80?\x00\x00\x80?\x00\x00\x80?\x00\x00\x80?\x00\x00\x80?\x00\x00\x80?\x00\x00\x80?\x00\x00\x80?\x00\x00\x80?\x00\x00\x80?\x00\x00\x80?\x00\x00\x80?\x00\x00\x80?\x00\x00\x80?\x00\x00\x80?\x00\x00\x80?\x00\x00\x80?\x00\x00\x80?\x00\x00\x80?\x00\x00\x80?\x00\x00\x80?\x00\x00\x80?\x00\x00\x80?\x00\x00\x80?\x00\x00\x80?\x00\x00\x80?\x00\x00\x80?\x00\x00\x80?\x00\x00\x80?\x00\x00\x80?\x00\x00\x80?\x00\x00\x80?\x00\x00\x80?\x00\x00\x80?\x00\x00\x80?\x00\x00\x80?\x00\x00\x80?\x00\x00\x80?\x00\x00\x80?\x00\x00\x80?\x00\x00\x80?\x00\x00\x80?\x00\x00\x80?\x00\x00\x80?\x00\x00\x80?\x00\x00\x80?\x00\x00\x80?\x00\x00\x80?\x00\x00\x80?\x00\x00\x80?\x00\x00\x80?\x00\x00\x80?\x00\x00\x80?\x00\x00\x80?\x00\x00\x80?\x00\x00\x80?\x00\x00\x80?\x00\x00\x80?\x00\x00\x80?\x00\x00\x80?\x00\x00\x80?\x00\x00\x80?\x00\x00\x80?\x00\x00\x80?\x00\x00\x80?\x00\x00\x80?\x00\x00\x80?\x00\x00\x80?\x00\x00\x80?\x00\x00\x80?\x00\x00\x80?\x00\x00\x80?\x00\x00\x80?\x00\x00\x80?\x00\x00\x80?\x00\x00\x80?\x00\x00\x80?\x00\x00\x80?\x00\x00\x80?\x00\x00\x80?\x00\x00\x80?\x00\x00\x80?\x00\x00\x80?\x00\x00\x80?\x00\x00\x80?\x00\x00\x80?\x00\x00\x80?\x00\x00\x80?\x00\x00\x80?\x00\x00\x80?\x00\x00\x80?\x00\x00\x80?\x00\x00\x80?\x00\x00\x80?\x00\x00\x80?\x00\x00\x80?\x00\x00\x80?\x00\x00\x80?\x00\x00\x80?\x00\x00\x80?\x00\x00\x80?\x00\x00\x80?\x00\x00\x80?\x00\x00\x80?\x00\x00\x80?\x00\x00\x80?\x00\x00\x80?\x00\x00\x80?\x00\x00\x80?\x00\x00\x80?\x00\x00\x80?\x00\x00\x80?\x00\x00\x80?\x00\x00\x80?\x00\x00\x80?\x00\x00\x80?\x00\x00\x80?\x00\x00\x80?\x00\x00\x80?\x00\x00\x80?\x00\x00\x80?\x00\x00\x80?\x00\x00\x80?\x00\x00\x80?\x00\x00\x80?\x00\x00\x80?\x00\x00\x80?\x00\x00\x80?\x00\x00\x80?\x00\x00\x80?\x00\x00\x80?\x00\x00\x80?\x00\x00\x80?\x00\x00\x80?'
S'\x00\x00\x00\x00\x00\x00\x00\x00\x00\x00\x00\x00\x00\x00\x00\x00\x00\x00\x00\x00\x00\x00\x00\x00\x00\x00\x00\x00\x00\x00\x00\x00\x00\x00\x00\x00\x00\x00\x00\x00\x00\x00\x00\x00\x00\x00\x00\x00\x00\x00\x00\x00\x00\x00\x00\x00\x00\x00\x00\x00\x00\x00\x00\x00\x00\x00\x00\x00\x00\x00\x00\x00\x00\x00\x00\x00\x00\x00\x00\x00\x00\x00\x00\x00\x00\x00\x00\x00\x00\x00\x00\x00\x00\x00\x00\x00\x00\x00\x00\x00\x00\x00\x00\x00\x00\x00\x00\x00\x00\x00\x00\x00\x00\x00\x00\x00\x00\x00\x00\x00\x00\x00\x00\x00\x00\x00\x00\x00\x00\x00\x00\x00\x00\x00\x00\x00\x00\x00\x00\x00\x00\x00\x00\x00\x00\x00\x00\x00\x00\x00\x00\x00\x00\x00\x00\x00\x00\x00\x00\x00\x00\x00\x00\x00\x00\x00\x00\x00\x00\x00\x00\x00\x00\x00\x00\x00\x00\x00\x00\x00\x00\x00\x00\x00\x00\x00\x00\x00\x00\x00\x00\x00\x00\x00\x00\x00\x00\x00\x00\x00\x00\x00\x00\x00\x00\x00\x00\x00\x00\x00\x00\x00\x00\x00\x00\x00\x00\x00\x00\x00\x00\x00\x00\x00\x00\x00\x00\x00\x00\x00\x00\x00\x00\x00\x00\x00\x00\x00\x00\x00\x00\x00\x00\x00\x00\x00\x00\x00\x00\x00\x00\x00\x00\x00\x00\x00\x00\x00\x00\x00\x00\x00\x00\x00\x00\x00\x00\x00\x00\x00\x00\x00\x00\x00\x00\x00\x00\x00\x00\x00\x00\x00\x00\x00\x00\x00\x00\x00\x00\x00\x00\x00\x00\x00\x00\x00\x00\x00\x00\x00\x00\x00\x00\x00\x00\x00\x00\x00\x00\x00\x00\x00\x00\x00\x00\x00\x00\x00\x00\x00\x00\x00\x00\x00\x00\x00\x00\x00\x00\x00\x00\x00\x00\x00\x00\x00\x00\x00\x00\x00\x00\x00\x00\x00\x00\x00\x00\x00\x00\x00\x00\x00\x00\x00\x00\x00\x00\x00\x00\x00\x00\x00\x00\x00\x00\x00\x00\x00\x00\x00\x00\x00\x00\x00\x00\x00\x00\x00\x00\x00\x00\x00\x00\x00\x00\x00\x00\x00\x00\x00\x00\x00\x00\x00\x00\x00\x00\x00\x00\x00\x00\x00\x00\x00\x00\x00\x00\x00\x00\x00\x00\x00\x00\x00\x00\x00\x00\x00\x00\x00\x00\x00\x00\x00\x00\x00\x00\x00\x00\x00\x00\x00\x00\x00\x00\x00\x00\x00\x00\x00\x00\x00\x00\x00\x00\x00\x00\x00\x00\x00\x00\x00\x00\x00\x00\x00\x00\x00\x00\x00\x00\x00\x00\x00\x00\x00\x00\x00\x00\x00\x00\x00\x00\x00\x00\x00\x00\x00\x00\x00\x00\x00\x00\x00\x00\x00\x00\x00\x00\x00\x00\x00\x00\x00\x00\x00\x00\x00\x00\x00\x00\x00\x00\x00\x00\x00\x00\x00\x00\x00\x00\x00\x00\x00\x00\x00\x00\x00\x00\x00\x00\x00\x00\x00\x00\x00\x00\x00\x00\x00\x00\x00\x00\x00\x00\x00\x00\x00\x00\x00\x00\x00\x00\x00\x00\x00\x00\x00\x00\x00\x00\x00\x00\x00\x00\x00\x00\x00\x00\x00\x00\x00\x00\x00\x00\x00\x00\x00\x00\x00\x00\x00\x00\x00\x00\x00\x00\x00\x00\x00\x00\x00\x00\x00\x00\x00\x00\x00\x00\x00\x00\x00\x00\x00\x00\x00\x00\x00\x00\x00'
NtbsS'order'
p56
g49
(g50
g51
g52
S'b'
tRp57
(I1
(I15
I40
tg55
I00
S'\x00\x00\x00\x00\x00\x00\x88A\x00\x00\xa8A\x00\x00\xb8A\x00\x00\xe8B\x00\x00\xeeB\x00\x00\x07C\x00\x00\tC\x00\x00\nC\x00\x00\x0cC\x00\x00\x0eC\x00\x00\'C\x00\x00/C\x00\x00QC\x00\x00WC\x00\x00rC\x00\x00yC\x00\x80\x87C\x00\x00\x88C\x00\x00\x8bC\x00\x80\x9aC\x00\x00\xadC\x00\x80\xb0C\x00\x80\xb2C\x00\x00\xbfC\x00\x80\xc9C\x00\x00\xcaC\x00\x80\xcbC\x00\x00\xd1C\x00\x80\xd2C\x00\x80\xd8C\x00\x80\xe7C\x00\x80\xe9C\x00\x00\xecC\x00\x00\xf0C\x00\xc0\x06D\x00@\rD\x00\x00\x14D\x00\x80\x14D\x00\xc0\x15D\x00\x00\x80@\x00\x00\x8aB\x00\x00\x92B\x00\x00\xa8B\x00\x00\xbaB\x00\x00\xbeB\x00\x00\xc0B\x00\x00\xe6B\x00\x00\xf4B\x00\x00\x03C\x00\x00\x12C\x00\x00!C\x00\x00,C\x00\x00=C\x00\x00AC\x00\x00UC\x00\x80\x89C\x00\x80\x8dC\x00\x00\x8fC\x00\x00\x91C\x00\x80\x92C\x00\x00\x93C\x00\x00\x98C\x00\x00\x9cC\x00\x80\x9dC\x00\x00\xa6C\x00\x00\xb1C\x00\x00\xb9C\x00\x80\xd5C\x00\x80\xdcC\x00\x80\xdfC\x00\x80\xe3C\x00\x80\xf1C\x00\x00\xf7C\x00\x00\xf8C\x00\x80\xfbC\x00@\x01D\x00\x00\x03D\x00\x00\x05D\x00\x80\x10D\x00\x00\xa0@\x00\x00\x10A\x00\x00\xb0A\x00\x00\x08B\x00\x004B\x00\x00<B\x00\x00PB\x00\x00`B\x00\x00\xa2B\x00\x00\xaeB\x00\x00\xb2B\x00\x00\xb4B\x00\x00\xd8B\x00\x00\xdcB\x00\x00\xecB\x00\x00\x1aC\x00\x00#C\x00\x002C\x00\x00VC\x00\x00zC\x00\x00\x81C\x00\x00\xb4C\x00\x80\xb5C\x00\x00\xbeC\x00\x00\xc5C\x00\x80\xcaC\x00\x80\xd3C\x00\x00\xd7C\x00\x80\xeaC\x00\x80\xf6C\x00\x80\xf8C\x00\x80\xf9C\x00\x00\x06D\x00\xc0\x08D\x00\x80\rD\x00\x80\x0eD\x00\xc0\x0fD\x00@\x10D\x00@\x12D\x00\x80\x12D\x00\x00\xd0A\x00\x00tB\x00\x00\xccB\x00\x00\xd6B\x00\x00\x17C\x00\x00\x1bC\x00\x007C\x00\x00?C\x00\x00FC\x00\x00RC\x00\x00eC\x00\x00uC\x00\x00wC\x00\x00\x90C\x00\x80\x90C\x00\x00\x97C\x00\x80\x97C\x00\x80\x98C\x00\x80\x9cC\x00\x00\xa5C\x00\x80\xaeC\x00\x80\xc1C\x00\x80\xc8C\x00\x00\xcbC\x00\x00\xcfC\x00\x80\xd0C\x00\x00\xd3C\x00\x80\xd6C\x00\x00\xdbC\x00\x80\xdeC\x00\x00\xe3C\x00\x00\xe4C\x00\x00\xe7C\x00\x80\xfdC\x00\x00\x02D\x00\xc0\x04D\x00@\x06D\x00@\tD\x00\x80\x0cD\x00\xc0\x14D\x00\x00\x80?\x00\x00@@\x00\x00\xc0A\x00\x00\xd8A\x00\x00\x00B\x00\x00(B\x00\x00DB\x00\x00\xa0B\x00\x00\xd0B\x00\x00\xdeB\x00\x00\xfcB\x00\x00\x02C\x00\x00\x10C\x00\x003C\x00\x00:C\x00\x00JC\x00\x00MC\x00\x00tC\x00\x00xC\x00\x00\x84C\x00\x00\x8cC\x00\x00\xa2C\x00\x80\xa3C\x00\x00\xbaC\x00\x00\xc6C\x00\x00\xccC\x00\x80\xd4C\x00\x00\xd8C\x00\x80\xdbC\x00\x00\xe5C\x00\x80\xf3C\x00\x00\xf6C\x00\x00\x00D\x00@\x02D\x00\x80\x02D\x00\xc0\x03D\x00\xc0\rD\x00\x00\x0eD\x00\xc0\x0eD\x00\xc0\x10D\x00\x00\xe0@\x00\x00pA\x00\x00\xf8A\x00\x00\x10B\x00\x00\x14B\x00\x000B\x00\x00pB\x00\x00\x80B\x00\x00\x9aB\x00\x00\xc8B\x00\x00\x14C\x00\x00\x16C\x00\x004C\x00\x00TC\x00\x00`C\x00\x00\x89C\x00\x80\x8aC\x00\x00\x8dC\x00\x00\x96C\x00\x00\x9eC\x00\x80\xa0C\x00\x00\xa9C\x00\x00\xaaC\x00\x80\xadC\x00\x80\xb7C\x00\x80\xbcC\x00\x80\xcfC\x00\x00\xe1C\x00\x80\xe4C\x00\x00\xe8C\x00\x80\xefC\x00\x00\xfbC\x00\x00\xfcC\x00\x00\xffC\x00\x80\x01D\x00\xc0\x01D\x00\x00\x08D\x00\xc0\tD\x00\x00\x13D\x00@\x14D\x00\x00\xc0@\x00\x00\x90A\x00\x00\xc8A\x00\x00\xe0A\x00\x00\x86B\x00\x00\x94B\x00\x00\xa6B\x00\x00\xb8B\x00\x00\x1eC\x00\x00$C\x00\x00%C\x00\x00)C\x00\x00+C\x00\x006C\x00\x00XC\x00\x00\\C\x00\x00cC\x00\x00nC\x00\x80\x86C\x00\x80\x8fC\x00\x80\x96C\x00\x00\xacC\x00\x00\xb0C\x00\x00\xb6C\x00\x00\xb7C\x00\x80\xbeC\x00\x00\xcdC\x00\x00\xd9C\x00\x00\xdaC\x00\x00\xe2C\x00\x00\xefC\x00\x00\xf3C\x00@\x00D\x00\x00\x07D\x00\x80\x07D\x00@\nD\x00\x00\x0bD\x00\x00\x11D\x00@\x15D\x00\x80\x15D\x00\x00 A\x00\x000A\x00\x00,B\x00\x00XB\x00\x00xB\x00\x00\x8eB\x00\x00\xd2B\x00\x00\xf2B\x00\x00\x11C\x00\x00\x15C\x00\x00(C\x00\x00*C\x00\x00IC\x00\x00KC\x00\x00SC\x00\x00[C\x00\x00mC\x00\x00pC\x00\x80\x83C\x00\x00\x86C\x00\x80\x94C\x00\x80\xacC\x00\x80\xc5C\x00\x80\xe5C\x00\x00\xe9C\x00\x00\xebC\x00\x80\xedC\x00\x80\xeeC\x00\x00\xf2C\x00\x80\xf4C\x00\x80\xfaC\x00\x80\xfcC\x00\x00\xfdC\x00\x00\x04D\x00@\x08D\x00\x80\tD\x00\x80\nD\x00\x80\x0bD\x00@\x11D\x00\x00\x12D\x00\x00\x80A\x00\x00\xa0A\x00\x00\x04B\x00\x008B\x00\x00@B\x00\x00\x82B\x00\x00\x9cB\x00\x00\xfaB\x00\x00\x05C\x00\x00\x0bC\x00\x00\rC\x00\x00-C\x00\x00.C\x00\x00BC\x00\x00CC\x00\x00aC\x00\x00fC\x00\x00oC\x00\x80\x84C\x00\x00\x8eC\x00\x80\x99C\x00\x00\x9aC\x00\x80\xa9C\x00\x80\xabC\x00\x80\xb9C\x00\x00\xbbC\x00\x00\xc0C\x00\x00\xc2C\x00\x80\xc6C\x00\x80\xccC\x00\x80\xd1C\x00\x00\xd5C\x00\x00\xd6C\x00\x80\xddC\x00\x80\xe8C\x00\x80\x03D\x00\x80\x04D\x00\x00\tD\x00@\x0bD\x00\x00\x15D\x00\x00`A\x00\x00\xf0A\x00\x00\x18B\x00\x00HB\x00\x00TB\x00\x00\x96B\x00\x00\xbcB\x00\x00\xd4B\x00\x00\xe4B\x00\x00\xeaB\x00\x00\x1cC\x00\x00\x1fC\x00\x00 C\x00\x00EC\x00\x00GC\x00\x00NC\x00\x00hC\x00\x80\x91C\x00\x00\x92C\x00\x80\x9bC\x00\x80\x9fC\x00\x00\xa0C\x00\x80\xa1C\x00\x80\xa5C\x00\x00\xaeC\x00\x00\xafC\x00\x80\xb4C\x00\x00\xb8C\x00\x80\xb8C\x00\x00\xc3C\x00\x00\xc4C\x00\x00\xdeC\x00\x80\xe2C\x00\x00\xf1C\x00\x80\xfeC\x00\x80\x05D\x00@\x07D\x00\xc0\x07D\x00\xc0\x0cD\x00@\x0fD\x00\x00\x00A\x00\x00@A\x00\x00hB\x00\x00\x88B\x00\x00\x8cB\x00\x00\xacB\x00\x00\xb6B\x00\x00\xc6B\x00\x00\xf8B\x00\x00\x04C\x00\x00\x0fC\x00\x00\x1dC\x00\x00"C\x00\x00>C\x00\x00PC\x00\x00YC\x00\x00^C\x00\x00sC\x00\x00|C\x00\x00~C\x00\x00\x7fC\x00\x00\x80C\x00\x00\x85C\x00\x80\x88C\x00\x80\x95C\x00\x00\x9fC\x00\x80\xa7C\x00\x00\xb2C\x00\x80\xb3C\x00\x00\xbdC\x00\x80\xdaC\x00\x00\xdfC\x00\x00\xeaC\x00\x80\xf7C\x00\x00\xfaC\x00\x80\x06D\x00\x00\nD\x00\x00\x0fD\x00@\x13D\x00\xc0\x13D\x00\x00\x00@\x00\x00\xe8A\x00\x00 B\x00\x00$B\x00\x00\x98B\x00\x00\xa4B\x00\x00\xc4B\x00\x00\xdaB\x00\x00\x18C\x00\x00\x19C\x00\x00<C\x00\x00bC\x00\x00dC\x00\x00iC\x00\x00kC\x00\x00lC\x00\x80\x80C\x00\x80\x8cC\x00\x80\x8eC\x00\x00\x99C\x00\x80\x9eC\x00\x00\xa1C\x00\x80\xa2C\x00\x00\xa3C\x00\x00\xa7C\x00\x00\xb5C\x00\x80\xbdC\x00\x00\xceC\x00\x00\xd4C\x00\x00\xddC\x00\x80\xe0C\x00\x80\xebC\x00\x80\xf0C\x00\x80\xf2C\x00\x80\xffC\x00@\x04D\x00\xc0\x0bD\x00@\x0cD\x00\x80\x11D\x00\x80\x13D\x00\x00PA\x00\x00\x98A\x00\x00LB\x00\x00\\B\x00\x00lB\x00\x00|B\x00\x00\xb0B\x00\x00\xe2B\x00\x00\xf0B\x00\x00\x08C\x00\x005C\x00\x00;C\x00\x00ZC\x00\x00gC\x00\x00qC\x00\x00vC\x00\x00\x82C\x00\x00\x83C\x00\x00\x87C\x00\x00\x8aC\x00\x00\x9bC\x00\x00\x9dC\x00\x80\xa8C\x00\x80\xaaC\x00\x80\xafC\x00\x00\xb3C\x00\x80\xb6C\x00\x00\xbcC\x00\x80\xc4C\x00\x80\xcdC\x00\x00\xd0C\x00\x00\xd2C\x00\x80\xe6C\x00\x80\xecC\x00\x00\xedC\x00\x00\xf4C\x00\x80\xf5C\x00\xc0\x00D\x00\xc0\x05D\x00@\x0eD\x00\x00\x1cB\x00\x00\x90B\x00\x00\x9eB\x00\x00\xaaB\x00\x00\xe0B\x00\x00\xf6B\x00\x00\xfeB\x00\x00\x00C\x00\x00\x01C\x00\x00\x06C\x00\x00\x13C\x00\x009C\x00\x00DC\x00\x00HC\x00\x00LC\x00\x00]C\x00\x00jC\x00\x00{C\x00\x00}C\x00\x80\x82C\x00\x00\x94C\x00\x00\x95C\x00\x00\xa4C\x00\x00\xa8C\x00\x00\xabC\x00\x80\xc0C\x00\x00\xc1C\x00\x80\xc3C\x00\x80\xc7C\x00\x00\xc9C\x00\x80\xd9C\x00\x00\xe0C\x00\x80\xe1C\x00\x00\xe6C\x00\x00\xf9C\x00\xc0\x02D\x00@\x05D\x00\x80\x08D\x00\xc0\nD\x00\x00\x10D\x00\x00\x0cB\x00\x00dB\x00\x00\x84B\x00\x00\xc2B\x00\x00\xcaB\x00\x00\xceB\x00\x00&C\x00\x000C\x00\x001C\x00\x008C\x00\x00@C\x00\x00OC\x00\x00_C\x00\x80\x81C\x00\x80\x85C\x00\x80\x8bC\x00\x80\x93C\x00\x80\xa4C\x00\x80\xa6C\x00\x80\xb1C\x00\x80\xbaC\x00\x80\xbbC\x00\x80\xbfC\x00\x80\xc2C\x00\x00\xc7C\x00\x00\xc8C\x00\x80\xceC\x00\x80\xd7C\x00\x00\xdcC\x00\x00\xeeC\x00\x00\xf5C\x00\x00\xfeC\x00\x80\x00D\x00\x00\x01D\x00@\x03D\x00\x00\x0cD\x00\x00\rD\x00\x80\x0fD\x00\xc0\x11D\x00\xc0\x12D'
S'\x00\x00\x00\x00\x00\x00\x00\x00\x00\x00\x00\x00\x00\x00\x00\x00\x00\x00\x00\x00\x00\x00\x00\x00\x00\x00\x00\x00\x00\x00\x00\x00\x00\x00\x00\x00\x00\x00\x00\x00\x00\x00\x00\x00\x00\x00\x00\x00\x00\x00\x00\x00\x00\x00\x00\x00\x00\x00\x00\x00\x00\x00\x00\x00\x00\x00\x00\x00\x00\x00\x00\x00\x00\x00\x00\x00\x00\x00\x00\x00\x00\x00\x00\x00\x00\x00\x00\x00\x00\x00\x00\x00\x00\x00\x00\x00\x00\x00\x00\x00\x00\x00\x00\x00\x00\x00\x00\x00\x00\x00\x00\x00\x00\x00\x00\x00\x00\x00\x00\x00\x00\x00\x00\x00\x00\x00\x00\x00\x00\x00\x00\x00\x00\x00\x00\x00\x00\x00\x00\x00\x00\x00\x00\x00\x00\x00\x00\x00\x00\x00\x00\x00\x00\x00\x00\x00\x00\x00\x00\x00\x00\x00\x00\x00\x00\x00\x00\x00\x00\x00\x00\x00\x00\x00\x00\x00\x00\x00\x00\x00\x00\x00\x00\x00\x00\x00\x00\x00\x00\x00\x00\x00\x00\x00\x00\x00\x00\x00\x00\x00\x00\x00\x00\x00\x00\x00\x00\x00\x00\x00\x00\x00\x00\x00\x00\x00\x00\x00\x00\x00\x00\x00\x00\x00\x00\x00\x00\x00\x00\x00\x00\x00\x00\x00\x00\x00\x00\x00\x00\x00\x00\x00\x00\x00\x00\x00\x00\x00\x00\x00\x00\x00\x00\x00\x00\x00\x00\x00\x00\x00\x00\x00\x00\x00\x00\x00\x00\x00\x00\x00\x00\x00\x00\x00\x00\x00\x00\x00\x00\x00\x00\x00\x00\x00\x00\x00\x00\x00\x00\x00\x00\x00\x00\x00\x00\x00\x00\x00\x00\x00\x00\x00\x00\x00\x00\x00\x00\x00\x00\x00\x00\x00\x00\x00\x00\x00\x00\x00\x00\x00\x00\x00\x00\x00\x00\x00\x00\x00\x00\x00\x00\x00\x00\x00\x00\x00\x00\x00\x00\x00\x00\x00\x00\x00\x00\x00\x00\x00\x00\x00\x00\x00\x00\x00\x00\x00\x00\x00\x00\x00\x00\x00\x00\x00\x00\x00\x00\x00\x00\x00\x00\x00\x00\x00\x00\x00\x00\x00\x00\x00\x00\x00\x00\x00\x00\x00\x00\x00\x00\x00\x00\x00\x00\x00\x00\x00\x00\x00\x00\x00\x00\x00\x00\x00\x00\x00\x00\x00\x00\x00\x00\x00\x00\x00\x00\x00\x00\x00\x00\x00\x00\x00\x00\x00\x00\x00\x00\x00\x00\x00\x00\x00\x00\x00\x00\x00\x00\x00\x00\x00\x00\x00\x00\x00\x00\x00\x00\x00\x00\x00\x00\x00\x00\x00\x00\x00\x00\x00\x00\x00\x00\x00\x00\x00\x00\x00\x00\x00\x00\x00\x00\x00\x00\x00\x00\x00\x00\x00\x00\x00\x00\x00\x00\x00\x00\x00\x00\x00\x00\x00\x00\x00\x00\x00\x00\x00\x00\x00\x00\x00\x00\x00\x00\x00\x00\x00\x00\x00\x00\x00\x00\x00\x00\x00\x00\x00\x00\x00\x00\x00\x00\x00\x00\x00\x00\x00\x00\x00\x00\x00\x00\x00\x00\x00\x00\x00\x00\x00\x00\x00\x00\x00\x00\x00\x00\x00\x00\x00\x00\x00\x00\x00\x00\x00\x00\x00\x00\x00\x00\x00\x00\x00\x00\x00\x00\x00\x00\x00\x00\x00\x00\x00\x00\x00\x00\x00\x00\x00\x00\x00\x00\x00\x00\x00\x00\x00\x00\x00\x00\x00\x00\x00\x00\x00\x00\x00\x00\x00\x00\x00'
NtbstRp58
(dp59
S'isNumeric'
p60
(dp61
g48
I01
sg56
I01
ssS'trials'
p62
g37
sS'dataTypes'
p63
(lp64
g48
ag56
asS'dataShape'
p65
(lp66
I15
aI40
asbsS'method'
p67
S'fullRandom'
p68
sS'sequenceIndices'
p69
cnumpy.core.multiarray
_reconstruct
p70
(g51
(I0
tS'b'
tRp71
(I1
(I15
I40
tg54
(S'O4'
I0
I1
tRp72
(I3
S'|'
NNNI-1
I-1
I63
tbI00
(lp73
I0
aI5
aI9
aI2
aI5
aI9
aI2
aI7
aI12
aI0
aI5
aI6
aI5
aI8
aI3
aI8
aI7
aI10
aI12
aI11
aI5
aI1
aI3
aI7
aI2
aI14
aI9
aI2
aI12
aI13
aI5
aI8
aI0
aI10
aI5
aI14
aI6
aI13
aI2
aI2
aI4
aI8
aI5
aI8
aI3
aI11
aI10
aI9
aI7
aI12
aI3
aI14
aI12
aI13
aI7
aI11
aI12
aI10
aI0
aI1
aI6
aI5
aI9
aI0
aI9
aI12
aI13
aI3
aI0
aI6
aI13
aI7
aI11
aI1
aI11
aI8
aI9
aI6
aI4
aI2
aI11
aI0
aI4
aI2
aI7
aI5
aI6
aI3
aI1
aI0
aI11
aI0
aI6
aI9
aI5
aI6
aI0
aI11
aI0
aI6
aI3
aI11
aI1
aI5
aI11
aI5
aI9
aI0
aI3
aI10
aI6
aI0
aI9
aI2
aI4
aI4
aI6
aI8
aI10
aI14
aI4
aI6
aI8
aI8
aI12
aI8
aI1
aI2
aI13
aI0
aI11
aI7
aI3
aI3
aI1
aI11
aI10
aI2
aI10
aI3
aI3
aI10
aI14
aI9
aI2
aI10
aI12
aI4
aI2
aI3
aI9
aI10
aI1
aI13
aI6
aI7
aI9
aI7
aI9
aI5
aI1
aI12
aI2
aI4
aI5
aI13
aI9
aI11
aI10
aI8
aI2
aI6
aI14
aI9
aI2
aI3
aI4
aI14
aI5
aI3
aI1
aI9
aI11
aI3
aI6
aI11
aI2
aI8
aI11
aI4
aI3
aI2
aI7
aI2
aI14
aI11
aI5
aI11
aI14
aI10
aI2
aI8
aI14
aI9
aI8
aI4
aI1
aI2
aI8
aI0
aI3
aI7
aI13
aI13
aI0
aI8
aI3
aI12
aI1
aI1
aI3
aI9
aI10
aI9
aI12
aI2
aI7
aI6
aI4
aI14
aI1
aI7
aI11
aI10
aI12
aI8
aI7
aI14
aI2
aI11
aI6
aI0
aI5
aI12
aI14
aI2
aI1
aI4
aI4
aI8
aI9
aI6
aI4
aI7
aI6
aI12
aI12
aI13
aI12
aI9
aI11
aI5
aI13
aI12
aI6
aI6
aI4
aI12
aI8
aI1
aI3
aI11
aI6
aI7
aI14
aI3
aI13
aI11
aI13
aI10
aI5
aI2
aI5
aI2
aI6
aI11
aI14
aI13
aI13
aI0
aI10
aI1
aI12
aI4
aI10
aI9
aI3
aI12
aI5
aI9
aI8
aI11
aI12
aI6
aI5
aI0
aI8
aI11
aI1
aI11
aI5
aI0
aI4
aI5
aI1
aI1
aI2
aI3
aI2
aI0
aI10
aI0
aI9
aI9
aI10
aI6
aI11
aI12
aI13
aI10
aI6
aI8
aI11
aI7
aI12
aI11
aI4
aI7
aI0
aI1
aI8
aI9
aI5
aI0
aI9
aI14
aI14
aI14
aI8
aI8
aI4
aI12
aI12
aI1
aI5
aI13
aI8
aI9
aI1
aI5
aI2
aI4
aI13
aI7
aI1
aI1
aI10
aI9
aI13
aI4
aI9
aI8
aI1
aI13
aI7
aI13
aI0
aI4
aI14
aI1
aI0
aI4
aI8
aI1
aI9
aI8
aI13
aI3
aI3
aI9
aI7
aI12
aI7
aI5
aI5
aI9
aI3
aI14
aI4
aI0
aI7
aI6
aI11
aI12
aI10
aI13
aI5
aI1
aI4
aI7
aI9
aI0
aI10
aI4
aI6
aI11
aI2
aI8
aI4
aI14
aI12
aI11
aI5
aI14
aI1
aI13
aI14
aI5
aI2
aI3
aI13
aI7
aI14
aI7
aI3
aI12
aI7
aI0
aI6
aI3
aI7
aI3
aI11
aI2
aI7
aI10
aI14
aI0
aI1
aI1
aI1
aI14
aI3
aI9
aI13
aI11
aI13
aI10
aI11
aI13
aI9
aI11
aI12
aI10
aI8
aI13
aI3
aI12
aI14
aI10
aI12
aI14
aI12
aI7
aI4
aI2
aI5
aI2
aI7
aI8
aI10
aI4
aI4
aI14
aI13
aI2
aI3
aI9
aI10
aI13
aI10
aI14
aI14
aI14
aI10
aI7
aI10
aI14
aI5
aI7
aI1
aI4
aI13
aI0
aI4
aI3
aI13
aI3
aI4
aI1
aI3
aI7
aI4
aI3
aI4
aI3
aI10
aI4
aI11
aI6
aI12
aI6
aI7
aI10
aI1
aI12
aI14
aI2
aI8
aI5
aI2
aI2
aI1
aI10
aI14
aI6
aI13
aI7
aI1
aI13
aI3
aI13
aI8
aI12
aI14
aI8
aI0
aI0
aI0
aI13
aI0
aI6
aI2
aI14
aI13
aI10
aI6
aI4
aI14
aI6
aI9
aI11
aI5
aI12
aI6
aI2
aI4
aI0
aI13
aI7
aI6
aI4
aI8
aI0
aI5
aI8
aI10
aI6
aI8
aI10
aI12
aI14
aI6
aI10
aI8
aI14
aI0
aI8
aI6
aI11
aI5
aI5
aI1
aI9
aI1
aI0
aI7
aI12
aI7
aI0
atbsS'finished'
p74
I00
sS'nReps'
p75
I40
sS'nRemaining'
p76
I0
sS'trialList'
p77
(lp78
I0
aI1
aI2
aI3
aI4
aI5
aI6
aI7
aI8
aI9
aI10
aI11
aI12
aI13
aI14
asS'seed'
p79
NsS'thisIndex'
p80
I0
sS'thisN'
p81
I599
sS'thisTrialN'
p82
I14
sS'nTotal'
p83
I600
sS'_warnUseOfNext'
p84
I01
sbasS'saveWideText'
p85
I00
sS'thisEntry'
p86
(dp87
sS'version'
p88
S''
sS'_paramNamesSoFar'
p89
(lp90
sS'entries'
p91
(lp92
(dp93
S'.thisTrial'
p94
I0
sS'.thisN'
p95
I0
sg30
g31
sg32
g33
sS'.thisTrialN'
p96
I0
sS'.thisRepN'
p97
I0
sS'.thisIndex'
p98
I0
sg15
Nsg16
S'Timed out'
p99
sg14
I1
sa(dp100
g17
(lp101
S'k'
asg94
I4
sS'.thisRepN'
p102
I0
sg30
g31
sg32
g33
sS'.thisTrialN'
p103
I1
sS'.thisN'
p104
I1
sS'.thisIndex'
p105
I4
sg15
(lp106
S'd'
asg16
S'N'
sg14
I1
sa(dp107
g17
(lp108
S'k'
asg18
S'N'
sS'.thisRepN'
p109
I0
sg20
S'Y'
sg32
g33
sS'.thisTrialN'
p110
I2
sS'.thisN'
p111
I2
sS'.thisIndex'
p112
I11
sg15
(lp113
S'k'
asg30
g31
sg16
S'Y'
sg14
I1
sg19
Nsg94
I11
sa(dp114
g17
(lp115
S'k'
asg18
S'N'
sS'.thisRepN'
p116
I0
sg20
S'Y'
sg32
g33
sS'.thisTrialN'
p117
I3
sS'.thisN'
p118
I3
sS'.thisIndex'
p119
I4
sg15
(lp120
S'k'
asg30
g31
sg16
S'Y'
sg14
I1
sg19
Nsg94
I4
sa(dp121
g17
(lp122
S'd'
asg18
S'N'
sS'.thisRepN'
p123
I0
sg20
S'Y'
sg32
g33
sS'.thisTrialN'
p124
I4
sS'.thisN'
p125
I4
sS'.thisIndex'
p126
I1
sg15
(lp127
S'k'
asg30
g31
sg16
S'N'
sg14
I1
sg19
Nsg94
I1
sa(dp128
g17
(lp129
S'd'
asg18
S'Y'
sS'.thisRepN'
p130
I0
sg20
S'N'
sg32
g33
sS'.thisTrialN'
p131
I5
sS'.thisN'
p132
I5
sS'.thisIndex'
p133
I2
sg15
(lp134
S'd'
asg30
g31
sg16
S'Y'
sg14
I1
sg19
Nsg94
I2
sa(dp135
g17
(lp136
S'k'
asg18
S'N'
sS'.thisRepN'
p137
I0
sg20
S'Y'
sg32
g33
sS'.thisTrialN'
p138
I6
sS'.thisN'
p139
I6
sS'.thisIndex'
p140
I6
sg15
(lp141
S'k'
asg30
g31
sg16
S'Y'
sg14
I1
sg19
Nsg94
I6
sa(dp142
g17
(lp143
S'd'
asg18
S'N'
sS'.thisRepN'
p144
I0
sg20
S'Y'
sg32
g33
sS'.thisTrialN'
p145
I7
sS'.thisN'
p146
I7
sS'.thisIndex'
p147
I5
sg15
(lp148
S'd'
asg30
g31
sg16
S'Y'
sg14
I1
sg19
Nsg94
I5
sa(dp149
g17
(lp150
S'k'
asg18
S'N'
sS'.thisRepN'
p151
I0
sg20
S'Y'
sg32
g33
sS'.thisTrialN'
p152
I8
sS'.thisN'
p153
I8
sS'.thisIndex'
p154
I10
sg15
(lp155
S'k'
asg30
g31
sg16
S'Y'
sg14
I1
sg19
Nsg94
I10
sa(dp156
g17
(lp157
S'd'
asg18
S'Y'
sS'.thisRepN'
p158
I0
sg20
S'N'
sg32
g33
sS'.thisTrialN'
p159
I9
sS'.thisN'
p160
I9
sS'.thisIndex'
p161
I2
sg15
(lp162
S'd'
asg30
g31
sg16
S'Y'
sg14
I1
sg19
Nsg94
I2
sa(dp163
g17
(lp164
S'd'
asg18
S'Y'
sS'.thisRepN'
p165
I0
sg20
S'N'
sg32
g33
sS'.thisTrialN'
p166
I10
sS'.thisN'
p167
I10
sS'.thisIndex'
p168
I7
sg15
(lp169
S'd'
asg30
g31
sg16
S'Y'
sg14
I1
sg19
Nsg94
I7
sa(dp170
g17
(lp171
S'k'
asg18
S'N'
sS'.thisRepN'
p172
I0
sg20
S'Y'
sg32
g33
sS'.thisTrialN'
p173
I11
sS'.thisN'
p174
I11
sS'.thisIndex'
p175
I7
sg15
(lp176
S'k'
asg30
g31
sg16
S'Y'
sg14
I1
sg19
Nsg94
I7
sa(dp177
g17
(lp178
S'd'
asg18
S'Y'
sS'.thisRepN'
p179
I0
sg20
S'Y'
sg32
g33
sS'.thisTrialN'
p180
I12
sS'.thisN'
p181
I12
sS'.thisIndex'
p182
I10
sg15
(lp183
S'd'
asg30
g31
sg16
S'Y'
sg14
I1
sg19
(lp184
S'space'
p185
asg94
I10
sa(dp186
g17
(lp187
S'k'
asg18
S'N'
sS'.thisRepN'
p188
I0
sg20
S'Y'
sg32
g33
sS'.thisTrialN'
p189
I13
sS'.thisN'
p190
I13
sS'.thisIndex'
p191
I12
sg15
(lp192
S'k'
asg30
g31
sg16
S'Y'
sg14
I1
sg19
Nsg94
I12
sa(dp193
g17
(lp194
S'd'
asg18
S'N'
sS'.thisRepN'
p195
I0
sg20
S'Y'
sg32
g33
sS'.thisTrialN'
p196
I14
sS'.thisN'
p197
I14
sS'.thisIndex'
p198
I9
sg15
(lp199
S'd'
asg30
g31
sg16
S'Y'
sg14
I1
sg19
Nsg94
I9
sa(dp200
g17
(lp201
S'k'
asg18
S'N'
sS'.thisRepN'
p202
I1
sg20
S'Y'
sg32
g33
sS'.thisTrialN'
p203
I0
sS'.thisN'
p204
I15
sS'.thisIndex'
p205
I5
sg15
(lp206
S'k'
asg30
g31
sg16
S'Y'
sg14
I1
sg19
Nsg94
I5
sa(dp207
g17
(lp208
S'd'
asg18
S'Y'
sS'.thisRepN'
p209
I1
sg20
S'N'
sg32
g33
sS'.thisTrialN'
p210
I1
sS'.thisN'
p211
I16
sS'.thisIndex'
p212
I8
sg15
(lp213
S'd'
asg30
g31
sg16
S'Y'
sg14
I1
sg19
Nsg94
I8
sa(dp214
g17
(lp215
S'k'
asg18
S'Y'
sS'.thisRepN'
p216
I1
sg20
S'N'
sg32
g33
sS'.thisTrialN'
p217
I2
sS'.thisN'
p218
I17
sS'.thisIndex'
p219
I0
sg15
(lp220
S'k'
asg30
g31
sg16
S'Y'
sg14
I1
sg19
Nsg94
I0
sa(dp221
g17
(lp222
S'd'
asg18
S'Y'
sS'.thisRepN'
p223
I1
sg20
S'Y'
sg32
g33
sS'.thisTrialN'
p224
I3
sS'.thisN'
p225
I18
sS'.thisIndex'
p226
I6
sg15
(lp227
S'd'
asg30
g31
sg16
S'Y'
sg14
I1
sg19
(lp228
S'space'
p229
asg94
I6
sa(dp230
g17
(lp231
S'k'
asg18
S'Y'
sS'.thisRepN'
p232
I1
sg20
S'Y'
sg32
g33
sS'.thisTrialN'
p233
I4
sS'.thisN'
p234
I19
sS'.thisIndex'
p235
I12
sg15
(lp236
S'k'
asg30
g31
sg16
S'Y'
sg14
I1
sg19
(lp237
S'space'
p238
asg94
I12
sa(dp239
g17
(lp240
S'k'
asg18
S'Y'
sS'.thisRepN'
p241
I1
sg20
S'Y'
sg32
g33
sS'.thisTrialN'
p242
I5
sS'.thisN'
p243
I20
sS'.thisIndex'
p244
I8
sg15
(lp245
S'k'
asg30
g31
sg16
S'Y'
sg14
I1
sg19
(lp246
S'space'
p247
asg94
I8
sa(dp248
g17
(lp249
S'd'
asg18
S'N'
sS'.thisRepN'
p250
I1
sg20
S'Y'
sg32
g33
sS'.thisTrialN'
p251
I6
sS'.thisN'
p252
I21
sS'.thisIndex'
p253
I0
sg15
(lp254
S'd'
asg30
g31
sg16
S'Y'
sg14
I1
sg19
Nsg94
I0
sa(dp255
g17
(lp256
S'd'
asg18
S'Y'
sS'.thisRepN'
p257
I1
sg20
S'Y'
sg32
g33
sS'.thisTrialN'
p258
I7
sS'.thisN'
p259
I22
sS'.thisIndex'
p260
I2
sg15
(lp261
S'd'
asg30
g31
sg16
S'Y'
sg14
I1
sg19
(lp262
S'space'
p263
asg94
I2
sa(dp264
g17
(lp265
S'k'
asg18
S'Y'
sS'.thisRepN'
p266
I1
sg20
S'N'
sg32
g33
sS'.thisTrialN'
p267
I8
sS'.thisN'
p268
I23
sS'.thisIndex'
p269
I0
sg15
(lp270
S'k'
asg30
g31
sg16
S'Y'
sg14
I1
sg19
Nsg94
I0
sa(dp271
g17
(lp272
S'd'
asg18
S'N'
sS'.thisRepN'
p273
I1
sg20
S'Y'
sg32
g33
sS'.thisTrialN'
p274
I9
sS'.thisN'
p275
I24
sS'.thisIndex'
p276
I4
sg15
(lp277
S'd'
asg30
g31
sg16
S'Y'
sg14
I1
sg19
Nsg94
I4
sa(dp278
g17
(lp279
S'k'
asg18
S'N'
sS'.thisRepN'
p280
I1
sg20
S'Y'
sg32
g33
sS'.thisTrialN'
p281
I10
sS'.thisN'
p282
I25
sS'.thisIndex'
p283
I6
sg15
(lp284
S'k'
asg30
g31
sg16
S'Y'
sg14
I1
sg19
Nsg94
I6
sa(dp285
g17
(lp286
S'k'
asg18
S'N'
sS'.thisRepN'
p287
I1
sg20
S'Y'
sg32
g33
sS'.thisTrialN'
p288
I11
sS'.thisN'
p289
I26
sS'.thisIndex'
p290
I3
sg15
(lp291
S'k'
asg30
g31
sg16
S'Y'
sg14
I1
sg19
Nsg94
I3
sa(dp292
g17
(lp293
S'd'
asg18
S'N'
sS'.thisRepN'
p294
I1
sg20
S'N'
sg32
g33
sS'.thisTrialN'
p295
I12
sS'.thisN'
p296
I27
sS'.thisIndex'
p297
I4
sg15
(lp298
S'd'
asg30
g31
sg16
S'Y'
sg14
I1
sg19
(lp299
S'space'
p300
asg94
I4
sa(dp301
g17
(lp302
S'd'
asg18
S'Y'
sS'.thisRepN'
p303
I1
sg20
S'N'
sg32
g33
sS'.thisTrialN'
p304
I13
sS'.thisN'
p305
I28
sS'.thisIndex'
p306
I6
sg15
(lp307
S'd'
asg30
g31
sg16
S'Y'
sg14
I1
sg19
Nsg94
I6
sa(dp308
g17
(lp309
S'd'
asg18
S'Y'
sS'.thisRepN'
p310
I1
sg20
S'Y'
sg32
g33
sS'.thisTrialN'
p311
I14
sS'.thisN'
p312
I29
sS'.thisIndex'
p313
I11
sg15
(lp314
S'd'
asg30
g31
sg16
S'Y'
sg14
I1
sg19
(lp315
S'space'
p316
asg94
I11
sa(dp317
g17
(lp318
S'k'
asg18
S'N'
sS'.thisRepN'
p319
I2
sg20
S'Y'
sg32
g33
sS'.thisTrialN'
p320
I0
sS'.thisN'
p321
I30
sS'.thisIndex'
p322
I9
sg15
(lp323
S'k'
asg30
g31
sg16
S'Y'
sg14
I1
sg19
Nsg94
I9
sa(dp324
g17
(lp325
S'd'
asg18
S'Y'
sS'.thisRepN'
p326
I2
sg20
S'N'
sg32
g33
sS'.thisTrialN'
p327
I1
sS'.thisN'
p328
I31
sS'.thisIndex'
p329
I5
sg15
(lp330
S'd'
asg30
g31
sg16
S'Y'
sg14
I1
sg19
Nsg94
I5
sa(dp331
g17
(lp332
S'k'
asg18
S'N'
sS'.thisRepN'
p333
I2
sg20
S'Y'
sg32
g33
sS'.thisTrialN'
p334
I2
sS'.thisN'
p335
I32
sS'.thisIndex'
p336
I4
sg15
(lp337
S'k'
asg30
g31
sg16
S'Y'
sg14
I1
sg19
Nsg94
I4
sa(dp338
g17
(lp339
S'k'
asg18
S'N'
sS'.thisRepN'
p340
I2
sg20
S'Y'
sg32
g33
sS'.thisTrialN'
p341
I3
sS'.thisN'
p342
I33
sS'.thisIndex'
p343
I8
sg15
(lp344
S'k'
asg30
g31
sg16
S'Y'
sg14
I1
sg19
Nsg94
I8
sa(dp345
g17
(lp346
S'd'
asg18
S'N'
sS'.thisRepN'
p347
I2
sg20
S'Y'
sg32
g33
sS'.thisTrialN'
p348
I4
sS'.thisN'
p349
I34
sS'.thisIndex'
p350
I2
sg15
(lp351
S'd'
asg30
g31
sg16
S'Y'
sg14
I1
sg19
Nsg94
I2
sa(dp352
g17
(lp353
S'k'
asg18
S'N'
sS'.thisRepN'
p354
I2
sg20
S'Y'
sg32
g33
sS'.thisTrialN'
p355
I5
sS'.thisN'
p356
I35
sS'.thisIndex'
p357
I14
sg15
(lp358
S'k'
asg30
g31
sg16
S'Y'
sg14
I1
sg19
Nsg94
I14
sa(dp359
g17
(lp360
S'd'
asg18
S'N'
sS'.thisRepN'
p361
I2
sg20
S'Y'
sg32
g33
sS'.thisTrialN'
p362
I6
sS'.thisN'
p363
I36
sS'.thisIndex'
p364
I5
sg15
(lp365
S'd'
asg30
g31
sg16
S'Y'
sg14
I1
sg19
Nsg94
I5
sa(dp366
g17
(lp367
S'k'
asg18
S'Y'
sS'.thisRepN'
p368
I2
sg20
S'N'
sg32
g33
sS'.thisTrialN'
p369
I7
sS'.thisN'
p370
I37
sS'.thisIndex'
p371
I5
sg15
(lp372
S'k'
asg30
g31
sg16
S'Y'
sg14
I1
sg19
Nsg94
I5
sa(dp373
g17
(lp374
S'd'
asg18
S'Y'
sS'.thisRepN'
p375
I2
sg20
S'N'
sg32
g33
sS'.thisTrialN'
p376
I8
sS'.thisN'
p377
I38
sS'.thisIndex'
p378
I9
sg15
(lp379
S'd'
asg30
g31
sg16
S'Y'
sg14
I1
sg19
Nsg94
I9
sa(dp380
g17
(lp381
S'k'
asg18
S'N'
sS'.thisRepN'
p382
I2
sg20
S'N'
sg32
g33
sS'.thisTrialN'
p383
I9
sS'.thisN'
p384
I39
sS'.thisIndex'
p385
I13
sg15
(lp386
S'k'
asg30
g31
sg16
S'Y'
sg14
I1
sg19
(lp387
S'space'
p388
asg94
I13
sa(dp389
g17
(lp390
S'd'
asg18
S'Y'
sS'.thisRepN'
p391
I2
sg20
S'N'
sg32
g33
sS'.thisTrialN'
p392
I10
sS'.thisN'
p393
I40
sS'.thisIndex'
p394
I11
sg15
(lp395
S'd'
asg30
g31
sg16
S'Y'
sg14
I1
sg19
Nsg94
I11
sa(dp396
g17
(lp397
S'k'
asg18
S'N'
sS'.thisRepN'
p398
I2
sg20
S'Y'
sg32
g33
sS'.thisTrialN'
p399
I11
sS'.thisN'
p400
I41
sS'.thisIndex'
p401
I11
sg15
(lp402
S'k'
asg30
g31
sg16
S'Y'
sg14
I1
sg19
Nsg94
I11
sa(dp403
g17
(lp404
S'd'
asg18
S'Y'
sS'.thisRepN'
p405
I2
sg20
S'Y'
sg32
g33
sS'.thisTrialN'
p406
I12
sS'.thisN'
p407
I42
sS'.thisIndex'
p408
I4
sg15
(lp409
S'd'
asg30
g31
sg16
S'Y'
sg14
I1
sg19
(lp410
S'space'
p411
asg94
I4
sa(dp412
g17
(lp413
S'd'
asg18
S'N'
sS'.thisRepN'
p414
I2
sg20
S'Y'
sg32
g33
sS'.thisTrialN'
p415
I13
sS'.thisN'
p416
I43
sS'.thisIndex'
p417
I7
sg15
(lp418
S'd'
asg30
g31
sg16
S'Y'
sg14
I1
sg19
Nsg94
I7
sa(dp419
g17
(lp420
S'k'
asg18
S'Y'
sS'.thisRepN'
p421
I2
sg20
S'N'
sg32
g33
sS'.thisTrialN'
p422
I14
sS'.thisN'
p423
I44
sS'.thisIndex'
p424
I5
sg15
(lp425
S'k'
asg30
g31
sg16
S'Y'
sg14
I1
sg19
Nsg94
I5
sa(dp426
g17
(lp427
S'd'
asg18
S'Y'
sS'.thisRepN'
p428
I3
sg20
S'Y'
sg32
g33
sS'.thisTrialN'
p429
I0
sS'.thisN'
p430
I45
sS'.thisIndex'
p431
I2
sg15
(lp432
S'd'
asg30
g31
sg16
S'Y'
sg14
I1
sg19
(lp433
S'space'
p434
asg94
I2
sa(dp435
g17
(lp436
S'd'
asg18
S'Y'
sS'.thisRepN'
p437
I3
sg20
S'N'
sg32
g33
sS'.thisTrialN'
p438
I1
sS'.thisN'
p439
I46
sS'.thisIndex'
p440
I8
sg15
(lp441
S'd'
asg30
g31
sg16
S'Y'
sg14
I1
sg19
Nsg94
I8
sa(dp442
g17
(lp443
S'd'
asg18
S'N'
sS'.thisRepN'
p444
I3
sg20
S'N'
sg32
g33
sS'.thisTrialN'
p445
I2
sS'.thisN'
p446
I47
sS'.thisIndex'
p447
I2
sg15
(lp448
S'd'
asg30
g31
sg16
S'Y'
sg14
I1
sg19
(lp449
S'space'
p450
asg94
I2
sa(dp451
g17
(lp452
S'k'
asg18
S'Y'
sS'.thisRepN'
p453
I3
sg20
S'N'
sg32
g33
sS'.thisTrialN'
p454
I3
sS'.thisN'
p455
I48
sS'.thisIndex'
p456
I8
sg15
(lp457
S'k'
asg30
g31
sg16
S'Y'
sg14
I1
sg19
Nsg94
I8
sa(dp458
g17
(lp459
S'd'
asg18
S'Y'
sg22
I31
sS'.thisN'
p460
I49
sg20
S'Y'
sg32
g33
sS'.thisTrialN'
p461
I4
sS'.thisRepN'
p462
I3
sg21
I47
sS'.thisIndex'
p463
I4
sg23
I23
sg15
(lp464
S'd'
asg30
g31
sg16
S'Y'
sg14
I1
sg19
(lp465
S'space'
p466
asg94
I4
sa(dp467
g17
(lp468
S'k'
asg94
I9
sS'.thisRepN'
p469
I3
sg30
g31
sg32
g33
sS'.thisTrialN'
p470
I5
sS'.thisN'
p471
I50
sS'.thisIndex'
p472
I9
sg15
(lp473
S'k'
asg16
S'Y'
sg14
I2
sa(dp474
g17
(lp475
S'd'
asg94
I12
sS'.thisRepN'
p476
I3
sg30
g31
sg32
g33
sS'.thisTrialN'
p477
I6
sS'.thisN'
p478
I51
sS'.thisIndex'
p479
I12
sg15
(lp480
S'd'
asg16
S'Y'
sg14
I2
sa(dp481
g17
(lp482
S'k'
asg18
S'Y'
sS'.thisRepN'
p483
I3
sg20
S'Y'
sg32
g33
sS'.thisTrialN'
p484
I7
sS'.thisN'
p485
I52
sS'.thisIndex'
p486
I2
sg15
(lp487
S'k'
asg30
g31
sg16
S'Y'
sg14
I2
sg19
(lp488
S'space'
p489
asg94
I2
sa(dp490
g17
(lp491
S'd'
asg18
S'Y'
sS'.thisRepN'
p492
I3
sg20
S'Y'
sg32
g33
sS'.thisTrialN'
p493
I8
sS'.thisN'
p494
I53
sS'.thisIndex'
p495
I9
sg15
(lp496
S'd'
asg30
g31
sg16
S'Y'
sg14
I2
sg19
(lp497
S'space'
p498
asg94
I9
sa(dp499
g17
(lp500
S'k'
asg18
S'Y'
sS'.thisRepN'
p501
I3
sg20
S'Y'
sg32
g33
sS'.thisTrialN'
p502
I9
sS'.thisN'
p503
I54
sS'.thisIndex'
p504
I7
sg15
(lp505
S'k'
asg30
g31
sg16
S'Y'
sg14
I2
sg19
(lp506
S'space'
p507
asg94
I7
sa(dp508
g17
(lp509
S'd'
asg18
S'Y'
sS'.thisRepN'
p510
I3
sg20
S'Y'
sg32
g33
sS'.thisTrialN'
p511
I10
sS'.thisN'
p512
I55
sS'.thisIndex'
p513
I12
sg15
(lp514
S'd'
asg30
g31
sg16
S'Y'
sg14
I2
sg19
(lp515
S'space'
p516
asg94
I12
sa(dp517
g17
(lp518
S'd'
asg18
S'N'
sS'.thisRepN'
p519
I3
sg20
S'Y'
sg32
g33
sS'.thisTrialN'
p520
I11
sS'.thisN'
p521
I56
sS'.thisIndex'
p522
I2
sg15
(lp523
S'd'
asg30
g31
sg16
S'Y'
sg14
I2
sg19
Nsg94
I2
sa(dp524
g17
(lp525
S'k'
asg18
S'N'
sS'.thisRepN'
p526
I3
sg20
S'Y'
sg32
g33
sS'.thisTrialN'
p527
I12
sS'.thisN'
p528
I57
sS'.thisIndex'
p529
I14
sg15
(lp530
S'k'
asg30
g31
sg16
S'Y'
sg14
I2
sg19
Nsg94
I14
sa(dp531
g17
(lp532
S'd'
asg18
S'N'
sS'.thisRepN'
p533
I3
sg20
S'Y'
sg32
g33
sS'.thisTrialN'
p534
I13
sS'.thisN'
p535
I58
sS'.thisIndex'
p536
I10
sg15
(lp537
S'd'
asg30
g31
sg16
S'Y'
sg14
I2
sg19
Nsg94
I10
sa(dp538
g17
(lp539
S'k'
asg18
S'N'
sS'.thisRepN'
p540
I3
sg20
S'Y'
sg32
g33
sS'.thisTrialN'
p541
I14
sS'.thisN'
p542
I59
sS'.thisIndex'
p543
I12
sg15
(lp544
S'k'
asg30
g31
sg16
S'Y'
sg14
I2
sg19
Nsg94
I12
sa(dp545
g17
(lp546
S'k'
asg18
S'Y'
sS'.thisRepN'
p547
I4
sg20
S'N'
sg32
g33
sS'.thisTrialN'
p548
I0
sS'.thisN'
p549
I60
sS'.thisIndex'
p550
I5
sg15
(lp551
S'k'
asg30
g31
sg16
S'Y'
sg14
I2
sg19
Nsg94
I5
sa(dp552
g17
(lp553
S'd'
asg18
S'N'
sS'.thisRepN'
p554
I4
sg20
S'Y'
sg32
g33
sS'.thisTrialN'
p555
I1
sS'.thisN'
p556
I61
sS'.thisIndex'
p557
I3
sg15
(lp558
S'd'
asg30
g31
sg16
S'Y'
sg14
I2
sg19
Nsg94
I3
sa(dp559
g17
(lp560
S'k'
asg18
S'Y'
sS'.thisRepN'
p561
I4
sg20
S'Y'
sg32
g33
sS'.thisTrialN'
p562
I2
sS'.thisN'
p563
I62
sS'.thisIndex'
p564
I7
sg15
(lp565
S'k'
asg30
g31
sg16
S'Y'
sg14
I2
sg19
(lp566
S'space'
p567
asg94
I7
sa(dp568
g17
(lp569
S'd'
asg18
S'N'
sS'.thisRepN'
p570
I4
sg20
S'Y'
sg32
g33
sS'.thisTrialN'
p571
I3
sS'.thisN'
p572
I63
sS'.thisIndex'
p573
I12
sg15
(lp574
S'd'
asg30
g31
sg16
S'Y'
sg14
I2
sg19
Nsg94
I12
sa(dp575
g17
(lp576
S'k'
asg18
S'N'
sS'.thisRepN'
p577
I4
sg20
S'Y'
sg32
g33
sS'.thisTrialN'
p578
I4
sS'.thisN'
p579
I64
sS'.thisIndex'
p580
I5
sg15
(lp581
S'k'
asg30
g31
sg16
S'Y'
sg14
I2
sg19
Nsg94
I5
sa(dp582
g17
(lp583
S'd'
asg18
S'Y'
sS'.thisRepN'
p584
I4
sg20
S'N'
sg32
g33
sS'.thisTrialN'
p585
I5
sS'.thisN'
p586
I65
sS'.thisIndex'
p587
I8
sg15
(lp588
S'd'
asg30
g31
sg16
S'Y'
sg14
I2
sg19
Nsg94
I8
sa(dp589
g17
(lp590
S'd'
asg18
S'N'
sS'.thisRepN'
p591
I4
sg20
S'Y'
sg32
g33
sS'.thisTrialN'
p592
I6
sS'.thisN'
p593
I66
sS'.thisIndex'
p594
I14
sg15
(lp595
S'd'
asg30
g31
sg16
S'Y'
sg14
I2
sg19
Nsg94
I14
sa(dp596
g17
(lp597
S'k'
asg18
S'N'
sS'.thisRepN'
p598
I4
sg20
S'Y'
sg32
g33
sS'.thisTrialN'
p599
I7
sS'.thisN'
p600
I67
sS'.thisIndex'
p601
I6
sg15
(lp602
S'k'
asg30
g31
sg16
S'Y'
sg14
I2
sg19
Nsg94
I6
sa(dp603
g17
(lp604
S'k'
asg18
S'N'
sS'.thisRepN'
p605
I4
sg20
S'Y'
sg32
g33
sS'.thisTrialN'
p606
I8
sS'.thisN'
p607
I68
sS'.thisIndex'
p608
I10
sg15
(lp609
S'k'
asg30
g31
sg16
S'Y'
sg14
I2
sg19
Nsg94
I10
sa(dp610
g17
(lp611
S'd'
asg18
S'N'
sS'.thisRepN'
p612
I4
sg20
S'Y'
sg32
g33
sS'.thisTrialN'
p613
I9
sS'.thisN'
p614
I69
sS'.thisIndex'
p615
I1
sg15
(lp616
S'd'
asg30
g31
sg16
S'Y'
sg14
I2
sg19
Nsg94
I1
sa(dp617
g17
(lp618
S'd'
asg18
S'N'
sS'.thisRepN'
p619
I4
sg20
S'Y'
sg32
g33
sS'.thisTrialN'
p620
I10
sS'.thisN'
p621
I70
sS'.thisIndex'
p622
I10
sg15
(lp623
S'd'
asg30
g31
sg16
S'Y'
sg14
I2
sg19
Nsg94
I10
sa(dp624
g17
(lp625
S'd'
asg18
S'N'
sS'.thisRepN'
p626
I4
sg20
S'Y'
sg32
g33
sS'.thisTrialN'
p627
I11
sS'.thisN'
p628
I71
sS'.thisIndex'
p629
I7
sg15
(lp630
S'd'
asg30
g31
sg16
S'Y'
sg14
I2
sg19
Nsg94
I7
sa(dp631
g17
(lp632
S'k'
asg18
S'N'
sS'.thisRepN'
p633
I4
sg20
S'Y'
sg32
g33
sS'.thisTrialN'
p634
I12
sS'.thisN'
p635
I72
sS'.thisIndex'
p636
I13
sg15
(lp637
S'k'
asg30
g31
sg16
S'Y'
sg14
I2
sg19
Nsg94
I13
sa(dp638
g17
(lp639
S'k'
asg18
S'Y'
sS'.thisRepN'
p640
I4
sg20
S'N'
sg32
g33
sS'.thisTrialN'
p641
I13
sS'.thisN'
p642
I73
sS'.thisIndex'
p643
I1
sg15
(lp644
S'k'
asg30
g31
sg16
S'Y'
sg14
I2
sg19
Nsg94
I1
sa(dp645
g17
(lp646
S'd'
asg18
S'Y'
sS'.thisRepN'
p647
I4
sg20
S'N'
sg32
g33
sS'.thisTrialN'
p648
I14
sS'.thisN'
p649
I74
sS'.thisIndex'
p650
I6
sg15
(lp651
S'd'
asg30
g31
sg16
S'Y'
sg14
I2
sg19
Nsg94
I6
sa(dp652
g17
(lp653
S'd'
asg18
S'Y'
sS'.thisRepN'
p654
I5
sg20
S'N'
sg32
g33
sS'.thisTrialN'
p655
I0
sS'.thisN'
p656
I75
sS'.thisIndex'
p657
I9
sg15
(lp658
S'd'
asg30
g31
sg16
S'Y'
sg14
I2
sg19
Nsg94
I9
sa(dp659
g17
(lp660
S'd'
asg18
S'Y'
sS'.thisRepN'
p661
I5
sg20
S'N'
sg32
g33
sS'.thisTrialN'
p662
I1
sS'.thisN'
p663
I76
sS'.thisIndex'
p664
I11
sg15
(lp665
S'd'
asg30
g31
sg16
S'Y'
sg14
I2
sg19
Nsg94
I11
sa(dp666
g17
(lp667
S'k'
asg18
S'Y'
sS'.thisRepN'
p668
I5
sg20
S'Y'
sg32
g33
sS'.thisTrialN'
p669
I2
sS'.thisN'
p670
I77
sS'.thisIndex'
p671
I5
sg15
(lp672
S'k'
asg30
g31
sg16
S'Y'
sg14
I2
sg19
(lp673
S'space'
p674
asg94
I5
sa(dp675
g17
(lp676
S'k'
asg18
S'N'
sS'.thisRepN'
p677
I5
sg20
S'Y'
sg32
g33
sS'.thisTrialN'
p678
I3
sS'.thisN'
p679
I78
sS'.thisIndex'
p680
I8
sg15
(lp681
S'k'
asg30
g31
sg16
S'Y'
sg14
I2
sg19
Nsg94
I8
sa(dp682
g17
(lp683
S'k'
asg18
S'N'
sS'.thisRepN'
p684
I5
sg20
S'Y'
sg32
g33
sS'.thisTrialN'
p685
I4
sS'.thisN'
p686
I79
sS'.thisIndex'
p687
I13
sg15
(lp688
S'k'
asg30
g31
sg16
S'Y'
sg14
I2
sg19
Nsg94
I13
sa(dp689
g17
(lp690
S'k'
asg18
S'Y'
sS'.thisRepN'
p691
I5
sg20
S'Y'
sg32
g33
sS'.thisTrialN'
p692
I5
sS'.thisN'
p693
I80
sS'.thisIndex'
p694
I4
sg15
(lp695
S'k'
asg30
g31
sg16
S'Y'
sg14
I2
sg19
(lp696
S'space'
p697
asg94
I4
sa(dp698
g17
(lp699
S'k'
asg18
S'N'
sS'.thisRepN'
p700
I5
sg20
S'Y'
sg32
g33
sS'.thisTrialN'
p701
I6
sS'.thisN'
p702
I81
sS'.thisIndex'
p703
I2
sg15
(lp704
S'k'
asg30
g31
sg16
S'Y'
sg14
I2
sg19
Nsg94
I2
sa(dp705
g17
(lp706
S'k'
asg18
S'Y'
sS'.thisRepN'
p707
I5
sg20
S'N'
sg32
g33
sS'.thisTrialN'
p708
I7
sS'.thisN'
p709
I82
sS'.thisIndex'
p710
I11
sg15
(lp711
S'k'
asg30
g31
sg16
S'Y'
sg14
I2
sg19
Nsg94
I11
sa(dp712
g17
(lp713
S'd'
asg18
S'N'
sS'.thisRepN'
p714
I5
sg20
S'Y'
sg32
g33
sS'.thisTrialN'
p715
I8
sS'.thisN'
p716
I83
sS'.thisIndex'
p717
I6
sg15
(lp718
S'd'
asg30
g31
sg16
S'Y'
sg14
I2
sg19
Nsg94
I6
sa(dp719
g17
(lp720
S'd'
asg18
S'N'
sS'.thisRepN'
p721
I5
sg20
S'Y'
sg32
g33
sS'.thisTrialN'
p722
I9
sS'.thisN'
p723
I84
sS'.thisIndex'
p724
I1
sg15
(lp725
S'd'
asg30
g31
sg16
S'Y'
sg14
I2
sg19
Nsg94
I1
sa(dp726
g17
(lp727
S'd'
asg18
S'Y'
sS'.thisRepN'
p728
I5
sg20
S'Y'
sg32
g33
sS'.thisTrialN'
p729
I10
sS'.thisN'
p730
I85
sS'.thisIndex'
p731
I13
sg15
(lp732
S'd'
asg30
g31
sg16
S'Y'
sg14
I2
sg19
(lp733
S'space'
p734
asg94
I13
sa(dp735
g17
(lp736
S'k'
asg18
S'N'
sS'.thisRepN'
p737
I5
sg20
S'Y'
sg32
g33
sS'.thisTrialN'
p738
I11
sS'.thisN'
p739
I86
sS'.thisIndex'
p740
I10
sg15
(lp741
S'k'
asg30
g31
sg16
S'Y'
sg14
I2
sg19
Nsg94
I10
sa(dp742
g17
(lp743
S'k'
asg18
S'Y'
sS'.thisRepN'
p744
I5
sg20
S'Y'
sg32
g33
sS'.thisTrialN'
p745
I12
sS'.thisN'
p746
I87
sS'.thisIndex'
p747
I2
sg15
(lp748
S'k'
asg30
g31
sg16
S'Y'
sg14
I2
sg19
(lp749
S'space'
p750
asg94
I2
sa(dp751
g17
(lp752
S'd'
asg18
S'Y'
sS'.thisRepN'
p753
I5
sg20
S'N'
sg32
g33
sS'.thisTrialN'
p754
I13
sS'.thisN'
p755
I88
sS'.thisIndex'
p756
I12
sg15
(lp757
S'd'
asg30
g31
sg16
S'Y'
sg14
I2
sg19
Nsg94
I12
sa(dp758
g17
(lp759
S'k'
asg18
S'Y'
sS'.thisRepN'
p760
I5
sg20
S'N'
sg32
g33
sS'.thisTrialN'
p761
I14
sS'.thisN'
p762
I89
sS'.thisIndex'
p763
I2
sg15
(lp764
S'k'
asg30
g31
sg16
S'Y'
sg14
I2
sg19
Nsg94
I2
sa(dp765
g17
(lp766
S'd'
asg18
S'N'
sS'.thisRepN'
p767
I6
sg20
S'Y'
sg32
g33
sS'.thisTrialN'
p768
I0
sS'.thisN'
p769
I90
sS'.thisIndex'
p770
I2
sg15
(lp771
S'd'
asg30
g31
sg16
S'Y'
sg14
I2
sg19
Nsg94
I2
sa(dp772
g17
(lp773
S'd'
asg18
S'Y'
sS'.thisRepN'
p774
I6
sg20
S'N'
sg32
g33
sS'.thisTrialN'
p775
I1
sS'.thisN'
p776
I91
sS'.thisIndex'
p777
I10
sg15
(lp778
S'd'
asg30
g31
sg16
S'Y'
sg14
I2
sg19
Nsg94
I10
sa(dp779
g17
(lp780
S'k'
asg18
S'N'
sS'.thisRepN'
p781
I6
sg20
S'N'
sg32
g33
sS'.thisTrialN'
p782
I2
sS'.thisN'
p783
I92
sS'.thisIndex'
p784
I6
sg15
(lp785
S'k'
asg30
g31
sg16
S'Y'
sg14
I2
sg19
(lp786
S'space'
p787
asg94
I6
sa(dp788
g17
(lp789
S'k'
asg18
S'N'
sS'.thisRepN'
p790
I6
sg20
S'Y'
sg32
g33
sS'.thisTrialN'
p791
I3
sS'.thisN'
p792
I93
sS'.thisIndex'
p793
I1
sg15
(lp794
S'k'
asg30
g31
sg16
S'Y'
sg14
I2
sg19
Nsg94
I1
sa(dp795
g17
(lp796
S'k'
asg18
S'Y'
sS'.thisRepN'
p797
I6
sg20
S'N'
sg32
g33
sS'.thisTrialN'
p798
I4
sS'.thisN'
p799
I94
sS'.thisIndex'
p800
I9
sg15
(lp801
S'k'
asg30
g31
sg16
S'Y'
sg14
I2
sg19
Nsg94
I9
sa(dp802
g17
(lp803
S'k'
asg18
S'N'
sS'.thisRepN'
p804
I6
sg20
S'Y'
sg32
g33
sS'.thisTrialN'
p805
I5
sS'.thisN'
p806
I95
sS'.thisIndex'
p807
I1
sg15
(lp808
S'k'
asg30
g31
sg16
S'Y'
sg14
I2
sg19
Nsg94
I1
sa(dp809
g17
(lp810
S'k'
asg18
S'N'
sS'.thisRepN'
p811
I6
sg20
S'Y'
sg32
g33
sS'.thisTrialN'
p812
I6
sS'.thisN'
p813
I96
sS'.thisIndex'
p814
I1
sg15
(lp815
S'k'
asg30
g31
sg16
S'Y'
sg14
I2
sg19
Nsg94
I1
sa(dp816
g17
(lp817
S'd'
asg18
S'N'
sS'.thisRepN'
p818
I6
sg20
S'Y'
sg32
g33
sS'.thisTrialN'
p819
I7
sS'.thisN'
p820
I97
sS'.thisIndex'
p821
I14
sg15
(lp822
S'd'
asg30
g31
sg16
S'Y'
sg14
I2
sg19
Nsg94
I14
sa(dp823
g17
(lp824
S'd'
asg18
S'N'
sS'.thisRepN'
p825
I6
sg20
S'Y'
sg32
g33
sS'.thisTrialN'
p826
I8
sS'.thisN'
p827
I98
sS'.thisIndex'
p828
I11
sg15
(lp829
S'd'
asg30
g31
sg16
S'Y'
sg14
I2
sg19
Nsg94
I11
sa(dp830
g17
(lp831
S'd'
asg18
S'Y'
sg22
I35
sS'.thisN'
p832
I99
sg20
S'N'
sg32
g33
sS'.thisTrialN'
p833
I9
sS'.thisRepN'
p834
I6
sg21
I50
sS'.thisIndex'
p835
I10
sg23
I21
sg15
(lp836
S'd'
asg30
g31
sg16
S'Y'
sg14
I2
sg19
Nsg94
I10
sa(dp837
g17
(lp838
S'k'
asg94
I5
sS'.thisRepN'
p839
I6
sg30
g31
sg32
g33
sS'.thisTrialN'
p840
I10
sS'.thisN'
p841
I100
sS'.thisIndex'
p842
I5
sg15
(lp843
S'k'
asg16
S'Y'
sg14
I3
sa(dp844
g17
(lp845
S'd'
asg94
I14
sS'.thisRepN'
p846
I6
sg30
g31
sg32
g33
sS'.thisTrialN'
p847
I11
sS'.thisN'
p848
I101
sS'.thisIndex'
p849
I14
sg15
(lp850
S'd'
asg16
S'Y'
sg14
I3
sa(dp851
g17
(lp852
S'd'
asg18
S'N'
sS'.thisRepN'
p853
I6
sg20
S'Y'
sg32
g33
sS'.thisTrialN'
p854
I12
sS'.thisN'
p855
I102
sS'.thisIndex'
p856
I3
sg15
(lp857
S'd'
asg30
g31
sg16
S'Y'
sg14
I3
sg19
Nsg94
I3
sa(dp858
g17
(lp859
S'd'
asg18
S'Y'
sS'.thisRepN'
p860
I6
sg20
S'Y'
sg32
g33
sS'.thisTrialN'
p861
I13
sS'.thisN'
p862
I103
sS'.thisIndex'
p863
I14
sg15
(lp864
S'd'
asg30
g31
sg16
S'Y'
sg14
I3
sg19
(lp865
S'space'
p866
asg94
I14
sa(dp867
g17
(lp868
S'd'
asg18
S'Y'
sS'.thisRepN'
p869
I6
sg20
S'N'
sg32
g33
sS'.thisTrialN'
p870
I14
sS'.thisN'
p871
I104
sS'.thisIndex'
p872
I4
sg15
(lp873
S'k'
asg30
g31
sg16
S'N'
sg14
I3
sg19
Nsg94
I4
sa(dp874
g17
(lp875
S'd'
asg18
S'Y'
sS'.thisRepN'
p876
I7
sg20
S'N'
sg32
g33
sS'.thisTrialN'
p877
I0
sS'.thisN'
p878
I105
sS'.thisIndex'
p879
I7
sg15
(lp880
S'd'
asg30
g31
sg16
S'Y'
sg14
I3
sg19
Nsg94
I7
sa(dp881
g17
(lp882
S'd'
asg18
S'N'
sS'.thisRepN'
p883
I7
sg20
S'Y'
sg32
g33
sS'.thisTrialN'
p884
I1
sS'.thisN'
p885
I106
sS'.thisIndex'
p886
I9
sg15
(lp887
S'd'
asg30
g31
sg16
S'Y'
sg14
I3
sg19
Nsg94
I9
sa(dp888
g17
(lp889
S'd'
asg18
S'Y'
sS'.thisRepN'
p890
I7
sg20
S'N'
sg32
g33
sS'.thisTrialN'
p891
I2
sS'.thisN'
p892
I107
sS'.thisIndex'
p893
I3
sg15
(lp894
S'd'
asg30
g31
sg16
S'Y'
sg14
I3
sg19
Nsg94
I3
sa(dp895
g17
(lp896
S'd'
asg18
S'Y'
sS'.thisRepN'
p897
I7
sg20
S'Y'
sg32
g33
sS'.thisTrialN'
p898
I3
sS'.thisN'
p899
I108
sS'.thisIndex'
p900
I2
sg15
(lp901
S'd'
asg30
g31
sg16
S'Y'
sg14
I3
sg19
(lp902
S'space'
p903
asg94
I2
sa(dp904
g17
(lp905
S'k'
asg18
S'N'
sS'.thisRepN'
p906
I7
sg20
S'Y'
sg32
g33
sS'.thisTrialN'
p907
I4
sS'.thisN'
p908
I109
sS'.thisIndex'
p909
I11
sg15
(lp910
S'k'
asg30
g31
sg16
S'Y'
sg14
I3
sg19
Nsg94
I11
sa(dp911
g17
(lp912
S'd'
asg18
S'Y'
sS'.thisRepN'
p913
I7
sg20
S'N'
sg32
g33
sS'.thisTrialN'
p914
I5
sS'.thisN'
p915
I110
sS'.thisIndex'
p916
I2
sg15
(lp917
S'd'
asg30
g31
sg16
S'Y'
sg14
I3
sg19
Nsg94
I2
sa(dp918
g17
(lp919
S'k'
asg18
S'Y'
sS'.thisRepN'
p920
I7
sg20
S'Y'
sg32
g33
sS'.thisTrialN'
p921
I6
sS'.thisN'
p922
I111
sS'.thisIndex'
p923
I4
sg15
(lp924
S'k'
asg30
g31
sg16
S'Y'
sg14
I3
sg19
(lp925
S'space'
p926
asg94
I4
sa(dp927
g17
(lp928
S'k'
asg18
S'Y'
sS'.thisRepN'
p929
I7
sg20
S'N'
sg32
g33
sS'.thisTrialN'
p930
I7
sS'.thisN'
p931
I112
sS'.thisIndex'
p932
I13
sg15
(lp933
S'k'
asg30
g31
sg16
S'Y'
sg14
I3
sg19
Nsg94
I13
sa(dp934
g17
(lp935
S'd'
asg18
S'N'
sS'.thisRepN'
p936
I7
sg20
S'Y'
sg32
g33
sS'.thisTrialN'
p937
I8
sS'.thisN'
p938
I113
sS'.thisIndex'
p939
I12
sg15
(lp940
S'd'
asg30
g31
sg16
S'Y'
sg14
I3
sg19
Nsg94
I12
sa(dp941
g17
(lp942
S'd'
asg18
S'N'
sS'.thisRepN'
p943
I7
sg20
S'Y'
sg32
g33
sS'.thisTrialN'
p944
I9
sS'.thisN'
p945
I114
sS'.thisIndex'
p946
I9
sg15
(lp947
S'd'
asg30
g31
sg16
S'Y'
sg14
I3
sg19
Nsg94
I9
sa(dp948
g17
(lp949
S'd'
asg18
S'N'
sS'.thisRepN'
p950
I7
sg20
S'Y'
sg32
g33
sS'.thisTrialN'
p951
I10
sS'.thisN'
p952
I115
sS'.thisIndex'
p953
I1
sg15
(lp954
S'd'
asg30
g31
sg16
S'Y'
sg14
I3
sg19
Nsg94
I1
sa(dp955
g17
(lp956
S'k'
asg18
S'Y'
sS'.thisRepN'
p957
I7
sg20
S'Y'
sg32
g33
sS'.thisTrialN'
p958
I11
sS'.thisN'
p959
I116
sS'.thisIndex'
p960
I0
sg15
(lp961
S'k'
asg30
g31
sg16
S'Y'
sg14
I3
sg19
(lp962
S'space'
p963
asg94
I0
sa(dp964
g17
(lp965
S'd'
asg18
S'N'
sS'.thisRepN'
p966
I7
sg20
S'Y'
sg32
g33
sS'.thisTrialN'
p967
I12
sS'.thisN'
p968
I117
sS'.thisIndex'
p969
I9
sg15
(lp970
S'd'
asg30
g31
sg16
S'Y'
sg14
I3
sg19
Nsg94
I9
sa(dp971
g17
(lp972
S'k'
asg18
S'N'
sS'.thisRepN'
p973
I7
sg20
S'Y'
sg32
g33
sS'.thisTrialN'
p974
I13
sS'.thisN'
p975
I118
sS'.thisIndex'
p976
I2
sg15
(lp977
S'k'
asg30
g31
sg16
S'Y'
sg14
I3
sg19
Nsg94
I2
sa(dp978
g17
(lp979
S'd'
asg18
S'Y'
sS'.thisRepN'
p980
I7
sg20
S'N'
sg32
g33
sS'.thisTrialN'
p981
I14
sS'.thisN'
p982
I119
sS'.thisIndex'
p983
I0
sg15
(lp984
S'd'
asg30
g31
sg16
S'Y'
sg14
I3
sg19
Nsg94
I0
sa(dp985
g17
(lp986
S'k'
asg18
S'N'
sS'.thisRepN'
p987
I8
sg20
S'Y'
sg32
g33
sS'.thisTrialN'
p988
I0
sS'.thisN'
p989
I120
sS'.thisIndex'
p990
I12
sg15
(lp991
S'k'
asg30
g31
sg16
S'Y'
sg14
I3
sg19
Nsg94
I12
sa(dp992
g17
(lp993
S'k'
asg18
S'Y'
sS'.thisRepN'
p994
I8
sg20
S'Y'
sg32
g33
sS'.thisTrialN'
p995
I1
sS'.thisN'
p996
I121
sS'.thisIndex'
p997
I7
sg15
(lp998
S'k'
asg30
g31
sg16
S'Y'
sg14
I3
sg19
(lp999
S'space'
p1000
asg94
I7
sa(dp1001
g17
(lp1002
S'k'
asg18
S'Y'
sS'.thisRepN'
p1003
I8
sg20
S'N'
sg32
g33
sS'.thisTrialN'
p1004
I2
sS'.thisN'
p1005
I122
sS'.thisIndex'
p1006
I1
sg15
(lp1007
S'k'
asg30
g31
sg16
S'Y'
sg14
I3
sg19
Nsg94
I1
sa(dp1008
g17
(lp1009
S'd'
asg18
S'N'
sS'.thisRepN'
p1010
I8
sg20
S'Y'
sg32
g33
sS'.thisTrialN'
p1011
I3
sS'.thisN'
p1012
I123
sS'.thisIndex'
p1013
I13
sg15
(lp1014
S'd'
asg30
g31
sg16
S'Y'
sg14
I3
sg19
Nsg94
I13
sa(dp1015
g17
(lp1016
S'k'
asg18
S'Y'
sS'.thisRepN'
p1017
I8
sg20
S'Y'
sg32
g33
sS'.thisTrialN'
p1018
I4
sS'.thisN'
p1019
I124
sS'.thisIndex'
p1020
I10
sg15
(lp1021
S'k'
asg30
g31
sg16
S'Y'
sg14
I3
sg19
(lp1022
S'space'
p1023
asg94
I10
sa(dp1024
g17
(lp1025
S'd'
asg18
S'N'
sS'.thisRepN'
p1026
I8
sg20
S'Y'
sg32
g33
sS'.thisTrialN'
p1027
I5
sS'.thisN'
p1028
I125
sS'.thisIndex'
p1029
I8
sg15
(lp1030
S'd'
asg30
g31
sg16
S'Y'
sg14
I3
sg19
Nsg94
I8
sa(dp1031
g17
(lp1032
S'k'
asg18
S'Y'
sS'.thisRepN'
p1033
I8
sg20
S'N'
sg32
g33
sS'.thisTrialN'
p1034
I6
sS'.thisN'
p1035
I126
sS'.thisIndex'
p1036
I4
sg15
(lp1037
S'k'
asg30
g31
sg16
S'Y'
sg14
I3
sg19
Nsg94
I4
sa(dp1038
g17
(lp1039
S'd'
asg18
S'Y'
sS'.thisRepN'
p1040
I8
sg20
S'Y'
sg32
g33
sS'.thisTrialN'
p1041
I7
sS'.thisN'
p1042
I127
sS'.thisIndex'
p1043
I13
sg15
(lp1044
S'd'
asg30
g31
sg16
S'Y'
sg14
I3
sg19
(lp1045
S'space'
p1046
asg94
I13
sa(dp1047
g17
(lp1048
S'd'
asg18
S'Y'
sS'.thisRepN'
p1049
I8
sg20
S'Y'
sg32
g33
sS'.thisTrialN'
p1050
I8
sS'.thisN'
p1051
I128
sS'.thisIndex'
p1052
I13
sg15
(lp1053
S'd'
asg30
g31
sg16
S'Y'
sg14
I3
sg19
(lp1054
S'space'
p1055
asg94
I13
sa(dp1056
g17
(lp1057
S'k'
asg18
S'Y'
sS'.thisRepN'
p1058
I8
sg20
S'N'
sg32
g33
sS'.thisTrialN'
p1059
I9
sS'.thisN'
p1060
I129
sS'.thisIndex'
p1061
I13
sg15
(lp1062
S'k'
asg30
g31
sg16
S'Y'
sg14
I3
sg19
Nsg94
I13
sa(dp1063
g17
(lp1064
S'd'
asg18
S'Y'
sS'.thisRepN'
p1065
I8
sg20
S'N'
sg32
g33
sS'.thisTrialN'
p1066
I10
sS'.thisN'
p1067
I130
sS'.thisIndex'
p1068
I4
sg15
(lp1069
S'd'
asg30
g31
sg16
S'Y'
sg14
I3
sg19
Nsg94
I4
sa(dp1070
g17
(lp1071
S'k'
asg18
S'N'
sS'.thisRepN'
p1072
I8
sg20
S'Y'
sg32
g33
sS'.thisTrialN'
p1073
I11
sS'.thisN'
p1074
I131
sS'.thisIndex'
p1075
I1
sg15
(lp1076
S'k'
asg30
g31
sg16
S'Y'
sg14
I3
sg19
Nsg94
I1
sa(dp1077
g17
(lp1078
S'k'
asg18
S'N'
sS'.thisRepN'
p1079
I8
sg20
S'Y'
sg32
g33
sS'.thisTrialN'
p1080
I12
sS'.thisN'
p1081
I132
sS'.thisIndex'
p1082
I10
sg15
(lp1083
S'k'
asg30
g31
sg16
S'Y'
sg14
I3
sg19
Nsg94
I10
sa(dp1084
g17
(lp1085
S'k'
asg18
S'N'
sS'.thisRepN'
p1086
I8
sg20
S'Y'
sg32
g33
sS'.thisTrialN'
p1087
I13
sS'.thisN'
p1088
I133
sS'.thisIndex'
p1089
I8
sg15
(lp1090
S'k'
asg30
g31
sg16
S'Y'
sg14
I3
sg19
Nsg94
I8
sa(dp1091
g17
(lp1092
S'k'
asg18
S'Y'
sS'.thisRepN'
p1093
I8
sg20
S'N'
sg32
g33
sS'.thisTrialN'
p1094
I14
sS'.thisN'
p1095
I134
sS'.thisIndex'
p1096
I13
sg15
(lp1097
S'k'
asg30
g31
sg16
S'Y'
sg14
I3
sg19
Nsg94
I13
sa(dp1098
g17
(lp1099
S'd'
asg18
S'Y'
sS'.thisRepN'
p1100
I9
sg20
S'Y'
sg32
g33
sS'.thisTrialN'
p1101
I0
sS'.thisN'
p1102
I135
sS'.thisIndex'
p1103
I0
sg15
(lp1104
S'd'
asg30
g31
sg16
S'Y'
sg14
I3
sg19
(lp1105
S'space'
p1106
asg94
I0
sa(dp1107
g17
(lp1108
S'd'
asg18
S'N'
sS'.thisRepN'
p1109
I9
sg20
S'Y'
sg32
g33
sS'.thisTrialN'
p1110
I1
sS'.thisN'
p1111
I136
sS'.thisIndex'
p1112
I12
sg15
(lp1113
S'd'
asg30
g31
sg16
S'Y'
sg14
I3
sg19
Nsg94
I12
sa(dp1114
g17
(lp1115
S'k'
asg18
S'Y'
sS'.thisRepN'
p1116
I9
sg20
S'N'
sg32
g33
sS'.thisTrialN'
p1117
I2
sS'.thisN'
p1118
I137
sS'.thisIndex'
p1119
I0
sg15
(lp1120
S'k'
asg30
g31
sg16
S'Y'
sg14
I3
sg19
Nsg94
I0
sa(dp1121
g17
(lp1122
S'd'
asg18
S'Y'
sS'.thisRepN'
p1123
I9
sg20
S'Y'
sg32
g33
sS'.thisTrialN'
p1124
I3
sS'.thisN'
p1125
I138
sS'.thisIndex'
p1126
I0
sg15
(lp1127
S'd'
asg30
g31
sg16
S'Y'
sg14
I3
sg19
(lp1128
S'space'
p1129
asg94
I0
sa(dp1130
g17
(lp1131
S'k'
asg18
S'Y'
sS'.thisRepN'
p1132
I9
sg20
S'N'
sg32
g33
sS'.thisTrialN'
p1133
I4
sS'.thisN'
p1134
I139
sS'.thisIndex'
p1135
I8
sg15
(lp1136
S'k'
asg30
g31
sg16
S'Y'
sg14
I3
sg19
Nsg94
I8
sa(dp1137
g17
(lp1138
S'd'
asg18
S'Y'
sS'.thisRepN'
p1139
I9
sg20
S'Y'
sg32
g33
sS'.thisTrialN'
p1140
I5
sS'.thisN'
p1141
I140
sS'.thisIndex'
p1142
I0
sg15
(lp1143
S'd'
asg30
g31
sg16
S'Y'
sg14
I3
sg19
(lp1144
S'space'
p1145
asg94
I0
sa(dp1146
g17
(lp1147
S'k'
asg18
S'N'
sS'.thisRepN'
p1148
I9
sg20
S'Y'
sg32
g33
sS'.thisTrialN'
p1149
I6
sS'.thisN'
p1150
I141
sS'.thisIndex'
p1151
I8
sg15
(lp1152
S'k'
asg30
g31
sg16
S'Y'
sg14
I3
sg19
Nsg94
I8
sa(dp1153
g17
(lp1154
S'k'
asg18
S'N'
sS'.thisRepN'
p1155
I9
sg20
S'Y'
sg32
g33
sS'.thisTrialN'
p1156
I7
sS'.thisN'
p1157
I142
sS'.thisIndex'
p1158
I0
sg15
(lp1159
S'k'
asg30
g31
sg16
S'Y'
sg14
I3
sg19
Nsg94
I0
sa(dp1160
g17
(lp1161
S'k'
asg18
S'Y'
sS'.thisRepN'
p1162
I9
sg20
S'N'
sg32
g33
sS'.thisTrialN'
p1163
I8
sS'.thisN'
p1164
I143
sS'.thisIndex'
p1165
I10
sg15
(lp1166
S'k'
asg30
g31
sg16
S'Y'
sg14
I3
sg19
Nsg94
I10
sa(dp1167
g17
(lp1168
S'd'
asg18
S'N'
sS'.thisRepN'
p1169
I9
sg20
S'Y'
sg32
g33
sS'.thisTrialN'
p1170
I9
sS'.thisN'
p1171
I144
sS'.thisIndex'
p1172
I4
sg15
(lp1173
S'd'
asg30
g31
sg16
S'Y'
sg14
I3
sg19
Nsg94
I4
sa(dp1174
g17
(lp1175
S'k'
asg18
S'N'
sS'.thisRepN'
p1176
I9
sg20
S'Y'
sg32
g33
sS'.thisTrialN'
p1177
I10
sS'.thisN'
p1178
I145
sS'.thisIndex'
p1179
I7
sg15
(lp1180
S'k'
asg30
g31
sg16
S'Y'
sg14
I3
sg19
Nsg94
I7
sa(dp1181
g17
(lp1182
S'k'
asg18
S'N'
sS'.thisRepN'
p1183
I9
sg20
S'Y'
sg32
g33
sS'.thisTrialN'
p1184
I11
sS'.thisN'
p1185
I146
sS'.thisIndex'
p1186
I1
sg15
(lp1187
S'k'
asg30
g31
sg16
S'Y'
sg14
I3
sg19
Nsg94
I1
sa(dp1188
g17
(lp1189
S'k'
asg18
S'N'
sS'.thisRepN'
p1190
I9
sg20
S'Y'
sg32
g33
sS'.thisTrialN'
p1191
I12
sS'.thisN'
p1192
I147
sS'.thisIndex'
p1193
I13
sg15
(lp1194
S'k'
asg30
g31
sg16
S'Y'
sg14
I3
sg19
Nsg94
I13
sa(dp1195
g17
(lp1196
S'k'
asg18
S'N'
sS'.thisRepN'
p1197
I9
sg20
S'Y'
sg32
g33
sS'.thisTrialN'
p1198
I13
sS'.thisN'
p1199
I148
sS'.thisIndex'
p1200
I5
sg15
(lp1201
S'k'
asg30
g31
sg16
S'Y'
sg14
I3
sg19
Nsg94
I5
sa(dp1202
g17
(lp1203
S'd'
asg18
S'N'
sg22
I34
sS'.thisN'
p1204
I149
sg20
S'Y'
sg32
g33
sS'.thisTrialN'
p1205
I14
sS'.thisRepN'
p1206
I9
sg21
I49
sS'.thisIndex'
p1207
I7
sg23
I25
sg15
(lp1208
S'd'
asg30
g31
sg16
S'Y'
sg14
I3
sg19
Nsg94
I7
sa(dp1209
g17
(lp1210
S'k'
asg94
I5
sS'.thisRepN'
p1211
I10
sg30
g31
sg32
g33
sS'.thisTrialN'
p1212
I0
sS'.thisN'
p1213
I150
sS'.thisIndex'
p1214
I5
sg15
(lp1215
S'k'
asg16
S'Y'
sg14
I4
sa(dp1216
g17
(lp1217
S'k'
asg94
I3
sS'.thisRepN'
p1218
I10
sg30
g31
sg32
g33
sS'.thisTrialN'
p1219
I1
sS'.thisN'
p1220
I151
sS'.thisIndex'
p1221
I3
sg15
(lp1222
S'k'
asg16
S'Y'
sg14
I4
sa(dp1223
g17
(lp1224
S'k'
asg18
S'Y'
sS'.thisRepN'
p1225
I10
sg20
S'N'
sg32
g33
sS'.thisTrialN'
p1226
I2
sS'.thisN'
p1227
I152
sS'.thisIndex'
p1228
I11
sg15
(lp1229
S'k'
asg30
g31
sg16
S'Y'
sg14
I4
sg19
Nsg94
I11
sa(dp1230
g17
(lp1231
S'd'
asg18
S'N'
sS'.thisRepN'
p1232
I10
sg20
S'Y'
sg32
g33
sS'.thisTrialN'
p1233
I3
sS'.thisN'
p1234
I153
sS'.thisIndex'
p1235
I11
sg15
(lp1236
S'd'
asg30
g31
sg16
S'Y'
sg14
I4
sg19
Nsg94
I11
sa(dp1237
g17
(lp1238
S'k'
asg18
S'Y'
sS'.thisRepN'
p1239
I10
sg20
S'N'
sg32
g33
sS'.thisTrialN'
p1240
I4
sS'.thisN'
p1241
I154
sS'.thisIndex'
p1242
I2
sg15
(lp1243
S'k'
asg30
g31
sg16
S'Y'
sg14
I4
sg19
Nsg94
I2
sa(dp1244
g17
(lp1245
S'd'
asg18
S'N'
sS'.thisRepN'
p1246
I10
sg20
S'Y'
sg32
g33
sS'.thisTrialN'
p1247
I5
sS'.thisN'
p1248
I155
sS'.thisIndex'
p1249
I3
sg15
(lp1250
S'd'
asg30
g31
sg16
S'Y'
sg14
I4
sg19
Nsg94
I3
sa(dp1251
g17
(lp1252
S'd'
asg18
S'Y'
sS'.thisRepN'
p1253
I10
sg20
S'N'
sg32
g33
sS'.thisTrialN'
p1254
I6
sS'.thisN'
p1255
I156
sS'.thisIndex'
p1256
I9
sg15
(lp1257
S'd'
asg30
g31
sg16
S'Y'
sg14
I4
sg19
Nsg94
I9
sa(dp1258
g17
(lp1259
S'k'
asg18
S'N'
sS'.thisRepN'
p1260
I10
sg20
S'Y'
sg32
g33
sS'.thisTrialN'
p1261
I7
sS'.thisN'
p1262
I157
sS'.thisIndex'
p1263
I10
sg15
(lp1264
S'k'
asg30
g31
sg16
S'Y'
sg14
I4
sg19
Nsg94
I10
sa(dp1265
g17
(lp1266
S'k'
asg18
S'Y'
sS'.thisRepN'
p1267
I10
sg20
S'N'
sg32
g33
sS'.thisTrialN'
p1268
I8
sS'.thisN'
p1269
I158
sS'.thisIndex'
p1270
I6
sg15
(lp1271
S'k'
asg30
g31
sg16
S'Y'
sg14
I4
sg19
Nsg94
I6
sa(dp1272
g17
(lp1273
S'd'
asg18
S'Y'
sS'.thisRepN'
p1274
I10
sg20
S'Y'
sg32
g33
sS'.thisTrialN'
p1275
I9
sS'.thisN'
p1276
I159
sS'.thisIndex'
p1277
I9
sg15
(lp1278
S'd'
asg30
g31
sg16
S'Y'
sg14
I4
sg19
(lp1279
S'space'
p1280
asg94
I9
sa(dp1281
g17
(lp1282
S'k'
asg18
S'N'
sS'.thisRepN'
p1283
I10
sg20
S'Y'
sg32
g33
sS'.thisTrialN'
p1284
I10
sS'.thisN'
p1285
I160
sS'.thisIndex'
p1286
I9
sg15
(lp1287
S'k'
asg30
g31
sg16
S'Y'
sg14
I4
sg19
Nsg94
I9
sa(dp1288
g17
(lp1289
S'd'
asg18
S'Y'
sS'.thisRepN'
p1290
I10
sg20
S'N'
sg32
g33
sS'.thisTrialN'
p1291
I11
sS'.thisN'
p1292
I161
sS'.thisIndex'
p1293
I1
sg15
(lp1294
S'd'
asg30
g31
sg16
S'Y'
sg14
I4
sg19
Nsg94
I1
sa(dp1295
g17
(lp1296
S'k'
asg18
S'N'
sS'.thisRepN'
p1297
I10
sg20
S'N'
sg32
g33
sS'.thisTrialN'
p1298
I12
sS'.thisN'
p1299
I162
sS'.thisIndex'
p1300
I10
sg15
(lp1301
S'k'
asg30
g31
sg16
S'Y'
sg14
I4
sg19
(lp1302
S'space'
p1303
asg94
I10
sa(dp1304
g17
(lp1305
S'd'
asg18
S'Y'
sS'.thisRepN'
p1306
I10
sg20
S'N'
sg32
g33
sS'.thisTrialN'
p1307
I13
sS'.thisN'
p1308
I163
sS'.thisIndex'
p1309
I2
sg15
(lp1310
S'd'
asg30
g31
sg16
S'Y'
sg14
I4
sg19
Nsg94
I2
sa(dp1311
g17
(lp1312
S'k'
asg18
S'N'
sS'.thisRepN'
p1313
I10
sg20
S'Y'
sg32
g33
sS'.thisTrialN'
p1314
I14
sS'.thisN'
p1315
I164
sS'.thisIndex'
p1316
I6
sg15
(lp1317
S'k'
asg30
g31
sg16
S'Y'
sg14
I4
sg19
Nsg94
I6
sa(dp1318
g17
(lp1319
S'k'
asg18
S'N'
sS'.thisRepN'
p1320
I11
sg20
S'Y'
sg32
g33
sS'.thisTrialN'
p1321
I0
sS'.thisN'
p1322
I165
sS'.thisIndex'
p1323
I6
sg15
(lp1324
S'k'
asg30
g31
sg16
S'Y'
sg14
I4
sg19
Nsg94
I6
sa(dp1325
g17
(lp1326
S'd'
asg18
S'Y'
sS'.thisRepN'
p1327
I11
sg20
S'Y'
sg32
g33
sS'.thisTrialN'
p1328
I1
sS'.thisN'
p1329
I166
sS'.thisIndex'
p1330
I14
sg15
(lp1331
S'd'
asg30
g31
sg16
S'Y'
sg14
I4
sg19
(lp1332
S'space'
p1333
asg94
I14
sa(dp1334
g17
(lp1335
S'd'
asg18
S'N'
sS'.thisRepN'
p1336
I11
sg20
S'Y'
sg32
g33
sS'.thisTrialN'
p1337
I2
sS'.thisN'
p1338
I167
sS'.thisIndex'
p1339
I0
sg15
(lp1340
S'd'
asg30
g31
sg16
S'Y'
sg14
I4
sg19
Nsg94
I0
sa(dp1341
g17
(lp1342
S'k'
asg18
S'Y'
sS'.thisRepN'
p1343
I11
sg20
S'N'
sg32
g33
sS'.thisTrialN'
p1344
I3
sS'.thisN'
p1345
I168
sS'.thisIndex'
p1346
I7
sg15
(lp1347
S'k'
asg30
g31
sg16
S'Y'
sg14
I4
sg19
Nsg94
I7
sa(dp1348
g17
(lp1349
S'd'
asg18
S'Y'
sS'.thisRepN'
p1350
I11
sg20
S'Y'
sg32
g33
sS'.thisTrialN'
p1351
I4
sS'.thisN'
p1352
I169
sS'.thisIndex'
p1353
I6
sg15
(lp1354
S'd'
asg30
g31
sg16
S'Y'
sg14
I4
sg19
(lp1355
S'space'
p1356
asg94
I6
sa(dp1357
g17
(lp1358
S'd'
asg18
S'N'
sS'.thisRepN'
p1359
I11
sg20
S'Y'
sg32
g33
sS'.thisTrialN'
p1360
I5
sS'.thisN'
p1361
I170
sS'.thisIndex'
p1362
I7
sg15
(lp1363
S'd'
asg30
g31
sg16
S'Y'
sg14
I4
sg19
Nsg94
I7
sa(dp1364
g17
(lp1365
S'd'
asg18
S'Y'
sS'.thisRepN'
p1366
I11
sg20
S'N'
sg32
g33
sS'.thisTrialN'
p1367
I6
sS'.thisN'
p1368
I171
sS'.thisIndex'
p1369
I6
sg15
(lp1370
S'd'
asg30
g31
sg16
S'Y'
sg14
I4
sg19
Nsg94
I6
sa(dp1371
g17
(lp1372
S'k'
asg18
S'N'
sS'.thisRepN'
p1373
I11
sg20
S'N'
sg32
g33
sS'.thisTrialN'
p1374
I7
sS'.thisN'
p1375
I172
sS'.thisIndex'
p1376
I1
sg15
(lp1377
S'k'
asg30
g31
sg16
S'Y'
sg14
I4
sg19
(lp1378
S'space'
p1379
asg94
I1
sa(dp1380
g17
(lp1381
S'd'
asg18
S'N'
sS'.thisRepN'
p1382
I11
sg20
S'Y'
sg32
g33
sS'.thisTrialN'
p1383
I8
sS'.thisN'
p1384
I173
sS'.thisIndex'
p1385
I8
sg15
(lp1386
S'd'
asg30
g31
sg16
S'Y'
sg14
I4
sg19
Nsg94
I8
sa(dp1387
g17
(lp1388
S'k'
asg18
S'N'
sS'.thisRepN'
p1389
I11
sg20
S'Y'
sg32
g33
sS'.thisTrialN'
p1390
I9
sS'.thisN'
p1391
I174
sS'.thisIndex'
p1392
I8
sg15
(lp1393
S'k'
asg30
g31
sg16
S'Y'
sg14
I4
sg19
Nsg94
I8
sa(dp1394
g17
(lp1395
S'k'
asg18
S'Y'
sS'.thisRepN'
p1396
I11
sg20
S'N'
sg32
g33
sS'.thisTrialN'
p1397
I10
sS'.thisN'
p1398
I175
sS'.thisIndex'
p1399
I0
sg15
(lp1400
S'k'
asg30
g31
sg16
S'Y'
sg14
I4
sg19
Nsg94
I0
sa(dp1401
g17
(lp1402
S'd'
asg18
S'N'
sS'.thisRepN'
p1403
I11
sg20
S'Y'
sg32
g33
sS'.thisTrialN'
p1404
I11
sS'.thisN'
p1405
I176
sS'.thisIndex'
p1406
I14
sg15
(lp1407
S'd'
asg30
g31
sg16
S'Y'
sg14
I4
sg19
Nsg94
I14
sa(dp1408
g17
(lp1409
S'k'
asg18
S'Y'
sS'.thisRepN'
p1410
I11
sg20
S'Y'
sg32
g33
sS'.thisTrialN'
p1411
I12
sS'.thisN'
p1412
I177
sS'.thisIndex'
p1413
I14
sg15
(lp1414
S'k'
asg30
g31
sg16
S'Y'
sg14
I4
sg19
(lp1415
S'space'
p1416
asg94
I14
sa(dp1417
g17
(lp1418
S'k'
asg18
S'Y'
sS'.thisRepN'
p1419
I11
sg20
S'N'
sg32
g33
sS'.thisTrialN'
p1420
I13
sS'.thisN'
p1421
I178
sS'.thisIndex'
p1422
I2
sg15
(lp1423
S'k'
asg30
g31
sg16
S'Y'
sg14
I4
sg19
Nsg94
I2
sa(dp1424
g17
(lp1425
S'k'
asg18
S'N'
sS'.thisRepN'
p1426
I11
sg20
S'Y'
sg32
g33
sS'.thisTrialN'
p1427
I14
sS'.thisN'
p1428
I179
sS'.thisIndex'
p1429
I4
sg15
(lp1430
S'k'
asg30
g31
sg16
S'Y'
sg14
I4
sg19
Nsg94
I4
sa(dp1431
g17
(lp1432
S'k'
asg18
S'Y'
sS'.thisRepN'
p1433
I12
sg20
S'N'
sg32
g33
sS'.thisTrialN'
p1434
I0
sS'.thisN'
p1435
I180
sS'.thisIndex'
p1436
I5
sg15
(lp1437
S'd'
asg30
g31
sg16
S'N'
sg14
I4
sg19
Nsg94
I5
sa(dp1438
g17
(lp1439
S'k'
asg18
S'N'
sS'.thisRepN'
p1440
I12
sg20
S'Y'
sg32
g33
sS'.thisTrialN'
p1441
I1
sS'.thisN'
p1442
I181
sS'.thisIndex'
p1443
I12
sg15
(lp1444
S'k'
asg30
g31
sg16
S'Y'
sg14
I4
sg19
Nsg94
I12
sa(dp1445
g17
(lp1446
S'k'
asg18
S'N'
sS'.thisRepN'
p1447
I12
sg20
S'Y'
sg32
g33
sS'.thisTrialN'
p1448
I2
sS'.thisN'
p1449
I182
sS'.thisIndex'
p1450
I6
sg15
(lp1451
S'k'
asg30
g31
sg16
S'Y'
sg14
I4
sg19
Nsg94
I6
sa(dp1452
g17
(lp1453
S'k'
asg18
S'Y'
sS'.thisRepN'
p1454
I12
sg20
S'N'
sg32
g33
sS'.thisTrialN'
p1455
I3
sS'.thisN'
p1456
I183
sS'.thisIndex'
p1457
I3
sg15
(lp1458
S'k'
asg30
g31
sg16
S'Y'
sg14
I4
sg19
Nsg94
I3
sa(dp1459
g17
(lp1460
S'k'
asg18
S'N'
sS'.thisRepN'
p1461
I12
sg20
S'Y'
sg32
g33
sS'.thisTrialN'
p1462
I4
sS'.thisN'
p1463
I184
sS'.thisIndex'
p1464
I14
sg15
(lp1465
S'k'
asg30
g31
sg16
S'Y'
sg14
I4
sg19
Nsg94
I14
sa(dp1466
g17
(lp1467
S'k'
asg18
S'N'
sS'.thisRepN'
p1468
I12
sg20
S'Y'
sg32
g33
sS'.thisTrialN'
p1469
I5
sS'.thisN'
p1470
I185
sS'.thisIndex'
p1471
I13
sg15
(lp1472
S'k'
asg30
g31
sg16
S'Y'
sg14
I4
sg19
Nsg94
I13
sa(dp1473
g17
(lp1474
S'd'
asg18
S'N'
sS'.thisRepN'
p1475
I12
sg20
S'Y'
sg32
g33
sS'.thisTrialN'
p1476
I6
sS'.thisN'
p1477
I186
sS'.thisIndex'
p1478
I4
sg15
(lp1479
S'd'
asg30
g31
sg16
S'Y'
sg14
I4
sg19
Nsg94
I4
sa(dp1480
g17
(lp1481
S'k'
asg18
S'Y'
sS'.thisRepN'
p1482
I12
sg20
S'N'
sg32
g33
sS'.thisTrialN'
p1483
I7
sS'.thisN'
p1484
I187
sS'.thisIndex'
p1485
I12
sg15
(lp1486
S'k'
asg30
g31
sg16
S'Y'
sg14
I4
sg19
Nsg94
I12
sa(dp1487
g17
(lp1488
S'k'
asg18
S'Y'
sS'.thisRepN'
p1489
I12
sg20
S'N'
sg32
g33
sS'.thisTrialN'
p1490
I8
sS'.thisN'
p1491
I188
sS'.thisIndex'
p1492
I11
sg15
(lp1493
S'k'
asg30
g31
sg16
S'Y'
sg14
I4
sg19
Nsg94
I11
sa(dp1494
g17
(lp1495
S'k'
asg18
S'Y'
sS'.thisRepN'
p1496
I12
sg20
S'N'
sg32
g33
sS'.thisTrialN'
p1497
I9
sS'.thisN'
p1498
I189
sS'.thisIndex'
p1499
I1
sg15
(lp1500
S'd'
asg30
g31
sg16
S'N'
sg14
I4
sg19
Nsg94
I1
sa(dp1501
g17
(lp1502
S'k'
asg18
S'N'
sS'.thisRepN'
p1503
I12
sg20
S'Y'
sg32
g33
sS'.thisTrialN'
p1504
I10
sS'.thisN'
p1505
I190
sS'.thisIndex'
p1506
I10
sg15
(lp1507
S'k'
asg30
g31
sg16
S'Y'
sg14
I4
sg19
Nsg94
I10
sa(dp1508
g17
(lp1509
S'k'
asg18
S'Y'
sS'.thisRepN'
p1510
I12
sg20
S'Y'
sg32
g33
sS'.thisTrialN'
p1511
I11
sS'.thisN'
p1512
I191
sS'.thisIndex'
p1513
I3
sg15
(lp1514
S'k'
asg30
g31
sg16
S'Y'
sg14
I4
sg19
(lp1515
S'space'
p1516
asg94
I3
sa(dp1517
g17
(lp1518
S'k'
asg18
S'N'
sS'.thisRepN'
p1519
I12
sg20
S'Y'
sg32
g33
sS'.thisTrialN'
p1520
I12
sS'.thisN'
p1521
I192
sS'.thisIndex'
p1522
I14
sg15
(lp1523
S'k'
asg30
g31
sg16
S'Y'
sg14
I4
sg19
Nsg94
I14
sa(dp1524
g17
(lp1525
S'd'
asg18
S'N'
sS'.thisRepN'
p1526
I12
sg20
S'Y'
sg32
g33
sS'.thisTrialN'
p1527
I13
sS'.thisN'
p1528
I193
sS'.thisIndex'
p1529
I1
sg15
(lp1530
S'd'
asg30
g31
sg16
S'Y'
sg14
I4
sg19
Nsg94
I1
sa(dp1531
g17
(lp1532
S'k'
asg18
S'N'
sS'.thisRepN'
p1533
I12
sg20
S'Y'
sg32
g33
sS'.thisTrialN'
p1534
I14
sS'.thisN'
p1535
I194
sS'.thisIndex'
p1536
I8
sg15
(lp1537
S'k'
asg30
g31
sg16
S'Y'
sg14
I4
sg19
Nsg94
I8
sa(dp1538
g17
(lp1539
S'k'
asg18
S'Y'
sS'.thisRepN'
p1540
I13
sg20
S'Y'
sg32
g33
sS'.thisTrialN'
p1541
I0
sS'.thisN'
p1542
I195
sS'.thisIndex'
p1543
I8
sg15
(lp1544
S'k'
asg30
g31
sg16
S'Y'
sg14
I4
sg19
(lp1545
S'space'
p1546
asg94
I8
sa(dp1547
g17
(lp1548
S'd'
asg18
S'N'
sS'.thisRepN'
p1549
I13
sg20
S'Y'
sg32
g33
sS'.thisTrialN'
p1550
I1
sS'.thisN'
p1551
I196
sS'.thisIndex'
p1552
I13
sg15
(lp1553
S'd'
asg30
g31
sg16
S'Y'
sg14
I4
sg19
Nsg94
I13
sa(dp1554
g17
(lp1555
S'k'
asg18
S'N'
sS'.thisRepN'
p1556
I13
sg20
S'N'
sg32
g33
sS'.thisTrialN'
p1557
I2
sS'.thisN'
p1558
I197
sS'.thisIndex'
p1559
I9
sg15
(lp1560
S'k'
asg30
g31
sg16
S'Y'
sg14
I4
sg19
(lp1561
S'space'
p1562
asg94
I9
sa(dp1563
g17
(lp1564
S'd'
asg18
S'Y'
sS'.thisRepN'
p1565
I13
sg20
S'N'
sg32
g33
sS'.thisTrialN'
p1566
I3
sS'.thisN'
p1567
I198
sS'.thisIndex'
p1568
I3
sg15
(lp1569
S'd'
asg30
g31
sg16
S'Y'
sg14
I4
sg19
Nsg94
I3
sa(dp1570
g17
(lp1571
S'k'
asg18
S'Y'
sg22
I29
sS'.thisN'
p1572
I199
sg20
S'Y'
sg32
g33
sS'.thisTrialN'
p1573
I4
sS'.thisRepN'
p1574
I13
sg21
I48
sS'.thisIndex'
p1575
I9
sg23
I23
sg15
(lp1576
S'k'
asg30
g31
sg16
S'Y'
sg14
I4
sg19
(lp1577
S'space'
p1578
asg94
I9
sa(dp1579
g17
(lp1580
S'k'
asg94
I13
sS'.thisRepN'
p1581
I13
sg30
g31
sg32
g33
sS'.thisTrialN'
p1582
I5
sS'.thisN'
p1583
I200
sS'.thisIndex'
p1584
I13
sg15
(lp1585
S'k'
asg16
S'Y'
sg14
I5
sa(dp1586
g17
(lp1587
S'd'
asg94
I7
sS'.thisRepN'
p1588
I13
sg30
g31
sg32
g33
sS'.thisTrialN'
p1589
I6
sS'.thisN'
p1590
I201
sS'.thisIndex'
p1591
I7
sg15
(lp1592
S'd'
asg16
S'Y'
sg14
I5
sa(dp1593
g17
(lp1594
S'd'
asg18
S'Y'
sS'.thisRepN'
p1595
I13
sg20
S'N'
sg32
g33
sS'.thisTrialN'
p1596
I7
sS'.thisN'
p1597
I202
sS'.thisIndex'
p1598
I4
sg15
(lp1599
S'd'
asg30
g31
sg16
S'Y'
sg14
I5
sg19
Nsg94
I4
sa(dp1600
g17
(lp1601
S'k'
asg18
S'Y'
sS'.thisRepN'
p1602
I13
sg20
S'Y'
sg32
g33
sS'.thisTrialN'
p1603
I8
sS'.thisN'
p1604
I203
sS'.thisIndex'
p1605
I7
sg15
(lp1606
S'k'
asg30
g31
sg16
S'Y'
sg14
I5
sg19
(lp1607
S'space'
p1608
asg94
I7
sa(dp1609
g17
(lp1610
S'd'
asg18
S'Y'
sS'.thisRepN'
p1611
I13
sg20
S'Y'
sg32
g33
sS'.thisTrialN'
p1612
I9
sS'.thisN'
p1613
I204
sS'.thisIndex'
p1614
I13
sg15
(lp1615
S'd'
asg30
g31
sg16
S'Y'
sg14
I5
sg19
(lp1616
S'space'
p1617
asg94
I13
sa(dp1618
g17
(lp1619
S'd'
asg18
S'N'
sS'.thisRepN'
p1620
I13
sg20
S'Y'
sg32
g33
sS'.thisTrialN'
p1621
I10
sS'.thisN'
p1622
I205
sS'.thisIndex'
p1623
I4
sg15
(lp1624
S'd'
asg30
g31
sg16
S'Y'
sg14
I5
sg19
Nsg94
I4
sa(dp1625
g17
(lp1626
S'd'
asg18
S'N'
sS'.thisRepN'
p1627
I13
sg20
S'Y'
sg32
g33
sS'.thisTrialN'
p1628
I11
sS'.thisN'
p1629
I206
sS'.thisIndex'
p1630
I9
sg15
(lp1631
S'd'
asg30
g31
sg16
S'Y'
sg14
I5
sg19
Nsg94
I9
sa(dp1632
g17
(lp1633
S'd'
asg18
S'Y'
sS'.thisRepN'
p1634
I13
sg20
S'Y'
sg32
g33
sS'.thisTrialN'
p1635
I12
sS'.thisN'
p1636
I207
sS'.thisIndex'
p1637
I14
sg15
(lp1638
S'd'
asg30
g31
sg16
S'Y'
sg14
I5
sg19
(lp1639
S'space'
p1640
asg94
I14
sa(dp1641
g17
(lp1642
S'd'
asg18
S'N'
sS'.thisRepN'
p1643
I13
sg20
S'Y'
sg32
g33
sS'.thisTrialN'
p1644
I13
sS'.thisN'
p1645
I208
sS'.thisIndex'
p1646
I10
sg15
(lp1647
S'd'
asg30
g31
sg16
S'Y'
sg14
I5
sg19
Nsg94
I10
sa(dp1648
g17
(lp1649
S'd'
asg18
S'N'
sS'.thisRepN'
p1650
I13
sg20
S'Y'
sg32
g33
sS'.thisTrialN'
p1651
I14
sS'.thisN'
p1652
I209
sS'.thisIndex'
p1653
I0
sg15
(lp1654
S'd'
asg30
g31
sg16
S'Y'
sg14
I5
sg19
Nsg94
I0
sa(dp1655
g17
(lp1656
S'd'
asg18
S'N'
sS'.thisRepN'
p1657
I14
sg20
S'Y'
sg32
g33
sS'.thisTrialN'
p1658
I0
sS'.thisN'
p1659
I210
sS'.thisIndex'
p1660
I3
sg15
(lp1661
S'd'
asg30
g31
sg16
S'Y'
sg14
I5
sg19
Nsg94
I3
sa(dp1662
g17
(lp1663
S'd'
asg18
S'N'
sS'.thisRepN'
p1664
I14
sg20
S'Y'
sg32
g33
sS'.thisTrialN'
p1665
I1
sS'.thisN'
p1666
I211
sS'.thisIndex'
p1667
I7
sg15
(lp1668
S'd'
asg30
g31
sg16
S'Y'
sg14
I5
sg19
Nsg94
I7
sa(dp1669
g17
(lp1670
S'd'
asg18
S'Y'
sS'.thisRepN'
p1671
I14
sg20
S'Y'
sg32
g33
sS'.thisTrialN'
p1672
I2
sS'.thisN'
p1673
I212
sS'.thisIndex'
p1674
I5
sg15
(lp1675
S'k'
asg30
g31
sg16
S'N'
sg14
I5
sg19
(lp1676
S'space'
p1677
asg94
I5
sa(dp1678
g17
(lp1679
S'd'
asg18
S'Y'
sS'.thisRepN'
p1680
I14
sg20
S'N'
sg32
g33
sS'.thisTrialN'
p1681
I3
sS'.thisN'
p1682
I213
sS'.thisIndex'
p1683
I1
sg15
(lp1684
S'd'
asg30
g31
sg16
S'Y'
sg14
I5
sg19
Nsg94
I1
sa(dp1685
g17
(lp1686
S'd'
asg18
S'Y'
sS'.thisRepN'
p1687
I14
sg20
S'N'
sg32
g33
sS'.thisTrialN'
p1688
I4
sS'.thisN'
p1689
I214
sS'.thisIndex'
p1690
I2
sg15
(lp1691
S'd'
asg30
g31
sg16
S'Y'
sg14
I5
sg19
Nsg94
I2
sa(dp1692
g17
(lp1693
S'd'
asg18
S'N'
sS'.thisRepN'
p1694
I14
sg20
S'Y'
sg32
g33
sS'.thisTrialN'
p1695
I5
sS'.thisN'
p1696
I215
sS'.thisIndex'
p1697
I0
sg15
(lp1698
S'd'
asg30
g31
sg16
S'Y'
sg14
I5
sg19
Nsg94
I0
sa(dp1699
g17
(lp1700
S'd'
asg18
S'Y'
sS'.thisRepN'
p1701
I14
sg20
S'Y'
sg32
g33
sS'.thisTrialN'
p1702
I6
sS'.thisN'
p1703
I216
sS'.thisIndex'
p1704
I6
sg15
(lp1705
S'd'
asg30
g31
sg16
S'Y'
sg14
I5
sg19
(lp1706
S'space'
p1707
asg94
I6
sa(dp1708
g17
(lp1709
S'd'
asg18
S'Y'
sS'.thisRepN'
p1710
I14
sg20
S'N'
sg32
g33
sS'.thisTrialN'
p1711
I7
sS'.thisN'
p1712
I217
sS'.thisIndex'
p1713
I10
sg15
(lp1714
S'd'
asg30
g31
sg16
S'Y'
sg14
I5
sg19
Nsg94
I10
sa(dp1715
g17
(lp1716
S'd'
asg18
S'N'
sS'.thisRepN'
p1717
I14
sg20
S'Y'
sg32
g33
sS'.thisTrialN'
p1718
I8
sS'.thisN'
p1719
I218
sS'.thisIndex'
p1720
I12
sg15
(lp1721
S'd'
asg30
g31
sg16
S'Y'
sg14
I5
sg19
Nsg94
I12
sa(dp1722
g17
(lp1723
S'k'
asg18
S'Y'
sS'.thisRepN'
p1724
I14
sg20
S'Y'
sg32
g33
sS'.thisTrialN'
p1725
I9
sS'.thisN'
p1726
I219
sS'.thisIndex'
p1727
I7
sg15
(lp1728
S'k'
asg30
g31
sg16
S'Y'
sg14
I5
sg19
(lp1729
S'space'
p1730
asg94
I7
sa(dp1731
g17
(lp1732
S'd'
asg18
S'Y'
sS'.thisRepN'
p1733
I14
sg20
S'N'
sg32
g33
sS'.thisTrialN'
p1734
I10
sS'.thisN'
p1735
I220
sS'.thisIndex'
p1736
I6
sg15
(lp1737
S'd'
asg30
g31
sg16
S'Y'
sg14
I5
sg19
Nsg94
I6
sa(dp1738
g17
(lp1739
S'k'
asg18
S'Y'
sS'.thisRepN'
p1740
I14
sg20
S'N'
sg32
g33
sS'.thisTrialN'
p1741
I11
sS'.thisN'
p1742
I221
sS'.thisIndex'
p1743
I13
sg15
(lp1744
S'k'
asg30
g31
sg16
S'Y'
sg14
I5
sg19
Nsg94
I13
sa(dp1745
g17
(lp1746
S'k'
asg18
S'N'
sS'.thisRepN'
p1747
I14
sg20
S'Y'
sg32
g33
sS'.thisTrialN'
p1748
I12
sS'.thisN'
p1749
I222
sS'.thisIndex'
p1750
I10
sg15
(lp1751
S'k'
asg30
g31
sg16
S'Y'
sg14
I5
sg19
Nsg94
I10
sa(dp1752
g17
(lp1753
S'k'
asg18
S'N'
sS'.thisRepN'
p1754
I14
sg20
S'Y'
sg32
g33
sS'.thisTrialN'
p1755
I13
sS'.thisN'
p1756
I223
sS'.thisIndex'
p1757
I14
sg15
(lp1758
S'k'
asg30
g31
sg16
S'Y'
sg14
I5
sg19
Nsg94
I14
sa(dp1759
g17
(lp1760
S'd'
asg18
S'N'
sS'.thisRepN'
p1761
I14
sg20
S'Y'
sg32
g33
sS'.thisTrialN'
p1762
I14
sS'.thisN'
p1763
I224
sS'.thisIndex'
p1764
I5
sg15
(lp1765
S'd'
asg30
g31
sg16
S'Y'
sg14
I5
sg19
Nsg94
I5
sa(dp1766
g17
(lp1767
S'd'
asg18
S'Y'
sS'.thisRepN'
p1768
I15
sg20
S'N'
sg32
g33
sS'.thisTrialN'
p1769
I0
sS'.thisN'
p1770
I225
sS'.thisIndex'
p1771
I8
sg15
(lp1772
S'd'
asg30
g31
sg16
S'Y'
sg14
I5
sg19
Nsg94
I8
sa(dp1773
g17
(lp1774
S'd'
asg18
S'N'
sS'.thisRepN'
p1775
I15
sg20
S'Y'
sg32
g33
sS'.thisTrialN'
p1776
I1
sS'.thisN'
p1777
I226
sS'.thisIndex'
p1778
I11
sg15
(lp1779
S'd'
asg30
g31
sg16
S'Y'
sg14
I5
sg19
Nsg94
I11
sa(dp1780
g17
(lp1781
S'd'
asg18
S'Y'
sS'.thisRepN'
p1782
I15
sg20
S'N'
sg32
g33
sS'.thisTrialN'
p1783
I2
sS'.thisN'
p1784
I227
sS'.thisIndex'
p1785
I6
sg15
(lp1786
S'd'
asg30
g31
sg16
S'Y'
sg14
I5
sg19
Nsg94
I6
sa(dp1787
g17
(lp1788
S'k'
asg18
S'Y'
sS'.thisRepN'
p1789
I15
sg20
S'Y'
sg32
g33
sS'.thisTrialN'
p1790
I3
sS'.thisN'
p1791
I228
sS'.thisIndex'
p1792
I11
sg15
(lp1793
S'k'
asg30
g31
sg16
S'Y'
sg14
I5
sg19
(lp1794
S'space'
p1795
asg94
I11
sa(dp1796
g17
(lp1797
S'd'
asg18
S'Y'
sS'.thisRepN'
p1798
I15
sg20
S'Y'
sg32
g33
sS'.thisTrialN'
p1799
I4
sS'.thisN'
p1800
I229
sS'.thisIndex'
p1801
I3
sg15
(lp1802
S'd'
asg30
g31
sg16
S'Y'
sg14
I5
sg19
(lp1803
S'space'
p1804
asg94
I3
sa(dp1805
g17
(lp1806
S'd'
asg18
S'N'
sS'.thisRepN'
p1807
I15
sg20
S'Y'
sg32
g33
sS'.thisTrialN'
p1808
I5
sS'.thisN'
p1809
I230
sS'.thisIndex'
p1810
I8
sg15
(lp1811
S'd'
asg30
g31
sg16
S'Y'
sg14
I5
sg19
Nsg94
I8
sa(dp1812
g17
(lp1813
S'k'
asg18
S'Y'
sS'.thisRepN'
p1814
I15
sg20
S'N'
sg32
g33
sS'.thisTrialN'
p1815
I6
sS'.thisN'
p1816
I231
sS'.thisIndex'
p1817
I12
sg15
(lp1818
S'd'
asg30
g31
sg16
S'N'
sg14
I5
sg19
Nsg94
I12
sa(dp1819
g17
(lp1820
S'd'
asg18
S'Y'
sS'.thisRepN'
p1821
I15
sg20
S'Y'
sg32
g33
sS'.thisTrialN'
p1822
I7
sS'.thisN'
p1823
I232
sS'.thisIndex'
p1824
I9
sg15
(lp1825
S'd'
asg30
g31
sg16
S'Y'
sg14
I5
sg19
(lp1826
S'space'
p1827
asg94
I9
sa(dp1828
g17
(lp1829
S'k'
asg18
S'Y'
sS'.thisRepN'
p1830
I15
sg20
S'Y'
sg32
g33
sS'.thisTrialN'
p1831
I8
sS'.thisN'
p1832
I233
sS'.thisIndex'
p1833
I11
sg15
(lp1834
S'k'
asg30
g31
sg16
S'Y'
sg14
I5
sg19
(lp1835
S'space'
p1836
asg94
I11
sa(dp1837
g17
(lp1838
S'k'
asg18
S'Y'
sS'.thisRepN'
p1839
I15
sg20
S'Y'
sg32
g33
sS'.thisTrialN'
p1840
I9
sS'.thisN'
p1841
I234
sS'.thisIndex'
p1842
I13
sg15
(lp1843
S'k'
asg30
g31
sg16
S'Y'
sg14
I5
sg19
(lp1844
S'space'
p1845
asg94
I13
sa(dp1846
g17
(lp1847
S'd'
asg18
S'N'
sS'.thisRepN'
p1848
I15
sg20
S'Y'
sg32
g33
sS'.thisTrialN'
p1849
I10
sS'.thisN'
p1850
I235
sS'.thisIndex'
p1851
I11
sg15
(lp1852
S'd'
asg30
g31
sg16
S'Y'
sg14
I5
sg19
Nsg94
I11
sa(dp1853
g17
(lp1854
S'd'
asg18
S'N'
sS'.thisRepN'
p1855
I15
sg20
S'Y'
sg32
g33
sS'.thisTrialN'
p1856
I11
sS'.thisN'
p1857
I236
sS'.thisIndex'
p1858
I11
sg15
(lp1859
S'd'
asg30
g31
sg16
S'Y'
sg14
I5
sg19
Nsg94
I11
sa(dp1860
g17
(lp1861
S'd'
asg18
S'Y'
sS'.thisRepN'
p1862
I15
sg20
S'Y'
sg32
g33
sS'.thisTrialN'
p1863
I12
sS'.thisN'
p1864
I237
sS'.thisIndex'
p1865
I7
sg15
(lp1866
S'd'
asg30
g31
sg16
S'Y'
sg14
I5
sg19
(lp1867
S'space'
p1868
asg94
I7
sa(dp1869
g17
(lp1870
S'k'
asg18
S'Y'
sS'.thisRepN'
p1871
I15
sg20
S'Y'
sg32
g33
sS'.thisTrialN'
p1872
I13
sS'.thisN'
p1873
I238
sS'.thisIndex'
p1874
I6
sg15
(lp1875
S'k'
asg30
g31
sg16
S'Y'
sg14
I5
sg19
(lp1876
S'space'
p1877
asg94
I6
sa(dp1878
g17
(lp1879
S'k'
asg18
S'N'
sS'.thisRepN'
p1880
I15
sg20
S'Y'
sg32
g33
sS'.thisTrialN'
p1881
I14
sS'.thisN'
p1882
I239
sS'.thisIndex'
p1883
I8
sg15
(lp1884
S'k'
asg30
g31
sg16
S'Y'
sg14
I5
sg19
Nsg94
I8
sa(dp1885
g17
(lp1886
S'k'
asg18
S'N'
sS'.thisRepN'
p1887
I16
sg20
S'Y'
sg32
g33
sS'.thisTrialN'
p1888
I0
sS'.thisN'
p1889
I240
sS'.thisIndex'
p1890
I7
sg15
(lp1891
S'k'
asg30
g31
sg16
S'Y'
sg14
I5
sg19
Nsg94
I7
sa(dp1892
g17
(lp1893
S'd'
asg18
S'Y'
sS'.thisRepN'
p1894
I16
sg20
S'Y'
sg32
g33
sS'.thisTrialN'
p1895
I1
sS'.thisN'
p1896
I241
sS'.thisIndex'
p1897
I12
sg15
(lp1898
S'd'
asg30
g31
sg16
S'Y'
sg14
I5
sg19
(lp1899
S'space'
p1900
asg94
I12
sa(dp1901
g17
(lp1902
S'k'
asg18
S'Y'
sS'.thisRepN'
p1903
I16
sg20
S'Y'
sg32
g33
sS'.thisTrialN'
p1904
I2
sS'.thisN'
p1905
I242
sS'.thisIndex'
p1906
I0
sg15
(lp1907
S'k'
asg30
g31
sg16
S'Y'
sg14
I5
sg19
(lp1908
S'space'
p1909
asg94
I0
sa(dp1910
g17
(lp1911
S'd'
asg18
S'N'
sS'.thisRepN'
p1912
I16
sg20
S'Y'
sg32
g33
sS'.thisTrialN'
p1913
I3
sS'.thisN'
p1914
I243
sS'.thisIndex'
p1915
I10
sg15
(lp1916
S'd'
asg30
g31
sg16
S'Y'
sg14
I5
sg19
Nsg94
I10
sa(dp1917
g17
(lp1918
S'k'
asg18
S'Y'
sS'.thisRepN'
p1919
I16
sg20
S'Y'
sg32
g33
sS'.thisTrialN'
p1920
I4
sS'.thisN'
p1921
I244
sS'.thisIndex'
p1922
I4
sg15
(lp1923
S'k'
asg30
g31
sg16
S'Y'
sg14
I5
sg19
(lp1924
S'space'
p1925
asg94
I4
sa(dp1926
g17
(lp1927
S'd'
asg18
S'N'
sS'.thisRepN'
p1928
I16
sg20
S'Y'
sg32
g33
sS'.thisTrialN'
p1929
I5
sS'.thisN'
p1930
I245
sS'.thisIndex'
p1931
I3
sg15
(lp1932
S'd'
asg30
g31
sg16
S'Y'
sg14
I5
sg19
Nsg94
I3
sa(dp1933
g17
(lp1934
S'd'
asg18
S'N'
sS'.thisRepN'
p1935
I16
sg20
S'Y'
sg32
g33
sS'.thisTrialN'
p1936
I6
sS'.thisN'
p1937
I246
sS'.thisIndex'
p1938
I12
sg15
(lp1939
S'd'
asg30
g31
sg16
S'Y'
sg14
I5
sg19
Nsg94
I12
sa(dp1940
g17
(lp1941
S'd'
asg18
S'N'
sS'.thisRepN'
p1942
I16
sg20
S'Y'
sg32
g33
sS'.thisTrialN'
p1943
I7
sS'.thisN'
p1944
I247
sS'.thisIndex'
p1945
I3
sg15
(lp1946
S'd'
asg30
g31
sg16
S'Y'
sg14
I5
sg19
Nsg94
I3
sa(dp1947
g17
(lp1948
S'k'
asg18
S'N'
sS'.thisRepN'
p1949
I16
sg20
S'N'
sg32
g33
sS'.thisTrialN'
p1950
I8
sS'.thisN'
p1951
I248
sS'.thisIndex'
p1952
I4
sg15
(lp1953
S'k'
asg30
g31
sg16
S'Y'
sg14
I5
sg19
(lp1954
S'space'
p1955
asg94
I4
sa(dp1956
g17
(lp1957
S'd'
asg18
S'N'
sg22
I38
sS'.thisN'
p1958
I249
sg20
S'Y'
sg32
g33
sS'.thisTrialN'
p1959
I9
sS'.thisRepN'
p1960
I16
sg21
I48
sS'.thisIndex'
p1961
I0
sg23
I25
sg15
(lp1962
S'd'
asg30
g31
sg16
S'Y'
sg14
I5
sg19
Nsg94
I0
sa(dp1963
g17
(lp1964
S'd'
asg94
I2
sS'.thisRepN'
p1965
I16
sg30
g31
sg32
g33
sS'.thisTrialN'
p1966
I10
sS'.thisN'
p1967
I250
sS'.thisIndex'
p1968
I2
sg15
(lp1969
S'd'
asg16
S'Y'
sg14
I6
sa(dp1970
g17
(lp1971
S'k'
asg94
I13
sS'.thisRepN'
p1972
I16
sg30
g31
sg32
g33
sS'.thisTrialN'
p1973
I11
sS'.thisN'
p1974
I251
sS'.thisIndex'
p1975
I13
sg15
(lp1976
S'k'
asg16
S'Y'
sg14
I6
sa(dp1977
g17
(lp1978
S'k'
asg18
S'Y'
sS'.thisRepN'
p1979
I16
sg20
S'Y'
sg32
g33
sS'.thisTrialN'
p1980
I12
sS'.thisN'
p1981
I252
sS'.thisIndex'
p1982
I10
sg15
(lp1983
S'k'
asg30
g31
sg16
S'Y'
sg14
I6
sg19
(lp1984
S'space'
p1985
asg94
I10
sa(dp1986
g17
(lp1987
S'd'
asg18
S'N'
sS'.thisRepN'
p1988
I16
sg20
S'Y'
sg32
g33
sS'.thisTrialN'
p1989
I13
sS'.thisN'
p1990
I253
sS'.thisIndex'
p1991
I13
sg15
(lp1992
S'd'
asg30
g31
sg16
S'Y'
sg14
I6
sg19
Nsg94
I13
sa(dp1993
g17
(lp1994
S'd'
asg18
S'N'
sS'.thisRepN'
p1995
I16
sg20
S'Y'
sg32
g33
sS'.thisTrialN'
p1996
I14
sS'.thisN'
p1997
I254
sS'.thisIndex'
p1998
I10
sg15
(lp1999
S'd'
asg30
g31
sg16
S'Y'
sg14
I6
sg19
Nsg94
I10
sa(dp2000
g17
(lp2001
S'd'
asg18
S'Y'
sS'.thisRepN'
p2002
I17
sg20
S'Y'
sg32
g33
sS'.thisTrialN'
p2003
I0
sS'.thisN'
p2004
I255
sS'.thisIndex'
p2005
I10
sg15
(lp2006
S'd'
asg30
g31
sg16
S'Y'
sg14
I6
sg19
(lp2007
S'space'
p2008
asg94
I10
sa(dp2009
g17
(lp2010
S'd'
asg18
S'N'
sS'.thisRepN'
p2011
I17
sg20
S'Y'
sg32
g33
sS'.thisTrialN'
p2012
I1
sS'.thisN'
p2013
I256
sS'.thisIndex'
p2014
I10
sg15
(lp2015
S'd'
asg30
g31
sg16
S'Y'
sg14
I6
sg19
Nsg94
I10
sa(dp2016
g17
(lp2017
S'k'
asg18
S'N'
sS'.thisRepN'
p2018
I17
sg20
S'Y'
sg32
g33
sS'.thisTrialN'
p2019
I2
sS'.thisN'
p2020
I257
sS'.thisIndex'
p2021
I11
sg15
(lp2022
S'k'
asg30
g31
sg16
S'Y'
sg14
I6
sg19
Nsg94
I11
sa(dp2023
g17
(lp2024
S'k'
asg18
S'Y'
sS'.thisRepN'
p2025
I17
sg20
S'N'
sg32
g33
sS'.thisTrialN'
p2026
I3
sS'.thisN'
p2027
I258
sS'.thisIndex'
p2028
I2
sg15
(lp2029
S'k'
asg30
g31
sg16
S'Y'
sg14
I6
sg19
Nsg94
I2
sa(dp2030
g17
(lp2031
S'k'
asg18
S'Y'
sS'.thisRepN'
p2032
I17
sg20
S'Y'
sg32
g33
sS'.thisTrialN'
p2033
I4
sS'.thisN'
p2034
I259
sS'.thisIndex'
p2035
I14
sg15
(lp2036
S'k'
asg30
g31
sg16
S'Y'
sg14
I6
sg19
(lp2037
S'space'
p2038
asg94
I14
sa(dp2039
g17
(lp2040
S'd'
asg18
S'N'
sS'.thisRepN'
p2041
I17
sg20
S'Y'
sg32
g33
sS'.thisTrialN'
p2042
I5
sS'.thisN'
p2043
I260
sS'.thisIndex'
p2044
I12
sg15
(lp2045
S'd'
asg30
g31
sg16
S'Y'
sg14
I6
sg19
Nsg94
I12
sa(dp2046
g17
(lp2047
S'd'
asg18
S'Y'
sS'.thisRepN'
p2048
I17
sg20
S'Y'
sg32
g33
sS'.thisTrialN'
p2049
I6
sS'.thisN'
p2050
I261
sS'.thisIndex'
p2051
I13
sg15
(lp2052
S'd'
asg30
g31
sg16
S'Y'
sg14
I6
sg19
(lp2053
S'space'
p2054
asg94
I13
sa(dp2055
g17
(lp2056
S'd'
asg18
S'N'
sS'.thisRepN'
p2057
I17
sg20
S'N'
sg32
g33
sS'.thisTrialN'
p2058
I7
sS'.thisN'
p2059
I262
sS'.thisIndex'
p2060
I12
sg15
(lp2061
S'd'
asg30
g31
sg16
S'Y'
sg14
I6
sg19
(lp2062
S'space'
p2063
asg94
I12
sa(dp2064
g17
(lp2065
S'k'
asg18
S'N'
sS'.thisRepN'
p2066
I17
sg20
S'N'
sg32
g33
sS'.thisTrialN'
p2067
I8
sS'.thisN'
p2068
I263
sS'.thisIndex'
p2069
I7
sg15
(lp2070
S'k'
asg30
g31
sg16
S'Y'
sg14
I6
sg19
(lp2071
S'space'
p2072
asg94
I7
sa(dp2073
g17
(lp2074
S'k'
asg18
S'Y'
sS'.thisRepN'
p2075
I17
sg20
S'Y'
sg32
g33
sS'.thisTrialN'
p2076
I9
sS'.thisN'
p2077
I264
sS'.thisIndex'
p2078
I4
sg15
(lp2079
S'k'
asg30
g31
sg16
S'Y'
sg14
I6
sg19
(lp2080
S'space'
p2081
asg94
I4
sa(dp2082
g17
(lp2083
S'k'
asg18
S'N'
sS'.thisRepN'
p2084
I17
sg20
S'Y'
sg32
g33
sS'.thisTrialN'
p2085
I10
sS'.thisN'
p2086
I265
sS'.thisIndex'
p2087
I8
sg15
(lp2088
S'k'
asg30
g31
sg16
S'Y'
sg14
I6
sg19
Nsg94
I8
sa(dp2089
g17
(lp2090
S'k'
asg18
S'N'
sS'.thisRepN'
p2091
I17
sg20
S'Y'
sg32
g33
sS'.thisTrialN'
p2092
I11
sS'.thisN'
p2093
I266
sS'.thisIndex'
p2094
I10
sg15
(lp2095
S'k'
asg30
g31
sg16
S'Y'
sg14
I6
sg19
Nsg94
I10
sa(dp2096
g17
(lp2097
S'd'
asg18
S'Y'
sS'.thisRepN'
p2098
I17
sg20
S'Y'
sg32
g33
sS'.thisTrialN'
p2099
I12
sS'.thisN'
p2100
I267
sS'.thisIndex'
p2101
I14
sg15
(lp2102
S'd'
asg30
g31
sg16
S'Y'
sg14
I6
sg19
(lp2103
S'space'
p2104
asg94
I14
sa(dp2105
g17
(lp2106
S'k'
asg18
S'Y'
sS'.thisRepN'
p2107
I17
sg20
S'N'
sg32
g33
sS'.thisTrialN'
p2108
I13
sS'.thisN'
p2109
I268
sS'.thisIndex'
p2110
I7
sg15
(lp2111
S'k'
asg30
g31
sg16
S'Y'
sg14
I6
sg19
Nsg94
I7
sa(dp2112
g17
(lp2113
S'k'
asg18
S'Y'
sS'.thisRepN'
p2114
I17
sg20
S'Y'
sg32
g33
sS'.thisTrialN'
p2115
I14
sS'.thisN'
p2116
I269
sS'.thisIndex'
p2117
I6
sg15
(lp2118
S'k'
asg30
g31
sg16
S'Y'
sg14
I6
sg19
(lp2119
S'space'
p2120
asg94
I6
sa(dp2121
g17
(lp2122
S'd'
asg18
S'N'
sS'.thisRepN'
p2123
I18
sg20
S'Y'
sg32
g33
sS'.thisTrialN'
p2124
I0
sS'.thisN'
p2125
I270
sS'.thisIndex'
p2126
I12
sg15
(lp2127
S'd'
asg30
g31
sg16
S'Y'
sg14
I6
sg19
Nsg94
I12
sa(dp2128
g17
(lp2129
S'd'
asg18
S'N'
sS'.thisRepN'
p2130
I18
sg20
S'Y'
sg32
g33
sS'.thisTrialN'
p2131
I1
sS'.thisN'
p2132
I271
sS'.thisIndex'
p2133
I0
sg15
(lp2134
S'd'
asg30
g31
sg16
S'Y'
sg14
I6
sg19
Nsg94
I0
sa(dp2135
g17
(lp2136
S'd'
asg18
S'Y'
sS'.thisRepN'
p2137
I18
sg20
S'N'
sg32
g33
sS'.thisTrialN'
p2138
I2
sS'.thisN'
p2139
I272
sS'.thisIndex'
p2140
I0
sg15
(lp2141
S'd'
asg30
g31
sg16
S'Y'
sg14
I6
sg19
Nsg94
I0
sa(dp2142
g17
(lp2143
S'd'
asg18
S'N'
sS'.thisRepN'
p2144
I18
sg20
S'Y'
sg32
g33
sS'.thisTrialN'
p2145
I3
sS'.thisN'
p2146
I273
sS'.thisIndex'
p2147
I10
sg15
(lp2148
S'd'
asg30
g31
sg16
S'Y'
sg14
I6
sg19
Nsg94
I10
sa(dp2149
g17
(lp2150
S'k'
asg18
S'Y'
sS'.thisRepN'
p2151
I18
sg20
S'N'
sg32
g33
sS'.thisTrialN'
p2152
I4
sS'.thisN'
p2153
I274
sS'.thisIndex'
p2154
I5
sg15
(lp2155
S'k'
asg30
g31
sg16
S'Y'
sg14
I6
sg19
Nsg94
I5
sa(dp2156
g17
(lp2157
S'd'
asg18
S'N'
sS'.thisRepN'
p2158
I18
sg20
S'Y'
sg32
g33
sS'.thisTrialN'
p2159
I5
sS'.thisN'
p2160
I275
sS'.thisIndex'
p2161
I1
sg15
(lp2162
S'd'
asg30
g31
sg16
S'Y'
sg14
I6
sg19
Nsg94
I1
sa(dp2163
g17
(lp2164
S'd'
asg18
S'N'
sS'.thisRepN'
p2165
I18
sg20
S'Y'
sg32
g33
sS'.thisTrialN'
p2166
I6
sS'.thisN'
p2167
I276
sS'.thisIndex'
p2168
I12
sg15
(lp2169
S'd'
asg30
g31
sg16
S'Y'
sg14
I6
sg19
Nsg94
I12
sa(dp2170
g17
(lp2171
S'k'
asg18
S'N'
sS'.thisRepN'
p2172
I18
sg20
S'Y'
sg32
g33
sS'.thisTrialN'
p2173
I7
sS'.thisN'
p2174
I277
sS'.thisIndex'
p2175
I5
sg15
(lp2176
S'k'
asg30
g31
sg16
S'Y'
sg14
I6
sg19
Nsg94
I5
sa(dp2177
g17
(lp2178
S'd'
asg18
S'Y'
sS'.thisRepN'
p2179
I18
sg20
S'N'
sg32
g33
sS'.thisTrialN'
p2180
I8
sS'.thisN'
p2181
I278
sS'.thisIndex'
p2182
I0
sg15
(lp2183
S'd'
asg30
g31
sg16
S'Y'
sg14
I6
sg19
Nsg94
I0
sa(dp2184
g17
(lp2185
S'k'
asg18
S'N'
sS'.thisRepN'
p2186
I18
sg20
S'Y'
sg32
g33
sS'.thisTrialN'
p2187
I9
sS'.thisN'
p2188
I279
sS'.thisIndex'
p2189
I14
sg15
(lp2190
S'k'
asg30
g31
sg16
S'Y'
sg14
I6
sg19
Nsg94
I14
sa(dp2191
g17
(lp2192
S'd'
asg18
S'Y'
sS'.thisRepN'
p2193
I18
sg20
S'N'
sg32
g33
sS'.thisTrialN'
p2194
I10
sS'.thisN'
p2195
I280
sS'.thisIndex'
p2196
I4
sg15
(lp2197
S'd'
asg30
g31
sg16
S'Y'
sg14
I6
sg19
Nsg94
I4
sa(dp2198
g17
(lp2199
S'd'
asg18
S'N'
sS'.thisRepN'
p2200
I18
sg20
S'Y'
sg32
g33
sS'.thisTrialN'
p2201
I11
sS'.thisN'
p2202
I281
sS'.thisIndex'
p2203
I11
sg15
(lp2204
S'd'
asg30
g31
sg16
S'Y'
sg14
I6
sg19
Nsg94
I11
sa(dp2205
g17
(lp2206
S'd'
asg18
S'N'
sS'.thisRepN'
p2207
I18
sg20
S'Y'
sg32
g33
sS'.thisTrialN'
p2208
I12
sS'.thisN'
p2209
I282
sS'.thisIndex'
p2210
I5
sg15
(lp2211
S'd'
asg30
g31
sg16
S'Y'
sg14
I6
sg19
Nsg94
I5
sa(dp2212
g17
(lp2213
S'd'
asg18
S'Y'
sS'.thisRepN'
p2214
I18
sg20
S'N'
sg32
g33
sS'.thisTrialN'
p2215
I13
sS'.thisN'
p2216
I283
sS'.thisIndex'
p2217
I1
sg15
(lp2218
S'd'
asg30
g31
sg16
S'Y'
sg14
I6
sg19
Nsg94
I1
sa(dp2219
g17
(lp2220
S'd'
asg18
S'N'
sS'.thisRepN'
p2221
I18
sg20
S'Y'
sg32
g33
sS'.thisTrialN'
p2222
I14
sS'.thisN'
p2223
I284
sS'.thisIndex'
p2224
I8
sg15
(lp2225
S'd'
asg30
g31
sg16
S'Y'
sg14
I6
sg19
Nsg94
I8
sa(dp2226
g17
(lp2227
S'd'
asg18
S'N'
sS'.thisRepN'
p2228
I19
sg20
S'Y'
sg32
g33
sS'.thisTrialN'
p2229
I0
sS'.thisN'
p2230
I285
sS'.thisIndex'
p2231
I11
sg15
(lp2232
S'd'
asg30
g31
sg16
S'Y'
sg14
I6
sg19
Nsg94
I11
sa(dp2233
g17
(lp2234
S'k'
asg18
S'Y'
sS'.thisRepN'
p2235
I19
sg20
S'N'
sg32
g33
sS'.thisTrialN'
p2236
I1
sS'.thisN'
p2237
I286
sS'.thisIndex'
p2238
I1
sg15
(lp2239
S'd'
asg30
g31
sg16
S'N'
sg14
I6
sg19
Nsg94
I1
sa(dp2240
g17
(lp2241
S'd'
asg18
S'Y'
sS'.thisRepN'
p2242
I19
sg20
S'N'
sg32
g33
sS'.thisTrialN'
p2243
I2
sS'.thisN'
p2244
I287
sS'.thisIndex'
p2245
I6
sg15
(lp2246
S'd'
asg30
g31
sg16
S'Y'
sg14
I6
sg19
Nsg94
I6
sa(dp2247
g17
(lp2248
S'k'
asg18
S'Y'
sS'.thisRepN'
p2249
I19
sg20
S'N'
sg32
g33
sS'.thisTrialN'
p2250
I3
sS'.thisN'
p2251
I288
sS'.thisIndex'
p2252
I3
sg15
(lp2253
S'k'
asg30
g31
sg16
S'Y'
sg14
I6
sg19
Nsg94
I3
sa(dp2254
g17
(lp2255
S'd'
asg18
S'N'
sS'.thisRepN'
p2256
I19
sg20
S'Y'
sg32
g33
sS'.thisTrialN'
p2257
I4
sS'.thisN'
p2258
I289
sS'.thisIndex'
p2259
I3
sg15
(lp2260
S'd'
asg30
g31
sg16
S'Y'
sg14
I6
sg19
Nsg94
I3
sa(dp2261
g17
(lp2262
S'k'
asg18
S'N'
sS'.thisRepN'
p2263
I19
sg20
S'Y'
sg32
g33
sS'.thisTrialN'
p2264
I5
sS'.thisN'
p2265
I290
sS'.thisIndex'
p2266
I1
sg15
(lp2267
S'k'
asg30
g31
sg16
S'Y'
sg14
I6
sg19
Nsg94
I1
sa(dp2268
g17
(lp2269
S'k'
asg18
S'N'
sS'.thisRepN'
p2270
I19
sg20
S'N'
sg32
g33
sS'.thisTrialN'
p2271
I6
sS'.thisN'
p2272
I291
sS'.thisIndex'
p2273
I9
sg15
(lp2274
S'k'
asg30
g31
sg16
S'Y'
sg14
I6
sg19
(lp2275
S'space'
p2276
asg94
I9
sa(dp2277
g17
(lp2278
S'k'
asg18
S'N'
sS'.thisRepN'
p2279
I19
sg20
S'N'
sg32
g33
sS'.thisTrialN'
p2280
I7
sS'.thisN'
p2281
I292
sS'.thisIndex'
p2282
I9
sg15
(lp2283
S'k'
asg30
g31
sg16
S'Y'
sg14
I6
sg19
(lp2284
S'k'
asg94
I9
sa(dp2285
g17
(lp2286
S'd'
asg18
S'Y'
sS'.thisRepN'
p2287
I19
sg20
S'Y'
sg32
g33
sS'.thisTrialN'
p2288
I8
sS'.thisN'
p2289
I293
sS'.thisIndex'
p2290
I1
sg15
(lp2291
S'd'
asg30
g31
sg16
S'Y'
sg14
I6
sg19
(lp2292
S'space'
p2293
asg94
I1
sa(dp2294
g17
(lp2295
S'd'
asg18
S'Y'
sS'.thisRepN'
p2296
I19
sg20
S'Y'
sg32
g33
sS'.thisTrialN'
p2297
I9
sS'.thisN'
p2298
I294
sS'.thisIndex'
p2299
I1
sg15
(lp2300
S'd'
asg30
g31
sg16
S'Y'
sg14
I6
sg19
(lp2301
S'space'
p2302
asg94
I1
sa(dp2303
g17
(lp2304
S'k'
asg18
S'N'
sS'.thisRepN'
p2305
I19
sg20
S'Y'
sg32
g33
sS'.thisTrialN'
p2306
I10
sS'.thisN'
p2307
I295
sS'.thisIndex'
p2308
I14
sg15
(lp2309
S'd'
asg30
g31
sg16
S'N'
sg14
I6
sg19
Nsg94
I14
sa(dp2310
g17
(lp2311
S'd'
asg18
S'N'
sS'.thisRepN'
p2312
I19
sg20
S'Y'
sg32
g33
sS'.thisTrialN'
p2313
I11
sS'.thisN'
p2314
I296
sS'.thisIndex'
p2315
I13
sg15
(lp2316
S'd'
asg30
g31
sg16
S'Y'
sg14
I6
sg19
Nsg94
I13
sa(dp2317
g17
(lp2318
S'k'
asg18
S'Y'
sS'.thisRepN'
p2319
I19
sg20
S'N'
sg32
g33
sS'.thisTrialN'
p2320
I12
sS'.thisN'
p2321
I297
sS'.thisIndex'
p2322
I7
sg15
(lp2323
S'k'
asg30
g31
sg16
S'Y'
sg14
I6
sg19
Nsg94
I7
sa(dp2324
g17
(lp2325
S'k'
asg18
S'N'
sS'.thisRepN'
p2326
I19
sg20
S'Y'
sg32
g33
sS'.thisTrialN'
p2327
I13
sS'.thisN'
p2328
I298
sS'.thisIndex'
p2329
I13
sg15
(lp2330
S'k'
asg30
g31
sg16
S'Y'
sg14
I6
sg19
Nsg94
I13
sa(dp2331
g17
(lp2332
S'k'
asg18
S'N'
sg22
I33
sS'.thisN'
p2333
I299
sg20
S'Y'
sg32
g33
sS'.thisTrialN'
p2334
I14
sS'.thisRepN'
p2335
I19
sg21
I48
sS'.thisIndex'
p2336
I10
sg23
I20
sg15
(lp2337
S'k'
asg30
g31
sg16
S'Y'
sg14
I6
sg19
Nsg94
I10
sa(dp2338
g17
(lp2339
S'k'
asg94
I5
sS'.thisRepN'
p2340
I20
sg30
g31
sg32
g33
sS'.thisTrialN'
p2341
I0
sS'.thisN'
p2342
I300
sS'.thisIndex'
p2343
I5
sg15
(lp2344
S'k'
asg16
S'Y'
sg14
I7
sa(dp2345
g17
(lp2346
S'k'
asg94
I6
sS'.thisRepN'
p2347
I20
sg30
g31
sg32
g33
sS'.thisTrialN'
p2348
I1
sS'.thisN'
p2349
I301
sS'.thisIndex'
p2350
I6
sg15
(lp2351
S'k'
asg16
S'Y'
sg14
I7
sa(dp2352
g17
(lp2353
S'k'
asg18
S'N'
sS'.thisRepN'
p2354
I20
sg20
S'Y'
sg32
g33
sS'.thisTrialN'
p2355
I2
sS'.thisN'
p2356
I302
sS'.thisIndex'
p2357
I3
sg15
(lp2358
S'k'
asg30
g31
sg16
S'Y'
sg14
I7
sg19
Nsg94
I3
sa(dp2359
g17
(lp2360
S'k'
asg18
S'N'
sS'.thisRepN'
p2361
I20
sg20
S'Y'
sg32
g33
sS'.thisTrialN'
p2362
I3
sS'.thisN'
p2363
I303
sS'.thisIndex'
p2364
I3
sg15
(lp2365
S'k'
asg30
g31
sg16
S'Y'
sg14
I7
sg19
Nsg94
I3
sa(dp2366
g17
(lp2367
S'k'
asg18
S'Y'
sS'.thisRepN'
p2368
I20
sg20
S'Y'
sg32
g33
sS'.thisTrialN'
p2369
I4
sS'.thisN'
p2370
I304
sS'.thisIndex'
p2371
I1
sg15
(lp2372
S'k'
asg30
g31
sg16
S'Y'
sg14
I7
sg19
(lp2373
S'space'
p2374
asg94
I1
sa(dp2375
g17
(lp2376
S'k'
asg18
S'N'
sS'.thisRepN'
p2377
I20
sg20
S'Y'
sg32
g33
sS'.thisTrialN'
p2378
I5
sS'.thisN'
p2379
I305
sS'.thisIndex'
p2380
I3
sg15
(lp2381
S'k'
asg30
g31
sg16
S'Y'
sg14
I7
sg19
Nsg94
I3
sa(dp2382
g17
(lp2383
S'k'
asg18
S'N'
sS'.thisRepN'
p2384
I20
sg20
S'Y'
sg32
g33
sS'.thisTrialN'
p2385
I6
sS'.thisN'
p2386
I306
sS'.thisIndex'
p2387
I11
sg15
(lp2388
S'k'
asg30
g31
sg16
S'Y'
sg14
I7
sg19
Nsg94
I11
sa(dp2389
g17
(lp2390
S'k'
asg18
S'N'
sS'.thisRepN'
p2391
I20
sg20
S'N'
sg32
g33
sS'.thisTrialN'
p2392
I7
sS'.thisN'
p2393
I307
sS'.thisIndex'
p2394
I8
sg15
(lp2395
S'k'
asg30
g31
sg16
S'Y'
sg14
I7
sg19
(lp2396
S'space'
p2397
asg94
I8
sa(dp2398
g17
(lp2399
S'd'
asg18
S'N'
sS'.thisRepN'
p2400
I20
sg20
S'Y'
sg32
g33
sS'.thisTrialN'
p2401
I8
sS'.thisN'
p2402
I308
sS'.thisIndex'
p2403
I8
sg15
(lp2404
S'd'
asg30
g31
sg16
S'Y'
sg14
I7
sg19
Nsg94
I8
sa(dp2405
g17
(lp2406
S'k'
asg18
S'N'
sS'.thisRepN'
p2407
I20
sg20
S'Y'
sg32
g33
sS'.thisTrialN'
p2408
I9
sS'.thisN'
p2409
I309
sS'.thisIndex'
p2410
I0
sg15
(lp2411
S'k'
asg30
g31
sg16
S'Y'
sg14
I7
sg19
Nsg94
I0
sa(dp2412
g17
(lp2413
S'd'
asg18
S'Y'
sS'.thisRepN'
p2414
I20
sg20
S'N'
sg32
g33
sS'.thisTrialN'
p2415
I10
sS'.thisN'
p2416
I310
sS'.thisIndex'
p2417
I12
sg15
(lp2418
S'd'
asg30
g31
sg16
S'Y'
sg14
I7
sg19
Nsg94
I12
sa(dp2419
g17
(lp2420
S'k'
asg18
S'N'
sS'.thisRepN'
p2421
I20
sg20
S'Y'
sg32
g33
sS'.thisTrialN'
p2422
I11
sS'.thisN'
p2423
I311
sS'.thisIndex'
p2424
I9
sg15
(lp2425
S'k'
asg30
g31
sg16
S'Y'
sg14
I7
sg19
Nsg94
I9
sa(dp2426
g17
(lp2427
S'd'
asg18
S'Y'
sS'.thisRepN'
p2428
I20
sg20
S'N'
sg32
g33
sS'.thisTrialN'
p2429
I12
sS'.thisN'
p2430
I312
sS'.thisIndex'
p2431
I1
sg15
(lp2432
S'd'
asg30
g31
sg16
S'Y'
sg14
I7
sg19
Nsg94
I1
sa(dp2433
g17
(lp2434
S'd'
asg18
S'N'
sS'.thisRepN'
p2435
I20
sg20
S'Y'
sg32
g33
sS'.thisTrialN'
p2436
I13
sS'.thisN'
p2437
I313
sS'.thisIndex'
p2438
I3
sg15
(lp2439
S'd'
asg30
g31
sg16
S'Y'
sg14
I7
sg19
Nsg94
I3
sa(dp2440
g17
(lp2441
S'd'
asg18
S'N'
sS'.thisRepN'
p2442
I20
sg20
S'Y'
sg32
g33
sS'.thisTrialN'
p2443
I14
sS'.thisN'
p2444
I314
sS'.thisIndex'
p2445
I12
sg15
(lp2446
S'd'
asg30
g31
sg16
S'Y'
sg14
I7
sg19
Nsg94
I12
sa(dp2447
g17
(lp2448
S'd'
asg18
S'Y'
sS'.thisRepN'
p2449
I21
sg20
S'Y'
sg32
g33
sS'.thisTrialN'
p2450
I0
sS'.thisN'
p2451
I315
sS'.thisIndex'
p2452
I1
sg15
(lp2453
S'd'
asg30
g31
sg16
S'Y'
sg14
I7
sg19
(lp2454
S'space'
p2455
asg94
I1
sa(dp2456
g17
(lp2457
S'k'
asg18
S'N'
sS'.thisRepN'
p2458
I21
sg20
S'Y'
sg32
g33
sS'.thisTrialN'
p2459
I1
sS'.thisN'
p2460
I316
sS'.thisIndex'
p2461
I5
sg15
(lp2462
S'k'
asg30
g31
sg16
S'Y'
sg14
I7
sg19
Nsg94
I5
sa(dp2463
g17
(lp2464
S'd'
asg18
S'N'
sS'.thisRepN'
p2465
I21
sg20
S'Y'
sg32
g33
sS'.thisTrialN'
p2466
I2
sS'.thisN'
p2467
I317
sS'.thisIndex'
p2468
I11
sg15
(lp2469
S'd'
asg30
g31
sg16
S'Y'
sg14
I7
sg19
Nsg94
I11
sa(dp2470
g17
(lp2471
S'd'
asg18
S'N'
sS'.thisRepN'
p2472
I21
sg20
S'Y'
sg32
g33
sS'.thisTrialN'
p2473
I3
sS'.thisN'
p2474
I318
sS'.thisIndex'
p2475
I10
sg15
(lp2476
S'd'
asg30
g31
sg16
S'Y'
sg14
I7
sg19
Nsg94
I10
sa(dp2477
g17
(lp2478
S'd'
asg18
S'N'
sS'.thisRepN'
p2479
I21
sg20
S'Y'
sg32
g33
sS'.thisTrialN'
p2480
I4
sS'.thisN'
p2481
I319
sS'.thisIndex'
p2482
I9
sg15
(lp2483
S'd'
asg30
g31
sg16
S'Y'
sg14
I7
sg19
Nsg94
I9
sa(dp2484
g17
(lp2485
S'd'
asg18
S'Y'
sS'.thisRepN'
p2486
I21
sg20
S'N'
sg32
g33
sS'.thisTrialN'
p2487
I5
sS'.thisN'
p2488
I320
sS'.thisIndex'
p2489
I9
sg15
(lp2490
S'd'
asg30
g31
sg16
S'Y'
sg14
I7
sg19
Nsg94
I9
sa(dp2491
g17
(lp2492
S'k'
asg18
S'N'
sS'.thisRepN'
p2493
I21
sg20
S'Y'
sg32
g33
sS'.thisTrialN'
p2494
I6
sS'.thisN'
p2495
I321
sS'.thisIndex'
p2496
I5
sg15
(lp2497
S'k'
asg30
g31
sg16
S'Y'
sg14
I7
sg19
Nsg94
I5
sa(dp2498
g17
(lp2499
S'd'
asg18
S'Y'
sS'.thisRepN'
p2500
I21
sg20
S'N'
sg32
g33
sS'.thisTrialN'
p2501
I7
sS'.thisN'
p2502
I322
sS'.thisIndex'
p2503
I11
sg15
(lp2504
S'd'
asg30
g31
sg16
S'Y'
sg14
I7
sg19
Nsg94
I11
sa(dp2505
g17
(lp2506
S'k'
asg18
S'Y'
sS'.thisRepN'
p2507
I21
sg20
S'N'
sg32
g33
sS'.thisTrialN'
p2508
I8
sS'.thisN'
p2509
I323
sS'.thisIndex'
p2510
I9
sg15
(lp2511
S'k'
asg30
g31
sg16
S'Y'
sg14
I7
sg19
Nsg94
I9
sa(dp2512
g17
(lp2513
S'd'
asg18
S'Y'
sS'.thisRepN'
p2514
I21
sg20
S'N'
sg32
g33
sS'.thisTrialN'
p2515
I9
sS'.thisN'
p2516
I324
sS'.thisIndex'
p2517
I4
sg15
(lp2518
S'd'
asg30
g31
sg16
S'Y'
sg14
I7
sg19
Nsg94
I4
sa(dp2519
g17
(lp2520
S'k'
asg18
S'N'
sS'.thisRepN'
p2521
I21
sg20
S'Y'
sg32
g33
sS'.thisTrialN'
p2522
I10
sS'.thisN'
p2523
I325
sS'.thisIndex'
p2524
I11
sg15
(lp2525
S'k'
asg30
g31
sg16
S'Y'
sg14
I7
sg19
Nsg94
I11
sa(dp2526
g17
(lp2527
S'k'
asg18
S'N'
sS'.thisRepN'
p2528
I21
sg20
S'Y'
sg32
g33
sS'.thisTrialN'
p2529
I11
sS'.thisN'
p2530
I326
sS'.thisIndex'
p2531
I11
sg15
(lp2532
S'k'
asg30
g31
sg16
S'Y'
sg14
I7
sg19
Nsg94
I11
sa(dp2533
g17
(lp2534
S'd'
asg18
S'N'
sS'.thisRepN'
p2535
I21
sg20
S'Y'
sg32
g33
sS'.thisTrialN'
p2536
I12
sS'.thisN'
p2537
I327
sS'.thisIndex'
p2538
I4
sg15
(lp2539
S'd'
asg30
g31
sg16
S'Y'
sg14
I7
sg19
Nsg94
I4
sa(dp2540
g17
(lp2541
S'd'
asg18
S'Y'
sS'.thisRepN'
p2542
I21
sg20
S'N'
sg32
g33
sS'.thisTrialN'
p2543
I13
sS'.thisN'
p2544
I328
sS'.thisIndex'
p2545
I13
sg15
(lp2546
S'd'
asg30
g31
sg16
S'Y'
sg14
I7
sg19
Nsg94
I13
sa(dp2547
g17
(lp2548
S'd'
asg18
S'N'
sS'.thisRepN'
p2549
I21
sg20
S'Y'
sg32
g33
sS'.thisTrialN'
p2550
I14
sS'.thisN'
p2551
I329
sS'.thisIndex'
p2552
I14
sg15
(lp2553
S'd'
asg30
g31
sg16
S'Y'
sg14
I7
sg19
Nsg94
I14
sa(dp2554
g17
(lp2555
S'k'
asg18
S'Y'
sS'.thisRepN'
p2556
I22
sg20
S'N'
sg32
g33
sS'.thisTrialN'
p2557
I0
sS'.thisN'
p2558
I330
sS'.thisIndex'
p2559
I3
sg15
(lp2560
S'k'
asg30
g31
sg16
S'Y'
sg14
I7
sg19
Nsg94
I3
sa(dp2561
g17
(lp2562
S'd'
asg18
S'N'
sS'.thisRepN'
p2563
I22
sg20
S'Y'
sg32
g33
sS'.thisTrialN'
p2564
I1
sS'.thisN'
p2565
I331
sS'.thisIndex'
p2566
I9
sg15
(lp2567
S'd'
asg30
g31
sg16
S'Y'
sg14
I7
sg19
Nsg94
I9
sa(dp2568
g17
(lp2569
S'k'
asg18
S'N'
sS'.thisRepN'
p2570
I22
sg20
S'Y'
sg32
g33
sS'.thisTrialN'
p2571
I2
sS'.thisN'
p2572
I332
sS'.thisIndex'
p2573
I1
sg15
(lp2574
S'k'
asg30
g31
sg16
S'Y'
sg14
I7
sg19
Nsg94
I1
sa(dp2575
g17
(lp2576
S'k'
asg18
S'Y'
sS'.thisRepN'
p2577
I22
sg20
S'Y'
sg32
g33
sS'.thisTrialN'
p2578
I3
sS'.thisN'
p2579
I333
sS'.thisIndex'
p2580
I14
sg15
(lp2581
S'k'
asg30
g31
sg16
S'Y'
sg14
I7
sg19
(lp2582
S'space'
p2583
asg94
I14
sa(dp2584
g17
(lp2585
S'd'
asg18
S'Y'
sS'.thisRepN'
p2586
I22
sg20
S'N'
sg32
g33
sS'.thisTrialN'
p2587
I4
sS'.thisN'
p2588
I334
sS'.thisIndex'
p2589
I11
sg15
(lp2590
S'd'
asg30
g31
sg16
S'Y'
sg14
I7
sg19
Nsg94
I11
sa(dp2591
g17
(lp2592
S'd'
asg18
S'N'
sS'.thisRepN'
p2593
I22
sg20
S'Y'
sg32
g33
sS'.thisTrialN'
p2594
I5
sS'.thisN'
p2595
I335
sS'.thisIndex'
p2596
I10
sg15
(lp2597
S'd'
asg30
g31
sg16
S'Y'
sg14
I7
sg19
Nsg94
I10
sa(dp2598
g17
(lp2599
S'k'
asg18
S'N'
sS'.thisRepN'
p2600
I22
sg20
S'Y'
sg32
g33
sS'.thisTrialN'
p2601
I6
sS'.thisN'
p2602
I336
sS'.thisIndex'
p2603
I13
sg15
(lp2604
S'k'
asg30
g31
sg16
S'Y'
sg14
I7
sg19
Nsg94
I13
sa(dp2605
g17
(lp2606
S'd'
asg18
S'N'
sS'.thisRepN'
p2607
I22
sg20
S'Y'
sg32
g33
sS'.thisTrialN'
p2608
I7
sS'.thisN'
p2609
I337
sS'.thisIndex'
p2610
I12
sg15
(lp2611
S'd'
asg30
g31
sg16
S'Y'
sg14
I7
sg19
Nsg94
I12
sa(dp2612
g17
(lp2613
S'd'
asg18
S'N'
sS'.thisRepN'
p2614
I22
sg20
S'Y'
sg32
g33
sS'.thisTrialN'
p2615
I8
sS'.thisN'
p2616
I338
sS'.thisIndex'
p2617
I5
sg15
(lp2618
S'd'
asg30
g31
sg16
S'Y'
sg14
I7
sg19
Nsg94
I5
sa(dp2619
g17
(lp2620
S'k'
asg18
S'Y'
sS'.thisRepN'
p2621
I22
sg20
S'N'
sg32
g33
sS'.thisTrialN'
p2622
I9
sS'.thisN'
p2623
I339
sS'.thisIndex'
p2624
I8
sg15
(lp2625
S'k'
asg30
g31
sg16
S'Y'
sg14
I7
sg19
Nsg94
I8
sa(dp2626
g17
(lp2627
S'd'
asg18
S'Y'
sS'.thisRepN'
p2628
I22
sg20
S'N'
sg32
g33
sS'.thisTrialN'
p2629
I10
sS'.thisN'
p2630
I340
sS'.thisIndex'
p2631
I5
sg15
(lp2632
S'd'
asg30
g31
sg16
S'Y'
sg14
I7
sg19
Nsg94
I5
sa(dp2633
g17
(lp2634
S'd'
asg18
S'N'
sS'.thisRepN'
p2635
I22
sg20
S'Y'
sg32
g33
sS'.thisTrialN'
p2636
I11
sS'.thisN'
p2637
I341
sS'.thisIndex'
p2638
I12
sg15
(lp2639
S'd'
asg30
g31
sg16
S'Y'
sg14
I7
sg19
Nsg94
I12
sa(dp2640
g17
(lp2641
S'd'
asg18
S'N'
sS'.thisRepN'
p2642
I22
sg20
S'Y'
sg32
g33
sS'.thisTrialN'
p2643
I12
sS'.thisN'
p2644
I342
sS'.thisIndex'
p2645
I13
sg15
(lp2646
S'd'
asg30
g31
sg16
S'Y'
sg14
I7
sg19
Nsg94
I13
sa(dp2647
g17
(lp2648
S'd'
asg18
S'N'
sS'.thisRepN'
p2649
I22
sg20
S'Y'
sg32
g33
sS'.thisTrialN'
p2650
I13
sS'.thisN'
p2651
I343
sS'.thisIndex'
p2652
I8
sg15
(lp2653
S'd'
asg30
g31
sg16
S'Y'
sg14
I7
sg19
Nsg94
I8
sa(dp2654
g17
(lp2655
S'd'
asg18
S'N'
sS'.thisRepN'
p2656
I22
sg20
S'Y'
sg32
g33
sS'.thisTrialN'
p2657
I14
sS'.thisN'
p2658
I344
sS'.thisIndex'
p2659
I6
sg15
(lp2660
S'd'
asg30
g31
sg16
S'Y'
sg14
I7
sg19
Nsg94
I6
sa(dp2661
g17
(lp2662
S'd'
asg18
S'Y'
sS'.thisRepN'
p2663
I23
sg20
S'Y'
sg32
g33
sS'.thisTrialN'
p2664
I0
sS'.thisN'
p2665
I345
sS'.thisIndex'
p2666
I7
sg15
(lp2667
S'd'
asg30
g31
sg16
S'Y'
sg14
I7
sg19
(lp2668
S'space'
p2669
asg94
I7
sa(dp2670
g17
(lp2671
S'k'
asg18
S'N'
sS'.thisRepN'
p2672
I23
sg20
S'Y'
sg32
g33
sS'.thisTrialN'
p2673
I1
sS'.thisN'
p2674
I346
sS'.thisIndex'
p2675
I0
sg15
(lp2676
S'k'
asg30
g31
sg16
S'Y'
sg14
I7
sg19
Nsg94
I0
sa(dp2677
g17
(lp2678
S'k'
asg18
S'N'
sS'.thisRepN'
p2679
I23
sg20
S'Y'
sg32
g33
sS'.thisTrialN'
p2680
I2
sS'.thisN'
p2681
I347
sS'.thisIndex'
p2682
I5
sg15
(lp2683
S'k'
asg30
g31
sg16
S'Y'
sg14
I7
sg19
Nsg94
I5
sa(dp2684
g17
(lp2685
S'd'
asg18
S'N'
sS'.thisRepN'
p2686
I23
sg20
S'Y'
sg32
g33
sS'.thisTrialN'
p2687
I3
sS'.thisN'
p2688
I348
sS'.thisIndex'
p2689
I9
sg15
(lp2690
S'd'
asg30
g31
sg16
S'Y'
sg14
I7
sg19
Nsg94
I9
sa(dp2691
g17
(lp2692
S'k'
asg18
S'Y'
sg22
I35
sS'.thisN'
p2693
I349
sg20
S'N'
sg32
g33
sS'.thisTrialN'
p2694
I4
sS'.thisRepN'
p2695
I23
sg21
I50
sS'.thisIndex'
p2696
I3
sg23
I16
sg15
(lp2697
S'k'
asg30
g31
sg16
S'Y'
sg14
I7
sg19
Nsg94
I3
sa(dp2698
g17
(lp2699
S'k'
asg94
I9
sS'.thisRepN'
p2700
I23
sg30
g31
sg32
g33
sS'.thisTrialN'
p2701
I5
sS'.thisN'
p2702
I350
sS'.thisIndex'
p2703
I9
sg15
(lp2704
S'k'
asg16
S'Y'
sg14
I8
sa(dp2705
g17
(lp2706
S'd'
asg94
I12
sS'.thisRepN'
p2707
I23
sg30
g31
sg32
g33
sS'.thisTrialN'
p2708
I6
sS'.thisN'
p2709
I351
sS'.thisIndex'
p2710
I12
sg15
(lp2711
S'd'
asg16
S'Y'
sg14
I8
sa(dp2712
g17
(lp2713
S'd'
asg18
S'Y'
sS'.thisRepN'
p2714
I23
sg20
S'N'
sg32
g33
sS'.thisTrialN'
p2715
I7
sS'.thisN'
p2716
I352
sS'.thisIndex'
p2717
I6
sg15
(lp2718
S'd'
asg30
g31
sg16
S'Y'
sg14
I8
sg19
Nsg94
I6
sa(dp2719
g17
(lp2720
S'k'
asg18
S'N'
sS'.thisRepN'
p2721
I23
sg20
S'Y'
sg32
g33
sS'.thisTrialN'
p2722
I8
sS'.thisN'
p2723
I353
sS'.thisIndex'
p2724
I0
sg15
(lp2725
S'k'
asg30
g31
sg16
S'Y'
sg14
I8
sg19
Nsg94
I0
sa(dp2726
g17
(lp2727
S'd'
asg18
S'N'
sS'.thisRepN'
p2728
I23
sg20
S'Y'
sg32
g33
sS'.thisTrialN'
p2729
I9
sS'.thisN'
p2730
I354
sS'.thisIndex'
p2731
I1
sg15
(lp2732
S'd'
asg30
g31
sg16
S'Y'
sg14
I8
sg19
Nsg94
I1
sa(dp2733
g17
(lp2734
S'k'
asg18
S'Y'
sS'.thisRepN'
p2735
I23
sg20
S'N'
sg32
g33
sS'.thisTrialN'
p2736
I10
sS'.thisN'
p2737
I355
sS'.thisIndex'
p2738
I14
sg15
(lp2739
S'k'
asg30
g31
sg16
S'Y'
sg14
I8
sg19
Nsg94
I14
sa(dp2740
g17
(lp2741
S'd'
asg18
S'Y'
sS'.thisRepN'
p2742
I23
sg20
S'N'
sg32
g33
sS'.thisTrialN'
p2743
I11
sS'.thisN'
p2744
I356
sS'.thisIndex'
p2745
I10
sg15
(lp2746
S'd'
asg30
g31
sg16
S'Y'
sg14
I8
sg19
Nsg94
I10
sa(dp2747
g17
(lp2748
S'd'
asg18
S'Y'
sS'.thisRepN'
p2749
I23
sg20
S'N'
sg32
g33
sS'.thisTrialN'
p2750
I12
sS'.thisN'
p2751
I357
sS'.thisIndex'
p2752
I0
sg15
(lp2753
S'd'
asg30
g31
sg16
S'Y'
sg14
I8
sg19
Nsg94
I0
sa(dp2754
g17
(lp2755
S'k'
asg18
S'Y'
sS'.thisRepN'
p2756
I23
sg20
S'N'
sg32
g33
sS'.thisTrialN'
p2757
I13
sS'.thisN'
p2758
I358
sS'.thisIndex'
p2759
I12
sg15
(lp2760
S'k'
asg30
g31
sg16
S'Y'
sg14
I8
sg19
Nsg94
I12
sa(dp2761
g17
(lp2762
S'd'
asg18
S'N'
sS'.thisRepN'
p2763
I23
sg20
S'Y'
sg32
g33
sS'.thisTrialN'
p2764
I14
sS'.thisN'
p2765
I359
sS'.thisIndex'
p2766
I10
sg15
(lp2767
S'd'
asg30
g31
sg16
S'Y'
sg14
I8
sg19
Nsg94
I10
sa(dp2768
g17
(lp2769
S'k'
asg18
S'N'
sS'.thisRepN'
p2770
I24
sg20
S'Y'
sg32
g33
sS'.thisTrialN'
p2771
I0
sS'.thisN'
p2772
I360
sS'.thisIndex'
p2773
I2
sg15
(lp2774
S'k'
asg30
g31
sg16
S'Y'
sg14
I8
sg19
Nsg94
I2
sa(dp2775
g17
(lp2776
S'd'
asg18
S'N'
sS'.thisRepN'
p2777
I24
sg20
S'Y'
sg32
g33
sS'.thisTrialN'
p2778
I1
sS'.thisN'
p2779
I361
sS'.thisIndex'
p2780
I9
sg15
(lp2781
S'd'
asg30
g31
sg16
S'Y'
sg14
I8
sg19
Nsg94
I9
sa(dp2782
g17
(lp2783
S'k'
asg18
S'N'
sS'.thisRepN'
p2784
I24
sg20
S'Y'
sg32
g33
sS'.thisTrialN'
p2785
I2
sS'.thisN'
p2786
I362
sS'.thisIndex'
p2787
I11
sg15
(lp2788
S'k'
asg30
g31
sg16
S'Y'
sg14
I8
sg19
Nsg94
I11
sa(dp2789
g17
(lp2790
S'd'
asg18
S'Y'
sS'.thisRepN'
p2791
I24
sg20
S'Y'
sg32
g33
sS'.thisTrialN'
p2792
I3
sS'.thisN'
p2793
I363
sS'.thisIndex'
p2794
I2
sg15
(lp2795
S'd'
asg30
g31
sg16
S'Y'
sg14
I8
sg19
(lp2796
S'space'
p2797
asg94
I2
sa(dp2798
g17
(lp2799
S'k'
asg18
S'Y'
sS'.thisRepN'
p2800
I24
sg20
S'N'
sg32
g33
sS'.thisTrialN'
p2801
I4
sS'.thisN'
p2802
I364
sS'.thisIndex'
p2803
I6
sg15
(lp2804
S'k'
asg30
g31
sg16
S'Y'
sg14
I8
sg19
Nsg94
I6
sa(dp2805
g17
(lp2806
S'k'
asg18
S'N'
sS'.thisRepN'
p2807
I24
sg20
S'Y'
sg32
g33
sS'.thisTrialN'
p2808
I5
sS'.thisN'
p2809
I365
sS'.thisIndex'
p2810
I12
sg15
(lp2811
S'k'
asg30
g31
sg16
S'Y'
sg14
I8
sg19
Nsg94
I12
sa(dp2812
g17
(lp2813
S'k'
asg18
S'Y'
sS'.thisRepN'
p2814
I24
sg20
S'Y'
sg32
g33
sS'.thisTrialN'
p2815
I6
sS'.thisN'
p2816
I366
sS'.thisIndex'
p2817
I6
sg15
(lp2818
S'k'
asg30
g31
sg16
S'Y'
sg14
I8
sg19
(lp2819
S'space'
p2820
asg94
I6
sa(dp2821
g17
(lp2822
S'k'
asg18
S'Y'
sS'.thisRepN'
p2823
I24
sg20
S'N'
sg32
g33
sS'.thisTrialN'
p2824
I7
sS'.thisN'
p2825
I367
sS'.thisIndex'
p2826
I5
sg15
(lp2827
S'k'
asg30
g31
sg16
S'Y'
sg14
I8
sg19
Nsg94
I5
sa(dp2828
g17
(lp2829
S'k'
asg18
S'N'
sS'.thisRepN'
p2830
I24
sg20
S'Y'
sg32
g33
sS'.thisTrialN'
p2831
I8
sS'.thisN'
p2832
I368
sS'.thisIndex'
p2833
I9
sg15
(lp2834
S'k'
asg30
g31
sg16
S'Y'
sg14
I8
sg19
Nsg94
I9
sa(dp2835
g17
(lp2836
S'k'
asg18
S'N'
sS'.thisRepN'
p2837
I24
sg20
S'N'
sg32
g33
sS'.thisTrialN'
p2838
I9
sS'.thisN'
p2839
I369
sS'.thisIndex'
p2840
I9
sg15
(lp2841
S'k'
asg30
g31
sg16
S'Y'
sg14
I8
sg19
(lp2842
S'space'
p2843
asg94
I9
sa(dp2844
g17
(lp2845
S'k'
asg18
S'Y'
sS'.thisRepN'
p2846
I24
sg20
S'N'
sg32
g33
sS'.thisTrialN'
p2847
I10
sS'.thisN'
p2848
I370
sS'.thisIndex'
p2849
I1
sg15
(lp2850
S'k'
asg30
g31
sg16
S'Y'
sg14
I8
sg19
Nsg94
I1
sa(dp2851
g17
(lp2852
S'd'
asg18
S'Y'
sS'.thisRepN'
p2853
I24
sg20
S'N'
sg32
g33
sS'.thisTrialN'
p2854
I11
sS'.thisN'
p2855
I371
sS'.thisIndex'
p2856
I8
sg15
(lp2857
S'd'
asg30
g31
sg16
S'Y'
sg14
I8
sg19
Nsg94
I8
sa(dp2858
g17
(lp2859
S'd'
asg18
S'Y'
sS'.thisRepN'
p2860
I24
sg20
S'Y'
sg32
g33
sS'.thisTrialN'
p2861
I12
sS'.thisN'
p2862
I372
sS'.thisIndex'
p2863
I4
sg15
(lp2864
S'd'
asg30
g31
sg16
S'Y'
sg14
I8
sg19
(lp2865
S'space'
p2866
asg94
I4
sa(dp2867
g17
(lp2868
S'k'
asg18
S'N'
sS'.thisRepN'
p2869
I24
sg20
S'Y'
sg32
g33
sS'.thisTrialN'
p2870
I13
sS'.thisN'
p2871
I373
sS'.thisIndex'
p2872
I14
sg15
(lp2873
S'k'
asg30
g31
sg16
S'Y'
sg14
I8
sg19
Nsg94
I14
sa(dp2874
g17
(lp2875
S'd'
asg18
S'N'
sS'.thisRepN'
p2876
I24
sg20
S'Y'
sg32
g33
sS'.thisTrialN'
p2877
I14
sS'.thisN'
p2878
I374
sS'.thisIndex'
p2879
I8
sg15
(lp2880
S'd'
asg30
g31
sg16
S'Y'
sg14
I8
sg19
Nsg94
I8
sa(dp2881
g17
(lp2882
S'd'
asg18
S'N'
sS'.thisRepN'
p2883
I25
sg20
S'N'
sg32
g33
sS'.thisTrialN'
p2884
I0
sS'.thisN'
p2885
I375
sS'.thisIndex'
p2886
I14
sg15
(lp2887
S'd'
asg30
g31
sg16
S'Y'
sg14
I8
sg19
(lp2888
S'space'
p2889
asg94
I14
sa(dp2890
g17
(lp2891
S'k'
asg18
S'N'
sS'.thisRepN'
p2892
I25
sg20
S'Y'
sg32
g33
sS'.thisTrialN'
p2893
I1
sS'.thisN'
p2894
I376
sS'.thisIndex'
p2895
I12
sg15
(lp2896
S'k'
asg30
g31
sg16
S'Y'
sg14
I8
sg19
Nsg94
I12
sa(dp2897
g17
(lp2898
S'k'
asg18
S'Y'
sS'.thisRepN'
p2899
I25
sg20
S'N'
sg32
g33
sS'.thisTrialN'
p2900
I2
sS'.thisN'
p2901
I377
sS'.thisIndex'
p2902
I5
sg15
(lp2903
S'k'
asg30
g31
sg16
S'Y'
sg14
I8
sg19
Nsg94
I5
sa(dp2904
g17
(lp2905
S'd'
asg18
S'Y'
sS'.thisRepN'
p2906
I25
sg20
S'N'
sg32
g33
sS'.thisTrialN'
p2907
I3
sS'.thisN'
p2908
I378
sS'.thisIndex'
p2909
I10
sg15
(lp2910
S'd'
asg30
g31
sg16
S'Y'
sg14
I8
sg19
Nsg94
I10
sa(dp2911
g17
(lp2912
S'd'
asg18
S'Y'
sS'.thisRepN'
p2913
I25
sg20
S'N'
sg32
g33
sS'.thisTrialN'
p2914
I4
sS'.thisN'
p2915
I379
sS'.thisIndex'
p2916
I11
sg15
(lp2917
S'd'
asg30
g31
sg16
S'Y'
sg14
I8
sg19
Nsg94
I11
sa(dp2918
g17
(lp2919
S'k'
asg18
S'N'
sS'.thisRepN'
p2920
I25
sg20
S'Y'
sg32
g33
sS'.thisTrialN'
p2921
I5
sS'.thisN'
p2922
I380
sS'.thisIndex'
p2923
I2
sg15
(lp2924
S'k'
asg30
g31
sg16
S'Y'
sg14
I8
sg19
Nsg94
I2
sa(dp2925
g17
(lp2926
S'k'
asg18
S'Y'
sS'.thisRepN'
p2927
I25
sg20
S'N'
sg32
g33
sS'.thisTrialN'
p2928
I6
sS'.thisN'
p2929
I381
sS'.thisIndex'
p2930
I6
sg15
(lp2931
S'k'
asg30
g31
sg16
S'Y'
sg14
I8
sg19
Nsg94
I6
sa(dp2932
g17
(lp2933
S'k'
asg18
S'N'
sS'.thisRepN'
p2934
I25
sg20
S'Y'
sg32
g33
sS'.thisTrialN'
p2935
I7
sS'.thisN'
p2936
I382
sS'.thisIndex'
p2937
I0
sg15
(lp2938
S'k'
asg30
g31
sg16
S'Y'
sg14
I8
sg19
Nsg94
I0
sa(dp2939
g17
(lp2940
S'd'
asg18
S'Y'
sS'.thisRepN'
p2941
I25
sg20
S'N'
sg32
g33
sS'.thisTrialN'
p2942
I8
sS'.thisN'
p2943
I383
sS'.thisIndex'
p2944
I14
sg15
(lp2945
S'd'
asg30
g31
sg16
S'Y'
sg14
I8
sg19
Nsg94
I14
sa(dp2946
g17
(lp2947
S'd'
asg18
S'N'
sS'.thisRepN'
p2948
I25
sg20
S'Y'
sg32
g33
sS'.thisTrialN'
p2949
I9
sS'.thisN'
p2950
I384
sS'.thisIndex'
p2951
I8
sg15
(lp2952
S'd'
asg30
g31
sg16
S'Y'
sg14
I8
sg19
Nsg94
I8
sa(dp2953
g17
(lp2954
S'd'
asg18
S'Y'
sS'.thisRepN'
p2955
I25
sg20
S'N'
sg32
g33
sS'.thisTrialN'
p2956
I10
sS'.thisN'
p2957
I385
sS'.thisIndex'
p2958
I13
sg15
(lp2959
S'd'
asg30
g31
sg16
S'Y'
sg14
I8
sg19
Nsg94
I13
sa(dp2960
g17
(lp2961
S'd'
asg18
S'Y'
sS'.thisRepN'
p2962
I25
sg20
S'N'
sg32
g33
sS'.thisTrialN'
p2963
I11
sS'.thisN'
p2964
I386
sS'.thisIndex'
p2965
I13
sg15
(lp2966
S'd'
asg30
g31
sg16
S'Y'
sg14
I8
sg19
Nsg94
I13
sa(dp2967
g17
(lp2968
S'k'
asg18
S'N'
sS'.thisRepN'
p2969
I25
sg20
S'Y'
sg32
g33
sS'.thisTrialN'
p2970
I12
sS'.thisN'
p2971
I387
sS'.thisIndex'
p2972
I3
sg15
(lp2973
S'k'
asg30
g31
sg16
S'Y'
sg14
I8
sg19
Nsg94
I3
sa(dp2974
g17
(lp2975
S'd'
asg18
S'Y'
sS'.thisRepN'
p2976
I25
sg20
S'N'
sg32
g33
sS'.thisTrialN'
p2977
I13
sS'.thisN'
p2978
I388
sS'.thisIndex'
p2979
I8
sg15
(lp2980
S'd'
asg30
g31
sg16
S'Y'
sg14
I8
sg19
Nsg94
I8
sa(dp2981
g17
(lp2982
S'k'
asg18
S'Y'
sS'.thisRepN'
p2983
I25
sg20
S'N'
sg32
g33
sS'.thisTrialN'
p2984
I14
sS'.thisN'
p2985
I389
sS'.thisIndex'
p2986
I14
sg15
(lp2987
S'k'
asg30
g31
sg16
S'Y'
sg14
I8
sg19
Nsg94
I14
sa(dp2988
g17
(lp2989
S'd'
asg18
S'Y'
sS'.thisRepN'
p2990
I26
sg20
S'N'
sg32
g33
sS'.thisTrialN'
p2991
I0
sS'.thisN'
p2992
I390
sS'.thisIndex'
p2993
I9
sg15
(lp2994
S'd'
asg30
g31
sg16
S'Y'
sg14
I8
sg19
Nsg94
I9
sa(dp2995
g17
(lp2996
S'd'
asg18
S'Y'
sS'.thisRepN'
p2997
I26
sg20
S'N'
sg32
g33
sS'.thisTrialN'
p2998
I1
sS'.thisN'
p2999
I391
sS'.thisIndex'
p3000
I13
sg15
(lp3001
S'k'
asg30
g31
sg16
S'N'
sg14
I8
sg19
Nsg94
I13
sa(dp3002
g17
(lp3003
S'd'
asg18
S'Y'
sS'.thisRepN'
p3004
I26
sg20
S'Y'
sg32
g33
sS'.thisTrialN'
p3005
I2
sS'.thisN'
p3006
I392
sS'.thisIndex'
p3007
I9
sg15
(lp3008
S'd'
asg30
g31
sg16
S'Y'
sg14
I8
sg19
(lp3009
S'space'
p3010
asg94
I9
sa(dp3011
g17
(lp3012
S'k'
asg18
S'N'
sS'.thisRepN'
p3013
I26
sg20
S'Y'
sg32
g33
sS'.thisTrialN'
p3014
I3
sS'.thisN'
p3015
I393
sS'.thisIndex'
p3016
I12
sg15
(lp3017
S'k'
asg30
g31
sg16
S'Y'
sg14
I8
sg19
Nsg94
I12
sa(dp3018
g17
(lp3019
S'd'
asg18
S'N'
sS'.thisRepN'
p3020
I26
sg20
S'Y'
sg32
g33
sS'.thisTrialN'
p3021
I4
sS'.thisN'
p3022
I394
sS'.thisIndex'
p3023
I2
sg15
(lp3024
S'd'
asg30
g31
sg16
S'Y'
sg14
I8
sg19
Nsg94
I2
sa(dp3025
g17
(lp3026
S'k'
asg18
S'Y'
sS'.thisRepN'
p3027
I26
sg20
S'N'
sg32
g33
sS'.thisTrialN'
p3028
I5
sS'.thisN'
p3029
I395
sS'.thisIndex'
p3030
I7
sg15
(lp3031
S'k'
asg30
g31
sg16
S'Y'
sg14
I8
sg19
Nsg94
I7
sa(dp3032
g17
(lp3033
S'k'
asg18
S'N'
sS'.thisRepN'
p3034
I26
sg20
S'Y'
sg32
g33
sS'.thisTrialN'
p3035
I6
sS'.thisN'
p3036
I396
sS'.thisIndex'
p3037
I4
sg15
(lp3038
S'k'
asg30
g31
sg16
S'Y'
sg14
I8
sg19
Nsg94
I4
sa(dp3039
g17
(lp3040
S'k'
asg18
S'N'
sS'.thisRepN'
p3041
I26
sg20
S'Y'
sg32
g33
sS'.thisTrialN'
p3042
I7
sS'.thisN'
p3043
I397
sS'.thisIndex'
p3044
I8
sg15
(lp3045
S'k'
asg30
g31
sg16
S'Y'
sg14
I8
sg19
Nsg94
I8
sa(dp3046
g17
(lp3047
S'k'
asg18
S'N'
sS'.thisRepN'
p3048
I26
sg20
S'Y'
sg32
g33
sS'.thisTrialN'
p3049
I8
sS'.thisN'
p3050
I398
sS'.thisIndex'
p3051
I14
sg15
(lp3052
S'k'
asg30
g31
sg16
S'Y'
sg14
I8
sg19
Nsg94
I14
sa(dp3053
g17
(lp3054
S'd'
asg18
S'N'
sg22
I25
sS'.thisN'
p3055
I399
sg20
S'Y'
sg32
g33
sS'.thisTrialN'
p3056
I9
sS'.thisRepN'
p3057
I26
sg21
I49
sS'.thisIndex'
p3058
I13
sg23
I25
sg15
(lp3059
S'd'
asg30
g31
sg16
S'Y'
sg14
I8
sg19
Nsg94
I13
sa(dp3060
g17
(lp3061
S'k'
asg94
I14
sS'.thisRepN'
p3062
I26
sg30
g31
sg32
g33
sS'.thisTrialN'
p3063
I10
sS'.thisN'
p3064
I400
sS'.thisIndex'
p3065
I14
sg15
(lp3066
S'd'
asg16
S'N'
sg14
I9
sa(dp3067
g17
(lp3068
S'd'
asg94
I3
sS'.thisRepN'
p3069
I26
sg30
g31
sg32
g33
sS'.thisTrialN'
p3070
I11
sS'.thisN'
p3071
I401
sS'.thisIndex'
p3072
I3
sg15
(lp3073
S'd'
asg16
S'Y'
sg14
I9
sa(dp3074
g17
(lp3075
S'k'
asg18
S'Y'
sS'.thisRepN'
p3076
I26
sg20
S'N'
sg32
g33
sS'.thisTrialN'
p3077
I12
sS'.thisN'
p3078
I402
sS'.thisIndex'
p3079
I13
sg15
(lp3080
S'k'
asg30
g31
sg16
S'Y'
sg14
I9
sg19
Nsg94
I13
sa(dp3081
g17
(lp3082
S'k'
asg18
S'N'
sS'.thisRepN'
p3083
I26
sg20
S'Y'
sg32
g33
sS'.thisTrialN'
p3084
I13
sS'.thisN'
p3085
I403
sS'.thisIndex'
p3086
I0
sg15
(lp3087
S'k'
asg30
g31
sg16
S'Y'
sg14
I9
sg19
Nsg94
I0
sa(dp3088
g17
(lp3089
S'k'
asg18
S'N'
sS'.thisRepN'
p3090
I26
sg20
S'Y'
sg32
g33
sS'.thisTrialN'
p3091
I14
sS'.thisN'
p3092
I404
sS'.thisIndex'
p3093
I0
sg15
(lp3094
S'd'
asg30
g31
sg16
S'N'
sg14
I9
sg19
Nsg94
I0
sa(dp3095
g17
(lp3096
S'k'
asg18
S'N'
sS'.thisRepN'
p3097
I27
sg20
S'Y'
sg32
g33
sS'.thisTrialN'
p3098
I0
sS'.thisN'
p3099
I405
sS'.thisIndex'
p3100
I2
sg15
(lp3101
S'k'
asg30
g31
sg16
S'Y'
sg14
I9
sg19
Nsg94
I2
sa(dp3102
g17
(lp3103
S'k'
asg18
S'N'
sS'.thisRepN'
p3104
I27
sg20
S'Y'
sg32
g33
sS'.thisTrialN'
p3105
I1
sS'.thisN'
p3106
I406
sS'.thisIndex'
p3107
I3
sg15
(lp3108
S'd'
asg30
g31
sg16
S'N'
sg14
I9
sg19
Nsg94
I3
sa(dp3109
g17
(lp3110
S'd'
asg18
S'Y'
sS'.thisRepN'
p3111
I27
sg20
S'N'
sg32
g33
sS'.thisTrialN'
p3112
I2
sS'.thisN'
p3113
I407
sS'.thisIndex'
p3114
I0
sg15
(lp3115
S'k'
asg30
g31
sg16
S'N'
sg14
I9
sg19
Nsg94
I0
sa(dp3116
g17
(lp3117
S'd'
asg18
S'N'
sS'.thisRepN'
p3118
I27
sg20
S'Y'
sg32
g33
sS'.thisTrialN'
p3119
I3
sS'.thisN'
p3120
I408
sS'.thisIndex'
p3121
I4
sg15
(lp3122
S'd'
asg30
g31
sg16
S'Y'
sg14
I9
sg19
Nsg94
I4
sa(dp3123
g17
(lp3124
S'k'
asg18
S'Y'
sS'.thisRepN'
p3125
I27
sg20
S'N'
sg32
g33
sS'.thisTrialN'
p3126
I4
sS'.thisN'
p3127
I409
sS'.thisIndex'
p3128
I8
sg15
(lp3129
S'k'
asg30
g31
sg16
S'Y'
sg14
I9
sg19
Nsg94
I8
sa(dp3130
g17
(lp3131
S'k'
asg18
S'N'
sS'.thisRepN'
p3132
I27
sg20
S'Y'
sg32
g33
sS'.thisTrialN'
p3133
I5
sS'.thisN'
p3134
I410
sS'.thisIndex'
p3135
I6
sg15
(lp3136
S'k'
asg30
g31
sg16
S'Y'
sg14
I9
sg19
Nsg94
I6
sa(dp3137
g17
(lp3138
S'd'
asg18
S'Y'
sS'.thisRepN'
p3139
I27
sg20
S'Y'
sg32
g33
sS'.thisTrialN'
p3140
I6
sS'.thisN'
p3141
I411
sS'.thisIndex'
p3142
I12
sg15
(lp3143
S'd'
asg30
g31
sg16
S'Y'
sg14
I9
sg19
(lp3144
S'space'
p3145
asg94
I12
sa(dp3146
g17
(lp3147
S'k'
asg18
S'N'
sS'.thisRepN'
p3148
I27
sg20
S'Y'
sg32
g33
sS'.thisTrialN'
p3149
I7
sS'.thisN'
p3150
I412
sS'.thisIndex'
p3151
I11
sg15
(lp3152
S'k'
asg30
g31
sg16
S'Y'
sg14
I9
sg19
Nsg94
I11
sa(dp3153
g17
(lp3154
S'k'
asg18
S'N'
sS'.thisRepN'
p3155
I27
sg20
S'Y'
sg32
g33
sS'.thisTrialN'
p3156
I8
sS'.thisN'
p3157
I413
sS'.thisIndex'
p3158
I14
sg15
(lp3159
S'k'
asg30
g31
sg16
S'Y'
sg14
I9
sg19
Nsg94
I14
sa(dp3160
g17
(lp3161
S'd'
asg18
S'Y'
sS'.thisRepN'
p3162
I27
sg20
S'N'
sg32
g33
sS'.thisTrialN'
p3163
I9
sS'.thisN'
p3164
I414
sS'.thisIndex'
p3165
I3
sg15
(lp3166
S'd'
asg30
g31
sg16
S'Y'
sg14
I9
sg19
Nsg94
I3
sa(dp3167
g17
(lp3168
S'd'
asg18
S'N'
sS'.thisRepN'
p3169
I27
sg20
S'Y'
sg32
g33
sS'.thisTrialN'
p3170
I10
sS'.thisN'
p3171
I415
sS'.thisIndex'
p3172
I5
sg15
(lp3173
S'd'
asg30
g31
sg16
S'Y'
sg14
I9
sg19
Nsg94
I5
sa(dp3174
g17
(lp3175
S'k'
asg18
S'Y'
sS'.thisRepN'
p3176
I27
sg20
S'N'
sg32
g33
sS'.thisTrialN'
p3177
I11
sS'.thisN'
p3178
I416
sS'.thisIndex'
p3179
I12
sg15
(lp3180
S'k'
asg30
g31
sg16
S'Y'
sg14
I9
sg19
Nsg94
I12
sa(dp3181
g17
(lp3182
S'd'
asg18
S'N'
sS'.thisRepN'
p3183
I27
sg20
S'Y'
sg32
g33
sS'.thisTrialN'
p3184
I12
sS'.thisN'
p3185
I417
sS'.thisIndex'
p3186
I3
sg15
(lp3187
S'd'
asg30
g31
sg16
S'Y'
sg14
I9
sg19
Nsg94
I3
sa(dp3188
g17
(lp3189
S'k'
asg18
S'N'
sS'.thisRepN'
p3190
I27
sg20
S'Y'
sg32
g33
sS'.thisTrialN'
p3191
I13
sS'.thisN'
p3192
I418
sS'.thisIndex'
p3193
I0
sg15
(lp3194
S'k'
asg30
g31
sg16
S'Y'
sg14
I9
sg19
Nsg94
I0
sa(dp3195
g17
(lp3196
S'k'
asg18
S'Y'
sS'.thisRepN'
p3197
I27
sg20
S'N'
sg32
g33
sS'.thisTrialN'
p3198
I14
sS'.thisN'
p3199
I419
sS'.thisIndex'
p3200
I8
sg15
(lp3201
S'k'
asg30
g31
sg16
S'Y'
sg14
I9
sg19
Nsg94
I8
sa(dp3202
g17
(lp3203
S'd'
asg18
S'Y'
sS'.thisRepN'
p3204
I28
sg20
S'N'
sg32
g33
sS'.thisTrialN'
p3205
I0
sS'.thisN'
p3206
I420
sS'.thisIndex'
p3207
I12
sg15
(lp3208
S'd'
asg30
g31
sg16
S'Y'
sg14
I9
sg19
Nsg94
I12
sa(dp3209
g17
(lp3210
S'k'
asg18
S'Y'
sS'.thisRepN'
p3211
I28
sg20
S'Y'
sg32
g33
sS'.thisTrialN'
p3212
I1
sS'.thisN'
p3213
I421
sS'.thisIndex'
p3214
I0
sg15
(lp3215
S'k'
asg30
g31
sg16
S'Y'
sg14
I9
sg19
(lp3216
S'space'
p3217
asg94
I0
sa(dp3218
g17
(lp3219
S'k'
asg18
S'Y'
sS'.thisRepN'
p3220
I28
sg20
S'N'
sg32
g33
sS'.thisTrialN'
p3221
I2
sS'.thisN'
p3222
I422
sS'.thisIndex'
p3223
I3
sg15
(lp3224
S'k'
asg30
g31
sg16
S'Y'
sg14
I9
sg19
Nsg94
I3
sa(dp3225
g17
(lp3226
S'k'
asg18
S'N'
sS'.thisRepN'
p3227
I28
sg20
S'Y'
sg32
g33
sS'.thisTrialN'
p3228
I3
sS'.thisN'
p3229
I423
sS'.thisIndex'
p3230
I2
sg15
(lp3231
S'k'
asg30
g31
sg16
S'Y'
sg14
I9
sg19
Nsg94
I2
sa(dp3232
g17
(lp3233
S'd'
asg18
S'Y'
sS'.thisRepN'
p3234
I28
sg20
S'N'
sg32
g33
sS'.thisTrialN'
p3235
I4
sS'.thisN'
p3236
I424
sS'.thisIndex'
p3237
I11
sg15
(lp3238
S'd'
asg30
g31
sg16
S'Y'
sg14
I9
sg19
Nsg94
I11
sa(dp3239
g17
(lp3240
S'd'
asg18
S'Y'
sS'.thisRepN'
p3241
I28
sg20
S'N'
sg32
g33
sS'.thisTrialN'
p3242
I5
sS'.thisN'
p3243
I425
sS'.thisIndex'
p3244
I4
sg15
(lp3245
S'd'
asg30
g31
sg16
S'Y'
sg14
I9
sg19
Nsg94
I4
sa(dp3246
g17
(lp3247
S'd'
asg18
S'N'
sS'.thisRepN'
p3248
I28
sg20
S'Y'
sg32
g33
sS'.thisTrialN'
p3249
I6
sS'.thisN'
p3250
I426
sS'.thisIndex'
p3251
I8
sg15
(lp3252
S'd'
asg30
g31
sg16
S'Y'
sg14
I9
sg19
Nsg94
I8
sa(dp3253
g17
(lp3254
S'k'
asg18
S'Y'
sS'.thisRepN'
p3255
I28
sg20
S'N'
sg32
g33
sS'.thisTrialN'
p3256
I7
sS'.thisN'
p3257
I427
sS'.thisIndex'
p3258
I1
sg15
(lp3259
S'k'
asg30
g31
sg16
S'Y'
sg14
I9
sg19
Nsg94
I1
sa(dp3260
g17
(lp3261
S'k'
asg18
S'Y'
sS'.thisRepN'
p3262
I28
sg20
S'Y'
sg32
g33
sS'.thisTrialN'
p3263
I8
sS'.thisN'
p3264
I428
sS'.thisIndex'
p3265
I8
sg15
(lp3266
S'k'
asg30
g31
sg16
S'Y'
sg14
I9
sg19
(lp3267
S'space'
p3268
asg94
I8
sa(dp3269
g17
(lp3270
S'k'
asg18
S'N'
sS'.thisRepN'
p3271
I28
sg20
S'Y'
sg32
g33
sS'.thisTrialN'
p3272
I9
sS'.thisN'
p3273
I429
sS'.thisIndex'
p3274
I3
sg15
(lp3275
S'k'
asg30
g31
sg16
S'Y'
sg14
I9
sg19
Nsg94
I3
sa(dp3276
g17
(lp3277
S'd'
asg18
S'N'
sS'.thisRepN'
p3278
I28
sg20
S'Y'
sg32
g33
sS'.thisTrialN'
p3279
I10
sS'.thisN'
p3280
I430
sS'.thisIndex'
p3281
I2
sg15
(lp3282
S'k'
asg30
g31
sg16
S'N'
sg14
I9
sg19
Nsg94
I2
sa(dp3283
g17
(lp3284
S'k'
asg18
S'Y'
sS'.thisRepN'
p3285
I28
sg20
S'Y'
sg32
g33
sS'.thisTrialN'
p3286
I11
sS'.thisN'
p3287
I431
sS'.thisIndex'
p3288
I14
sg15
(lp3289
S'k'
asg30
g31
sg16
S'Y'
sg14
I9
sg19
(lp3290
S'space'
p3291
asg94
I14
sa(dp3292
g17
(lp3293
S'k'
asg18
S'Y'
sS'.thisRepN'
p3294
I28
sg20
S'N'
sg32
g33
sS'.thisTrialN'
p3295
I12
sS'.thisN'
p3296
I432
sS'.thisIndex'
p3297
I4
sg15
(lp3298
S'k'
asg30
g31
sg16
S'Y'
sg14
I9
sg19
Nsg94
I4
sa(dp3299
g17
(lp3300
S'k'
asg18
S'N'
sS'.thisRepN'
p3301
I28
sg20
S'Y'
sg32
g33
sS'.thisTrialN'
p3302
I13
sS'.thisN'
p3303
I433
sS'.thisIndex'
p3304
I0
sg15
(lp3305
S'k'
asg30
g31
sg16
S'Y'
sg14
I9
sg19
Nsg94
I0
sa(dp3306
g17
(lp3307
S'd'
asg18
S'Y'
sS'.thisRepN'
p3308
I28
sg20
S'N'
sg32
g33
sS'.thisTrialN'
p3309
I14
sS'.thisN'
p3310
I434
sS'.thisIndex'
p3311
I6
sg15
(lp3312
S'd'
asg30
g31
sg16
S'Y'
sg14
I9
sg19
Nsg94
I6
sa(dp3313
g17
(lp3314
S'd'
asg18
S'N'
sS'.thisRepN'
p3315
I29
sg20
S'Y'
sg32
g33
sS'.thisTrialN'
p3316
I0
sS'.thisN'
p3317
I435
sS'.thisIndex'
p3318
I13
sg15
(lp3319
S'd'
asg30
g31
sg16
S'Y'
sg14
I9
sg19
Nsg94
I13
sa(dp3320
g17
(lp3321
S'k'
asg18
S'N'
sS'.thisRepN'
p3322
I29
sg20
S'Y'
sg32
g33
sS'.thisTrialN'
p3323
I1
sS'.thisN'
p3324
I436
sS'.thisIndex'
p3325
I6
sg15
(lp3326
S'k'
asg30
g31
sg16
S'Y'
sg14
I9
sg19
Nsg94
I6
sa(dp3327
g17
(lp3328
S'k'
asg18
S'N'
sS'.thisRepN'
p3329
I29
sg20
S'Y'
sg32
g33
sS'.thisTrialN'
p3330
I2
sS'.thisN'
p3331
I437
sS'.thisIndex'
p3332
I10
sg15
(lp3333
S'k'
asg30
g31
sg16
S'Y'
sg14
I9
sg19
Nsg94
I10
sa(dp3334
g17
(lp3335
S'k'
asg18
S'N'
sS'.thisRepN'
p3336
I29
sg20
S'Y'
sg32
g33
sS'.thisTrialN'
p3337
I3
sS'.thisN'
p3338
I438
sS'.thisIndex'
p3339
I3
sg15
(lp3340
S'k'
asg30
g31
sg16
S'Y'
sg14
I9
sg19
Nsg94
I3
sa(dp3341
g17
(lp3342
S'k'
asg18
S'Y'
sS'.thisRepN'
p3343
I29
sg20
S'N'
sg32
g33
sS'.thisTrialN'
p3344
I4
sS'.thisN'
p3345
I439
sS'.thisIndex'
p3346
I4
sg15
(lp3347
S'k'
asg30
g31
sg16
S'Y'
sg14
I9
sg19
Nsg94
I4
sa(dp3348
g17
(lp3349
S'd'
asg18
S'N'
sS'.thisRepN'
p3350
I29
sg20
S'Y'
sg32
g33
sS'.thisTrialN'
p3351
I5
sS'.thisN'
p3352
I440
sS'.thisIndex'
p3353
I14
sg15
(lp3354
S'd'
asg30
g31
sg16
S'Y'
sg14
I9
sg19
Nsg94
I14
sa(dp3355
g17
(lp3356
S'k'
asg18
S'N'
sS'.thisRepN'
p3357
I29
sg20
S'Y'
sg32
g33
sS'.thisTrialN'
p3358
I6
sS'.thisN'
p3359
I441
sS'.thisIndex'
p3360
I1
sg15
(lp3361
S'k'
asg30
g31
sg16
S'Y'
sg14
I9
sg19
Nsg94
I1
sa(dp3362
g17
(lp3363
S'd'
asg18
S'Y'
sS'.thisRepN'
p3364
I29
sg20
S'N'
sg32
g33
sS'.thisTrialN'
p3365
I7
sS'.thisN'
p3366
I442
sS'.thisIndex'
p3367
I11
sg15
(lp3368
S'd'
asg30
g31
sg16
S'Y'
sg14
I9
sg19
Nsg94
I11
sa(dp3369
g17
(lp3370
S'k'
asg18
S'N'
sS'.thisRepN'
p3371
I29
sg20
S'Y'
sg32
g33
sS'.thisTrialN'
p3372
I8
sS'.thisN'
p3373
I443
sS'.thisIndex'
p3374
I8
sg15
(lp3375
S'k'
asg30
g31
sg16
S'Y'
sg14
I9
sg19
Nsg94
I8
sa(dp3376
g17
(lp3377
S'd'
asg18
S'N'
sS'.thisRepN'
p3378
I29
sg20
S'Y'
sg32
g33
sS'.thisTrialN'
p3379
I9
sS'.thisN'
p3380
I444
sS'.thisIndex'
p3381
I9
sg15
(lp3382
S'd'
asg30
g31
sg16
S'Y'
sg14
I9
sg19
Nsg94
I9
sa(dp3383
g17
(lp3384
S'k'
asg18
S'Y'
sS'.thisRepN'
p3385
I29
sg20
S'N'
sg32
g33
sS'.thisTrialN'
p3386
I10
sS'.thisN'
p3387
I445
sS'.thisIndex'
p3388
I3
sg15
(lp3389
S'k'
asg30
g31
sg16
S'Y'
sg14
I9
sg19
Nsg94
I3
sa(dp3390
g17
(lp3391
S'k'
asg18
S'Y'
sS'.thisRepN'
p3392
I29
sg20
S'N'
sg32
g33
sS'.thisTrialN'
p3393
I11
sS'.thisN'
p3394
I446
sS'.thisIndex'
p3395
I10
sg15
(lp3396
S'k'
asg30
g31
sg16
S'Y'
sg14
I9
sg19
Nsg94
I10
sa(dp3397
g17
(lp3398
S'd'
asg18
S'N'
sS'.thisRepN'
p3399
I29
sg20
S'Y'
sg32
g33
sS'.thisTrialN'
p3400
I12
sS'.thisN'
p3401
I447
sS'.thisIndex'
p3402
I1
sg15
(lp3403
S'd'
asg30
g31
sg16
S'Y'
sg14
I9
sg19
Nsg94
I1
sa(dp3404
g17
(lp3405
S'd'
asg18
S'N'
sS'.thisRepN'
p3406
I29
sg20
S'Y'
sg32
g33
sS'.thisTrialN'
p3407
I13
sS'.thisN'
p3408
I448
sS'.thisIndex'
p3409
I13
sg15
(lp3410
S'd'
asg30
g31
sg16
S'Y'
sg14
I9
sg19
Nsg94
I13
sa(dp3411
g17
(lp3412
S'k'
asg18
S'Y'
sg22
I30
sS'.thisN'
p3413
I449
sg20
S'N'
sg32
g33
sS'.thisTrialN'
p3414
I14
sS'.thisRepN'
p3415
I29
sg21
I45
sS'.thisIndex'
p3416
I11
sg23
I22
sg15
(lp3417
S'k'
asg30
g31
sg16
S'Y'
sg14
I9
sg19
Nsg94
I11
sa(dp3418
g17
(lp3419
S'k'
asg94
I5
sS'.thisRepN'
p3420
I30
sg30
g31
sg32
g33
sS'.thisTrialN'
p3421
I0
sS'.thisN'
p3422
I450
sS'.thisIndex'
p3423
I5
sg15
(lp3424
S'k'
asg16
S'Y'
sg14
I10
sa(dp3425
g17
(lp3426
S'd'
asg94
I13
sS'.thisRepN'
p3427
I30
sg30
g31
sg32
g33
sS'.thisTrialN'
p3428
I1
sS'.thisN'
p3429
I451
sS'.thisIndex'
p3430
I13
sg15
(lp3431
S'd'
asg16
S'Y'
sg14
I10
sa(dp3432
g17
(lp3433
S'k'
asg18
S'Y'
sS'.thisRepN'
p3434
I30
sg20
S'Y'
sg32
g33
sS'.thisTrialN'
p3435
I2
sS'.thisN'
p3436
I452
sS'.thisIndex'
p3437
I6
sg15
(lp3438
S'k'
asg30
g31
sg16
S'Y'
sg14
I10
sg19
(lp3439
S'space'
p3440
asg94
I6
sa(dp3441
g17
(lp3442
S'd'
asg18
S'Y'
sS'.thisRepN'
p3443
I30
sg20
S'Y'
sg32
g33
sS'.thisTrialN'
p3444
I3
sS'.thisN'
p3445
I453
sS'.thisIndex'
p3446
I9
sg15
(lp3447
S'd'
asg30
g31
sg16
S'Y'
sg14
I10
sg19
(lp3448
S'space'
p3449
asg94
I9
sa(dp3450
g17
(lp3451
S'k'
asg18
S'Y'
sS'.thisRepN'
p3452
I30
sg20
S'Y'
sg32
g33
sS'.thisTrialN'
p3453
I4
sS'.thisN'
p3454
I454
sS'.thisIndex'
p3455
I3
sg15
(lp3456
S'd'
asg30
g31
sg16
S'N'
sg14
I10
sg19
(lp3457
S'space'
p3458
asg94
I3
sa(dp3459
g17
(lp3460
S'k'
asg18
S'N'
sS'.thisRepN'
p3461
I30
sg20
S'Y'
sg32
g33
sS'.thisTrialN'
p3462
I5
sS'.thisN'
p3463
I455
sS'.thisIndex'
p3464
I1
sg15
(lp3465
S'k'
asg30
g31
sg16
S'Y'
sg14
I10
sg19
Nsg94
I1
sa(dp3466
g17
(lp3467
S'd'
asg18
S'N'
sS'.thisRepN'
p3468
I30
sg20
S'Y'
sg32
g33
sS'.thisTrialN'
p3469
I6
sS'.thisN'
p3470
I456
sS'.thisIndex'
p3471
I3
sg15
(lp3472
S'd'
asg30
g31
sg16
S'Y'
sg14
I10
sg19
Nsg94
I3
sa(dp3473
g17
(lp3474
S'd'
asg18
S'N'
sS'.thisRepN'
p3475
I30
sg20
S'Y'
sg32
g33
sS'.thisTrialN'
p3476
I7
sS'.thisN'
p3477
I457
sS'.thisIndex'
p3478
I5
sg15
(lp3479
S'd'
asg30
g31
sg16
S'Y'
sg14
I10
sg19
Nsg94
I5
sa(dp3480
g17
(lp3481
S'd'
asg18
S'Y'
sS'.thisRepN'
p3482
I30
sg20
S'N'
sg32
g33
sS'.thisTrialN'
p3483
I8
sS'.thisN'
p3484
I458
sS'.thisIndex'
p3485
I4
sg15
(lp3486
S'd'
asg30
g31
sg16
S'Y'
sg14
I10
sg19
Nsg94
I4
sa(dp3487
g17
(lp3488
S'd'
asg18
S'N'
sS'.thisRepN'
p3489
I30
sg20
S'Y'
sg32
g33
sS'.thisTrialN'
p3490
I9
sS'.thisN'
p3491
I459
sS'.thisIndex'
p3492
I7
sg15
(lp3493
S'd'
asg30
g31
sg16
S'Y'
sg14
I10
sg19
Nsg94
I7
sa(dp3494
g17
(lp3495
S'd'
asg18
S'N'
sS'.thisRepN'
p3496
I30
sg20
S'Y'
sg32
g33
sS'.thisTrialN'
p3497
I10
sS'.thisN'
p3498
I460
sS'.thisIndex'
p3499
I13
sg15
(lp3500
S'd'
asg30
g31
sg16
S'Y'
sg14
I10
sg19
Nsg94
I13
sa(dp3501
g17
(lp3502
S'k'
asg18
S'N'
sS'.thisRepN'
p3503
I30
sg20
S'Y'
sg32
g33
sS'.thisTrialN'
p3504
I11
sS'.thisN'
p3505
I461
sS'.thisIndex'
p3506
I12
sg15
(lp3507
S'd'
asg30
g31
sg16
S'N'
sg14
I10
sg19
Nsg94
I12
sa(dp3508
g17
(lp3509
S'd'
asg18
S'N'
sS'.thisRepN'
p3510
I30
sg20
S'Y'
sg32
g33
sS'.thisTrialN'
p3511
I12
sS'.thisN'
p3512
I462
sS'.thisIndex'
p3513
I3
sg15
(lp3514
S'd'
asg30
g31
sg16
S'Y'
sg14
I10
sg19
Nsg94
I3
sa(dp3515
g17
(lp3516
S'k'
asg18
S'Y'
sS'.thisRepN'
p3517
I30
sg20
S'N'
sg32
g33
sS'.thisTrialN'
p3518
I13
sS'.thisN'
p3519
I463
sS'.thisIndex'
p3520
I0
sg15
(lp3521
S'k'
asg30
g31
sg16
S'Y'
sg14
I10
sg19
Nsg94
I0
sa(dp3522
g17
(lp3523
S'k'
asg18
S'Y'
sS'.thisRepN'
p3524
I30
sg20
S'N'
sg32
g33
sS'.thisTrialN'
p3525
I14
sS'.thisN'
p3526
I464
sS'.thisIndex'
p3527
I5
sg15
(lp3528
S'k'
asg30
g31
sg16
S'Y'
sg14
I10
sg19
Nsg94
I5
sa(dp3529
g17
(lp3530
S'd'
asg18
S'N'
sS'.thisRepN'
p3531
I31
sg20
S'Y'
sg32
g33
sS'.thisTrialN'
p3532
I0
sS'.thisN'
p3533
I465
sS'.thisIndex'
p3534
I8
sg15
(lp3535
S'd'
asg30
g31
sg16
S'Y'
sg14
I10
sg19
Nsg94
I8
sa(dp3536
g17
(lp3537
S'k'
asg18
S'N'
sS'.thisRepN'
p3538
I31
sg20
S'Y'
sg32
g33
sS'.thisTrialN'
p3539
I1
sS'.thisN'
p3540
I466
sS'.thisIndex'
p3541
I7
sg15
(lp3542
S'k'
asg30
g31
sg16
S'Y'
sg14
I10
sg19
Nsg94
I7
sa(dp3543
g17
(lp3544
S'd'
asg18
S'Y'
sS'.thisRepN'
p3545
I31
sg20
S'Y'
sg32
g33
sS'.thisTrialN'
p3546
I2
sS'.thisN'
p3547
I467
sS'.thisIndex'
p3548
I0
sg15
(lp3549
S'd'
asg30
g31
sg16
S'Y'
sg14
I10
sg19
(lp3550
S'space'
p3551
asg94
I0
sa(dp3552
g17
(lp3553
S'k'
asg18
S'N'
sS'.thisRepN'
p3554
I31
sg20
S'Y'
sg32
g33
sS'.thisTrialN'
p3555
I3
sS'.thisN'
p3556
I468
sS'.thisIndex'
p3557
I10
sg15
(lp3558
S'k'
asg30
g31
sg16
S'Y'
sg14
I10
sg19
Nsg94
I10
sa(dp3559
g17
(lp3560
S'd'
asg18
S'N'
sS'.thisRepN'
p3561
I31
sg20
S'Y'
sg32
g33
sS'.thisTrialN'
p3562
I4
sS'.thisN'
p3563
I469
sS'.thisIndex'
p3564
I2
sg15
(lp3565
S'd'
asg30
g31
sg16
S'Y'
sg14
I10
sg19
Nsg94
I2
sa(dp3566
g17
(lp3567
S'd'
asg18
S'Y'
sS'.thisRepN'
p3568
I31
sg20
S'N'
sg32
g33
sS'.thisTrialN'
p3569
I5
sS'.thisN'
p3570
I470
sS'.thisIndex'
p3571
I7
sg15
(lp3572
S'd'
asg30
g31
sg16
S'Y'
sg14
I10
sg19
Nsg94
I7
sa(dp3573
g17
(lp3574
S'd'
asg18
S'N'
sS'.thisRepN'
p3575
I31
sg20
S'Y'
sg32
g33
sS'.thisTrialN'
p3576
I6
sS'.thisN'
p3577
I471
sS'.thisIndex'
p3578
I11
sg15
(lp3579
S'd'
asg30
g31
sg16
S'Y'
sg14
I10
sg19
Nsg94
I11
sa(dp3580
g17
(lp3581
S'k'
asg18
S'N'
sS'.thisRepN'
p3582
I31
sg20
S'Y'
sg32
g33
sS'.thisTrialN'
p3583
I7
sS'.thisN'
p3584
I472
sS'.thisIndex'
p3585
I0
sg15
(lp3586
S'k'
asg30
g31
sg16
S'Y'
sg14
I10
sg19
Nsg94
I0
sa(dp3587
g17
(lp3588
S'k'
asg18
S'Y'
sS'.thisRepN'
p3589
I31
sg20
S'N'
sg32
g33
sS'.thisTrialN'
p3590
I8
sS'.thisN'
p3591
I473
sS'.thisIndex'
p3592
I12
sg15
(lp3593
S'k'
asg30
g31
sg16
S'Y'
sg14
I10
sg19
Nsg94
I12
sa(dp3594
g17
(lp3595
S'k'
asg18
S'Y'
sS'.thisRepN'
p3596
I31
sg20
S'N'
sg32
g33
sS'.thisTrialN'
p3597
I9
sS'.thisN'
p3598
I474
sS'.thisIndex'
p3599
I12
sg15
(lp3600
S'k'
asg30
g31
sg16
S'Y'
sg14
I10
sg19
Nsg94
I12
sa(dp3601
g17
(lp3602
S'd'
asg18
S'Y'
sS'.thisRepN'
p3603
I31
sg20
S'Y'
sg32
g33
sS'.thisTrialN'
p3604
I10
sS'.thisN'
p3605
I475
sS'.thisIndex'
p3606
I7
sg15
(lp3607
S'd'
asg30
g31
sg16
S'Y'
sg14
I10
sg19
(lp3608
S'space'
p3609
asg94
I7
sa(dp3610
g17
(lp3611
S'k'
asg18
S'Y'
sS'.thisRepN'
p3612
I31
sg20
S'Y'
sg32
g33
sS'.thisTrialN'
p3613
I11
sS'.thisN'
p3614
I476
sS'.thisIndex'
p3615
I14
sg15
(lp3616
S'k'
asg30
g31
sg16
S'Y'
sg14
I10
sg19
(lp3617
S'space'
p3618
asg94
I14
sa(dp3619
g17
(lp3620
S'd'
asg18
S'N'
sS'.thisRepN'
p3621
I31
sg20
S'Y'
sg32
g33
sS'.thisTrialN'
p3622
I12
sS'.thisN'
p3623
I477
sS'.thisIndex'
p3624
I7
sg15
(lp3625
S'd'
asg30
g31
sg16
S'Y'
sg14
I10
sg19
Nsg94
I7
sa(dp3626
g17
(lp3627
S'k'
asg18
S'Y'
sS'.thisRepN'
p3628
I31
sg20
S'Y'
sg32
g33
sS'.thisTrialN'
p3629
I13
sS'.thisN'
p3630
I478
sS'.thisIndex'
p3631
I6
sg15
(lp3632
S'k'
asg30
g31
sg16
S'Y'
sg14
I10
sg19
(lp3633
S'space'
p3634
asg94
I6
sa(dp3635
g17
(lp3636
S'd'
asg18
S'N'
sS'.thisRepN'
p3637
I31
sg20
S'Y'
sg32
g33
sS'.thisTrialN'
p3638
I14
sS'.thisN'
p3639
I479
sS'.thisIndex'
p3640
I5
sg15
(lp3641
S'd'
asg30
g31
sg16
S'Y'
sg14
I10
sg19
Nsg94
I5
sa(dp3642
g17
(lp3643
S'k'
asg18
S'Y'
sS'.thisRepN'
p3644
I32
sg20
S'Y'
sg32
g33
sS'.thisTrialN'
p3645
I0
sS'.thisN'
p3646
I480
sS'.thisIndex'
p3647
I0
sg15
(lp3648
S'k'
asg30
g31
sg16
S'Y'
sg14
I10
sg19
(lp3649
S'space'
p3650
asg94
I0
sa(dp3651
g17
(lp3652
S'd'
asg18
S'N'
sS'.thisRepN'
p3653
I32
sg20
S'Y'
sg32
g33
sS'.thisTrialN'
p3654
I1
sS'.thisN'
p3655
I481
sS'.thisIndex'
p3656
I11
sg15
(lp3657
S'd'
asg30
g31
sg16
S'Y'
sg14
I10
sg19
Nsg94
I11
sa(dp3658
g17
(lp3659
S'k'
asg18
S'Y'
sS'.thisRepN'
p3660
I32
sg20
S'N'
sg32
g33
sS'.thisTrialN'
p3661
I2
sS'.thisN'
p3662
I482
sS'.thisIndex'
p3663
I9
sg15
(lp3664
S'k'
asg30
g31
sg16
S'Y'
sg14
I10
sg19
Nsg94
I9
sa(dp3665
g17
(lp3666
S'd'
asg18
S'N'
sS'.thisRepN'
p3667
I32
sg20
S'Y'
sg32
g33
sS'.thisTrialN'
p3668
I3
sS'.thisN'
p3669
I483
sS'.thisIndex'
p3670
I1
sg15
(lp3671
S'd'
asg30
g31
sg16
S'Y'
sg14
I10
sg19
Nsg94
I1
sa(dp3672
g17
(lp3673
S'k'
asg18
S'N'
sS'.thisRepN'
p3674
I32
sg20
S'Y'
sg32
g33
sS'.thisTrialN'
p3675
I4
sS'.thisN'
p3676
I484
sS'.thisIndex'
p3677
I7
sg15
(lp3678
S'k'
asg30
g31
sg16
S'Y'
sg14
I10
sg19
Nsg94
I7
sa(dp3679
g17
(lp3680
S'k'
asg18
S'N'
sS'.thisRepN'
p3681
I32
sg20
S'Y'
sg32
g33
sS'.thisTrialN'
p3682
I5
sS'.thisN'
p3683
I485
sS'.thisIndex'
p3684
I11
sg15
(lp3685
S'k'
asg30
g31
sg16
S'Y'
sg14
I10
sg19
Nsg94
I11
sa(dp3686
g17
(lp3687
S'd'
asg18
S'N'
sS'.thisRepN'
p3688
I32
sg20
S'Y'
sg32
g33
sS'.thisTrialN'
p3689
I6
sS'.thisN'
p3690
I486
sS'.thisIndex'
p3691
I6
sg15
(lp3692
S'd'
asg30
g31
sg16
S'Y'
sg14
I10
sg19
Nsg94
I6
sa(dp3693
g17
(lp3694
S'k'
asg18
S'N'
sS'.thisRepN'
p3695
I32
sg20
S'Y'
sg32
g33
sS'.thisTrialN'
p3696
I7
sS'.thisN'
p3697
I487
sS'.thisIndex'
p3698
I4
sg15
(lp3699
S'k'
asg30
g31
sg16
S'Y'
sg14
I10
sg19
Nsg94
I4
sa(dp3700
g17
(lp3701
S'k'
asg18
S'Y'
sS'.thisRepN'
p3702
I32
sg20
S'N'
sg32
g33
sS'.thisTrialN'
p3703
I8
sS'.thisN'
p3704
I488
sS'.thisIndex'
p3705
I12
sg15
(lp3706
S'k'
asg30
g31
sg16
S'Y'
sg14
I10
sg19
Nsg94
I12
sa(dp3707
g17
(lp3708
S'd'
asg18
S'Y'
sS'.thisRepN'
p3709
I32
sg20
S'N'
sg32
g33
sS'.thisTrialN'
p3710
I9
sS'.thisN'
p3711
I489
sS'.thisIndex'
p3712
I7
sg15
(lp3713
S'd'
asg30
g31
sg16
S'Y'
sg14
I10
sg19
Nsg94
I7
sa(dp3714
g17
(lp3715
S'k'
asg18
S'Y'
sS'.thisRepN'
p3716
I32
sg20
S'N'
sg32
g33
sS'.thisTrialN'
p3717
I10
sS'.thisN'
p3718
I490
sS'.thisIndex'
p3719
I14
sg15
(lp3720
S'k'
asg30
g31
sg16
S'Y'
sg14
I10
sg19
Nsg94
I14
sa(dp3721
g17
(lp3722
S'k'
asg18
S'N'
sS'.thisRepN'
p3723
I32
sg20
S'Y'
sg32
g33
sS'.thisTrialN'
p3724
I11
sS'.thisN'
p3725
I491
sS'.thisIndex'
p3726
I12
sg15
(lp3727
S'k'
asg30
g31
sg16
S'Y'
sg14
I10
sg19
Nsg94
I12
sa(dp3728
g17
(lp3729
S'k'
asg18
S'Y'
sS'.thisRepN'
p3730
I32
sg20
S'N'
sg32
g33
sS'.thisTrialN'
p3731
I12
sS'.thisN'
p3732
I492
sS'.thisIndex'
p3733
I4
sg15
(lp3734
S'd'
asg30
g31
sg16
S'N'
sg14
I10
sg19
Nsg94
I4
sa(dp3735
g17
(lp3736
S'd'
asg18
S'N'
sS'.thisRepN'
p3737
I32
sg20
S'Y'
sg32
g33
sS'.thisTrialN'
p3738
I13
sS'.thisN'
p3739
I493
sS'.thisIndex'
p3740
I2
sg15
(lp3741
S'd'
asg30
g31
sg16
S'Y'
sg14
I10
sg19
Nsg94
I2
sa(dp3742
g17
(lp3743
S'k'
asg18
S'Y'
sS'.thisRepN'
p3744
I32
sg20
S'N'
sg32
g33
sS'.thisTrialN'
p3745
I14
sS'.thisN'
p3746
I494
sS'.thisIndex'
p3747
I1
sg15
(lp3748
S'k'
asg30
g31
sg16
S'Y'
sg14
I10
sg19
Nsg94
I1
sa(dp3749
g17
(lp3750
S'd'
asg18
S'Y'
sS'.thisRepN'
p3751
I33
sg20
S'N'
sg32
g33
sS'.thisTrialN'
p3752
I0
sS'.thisN'
p3753
I495
sS'.thisIndex'
p3754
I10
sg15
(lp3755
S'd'
asg30
g31
sg16
S'Y'
sg14
I10
sg19
Nsg94
I10
sa(dp3756
g17
(lp3757
S'd'
asg18
S'Y'
sS'.thisRepN'
p3758
I33
sg20
S'N'
sg32
g33
sS'.thisTrialN'
p3759
I1
sS'.thisN'
p3760
I496
sS'.thisIndex'
p3761
I1
sg15
(lp3762
S'd'
asg30
g31
sg16
S'Y'
sg14
I10
sg19
Nsg94
I1
sa(dp3763
g17
(lp3764
S'k'
asg18
S'N'
sS'.thisRepN'
p3765
I33
sg20
S'Y'
sg32
g33
sS'.thisTrialN'
p3766
I2
sS'.thisN'
p3767
I497
sS'.thisIndex'
p3768
I2
sg15
(lp3769
S'k'
asg30
g31
sg16
S'Y'
sg14
I10
sg19
Nsg94
I2
sa(dp3770
g17
(lp3771
S'd'
asg18
S'N'
sS'.thisRepN'
p3772
I33
sg20
S'Y'
sg32
g33
sS'.thisTrialN'
p3773
I3
sS'.thisN'
p3774
I498
sS'.thisIndex'
p3775
I13
sg15
(lp3776
S'd'
asg30
g31
sg16
S'Y'
sg14
I10
sg19
Nsg94
I13
sa(dp3777
g17
(lp3778
S'k'
asg18
S'N'
sg22
I34
sS'.thisN'
p3779
I499
sg20
S'Y'
sg32
g33
sS'.thisTrialN'
p3780
I4
sS'.thisRepN'
p3781
I33
sg21
I47
sS'.thisIndex'
p3782
I2
sg23
I22
sg15
(lp3783
S'k'
asg30
g31
sg16
S'Y'
sg14
I10
sg19
Nsg94
I2
sa(dp3784
g17
(lp3785
S'k'
asS'.thisIndex'
p3786
I10
sS'.thisRepN'
p3787
I33
sg26
S'Y'
sg30
g31
sg32
g33
sS'.thisTrialN'
p3788
I5
sS'.thisN'
p3789
I500
sg25
S'Y'
sg24
S'Y'
sg15
(lp3790
S'd'
asg16
S'Y'
sg14
I11
sg94
I10
sa(dp3791
g17
(lp3792
S'd'
asS'.thisIndex'
p3793
I7
sS'.thisRepN'
p3794
I33
sg26
S'Y'
sg30
g31
sg32
g33
sS'.thisTrialN'
p3795
I6
sS'.thisN'
p3796
I501
sg25
S'Y'
sg15
(lp3797
S'k'
asg16
S'Y'
sg14
I11
sg94
I7
sa(dp3798
g17
(lp3799
S'd'
asg18
S'Y'
sS'.thisRepN'
p3800
I33
sg26
S'Y'
sg20
S'N'
sg32
g33
sS'.thisTrialN'
p3801
I7
sS'.thisN'
p3802
I502
sg25
S'Y'
sg15
(lp3803
S'k'
asg30
g31
sg16
S'Y'
sg14
I11
sg19
Nsg94
I5
sS'.thisIndex'
p3804
I5
sa(dp3805
g18
S'Y'
sS'.thisRepN'
p3806
I33
sg26
S'Y'
sg20
S'N'
sg32
g33
sS'.thisTrialN'
p3807
I8
sS'.thisN'
p3808
I503
sg25
S'Y'
sg15
Nsg30
g31
sg16
g99
sg14
I11
sg19
Nsg94
I1
sS'.thisIndex'
p3809
I1
sa(dp3810
g17
(lp3811
S'k'
asg18
S'Y'
sS'.thisRepN'
p3812
I33
sg26
S'Y'
sg20
S'N'
sg32
g33
sS'.thisTrialN'
p3813
I9
sS'.thisN'
p3814
I504
sg25
S'Y'
sg15
(lp3815
S'd'
asg30
g31
sg16
S'Y'
sg14
I11
sg19
(lp3816
S'k'
asg94
I5
sS'.thisIndex'
p3817
I5
sa(dp3818
g17
(lp3819
S'k'
asg18
S'Y'
sS'.thisRepN'
p3820
I33
sg26
S'Y'
sg20
S'Y'
sg32
g33
sS'.thisTrialN'
p3821
I10
sS'.thisN'
p3822
I505
sg25
S'Y'
sg15
(lp3823
S'd'
asg30
g31
sg16
S'Y'
sg14
I11
sg19
(lp3824
S'space'
p3825
asg94
I7
sS'.thisIndex'
p3826
I7
sa(dp3827
g17
(lp3828
S'd'
asg18
S'Y'
sS'.thisRepN'
p3829
I33
sg26
S'Y'
sg20
S'Y'
sg32
g33
sS'.thisTrialN'
p3830
I11
sS'.thisN'
p3831
I506
sg25
S'Y'
sg15
(lp3832
S'k'
asg30
g31
sg16
S'Y'
sg14
I11
sg19
(lp3833
S'space'
p3834
asg94
I7
sS'.thisIndex'
p3835
I7
sa(dp3836
g17
(lp3837
S'd'
asg18
S'N'
sS'.thisRepN'
p3838
I33
sg26
S'Y'
sg20
S'Y'
sg32
g33
sS'.thisTrialN'
p3839
I12
sS'.thisN'
p3840
I507
sg25
S'Y'
sg15
(lp3841
S'k'
asg30
g31
sg16
S'Y'
sg14
I11
sg19
Nsg94
I3
sS'.thisIndex'
p3842
I3
sa(dp3843
g17
(lp3844
S'd'
asg18
S'Y'
sS'.thisRepN'
p3845
I33
sg26
S'Y'
sg20
S'N'
sg32
g33
sS'.thisTrialN'
p3846
I13
sS'.thisN'
p3847
I508
sg25
S'Y'
sg15
(lp3848
S'k'
asg30
g31
sg16
S'Y'
sg14
I11
sg19
Nsg94
I14
sS'.thisIndex'
p3849
I14
sa(dp3850
g17
(lp3851
S'd'
asg18
S'N'
sS'.thisRepN'
p3852
I33
sg26
S'Y'
sg20
S'Y'
sg32
g33
sS'.thisTrialN'
p3853
I14
sS'.thisN'
p3854
I509
sg25
S'Y'
sg15
(lp3855
S'k'
asg30
g31
sg16
S'Y'
sg14
I11
sg19
Nsg94
I9
sS'.thisIndex'
p3856
I9
sa(dp3857
g17
(lp3858
S'k'
asg18
S'N'
sS'.thisRepN'
p3859
I34
sg26
S'Y'
sg20
S'Y'
sg32
g33
sS'.thisTrialN'
p3860
I0
sS'.thisN'
p3861
I510
sg25
S'Y'
sg15
(lp3862
S'd'
asg30
g31
sg16
S'Y'
sg14
I11
sg19
Nsg94
I5
sS'.thisIndex'
p3863
I5
sa(dp3864
g17
(lp3865
S'd'
asg18
S'N'
sS'.thisRepN'
p3866
I34
sg26
S'Y'
sg20
S'Y'
sg32
g33
sS'.thisTrialN'
p3867
I1
sS'.thisN'
p3868
I511
sg25
S'Y'
sg15
(lp3869
S'k'
asg30
g31
sg16
S'Y'
sg14
I11
sg19
Nsg94
I11
sS'.thisIndex'
p3870
I11
sa(dp3871
g17
(lp3872
S'd'
asg18
S'Y'
sS'.thisRepN'
p3873
I34
sg26
S'Y'
sg20
S'N'
sg32
g33
sS'.thisTrialN'
p3874
I2
sS'.thisN'
p3875
I512
sg25
S'Y'
sg15
(lp3876
S'k'
asg30
g31
sg16
S'Y'
sg14
I11
sg19
Nsg94
I4
sS'.thisIndex'
p3877
I4
sa(dp3878
g17
(lp3879
S'd'
asg18
S'N'
sS'.thisRepN'
p3880
I34
sg26
S'Y'
sg20
S'Y'
sg32
g33
sS'.thisTrialN'
p3881
I3
sS'.thisN'
p3882
I513
sg25
S'Y'
sg15
(lp3883
S'k'
asg30
g31
sg16
S'Y'
sg14
I11
sg19
Nsg94
I6
sS'.thisIndex'
p3884
I6
sa(dp3885
g17
(lp3886
S'k'
asg18
S'N'
sS'.thisRepN'
p3887
I34
sg26
S'Y'
sg20
S'Y'
sg32
g33
sS'.thisTrialN'
p3888
I4
sS'.thisN'
p3889
I514
sg25
S'Y'
sg15
(lp3890
S'd'
asg30
g31
sg16
S'Y'
sg14
I11
sg19
Nsg94
I14
sS'.thisIndex'
p3891
I14
sa(dp3892
g17
(lp3893
S'k'
asg18
S'N'
sS'.thisRepN'
p3894
I34
sg26
S'Y'
sg20
S'Y'
sg32
g33
sS'.thisTrialN'
p3895
I5
sS'.thisN'
p3896
I515
sg25
S'Y'
sg15
(lp3897
S'd'
asg30
g31
sg16
S'Y'
sg14
I11
sg19
Nsg94
I12
sS'.thisIndex'
p3898
I12
sa(dp3899
g17
(lp3900
S'k'
asg18
S'Y'
sS'.thisRepN'
p3901
I34
sg26
S'Y'
sg20
S'N'
sg32
g33
sS'.thisTrialN'
p3902
I6
sS'.thisN'
p3903
I516
sg25
S'Y'
sg15
(lp3904
S'd'
asg30
g31
sg16
S'Y'
sg14
I11
sg19
Nsg94
I14
sS'.thisIndex'
p3905
I14
sa(dp3906
g17
(lp3907
S'd'
asg18
S'N'
sS'.thisRepN'
p3908
I34
sg26
S'Y'
sg20
S'Y'
sg32
g33
sS'.thisTrialN'
p3909
I7
sS'.thisN'
p3910
I517
sg25
S'Y'
sg15
(lp3911
S'k'
asg30
g31
sg16
S'Y'
sg14
I11
sg19
Nsg94
I1
sS'.thisIndex'
p3912
I1
sa(dp3913
g17
(lp3914
S'd'
asg18
S'Y'
sS'.thisRepN'
p3915
I34
sg26
S'Y'
sg20
S'N'
sg32
g33
sS'.thisTrialN'
p3916
I8
sS'.thisN'
p3917
I518
sg25
S'Y'
sg15
(lp3918
S'k'
asg30
g31
sg16
S'Y'
sg14
I11
sg19
Nsg94
I5
sS'.thisIndex'
p3919
I5
sa(dp3920
g17
(lp3921
S'k'
asg18
S'Y'
sS'.thisRepN'
p3922
I34
sg26
S'Y'
sg20
S'Y'
sg32
g33
sS'.thisTrialN'
p3923
I9
sS'.thisN'
p3924
I519
sg25
S'Y'
sg15
(lp3925
S'd'
asg30
g31
sg16
S'Y'
sg14
I11
sg19
(lp3926
S'space'
p3927
asg94
I5
sS'.thisIndex'
p3928
I5
sa(dp3929
g17
(lp3930
S'k'
asg18
S'N'
sS'.thisRepN'
p3931
I34
sg26
S'Y'
sg20
S'Y'
sg32
g33
sS'.thisTrialN'
p3932
I10
sS'.thisN'
p3933
I520
sg25
S'Y'
sg15
(lp3934
S'd'
asg30
g31
sg16
S'Y'
sg14
I11
sg19
Nsg94
I3
sS'.thisIndex'
p3935
I3
sa(dp3936
g17
(lp3937
S'k'
asg18
S'N'
sS'.thisRepN'
p3938
I34
sg26
S'Y'
sg20
S'Y'
sg32
g33
sS'.thisTrialN'
p3939
I11
sS'.thisN'
p3940
I521
sg25
S'Y'
sg15
(lp3941
S'd'
asg30
g31
sg16
S'Y'
sg14
I11
sg19
Nsg94
I4
sS'.thisIndex'
p3942
I4
sa(dp3943
g17
(lp3944
S'k'
asg18
S'Y'
sS'.thisRepN'
p3945
I34
sg26
S'Y'
sg20
S'N'
sg32
g33
sS'.thisTrialN'
p3946
I12
sS'.thisN'
p3947
I522
sg25
S'Y'
sg15
(lp3948
S'd'
asg30
g31
sg16
S'Y'
sg14
I11
sg19
Nsg94
I4
sS'.thisIndex'
p3949
I4
sa(dp3950
g17
(lp3951
S'k'
asg18
S'Y'
sS'.thisRepN'
p3952
I34
sg26
S'Y'
sg20
S'N'
sg32
g33
sS'.thisTrialN'
p3953
I13
sS'.thisN'
p3954
I523
sg25
S'Y'
sg15
(lp3955
S'd'
asg30
g31
sg16
S'Y'
sg14
I11
sg19
Nsg94
I13
sS'.thisIndex'
p3956
I13
sa(dp3957
g17
(lp3958
S'k'
asg18
S'Y'
sS'.thisRepN'
p3959
I34
sg26
S'Y'
sg20
S'N'
sg32
g33
sS'.thisTrialN'
p3960
I14
sS'.thisN'
p3961
I524
sg25
S'Y'
sg15
(lp3962
S'd'
asg30
g31
sg16
S'Y'
sg14
I11
sg19
Nsg94
I1
sS'.thisIndex'
p3963
I1
sa(dp3964
g17
(lp3965
S'k'
asg18
S'N'
sS'.thisRepN'
p3966
I35
sg26
S'Y'
sg20
S'Y'
sg32
g33
sS'.thisTrialN'
p3967
I0
sS'.thisN'
p3968
I525
sg25
S'Y'
sg15
(lp3969
S'd'
asg30
g31
sg16
S'Y'
sg14
I11
sg19
Nsg94
I14
sS'.thisIndex'
p3970
I14
sa(dp3971
g18
S'Y'
sS'.thisRepN'
p3972
I35
sg26
S'Y'
sg20
S'N'
sg32
g33
sS'.thisTrialN'
p3973
I1
sS'.thisN'
p3974
I526
sg25
S'Y'
sg15
Nsg30
g31
sg16
g99
sg14
I11
sg19
Nsg94
I8
sS'.thisIndex'
p3975
I8
sa(dp3976
g17
(lp3977
S'd'
asg18
S'N'
sS'.thisRepN'
p3978
I35
sg26
S'Y'
sg20
S'Y'
sg32
g33
sS'.thisTrialN'
p3979
I2
sS'.thisN'
p3980
I527
sg25
S'Y'
sg15
(lp3981
S'k'
asg30
g31
sg16
S'Y'
sg14
I11
sg19
Nsg94
I4
sS'.thisIndex'
p3982
I4
sa(dp3983
g17
(lp3984
S'd'
asg18
S'Y'
sS'.thisRepN'
p3985
I35
sg26
S'Y'
sg20
S'N'
sg32
g33
sS'.thisTrialN'
p3986
I3
sS'.thisN'
p3987
I528
sg25
S'Y'
sg15
(lp3988
S'k'
asg30
g31
sg16
S'Y'
sg14
I11
sg19
Nsg94
I7
sS'.thisIndex'
p3989
I7
sa(dp3990
g17
(lp3991
S'd'
asg18
S'N'
sS'.thisRepN'
p3992
I35
sg26
S'Y'
sg20
S'Y'
sg32
g33
sS'.thisTrialN'
p3993
I4
sS'.thisN'
p3994
I529
sg25
S'Y'
sg15
(lp3995
S'k'
asg30
g31
sg16
S'Y'
sg14
I11
sg19
Nsg94
I11
sS'.thisIndex'
p3996
I11
sa(dp3997
g17
(lp3998
S'k'
asg18
S'N'
sS'.thisRepN'
p3999
I35
sg26
S'Y'
sg20
S'Y'
sg32
g33
sS'.thisTrialN'
p4000
I5
sS'.thisN'
p4001
I530
sg25
S'Y'
sg15
(lp4002
S'd'
asg30
g31
sg16
S'Y'
sg14
I11
sg19
Nsg94
I8
sS'.thisIndex'
p4003
I8
sa(dp4004
g17
(lp4005
S'k'
asg18
S'N'
sS'.thisRepN'
p4006
I35
sg26
S'Y'
sg20
S'Y'
sg32
g33
sS'.thisTrialN'
p4007
I6
sS'.thisN'
p4008
I531
sg25
S'Y'
sg15
(lp4009
S'd'
asg30
g31
sg16
S'Y'
sg14
I11
sg19
Nsg94
I3
sS'.thisIndex'
p4010
I3
sa(dp4011
g17
(lp4012
S'k'
asg18
S'N'
sS'.thisRepN'
p4013
I35
sg26
S'Y'
sg20
S'Y'
sg32
g33
sS'.thisTrialN'
p4014
I7
sS'.thisN'
p4015
I532
sg25
S'Y'
sg15
(lp4016
S'd'
asg30
g31
sg16
S'Y'
sg14
I11
sg19
Nsg94
I1
sS'.thisIndex'
p4017
I1
sa(dp4018
g17
(lp4019
S'k'
asg18
S'N'
sS'.thisRepN'
p4020
I35
sg26
S'Y'
sg20
S'Y'
sg32
g33
sS'.thisTrialN'
p4021
I8
sS'.thisN'
p4022
I533
sg25
S'Y'
sg15
(lp4023
S'd'
asg30
g31
sg16
S'Y'
sg14
I11
sg19
Nsg94
I13
sS'.thisIndex'
p4024
I13
sa(dp4025
g17
(lp4026
S'd'
asg18
S'Y'
sS'.thisRepN'
p4027
I35
sg26
S'Y'
sg20
S'N'
sg32
g33
sS'.thisTrialN'
p4028
I9
sS'.thisN'
p4029
I534
sg25
S'Y'
sg15
(lp4030
S'k'
asg30
g31
sg16
S'Y'
sg14
I11
sg19
Nsg94
I9
sS'.thisIndex'
p4031
I9
sa(dp4032
g17
(lp4033
S'd'
asg18
S'N'
sS'.thisRepN'
p4034
I35
sg26
S'Y'
sg20
S'Y'
sg32
g33
sS'.thisTrialN'
p4035
I10
sS'.thisN'
p4036
I535
sg25
S'Y'
sg15
(lp4037
S'k'
asg30
g31
sg16
S'Y'
sg14
I11
sg19
Nsg94
I12
sS'.thisIndex'
p4038
I12
sa(dp4039
g17
(lp4040
S'k'
asg18
S'Y'
sS'.thisRepN'
p4041
I35
sg26
S'Y'
sg20
S'N'
sg32
g33
sS'.thisTrialN'
p4042
I11
sS'.thisN'
p4043
I536
sg25
S'Y'
sg15
(lp4044
S'd'
asg30
g31
sg16
S'Y'
sg14
I11
sg19
Nsg94
I2
sS'.thisIndex'
p4045
I2
sa(dp4046
g17
(lp4047
S'k'
asg18
S'Y'
sS'.thisRepN'
p4048
I35
sg26
S'Y'
sg20
S'N'
sg32
g33
sS'.thisTrialN'
p4049
I12
sS'.thisN'
p4050
I537
sg25
S'Y'
sg15
(lp4051
S'd'
asg30
g31
sg16
S'Y'
sg14
I11
sg19
Nsg94
I3
sS'.thisIndex'
p4052
I3
sa(dp4053
g17
(lp4054
S'd'
asg18
S'N'
sS'.thisRepN'
p4055
I35
sg26
S'Y'
sg20
S'Y'
sg32
g33
sS'.thisTrialN'
p4056
I13
sS'.thisN'
p4057
I538
sg25
S'Y'
sg15
(lp4058
S'k'
asg30
g31
sg16
S'Y'
sg14
I11
sg19
Nsg94
I10
sS'.thisIndex'
p4059
I10
sa(dp4060
g17
(lp4061
S'd'
asg18
S'N'
sS'.thisRepN'
p4062
I35
sg26
S'Y'
sg20
S'Y'
sg32
g33
sS'.thisTrialN'
p4063
I14
sS'.thisN'
p4064
I539
sg25
S'Y'
sg15
(lp4065
S'k'
asg30
g31
sg16
S'Y'
sg14
I11
sg19
Nsg94
I0
sS'.thisIndex'
p4066
I0
sa(dp4067
g17
(lp4068
S'd'
asg18
S'N'
sS'.thisRepN'
p4069
I36
sg26
S'Y'
sg20
S'Y'
sg32
g33
sS'.thisTrialN'
p4070
I0
sS'.thisN'
p4071
I540
sg25
S'Y'
sg15
(lp4072
S'k'
asg30
g31
sg16
S'Y'
sg14
I11
sg19
Nsg94
I6
sS'.thisIndex'
p4073
I6
sa(dp4074
g17
(lp4075
S'k'
asg18
S'Y'
sS'.thisRepN'
p4076
I36
sg26
S'Y'
sg20
S'N'
sg32
g33
sS'.thisTrialN'
p4077
I1
sS'.thisN'
p4078
I541
sg25
S'Y'
sg15
(lp4079
S'd'
asg30
g31
sg16
S'Y'
sg14
I11
sg19
Nsg94
I9
sS'.thisIndex'
p4080
I9
sa(dp4081
g17
(lp4082
S'k'
asg18
S'Y'
sS'.thisRepN'
p4083
I36
sg26
S'Y'
sg20
S'N'
sg32
g33
sS'.thisTrialN'
p4084
I2
sS'.thisN'
p4085
I542
sg25
S'Y'
sg15
(lp4086
S'k'
asg30
g31
sg16
S'N'
sg14
I11
sg19
Nsg94
I6
sS'.thisIndex'
p4087
I6
sa(dp4088
g17
(lp4089
S'd'
asg18
S'N'
sS'.thisRepN'
p4090
I36
sg26
S'Y'
sg20
S'Y'
sg32
g33
sS'.thisTrialN'
p4091
I3
sS'.thisN'
p4092
I543
sg25
S'Y'
sg15
(lp4093
S'k'
asg30
g31
sg16
S'Y'
sg14
I11
sg19
Nsg94
I9
sS'.thisIndex'
p4094
I9
sa(dp4095
g17
(lp4096
S'k'
asg18
S'Y'
sS'.thisRepN'
p4097
I36
sg26
S'Y'
sg20
S'N'
sg32
g33
sS'.thisTrialN'
p4098
I4
sS'.thisN'
p4099
I544
sg25
S'Y'
sg15
(lp4100
S'd'
asg30
g31
sg16
S'Y'
sg14
I11
sg19
Nsg94
I5
sS'.thisIndex'
p4101
I5
sa(dp4102
g17
(lp4103
S'd'
asg18
S'N'
sS'.thisRepN'
p4104
I36
sg26
S'Y'
sg20
S'Y'
sg32
g33
sS'.thisTrialN'
p4105
I5
sS'.thisN'
p4106
I545
sg25
S'Y'
sg15
(lp4107
S'k'
asg30
g31
sg16
S'Y'
sg14
I11
sg19
Nsg94
I7
sS'.thisIndex'
p4108
I7
sa(dp4109
g17
(lp4110
S'd'
asg18
S'N'
sS'.thisRepN'
p4111
I36
sg26
S'Y'
sg20
S'Y'
sg32
g33
sS'.thisTrialN'
p4112
I6
sS'.thisN'
p4113
I546
sg25
S'Y'
sg15
(lp4114
S'k'
asg30
g31
sg16
S'Y'
sg14
I11
sg19
Nsg94
I13
sS'.thisIndex'
p4115
I13
sa(dp4116
g17
(lp4117
S'k'
asg18
S'N'
sS'.thisRepN'
p4118
I36
sg26
S'Y'
sg20
S'Y'
sg32
g33
sS'.thisTrialN'
p4119
I7
sS'.thisN'
p4120
I547
sg25
S'Y'
sg15
(lp4121
S'd'
asg30
g31
sg16
S'Y'
sg14
I11
sg19
Nsg94
I2
sS'.thisIndex'
p4122
I2
sa(dp4123
g17
(lp4124
S'd'
asg18
S'N'
sS'.thisRepN'
p4125
I36
sg26
S'Y'
sg20
S'Y'
sg32
g33
sS'.thisTrialN'
p4126
I8
sS'.thisN'
p4127
I548
sg25
S'Y'
sg15
(lp4128
S'k'
asg30
g31
sg16
S'Y'
sg14
I11
sg19
Nsg94
I8
sS'.thisIndex'
p4129
I8
sa(dp4130
g17
(lp4131
S'd'
asg18
S'Y'
sg22
I29
sg26
S'Y'
sS'.thisN'
p4132
I549
sg20
S'N'
sg32
g33
sS'.thisTrialN'
p4133
I9
sS'.thisRepN'
p4134
I36
sg21
I47
sg25
S'Y'
sg23
I22
sg15
(lp4135
S'k'
asg30
g31
sg16
S'Y'
sg14
I11
sg19
Nsg94
I3
sS'.thisIndex'
p4136
I3
sa(dp4137
g17
(lp4138
S'd'
asS'.thisIndex'
p4139
I7
sS'.thisRepN'
p4140
I36
sg26
S'Y'
sg30
g31
sg32
g33
sS'.thisTrialN'
p4141
I10
sS'.thisN'
p4142
I550
sg25
S'Y'
sg15
(lp4143
S'k'
asg16
S'Y'
sg14
I12
sg94
I7
sa(dp4144
g17
(lp4145
S'd'
asS'.thisIndex'
p4146
I5
sS'.thisRepN'
p4147
I36
sg26
S'Y'
sg30
g31
sg32
g33
sS'.thisTrialN'
p4148
I11
sS'.thisN'
p4149
I551
sg25
S'Y'
sg15
(lp4150
S'k'
asg16
S'Y'
sg14
I12
sg94
I5
sa(dp4151
g17
(lp4152
S'd'
asg18
S'Y'
sS'.thisRepN'
p4153
I36
sg26
S'Y'
sg20
S'Y'
sg32
g33
sS'.thisTrialN'
p4154
I12
sS'.thisN'
p4155
I552
sg25
S'Y'
sg15
(lp4156
S'k'
asg30
g31
sg16
S'Y'
sg14
I12
sg19
(lp4157
S'space'
p4158
asg94
I10
sS'.thisIndex'
p4159
I10
sa(dp4160
g17
(lp4161
S'd'
asg18
S'N'
sS'.thisRepN'
p4162
I36
sg26
S'Y'
sg20
S'Y'
sg32
g33
sS'.thisTrialN'
p4163
I13
sS'.thisN'
p4164
I553
sg25
S'Y'
sg15
(lp4165
S'k'
asg30
g31
sg16
S'Y'
sg14
I12
sg19
Nsg94
I6
sS'.thisIndex'
p4166
I6
sa(dp4167
g17
(lp4168
S'd'
asg18
S'Y'
sS'.thisRepN'
p4169
I36
sg26
S'Y'
sg20
S'N'
sg32
g33
sS'.thisTrialN'
p4170
I14
sS'.thisN'
p4171
I554
sg25
S'Y'
sg15
(lp4172
S'k'
asg30
g31
sg16
S'Y'
sg14
I12
sg19
Nsg94
I7
sS'.thisIndex'
p4173
I7
sa(dp4174
g17
(lp4175
S'd'
asg18
S'Y'
sS'.thisRepN'
p4176
I37
sg26
S'Y'
sg20
S'Y'
sg32
g33
sS'.thisTrialN'
p4177
I0
sS'.thisN'
p4178
I555
sg25
S'Y'
sg15
(lp4179
S'k'
asg30
g31
sg16
S'Y'
sg14
I12
sg19
(lp4180
S'space'
p4181
asg94
I13
sS'.thisIndex'
p4182
I13
sa(dp4183
g17
(lp4184
S'k'
asg18
S'N'
sS'.thisRepN'
p4185
I37
sg26
S'Y'
sg20
S'N'
sg32
g33
sS'.thisTrialN'
p4186
I1
sS'.thisN'
p4187
I556
sg25
S'Y'
sg15
(lp4188
S'd'
asg30
g31
sg16
S'Y'
sg14
I12
sg19
(lp4189
S'space'
p4190
asg94
I6
sS'.thisIndex'
p4191
I6
sa(dp4192
g17
(lp4193
S'k'
asg18
S'N'
sS'.thisRepN'
p4194
I37
sg26
S'Y'
sg20
S'Y'
sg32
g33
sS'.thisTrialN'
p4195
I2
sS'.thisN'
p4196
I557
sg25
S'Y'
sg15
(lp4197
S'd'
asg30
g31
sg16
S'Y'
sg14
I12
sg19
Nsg94
I8
sS'.thisIndex'
p4198
I8
sa(dp4199
g17
(lp4200
S'k'
asg18
S'Y'
sS'.thisRepN'
p4201
I37
sg26
S'Y'
sg20
S'Y'
sg32
g33
sS'.thisTrialN'
p4202
I3
sS'.thisN'
p4203
I558
sg25
S'Y'
sg15
(lp4204
S'd'
asg30
g31
sg16
S'Y'
sg14
I12
sg19
(lp4205
S'space'
p4206
asg94
I7
sS'.thisIndex'
p4207
I7
sa(dp4208
g17
(lp4209
S'd'
asg18
S'Y'
sS'.thisRepN'
p4210
I37
sg26
S'Y'
sg20
S'Y'
sg32
g33
sS'.thisTrialN'
p4211
I4
sS'.thisN'
p4212
I559
sg25
S'Y'
sg15
(lp4213
S'k'
asg30
g31
sg16
S'Y'
sg14
I12
sg19
(lp4214
S'space'
p4215
asg94
I11
sS'.thisIndex'
p4216
I11
sa(dp4217
g17
(lp4218
S'k'
asg18
S'N'
sS'.thisRepN'
p4219
I37
sg26
S'Y'
sg20
S'Y'
sg32
g33
sS'.thisTrialN'
p4220
I5
sS'.thisN'
p4221
I560
sg25
S'Y'
sg15
(lp4222
S'd'
asg30
g31
sg16
S'Y'
sg14
I12
sg19
Nsg94
I14
sS'.thisIndex'
p4223
I14
sa(dp4224
g17
(lp4225
S'k'
asg18
S'Y'
sS'.thisRepN'
p4226
I37
sg26
S'Y'
sg20
S'N'
sg32
g33
sS'.thisTrialN'
p4227
I6
sS'.thisN'
p4228
I561
sg25
S'Y'
sg15
(lp4229
S'd'
asg30
g31
sg16
S'Y'
sg14
I12
sg19
Nsg94
I11
sS'.thisIndex'
p4230
I11
sa(dp4231
g17
(lp4232
S'd'
asg18
S'N'
sS'.thisRepN'
p4233
I37
sg26
S'Y'
sg20
S'Y'
sg32
g33
sS'.thisTrialN'
p4234
I7
sS'.thisN'
p4235
I562
sg25
S'Y'
sg15
(lp4236
S'k'
asg30
g31
sg16
S'Y'
sg14
I12
sg19
Nsg94
I3
sS'.thisIndex'
p4237
I3
sa(dp4238
g17
(lp4239
S'k'
asg18
S'N'
sS'.thisRepN'
p4240
I37
sg26
S'Y'
sg20
S'Y'
sg32
g33
sS'.thisTrialN'
p4241
I8
sS'.thisN'
p4242
I563
sg25
S'Y'
sg15
(lp4243
S'd'
asg30
g31
sg16
S'Y'
sg14
I12
sg19
Nsg94
I9
sS'.thisIndex'
p4244
I9
sa(dp4245
g17
(lp4246
S'd'
asg18
S'Y'
sS'.thisRepN'
p4247
I37
sg26
S'Y'
sg20
S'N'
sg32
g33
sS'.thisTrialN'
p4248
I9
sS'.thisN'
p4249
I564
sg25
S'Y'
sg15
(lp4250
S'd'
asg30
g31
sg16
S'N'
sg14
I12
sg19
Nsg94
I14
sS'.thisIndex'
p4251
I14
sa(dp4252
g17
(lp4253
S'd'
asg18
S'Y'
sS'.thisRepN'
p4254
I37
sg26
S'Y'
sg20
S'Y'
sg32
g33
sS'.thisTrialN'
p4255
I10
sS'.thisN'
p4256
I565
sg25
S'Y'
sg15
(lp4257
S'k'
asg30
g31
sg16
S'Y'
sg14
I12
sg19
(lp4258
S'space'
p4259
asg94
I0
sS'.thisIndex'
p4260
I0
sa(dp4261
g17
(lp4262
S'k'
asg18
S'N'
sS'.thisRepN'
p4263
I37
sg26
S'Y'
sg20
S'Y'
sg32
g33
sS'.thisTrialN'
p4264
I11
sS'.thisN'
p4265
I566
sg25
S'Y'
sg15
(lp4266
S'd'
asg30
g31
sg16
S'Y'
sg14
I12
sg19
Nsg94
I2
sS'.thisIndex'
p4267
I2
sa(dp4268
g17
(lp4269
S'd'
asg18
S'N'
sS'.thisRepN'
p4270
I37
sg26
S'Y'
sg20
S'Y'
sg32
g33
sS'.thisTrialN'
p4271
I12
sS'.thisN'
p4272
I567
sg25
S'Y'
sg15
(lp4273
S'k'
asg30
g31
sg16
S'Y'
sg14
I12
sg19
Nsg94
I4
sS'.thisIndex'
p4274
I4
sa(dp4275
g17
(lp4276
S'd'
asg18
S'Y'
sS'.thisRepN'
p4277
I37
sg26
S'Y'
sg20
S'Y'
sg32
g33
sS'.thisTrialN'
p4278
I13
sS'.thisN'
p4279
I568
sg25
S'Y'
sg15
(lp4280
S'k'
asg30
g31
sg16
S'Y'
sg14
I12
sg19
(lp4281
S'space'
p4282
asg94
I4
sS'.thisIndex'
p4283
I4
sa(dp4284
g17
(lp4285
S'k'
asg18
S'Y'
sS'.thisRepN'
p4286
I37
sg26
S'Y'
sg20
S'N'
sg32
g33
sS'.thisTrialN'
p4287
I14
sS'.thisN'
p4288
I569
sg25
S'Y'
sg15
(lp4289
S'd'
asg30
g31
sg16
S'Y'
sg14
I12
sg19
Nsg94
I12
sS'.thisIndex'
p4290
I12
sa(dp4291
g17
(lp4292
S'd'
asg18
S'N'
sS'.thisRepN'
p4293
I38
sg26
S'Y'
sg20
S'N'
sg32
g33
sS'.thisTrialN'
p4294
I0
sS'.thisN'
p4295
I570
sg25
S'Y'
sg15
(lp4296
S'k'
asg30
g31
sg16
S'Y'
sg14
I12
sg19
(lp4297
S'space'
p4298
asg94
I2
sS'.thisIndex'
p4299
I2
sa(dp4300
g17
(lp4301
S'k'
asg18
S'N'
sS'.thisRepN'
p4302
I38
sg26
S'Y'
sg20
S'N'
sg32
g33
sS'.thisTrialN'
p4303
I1
sS'.thisN'
p4304
I571
sg25
S'Y'
sg15
(lp4305
S'd'
asg30
g31
sg16
S'Y'
sg14
I12
sg19
(lp4306
S'space'
p4307
asg94
I4
sS'.thisIndex'
p4308
I4
sa(dp4309
g17
(lp4310
S'd'
asg18
S'Y'
sS'.thisRepN'
p4311
I38
sg26
S'Y'
sg20
S'N'
sg32
g33
sS'.thisTrialN'
p4312
I2
sS'.thisN'
p4313
I572
sg25
S'Y'
sg15
(lp4314
S'k'
asg30
g31
sg16
S'Y'
sg14
I12
sg19
Nsg94
I10
sS'.thisIndex'
p4315
I10
sa(dp4316
g17
(lp4317
S'd'
asg18
S'N'
sS'.thisRepN'
p4318
I38
sg26
S'Y'
sg20
S'Y'
sg32
g33
sS'.thisTrialN'
p4319
I3
sS'.thisN'
p4320
I573
sg25
S'Y'
sg15
(lp4321
S'k'
asg30
g31
sg16
S'Y'
sg14
I12
sg19
Nsg94
I9
sS'.thisIndex'
p4322
I9
sa(dp4323
g17
(lp4324
S'k'
asg18
S'Y'
sS'.thisRepN'
p4325
I38
sg26
S'Y'
sg20
S'Y'
sg32
g33
sS'.thisTrialN'
p4326
I4
sS'.thisN'
p4327
I574
sg25
S'Y'
sg15
(lp4328
S'd'
asg30
g31
sg16
S'Y'
sg14
I12
sg19
(lp4329
S'space'
p4330
asg94
I14
sS'.thisIndex'
p4331
I14
sa(dp4332
g17
(lp4333
S'd'
asg18
S'N'
sS'.thisRepN'
p4334
I38
sg26
S'Y'
sg20
S'Y'
sg32
g33
sS'.thisTrialN'
p4335
I5
sS'.thisN'
p4336
I575
sg25
S'Y'
sg15
(lp4337
S'k'
asg30
g31
sg16
S'Y'
sg14
I12
sg19
Nsg94
I2
sS'.thisIndex'
p4338
I2
sa(dp4339
g17
(lp4340
S'k'
asg18
S'Y'
sS'.thisRepN'
p4341
I38
sg26
S'Y'
sg20
S'N'
sg32
g33
sS'.thisTrialN'
p4342
I6
sS'.thisN'
p4343
I576
sg25
S'Y'
sg15
(lp4344
S'k'
asg30
g31
sg16
S'N'
sg14
I12
sg19
Nsg94
I13
sS'.thisIndex'
p4345
I13
sa(dp4346
g17
(lp4347
S'd'
asg18
S'N'
sS'.thisRepN'
p4348
I38
sg26
S'Y'
sg20
S'Y'
sg32
g33
sS'.thisTrialN'
p4349
I7
sS'.thisN'
p4350
I577
sg25
S'Y'
sg15
(lp4351
S'k'
asg30
g31
sg16
S'Y'
sg14
I12
sg19
Nsg94
I2
sS'.thisIndex'
p4352
I2
sa(dp4353
g17
(lp4354
S'k'
asg18
S'Y'
sS'.thisRepN'
p4355
I38
sg26
S'Y'
sg20
S'N'
sg32
g33
sS'.thisTrialN'
p4356
I8
sS'.thisN'
p4357
I578
sg25
S'Y'
sg15
(lp4358
S'd'
asg30
g31
sg16
S'Y'
sg14
I12
sg19
Nsg94
I1
sS'.thisIndex'
p4359
I1
sa(dp4360
g17
(lp4361
S'k'
asg18
S'Y'
sS'.thisRepN'
p4362
I38
sg26
S'Y'
sg20
S'N'
sg32
g33
sS'.thisTrialN'
p4363
I9
sS'.thisN'
p4364
I579
sg25
S'Y'
sg15
(lp4365
S'd'
asg30
g31
sg16
S'Y'
sg14
I12
sg19
Nsg94
I4
sS'.thisIndex'
p4366
I4
sa(dp4367
g18
S'Y'
sS'.thisRepN'
p4368
I38
sg26
S'Y'
sg20
S'Y'
sg32
g33
sS'.thisTrialN'
p4369
I10
sS'.thisN'
p4370
I580
sg25
S'Y'
sg15
Nsg30
g31
sg16
g99
sg14
I12
sg19
(lp4371
S'space'
p4372
asg94
I6
sS'.thisIndex'
p4373
I6
sa(dp4374
g17
(lp4375
S'd'
asg18
S'Y'
sS'.thisRepN'
p4376
I38
sg26
S'Y'
sg20
S'N'
sg32
g33
sS'.thisTrialN'
p4377
I11
sS'.thisN'
p4378
I581
sg25
S'Y'
sg15
(lp4379
S'k'
asg30
g31
sg16
S'Y'
sg14
I12
sg19
Nsg94
I7
sS'.thisIndex'
p4380
I7
sa(dp4381
g17
(lp4382
S'd'
asg18
S'N'
sS'.thisRepN'
p4383
I38
sg26
S'Y'
sg20
S'Y'
sg32
g33
sS'.thisTrialN'
p4384
I12
sS'.thisN'
p4385
I582
sg25
S'Y'
sg15
(lp4386
S'k'
asg30
g31
sg16
S'Y'
sg14
I12
sg19
Nsg94
I11
sS'.thisIndex'
p4387
I11
sa(dp4388
g17
(lp4389
S'k'
asg18
S'N'
sS'.thisRepN'
p4390
I38
sg26
S'Y'
sg20
S'Y'
sg32
g33
sS'.thisTrialN'
p4391
I13
sS'.thisN'
p4392
I583
sg25
S'Y'
sg15
(lp4393
S'd'
asg30
g31
sg16
S'Y'
sg14
I12
sg19
Nsg94
I14
sS'.thisIndex'
p4394
I14
sa(dp4395
g17
(lp4396
S'k'
asg18
S'N'
sS'.thisRepN'
p4397
I38
sg26
S'Y'
sg20
S'Y'
sg32
g33
sS'.thisTrialN'
p4398
I14
sS'.thisN'
p4399
I584
sg25
S'Y'
sg15
(lp4400
S'k'
asg30
g31
sg16
S'N'
sg14
I12
sg19
Nsg94
I7
sS'.thisIndex'
p4401
I7
sa(dp4402
g17
(lp4403
S'd'
asg18
S'N'
sS'.thisRepN'
p4404
I39
sg26
S'Y'
sg20
S'Y'
sg32
g33
sS'.thisTrialN'
p4405
I0
sS'.thisN'
p4406
I585
sg25
S'Y'
sg15
(lp4407
S'k'
asg30
g31
sg16
S'Y'
sg14
I12
sg19
Nsg94
I2
sS'.thisIndex'
p4408
I2
sa(dp4409
g17
(lp4410
S'k'
asg18
S'N'
sS'.thisRepN'
p4411
I39
sg26
S'Y'
sg20
S'Y'
sg32
g33
sS'.thisTrialN'
p4412
I1
sS'.thisN'
p4413
I586
sg25
S'Y'
sg15
(lp4414
S'd'
asg30
g31
sg16
S'Y'
sg14
I12
sg19
Nsg94
I2
sS'.thisIndex'
p4415
I2
sa(dp4416
g17
(lp4417
S'd'
asg18
S'Y'
sS'.thisRepN'
p4418
I39
sg26
S'Y'
sg20
S'Y'
sg32
g33
sS'.thisTrialN'
p4419
I2
sS'.thisN'
p4420
I587
sg25
S'Y'
sg15
(lp4421
S'k'
asg30
g31
sg16
S'Y'
sg14
I12
sg19
(lp4422
S'space'
p4423
asg94
I14
sS'.thisIndex'
p4424
I14
sa(dp4425
g17
(lp4426
S'k'
asg18
S'Y'
sS'.thisRepN'
p4427
I39
sg26
S'Y'
sg20
S'Y'
sg32
g33
sS'.thisTrialN'
p4428
I3
sS'.thisN'
p4429
I588
sg25
S'Y'
sg15
(lp4430
S'd'
asg30
g31
sg16
S'Y'
sg14
I12
sg19
(lp4431
S'space'
p4432
asg94
I5
sS'.thisIndex'
p4433
I5
sa(dp4434
g17
(lp4435
S'k'
asg18
S'N'
sS'.thisRepN'
p4436
I39
sg26
S'Y'
sg20
S'Y'
sg32
g33
sS'.thisTrialN'
p4437
I4
sS'.thisN'
p4438
I589
sg25
S'Y'
sg15
(lp4439
S'k'
asg30
g31
sg16
S'N'
sg14
I12
sg19
Nsg94
I10
sS'.thisIndex'
p4440
I10
sa(dp4441
g17
(lp4442
S'k'
asg18
S'Y'
sS'.thisRepN'
p4443
I39
sg26
S'Y'
sg20
S'N'
sg32
g33
sS'.thisTrialN'
p4444
I5
sS'.thisN'
p4445
I590
sg25
S'Y'
sg15
(lp4446
S'd'
asg30
g31
sg16
S'Y'
sg14
I12
sg19
Nsg94
I11
sS'.thisIndex'
p4447
I11
sa(dp4448
g17
(lp4449
S'd'
asg18
S'Y'
sS'.thisRepN'
p4450
I39
sg26
S'Y'
sg20
S'N'
sg32
g33
sS'.thisTrialN'
p4451
I6
sS'.thisN'
p4452
I591
sg25
S'Y'
sg15
(lp4453
S'k'
asg30
g31
sg16
S'Y'
sg14
I12
sg19
Nsg94
I10
sS'.thisIndex'
p4454
I10
sa(dp4455
g18
S'Y'
sS'.thisRepN'
p4456
I39
sg26
S'Y'
sg20
S'Y'
sg32
g33
sS'.thisTrialN'
p4457
I7
sS'.thisN'
p4458
I592
sg25
S'Y'
sg15
Nsg30
g31
sg16
g99
sg14
I12
sg19
(lp4459
S'space'
p4460
asg94
I0
sS'.thisIndex'
p4461
I0
sa(dp4462
g17
(lp4463
S'k'
asg18
S'Y'
sS'.thisRepN'
p4464
I39
sg26
S'Y'
sg20
S'N'
sg32
g33
sS'.thisTrialN'
p4465
I8
sS'.thisN'
p4466
I593
sg25
S'Y'
sg15
(lp4467
S'd'
asg30
g31
sg16
S'Y'
sg14
I12
sg19
Nsg94
I5
sS'.thisIndex'
p4468
I5
sa(dp4469
g17
(lp4470
S'k'
asg18
S'N'
sS'.thisRepN'
p4471
I39
sg26
S'Y'
sg20
S'Y'
sg32
g33
sS'.thisTrialN'
p4472
I9
sS'.thisN'
p4473
I594
sg25
S'Y'
sg15
(lp4474
S'k'
asg30
g31
sg16
S'N'
sg14
I12
sg19
Nsg94
I0
sS'.thisIndex'
p4475
I0
sa(dp4476
g17
(lp4477
S'd'
asg18
S'Y'
sS'.thisRepN'
p4478
I39
sg26
S'Y'
sg20
S'Y'
sg32
g33
sS'.thisTrialN'
p4479
I10
sS'.thisN'
p4480
I595
sg25
S'Y'
sg15
(lp4481
S'k'
asg30
g31
sg16
S'Y'
sg14
I12
sg19
(lp4482
S'space'
p4483
asg94
I3
sS'.thisIndex'
p4484
I3
sa(dp4485
g17
(lp4486
S'd'
asg18
S'Y'
sS'.thisRepN'
p4487
I39
sg26
S'Y'
sg20
S'N'
sg32
g33
sS'.thisTrialN'
p4488
I11
sS'.thisN'
p4489
I596
sg25
S'Y'
sg15
(lp4490
S'k'
asg30
g31
sg16
S'Y'
sg14
I12
sg19
Nsg94
I8
sS'.thisIndex'
p4491
I8
sa(dp4492
g17
(lp4493
S'd'
asg18
S'N'
sS'.thisRepN'
p4494
I39
sg26
S'Y'
sg20
S'Y'
sg32
g33
sS'.thisTrialN'
p4495
I12
sS'.thisN'
p4496
I597
sg25
S'Y'
sg15
(lp4497
S'd'
asg30
g31
sg16
S'N'
sg14
I12
sg19
Nsg94
I6
sS'.thisIndex'
p4498
I6
sa(dp4499
g17
(lp4500
S'd'
asg18
S'N'
sS'.thisRepN'
p4501
I39
sg26
S'Y'
sg20
S'Y'
sg32
g33
sS'.thisTrialN'
p4502
I13
sS'.thisN'
p4503
I598
sg25
S'Y'
sg15
(lp4504
S'k'
asg30
g31
sg16
S'Y'
sg14
I12
sg19
Nsg94
I6
sS'.thisIndex'
p4505
I6
sa(dp4506
g17
(lp4507
S'k'
asg18
S'N'
sg22
I31
sg26
S'Y'
sS'.thisN'
p4508
I599
sg20
S'N'
sg32
g33
sS'.thisTrialN'
p4509
I14
sS'.thisRepN'
p4510
I39
sg21
I42
sg25
S'Y'
sg23
I25
sg15
(lp4511
S'd'
asg30
g31
sg16
S'Y'
sg14
I12
sg19
(lp4512
S'space'
p4513
asg94
I0
sS'.thisIndex'
p4514
I0
sasS'loops'
p4515
(lp4516
g1
(g36
g3
NtRp4517
(dp4518
g39
Nsg40
(lp4519
sg41
I77714416
sg10
S''
sg6
g42
sg43
I1
sg27
I01
sg28
Nsg44
g1
(g45
g46
(dp4520
g48
g49
(g50
g51
g52
S'b'
tRp4521
(I1
(I600
I1
tg55
I00
S'\x00\x00\x80?\x00\x00\x80?\x00\x00\x80?\x00\x00\x80?\x00\x00\x80?\x00\x00\x80?\x00\x00\x80?\x00\x00\x80?\x00\x00\x80?\x00\x00\x80?\x00\x00\x80?\x00\x00\x80?\x00\x00\x80?\x00\x00\x80?\x00\x00\x80?\x00\x00\x80?\x00\x00\x80?\x00\x00\x80?\x00\x00\x80?\x00\x00\x80?\x00\x00\x80?\x00\x00\x80?\x00\x00\x80?\x00\x00\x80?\x00\x00\x80?\x00\x00\x80?\x00\x00\x80?\x00\x00\x80?\x00\x00\x80?\x00\x00\x80?\x00\x00\x80?\x00\x00\x80?\x00\x00\x80?\x00\x00\x80?\x00\x00\x80?\x00\x00\x80?\x00\x00\x80?\x00\x00\x80?\x00\x00\x80?\x00\x00\x80?\x00\x00\x80?\x00\x00\x80?\x00\x00\x80?\x00\x00\x80?\x00\x00\x80?\x00\x00\x80?\x00\x00\x80?\x00\x00\x80?\x00\x00\x80?\x00\x00\x80?\x00\x00\x80?\x00\x00\x80?\x00\x00\x80?\x00\x00\x80?\x00\x00\x80?\x00\x00\x80?\x00\x00\x80?\x00\x00\x80?\x00\x00\x80?\x00\x00\x80?\x00\x00\x80?\x00\x00\x80?\x00\x00\x80?\x00\x00\x80?\x00\x00\x80?\x00\x00\x80?\x00\x00\x80?\x00\x00\x80?\x00\x00\x80?\x00\x00\x80?\x00\x00\x80?\x00\x00\x80?\x00\x00\x80?\x00\x00\x80?\x00\x00\x80?\x00\x00\x80?\x00\x00\x80?\x00\x00\x80?\x00\x00\x80?\x00\x00\x80?\x00\x00\x80?\x00\x00\x80?\x00\x00\x80?\x00\x00\x80?\x00\x00\x80?\x00\x00\x80?\x00\x00\x80?\x00\x00\x80?\x00\x00\x80?\x00\x00\x80?\x00\x00\x80?\x00\x00\x80?\x00\x00\x80?\x00\x00\x80?\x00\x00\x80?\x00\x00\x80?\x00\x00\x80?\x00\x00\x80?\x00\x00\x80?\x00\x00\x80?\x00\x00\x80?\x00\x00\x80?\x00\x00\x80?\x00\x00\x80?\x00\x00\x80?\x00\x00\x80?\x00\x00\x80?\x00\x00\x80?\x00\x00\x80?\x00\x00\x80?\x00\x00\x80?\x00\x00\x80?\x00\x00\x80?\x00\x00\x80?\x00\x00\x80?\x00\x00\x80?\x00\x00\x80?\x00\x00\x80?\x00\x00\x80?\x00\x00\x80?\x00\x00\x80?\x00\x00\x80?\x00\x00\x80?\x00\x00\x80?\x00\x00\x80?\x00\x00\x80?\x00\x00\x80?\x00\x00\x80?\x00\x00\x80?\x00\x00\x80?\x00\x00\x80?\x00\x00\x80?\x00\x00\x80?\x00\x00\x80?\x00\x00\x80?\x00\x00\x80?\x00\x00\x80?\x00\x00\x80?\x00\x00\x80?\x00\x00\x80?\x00\x00\x80?\x00\x00\x80?\x00\x00\x80?\x00\x00\x80?\x00\x00\x80?\x00\x00\x80?\x00\x00\x80?\x00\x00\x80?\x00\x00\x80?\x00\x00\x80?\x00\x00\x80?\x00\x00\x80?\x00\x00\x80?\x00\x00\x80?\x00\x00\x80?\x00\x00\x80?\x00\x00\x80?\x00\x00\x80?\x00\x00\x80?\x00\x00\x80?\x00\x00\x80?\x00\x00\x80?\x00\x00\x80?\x00\x00\x80?\x00\x00\x80?\x00\x00\x80?\x00\x00\x80?\x00\x00\x80?\x00\x00\x80?\x00\x00\x80?\x00\x00\x80?\x00\x00\x80?\x00\x00\x80?\x00\x00\x80?\x00\x00\x80?\x00\x00\x80?\x00\x00\x80?\x00\x00\x80?\x00\x00\x80?\x00\x00\x80?\x00\x00\x80?\x00\x00\x80?\x00\x00\x80?\x00\x00\x80?\x00\x00\x80?\x00\x00\x80?\x00\x00\x80?\x00\x00\x80?\x00\x00\x80?\x00\x00\x80?\x00\x00\x80?\x00\x00\x80?\x00\x00\x80?\x00\x00\x80?\x00\x00\x80?\x00\x00\x80?\x00\x00\x80?\x00\x00\x80?\x00\x00\x80?\x00\x00\x80?\x00\x00\x80?\x00\x00\x80?\x00\x00\x80?\x00\x00\x80?\x00\x00\x80?\x00\x00\x80?\x00\x00\x80?\x00\x00\x80?\x00\x00\x80?\x00\x00\x80?\x00\x00\x80?\x00\x00\x80?\x00\x00\x80?\x00\x00\x80?\x00\x00\x80?\x00\x00\x80?\x00\x00\x80?\x00\x00\x80?\x00\x00\x80?\x00\x00\x80?\x00\x00\x80?\x00\x00\x80?\x00\x00\x80?\x00\x00\x80?\x00\x00\x80?\x00\x00\x80?\x00\x00\x80?\x00\x00\x80?\x00\x00\x80?\x00\x00\x80?\x00\x00\x80?\x00\x00\x80?\x00\x00\x80?\x00\x00\x80?\x00\x00\x80?\x00\x00\x80?\x00\x00\x80?\x00\x00\x80?\x00\x00\x80?\x00\x00\x80?\x00\x00\x80?\x00\x00\x80?\x00\x00\x80?\x00\x00\x80?\x00\x00\x80?\x00\x00\x80?\x00\x00\x80?\x00\x00\x80?\x00\x00\x80?\x00\x00\x80?\x00\x00\x80?\x00\x00\x80?\x00\x00\x80?\x00\x00\x80?\x00\x00\x80?\x00\x00\x80?\x00\x00\x80?\x00\x00\x80?\x00\x00\x80?\x00\x00\x80?\x00\x00\x80?\x00\x00\x80?\x00\x00\x80?\x00\x00\x80?\x00\x00\x80?\x00\x00\x80?\x00\x00\x80?\x00\x00\x80?\x00\x00\x80?\x00\x00\x80?\x00\x00\x80?\x00\x00\x80?\x00\x00\x80?\x00\x00\x80?\x00\x00\x80?\x00\x00\x80?\x00\x00\x80?\x00\x00\x80?\x00\x00\x80?\x00\x00\x80?\x00\x00\x80?\x00\x00\x80?\x00\x00\x80?\x00\x00\x80?\x00\x00\x80?\x00\x00\x80?\x00\x00\x80?\x00\x00\x80?\x00\x00\x80?\x00\x00\x80?\x00\x00\x80?\x00\x00\x80?\x00\x00\x80?\x00\x00\x80?\x00\x00\x80?\x00\x00\x80?\x00\x00\x80?\x00\x00\x80?\x00\x00\x80?\x00\x00\x80?\x00\x00\x80?\x00\x00\x80?\x00\x00\x80?\x00\x00\x80?\x00\x00\x80?\x00\x00\x80?\x00\x00\x80?\x00\x00\x80?\x00\x00\x80?\x00\x00\x80?\x00\x00\x80?\x00\x00\x80?\x00\x00\x80?\x00\x00\x80?\x00\x00\x80?\x00\x00\x80?\x00\x00\x80?\x00\x00\x80?\x00\x00\x80?\x00\x00\x80?\x00\x00\x80?\x00\x00\x80?\x00\x00\x80?\x00\x00\x80?\x00\x00\x80?\x00\x00\x80?\x00\x00\x80?\x00\x00\x80?\x00\x00\x80?\x00\x00\x80?\x00\x00\x80?\x00\x00\x80?\x00\x00\x80?\x00\x00\x80?\x00\x00\x80?\x00\x00\x80?\x00\x00\x80?\x00\x00\x80?\x00\x00\x80?\x00\x00\x80?\x00\x00\x80?\x00\x00\x80?\x00\x00\x80?\x00\x00\x80?\x00\x00\x80?\x00\x00\x80?\x00\x00\x80?\x00\x00\x80?\x00\x00\x80?\x00\x00\x80?\x00\x00\x80?\x00\x00\x80?\x00\x00\x80?\x00\x00\x80?\x00\x00\x80?\x00\x00\x80?\x00\x00\x80?\x00\x00\x80?\x00\x00\x80?\x00\x00\x80?\x00\x00\x80?\x00\x00\x80?\x00\x00\x80?\x00\x00\x80?\x00\x00\x80?\x00\x00\x80?\x00\x00\x80?\x00\x00\x80?\x00\x00\x80?\x00\x00\x80?\x00\x00\x80?\x00\x00\x80?\x00\x00\x80?\x00\x00\x80?\x00\x00\x80?\x00\x00\x80?\x00\x00\x80?\x00\x00\x80?\x00\x00\x80?\x00\x00\x80?\x00\x00\x80?\x00\x00\x80?\x00\x00\x80?\x00\x00\x80?\x00\x00\x80?\x00\x00\x80?\x00\x00\x80?\x00\x00\x80?\x00\x00\x80?\x00\x00\x80?\x00\x00\x80?\x00\x00\x80?\x00\x00\x80?\x00\x00\x80?\x00\x00\x80?\x00\x00\x80?\x00\x00\x80?\x00\x00\x80?\x00\x00\x80?\x00\x00\x80?\x00\x00\x80?\x00\x00\x80?\x00\x00\x80?\x00\x00\x80?\x00\x00\x80?\x00\x00\x80?\x00\x00\x80?\x00\x00\x80?\x00\x00\x80?\x00\x00\x80?\x00\x00\x80?\x00\x00\x80?\x00\x00\x80?\x00\x00\x80?\x00\x00\x80?\x00\x00\x80?\x00\x00\x80?\x00\x00\x80?\x00\x00\x80?\x00\x00\x80?\x00\x00\x80?\x00\x00\x80?\x00\x00\x80?\x00\x00\x80?\x00\x00\x80?\x00\x00\x80?\x00\x00\x80?\x00\x00\x80?\x00\x00\x80?\x00\x00\x80?\x00\x00\x80?\x00\x00\x80?\x00\x00\x80?\x00\x00\x80?\x00\x00\x80?\x00\x00\x80?\x00\x00\x80?\x00\x00\x80?\x00\x00\x80?\x00\x00\x80?\x00\x00\x80?\x00\x00\x80?\x00\x00\x80?\x00\x00\x80?\x00\x00\x80?\x00\x00\x80?\x00\x00\x80?\x00\x00\x80?\x00\x00\x80?\x00\x00\x80?\x00\x00\x80?\x00\x00\x80?\x00\x00\x80?\x00\x00\x80?\x00\x00\x80?\x00\x00\x80?\x00\x00\x80?\x00\x00\x80?\x00\x00\x80?\x00\x00\x80?\x00\x00\x80?\x00\x00\x80?\x00\x00\x80?\x00\x00\x80?\x00\x00\x80?\x00\x00\x80?\x00\x00\x80?\x00\x00\x80?\x00\x00\x80?\x00\x00\x80?\x00\x00\x80?\x00\x00\x80?\x00\x00\x80?\x00\x00\x80?\x00\x00\x80?\x00\x00\x80?\x00\x00\x80?\x00\x00\x80?\x00\x00\x80?\x00\x00\x80?\x00\x00\x80?\x00\x00\x80?\x00\x00\x80?\x00\x00\x80?\x00\x00\x80?\x00\x00\x80?\x00\x00\x80?\x00\x00\x80?\x00\x00\x80?\x00\x00\x80?\x00\x00\x80?\x00\x00\x80?\x00\x00\x80?\x00\x00\x80?\x00\x00\x80?\x00\x00\x80?\x00\x00\x80?\x00\x00\x80?\x00\x00\x80?\x00\x00\x80?\x00\x00\x80?\x00\x00\x80?\x00\x00\x80?\x00\x00\x80?\x00\x00\x80?\x00\x00\x80?\x00\x00\x80?\x00\x00\x80?\x00\x00\x80?\x00\x00\x80?\x00\x00\x80?\x00\x00\x80?\x00\x00\x80?\x00\x00\x80?\x00\x00\x80?\x00\x00\x80?\x00\x00\x80?\x00\x00\x80?\x00\x00\x80?\x00\x00\x80?\x00\x00\x80?\x00\x00\x80?\x00\x00\x80?\x00\x00\x80?\x00\x00\x80?\x00\x00\x80?\x00\x00\x80?\x00\x00\x80?\x00\x00\x80?\x00\x00\x80?\x00\x00\x80?\x00\x00\x80?\x00\x00\x80?\x00\x00\x80?\x00\x00\x80?\x00\x00\x80?\x00\x00\x80?\x00\x00\x80?\x00\x00\x80?\x00\x00\x80?\x00\x00\x80?\x00\x00\x80?\x00\x00\x80?\x00\x00\x80?\x00\x00\x80?\x00\x00\x80?\x00\x00\x80?\x00\x00\x80?\x00\x00\x80?\x00\x00\x80?\x00\x00\x80?\x00\x00\x80?\x00\x00\x80?\x00\x00\x80?\x00\x00\x80?\x00\x00\x80?\x00\x00\x80?\x00\x00\x80?\x00\x00\x80?\x00\x00\x80?\x00\x00\x80?\x00\x00\x80?\x00\x00\x80?\x00\x00\x80?\x00\x00\x80?\x00\x00\x80?\x00\x00\x80?\x00\x00\x80?\x00\x00\x80?\x00\x00\x80?\x00\x00\x80?\x00\x00\x80?\x00\x00\x80?\x00\x00\x80?\x00\x00\x80?\x00\x00\x80?\x00\x00\x80?\x00\x00\x80?\x00\x00\x80?\x00\x00\x80?\x00\x00\x80?\x00\x00\x80?\x00\x00\x80?\x00\x00\x80?\x00\x00\x80?\x00\x00\x80?\x00\x00\x80?\x00\x00\x80?\x00\x00\x80?\x00\x00\x80?\x00\x00\x80?\x00\x00\x80?\x00\x00\x80?\x00\x00\x80?\x00\x00\x80?\x00\x00\x80?\x00\x00\x80?\x00\x00\x80?\x00\x00\x80?\x00\x00\x80?'
S'\x00\x00\x00\x00\x00\x00\x00\x00\x00\x00\x00\x00\x00\x00\x00\x00\x00\x00\x00\x00\x00\x00\x00\x00\x00\x00\x00\x00\x00\x00\x00\x00\x00\x00\x00\x00\x00\x00\x00\x00\x00\x00\x00\x00\x00\x00\x00\x00\x00\x00\x00\x00\x00\x00\x00\x00\x00\x00\x00\x00\x00\x00\x00\x00\x00\x00\x00\x00\x00\x00\x00\x00\x00\x00\x00\x00\x00\x00\x00\x00\x00\x00\x00\x00\x00\x00\x00\x00\x00\x00\x00\x00\x00\x00\x00\x00\x00\x00\x00\x00\x00\x00\x00\x00\x00\x00\x00\x00\x00\x00\x00\x00\x00\x00\x00\x00\x00\x00\x00\x00\x00\x00\x00\x00\x00\x00\x00\x00\x00\x00\x00\x00\x00\x00\x00\x00\x00\x00\x00\x00\x00\x00\x00\x00\x00\x00\x00\x00\x00\x00\x00\x00\x00\x00\x00\x00\x00\x00\x00\x00\x00\x00\x00\x00\x00\x00\x00\x00\x00\x00\x00\x00\x00\x00\x00\x00\x00\x00\x00\x00\x00\x00\x00\x00\x00\x00\x00\x00\x00\x00\x00\x00\x00\x00\x00\x00\x00\x00\x00\x00\x00\x00\x00\x00\x00\x00\x00\x00\x00\x00\x00\x00\x00\x00\x00\x00\x00\x00\x00\x00\x00\x00\x00\x00\x00\x00\x00\x00\x00\x00\x00\x00\x00\x00\x00\x00\x00\x00\x00\x00\x00\x00\x00\x00\x00\x00\x00\x00\x00\x00\x00\x00\x00\x00\x00\x00\x00\x00\x00\x00\x00\x00\x00\x00\x00\x00\x00\x00\x00\x00\x00\x00\x00\x00\x00\x00\x00\x00\x00\x00\x00\x00\x00\x00\x00\x00\x00\x00\x00\x00\x00\x00\x00\x00\x00\x00\x00\x00\x00\x00\x00\x00\x00\x00\x00\x00\x00\x00\x00\x00\x00\x00\x00\x00\x00\x00\x00\x00\x00\x00\x00\x00\x00\x00\x00\x00\x00\x00\x00\x00\x00\x00\x00\x00\x00\x00\x00\x00\x00\x00\x00\x00\x00\x00\x00\x00\x00\x00\x00\x00\x00\x00\x00\x00\x00\x00\x00\x00\x00\x00\x00\x00\x00\x00\x00\x00\x00\x00\x00\x00\x00\x00\x00\x00\x00\x00\x00\x00\x00\x00\x00\x00\x00\x00\x00\x00\x00\x00\x00\x00\x00\x00\x00\x00\x00\x00\x00\x00\x00\x00\x00\x00\x00\x00\x00\x00\x00\x00\x00\x00\x00\x00\x00\x00\x00\x00\x00\x00\x00\x00\x00\x00\x00\x00\x00\x00\x00\x00\x00\x00\x00\x00\x00\x00\x00\x00\x00\x00\x00\x00\x00\x00\x00\x00\x00\x00\x00\x00\x00\x00\x00\x00\x00\x00\x00\x00\x00\x00\x00\x00\x00\x00\x00\x00\x00\x00\x00\x00\x00\x00\x00\x00\x00\x00\x00\x00\x00\x00\x00\x00\x00\x00\x00\x00\x00\x00\x00\x00\x00\x00\x00\x00\x00\x00\x00\x00\x00\x00\x00\x00\x00\x00\x00\x00\x00\x00\x00\x00\x00\x00\x00\x00\x00\x00\x00\x00\x00\x00\x00\x00\x00\x00\x00\x00\x00\x00\x00\x00\x00\x00\x00\x00\x00\x00\x00\x00\x00\x00\x00\x00\x00\x00\x00\x00\x00\x00\x00\x00\x00\x00\x00\x00\x00\x00\x00\x00\x00\x00\x00\x00\x00\x00\x00\x00\x00\x00\x00\x00\x00\x00\x00\x00\x00\x00\x00\x00\x00\x00\x00\x00\x00\x00\x00\x00\x00\x00\x00\x00\x00\x00\x00\x00\x00\x00\x00\x00\x00\x00\x00\x00'
Ntbsg56
g49
(g50
g51
g52
S'b'
tRp4522
(I1
(I600
I1
tg55
I00
S'\x00\x80\x92C\x00\x00\xe4C\x00\x80\x03D\x00\x00\xa4C\x00\x00\xb4B\x00\x80\x9cC\x00\x00LC\x00\x00\x0fD\x00\x80\xe9C\x00\x00TC\x00\x00\x15D\x00\x00uC\x00@\tD\x00\x00#C\x00\x00&C\x00\x00\'C\x00\xc0\x0fD\x00\x00eC\x00\x00\tD\x00\x00bC\x00\x00\xb2C\x00\x00\xd0B\x00\x80\x0eD\x00\x00\xc5C\x00\x00\xb6B\x00\x80\xbdC\x00\xc0\x12D\x00\x80\xa5C\x00\x00\x08B\x00\x00\xc4B\x00\x00\x04D\x00\x00,B\x00\x00\x8bC\x00\x00ZC\x00@\nD\x00\x00\x1bC\x00\x80\x8dC\x00\x80\xd0C\x00\x00`B\x00\x00\x94B\x00\xc0\x13D\x00\xc0\nD\x00\x00\xd4C\x00\x80\xe1C\x00\x000C\x00\x00\xaaB\x00\x00\x9aC\x00\x00\x9fC\x00\x00\xc4C\x00\x00fC\x00\x00\x10A\x00\x00\x8cB\x00\x00\xc0A\x00\xc0\x0bD\x00\x80\xb9C\x00\x80\xfdC\x00\x80\xf0C\x00\x00\xe4B\x00\x00\xfaB\x00\x00\x10B\x00\x00 B\x00\x00\xddC\x00\x80\xeeC\x00\x00\xe6B\x00\x80\xbbC\x00\x00\xccC\x00@\x12D\x00\x00\x8eB\x00\x00\xa8A\x00\x00\\C\x00\x00(B\x00\x00RC\x00\x00\x1cC\x00\x00\xd4B\x00\x00\xf6B\x00\x00\x8aC\x00\x00JC\x00\x00\xebC\x00\x80\xe5C\x00\x00\x07C\x00\x00+C\x00\x80\xeaC\x00\x00\xfeB\x00\x80\x85C\x00\x80\xaaC\x00\x00\xe6C\x00\x00OC\x00\x80\x0cD\x00\x00\x82B\x00\x00cC\x00\x80\xb3C\x00\x00DB\x00@\x04D\x00\x00\x9cC\x00\x80\x9fC\x00\x80\xc7C\x00\x80\xffC\x00@\x15D\x00\x00\x00D\x00\x00@A\x00\x00QC\x00@\x00D\x00\x00\\B\x00\x00\xa6B\x00\x00!C\x00\x80\xcfC\x00\x00VC\x00\x00\xd8B\x00\x00\x8cC\x00\x00\xceB\x00\x00\xc2B\x00\x80\xc8C\x00\x00sC\x00\x00\xa2C\x00\x00\xe0C\x00\x00\xb0A\x00\x00\x7fC\x00\x80\xb2C\x00\x00\xe7C\x00\x00`A\x00\x80\xa7C\x00\x00zC\x00\x80\xdfC\x00\x00\xe2B\x00\x00\x88C\x00\x004B\x00\x00\xabC\x00\x00\xd2C\x00\x00XC\x00\x00\xfdC\x00\x80\x8cC\x00\x00\xc3C\x00\x00\x9dC\x00\x80\xbfC\x00\x00\xe0A\x00\x00\xf3C\x00\x00\x08C\x00\x00\xdcC\x00\x00\x07D\x00\x00}C\x00\x00\x00C\x00@\rD\x00\xc0\rD\x00\xc0\tD\x00\x00vC\x00\x80\xa8C\x00\x00\xd5C\x00\x00mC\x00\x80\xd9C\x00\x00\x87C\x00\x00\x19C\x00\x80\xedC\x00\x80\xefC\x00\xc0\x07D\x00\x00\x83C\x00\x00\xfeC\x00\x00\xacC\x00\x80\xacC\x00\x00~C\x00\x00:C\x00\x00\xd6B\x00\x00\x9bC\x00\x80\xa4C\x00\x80\xabC\x00\x00kC\x00\x00TB\x00\x80\x9dC\x00\x00\x0eD\x00\x80\xa3C\x00\x80\xb4C\x00\x80\xe4C\x00\x00PC\x00\x80\xc3C\x00\x80\xd4C\x00\x80\x11D\x00\x00\xeaB\x00\x80\x8fC\x00\x00tB\x00\x00)C\x00\x80\x8eC\x00\x00<B\x00\x00\x90A\x00\x80\x89C\x00\x00lC\x00\x00\xc6B\x00\x80\x08D\x00\x80\xc0C\x00\x00\xd7C\x00\x80\xcbC\x00@\x10D\x00\x00\xf8A\x00\x00\xbdC\x00\x00\xaaC\x00\x00\x94C\x00\x00\xf8C\x00\x80\nD\x00\x80\tD\x00\x00\x98B\x00\x00\xaeC\x00\x80\xcdC\x00\x00|B\x00\x00qC\x00\x80\x82C\x00\x00\x0cC\x00\x00\xb0C\x00\x00NC\x00\x00\xcfC\x00\x80\x90C\x00\x00\xc1C\x00\x00aC\x00\x00WC\x00\x00\nC\x00\x80\x06D\x00\x00\xe0@\x00\x80\x9eC\x00\x00\xd2B\x00\x00\x1fC\x00\x00\x10C\x00\x00\x82C\x00@\x11D\x00\x00 A\x00@\x0fD\x00\x80\x01D\x00\x00YC\x00\x00\xa1C\x00@\x08D\x00\x00\x80@\x00\x00\xe8A\x00\x00\nD\x00\x00\x8aB\x00\x80\x15D\x00\x00\x84B\x00\x00\xe5C\x00\x80\xe8C\x00\x00\x18B\x00\x00`C\x00\x00wC\x00\x00\xd8A\x00\x00\x80A\x00\x80\xb5C\x00\x80\xfaC\x00\x00\xbbC\x00\x00\xccB\x00\xc0\x06D\x00\x00SC\x00\x80\xfeC\x00\x00\xbaC\x00\x80\xf7C\x00\x00\xa9C\x00\x00\rD\x00\x00\xc0C\x00\x00\x8eC\x00\x00\x8dC\x00\xc0\x05D\x00\x00\x80C\x00\x00-C\x00\x00\xa8B\x00\x00\xdeC\x00\x80\xf4C\x00\x00LB\x00\x00\xeeB\x00\xc0\x03D\x00\x00\xc2C\x00\x00*C\x00\xc0\x14D\x00\x80\xe2C\x00\x00\xd9C\x00\x00\xb1C\x00\x00yC\x00\x80\xfbC\x00\x00\xa0C\x00\x00AC\x00\x80\xafC\x00\x80\x87C\x00\x00DC\x00\x00\x02C\x00\x00hC\x00\x80\xf1C\x00\x00MC\x00@\x01D\x00\x80\xebC\x00\x00\xa0@\x00\x00\xfbC\x00\x00\x15C\x00\x00\xf9C\x00\x00FC\x00\x00\xb0B\x00\x00\x93C\x00\x80\x05D\x00\x00\x14D\x00\x00\xdcB\x00\x00\x96B\x00\x80\xf6C\x00\x80\x88C\x00\x00\xcaB\x00\x00hB\x00\x00UC\x00\x00IC\x00\x008B\x00\x00\xa7C\x00\x00\x0eC\x00\xc0\x10D\x00\x00\x00\x00\x00\x00\xc8A\x00\x00dC\x00\x00\x80B\x00\x00gC\x00\xc0\x0eD\x00\x80\x99C\x00\x80\x96C\x00\x00\x80?\x00\x00\x9cB\x00\x00\x18C\x00\x80\xe0C\x00\x00\xf5C\x00\x00\x81C\x00\x00\x00B\x00\x80\x94C\x00\x00\xdeB\x00\x80\xc4C\x00\x80\x97C\x00\x80\x12D\x00\x00/C\x00\x00\x11D\x00\x00\xf6C\x00\x00\xceC\x00\x80\xc9C\x00\x00.C\x00\x00\xe8B\x00@\x0bD\x00\x00\xc9C\x00\x00\xb8A\x00\x00GC\x00\xc0\x15D\x00\x00\xf0B\x00\x80\rD\x00\x00\xa8C\x00\x00\xedC\x00\x00\x89C\x00\x00oC\x00\x00\xf2C\x00\x00\x90C\x00\x00\xd8C\x00\x00lB\x00\x00\x0bD\x00\x00>C\x00\x00\xd6C\x00\x00|C\x00\x00\xfaC\x00\x00\x91C\x00\x00%C\x00\x00rC\x00\x00nC\x00\x80\xdaC\x00\x00\xdfC\x00\x00\xbcC\x00\x00\xf4B\x00\x00\x14C\x00\xc0\x0cD\x00\x80\x81C\x00\x00\x16C\x00\x80\xb1C\x00\x00\x04C\x00\x00\xdaC\x00\xc0\x02D\x00\x00\xb9C\x00\x80\xe3C\x00\x00\xa2B\x00\x80\xceC\x00\x80\xc1C\x00\x00\x13C\x00\x80\xd8C\x00\x00\rC\x00\x00\xcbC\x00\x80\x14D\x00\x00\xf1C\x00\x80\x83C\x00@\x13D\x00\x80\x9bC\x00\x80\xc2C\x00\x00pA\x00\x00\xeaC\x00\x00\x17C\x00\x80\xdbC\x00\x00\x9eB\x00\x80\xcaC\x00\x00\xfcB\x00\x80\x91C\x00\x80\xf2C\x00\x005C\x00\x80\xf3C\x00\x80\xf8C\x00\x80\xd2C\x00\x00\x86B\x00@\x07D\x00\x80\xfcC\x00\x80\xd3C\x00\x00iC\x00\x00PB\x00\x80\x0bD\x00\x80\x98C\x00\x80\x9aC\x00\x00\xcdC\x00\x00\xecC\x00\x00=C\x00\x00\tC\x00\x80\xb0C\x00\x00;C\x00\x00\xe1C\x00\x00\x05C\x00\x00\x06C\x00\x00\xefC\x00\x80\xbeC\x00\x00\x9eC\x00\x00\xbeC\x00\x00\xb4C\x00\x00\x84C\x00\x80\xb7C\x00\x00\x88A\x00\x80\xccC\x00\x00dB\x00\xc0\x08D\x00\x00\x10D\x00\x00[C\x00\x80\xd7C\x00\x80\x00D\x00\x80\xadC\x00\x00\x0bC\x00\x80\xf5C\x00\x00HC\x00\x00\x8fC\x00\x00\x97C\x00\x00\xc8B\x00\x80\xa6C\x00\x80\x95C\x00\x00\xb6C\x00\x00\xaeB\x00\x00KC\x00\x00@@\x00@\x0eD\x00\x00\xa6C\x00\x00\x06D\x00\x00\xf2B\x00@\x02D\x00@\x0cD\x00\x00\xd0C\x00\x00\x00@\x00\x00\x1aC\x00\x00]C\x00\x00\xc8C\x00\x00\x12D\x00\x80\xd1C\x00\x00\xd3C\x00\x00PA\x00@\x05D\x00\x00\xf7C\x00\x80\x10D\x00\x00{C\x00\x00^C\x00\x00\x0cD\x00\x00\xb7C\x00\x00\xc0@\x00\x00\x13D\x00\x80\x04D\x00\x00\xa0B\x00\x80\x13D\x00\x00\xe8C\x00\x00\xf0C\x00\x00\x98C\x00\x00\x86C\x00\x00pC\x00\x00\x14B\x00\x000A\x00\x80\x02D\x00\x00\xc7C\x00\x00\x90B\x00\x00\x05D\x00\x00\xe9C\x00\xc0\x11D\x00\x80\xbcC\x00\x00EC\x00\x00\xe2C\x00\x00\x01D\x00@\x03D\x00\x004C\x00\x80\xa0C\x00\x00\xfcC\x00\x00tC\x00\x006C\x00\x00\x88B\x00\x00\x92C\x00\x003C\x00\x00\x1cB\x00\x00\x00A\x00\x80\xa1C\x00@\x06D\x00\x00\xbfC\x00\x00\xbcB\x00\x00_C\x00\x00xB\x00\x00\x02D\x00\x00\x01C\x00\x00\xa0A\x00\x00\xacB\x00\x00\xa5C\x00\x80\x93C\x00\x00\x85C\x00\x00CC\x00\x80\xaeC\x00\x00$C\x00\xc0\x00D\x00\x80\xbaC\x00\x80\x8aC\x00\x00xC\x00\x00pB\x00\x00\x03D\x00\x00\xa4B\x00\x00jC\x00\x00\xadC\x00\x80\xc6C\x00\x00\xc6C\x00\xc0\x04D\x00\x00XB\x00\x00\x12C\x00\x80\xdeC\x00\x00\xbeB\x00\x80\x8bC\x00\x00\xb8B\x00\x00\xb5C\x00\x00<C\x00\x00\x11C\x00\x00\xecB\x00\x00\xbaB\x00\x00\x98A\x00\x80\x84C\x00\x00$B\x00\x00\xeeC\x00\x00\x9aB\x00\x80\xa2C\x00\x00 C\x00\x001C\x00@\x14D\x00\x00\xf8B\x00\x80\xc5C\x00\x00\xf4C\x00\x80\xd6C\x00\x80\xecC\x00\x00\xd0A\x00\x80\xb8C\x00\x00(C\x00\x80\x86C\x00\x00\xb8C\x00\x80\xdcC\x00\x00\xdaB\x00\x00\x1dC\x00\x008C\x00\x00\x92B\x00\x00HB\x00\x00\xb3C\x00\x80\xf9C\x00\x00\x03C\x00\xc0\x01D\x00\x00\x0cB\x00\x80\x07D\x00\x009C\x00\x80\x80C\x00\x00\x04B\x00\x00\xf0A\x00\x80\xe7C\x00\x00?C\x00\x00\xcaC\x00\x00\x96C\x00\x80\x0fD\x00\x00\xd1C\x00\x00\xdbC\x00\x00\x08D\x00\x00\xafC\x00\x00\xc0B\x00\x00\x0fC\x00\x00\xe3C\x00\x00"C\x00\x00@C\x00\x80\xd5C\x00\x002C\x00\x00\x95C\x00\x00\xb2B\x00\x80\xddC\x00\x00\xe0B\x00\x00BC\x00\x80\xa9C\x00\x00,C\x00\x00@B\x00\x000B\x00\x00\x99C\x00\x00\x1eC\x00\x80\xb6C\x00\x007C\x00\x80\xe6C\x00\x00\xa3C\x00\x00\xffC'
S'\x00\x00\x00\x00\x00\x00\x00\x00\x00\x00\x00\x00\x00\x00\x00\x00\x00\x00\x00\x00\x00\x00\x00\x00\x00\x00\x00\x00\x00\x00\x00\x00\x00\x00\x00\x00\x00\x00\x00\x00\x00\x00\x00\x00\x00\x00\x00\x00\x00\x00\x00\x00\x00\x00\x00\x00\x00\x00\x00\x00\x00\x00\x00\x00\x00\x00\x00\x00\x00\x00\x00\x00\x00\x00\x00\x00\x00\x00\x00\x00\x00\x00\x00\x00\x00\x00\x00\x00\x00\x00\x00\x00\x00\x00\x00\x00\x00\x00\x00\x00\x00\x00\x00\x00\x00\x00\x00\x00\x00\x00\x00\x00\x00\x00\x00\x00\x00\x00\x00\x00\x00\x00\x00\x00\x00\x00\x00\x00\x00\x00\x00\x00\x00\x00\x00\x00\x00\x00\x00\x00\x00\x00\x00\x00\x00\x00\x00\x00\x00\x00\x00\x00\x00\x00\x00\x00\x00\x00\x00\x00\x00\x00\x00\x00\x00\x00\x00\x00\x00\x00\x00\x00\x00\x00\x00\x00\x00\x00\x00\x00\x00\x00\x00\x00\x00\x00\x00\x00\x00\x00\x00\x00\x00\x00\x00\x00\x00\x00\x00\x00\x00\x00\x00\x00\x00\x00\x00\x00\x00\x00\x00\x00\x00\x00\x00\x00\x00\x00\x00\x00\x00\x00\x00\x00\x00\x00\x00\x00\x00\x00\x00\x00\x00\x00\x00\x00\x00\x00\x00\x00\x00\x00\x00\x00\x00\x00\x00\x00\x00\x00\x00\x00\x00\x00\x00\x00\x00\x00\x00\x00\x00\x00\x00\x00\x00\x00\x00\x00\x00\x00\x00\x00\x00\x00\x00\x00\x00\x00\x00\x00\x00\x00\x00\x00\x00\x00\x00\x00\x00\x00\x00\x00\x00\x00\x00\x00\x00\x00\x00\x00\x00\x00\x00\x00\x00\x00\x00\x00\x00\x00\x00\x00\x00\x00\x00\x00\x00\x00\x00\x00\x00\x00\x00\x00\x00\x00\x00\x00\x00\x00\x00\x00\x00\x00\x00\x00\x00\x00\x00\x00\x00\x00\x00\x00\x00\x00\x00\x00\x00\x00\x00\x00\x00\x00\x00\x00\x00\x00\x00\x00\x00\x00\x00\x00\x00\x00\x00\x00\x00\x00\x00\x00\x00\x00\x00\x00\x00\x00\x00\x00\x00\x00\x00\x00\x00\x00\x00\x00\x00\x00\x00\x00\x00\x00\x00\x00\x00\x00\x00\x00\x00\x00\x00\x00\x00\x00\x00\x00\x00\x00\x00\x00\x00\x00\x00\x00\x00\x00\x00\x00\x00\x00\x00\x00\x00\x00\x00\x00\x00\x00\x00\x00\x00\x00\x00\x00\x00\x00\x00\x00\x00\x00\x00\x00\x00\x00\x00\x00\x00\x00\x00\x00\x00\x00\x00\x00\x00\x00\x00\x00\x00\x00\x00\x00\x00\x00\x00\x00\x00\x00\x00\x00\x00\x00\x00\x00\x00\x00\x00\x00\x00\x00\x00\x00\x00\x00\x00\x00\x00\x00\x00\x00\x00\x00\x00\x00\x00\x00\x00\x00\x00\x00\x00\x00\x00\x00\x00\x00\x00\x00\x00\x00\x00\x00\x00\x00\x00\x00\x00\x00\x00\x00\x00\x00\x00\x00\x00\x00\x00\x00\x00\x00\x00\x00\x00\x00\x00\x00\x00\x00\x00\x00\x00\x00\x00\x00\x00\x00\x00\x00\x00\x00\x00\x00\x00\x00\x00\x00\x00\x00\x00\x00\x00\x00\x00\x00\x00\x00\x00\x00\x00\x00\x00\x00\x00\x00\x00\x00\x00\x00\x00\x00\x00\x00\x00\x00\x00\x00\x00\x00\x00\x00\x00\x00\x00\x00\x00\x00\x00\x00'
NtbstRp4523
(dp4524
g60
(dp4525
g48
I01
sg56
I01
ssg62
g4517
sg63
(lp4526
g48
ag56
asg65
(lp4527
I600
aI1
asbsg67
S'random'
p4528
sg69
g70
(g51
(I0
tS'b'
tRp4529
(I1
(I600
I1
tg54
(S'i4'
I0
I1
tRp4530
(I3
S'<'
NNNI-1
I-1
I0
tbI01
S'.\x01\x00\x006\x01\x00\x00\xbe\x01\x00\x00\xb6\x01\x00\x00\xe2\x00\x00\x00\x19\x01\x00\x00\xcd\x01\x00\x00\xd5\x00\x00\x00\xed\x01\x00\x002\x00\x00\x00\xdc\x00\x00\x00\xd8\x01\x00\x00c\x00\x00\x00\xc5\x01\x00\x00w\x00\x00\x00|\x01\x00\x00\xee\x00\x00\x00\xa2\x01\x00\x00\xb5\x00\x00\x00\x15\x02\x00\x00\xf6\x01\x00\x00D\x00\x00\x00s\x00\x00\x00K\x01\x00\x004\x00\x00\x00/\x01\x00\x00#\x02\x00\x00\xed\x00\x00\x00\x86\x00\x00\x00\xe3\x00\x00\x007\x02\x00\x00\xbe\x00\x00\x00<\x01\x00\x006\x02\x00\x00\x1c\x00\x00\x002\x02\x00\x00;\x00\x00\x00\xd7\x01\x00\x00\xea\x00\x00\x00\xec\x01\x00\x00<\x00\x00\x00\x17\x02\x00\x00F\x00\x00\x00\x1f\x00\x00\x00P\x02\x00\x00}\x00\x00\x00*\x01\x00\x00\xb4\x00\x00\x00O\x02\x00\x00[\x00\x00\x00-\x02\x00\x00\x03\x01\x00\x00\x8e\x01\x00\x00\xa5\x00\x00\x00\n\x02\x00\x00f\x00\x00\x00&\x00\x00\x00\xa4\x01\x00\x00\'\x01\x00\x00W\x01\x00\x00\x02\x02\x00\x00\xb1\x00\x00\x00\xf3\x01\x00\x00\xc8\x00\x00\x001\x01\x00\x00X\x00\x00\x00\xe7\x00\x00\x00\x89\x01\x00\x00\xe9\x01\x00\x00\xe5\x00\x00\x003\x00\x00\x00C\x00\x00\x00\xdb\x01\x00\x00,\x02\x00\x00\'\x00\x00\x00#\x01\x00\x00\xc5\x00\x00\x00\x19\x02\x00\x007\x01\x00\x00\x80\x01\x00\x00\xd0\x01\x00\x00o\x01\x00\x00\x04\x02\x00\x00g\x00\x00\x00\x00\x01\x00\x00-\x00\x00\x00\xf7\x01\x00\x00\xb4\x01\x00\x00\x1e\x01\x00\x00I\x02\x00\x00\x04\x00\x00\x00\x18\x00\x00\x00\x0f\x02\x00\x00\x14\x02\x00\x00\xf1\x01\x00\x00\r\x02\x00\x00A\x02\x00\x00n\x00\x00\x00\x1d\x00\x00\x00\xb8\x00\x00\x00\xb0\x01\x00\x00&\x01\x00\x00\xf2\x00\x00\x00m\x00\x00\x00\x15\x00\x00\x00\xd7\x00\x00\x00I\x00\x00\x00\xa0\x00\x00\x00k\x00\x00\x00)\x02\x00\x00"\x01\x00\x00>\x01\x00\x00K\x02\x00\x00{\x00\x00\x009\x00\x00\x00?\x00\x00\x00H\x01\x00\x00\xaf\x00\x00\x00\x13\x02\x00\x00\x04\x01\x00\x00N\x01\x00\x00\xba\x01\x00\x00d\x01\x00\x00J\x00\x00\x00\x1e\x02\x00\x00:\x00\x00\x00\x82\x01\x00\x00R\x00\x00\x00\x8c\x00\x00\x00\xf5\x01\x00\x00\x13\x01\x00\x000\x02\x00\x00j\x01\x00\x00\x99\x01\x00\x00\x9a\x01\x00\x00O\x00\x00\x00\x88\x00\x00\x00\x95\x01\x00\x00\xd3\x00\x00\x00\xab\x01\x00\x00\xcb\x00\x00\x00t\x01\x00\x00,\x01\x00\x00B\x02\x00\x00\xd9\x00\x00\x00\x12\x02\x00\x00\x0b\x02\x00\x00r\x01\x00\x00e\x01\x00\x00\x1b\x01\x00\x00h\x01\x00\x00~\x01\x00\x008\x01\x00\x00\x96\x00\x00\x00\xbf\x01\x00\x00#\x00\x00\x00H\x00\x00\x00*\x02\x00\x00R\x02\x00\x00\xd8\x00\x00\x00\x1b\x02\x00\x00h\x00\x00\x00D\x02\x00\x00\r\x00\x00\x00\xfd\x01\x00\x00^\x01\x00\x00\x0e\x00\x00\x00\x0f\x00\x00\x00%\x02\x00\x00\xb2\x00\x00\x00\x07\x01\x00\x00P\x00\x00\x00N\x02\x00\x00\xff\x00\x00\x00G\x01\x00\x00B\x01\x00\x00,\x00\x00\x00\x1c\x02\x00\x00G\x02\x00\x00\xeb\x01\x00\x00\xe4\x01\x00\x00\x85\x01\x00\x00\xe8\x01\x00\x00T\x02\x00\x00+\x02\x00\x004\x02\x00\x00\x9f\x00\x00\x00\x97\x01\x00\x00\x11\x02\x00\x00\x94\x01\x00\x00Y\x01\x00\x009\x02\x00\x00E\x02\x00\x00\x0f\x01\x00\x00L\x02\x00\x00\xfb\x01\x00\x00\x12\x01\x00\x00\xe0\x01\x00\x00\x1d\x01\x00\x00L\x01\x00\x00\xad\x01\x00\x00)\x01\x00\x00L\x00\x00\x00\xb5\x01\x00\x00\x06\x00\x00\x00\x16\x01\x00\x00\xcd\x00\x00\x00V\x00\x00\x00\xab\x00\x00\x00d\x00\x00\x00G\x00\x00\x00\xf4\x00\x00\x00\t\x00\x00\x00(\x01\x00\x00j\x00\x00\x00\xd2\x00\x00\x00\x80\x00\x00\x00\xdf\x00\x00\x00!\x00\x00\x00\xa7\x01\x00\x00E\x00\x00\x00\xc0\x01\x00\x00\xca\x01\x00\x00\xf2\x01\x00\x00\xeb\x00\x00\x00\xd1\x00\x00\x00\x13\x00\x00\x00Y\x00\x00\x000\x01\x00\x00\x11\x00\x00\x001\x00\x00\x002\x01\x00\x00\x14\x01\x00\x00\x8d\x01\x00\x00\x05\x02\x00\x00\xa4\x00\x00\x00\xb7\x00\x00\x00\x93\x00\x00\x00`\x01\x00\x00S\x01\x00\x00\xd6\x01\x00\x00\xc9\x00\x00\x00_\x01\x00\x00p\x00\x00\x00\xe7\x01\x00\x00\x0b\x00\x00\x00\x90\x00\x00\x00\xec\x00\x00\x00\x01\x02\x00\x00\x0c\x01\x00\x00y\x00\x00\x00\xc9\x01\x00\x00[\x01\x00\x00\x8b\x00\x00\x00\x9e\x00\x00\x00t\x00\x00\x00\xfe\x00\x00\x005\x02\x00\x00;\x01\x00\x00g\x01\x00\x00\xda\x00\x00\x00\xca\x00\x00\x00\x9a\x00\x00\x00x\x01\x00\x00\xa0\x01\x00\x00\x16\x02\x00\x00\xfa\x01\x00\x00S\x00\x00\x00\xd5\x01\x00\x00&\x02\x00\x00\x95\x00\x00\x00\x11\x01\x00\x00|\x00\x00\x00%\x01\x00\x00R\x01\x00\x00\xb6\x00\x00\x00K\x00\x00\x00\x00\x02\x00\x00 \x00\x00\x00\x0e\x02\x00\x00l\x00\x00\x00\x82\x00\x00\x00\xfc\x00\x00\x00$\x00\x00\x00\xfb\x00\x00\x00\xb3\x00\x00\x00\xae\x01\x00\x00\xb0\x00\x00\x00U\x01\x00\x00\xcf\x00\x00\x00]\x01\x00\x00\x83\x01\x00\x00\xea\x01\x00\x00\x00\x00\x00\x00\x1f\x01\x00\x00\xf9\x01\x00\x00\xc1\x00\x00\x00=\x01\x00\x00H\x02\x00\x00\xb2\x01\x00\x00;\x02\x00\x005\x01\x00\x00\xaf\x01\x00\x00@\x01\x00\x00\xd4\x01\x00\x00\x90\x01\x00\x00Q\x02\x00\x004\x01\x00\x00.\x00\x00\x00\x91\x01\x00\x00\xa1\x00\x00\x00z\x01\x00\x00]\x00\x00\x00\x05\x00\x00\x00\x84\x00\x00\x00\xa6\x00\x00\x00\x9d\x01\x00\x00\xd6\x00\x00\x00/\x00\x00\x00^\x00\x00\x00\x0e\x01\x00\x00\xe5\x01\x00\x00\xe0\x00\x00\x00\xee\x01\x00\x00q\x00\x00\x00\x1a\x02\x00\x00V\x02\x00\x00\xa8\x00\x00\x00\x03\x00\x00\x00\xa2\x00\x00\x00\xf8\x01\x00\x00\x1b\x00\x00\x00\xb8\x01\x00\x00\xb1\x01\x00\x00+\x01\x00\x00x\x00\x00\x00P\x01\x00\x00\x91\x00\x00\x00\xf8\x00\x00\x00M\x02\x00\x00\xc0\x00\x00\x00T\x00\x00\x00~\x00\x00\x00\xa3\x00\x00\x00\x9c\x00\x00\x00\x9d\x00\x00\x00\x06\x02\x00\x00\xaa\x01\x00\x00\xc6\x00\x00\x00\xfc\x01\x00\x00@\x02\x00\x00\x10\x01\x00\x00\xcc\x00\x00\x00\x96\x01\x00\x00\x0b\x01\x00\x00i\x01\x00\x00\x14\x00\x00\x00u\x00\x00\x00.\x02\x00\x00Z\x00\x00\x00\x9f\x01\x00\x00\xa9\x00\x00\x00\x10\x02\x00\x00\xef\x00\x00\x00\xb3\x01\x00\x00S\x02\x00\x00\xcc\x01\x00\x00\xa1\x01\x00\x00\'\x02\x00\x00$\x02\x00\x00m\x01\x00\x006\x00\x00\x00\xf6\x00\x00\x00\xff\x01\x00\x00\xf1\x00\x00\x00@\x00\x00\x00c\x01\x00\x00\xdf\x01\x00\x00\xbf\x00\x00\x00\x19\x00\x00\x00\x9e\x01\x00\x00\x9c\x01\x00\x00\xf0\x01\x00\x00\x85\x00\x00\x00\xfa\x00\x00\x00\xba\x00\x00\x00\xd0\x00\x00\x00q\x01\x00\x00\x06\x01\x00\x00{\x01\x00\x00\x83\x00\x00\x00\xac\x00\x00\x000\x00\x00\x00?\x01\x00\x00\x17\x00\x00\x00\x1f\x02\x00\x00\x08\x02\x00\x00\x07\x02\x00\x00\xda\x01\x00\x00_\x00\x00\x00\xc1\x01\x00\x00o\x00\x00\x00J\x01\x00\x00F\x01\x00\x00:\x02\x00\x00\x81\x01\x00\x00u\x01\x00\x00\xbc\x00\x00\x00A\x00\x00\x00\xa3\x01\x00\x00\x92\x01\x00\x00\xc7\x00\x00\x00E\x01\x00\x00p\x01\x00\x00\xce\x00\x00\x00i\x00\x00\x00\xbd\x01\x00\x00%\x00\x00\x00=\x02\x00\x00\xc3\x01\x00\x00\x7f\x00\x00\x00\x88\x01\x00\x00\xc4\x01\x00\x00\x8c\x01\x00\x00*\x00\x00\x00\xad\x00\x00\x00\x92\x00\x00\x00F\x02\x00\x00Z\x01\x00\x00!\x02\x00\x00\xbb\x00\x00\x00\xa8\x01\x00\x00V\x01\x00\x00s\x01\x00\x00\n\x01\x00\x00\x94\x00\x00\x00k\x01\x00\x00a\x01\x00\x00>\x02\x00\x00\x7f\x01\x00\x00\x89\x00\x00\x00(\x02\x00\x00=\x00\x00\x00J\x02\x00\x00\x01\x01\x00\x00\x0c\x02\x00\x00b\x01\x00\x00z\x00\x00\x00r\x00\x00\x009\x01\x00\x00\x98\x01\x00\x00+\x00\x00\x00\xe1\x01\x00\x00\t\x01\x00\x00C\x02\x00\x00n\x01\x00\x00\x01\x00\x00\x00\xaa\x00\x00\x00\xe8\x00\x00\x00N\x00\x00\x00U\x00\x00\x00U\x02\x00\x00v\x00\x00\x008\x02\x00\x00\xd2\x01\x00\x00\xe9\x00\x00\x00\xdd\x01\x00\x00\x08\x00\x00\x00}\x01\x00\x00Q\x00\x00\x00M\x00\x00\x00\x18\x01\x00\x00\x93\x01\x00\x00"\x02\x00\x00Q\x01\x00\x00\x97\x00\x00\x00\x18\x02\x00\x00>\x00\x00\x00\x9b\x01\x00\x00\x98\x00\x00\x00\xd3\x01\x00\x008\x00\x00\x00w\x01\x00\x00\x15\x01\x00\x00T\x01\x00\x00\x84\x01\x00\x00\x87\x00\x00\x00\x86\x01\x00\x00 \x02\x00\x00\x02\x01\x00\x00:\x01\x00\x00\xac\x01\x00\x00D\x01\x00\x00$\x01\x00\x00\xc7\x01\x00\x00\xf7\x00\x00\x00\xc2\x00\x00\x00\x87\x01\x00\x00\x1c\x01\x00\x00/\x02\x00\x00\\\x01\x00\x00\xf0\x00\x00\x00\x1a\x01\x00\x00\r\x01\x00\x00\xe6\x01\x00\x00\x8b\x01\x00\x00\x81\x00\x00\x007\x00\x00\x00\x9b\x00\x00\x00\xf5\x00\x00\x00W\x02\x00\x00`\x00\x00\x00b\x00\x00\x00e\x00\x00\x00\xa9\x01\x00\x00\xfe\x01\x00\x00\xe2\x01\x00\x00\x17\x01\x00\x00\xde\x00\x00\x001\x02\x00\x00\xf4\x01\x00\x00\xbb\x01\x00\x00\xd9\x01\x00\x00l\x01\x00\x00\x03\x02\x00\x00\xe3\x01\x00\x00\x02\x00\x00\x00\x05\x01\x00\x00\x1e\x00\x00\x00\\\x00\x00\x00\xcf\x01\x00\x00\t\x02\x00\x00\xdc\x01\x00\x00\xc6\x01\x00\x00 \x01\x00\x00\xfd\x00\x00\x00\xb9\x01\x00\x00\xef\x01\x00\x00\xd4\x00\x00\x00\xf3\x00\x00\x00\x8a\x00\x00\x00\x8a\x01\x00\x003\x02\x00\x00\x99\x00\x00\x00?\x02\x00\x00\xe1\x00\x00\x00\xb9\x00\x00\x00\xa5\x01\x00\x00\x12\x00\x00\x00\x0c\x00\x00\x00\xc4\x00\x00\x00\x8f\x00\x00\x00\xe4\x00\x00\x00"\x00\x00\x00\xc3\x00\x00\x00)\x00\x00\x00X\x01\x00\x00I\x01\x00\x00\x8f\x01\x00\x005\x00\x00\x00\xcb\x01\x00\x00\xbc\x01\x00\x00W\x00\x00\x00f\x01\x00\x00\xf9\x00\x00\x00\x8d\x00\x00\x00O\x01\x00\x00\x8e\x00\x00\x00\xa7\x00\x00\x00\xb7\x01\x00\x00\x16\x00\x00\x003\x01\x00\x00\x07\x00\x00\x00\xdd\x00\x00\x00<\x02\x00\x00\x10\x00\x00\x00\xa6\x01\x00\x00\xbd\x00\x00\x00\xc8\x01\x00\x00-\x01\x00\x00C\x01\x00\x00\xdb\x00\x00\x00\xae\x00\x00\x00\xde\x01\x00\x00\xc2\x01\x00\x00B\x00\x00\x00A\x01\x00\x00\x1a\x00\x00\x00\xce\x01\x00\x00y\x01\x00\x00\xd1\x01\x00\x00(\x00\x00\x00!\x01\x00\x00\x1d\x02\x00\x00v\x01\x00\x00\x08\x01\x00\x00\n\x00\x00\x00a\x00\x00\x00\xe6\x00\x00\x00M\x01\x00\x00'
tbsg74
I01
sg75
I1
sg76
I-1
sg77
(lp4531
I0
aI1
aI2
aI3
aI4
aI5
aI6
aI7
aI8
aI9
aI10
aI11
aI12
aI13
aI14
aI15
aI16
aI17
aI18
aI19
aI20
aI21
aI22
aI23
aI24
aI25
aI26
aI27
aI28
aI29
aI30
aI31
aI32
aI33
aI34
aI35
aI36
aI37
aI38
aI39
aI40
aI41
aI42
aI43
aI44
aI45
aI46
aI47
aI48
aI49
aI50
aI51
aI52
aI53
aI54
aI55
aI56
aI57
aI58
aI59
aI60
aI61
aI62
aI63
aI64
aI65
aI66
aI67
aI68
aI69
aI70
aI71
aI72
aI73
aI74
aI75
aI76
aI77
aI78
aI79
aI80
aI81
aI82
aI83
aI84
aI85
aI86
aI87
aI88
aI89
aI90
aI91
aI92
aI93
aI94
aI95
aI96
aI97
aI98
aI99
aI100
aI101
aI102
aI103
aI104
aI105
aI106
aI107
aI108
aI109
aI110
aI111
aI112
aI113
aI114
aI115
aI116
aI117
aI118
aI119
aI120
aI121
aI122
aI123
aI124
aI125
aI126
aI127
aI128
aI129
aI130
aI131
aI132
aI133
aI134
aI135
aI136
aI137
aI138
aI139
aI140
aI141
aI142
aI143
aI144
aI145
aI146
aI147
aI148
aI149
aI150
aI151
aI152
aI153
aI154
aI155
aI156
aI157
aI158
aI159
aI160
aI161
aI162
aI163
aI164
aI165
aI166
aI167
aI168
aI169
aI170
aI171
aI172
aI173
aI174
aI175
aI176
aI177
aI178
aI179
aI180
aI181
aI182
aI183
aI184
aI185
aI186
aI187
aI188
aI189
aI190
aI191
aI192
aI193
aI194
aI195
aI196
aI197
aI198
aI199
aI200
aI201
aI202
aI203
aI204
aI205
aI206
aI207
aI208
aI209
aI210
aI211
aI212
aI213
aI214
aI215
aI216
aI217
aI218
aI219
aI220
aI221
aI222
aI223
aI224
aI225
aI226
aI227
aI228
aI229
aI230
aI231
aI232
aI233
aI234
aI235
aI236
aI237
aI238
aI239
aI240
aI241
aI242
aI243
aI244
aI245
aI246
aI247
aI248
aI249
aI250
aI251
aI252
aI253
aI254
aI255
aI256
aI257
aI258
aI259
aI260
aI261
aI262
aI263
aI264
aI265
aI266
aI267
aI268
aI269
aI270
aI271
aI272
aI273
aI274
aI275
aI276
aI277
aI278
aI279
aI280
aI281
aI282
aI283
aI284
aI285
aI286
aI287
aI288
aI289
aI290
aI291
aI292
aI293
aI294
aI295
aI296
aI297
aI298
aI299
aI300
aI301
aI302
aI303
aI304
aI305
aI306
aI307
aI308
aI309
aI310
aI311
aI312
aI313
aI314
aI315
aI316
aI317
aI318
aI319
aI320
aI321
aI322
aI323
aI324
aI325
aI326
aI327
aI328
aI329
aI330
aI331
aI332
aI333
aI334
aI335
aI336
aI337
aI338
aI339
aI340
aI341
aI342
aI343
aI344
aI345
aI346
aI347
aI348
aI349
aI350
aI351
aI352
aI353
aI354
aI355
aI356
aI357
aI358
aI359
aI360
aI361
aI362
aI363
aI364
aI365
aI366
aI367
aI368
aI369
aI370
aI371
aI372
aI373
aI374
aI375
aI376
aI377
aI378
aI379
aI380
aI381
aI382
aI383
aI384
aI385
aI386
aI387
aI388
aI389
aI390
aI391
aI392
aI393
aI394
aI395
aI396
aI397
aI398
aI399
aI400
aI401
aI402
aI403
aI404
aI405
aI406
aI407
aI408
aI409
aI410
aI411
aI412
aI413
aI414
aI415
aI416
aI417
aI418
aI419
aI420
aI421
aI422
aI423
aI424
aI425
aI426
aI427
aI428
aI429
aI430
aI431
aI432
aI433
aI434
aI435
aI436
aI437
aI438
aI439
aI440
aI441
aI442
aI443
aI444
aI445
aI446
aI447
aI448
aI449
aI450
aI451
aI452
aI453
aI454
aI455
aI456
aI457
aI458
aI459
aI460
aI461
aI462
aI463
aI464
aI465
aI466
aI467
aI468
aI469
aI470
aI471
aI472
aI473
aI474
aI475
aI476
aI477
aI478
aI479
aI480
aI481
aI482
aI483
aI484
aI485
aI486
aI487
aI488
aI489
aI490
aI491
aI492
aI493
aI494
aI495
aI496
aI497
aI498
aI499
aI500
aI501
aI502
aI503
aI504
aI505
aI506
aI507
aI508
aI509
aI510
aI511
aI512
aI513
aI514
aI515
aI516
aI517
aI518
aI519
aI520
aI521
aI522
aI523
aI524
aI525
aI526
aI527
aI528
aI529
aI530
aI531
aI532
aI533
aI534
aI535
aI536
aI537
aI538
aI539
aI540
aI541
aI542
aI543
aI544
aI545
aI546
aI547
aI548
aI549
aI550
aI551
aI552
aI553
aI554
aI555
aI556
aI557
aI558
aI559
aI560
aI561
aI562
aI563
aI564
aI565
aI566
aI567
aI568
aI569
aI570
aI571
aI572
aI573
aI574
aI575
aI576
aI577
aI578
aI579
aI580
aI581
aI582
aI583
aI584
aI585
aI586
aI587
aI588
aI589
aI590
aI591
aI592
aI593
aI594
aI595
aI596
aI597
aI598
aI599
asg79
Nsg80
cnumpy.core.multiarray
scalar
p4532
(g4530
S'M\x01\x00\x00'
tRp4533
sg81
I600
sg82
I0
sg83
I600
sg84
I01
sbag37
asS'savePickle'
p4534
I00
sb.