ccopy_reg
_reconstructor
p1
(cpsychopy.data
ExperimentHandler
p2
c__builtin__
object
p3
NtRp4
(dp5
S'originPath'
p6
NsS'dataFileName'
p7
Vsubject634
p8
sS'runtimeInfo'
p9
NsS'name'
p10
VVERBALRBsubject 634
p11
sS'dataNames'
p12
(lp13
S'Block Number'
p14
aS'Key pressed'
p15
aS'Correct?'
p16
aS'Category'
p17
aS'Int Match?'
p18
aS'Int Response'
p19
aS'Int Correct?'
p20
aS'Line Accuracy'
p21
aS'Interference Accuracy'
p22
aS'Matching Interferences'
p23
aS'New instruction shown?'
p24
aS'Buttons switched?'
p25
aS'Fast?'
p26
asS'autoLog'
p27
I01
sS'extraInfo'
p28
(dp29
S'gender'
p30
Vfemale
p31
sS'age'
p32
V20
p33
ssS'loopsUnfinished'
p34
(lp35
g1
(cpsychopy.data
TrialHandler
p36
g3
NtRp37
(dp38
S'origin'
p39
NsS'thisTrial'
p40
I10
sS'_exp'
p41
I79389680
sg10
S''
sg6
S'C:\\Users\\Mike\\Desktop\\Dual2\\NEWSpatialRB.py'
p42
sS'thisRepN'
p43
I39
sg27
I01
sg28
NsS'data'
p44
g1
(cpsychopy.data
DataHandler
p45
c__builtin__
dict
p46
(dp47
S'ran'
p48
cnumpy.ma.core
_mareconstruct
p49
(cnumpy.ma.core
MaskedArray
p50
cnumpy
ndarray
p51
(I0
tp52
S'b'
tRp53
(I1
(I15
I40
tcnumpy
dtype
p54
(S'f4'
I0
I1
tRp55
(I3
S'<'
NNNI-1
I-1
I0
tbI00
S'\x00\x00\x80?\x00\x00\x80?\x00\x00\x80?\x00\x00\x80?\x00\x00\x80?\x00\x00\x80?\x00\x00\x80?\x00\x00\x80?\x00\x00\x80?\x00\x00\x80?\x00\x00\x80?\x00\x00\x80?\x00\x00\x80?\x00\x00\x80?\x00\x00\x80?\x00\x00\x80?\x00\x00\x80?\x00\x00\x80?\x00\x00\x80?\x00\x00\x80?\x00\x00\x80?\x00\x00\x80?\x00\x00\x80?\x00\x00\x80?\x00\x00\x80?\x00\x00\x80?\x00\x00\x80?\x00\x00\x80?\x00\x00\x80?\x00\x00\x80?\x00\x00\x80?\x00\x00\x80?\x00\x00\x80?\x00\x00\x80?\x00\x00\x80?\x00\x00\x80?\x00\x00\x80?\x00\x00\x80?\x00\x00\x80?\x00\x00\x80?\x00\x00\x80?\x00\x00\x80?\x00\x00\x80?\x00\x00\x80?\x00\x00\x80?\x00\x00\x80?\x00\x00\x80?\x00\x00\x80?\x00\x00\x80?\x00\x00\x80?\x00\x00\x80?\x00\x00\x80?\x00\x00\x80?\x00\x00\x80?\x00\x00\x80?\x00\x00\x80?\x00\x00\x80?\x00\x00\x80?\x00\x00\x80?\x00\x00\x80?\x00\x00\x80?\x00\x00\x80?\x00\x00\x80?\x00\x00\x80?\x00\x00\x80?\x00\x00\x80?\x00\x00\x80?\x00\x00\x80?\x00\x00\x80?\x00\x00\x80?\x00\x00\x80?\x00\x00\x80?\x00\x00\x80?\x00\x00\x80?\x00\x00\x80?\x00\x00\x80?\x00\x00\x80?\x00\x00\x80?\x00\x00\x80?\x00\x00\x80?\x00\x00\x80?\x00\x00\x80?\x00\x00\x80?\x00\x00\x80?\x00\x00\x80?\x00\x00\x80?\x00\x00\x80?\x00\x00\x80?\x00\x00\x80?\x00\x00\x80?\x00\x00\x80?\x00\x00\x80?\x00\x00\x80?\x00\x00\x80?\x00\x00\x80?\x00\x00\x80?\x00\x00\x80?\x00\x00\x80?\x00\x00\x80?\x00\x00\x80?\x00\x00\x80?\x00\x00\x80?\x00\x00\x80?\x00\x00\x80?\x00\x00\x80?\x00\x00\x80?\x00\x00\x80?\x00\x00\x80?\x00\x00\x80?\x00\x00\x80?\x00\x00\x80?\x00\x00\x80?\x00\x00\x80?\x00\x00\x80?\x00\x00\x80?\x00\x00\x80?\x00\x00\x80?\x00\x00\x80?\x00\x00\x80?\x00\x00\x80?\x00\x00\x80?\x00\x00\x80?\x00\x00\x80?\x00\x00\x80?\x00\x00\x80?\x00\x00\x80?\x00\x00\x80?\x00\x00\x80?\x00\x00\x80?\x00\x00\x80?\x00\x00\x80?\x00\x00\x80?\x00\x00\x80?\x00\x00\x80?\x00\x00\x80?\x00\x00\x80?\x00\x00\x80?\x00\x00\x80?\x00\x00\x80?\x00\x00\x80?\x00\x00\x80?\x00\x00\x80?\x00\x00\x80?\x00\x00\x80?\x00\x00\x80?\x00\x00\x80?\x00\x00\x80?\x00\x00\x80?\x00\x00\x80?\x00\x00\x80?\x00\x00\x80?\x00\x00\x80?\x00\x00\x80?\x00\x00\x80?\x00\x00\x80?\x00\x00\x80?\x00\x00\x80?\x00\x00\x80?\x00\x00\x80?\x00\x00\x80?\x00\x00\x80?\x00\x00\x80?\x00\x00\x80?\x00\x00\x80?\x00\x00\x80?\x00\x00\x80?\x00\x00\x80?\x00\x00\x80?\x00\x00\x80?\x00\x00\x80?\x00\x00\x80?\x00\x00\x80?\x00\x00\x80?\x00\x00\x80?\x00\x00\x80?\x00\x00\x80?\x00\x00\x80?\x00\x00\x80?\x00\x00\x80?\x00\x00\x80?\x00\x00\x80?\x00\x00\x80?\x00\x00\x80?\x00\x00\x80?\x00\x00\x80?\x00\x00\x80?\x00\x00\x80?\x00\x00\x80?\x00\x00\x80?\x00\x00\x80?\x00\x00\x80?\x00\x00\x80?\x00\x00\x80?\x00\x00\x80?\x00\x00\x80?\x00\x00\x80?\x00\x00\x80?\x00\x00\x80?\x00\x00\x80?\x00\x00\x80?\x00\x00\x80?\x00\x00\x80?\x00\x00\x80?\x00\x00\x80?\x00\x00\x80?\x00\x00\x80?\x00\x00\x80?\x00\x00\x80?\x00\x00\x80?\x00\x00\x80?\x00\x00\x80?\x00\x00\x80?\x00\x00\x80?\x00\x00\x80?\x00\x00\x80?\x00\x00\x80?\x00\x00\x80?\x00\x00\x80?\x00\x00\x80?\x00\x00\x80?\x00\x00\x80?\x00\x00\x80?\x00\x00\x80?\x00\x00\x80?\x00\x00\x80?\x00\x00\x80?\x00\x00\x80?\x00\x00\x80?\x00\x00\x80?\x00\x00\x80?\x00\x00\x80?\x00\x00\x80?\x00\x00\x80?\x00\x00\x80?\x00\x00\x80?\x00\x00\x80?\x00\x00\x80?\x00\x00\x80?\x00\x00\x80?\x00\x00\x80?\x00\x00\x80?\x00\x00\x80?\x00\x00\x80?\x00\x00\x80?\x00\x00\x80?\x00\x00\x80?\x00\x00\x80?\x00\x00\x80?\x00\x00\x80?\x00\x00\x80?\x00\x00\x80?\x00\x00\x80?\x00\x00\x80?\x00\x00\x80?\x00\x00\x80?\x00\x00\x80?\x00\x00\x80?\x00\x00\x80?\x00\x00\x80?\x00\x00\x80?\x00\x00\x80?\x00\x00\x80?\x00\x00\x80?\x00\x00\x80?\x00\x00\x80?\x00\x00\x80?\x00\x00\x80?\x00\x00\x80?\x00\x00\x80?\x00\x00\x80?\x00\x00\x80?\x00\x00\x80?\x00\x00\x80?\x00\x00\x80?\x00\x00\x80?\x00\x00\x80?\x00\x00\x80?\x00\x00\x80?\x00\x00\x80?\x00\x00\x80?\x00\x00\x80?\x00\x00\x80?\x00\x00\x80?\x00\x00\x80?\x00\x00\x80?\x00\x00\x80?\x00\x00\x80?\x00\x00\x80?\x00\x00\x80?\x00\x00\x80?\x00\x00\x80?\x00\x00\x80?\x00\x00\x80?\x00\x00\x80?\x00\x00\x80?\x00\x00\x80?\x00\x00\x80?\x00\x00\x80?\x00\x00\x80?\x00\x00\x80?\x00\x00\x80?\x00\x00\x80?\x00\x00\x80?\x00\x00\x80?\x00\x00\x80?\x00\x00\x80?\x00\x00\x80?\x00\x00\x80?\x00\x00\x80?\x00\x00\x80?\x00\x00\x80?\x00\x00\x80?\x00\x00\x80?\x00\x00\x80?\x00\x00\x80?\x00\x00\x80?\x00\x00\x80?\x00\x00\x80?\x00\x00\x80?\x00\x00\x80?\x00\x00\x80?\x00\x00\x80?\x00\x00\x80?\x00\x00\x80?\x00\x00\x80?\x00\x00\x80?\x00\x00\x80?\x00\x00\x80?\x00\x00\x80?\x00\x00\x80?\x00\x00\x80?\x00\x00\x80?\x00\x00\x80?\x00\x00\x80?\x00\x00\x80?\x00\x00\x80?\x00\x00\x80?\x00\x00\x80?\x00\x00\x80?\x00\x00\x80?\x00\x00\x80?\x00\x00\x80?\x00\x00\x80?\x00\x00\x80?\x00\x00\x80?\x00\x00\x80?\x00\x00\x80?\x00\x00\x80?\x00\x00\x80?\x00\x00\x80?\x00\x00\x80?\x00\x00\x80?\x00\x00\x80?\x00\x00\x80?\x00\x00\x80?\x00\x00\x80?\x00\x00\x80?\x00\x00\x80?\x00\x00\x80?\x00\x00\x80?\x00\x00\x80?\x00\x00\x80?\x00\x00\x80?\x00\x00\x80?\x00\x00\x80?\x00\x00\x80?\x00\x00\x80?\x00\x00\x80?\x00\x00\x80?\x00\x00\x80?\x00\x00\x80?\x00\x00\x80?\x00\x00\x80?\x00\x00\x80?\x00\x00\x80?\x00\x00\x80?\x00\x00\x80?\x00\x00\x80?\x00\x00\x80?\x00\x00\x80?\x00\x00\x80?\x00\x00\x80?\x00\x00\x80?\x00\x00\x80?\x00\x00\x80?\x00\x00\x80?\x00\x00\x80?\x00\x00\x80?\x00\x00\x80?\x00\x00\x80?\x00\x00\x80?\x00\x00\x80?\x00\x00\x80?\x00\x00\x80?\x00\x00\x80?\x00\x00\x80?\x00\x00\x80?\x00\x00\x80?\x00\x00\x80?\x00\x00\x80?\x00\x00\x80?\x00\x00\x80?\x00\x00\x80?\x00\x00\x80?\x00\x00\x80?\x00\x00\x80?\x00\x00\x80?\x00\x00\x80?\x00\x00\x80?\x00\x00\x80?\x00\x00\x80?\x00\x00\x80?\x00\x00\x80?\x00\x00\x80?\x00\x00\x80?\x00\x00\x80?\x00\x00\x80?\x00\x00\x80?\x00\x00\x80?\x00\x00\x80?\x00\x00\x80?\x00\x00\x80?\x00\x00\x80?\x00\x00\x80?\x00\x00\x80?\x00\x00\x80?\x00\x00\x80?\x00\x00\x80?\x00\x00\x80?\x00\x00\x80?\x00\x00\x80?\x00\x00\x80?\x00\x00\x80?\x00\x00\x80?\x00\x00\x80?\x00\x00\x80?\x00\x00\x80?\x00\x00\x80?\x00\x00\x80?\x00\x00\x80?\x00\x00\x80?\x00\x00\x80?\x00\x00\x80?\x00\x00\x80?\x00\x00\x80?\x00\x00\x80?\x00\x00\x80?\x00\x00\x80?\x00\x00\x80?\x00\x00\x80?\x00\x00\x80?\x00\x00\x80?\x00\x00\x80?\x00\x00\x80?\x00\x00\x80?\x00\x00\x80?\x00\x00\x80?\x00\x00\x80?\x00\x00\x80?\x00\x00\x80?\x00\x00\x80?\x00\x00\x80?\x00\x00\x80?\x00\x00\x80?\x00\x00\x80?\x00\x00\x80?\x00\x00\x80?\x00\x00\x80?\x00\x00\x80?\x00\x00\x80?\x00\x00\x80?\x00\x00\x80?\x00\x00\x80?\x00\x00\x80?\x00\x00\x80?\x00\x00\x80?\x00\x00\x80?\x00\x00\x80?\x00\x00\x80?\x00\x00\x80?\x00\x00\x80?\x00\x00\x80?\x00\x00\x80?\x00\x00\x80?\x00\x00\x80?\x00\x00\x80?\x00\x00\x80?\x00\x00\x80?\x00\x00\x80?\x00\x00\x80?\x00\x00\x80?\x00\x00\x80?\x00\x00\x80?\x00\x00\x80?\x00\x00\x80?\x00\x00\x80?\x00\x00\x80?\x00\x00\x80?\x00\x00\x80?\x00\x00\x80?\x00\x00\x80?\x00\x00\x80?\x00\x00\x80?\x00\x00\x80?\x00\x00\x80?\x00\x00\x80?\x00\x00\x80?\x00\x00\x80?\x00\x00\x80?\x00\x00\x80?\x00\x00\x80?\x00\x00\x80?\x00\x00\x80?\x00\x00\x80?\x00\x00\x80?\x00\x00\x80?\x00\x00\x80?\x00\x00\x80?\x00\x00\x80?\x00\x00\x80?\x00\x00\x80?\x00\x00\x80?\x00\x00\x80?\x00\x00\x80?\x00\x00\x80?\x00\x00\x80?\x00\x00\x80?\x00\x00\x80?\x00\x00\x80?\x00\x00\x80?\x00\x00\x80?\x00\x00\x80?\x00\x00\x80?\x00\x00\x80?\x00\x00\x80?\x00\x00\x80?\x00\x00\x80?\x00\x00\x80?\x00\x00\x80?\x00\x00\x80?\x00\x00\x80?\x00\x00\x80?\x00\x00\x80?\x00\x00\x80?\x00\x00\x80?\x00\x00\x80?\x00\x00\x80?\x00\x00\x80?\x00\x00\x80?\x00\x00\x80?\x00\x00\x80?\x00\x00\x80?\x00\x00\x80?\x00\x00\x80?\x00\x00\x80?\x00\x00\x80?\x00\x00\x80?\x00\x00\x80?\x00\x00\x80?\x00\x00\x80?\x00\x00\x80?\x00\x00\x80?\x00\x00\x80?\x00\x00\x80?\x00\x00\x80?\x00\x00\x80?\x00\x00\x80?\x00\x00\x80?\x00\x00\x80?\x00\x00\x80?\x00\x00\x80?\x00\x00\x80?\x00\x00\x80?\x00\x00\x80?\x00\x00\x80?\x00\x00\x80?\x00\x00\x80?\x00\x00\x80?\x00\x00\x80?\x00\x00\x80?\x00\x00\x80?\x00\x00\x80?\x00\x00\x80?\x00\x00\x80?\x00\x00\x80?\x00\x00\x80?\x00\x00\x80?\x00\x00\x80?\x00\x00\x80?\x00\x00\x80?\x00\x00\x80?\x00\x00\x80?\x00\x00\x80?\x00\x00\x80?\x00\x00\x80?\x00\x00\x80?\x00\x00\x80?\x00\x00\x80?\x00\x00\x80?\x00\x00\x80?'
S'\x00\x00\x00\x00\x00\x00\x00\x00\x00\x00\x00\x00\x00\x00\x00\x00\x00\x00\x00\x00\x00\x00\x00\x00\x00\x00\x00\x00\x00\x00\x00\x00\x00\x00\x00\x00\x00\x00\x00\x00\x00\x00\x00\x00\x00\x00\x00\x00\x00\x00\x00\x00\x00\x00\x00\x00\x00\x00\x00\x00\x00\x00\x00\x00\x00\x00\x00\x00\x00\x00\x00\x00\x00\x00\x00\x00\x00\x00\x00\x00\x00\x00\x00\x00\x00\x00\x00\x00\x00\x00\x00\x00\x00\x00\x00\x00\x00\x00\x00\x00\x00\x00\x00\x00\x00\x00\x00\x00\x00\x00\x00\x00\x00\x00\x00\x00\x00\x00\x00\x00\x00\x00\x00\x00\x00\x00\x00\x00\x00\x00\x00\x00\x00\x00\x00\x00\x00\x00\x00\x00\x00\x00\x00\x00\x00\x00\x00\x00\x00\x00\x00\x00\x00\x00\x00\x00\x00\x00\x00\x00\x00\x00\x00\x00\x00\x00\x00\x00\x00\x00\x00\x00\x00\x00\x00\x00\x00\x00\x00\x00\x00\x00\x00\x00\x00\x00\x00\x00\x00\x00\x00\x00\x00\x00\x00\x00\x00\x00\x00\x00\x00\x00\x00\x00\x00\x00\x00\x00\x00\x00\x00\x00\x00\x00\x00\x00\x00\x00\x00\x00\x00\x00\x00\x00\x00\x00\x00\x00\x00\x00\x00\x00\x00\x00\x00\x00\x00\x00\x00\x00\x00\x00\x00\x00\x00\x00\x00\x00\x00\x00\x00\x00\x00\x00\x00\x00\x00\x00\x00\x00\x00\x00\x00\x00\x00\x00\x00\x00\x00\x00\x00\x00\x00\x00\x00\x00\x00\x00\x00\x00\x00\x00\x00\x00\x00\x00\x00\x00\x00\x00\x00\x00\x00\x00\x00\x00\x00\x00\x00\x00\x00\x00\x00\x00\x00\x00\x00\x00\x00\x00\x00\x00\x00\x00\x00\x00\x00\x00\x00\x00\x00\x00\x00\x00\x00\x00\x00\x00\x00\x00\x00\x00\x00\x00\x00\x00\x00\x00\x00\x00\x00\x00\x00\x00\x00\x00\x00\x00\x00\x00\x00\x00\x00\x00\x00\x00\x00\x00\x00\x00\x00\x00\x00\x00\x00\x00\x00\x00\x00\x00\x00\x00\x00\x00\x00\x00\x00\x00\x00\x00\x00\x00\x00\x00\x00\x00\x00\x00\x00\x00\x00\x00\x00\x00\x00\x00\x00\x00\x00\x00\x00\x00\x00\x00\x00\x00\x00\x00\x00\x00\x00\x00\x00\x00\x00\x00\x00\x00\x00\x00\x00\x00\x00\x00\x00\x00\x00\x00\x00\x00\x00\x00\x00\x00\x00\x00\x00\x00\x00\x00\x00\x00\x00\x00\x00\x00\x00\x00\x00\x00\x00\x00\x00\x00\x00\x00\x00\x00\x00\x00\x00\x00\x00\x00\x00\x00\x00\x00\x00\x00\x00\x00\x00\x00\x00\x00\x00\x00\x00\x00\x00\x00\x00\x00\x00\x00\x00\x00\x00\x00\x00\x00\x00\x00\x00\x00\x00\x00\x00\x00\x00\x00\x00\x00\x00\x00\x00\x00\x00\x00\x00\x00\x00\x00\x00\x00\x00\x00\x00\x00\x00\x00\x00\x00\x00\x00\x00\x00\x00\x00\x00\x00\x00\x00\x00\x00\x00\x00\x00\x00\x00\x00\x00\x00\x00\x00\x00\x00\x00\x00\x00\x00\x00\x00\x00\x00\x00\x00\x00\x00\x00\x00\x00\x00\x00\x00\x00\x00\x00\x00\x00\x00\x00\x00\x00\x00\x00\x00\x00\x00\x00\x00\x00\x00\x00\x00\x00\x00\x00\x00\x00\x00\x00\x00\x00\x00\x00\x00\x00\x00'
NtbsS'order'
p56
g49
(g50
g51
g52
S'b'
tRp57
(I1
(I15
I40
tg55
I00
S'\x00\x00\xb8A\x00\x00\x08B\x00\x00\x14B\x00\x00TB\x00\x00\x9eB\x00\x00\xacB\x00\x00\xb2B\x00\x00\xceB\x00\x00\xd4B\x00\x00\xd6B\x00\x00\xe2B\x00\x00\xe8B\x00\x00\xf0B\x00\x00\x14C\x00\x005C\x00\x00BC\x00\x00QC\x00\x00sC\x00\x80\x99C\x00\x00\xa1C\x00\x80\xa2C\x00\x80\xa3C\x00\x80\xabC\x00\x00\xb0C\x00\x80\xb8C\x00\x00\xbaC\x00\x00\xc4C\x00\x80\xcaC\x00\x00\xd2C\x00\x80\xd7C\x00\x80\xddC\x00\x00\xefC\x00\x00\xf0C\x00\x00\xf2C\x00@\x02D\x00@\x05D\x00\x00\tD\x00\x00\x13D\x00@\x14D\x00\x80\x15D\x00\x00\xa0@\x00\x00\xd0A\x00\x00\x0cB\x00\x00\x80B\x00\x00\x9aB\x00\x00\xb6B\x00\x00\xc2B\x00\x00\xdaB\x00\x00\xecB\x00\x00\xf4B\x00\x00\x06C\x00\x00\nC\x00\x00!C\x00\x00\'C\x00\x00+C\x00\x00JC\x00\x00TC\x00\x00bC\x00\x00eC\x00\x00tC\x00\x00\x97C\x00\x00\xa5C\x00\x00\xa6C\x00\x00\xabC\x00\x00\xaeC\x00\x00\xb5C\x00\x00\xbfC\x00\x00\xc0C\x00\x80\xc4C\x00\x00\xc8C\x00\x00\xd8C\x00\x80\xe2C\x00\x00\xeaC\x00\x80\xf6C\x00\x00\xfcC\x00@\x01D\x00@\x07D\x00\xc0\tD\x00@\nD\x00\x00\x12D\x00\x00\x00B\x00\x00\x10B\x00\x00HB\x00\x00PB\x00\x00`B\x00\x00hB\x00\x00xB\x00\x00\x8cB\x00\x00\xb8B\x00\x00\xd2B\x00\x00\xeeB\x00\x000C\x00\x00:C\x00\x00?C\x00\x00fC\x00\x00lC\x00\x00nC\x00\x00xC\x00\x00\x7fC\x00\x00\x82C\x00\x80\x95C\x00\x00\xa2C\x00\x00\xa3C\x00\x80\xa6C\x00\x80\xaaC\x00\x80\xb1C\x00\x80\xbeC\x00\x00\xcaC\x00\x80\xceC\x00\x80\xd1C\x00\x00\xe3C\x00\x00\xe8C\x00\x80\xf2C\x00\x80\x01D\x00\x00\x07D\x00\x80\x07D\x00\x80\tD\x00\x80\x0cD\x00@\x0eD\x00\x80\x14D\x00\x000A\x00\x00\xd8A\x00\x00\xe0A\x00\x00\x04B\x00\x00\x18B\x00\x00dB\x00\x00\x90B\x00\x00\x92B\x00\x00\x96B\x00\x00\xf6B\x00\x00\tC\x00\x00\x10C\x00\x00%C\x00\x00(C\x00\x00DC\x00\x00_C\x00\x00wC\x00\x80\x87C\x00\x80\x9aC\x00\x80\xa9C\x00\x80\xaeC\x00\x80\xb2C\x00\x00\xbbC\x00\x80\xbfC\x00\x80\xc1C\x00\x80\xc8C\x00\x00\xd7C\x00\x00\xdaC\x00\x80\xe4C\x00\x00\xf1C\x00\x00\xf5C\x00\x00\xf9C\x00\x80\xf9C\x00\xc0\x03D\x00@\x04D\x00\x00\x06D\x00\x80\nD\x00\xc0\x0eD\x00@\x11D\x00\x80\x13D\x00\x00\x00\x00\x00\x00\xc0A\x00\x000B\x00\x00tB\x00\x00|B\x00\x00\x17C\x00\x00\x19C\x00\x00 C\x00\x00-C\x00\x009C\x00\x00>C\x00\x00EC\x00\x00ZC\x00\x00aC\x00\x00jC\x00\x00\x81C\x00\x80\x81C\x00\x80\x86C\x00\x00\x96C\x00\x00\xa7C\x00\x80\xafC\x00\x00\xb3C\x00\x00\xcdC\x00\x80\xcfC\x00\x80\xd0C\x00\x80\xd4C\x00\x80\xdfC\x00\x80\xe1C\x00\x00\xe6C\x00\x00\xe7C\x00\x00\xecC\x00\x00\xf4C\x00\x80\xf7C\x00\x00\xfeC\x00\x00\xffC\x00\xc0\x00D\x00@\x0fD\x00\x00\x10D\x00\xc0\x11D\x00\x00\x15D\x00\x00\x00A\x00\x00<B\x00\x00\xa8B\x00\x00\xaaB\x00\x00\xc0B\x00\x00\xcaB\x00\x00\x01C\x00\x00$C\x00\x00&C\x00\x00@C\x00\x00]C\x00\x80\x82C\x00\x80\x83C\x00\x80\x88C\x00\x00\x89C\x00\x00\x8bC\x00\x80\x8eC\x00\x00\x93C\x00\x00\x94C\x00\x80\x96C\x00\x00\xaaC\x00\x00\xb6C\x00\x80\xb6C\x00\x00\xe0C\x00\x00\xe1C\x00\x80\xe6C\x00\x80\xf4C\x00\x00\xfaC\x00\x00\xfbC\x00\x80\xfbC\x00\x80\xfdC\x00\x80\x00D\x00\x00\x02D\x00\x80\x03D\x00\x00\x04D\x00@\x06D\x00@\x08D\x00\x80\x0eD\x00@\x10D\x00\x80\x12D\x00\x00pA\x00\x00$B\x00\x00\xa0B\x00\x00\xb0B\x00\x00\xbcB\x00\x00\xccB\x00\x00\xdcB\x00\x00\xe4B\x00\x00\xf8B\x00\x00\xfaB\x00\x00\x12C\x00\x00\x16C\x00\x00\x1aC\x00\x00\x1bC\x00\x00\x1dC\x00\x002C\x00\x00;C\x00\x00UC\x00\x00`C\x00\x00hC\x00\x00kC\x00\x00\x80C\x00\x80\x84C\x00\x00\x87C\x00\x80\x8dC\x00\x00\x8fC\x00\x00\x92C\x00\x80\x92C\x00\x80\xa7C\x00\x80\xa8C\x00\x80\xadC\x00\x80\xb3C\x00\x00\xccC\x00\x80\xdcC\x00\x00\xdeC\x00\xc0\x01D\x00\x80\x04D\x00\xc0\x0fD\x00\x80\x10D\x00\xc0\x12D\x00\x00\x90A\x00\x004B\x00\x00\\B\x00\x00pB\x00\x00\xc6B\x00\x00\xc8B\x00\x00\xd0B\x00\x00\x00C\x00\x00\x0bC\x00\x00\x11C\x00\x00\x15C\x00\x00#C\x00\x00)C\x00\x001C\x00\x007C\x00\x008C\x00\x00GC\x00\x00HC\x00\x00PC\x00\x00RC\x00\x00[C\x00\x80\x80C\x00\x00\x88C\x00\x00\x8cC\x00\x80\x8cC\x00\x00\x8eC\x00\x80\x9dC\x00\x80\xb5C\x00\x00\xb8C\x00\x80\xb9C\x00\x80\xbcC\x00\x80\xbdC\x00\x80\xc3C\x00\x80\xccC\x00\x80\xd8C\x00\x80\xeaC\x00\x80\xf1C\x00\x80\xfaC\x00\xc0\x04D\x00\xc0\x13D\x00\x00\x88A\x00\x00,B\x00\x008B\x00\x00LB\x00\x00\x94B\x00\x00\x98B\x00\x00\xa4B\x00\x00\xb4B\x00\x00\xf2B\x00\x00\xfcB\x00\x00CC\x00\x00FC\x00\x00WC\x00\x00rC\x00\x00vC\x00\x80\x93C\x00\x80\x9bC\x00\x80\x9cC\x00\x00\xb2C\x00\x80\xb4C\x00\x80\xb7C\x00\x00\xbdC\x00\x80\xc2C\x00\x00\xc6C\x00\x80\xc7C\x00\x80\xd2C\x00\x00\xd3C\x00\x80\xe3C\x00\x00\xe4C\x00\x00\xe5C\x00\x80\xe5C\x00\x80\xe7C\x00\x80\xf3C\x00\x80\xf8C\x00@\x03D\x00\x80\x05D\x00\xc0\x06D\x00@\x0bD\x00\x00\x0cD\x00@\x15D\x00\x00\x10A\x00\x00PA\x00\x00\x98A\x00\x00\xa8A\x00\x00\x1cB\x00\x00 B\x00\x00@B\x00\x00\xaeB\x00\x00\xbaB\x00\x00\xd8B\x00\x00\x03C\x00\x00\x0eC\x00\x00*C\x00\x00LC\x00\x00NC\x00\x00OC\x00\x00XC\x00\x00iC\x00\x00mC\x00\x00\x84C\x00\x00\x8aC\x00\x00\x9cC\x00\x80\xa0C\x00\x80\xacC\x00\x00\xb9C\x00\x00\xc2C\x00\x00\xc5C\x00\x00\xd0C\x00\x00\xd9C\x00\x80\xd9C\x00\x00\xdbC\x00\x00\xddC\x00\x00\xedC\x00\x80\xefC\x00\xc0\x08D\x00\x00\nD\x00\xc0\x0bD\x00\xc0\x0cD\x00\x00\x0fD\x00\x80\x0fD\x00\x00`A\x00\x00(B\x00\x00\xa2B\x00\x00\xe0B\x00\x00\xfeB\x00\x00\x0cC\x00\x00\x13C\x00\x00SC\x00\x00oC\x00\x00}C\x00\x00\x86C\x00\x80\x94C\x00\x00\x98C\x00\x80\x98C\x00\x00\x9fC\x00\x00\xa0C\x00\x80\xa1C\x00\x00\xa4C\x00\x00\xa8C\x00\x00\xafC\x00\x00\xb1C\x00\x00\xb4C\x00\x00\xb7C\x00\x00\xbcC\x00\x00\xbeC\x00\x00\xc3C\x00\x00\xd4C\x00\x80\xdaC\x00\x80\xe8C\x00\x00\xebC\x00\x80\xfeC\x00@\x00D\x00\x00\x01D\x00\xc0\x05D\x00\x80\x08D\x00@\tD\x00\x00\x0bD\x00\xc0\rD\x00@\x12D\x00\xc0\x15D\x00\x00\xc8A\x00\x00DB\x00\x00lB\x00\x00\x84B\x00\x00\x8eB\x00\x00\xdeB\x00\x00\xe6B\x00\x00.C\x00\x003C\x00\x00IC\x00\x00KC\x00\x00^C\x00\x00qC\x00\x00zC\x00\x80\x89C\x00\x00\x91C\x00\x00\x95C\x00\x80\x9fC\x00\x80\xa5C\x00\x00\xadC\x00\x80\xbaC\x00\x80\xcdC\x00\x00\xcfC\x00\x00\xd1C\x00\x80\xd3C\x00\x80\xdbC\x00\x00\xdfC\x00\x80\xe0C\x00\x80\xecC\x00\x00\xfdC\x00\x80\x02D\x00\xc0\x02D\x00\x00\x03D\x00\x00\x08D\x00\xc0\nD\x00@\x0cD\x00\x00\rD\x00@\rD\x00\x00\x0eD\x00@\x13D\x00\x00\x80?\x00\x00 A\x00\x00\xb0A\x00\x00\xe8A\x00\x00XB\x00\x00\x86B\x00\x00\x88B\x00\x00\xeaB\x00\x00\x02C\x00\x00,C\x00\x00<C\x00\x00AC\x00\x00VC\x00\x00YC\x00\x00dC\x00\x00{C\x00\x00\x85C\x00\x80\x8aC\x00\x80\x8bC\x00\x00\x8dC\x00\x80\x91C\x00\x00\x9eC\x00\x80\x9eC\x00\x80\xc0C\x00\x80\xc5C\x00\x80\xc6C\x00\x00\xc9C\x00\x80\xcbC\x00\x80\xd6C\x00\x00\xdcC\x00\x00\xe2C\x00\x80\xe9C\x00\x80\xedC\x00\x80\xeeC\x00\x00\xf3C\x00\x00\xf6C\x00\x80\xfcC\x00\xc0\x07D\x00\x80\x0bD\x00\x80\rD\x00\x00@@\x00\x00\x80@\x00\x00\xc0@\x00\x00@A\x00\x00\xf0A\x00\x00\xf8A\x00\x00\x82B\x00\x00\x8aB\x00\x00\xa6B\x00\x00\xc4B\x00\x00\x05C\x00\x00\x1cC\x00\x00\x1eC\x00\x00=C\x00\x00MC\x00\x00gC\x00\x00pC\x00\x00uC\x00\x00|C\x00\x00~C\x00\x80\x85C\x00\x80\x8fC\x00\x80\x97C\x00\x00\x99C\x00\x00\x9aC\x00\x00\x9dC\x00\x80\xa4C\x00\x80\xb0C\x00\x00\xc1C\x00\x00\xc7C\x00\x00\xd5C\x00\x80\xd5C\x00\x00\xd6C\x00\x80\xebC\x00\x80\xf5C\x00\x00\x00D\x00\x00\x05D\x00\x80\x06D\x00\x00\x14D\x00\xc0\x14D\x00\x00\x00@\x00\x00\xe0@\x00\x00\x80A\x00\x00\xa0A\x00\x00\x9cB\x00\x00\xbeB\x00\x00\x04C\x00\x00\x07C\x00\x00\x08C\x00\x00\rC\x00\x00\x0fC\x00\x00\x18C\x00\x00\x1fC\x00\x00"C\x00\x00/C\x00\x004C\x00\x006C\x00\x00\\C\x00\x00cC\x00\x00yC\x00\x00\x83C\x00\x00\x90C\x00\x80\x90C\x00\x00\x9bC\x00\x00\xa9C\x00\x00\xacC\x00\x80\xbbC\x00\x80\xc9C\x00\x00\xcbC\x00\x00\xceC\x00\x80\xdeC\x00\x00\xe9C\x00\x00\xeeC\x00\x80\xf0C\x00\x00\xf7C\x00\x00\xf8C\x00\x80\xffC\x00\xc0\x10D\x00\x00\x11D\x00\x80\x11D'
S'\x00\x00\x00\x00\x00\x00\x00\x00\x00\x00\x00\x00\x00\x00\x00\x00\x00\x00\x00\x00\x00\x00\x00\x00\x00\x00\x00\x00\x00\x00\x00\x00\x00\x00\x00\x00\x00\x00\x00\x00\x00\x00\x00\x00\x00\x00\x00\x00\x00\x00\x00\x00\x00\x00\x00\x00\x00\x00\x00\x00\x00\x00\x00\x00\x00\x00\x00\x00\x00\x00\x00\x00\x00\x00\x00\x00\x00\x00\x00\x00\x00\x00\x00\x00\x00\x00\x00\x00\x00\x00\x00\x00\x00\x00\x00\x00\x00\x00\x00\x00\x00\x00\x00\x00\x00\x00\x00\x00\x00\x00\x00\x00\x00\x00\x00\x00\x00\x00\x00\x00\x00\x00\x00\x00\x00\x00\x00\x00\x00\x00\x00\x00\x00\x00\x00\x00\x00\x00\x00\x00\x00\x00\x00\x00\x00\x00\x00\x00\x00\x00\x00\x00\x00\x00\x00\x00\x00\x00\x00\x00\x00\x00\x00\x00\x00\x00\x00\x00\x00\x00\x00\x00\x00\x00\x00\x00\x00\x00\x00\x00\x00\x00\x00\x00\x00\x00\x00\x00\x00\x00\x00\x00\x00\x00\x00\x00\x00\x00\x00\x00\x00\x00\x00\x00\x00\x00\x00\x00\x00\x00\x00\x00\x00\x00\x00\x00\x00\x00\x00\x00\x00\x00\x00\x00\x00\x00\x00\x00\x00\x00\x00\x00\x00\x00\x00\x00\x00\x00\x00\x00\x00\x00\x00\x00\x00\x00\x00\x00\x00\x00\x00\x00\x00\x00\x00\x00\x00\x00\x00\x00\x00\x00\x00\x00\x00\x00\x00\x00\x00\x00\x00\x00\x00\x00\x00\x00\x00\x00\x00\x00\x00\x00\x00\x00\x00\x00\x00\x00\x00\x00\x00\x00\x00\x00\x00\x00\x00\x00\x00\x00\x00\x00\x00\x00\x00\x00\x00\x00\x00\x00\x00\x00\x00\x00\x00\x00\x00\x00\x00\x00\x00\x00\x00\x00\x00\x00\x00\x00\x00\x00\x00\x00\x00\x00\x00\x00\x00\x00\x00\x00\x00\x00\x00\x00\x00\x00\x00\x00\x00\x00\x00\x00\x00\x00\x00\x00\x00\x00\x00\x00\x00\x00\x00\x00\x00\x00\x00\x00\x00\x00\x00\x00\x00\x00\x00\x00\x00\x00\x00\x00\x00\x00\x00\x00\x00\x00\x00\x00\x00\x00\x00\x00\x00\x00\x00\x00\x00\x00\x00\x00\x00\x00\x00\x00\x00\x00\x00\x00\x00\x00\x00\x00\x00\x00\x00\x00\x00\x00\x00\x00\x00\x00\x00\x00\x00\x00\x00\x00\x00\x00\x00\x00\x00\x00\x00\x00\x00\x00\x00\x00\x00\x00\x00\x00\x00\x00\x00\x00\x00\x00\x00\x00\x00\x00\x00\x00\x00\x00\x00\x00\x00\x00\x00\x00\x00\x00\x00\x00\x00\x00\x00\x00\x00\x00\x00\x00\x00\x00\x00\x00\x00\x00\x00\x00\x00\x00\x00\x00\x00\x00\x00\x00\x00\x00\x00\x00\x00\x00\x00\x00\x00\x00\x00\x00\x00\x00\x00\x00\x00\x00\x00\x00\x00\x00\x00\x00\x00\x00\x00\x00\x00\x00\x00\x00\x00\x00\x00\x00\x00\x00\x00\x00\x00\x00\x00\x00\x00\x00\x00\x00\x00\x00\x00\x00\x00\x00\x00\x00\x00\x00\x00\x00\x00\x00\x00\x00\x00\x00\x00\x00\x00\x00\x00\x00\x00\x00\x00\x00\x00\x00\x00\x00\x00\x00\x00\x00\x00\x00\x00\x00\x00\x00\x00\x00\x00\x00\x00\x00\x00\x00\x00\x00\x00\x00\x00\x00\x00\x00\x00\x00'
NtbstRp58
(dp59
S'isNumeric'
p60
(dp61
g48
I01
sg56
I01
ssS'trials'
p62
g37
sS'dataTypes'
p63
(lp64
g48
ag56
asS'dataShape'
p65
(lp66
I15
aI40
asbsS'method'
p67
S'fullRandom'
p68
sS'sequenceIndices'
p69
cnumpy.core.multiarray
_reconstruct
p70
(g51
(I0
tS'b'
tRp71
(I1
(I15
I40
tg54
(S'O4'
I0
I1
tRp72
(I3
S'|'
NNNI-1
I-1
I63
tbI00
(lp73
I4
aI6
aI13
aI7
aI7
aI3
aI8
aI2
aI0
aI14
aI6
aI3
aI14
aI8
aI7
aI4
aI13
aI2
aI6
aI5
aI4
aI7
aI1
aI9
aI10
aI14
aI10
aI0
aI0
aI9
aI5
aI10
aI0
aI4
aI4
aI8
aI2
aI11
aI5
aI10
aI12
aI14
aI13
aI8
aI4
aI8
aI1
aI0
aI8
aI14
aI4
aI5
aI0
aI3
aI10
aI1
aI11
aI6
aI3
aI6
aI5
aI12
aI11
aI11
aI8
aI10
aI7
aI14
aI8
aI3
aI4
aI14
aI14
aI14
aI14
aI5
aI1
aI10
aI3
aI5
aI14
aI8
aI2
aI5
aI2
aI1
aI2
aI0
aI1
aI3
aI14
aI1
aI14
aI4
aI1
aI14
aI8
aI7
aI7
aI13
aI1
aI12
aI1
aI6
aI1
aI7
aI0
aI12
aI8
aI10
aI12
aI12
aI3
aI8
aI13
aI3
aI2
aI8
aI9
aI6
aI13
aI7
aI3
aI9
aI4
aI14
aI9
aI9
aI3
aI1
aI4
aI3
aI7
aI8
aI6
aI12
aI0
aI4
aI5
aI14
aI13
aI10
aI2
aI1
aI7
aI8
aI1
aI6
aI11
aI9
aI1
aI1
aI7
aI3
aI10
aI5
aI12
aI12
aI4
aI0
aI13
aI9
aI0
aI11
aI1
aI0
aI6
aI1
aI6
aI7
aI6
aI7
aI7
aI7
aI12
aI1
aI1
aI4
aI5
aI14
aI10
aI11
aI4
aI3
aI5
aI7
aI9
aI7
aI10
aI11
aI2
aI7
aI0
aI3
aI5
aI3
aI11
aI9
aI9
aI11
aI1
aI14
aI1
aI2
aI13
aI6
aI14
aI6
aI6
aI10
aI6
aI9
aI4
aI7
aI8
aI2
aI13
aI2
aI11
aI11
aI10
aI10
aI6
aI10
aI5
aI10
aI12
aI4
aI4
aI12
aI8
aI10
aI2
aI5
aI4
aI6
aI5
aI8
aI6
aI3
aI13
aI9
aI2
aI8
aI11
aI10
aI5
aI11
aI8
aI14
aI13
aI1
aI2
aI11
aI9
aI13
aI8
aI5
aI9
aI12
aI13
aI9
aI10
aI4
aI10
aI2
aI8
aI11
aI13
aI6
aI8
aI13
aI12
aI7
aI10
aI7
aI10
aI11
aI4
aI7
aI14
aI12
aI0
aI2
aI12
aI8
aI1
aI10
aI10
aI9
aI6
aI12
aI6
aI1
aI12
aI6
aI3
aI14
aI12
aI6
aI0
aI0
aI6
aI0
aI8
aI1
aI12
aI14
aI13
aI9
aI3
aI4
aI8
aI5
aI1
aI13
aI9
aI2
aI5
aI13
aI5
aI0
aI3
aI0
aI12
aI13
aI13
aI0
aI7
aI14
aI13
aI4
aI12
aI11
aI4
aI9
aI2
aI5
aI5
aI6
aI13
aI10
aI14
aI13
aI7
aI3
aI13
aI2
aI13
aI0
aI8
aI11
aI4
aI5
aI2
aI0
aI0
aI9
aI6
aI0
aI9
aI4
aI9
aI12
aI13
aI5
aI7
aI6
aI5
aI3
aI14
aI11
aI13
aI9
aI7
aI4
aI14
aI9
aI12
aI5
aI3
aI2
aI3
aI10
aI0
aI1
aI8
aI11
aI12
aI6
aI8
aI9
aI5
aI1
aI6
aI8
aI10
aI11
aI14
aI2
aI12
aI11
aI9
aI7
aI2
aI5
aI7
aI11
aI12
aI7
aI4
aI14
aI4
aI13
aI14
aI6
aI11
aI6
aI7
aI8
aI14
aI0
aI5
aI2
aI9
aI12
aI1
aI4
aI3
aI14
aI4
aI12
aI3
aI12
aI5
aI10
aI2
aI11
aI14
aI13
aI3
aI1
aI6
aI2
aI11
aI0
aI5
aI0
aI9
aI6
aI1
aI2
aI2
aI9
aI5
aI2
aI12
aI12
aI7
aI5
aI8
aI2
aI2
aI8
aI7
aI13
aI3
aI9
aI0
aI11
aI5
aI14
aI13
aI11
aI0
aI3
aI1
aI12
aI3
aI4
aI13
aI3
aI10
aI3
aI3
aI9
aI6
aI12
aI14
aI10
aI14
aI7
aI5
aI9
aI11
aI9
aI13
aI13
aI12
aI10
aI9
aI0
aI1
aI3
aI0
aI3
aI12
aI4
aI1
aI4
aI4
aI12
aI12
aI5
aI11
aI5
aI9
aI10
aI14
aI8
aI9
aI3
aI8
aI2
aI3
aI6
aI0
aI1
aI13
aI0
aI7
aI6
aI12
aI7
aI3
aI2
aI10
aI10
aI6
aI11
aI8
aI10
aI0
aI4
aI11
aI9
aI14
aI11
aI7
aI5
aI8
aI0
aI1
aI4
aI11
aI13
aI1
aI11
aI4
aI0
aI10
aI12
aI4
aI11
aI8
aI0
aI7
aI2
aI1
aI7
aI5
aI11
aI0
aI0
aI6
aI10
aI13
aI4
aI7
aI2
aI13
aI13
aI14
aI6
aI3
aI8
aI2
aI2
aI9
aI11
aI2
aI9
aI14
aI10
aI11
aI8
aI3
aI2
aI1
aI10
atbsS'finished'
p74
I00
sS'nReps'
p75
I40
sS'nRemaining'
p76
I0
sS'trialList'
p77
(lp78
I0
aI1
aI2
aI3
aI4
aI5
aI6
aI7
aI8
aI9
aI10
aI11
aI12
aI13
aI14
asS'seed'
p79
NsS'thisIndex'
p80
I10
sS'thisN'
p81
I599
sS'thisTrialN'
p82
I14
sS'nTotal'
p83
I600
sS'_warnUseOfNext'
p84
I01
sbasS'saveWideText'
p85
I00
sS'thisEntry'
p86
(dp87
sS'version'
p88
S''
sS'_paramNamesSoFar'
p89
(lp90
sS'entries'
p91
(lp92
(dp93
S'.thisTrial'
p94
I4
sS'.thisN'
p95
I0
sg30
g31
sg32
g33
sS'.thisTrialN'
p96
I0
sS'.thisRepN'
p97
I0
sS'.thisIndex'
p98
I4
sg15
Nsg16
S'Timed out'
p99
sg14
I1
sa(dp100
g17
(lp101
S'k'
asg94
I12
sS'.thisRepN'
p102
I0
sg30
g31
sg32
g33
sS'.thisTrialN'
p103
I1
sS'.thisN'
p104
I1
sS'.thisIndex'
p105
I12
sg15
(lp106
S'd'
asg16
S'N'
sg14
I1
sa(dp107
g17
(lp108
S'd'
asg18
S'N'
sS'.thisRepN'
p109
I0
sg20
S'Y'
sg32
g33
sS'.thisTrialN'
p110
I2
sS'.thisN'
p111
I2
sS'.thisIndex'
p112
I14
sg15
(lp113
S'k'
asg30
g31
sg16
S'N'
sg14
I1
sg19
Nsg94
I14
sa(dp114
g17
(lp115
S'd'
asg18
S'N'
sS'.thisRepN'
p116
I0
sg20
S'Y'
sg32
g33
sS'.thisTrialN'
p117
I3
sS'.thisN'
p118
I3
sS'.thisIndex'
p119
I13
sg15
(lp120
S'd'
asg30
g31
sg16
S'Y'
sg14
I1
sg19
Nsg94
I13
sa(dp121
g17
(lp122
S'k'
asg18
S'N'
sS'.thisRepN'
p123
I0
sg20
S'N'
sg32
g33
sS'.thisTrialN'
p124
I4
sS'.thisN'
p125
I4
sS'.thisIndex'
p126
I13
sg15
(lp127
S'd'
asg30
g31
sg16
S'N'
sg14
I1
sg19
(lp128
S'space'
p129
asg94
I13
sa(dp130
g17
(lp131
S'd'
asg18
S'N'
sS'.thisRepN'
p132
I0
sg20
S'Y'
sg32
g33
sS'.thisTrialN'
p133
I5
sS'.thisN'
p134
I5
sS'.thisIndex'
p135
I1
sg15
(lp136
S'd'
asg30
g31
sg16
S'Y'
sg14
I1
sg19
Nsg94
I1
sa(dp137
g17
(lp138
S'k'
asg18
S'N'
sS'.thisRepN'
p139
I0
sg20
S'Y'
sg32
g33
sS'.thisTrialN'
p140
I6
sS'.thisN'
p141
I6
sS'.thisIndex'
p142
I13
sg15
(lp143
S'd'
asg30
g31
sg16
S'N'
sg14
I1
sg19
Nsg94
I13
sa(dp144
g17
(lp145
S'd'
asg18
S'Y'
sS'.thisRepN'
p146
I0
sg20
S'Y'
sg32
g33
sS'.thisTrialN'
p147
I7
sS'.thisN'
p148
I7
sS'.thisIndex'
p149
I14
sg15
(lp150
S'd'
asg30
g31
sg16
S'Y'
sg14
I1
sg19
(lp151
S'space'
p152
asg94
I14
sa(dp153
g17
(lp154
S'd'
asg18
S'N'
sS'.thisRepN'
p155
I0
sg20
S'Y'
sg32
g33
sS'.thisTrialN'
p156
I8
sS'.thisN'
p157
I8
sS'.thisIndex'
p158
I5
sg15
(lp159
S'd'
asg30
g31
sg16
S'Y'
sg14
I1
sg19
Nsg94
I5
sa(dp160
g17
(lp161
S'd'
asg18
S'N'
sS'.thisRepN'
p162
I0
sg20
S'N'
sg32
g33
sS'.thisTrialN'
p163
I9
sS'.thisN'
p164
I9
sS'.thisIndex'
p165
I9
sg15
(lp166
S'd'
asg30
g31
sg16
S'Y'
sg14
I1
sg19
(lp167
S'space'
p168
asg94
I9
sa(dp169
g17
(lp170
S'd'
asg18
S'Y'
sS'.thisRepN'
p171
I0
sg20
S'Y'
sg32
g33
sS'.thisTrialN'
p172
I10
sS'.thisN'
p173
I10
sS'.thisIndex'
p174
I12
sg15
(lp175
S'd'
asg30
g31
sg16
S'Y'
sg14
I1
sg19
(lp176
S'space'
p177
asg94
I12
sa(dp178
g17
(lp179
S'k'
asg18
S'N'
sS'.thisRepN'
p180
I0
sg20
S'Y'
sg32
g33
sS'.thisTrialN'
p181
I11
sS'.thisN'
p182
I11
sS'.thisIndex'
p183
I3
sg15
(lp184
S'd'
asg30
g31
sg16
S'N'
sg14
I1
sg19
Nsg94
I3
sa(dp185
g17
(lp186
S'd'
asg18
S'N'
sS'.thisRepN'
p187
I0
sg20
S'Y'
sg32
g33
sS'.thisTrialN'
p188
I12
sS'.thisN'
p189
I12
sS'.thisIndex'
p190
I13
sg15
(lp191
S'd'
asg30
g31
sg16
S'Y'
sg14
I1
sg19
Nsg94
I13
sa(dp192
g17
(lp193
S'k'
asg18
S'N'
sS'.thisRepN'
p194
I0
sg20
S'Y'
sg32
g33
sS'.thisTrialN'
p195
I13
sS'.thisN'
p196
I13
sS'.thisIndex'
p197
I9
sg15
(lp198
S'd'
asg30
g31
sg16
S'N'
sg14
I1
sg19
Nsg94
I9
sa(dp199
g17
(lp200
S'd'
asg18
S'N'
sS'.thisRepN'
p201
I0
sg20
S'N'
sg32
g33
sS'.thisTrialN'
p202
I14
sS'.thisN'
p203
I14
sS'.thisIndex'
p204
I10
sg15
(lp205
S'k'
asg30
g31
sg16
S'N'
sg14
I1
sg19
(lp206
S'space'
p207
asg94
I10
sa(dp208
g17
(lp209
S'd'
asg18
S'N'
sS'.thisRepN'
p210
I1
sg20
S'Y'
sg32
g33
sS'.thisTrialN'
p211
I0
sS'.thisN'
p212
I15
sS'.thisIndex'
p213
I6
sg15
(lp214
S'd'
asg30
g31
sg16
S'Y'
sg14
I1
sg19
Nsg94
I6
sa(dp215
g17
(lp216
S'd'
asg18
S'N'
sS'.thisRepN'
p217
I1
sg20
S'Y'
sg32
g33
sS'.thisTrialN'
p218
I1
sS'.thisN'
p219
I16
sS'.thisIndex'
p220
I14
sg15
(lp221
S'd'
asg30
g31
sg16
S'Y'
sg14
I1
sg19
Nsg94
I14
sa(dp222
g17
(lp223
S'd'
asg18
S'Y'
sS'.thisRepN'
p224
I1
sg20
S'N'
sg32
g33
sS'.thisTrialN'
p225
I2
sS'.thisN'
p226
I17
sS'.thisIndex'
p227
I8
sg15
(lp228
S'k'
asg30
g31
sg16
S'N'
sg14
I1
sg19
Nsg94
I8
sa(dp229
g17
(lp230
S'd'
asg18
S'Y'
sS'.thisRepN'
p231
I1
sg20
S'N'
sg32
g33
sS'.thisTrialN'
p232
I3
sS'.thisN'
p233
I18
sS'.thisIndex'
p234
I7
sg15
(lp235
S'd'
asg30
g31
sg16
S'Y'
sg14
I1
sg19
Nsg94
I7
sa(dp236
g17
(lp237
S'k'
asg18
S'N'
sS'.thisRepN'
p238
I1
sg20
S'Y'
sg32
g33
sS'.thisTrialN'
p239
I4
sS'.thisN'
p240
I19
sS'.thisIndex'
p241
I9
sg15
(lp242
S'd'
asg30
g31
sg16
S'N'
sg14
I1
sg19
Nsg94
I9
sa(dp243
g17
(lp244
S'k'
asg18
S'Y'
sS'.thisRepN'
p245
I1
sg20
S'Y'
sg32
g33
sS'.thisTrialN'
p246
I5
sS'.thisN'
p247
I20
sS'.thisIndex'
p248
I14
sg15
(lp249
S'd'
asg30
g31
sg16
S'N'
sg14
I1
sg19
(lp250
S'space'
p251
asg94
I14
sa(dp252
g17
(lp253
S'd'
asg18
S'Y'
sS'.thisRepN'
p254
I1
sg20
S'N'
sg32
g33
sS'.thisTrialN'
p255
I6
sS'.thisN'
p256
I21
sS'.thisIndex'
p257
I9
sg15
(lp258
S'd'
asg30
g31
sg16
S'Y'
sg14
I1
sg19
Nsg94
I9
sa(dp259
g17
(lp260
S'k'
asg18
S'N'
sS'.thisRepN'
p261
I1
sg20
S'Y'
sg32
g33
sS'.thisTrialN'
p262
I7
sS'.thisN'
p263
I22
sS'.thisIndex'
p264
I12
sg15
(lp265
S'k'
asg30
g31
sg16
S'Y'
sg14
I1
sg19
Nsg94
I12
sa(dp266
g17
(lp267
S'k'
asg18
S'N'
sS'.thisRepN'
p268
I1
sg20
S'N'
sg32
g33
sS'.thisTrialN'
p269
I8
sS'.thisN'
p270
I23
sS'.thisIndex'
p271
I0
sg15
(lp272
S'd'
asg30
g31
sg16
S'N'
sg14
I1
sg19
(lp273
S'space'
p274
asg94
I0
sa(dp275
g17
(lp276
S'd'
asg18
S'N'
sS'.thisRepN'
p277
I1
sg20
S'Y'
sg32
g33
sS'.thisTrialN'
p278
I9
sS'.thisN'
p279
I24
sS'.thisIndex'
p280
I4
sg15
(lp281
S'k'
asg30
g31
sg16
S'N'
sg14
I1
sg19
Nsg94
I4
sa(dp282
g17
(lp283
S'k'
asg18
S'N'
sS'.thisRepN'
p284
I1
sg20
S'Y'
sg32
g33
sS'.thisTrialN'
p285
I10
sS'.thisN'
p286
I25
sS'.thisIndex'
p287
I11
sg15
(lp288
S'd'
asg30
g31
sg16
S'N'
sg14
I1
sg19
Nsg94
I11
sa(dp289
g17
(lp290
S'd'
asg18
S'N'
sS'.thisRepN'
p291
I1
sg20
S'Y'
sg32
g33
sS'.thisTrialN'
p292
I11
sS'.thisN'
p293
I26
sS'.thisIndex'
p294
I1
sg15
(lp295
S'd'
asg30
g31
sg16
S'Y'
sg14
I1
sg19
Nsg94
I1
sa(dp296
g17
(lp297
S'd'
asg18
S'N'
sS'.thisRepN'
p298
I1
sg20
S'N'
sg32
g33
sS'.thisTrialN'
p299
I12
sS'.thisN'
p300
I27
sS'.thisIndex'
p301
I3
sg15
(lp302
S'd'
asg30
g31
sg16
S'Y'
sg14
I1
sg19
(lp303
S'space'
p304
asg94
I3
sa(dp305
g17
(lp306
S'd'
asg18
S'Y'
sS'.thisRepN'
p307
I1
sg20
S'N'
sg32
g33
sS'.thisTrialN'
p308
I13
sS'.thisN'
p309
I28
sS'.thisIndex'
p310
I3
sg15
(lp311
S'k'
asg30
g31
sg16
S'N'
sg14
I1
sg19
Nsg94
I3
sa(dp312
g17
(lp313
S'd'
asg18
S'Y'
sS'.thisRepN'
p314
I1
sg20
S'Y'
sg32
g33
sS'.thisTrialN'
p315
I14
sS'.thisN'
p316
I29
sS'.thisIndex'
p317
I12
sg15
(lp318
S'd'
asg30
g31
sg16
S'Y'
sg14
I1
sg19
(lp319
S'space'
p320
asg94
I12
sa(dp321
g17
(lp322
S'k'
asg18
S'Y'
sS'.thisRepN'
p323
I2
sg20
S'N'
sg32
g33
sS'.thisTrialN'
p324
I0
sS'.thisN'
p325
I30
sS'.thisIndex'
p326
I13
sg15
(lp327
S'k'
asg30
g31
sg16
S'Y'
sg14
I1
sg19
Nsg94
I13
sa(dp328
g17
(lp329
S'd'
asg18
S'N'
sS'.thisRepN'
p330
I2
sg20
S'Y'
sg32
g33
sS'.thisTrialN'
p331
I1
sS'.thisN'
p332
I31
sS'.thisIndex'
p333
I13
sg15
(lp334
S'd'
asg30
g31
sg16
S'Y'
sg14
I1
sg19
Nsg94
I13
sa(dp335
g17
(lp336
S'k'
asg18
S'N'
sS'.thisRepN'
p337
I2
sg20
S'Y'
sg32
g33
sS'.thisTrialN'
p338
I2
sS'.thisN'
p339
I32
sS'.thisIndex'
p340
I2
sg15
(lp341
S'k'
asg30
g31
sg16
S'Y'
sg14
I1
sg19
Nsg94
I2
sa(dp342
g17
(lp343
S'd'
asg18
S'N'
sS'.thisRepN'
p344
I2
sg20
S'Y'
sg32
g33
sS'.thisTrialN'
p345
I3
sS'.thisN'
p346
I33
sS'.thisIndex'
p347
I3
sg15
(lp348
S'd'
asg30
g31
sg16
S'Y'
sg14
I1
sg19
Nsg94
I3
sa(dp349
g17
(lp350
S'd'
asg18
S'Y'
sS'.thisRepN'
p351
I2
sg20
S'N'
sg32
g33
sS'.thisTrialN'
p352
I4
sS'.thisN'
p353
I34
sS'.thisIndex'
p354
I0
sg15
(lp355
S'k'
asg30
g31
sg16
S'N'
sg14
I1
sg19
Nsg94
I0
sa(dp356
g17
(lp357
S'k'
asg18
S'Y'
sS'.thisRepN'
p358
I2
sg20
S'N'
sg32
g33
sS'.thisTrialN'
p359
I5
sS'.thisN'
p360
I35
sS'.thisIndex'
p361
I1
sg15
(lp362
S'd'
asg30
g31
sg16
S'N'
sg14
I1
sg19
Nsg94
I1
sa(dp363
g17
(lp364
S'd'
asg18
S'N'
sS'.thisRepN'
p365
I2
sg20
S'Y'
sg32
g33
sS'.thisTrialN'
p366
I6
sS'.thisN'
p367
I36
sS'.thisIndex'
p368
I2
sg15
(lp369
S'k'
asg30
g31
sg16
S'N'
sg14
I1
sg19
Nsg94
I2
sa(dp370
g17
(lp371
S'd'
asg18
S'Y'
sS'.thisRepN'
p372
I2
sg20
S'Y'
sg32
g33
sS'.thisTrialN'
p373
I7
sS'.thisN'
p374
I37
sS'.thisIndex'
p375
I0
sg15
(lp376
S'd'
asg30
g31
sg16
S'Y'
sg14
I1
sg19
(lp377
S'space'
p378
asg94
I0
sa(dp379
g17
(lp380
S'd'
asg18
S'N'
sS'.thisRepN'
p381
I2
sg20
S'N'
sg32
g33
sS'.thisTrialN'
p382
I8
sS'.thisN'
p383
I38
sS'.thisIndex'
p384
I3
sg15
(lp385
S'd'
asg30
g31
sg16
S'Y'
sg14
I1
sg19
(lp386
S'space'
p387
asg94
I3
sa(dp388
g17
(lp389
S'k'
asg18
S'N'
sS'.thisRepN'
p390
I2
sg20
S'Y'
sg32
g33
sS'.thisTrialN'
p391
I9
sS'.thisN'
p392
I39
sS'.thisIndex'
p393
I9
sg15
(lp394
S'k'
asg30
g31
sg16
S'Y'
sg14
I1
sg19
Nsg94
I9
sa(dp395
g17
(lp396
S'd'
asg18
S'N'
sS'.thisRepN'
p397
I2
sg20
S'N'
sg32
g33
sS'.thisTrialN'
p398
I10
sS'.thisN'
p399
I40
sS'.thisIndex'
p400
I9
sg15
(lp401
S'd'
asg30
g31
sg16
S'Y'
sg14
I1
sg19
(lp402
S'space'
p403
asg94
I9
sa(dp404
g17
(lp405
S'd'
asg18
S'N'
sS'.thisRepN'
p406
I2
sg20
S'Y'
sg32
g33
sS'.thisTrialN'
p407
I11
sS'.thisN'
p408
I41
sS'.thisIndex'
p409
I6
sg15
(lp410
S'd'
asg30
g31
sg16
S'Y'
sg14
I1
sg19
Nsg94
I6
sa(dp411
g17
(lp412
S'd'
asg18
S'Y'
sS'.thisRepN'
p413
I2
sg20
S'N'
sg32
g33
sS'.thisTrialN'
p414
I12
sS'.thisN'
p415
I42
sS'.thisIndex'
p416
I10
sg15
(lp417
S'd'
asg30
g31
sg16
S'Y'
sg14
I1
sg19
Nsg94
I10
sa(dp418
g17
(lp419
S'd'
asg18
S'N'
sS'.thisRepN'
p420
I2
sg20
S'Y'
sg32
g33
sS'.thisTrialN'
p421
I13
sS'.thisN'
p422
I43
sS'.thisIndex'
p423
I8
sg15
(lp424
S'k'
asg30
g31
sg16
S'N'
sg14
I1
sg19
Nsg94
I8
sa(dp425
g17
(lp426
S'k'
asg18
S'Y'
sS'.thisRepN'
p427
I2
sg20
S'N'
sg32
g33
sS'.thisTrialN'
p428
I14
sS'.thisN'
p429
I44
sS'.thisIndex'
p430
I4
sg15
(lp431
S'd'
asg30
g31
sg16
S'N'
sg14
I1
sg19
Nsg94
I4
sa(dp432
g17
(lp433
S'k'
asg18
S'Y'
sS'.thisRepN'
p434
I3
sg20
S'N'
sg32
g33
sS'.thisTrialN'
p435
I0
sS'.thisN'
p436
I45
sS'.thisIndex'
p437
I7
sg15
(lp438
S'd'
asg30
g31
sg16
S'N'
sg14
I1
sg19
Nsg94
I7
sa(dp439
g17
(lp440
S'k'
asg18
S'Y'
sS'.thisRepN'
p441
I3
sg20
S'Y'
sg32
g33
sS'.thisTrialN'
p442
I1
sS'.thisN'
p443
I46
sS'.thisIndex'
p444
I8
sg15
(lp445
S'd'
asg30
g31
sg16
S'N'
sg14
I1
sg19
(lp446
S'space'
p447
asg94
I8
sa(dp448
g17
(lp449
S'd'
asg18
S'N'
sS'.thisRepN'
p450
I3
sg20
S'Y'
sg32
g33
sS'.thisTrialN'
p451
I2
sS'.thisN'
p452
I47
sS'.thisIndex'
p453
I5
sg15
(lp454
S'd'
asg30
g31
sg16
S'Y'
sg14
I1
sg19
Nsg94
I5
sa(dp455
g17
(lp456
S'k'
asg18
S'N'
sS'.thisRepN'
p457
I3
sg20
S'Y'
sg32
g33
sS'.thisTrialN'
p458
I3
sS'.thisN'
p459
I48
sS'.thisIndex'
p460
I9
sg15
(lp461
S'k'
asg30
g31
sg16
S'Y'
sg14
I1
sg19
Nsg94
I9
sa(dp462
g17
(lp463
S'k'
asg18
S'Y'
sg22
I30
sS'.thisN'
p464
I49
sg20
S'N'
sg32
g33
sS'.thisTrialN'
p465
I4
sS'.thisRepN'
p466
I3
sg21
I27
sS'.thisIndex'
p467
I11
sg23
I17
sg15
(lp468
S'd'
asg30
g31
sg16
S'N'
sg14
I1
sg19
Nsg94
I11
sa(dp469
g17
(lp470
S'd'
asg94
I2
sS'.thisRepN'
p471
I3
sg30
g31
sg32
g33
sS'.thisTrialN'
p472
I5
sS'.thisN'
p473
I50
sS'.thisIndex'
p474
I2
sg15
(lp475
S'd'
asg16
S'Y'
sg14
I2
sa(dp476
g17
(lp477
S'd'
asg94
I8
sS'.thisRepN'
p478
I3
sg30
g31
sg32
g33
sS'.thisTrialN'
p479
I6
sS'.thisN'
p480
I51
sS'.thisIndex'
p481
I8
sg15
(lp482
S'k'
asg16
S'N'
sg14
I2
sa(dp483
g17
(lp484
S'd'
asg18
S'N'
sS'.thisRepN'
p485
I3
sg20
S'N'
sg32
g33
sS'.thisTrialN'
p486
I7
sS'.thisN'
p487
I52
sS'.thisIndex'
p488
I2
sg15
(lp489
S'd'
asg30
g31
sg16
S'Y'
sg14
I2
sg19
(lp490
S'space'
p491
asg94
I2
sa(dp492
g17
(lp493
S'd'
asg18
S'Y'
sS'.thisRepN'
p494
I3
sg20
S'N'
sg32
g33
sS'.thisTrialN'
p495
I8
sS'.thisN'
p496
I53
sS'.thisIndex'
p497
I0
sg15
(lp498
S'd'
asg30
g31
sg16
S'Y'
sg14
I2
sg19
Nsg94
I0
sa(dp499
g17
(lp500
S'k'
asg18
S'Y'
sS'.thisRepN'
p501
I3
sg20
S'Y'
sg32
g33
sS'.thisTrialN'
p502
I9
sS'.thisN'
p503
I54
sS'.thisIndex'
p504
I12
sg15
(lp505
S'd'
asg30
g31
sg16
S'N'
sg14
I2
sg19
(lp506
S'space'
p507
asg94
I12
sa(dp508
g17
(lp509
S'k'
asg18
S'N'
sS'.thisRepN'
p510
I3
sg20
S'Y'
sg32
g33
sS'.thisTrialN'
p511
I10
sS'.thisN'
p512
I55
sS'.thisIndex'
p513
I7
sg15
(lp514
S'd'
asg30
g31
sg16
S'N'
sg14
I2
sg19
Nsg94
I7
sa(dp515
g17
(lp516
S'k'
asg18
S'Y'
sS'.thisRepN'
p517
I3
sg20
S'N'
sg32
g33
sS'.thisTrialN'
p518
I11
sS'.thisN'
p519
I56
sS'.thisIndex'
p520
I2
sg15
(lp521
S'd'
asg30
g31
sg16
S'N'
sg14
I2
sg19
Nsg94
I2
sa(dp522
g17
(lp523
S'd'
asg18
S'Y'
sS'.thisRepN'
p524
I3
sg20
S'Y'
sg32
g33
sS'.thisTrialN'
p525
I12
sS'.thisN'
p526
I57
sS'.thisIndex'
p527
I3
sg15
(lp528
S'd'
asg30
g31
sg16
S'Y'
sg14
I2
sg19
(lp529
S'space'
p530
asg94
I3
sa(dp531
g17
(lp532
S'd'
asg18
S'N'
sS'.thisRepN'
p533
I3
sg20
S'Y'
sg32
g33
sS'.thisTrialN'
p534
I13
sS'.thisN'
p535
I58
sS'.thisIndex'
p536
I2
sg15
(lp537
S'd'
asg30
g31
sg16
S'Y'
sg14
I2
sg19
Nsg94
I2
sa(dp538
g17
(lp539
S'd'
asg18
S'Y'
sS'.thisRepN'
p540
I3
sg20
S'Y'
sg32
g33
sS'.thisTrialN'
p541
I14
sS'.thisN'
p542
I59
sS'.thisIndex'
p543
I11
sg15
(lp544
S'd'
asg30
g31
sg16
S'Y'
sg14
I2
sg19
(lp545
S'space'
p546
asg94
I11
sa(dp547
g17
(lp548
S'k'
asg18
S'Y'
sS'.thisRepN'
p549
I4
sg20
S'N'
sg32
g33
sS'.thisTrialN'
p550
I0
sS'.thisN'
p551
I60
sS'.thisIndex'
p552
I7
sg15
(lp553
S'k'
asg30
g31
sg16
S'Y'
sg14
I2
sg19
Nsg94
I7
sa(dp554
g17
(lp555
S'd'
asg18
S'Y'
sS'.thisRepN'
p556
I4
sg20
S'N'
sg32
g33
sS'.thisTrialN'
p557
I1
sS'.thisN'
p558
I61
sS'.thisIndex'
p559
I4
sg15
(lp560
S'd'
asg30
g31
sg16
S'Y'
sg14
I2
sg19
Nsg94
I4
sa(dp561
g17
(lp562
S'd'
asg18
S'N'
sS'.thisRepN'
p563
I4
sg20
S'Y'
sg32
g33
sS'.thisTrialN'
p564
I2
sS'.thisN'
p565
I62
sS'.thisIndex'
p566
I2
sg15
(lp567
S'k'
asg30
g31
sg16
S'N'
sg14
I2
sg19
Nsg94
I2
sa(dp568
g17
(lp569
S'k'
asg18
S'N'
sS'.thisRepN'
p570
I4
sg20
S'Y'
sg32
g33
sS'.thisTrialN'
p571
I3
sS'.thisN'
p572
I63
sS'.thisIndex'
p573
I4
sg15
(lp574
S'k'
asg30
g31
sg16
S'Y'
sg14
I2
sg19
Nsg94
I4
sa(dp575
g17
(lp576
S'd'
asg18
S'Y'
sS'.thisRepN'
p577
I4
sg20
S'N'
sg32
g33
sS'.thisTrialN'
p578
I4
sS'.thisN'
p579
I64
sS'.thisIndex'
p580
I1
sg15
(lp581
S'k'
asg30
g31
sg16
S'N'
sg14
I2
sg19
Nsg94
I1
sa(dp582
g17
(lp583
S'd'
asg18
S'Y'
sS'.thisRepN'
p584
I4
sg20
S'N'
sg32
g33
sS'.thisTrialN'
p585
I5
sS'.thisN'
p586
I65
sS'.thisIndex'
p587
I13
sg15
(lp588
S'd'
asg30
g31
sg16
S'Y'
sg14
I2
sg19
Nsg94
I13
sa(dp589
g17
(lp590
S'd'
asg18
S'Y'
sS'.thisRepN'
p591
I4
sg20
S'N'
sg32
g33
sS'.thisTrialN'
p592
I6
sS'.thisN'
p593
I66
sS'.thisIndex'
p594
I11
sg15
(lp595
S'd'
asg30
g31
sg16
S'Y'
sg14
I2
sg19
Nsg94
I11
sa(dp596
g17
(lp597
S'd'
asg18
S'N'
sS'.thisRepN'
p598
I4
sg20
S'Y'
sg32
g33
sS'.thisTrialN'
p599
I7
sS'.thisN'
p600
I67
sS'.thisIndex'
p601
I12
sg15
(lp602
S'd'
asg30
g31
sg16
S'Y'
sg14
I2
sg19
Nsg94
I12
sa(dp603
g17
(lp604
S'k'
asg18
S'N'
sS'.thisRepN'
p605
I4
sg20
S'Y'
sg32
g33
sS'.thisTrialN'
p606
I8
sS'.thisN'
p607
I68
sS'.thisIndex'
p608
I12
sg15
(lp609
S'd'
asg30
g31
sg16
S'N'
sg14
I2
sg19
Nsg94
I12
sa(dp610
g17
(lp611
S'd'
asg18
S'Y'
sS'.thisRepN'
p612
I4
sg20
S'N'
sg32
g33
sS'.thisTrialN'
p613
I9
sS'.thisN'
p614
I69
sS'.thisIndex'
p615
I13
sg15
(lp616
S'k'
asg30
g31
sg16
S'N'
sg14
I2
sg19
Nsg94
I13
sa(dp617
g17
(lp618
S'k'
asg18
S'N'
sS'.thisRepN'
p619
I4
sg20
S'Y'
sg32
g33
sS'.thisTrialN'
p620
I10
sS'.thisN'
p621
I70
sS'.thisIndex'
p622
I2
sg15
(lp623
S'd'
asg30
g31
sg16
S'N'
sg14
I2
sg19
Nsg94
I2
sa(dp624
g17
(lp625
S'k'
asg18
S'N'
sS'.thisRepN'
p626
I4
sg20
S'Y'
sg32
g33
sS'.thisTrialN'
p627
I11
sS'.thisN'
p628
I71
sS'.thisIndex'
p629
I11
sg15
(lp630
S'k'
asg30
g31
sg16
S'Y'
sg14
I2
sg19
Nsg94
I11
sa(dp631
g17
(lp632
S'd'
asg18
S'N'
sS'.thisRepN'
p633
I4
sg20
S'Y'
sg32
g33
sS'.thisTrialN'
p634
I12
sS'.thisN'
p635
I72
sS'.thisIndex'
p636
I3
sg15
(lp637
S'd'
asg30
g31
sg16
S'Y'
sg14
I2
sg19
Nsg94
I3
sa(dp638
g17
(lp639
S'k'
asg18
S'N'
sS'.thisRepN'
p640
I4
sg20
S'Y'
sg32
g33
sS'.thisTrialN'
p641
I13
sS'.thisN'
p642
I73
sS'.thisIndex'
p643
I3
sg15
(lp644
S'd'
asg30
g31
sg16
S'N'
sg14
I2
sg19
Nsg94
I3
sa(dp645
g17
(lp646
S'k'
asg18
S'N'
sS'.thisRepN'
p647
I4
sg20
S'Y'
sg32
g33
sS'.thisTrialN'
p648
I14
sS'.thisN'
p649
I74
sS'.thisIndex'
p650
I8
sg15
(lp651
S'd'
asg30
g31
sg16
S'N'
sg14
I2
sg19
Nsg94
I8
sa(dp652
g17
(lp653
S'k'
asg18
S'N'
sS'.thisRepN'
p654
I5
sg20
S'Y'
sg32
g33
sS'.thisTrialN'
p655
I0
sS'.thisN'
p656
I75
sS'.thisIndex'
p657
I3
sg15
(lp658
S'd'
asg30
g31
sg16
S'N'
sg14
I2
sg19
Nsg94
I3
sa(dp659
g17
(lp660
S'd'
asg18
S'N'
sS'.thisRepN'
p661
I5
sg20
S'Y'
sg32
g33
sS'.thisTrialN'
p662
I1
sS'.thisN'
p663
I76
sS'.thisIndex'
p664
I8
sg15
(lp665
S'd'
asg30
g31
sg16
S'Y'
sg14
I2
sg19
Nsg94
I8
sa(dp666
g17
(lp667
S'k'
asg18
S'Y'
sS'.thisRepN'
p668
I5
sg20
S'N'
sg32
g33
sS'.thisTrialN'
p669
I2
sS'.thisN'
p670
I77
sS'.thisIndex'
p671
I1
sg15
(lp672
S'k'
asg30
g31
sg16
S'Y'
sg14
I2
sg19
Nsg94
I1
sa(dp673
g17
(lp674
S'k'
asg18
S'Y'
sS'.thisRepN'
p675
I5
sg20
S'N'
sg32
g33
sS'.thisTrialN'
p676
I3
sS'.thisN'
p677
I78
sS'.thisIndex'
p678
I14
sg15
(lp679
S'd'
asg30
g31
sg16
S'N'
sg14
I2
sg19
Nsg94
I14
sa(dp680
g17
(lp681
S'k'
asg18
S'N'
sS'.thisRepN'
p682
I5
sg20
S'Y'
sg32
g33
sS'.thisTrialN'
p683
I4
sS'.thisN'
p684
I79
sS'.thisIndex'
p685
I0
sg15
(lp686
S'd'
asg30
g31
sg16
S'N'
sg14
I2
sg19
Nsg94
I0
sa(dp687
g17
(lp688
S'k'
asg18
S'N'
sS'.thisRepN'
p689
I5
sg20
S'N'
sg32
g33
sS'.thisTrialN'
p690
I5
sS'.thisN'
p691
I80
sS'.thisIndex'
p692
I6
sg15
(lp693
S'k'
asg30
g31
sg16
S'Y'
sg14
I2
sg19
(lp694
S'space'
p695
asg94
I6
sa(dp696
g17
(lp697
S'd'
asg18
S'Y'
sS'.thisRepN'
p698
I5
sg20
S'N'
sg32
g33
sS'.thisTrialN'
p699
I6
sS'.thisN'
p700
I81
sS'.thisIndex'
p701
I10
sg15
(lp702
S'k'
asg30
g31
sg16
S'N'
sg14
I2
sg19
Nsg94
I10
sa(dp703
g17
(lp704
S'd'
asg18
S'N'
sS'.thisRepN'
p705
I5
sg20
S'Y'
sg32
g33
sS'.thisTrialN'
p706
I7
sS'.thisN'
p707
I82
sS'.thisIndex'
p708
I8
sg15
(lp709
S'd'
asg30
g31
sg16
S'Y'
sg14
I2
sg19
Nsg94
I8
sa(dp710
g17
(lp711
S'd'
asg18
S'N'
sS'.thisRepN'
p712
I5
sg20
S'N'
sg32
g33
sS'.thisTrialN'
p713
I8
sS'.thisN'
p714
I83
sS'.thisIndex'
p715
I13
sg15
(lp716
S'd'
asg30
g31
sg16
S'Y'
sg14
I2
sg19
(lp717
S'space'
p718
asg94
I13
sa(dp719
g17
(lp720
S'd'
asg18
S'N'
sS'.thisRepN'
p721
I5
sg20
S'Y'
sg32
g33
sS'.thisTrialN'
p722
I9
sS'.thisN'
p723
I84
sS'.thisIndex'
p724
I5
sg15
(lp725
S'k'
asg30
g31
sg16
S'N'
sg14
I2
sg19
Nsg94
I5
sa(dp726
g17
(lp727
S'd'
asg18
S'N'
sS'.thisRepN'
p728
I5
sg20
S'N'
sg32
g33
sS'.thisTrialN'
p729
I10
sS'.thisN'
p730
I85
sS'.thisIndex'
p731
I5
sg15
(lp732
S'd'
asg30
g31
sg16
S'Y'
sg14
I2
sg19
(lp733
S'space'
p734
asg94
I5
sa(dp735
g17
(lp736
S'k'
asg18
S'Y'
sS'.thisRepN'
p737
I5
sg20
S'N'
sg32
g33
sS'.thisTrialN'
p738
I11
sS'.thisN'
p739
I86
sS'.thisIndex'
p740
I0
sg15
(lp741
S'k'
asg30
g31
sg16
S'Y'
sg14
I2
sg19
Nsg94
I0
sa(dp742
g17
(lp743
S'd'
asg18
S'N'
sS'.thisRepN'
p744
I5
sg20
S'N'
sg32
g33
sS'.thisTrialN'
p745
I12
sS'.thisN'
p746
I87
sS'.thisIndex'
p747
I9
sg15
(lp748
S'd'
asg30
g31
sg16
S'Y'
sg14
I2
sg19
(lp749
S'space'
p750
asg94
I9
sa(dp751
g17
(lp752
S'k'
asg18
S'N'
sS'.thisRepN'
p753
I5
sg20
S'Y'
sg32
g33
sS'.thisTrialN'
p754
I13
sS'.thisN'
p755
I88
sS'.thisIndex'
p756
I6
sg15
(lp757
S'k'
asg30
g31
sg16
S'Y'
sg14
I2
sg19
Nsg94
I6
sa(dp758
g17
(lp759
S'd'
asg18
S'N'
sS'.thisRepN'
p760
I5
sg20
S'Y'
sg32
g33
sS'.thisTrialN'
p761
I14
sS'.thisN'
p762
I89
sS'.thisIndex'
p763
I0
sg15
(lp764
S'd'
asg30
g31
sg16
S'Y'
sg14
I2
sg19
Nsg94
I0
sa(dp765
g17
(lp766
S'd'
asg18
S'Y'
sS'.thisRepN'
p767
I6
sg20
S'Y'
sg32
g33
sS'.thisTrialN'
p768
I0
sS'.thisN'
p769
I90
sS'.thisIndex'
p770
I8
sg15
(lp771
S'd'
asg30
g31
sg16
S'Y'
sg14
I2
sg19
(lp772
S'space'
p773
asg94
I8
sa(dp774
g17
(lp775
S'd'
asg18
S'N'
sS'.thisRepN'
p776
I6
sg20
S'Y'
sg32
g33
sS'.thisTrialN'
p777
I1
sS'.thisN'
p778
I91
sS'.thisIndex'
p779
I1
sg15
(lp780
S'd'
asg30
g31
sg16
S'Y'
sg14
I2
sg19
Nsg94
I1
sa(dp781
g17
(lp782
S'k'
asg18
S'Y'
sS'.thisRepN'
p783
I6
sg20
S'N'
sg32
g33
sS'.thisTrialN'
p784
I2
sS'.thisN'
p785
I92
sS'.thisIndex'
p786
I2
sg15
(lp787
S'd'
asg30
g31
sg16
S'N'
sg14
I2
sg19
Nsg94
I2
sa(dp788
g17
(lp789
S'd'
asg18
S'N'
sS'.thisRepN'
p790
I6
sg20
S'N'
sg32
g33
sS'.thisTrialN'
p791
I3
sS'.thisN'
p792
I93
sS'.thisIndex'
p793
I9
sg15
(lp794
S'd'
asg30
g31
sg16
S'Y'
sg14
I2
sg19
(lp795
S'space'
p796
asg94
I9
sa(dp797
g17
(lp798
S'd'
asg18
S'Y'
sS'.thisRepN'
p799
I6
sg20
S'N'
sg32
g33
sS'.thisTrialN'
p800
I4
sS'.thisN'
p801
I94
sS'.thisIndex'
p802
I6
sg15
(lp803
S'd'
asg30
g31
sg16
S'Y'
sg14
I2
sg19
Nsg94
I6
sa(dp804
g17
(lp805
S'k'
asg18
S'N'
sS'.thisRepN'
p806
I6
sg20
S'Y'
sg32
g33
sS'.thisTrialN'
p807
I5
sS'.thisN'
p808
I95
sS'.thisIndex'
p809
I14
sg15
(lp810
S'd'
asg30
g31
sg16
S'N'
sg14
I2
sg19
Nsg94
I14
sa(dp811
g17
(lp812
S'k'
asg18
S'N'
sS'.thisRepN'
p813
I6
sg20
S'Y'
sg32
g33
sS'.thisTrialN'
p814
I6
sS'.thisN'
p815
I96
sS'.thisIndex'
p816
I5
sg15
(lp817
S'd'
asg30
g31
sg16
S'N'
sg14
I2
sg19
Nsg94
I5
sa(dp818
g17
(lp819
S'k'
asg18
S'N'
sS'.thisRepN'
p820
I6
sg20
S'Y'
sg32
g33
sS'.thisTrialN'
p821
I7
sS'.thisN'
p822
I97
sS'.thisIndex'
p823
I1
sg15
(lp824
S'k'
asg30
g31
sg16
S'Y'
sg14
I2
sg19
Nsg94
I1
sa(dp825
g17
(lp826
S'd'
asg18
S'N'
sS'.thisRepN'
p827
I6
sg20
S'N'
sg32
g33
sS'.thisTrialN'
p828
I8
sS'.thisN'
p829
I98
sS'.thisIndex'
p830
I13
sg15
(lp831
S'k'
asg30
g31
sg16
S'N'
sg14
I2
sg19
(lp832
S'space'
p833
asg94
I13
sa(dp834
g17
(lp835
S'd'
asg18
S'Y'
sg22
I26
sS'.thisN'
p836
I99
sg20
S'N'
sg32
g33
sS'.thisTrialN'
p837
I9
sS'.thisRepN'
p838
I6
sg21
I30
sS'.thisIndex'
p839
I7
sg23
I19
sg15
(lp840
S'd'
asg30
g31
sg16
S'Y'
sg14
I2
sg19
Nsg94
I7
sa(dp841
g17
(lp842
S'k'
asg94
I7
sS'.thisRepN'
p843
I6
sg30
g31
sg32
g33
sS'.thisTrialN'
p844
I10
sS'.thisN'
p845
I100
sS'.thisIndex'
p846
I7
sg15
(lp847
S'd'
asg16
S'N'
sg14
I3
sa(dp848
g17
(lp849
S'k'
asg94
I5
sS'.thisRepN'
p850
I6
sg30
g31
sg32
g33
sS'.thisTrialN'
p851
I11
sS'.thisN'
p852
I101
sS'.thisIndex'
p853
I5
sg15
(lp854
S'd'
asg16
S'N'
sg14
I3
sa(dp855
g17
(lp856
S'd'
asg18
S'N'
sS'.thisRepN'
p857
I6
sg20
S'Y'
sg32
g33
sS'.thisTrialN'
p858
I12
sS'.thisN'
p859
I102
sS'.thisIndex'
p860
I6
sg15
(lp861
S'd'
asg30
g31
sg16
S'Y'
sg14
I3
sg19
Nsg94
I6
sa(dp862
g17
(lp863
S'k'
asg18
S'N'
sS'.thisRepN'
p864
I6
sg20
S'Y'
sg32
g33
sS'.thisTrialN'
p865
I13
sS'.thisN'
p866
I103
sS'.thisIndex'
p867
I0
sg15
(lp868
S'k'
asg30
g31
sg16
S'Y'
sg14
I3
sg19
Nsg94
I0
sa(dp869
g17
(lp870
S'k'
asg18
S'Y'
sS'.thisRepN'
p871
I6
sg20
S'N'
sg32
g33
sS'.thisTrialN'
p872
I14
sS'.thisN'
p873
I104
sS'.thisIndex'
p874
I7
sg15
(lp875
S'd'
asg30
g31
sg16
S'N'
sg14
I3
sg19
Nsg94
I7
sa(dp876
g17
(lp877
S'd'
asg18
S'N'
sS'.thisRepN'
p878
I7
sg20
S'Y'
sg32
g33
sS'.thisTrialN'
p879
I0
sS'.thisN'
p880
I105
sS'.thisIndex'
p881
I2
sg15
(lp882
S'd'
asg30
g31
sg16
S'Y'
sg14
I3
sg19
Nsg94
I2
sa(dp883
g17
(lp884
S'k'
asg18
S'N'
sS'.thisRepN'
p885
I7
sg20
S'Y'
sg32
g33
sS'.thisTrialN'
p886
I1
sS'.thisN'
p887
I106
sS'.thisIndex'
p888
I0
sg15
(lp889
S'd'
asg30
g31
sg16
S'N'
sg14
I3
sg19
Nsg94
I0
sa(dp890
g17
(lp891
S'k'
asg18
S'Y'
sS'.thisRepN'
p892
I7
sg20
S'Y'
sg32
g33
sS'.thisTrialN'
p893
I2
sS'.thisN'
p894
I107
sS'.thisIndex'
p895
I0
sg15
(lp896
S'd'
asg30
g31
sg16
S'N'
sg14
I3
sg19
(lp897
S'space'
p898
asg94
I0
sa(dp899
g17
(lp900
S'k'
asg18
S'Y'
sS'.thisRepN'
p901
I7
sg20
S'N'
sg32
g33
sS'.thisTrialN'
p902
I3
sS'.thisN'
p903
I108
sS'.thisIndex'
p904
I9
sg15
(lp905
S'k'
asg30
g31
sg16
S'Y'
sg14
I3
sg19
Nsg94
I9
sa(dp906
g17
(lp907
S'k'
asg18
S'Y'
sS'.thisRepN'
p908
I7
sg20
S'N'
sg32
g33
sS'.thisTrialN'
p909
I4
sS'.thisN'
p910
I109
sS'.thisIndex'
p911
I1
sg15
(lp912
S'd'
asg30
g31
sg16
S'N'
sg14
I3
sg19
Nsg94
I1
sa(dp913
g17
(lp914
S'k'
asg18
S'N'
sS'.thisRepN'
p915
I7
sg20
S'Y'
sg32
g33
sS'.thisTrialN'
p916
I5
sS'.thisN'
p917
I110
sS'.thisIndex'
p918
I6
sg15
(lp919
S'd'
asg30
g31
sg16
S'N'
sg14
I3
sg19
Nsg94
I6
sa(dp920
g17
(lp921
S'd'
asg18
S'Y'
sS'.thisRepN'
p922
I7
sg20
S'N'
sg32
g33
sS'.thisTrialN'
p923
I6
sS'.thisN'
p924
I111
sS'.thisIndex'
p925
I11
sg15
(lp926
S'k'
asg30
g31
sg16
S'N'
sg14
I3
sg19
Nsg94
I11
sa(dp927
g17
(lp928
S'd'
asg18
S'Y'
sS'.thisRepN'
p929
I7
sg20
S'Y'
sg32
g33
sS'.thisTrialN'
p930
I7
sS'.thisN'
p931
I112
sS'.thisIndex'
p932
I10
sg15
(lp933
S'd'
asg30
g31
sg16
S'Y'
sg14
I3
sg19
(lp934
S'space'
p935
asg94
I10
sa(dp936
g17
(lp937
S'd'
asg18
S'Y'
sS'.thisRepN'
p938
I7
sg20
S'N'
sg32
g33
sS'.thisTrialN'
p939
I8
sS'.thisN'
p940
I113
sS'.thisIndex'
p941
I0
sg15
(lp942
S'k'
asg30
g31
sg16
S'N'
sg14
I3
sg19
Nsg94
I0
sa(dp943
g17
(lp944
S'd'
asg18
S'N'
sS'.thisRepN'
p945
I7
sg20
S'Y'
sg32
g33
sS'.thisTrialN'
p946
I9
sS'.thisN'
p947
I114
sS'.thisIndex'
p948
I6
sg15
(lp949
S'd'
asg30
g31
sg16
S'Y'
sg14
I3
sg19
Nsg94
I6
sa(dp950
g17
(lp951
S'd'
asg18
S'N'
sS'.thisRepN'
p952
I7
sg20
S'Y'
sg32
g33
sS'.thisTrialN'
p953
I10
sS'.thisN'
p954
I115
sS'.thisIndex'
p955
I11
sg15
(lp956
S'd'
asg30
g31
sg16
S'Y'
sg14
I3
sg19
Nsg94
I11
sa(dp957
g17
(lp958
S'd'
asg18
S'N'
sS'.thisRepN'
p959
I7
sg20
S'Y'
sg32
g33
sS'.thisTrialN'
p960
I11
sS'.thisN'
p961
I116
sS'.thisIndex'
p962
I0
sg15
(lp963
S'k'
asg30
g31
sg16
S'N'
sg14
I3
sg19
Nsg94
I0
sa(dp964
g17
(lp965
S'k'
asg18
S'N'
sS'.thisRepN'
p966
I7
sg20
S'Y'
sg32
g33
sS'.thisTrialN'
p967
I12
sS'.thisN'
p968
I117
sS'.thisIndex'
p969
I12
sg15
(lp970
S'd'
asg30
g31
sg16
S'N'
sg14
I3
sg19
Nsg94
I12
sa(dp971
g17
(lp972
S'k'
asg18
S'N'
sS'.thisRepN'
p973
I7
sg20
S'N'
sg32
g33
sS'.thisTrialN'
p974
I13
sS'.thisN'
p975
I118
sS'.thisIndex'
p976
I1
sg15
(lp977
S'd'
asg30
g31
sg16
S'N'
sg14
I3
sg19
(lp978
S'space'
p979
asg94
I1
sa(dp980
g17
(lp981
S'd'
asg18
S'Y'
sS'.thisRepN'
p982
I7
sg20
S'N'
sg32
g33
sS'.thisTrialN'
p983
I14
sS'.thisN'
p984
I119
sS'.thisIndex'
p985
I2
sg15
(lp986
S'k'
asg30
g31
sg16
S'N'
sg14
I3
sg19
Nsg94
I2
sa(dp987
g17
(lp988
S'd'
asg18
S'N'
sS'.thisRepN'
p989
I8
sg20
S'Y'
sg32
g33
sS'.thisTrialN'
p990
I0
sS'.thisN'
p991
I120
sS'.thisIndex'
p992
I0
sg15
(lp993
S'd'
asg30
g31
sg16
S'Y'
sg14
I3
sg19
Nsg94
I0
sa(dp994
g17
(lp995
S'k'
asg18
S'Y'
sS'.thisRepN'
p996
I8
sg20
S'Y'
sg32
g33
sS'.thisTrialN'
p997
I1
sS'.thisN'
p998
I121
sS'.thisIndex'
p999
I8
sg15
(lp1000
S'k'
asg30
g31
sg16
S'Y'
sg14
I3
sg19
(lp1001
S'space'
p1002
asg94
I8
sa(dp1003
g17
(lp1004
S'k'
asg18
S'Y'
sS'.thisRepN'
p1005
I8
sg20
S'N'
sg32
g33
sS'.thisTrialN'
p1006
I2
sS'.thisN'
p1007
I122
sS'.thisIndex'
p1008
I1
sg15
(lp1009
S'k'
asg30
g31
sg16
S'Y'
sg14
I3
sg19
Nsg94
I1
sa(dp1010
g17
(lp1011
S'd'
asg18
S'N'
sS'.thisRepN'
p1012
I8
sg20
S'Y'
sg32
g33
sS'.thisTrialN'
p1013
I3
sS'.thisN'
p1014
I123
sS'.thisIndex'
p1015
I3
sg15
(lp1016
S'd'
asg30
g31
sg16
S'Y'
sg14
I3
sg19
Nsg94
I3
sa(dp1017
g17
(lp1018
S'k'
asg18
S'N'
sS'.thisRepN'
p1019
I8
sg20
S'N'
sg32
g33
sS'.thisTrialN'
p1020
I4
sS'.thisN'
p1021
I124
sS'.thisIndex'
p1022
I6
sg15
(lp1023
S'd'
asg30
g31
sg16
S'N'
sg14
I3
sg19
(lp1024
S'space'
p1025
asg94
I6
sa(dp1026
g17
(lp1027
S'd'
asg18
S'Y'
sS'.thisRepN'
p1028
I8
sg20
S'N'
sg32
g33
sS'.thisTrialN'
p1029
I5
sS'.thisN'
p1030
I125
sS'.thisIndex'
p1031
I6
sg15
(lp1032
S'd'
asg30
g31
sg16
S'Y'
sg14
I3
sg19
Nsg94
I6
sa(dp1033
g17
(lp1034
S'd'
asg18
S'Y'
sS'.thisRepN'
p1035
I8
sg20
S'N'
sg32
g33
sS'.thisTrialN'
p1036
I6
sS'.thisN'
p1037
I126
sS'.thisIndex'
p1038
I8
sg15
(lp1039
S'd'
asg30
g31
sg16
S'Y'
sg14
I3
sg19
Nsg94
I8
sa(dp1040
g17
(lp1041
S'k'
asg18
S'N'
sS'.thisRepN'
p1042
I8
sg20
S'N'
sg32
g33
sS'.thisTrialN'
p1043
I7
sS'.thisN'
p1044
I127
sS'.thisIndex'
p1045
I10
sg15
(lp1046
S'd'
asg30
g31
sg16
S'N'
sg14
I3
sg19
(lp1047
S'space'
p1048
asg94
I10
sa(dp1049
g17
(lp1050
S'd'
asg18
S'Y'
sS'.thisRepN'
p1051
I8
sg20
S'N'
sg32
g33
sS'.thisTrialN'
p1052
I8
sS'.thisN'
p1053
I128
sS'.thisIndex'
p1054
I7
sg15
(lp1055
S'd'
asg30
g31
sg16
S'Y'
sg14
I3
sg19
Nsg94
I7
sa(dp1056
g17
(lp1057
S'k'
asg18
S'Y'
sS'.thisRepN'
p1058
I8
sg20
S'N'
sg32
g33
sS'.thisTrialN'
p1059
I9
sS'.thisN'
p1060
I129
sS'.thisIndex'
p1061
I5
sg15
(lp1062
S'd'
asg30
g31
sg16
S'N'
sg14
I3
sg19
Nsg94
I5
sa(dp1063
g17
(lp1064
S'd'
asg18
S'N'
sS'.thisRepN'
p1065
I8
sg20
S'Y'
sg32
g33
sS'.thisTrialN'
p1066
I10
sS'.thisN'
p1067
I130
sS'.thisIndex'
p1068
I12
sg15
(lp1069
S'd'
asg30
g31
sg16
S'Y'
sg14
I3
sg19
Nsg94
I12
sa(dp1070
g17
(lp1071
S'k'
asg18
S'Y'
sS'.thisRepN'
p1072
I8
sg20
S'Y'
sg32
g33
sS'.thisTrialN'
p1073
I11
sS'.thisN'
p1074
I131
sS'.thisIndex'
p1075
I9
sg15
(lp1076
S'd'
asg30
g31
sg16
S'N'
sg14
I3
sg19
(lp1077
S'space'
p1078
asg94
I9
sa(dp1079
g17
(lp1080
S'd'
asg18
S'Y'
sS'.thisRepN'
p1081
I8
sg20
S'N'
sg32
g33
sS'.thisTrialN'
p1082
I12
sS'.thisN'
p1083
I132
sS'.thisIndex'
p1084
I14
sg15
(lp1085
S'k'
asg30
g31
sg16
S'N'
sg14
I3
sg19
Nsg94
I14
sa(dp1086
g17
(lp1087
S'k'
asg18
S'N'
sS'.thisRepN'
p1088
I8
sg20
S'N'
sg32
g33
sS'.thisTrialN'
p1089
I13
sS'.thisN'
p1090
I133
sS'.thisIndex'
p1091
I13
sg15
(lp1092
S'd'
asg30
g31
sg16
S'N'
sg14
I3
sg19
(lp1093
S'space'
p1094
asg94
I13
sa(dp1095
g17
(lp1096
S'k'
asg18
S'Y'
sS'.thisRepN'
p1097
I8
sg20
S'Y'
sg32
g33
sS'.thisTrialN'
p1098
I14
sS'.thisN'
p1099
I134
sS'.thisIndex'
p1100
I1
sg15
(lp1101
S'k'
asg30
g31
sg16
S'Y'
sg14
I3
sg19
(lp1102
S'space'
p1103
asg94
I1
sa(dp1104
g17
(lp1105
S'k'
asg18
S'N'
sS'.thisRepN'
p1106
I9
sg20
S'N'
sg32
g33
sS'.thisTrialN'
p1107
I0
sS'.thisN'
p1108
I135
sS'.thisIndex'
p1109
I14
sg15
(lp1110
S'd'
asg30
g31
sg16
S'N'
sg14
I3
sg19
(lp1111
S'space'
p1112
asg94
I14
sa(dp1113
g17
(lp1114
S'k'
asg18
S'N'
sS'.thisRepN'
p1115
I9
sg20
S'Y'
sg32
g33
sS'.thisTrialN'
p1116
I1
sS'.thisN'
p1117
I136
sS'.thisIndex'
p1118
I14
sg15
(lp1119
S'k'
asg30
g31
sg16
S'Y'
sg14
I3
sg19
Nsg94
I14
sa(dp1120
g17
(lp1121
S'd'
asg18
S'Y'
sS'.thisRepN'
p1122
I9
sg20
S'N'
sg32
g33
sS'.thisTrialN'
p1123
I2
sS'.thisN'
p1124
I137
sS'.thisIndex'
p1125
I3
sg15
(lp1126
S'd'
asg30
g31
sg16
S'Y'
sg14
I3
sg19
Nsg94
I3
sa(dp1127
g17
(lp1128
S'k'
asg18
S'Y'
sS'.thisRepN'
p1129
I9
sg20
S'Y'
sg32
g33
sS'.thisTrialN'
p1130
I3
sS'.thisN'
p1131
I138
sS'.thisIndex'
p1132
I1
sg15
(lp1133
S'k'
asg30
g31
sg16
S'Y'
sg14
I3
sg19
(lp1134
S'space'
p1135
asg94
I1
sa(dp1136
g17
(lp1137
S'k'
asg18
S'Y'
sS'.thisRepN'
p1138
I9
sg20
S'Y'
sg32
g33
sS'.thisTrialN'
p1139
I4
sS'.thisN'
p1140
I139
sS'.thisIndex'
p1141
I7
sg15
(lp1142
S'k'
asg30
g31
sg16
S'Y'
sg14
I3
sg19
(lp1143
S'space'
p1144
asg94
I7
sa(dp1145
g17
(lp1146
S'k'
asg18
S'N'
sS'.thisRepN'
p1147
I9
sg20
S'Y'
sg32
g33
sS'.thisTrialN'
p1148
I5
sS'.thisN'
p1149
I140
sS'.thisIndex'
p1150
I10
sg15
(lp1151
S'k'
asg30
g31
sg16
S'Y'
sg14
I3
sg19
Nsg94
I10
sa(dp1152
g17
(lp1153
S'd'
asg18
S'Y'
sS'.thisRepN'
p1154
I9
sg20
S'Y'
sg32
g33
sS'.thisTrialN'
p1155
I6
sS'.thisN'
p1156
I141
sS'.thisIndex'
p1157
I14
sg15
(lp1158
S'k'
asg30
g31
sg16
S'N'
sg14
I3
sg19
(lp1159
S'space'
p1160
asg94
I14
sa(dp1161
g17
(lp1162
S'k'
asg18
S'Y'
sS'.thisRepN'
p1163
I9
sg20
S'Y'
sg32
g33
sS'.thisTrialN'
p1164
I7
sS'.thisN'
p1165
I142
sS'.thisIndex'
p1166
I9
sg15
(lp1167
S'd'
asg30
g31
sg16
S'N'
sg14
I3
sg19
(lp1168
S'space'
p1169
asg94
I9
sa(dp1170
g17
(lp1171
S'd'
asg18
S'N'
sS'.thisRepN'
p1172
I9
sg20
S'N'
sg32
g33
sS'.thisTrialN'
p1173
I8
sS'.thisN'
p1174
I143
sS'.thisIndex'
p1175
I14
sg15
(lp1176
S'k'
asg30
g31
sg16
S'N'
sg14
I3
sg19
(lp1177
S'space'
p1178
asg94
I14
sa(dp1179
g17
(lp1180
S'k'
asg18
S'Y'
sS'.thisRepN'
p1181
I9
sg20
S'N'
sg32
g33
sS'.thisTrialN'
p1182
I9
sS'.thisN'
p1183
I144
sS'.thisIndex'
p1184
I3
sg15
(lp1185
S'd'
asg30
g31
sg16
S'N'
sg14
I3
sg19
Nsg94
I3
sa(dp1186
g17
(lp1187
S'k'
asg18
S'N'
sS'.thisRepN'
p1188
I9
sg20
S'N'
sg32
g33
sS'.thisTrialN'
p1189
I10
sS'.thisN'
p1190
I145
sS'.thisIndex'
p1191
I7
sg15
(lp1192
S'k'
asg30
g31
sg16
S'Y'
sg14
I3
sg19
(lp1193
S'space'
p1194
asg94
I7
sa(dp1195
g17
(lp1196
S'k'
asg18
S'N'
sS'.thisRepN'
p1197
I9
sg20
S'N'
sg32
g33
sS'.thisTrialN'
p1198
I11
sS'.thisN'
p1199
I146
sS'.thisIndex'
p1200
I6
sg15
(lp1201
S'k'
asg30
g31
sg16
S'Y'
sg14
I3
sg19
(lp1202
S'space'
p1203
asg94
I6
sa(dp1204
g17
(lp1205
S'k'
asg18
S'Y'
sS'.thisRepN'
p1206
I9
sg20
S'Y'
sg32
g33
sS'.thisTrialN'
p1207
I12
sS'.thisN'
p1208
I147
sS'.thisIndex'
p1209
I10
sg15
(lp1210
S'k'
asg30
g31
sg16
S'Y'
sg14
I3
sg19
(lp1211
S'space'
p1212
asg94
I10
sa(dp1213
g17
(lp1214
S'k'
asg18
S'Y'
sS'.thisRepN'
p1215
I9
sg20
S'Y'
sg32
g33
sS'.thisTrialN'
p1216
I13
sS'.thisN'
p1217
I148
sS'.thisIndex'
p1218
I0
sg15
(lp1219
S'd'
asg30
g31
sg16
S'N'
sg14
I3
sg19
(lp1220
S'space'
p1221
asg94
I0
sa(dp1222
g17
(lp1223
S'd'
asg18
S'N'
sg22
I26
sS'.thisN'
p1224
I149
sg20
S'Y'
sg32
g33
sS'.thisTrialN'
p1225
I14
sS'.thisRepN'
p1226
I9
sg21
I24
sS'.thisIndex'
p1227
I7
sg23
I25
sg15
(lp1228
S'k'
asg30
g31
sg16
S'N'
sg14
I3
sg19
Nsg94
I7
sa(dp1229
g17
(lp1230
S'd'
asg94
I6
sS'.thisRepN'
p1231
I10
sg30
g31
sg32
g33
sS'.thisTrialN'
p1232
I0
sS'.thisN'
p1233
I150
sS'.thisIndex'
p1234
I6
sg15
(lp1235
S'd'
asg16
S'Y'
sg14
I4
sa(dp1236
g17
(lp1237
S'k'
asg94
I4
sS'.thisRepN'
p1238
I10
sg30
g31
sg32
g33
sS'.thisTrialN'
p1239
I1
sS'.thisN'
p1240
I151
sS'.thisIndex'
p1241
I4
sg15
(lp1242
S'd'
asg16
S'N'
sg14
I4
sa(dp1243
g17
(lp1244
S'd'
asg18
S'Y'
sS'.thisRepN'
p1245
I10
sg20
S'Y'
sg32
g33
sS'.thisTrialN'
p1246
I2
sS'.thisN'
p1247
I152
sS'.thisIndex'
p1248
I14
sg15
(lp1249
S'k'
asg30
g31
sg16
S'N'
sg14
I4
sg19
(lp1250
S'space'
p1251
asg94
I14
sa(dp1252
g17
(lp1253
S'k'
asg18
S'N'
sS'.thisRepN'
p1254
I10
sg20
S'Y'
sg32
g33
sS'.thisTrialN'
p1255
I3
sS'.thisN'
p1256
I153
sS'.thisIndex'
p1257
I4
sg15
(lp1258
S'k'
asg30
g31
sg16
S'Y'
sg14
I4
sg19
Nsg94
I4
sa(dp1259
g17
(lp1260
S'k'
asg18
S'Y'
sS'.thisRepN'
p1261
I10
sg20
S'Y'
sg32
g33
sS'.thisTrialN'
p1262
I4
sS'.thisN'
p1263
I154
sS'.thisIndex'
p1264
I6
sg15
(lp1265
S'd'
asg30
g31
sg16
S'N'
sg14
I4
sg19
(lp1266
S'space'
p1267
asg94
I6
sa(dp1268
g17
(lp1269
S'k'
asg18
S'N'
sS'.thisRepN'
p1270
I10
sg20
S'N'
sg32
g33
sS'.thisTrialN'
p1271
I5
sS'.thisN'
p1272
I155
sS'.thisIndex'
p1273
I6
sg15
(lp1274
S'd'
asg30
g31
sg16
S'N'
sg14
I4
sg19
(lp1275
S'space'
p1276
asg94
I6
sa(dp1277
g17
(lp1278
S'd'
asg18
S'Y'
sS'.thisRepN'
p1279
I10
sg20
S'Y'
sg32
g33
sS'.thisTrialN'
p1280
I6
sS'.thisN'
p1281
I156
sS'.thisIndex'
p1282
I13
sg15
(lp1283
S'k'
asg30
g31
sg16
S'N'
sg14
I4
sg19
(lp1284
S'space'
p1285
asg94
I13
sa(dp1286
g17
(lp1287
S'd'
asg18
S'N'
sS'.thisRepN'
p1288
I10
sg20
S'N'
sg32
g33
sS'.thisTrialN'
p1289
I7
sS'.thisN'
p1290
I157
sS'.thisIndex'
p1291
I6
sg15
(lp1292
S'd'
asg30
g31
sg16
S'Y'
sg14
I4
sg19
(lp1293
S'space'
p1294
asg94
I6
sa(dp1295
g17
(lp1296
S'd'
asg18
S'N'
sS'.thisRepN'
p1297
I10
sg20
S'Y'
sg32
g33
sS'.thisTrialN'
p1298
I8
sS'.thisN'
p1299
I158
sS'.thisIndex'
p1300
I13
sg15
(lp1301
S'd'
asg30
g31
sg16
S'Y'
sg14
I4
sg19
Nsg94
I13
sa(dp1302
g17
(lp1303
S'd'
asg18
S'N'
sS'.thisRepN'
p1304
I10
sg20
S'N'
sg32
g33
sS'.thisTrialN'
p1305
I9
sS'.thisN'
p1306
I159
sS'.thisIndex'
p1307
I14
sg15
(lp1308
S'k'
asg30
g31
sg16
S'N'
sg14
I4
sg19
(lp1309
S'space'
p1310
asg94
I14
sa(dp1311
g17
(lp1312
S'd'
asg18
S'N'
sS'.thisRepN'
p1313
I10
sg20
S'Y'
sg32
g33
sS'.thisTrialN'
p1314
I10
sS'.thisN'
p1315
I160
sS'.thisIndex'
p1316
I4
sg15
(lp1317
S'd'
asg30
g31
sg16
S'Y'
sg14
I4
sg19
Nsg94
I4
sa(dp1318
g17
(lp1319
S'd'
asg18
S'Y'
sS'.thisRepN'
p1320
I10
sg20
S'Y'
sg32
g33
sS'.thisTrialN'
p1321
I11
sS'.thisN'
p1322
I161
sS'.thisIndex'
p1323
I1
sg15
(lp1324
S'd'
asg30
g31
sg16
S'Y'
sg14
I4
sg19
(lp1325
S'space'
p1326
asg94
I1
sa(dp1327
g17
(lp1328
S'k'
asg18
S'N'
sS'.thisRepN'
p1329
I10
sg20
S'N'
sg32
g33
sS'.thisTrialN'
p1330
I12
sS'.thisN'
p1331
I162
sS'.thisIndex'
p1332
I14
sg15
(lp1333
S'd'
asg30
g31
sg16
S'N'
sg14
I4
sg19
(lp1334
S'space'
p1335
asg94
I14
sa(dp1336
g17
(lp1337
S'd'
asg18
S'N'
sS'.thisRepN'
p1338
I10
sg20
S'N'
sg32
g33
sS'.thisTrialN'
p1339
I13
sS'.thisN'
p1340
I163
sS'.thisIndex'
p1341
I7
sg15
(lp1342
S'k'
asg30
g31
sg16
S'N'
sg14
I4
sg19
(lp1343
S'space'
p1344
asg94
I7
sa(dp1345
g17
(lp1346
S'd'
asg18
S'N'
sS'.thisRepN'
p1347
I10
sg20
S'Y'
sg32
g33
sS'.thisTrialN'
p1348
I14
sS'.thisN'
p1349
I164
sS'.thisIndex'
p1350
I5
sg15
(lp1351
S'd'
asg30
g31
sg16
S'Y'
sg14
I4
sg19
Nsg94
I5
sa(dp1352
g17
(lp1353
S'k'
asg18
S'Y'
sS'.thisRepN'
p1354
I11
sg20
S'N'
sg32
g33
sS'.thisTrialN'
p1355
I0
sS'.thisN'
p1356
I165
sS'.thisIndex'
p1357
I3
sg15
(lp1358
S'd'
asg30
g31
sg16
S'N'
sg14
I4
sg19
Nsg94
I3
sa(dp1359
g17
(lp1360
S'd'
asg18
S'N'
sS'.thisRepN'
p1361
I11
sg20
S'N'
sg32
g33
sS'.thisTrialN'
p1362
I1
sS'.thisN'
p1363
I166
sS'.thisIndex'
p1364
I5
sg15
(lp1365
S'k'
asg30
g31
sg16
S'N'
sg14
I4
sg19
(lp1366
S'space'
p1367
asg94
I5
sa(dp1368
g17
(lp1369
S'k'
asg18
S'Y'
sS'.thisRepN'
p1370
I11
sg20
S'N'
sg32
g33
sS'.thisTrialN'
p1371
I2
sS'.thisN'
p1372
I167
sS'.thisIndex'
p1373
I1
sg15
(lp1374
S'd'
asg30
g31
sg16
S'N'
sg14
I4
sg19
Nsg94
I1
sa(dp1375
g17
(lp1376
S'k'
asg18
S'Y'
sS'.thisRepN'
p1377
I11
sg20
S'N'
sg32
g33
sS'.thisTrialN'
p1378
I3
sS'.thisN'
p1379
I168
sS'.thisIndex'
p1380
I3
sg15
(lp1381
S'd'
asg30
g31
sg16
S'N'
sg14
I4
sg19
Nsg94
I3
sa(dp1382
g17
(lp1383
S'k'
asg18
S'Y'
sS'.thisRepN'
p1384
I11
sg20
S'N'
sg32
g33
sS'.thisTrialN'
p1385
I4
sS'.thisN'
p1386
I169
sS'.thisIndex'
p1387
I7
sg15
(lp1388
S'k'
asg30
g31
sg16
S'Y'
sg14
I4
sg19
Nsg94
I7
sa(dp1389
g17
(lp1390
S'k'
asg18
S'Y'
sS'.thisRepN'
p1391
I11
sg20
S'Y'
sg32
g33
sS'.thisTrialN'
p1392
I5
sS'.thisN'
p1393
I170
sS'.thisIndex'
p1394
I9
sg15
(lp1395
S'k'
asg30
g31
sg16
S'Y'
sg14
I4
sg19
(lp1396
S'space'
p1397
asg94
I9
sa(dp1398
g17
(lp1399
S'd'
asg18
S'N'
sS'.thisRepN'
p1400
I11
sg20
S'Y'
sg32
g33
sS'.thisTrialN'
p1401
I6
sS'.thisN'
p1402
I171
sS'.thisIndex'
p1403
I1
sg15
(lp1404
S'k'
asg30
g31
sg16
S'N'
sg14
I4
sg19
Nsg94
I1
sa(dp1405
g17
(lp1406
S'd'
asg18
S'N'
sS'.thisRepN'
p1407
I11
sg20
S'Y'
sg32
g33
sS'.thisTrialN'
p1408
I7
sS'.thisN'
p1409
I172
sS'.thisIndex'
p1410
I12
sg15
(lp1411
S'd'
asg30
g31
sg16
S'Y'
sg14
I4
sg19
Nsg94
I12
sa(dp1412
g17
(lp1413
S'k'
asg18
S'Y'
sS'.thisRepN'
p1414
I11
sg20
S'N'
sg32
g33
sS'.thisTrialN'
p1415
I8
sS'.thisN'
p1416
I173
sS'.thisIndex'
p1417
I4
sg15
(lp1418
S'd'
asg30
g31
sg16
S'N'
sg14
I4
sg19
Nsg94
I4
sa(dp1419
g17
(lp1420
S'k'
asg18
S'N'
sS'.thisRepN'
p1421
I11
sg20
S'Y'
sg32
g33
sS'.thisTrialN'
p1422
I9
sS'.thisN'
p1423
I174
sS'.thisIndex'
p1424
I11
sg15
(lp1425
S'd'
asg30
g31
sg16
S'N'
sg14
I4
sg19
Nsg94
I11
sa(dp1426
g17
(lp1427
S'k'
asg18
S'Y'
sS'.thisRepN'
p1428
I11
sg20
S'N'
sg32
g33
sS'.thisTrialN'
p1429
I10
sS'.thisN'
p1430
I175
sS'.thisIndex'
p1431
I14
sg15
(lp1432
S'd'
asg30
g31
sg16
S'N'
sg14
I4
sg19
Nsg94
I14
sa(dp1433
g17
(lp1434
S'd'
asg18
S'N'
sS'.thisRepN'
p1435
I11
sg20
S'Y'
sg32
g33
sS'.thisTrialN'
p1436
I11
sS'.thisN'
p1437
I176
sS'.thisIndex'
p1438
I2
sg15
(lp1439
S'd'
asg30
g31
sg16
S'Y'
sg14
I4
sg19
Nsg94
I2
sa(dp1440
g17
(lp1441
S'd'
asg18
S'N'
sS'.thisRepN'
p1442
I11
sg20
S'Y'
sg32
g33
sS'.thisTrialN'
p1443
I12
sS'.thisN'
p1444
I177
sS'.thisIndex'
p1445
I7
sg15
(lp1446
S'k'
asg30
g31
sg16
S'N'
sg14
I4
sg19
Nsg94
I7
sa(dp1447
g17
(lp1448
S'k'
asg18
S'Y'
sS'.thisRepN'
p1449
I11
sg20
S'N'
sg32
g33
sS'.thisTrialN'
p1450
I13
sS'.thisN'
p1451
I178
sS'.thisIndex'
p1452
I6
sg15
(lp1453
S'd'
asg30
g31
sg16
S'N'
sg14
I4
sg19
Nsg94
I6
sa(dp1454
g17
(lp1455
S'd'
asg18
S'Y'
sS'.thisRepN'
p1456
I11
sg20
S'N'
sg32
g33
sS'.thisTrialN'
p1457
I14
sS'.thisN'
p1458
I179
sS'.thisIndex'
p1459
I11
sg15
(lp1460
S'd'
asg30
g31
sg16
S'Y'
sg14
I4
sg19
Nsg94
I11
sa(dp1461
g17
(lp1462
S'd'
asg18
S'N'
sS'.thisRepN'
p1463
I12
sg20
S'Y'
sg32
g33
sS'.thisTrialN'
p1464
I0
sS'.thisN'
p1465
I180
sS'.thisIndex'
p1466
I14
sg15
(lp1467
S'd'
asg30
g31
sg16
S'Y'
sg14
I4
sg19
Nsg94
I14
sa(dp1468
g17
(lp1469
S'd'
asg18
S'Y'
sS'.thisRepN'
p1470
I12
sg20
S'Y'
sg32
g33
sS'.thisTrialN'
p1471
I1
sS'.thisN'
p1472
I181
sS'.thisIndex'
p1473
I0
sg15
(lp1474
S'd'
asg30
g31
sg16
S'Y'
sg14
I4
sg19
(lp1475
S'space'
p1476
asg94
I0
sa(dp1477
g17
(lp1478
S'd'
asg18
S'N'
sS'.thisRepN'
p1479
I12
sg20
S'N'
sg32
g33
sS'.thisTrialN'
p1480
I2
sS'.thisN'
p1481
I182
sS'.thisIndex'
p1482
I14
sg15
(lp1483
S'k'
asg30
g31
sg16
S'N'
sg14
I4
sg19
(lp1484
S'space'
p1485
asg94
I14
sa(dp1486
g17
(lp1487
S'd'
asg18
S'Y'
sS'.thisRepN'
p1488
I12
sg20
S'Y'
sg32
g33
sS'.thisTrialN'
p1489
I3
sS'.thisN'
p1490
I183
sS'.thisIndex'
p1491
I7
sg15
(lp1492
S'd'
asg30
g31
sg16
S'Y'
sg14
I4
sg19
(lp1493
S'space'
p1494
asg94
I7
sa(dp1495
g17
(lp1496
S'd'
asg18
S'N'
sS'.thisRepN'
p1497
I12
sg20
S'N'
sg32
g33
sS'.thisTrialN'
p1498
I4
sS'.thisN'
p1499
I184
sS'.thisIndex'
p1500
I7
sg15
(lp1501
S'd'
asg30
g31
sg16
S'Y'
sg14
I4
sg19
(lp1502
S'space'
p1503
asg94
I7
sa(dp1504
g17
(lp1505
S'd'
asg18
S'Y'
sS'.thisRepN'
p1506
I12
sg20
S'Y'
sg32
g33
sS'.thisTrialN'
p1507
I5
sS'.thisN'
p1508
I185
sS'.thisIndex'
p1509
I4
sg15
(lp1510
S'd'
asg30
g31
sg16
S'Y'
sg14
I4
sg19
(lp1511
S'space'
p1512
asg94
I4
sa(dp1513
g17
(lp1514
S'k'
asg18
S'Y'
sS'.thisRepN'
p1515
I12
sg20
S'N'
sg32
g33
sS'.thisTrialN'
p1516
I6
sS'.thisN'
p1517
I186
sS'.thisIndex'
p1518
I2
sg15
(lp1519
S'd'
asg30
g31
sg16
S'N'
sg14
I4
sg19
Nsg94
I2
sa(dp1520
g17
(lp1521
S'k'
asg18
S'Y'
sS'.thisRepN'
p1522
I12
sg20
S'Y'
sg32
g33
sS'.thisTrialN'
p1523
I7
sS'.thisN'
p1524
I187
sS'.thisIndex'
p1525
I6
sg15
(lp1526
S'd'
asg30
g31
sg16
S'N'
sg14
I4
sg19
(lp1527
S'space'
p1528
asg94
I6
sa(dp1529
g17
(lp1530
S'd'
asg18
S'Y'
sS'.thisRepN'
p1531
I12
sg20
S'N'
sg32
g33
sS'.thisTrialN'
p1532
I8
sS'.thisN'
p1533
I188
sS'.thisIndex'
p1534
I12
sg15
(lp1535
S'd'
asg30
g31
sg16
S'Y'
sg14
I4
sg19
Nsg94
I12
sa(dp1536
g17
(lp1537
S'k'
asg18
S'Y'
sS'.thisRepN'
p1538
I12
sg20
S'Y'
sg32
g33
sS'.thisTrialN'
p1539
I9
sS'.thisN'
p1540
I189
sS'.thisIndex'
p1541
I13
sg15
(lp1542
S'd'
asg30
g31
sg16
S'N'
sg14
I4
sg19
(lp1543
S'space'
p1544
asg94
I13
sa(dp1545
g17
(lp1546
S'k'
asg18
S'N'
sS'.thisRepN'
p1547
I12
sg20
S'N'
sg32
g33
sS'.thisTrialN'
p1548
I10
sS'.thisN'
p1549
I190
sS'.thisIndex'
p1550
I4
sg15
(lp1551
S'd'
asg30
g31
sg16
S'N'
sg14
I4
sg19
(lp1552
S'space'
p1553
asg94
I4
sa(dp1554
g17
(lp1555
S'k'
asg18
S'Y'
sS'.thisRepN'
p1556
I12
sg20
S'N'
sg32
g33
sS'.thisTrialN'
p1557
I11
sS'.thisN'
p1558
I191
sS'.thisIndex'
p1559
I2
sg15
(lp1560
S'd'
asg30
g31
sg16
S'N'
sg14
I4
sg19
Nsg94
I2
sa(dp1561
g17
(lp1562
S'k'
asg18
S'Y'
sS'.thisRepN'
p1563
I12
sg20
S'N'
sg32
g33
sS'.thisTrialN'
p1564
I12
sS'.thisN'
p1565
I192
sS'.thisIndex'
p1566
I5
sg15
(lp1567
S'd'
asg30
g31
sg16
S'N'
sg14
I4
sg19
Nsg94
I5
sa(dp1568
g17
(lp1569
S'k'
asg18
S'Y'
sS'.thisRepN'
p1570
I12
sg20
S'Y'
sg32
g33
sS'.thisTrialN'
p1571
I13
sS'.thisN'
p1572
I193
sS'.thisIndex'
p1573
I12
sg15
(lp1574
S'k'
asg30
g31
sg16
S'Y'
sg14
I4
sg19
(lp1575
S'space'
p1576
asg94
I12
sa(dp1577
g17
(lp1578
S'd'
asg18
S'N'
sS'.thisRepN'
p1579
I12
sg20
S'Y'
sg32
g33
sS'.thisTrialN'
p1580
I14
sS'.thisN'
p1581
I194
sS'.thisIndex'
p1582
I0
sg15
(lp1583
S'k'
asg30
g31
sg16
S'N'
sg14
I4
sg19
Nsg94
I0
sa(dp1584
g17
(lp1585
S'd'
asg18
S'N'
sS'.thisRepN'
p1586
I13
sg20
S'N'
sg32
g33
sS'.thisTrialN'
p1587
I0
sS'.thisN'
p1588
I195
sS'.thisIndex'
p1589
I8
sg15
(lp1590
S'd'
asg30
g31
sg16
S'Y'
sg14
I4
sg19
(lp1591
S'space'
p1592
asg94
I8
sa(dp1593
g17
(lp1594
S'd'
asg18
S'Y'
sS'.thisRepN'
p1595
I13
sg20
S'N'
sg32
g33
sS'.thisTrialN'
p1596
I1
sS'.thisN'
p1597
I196
sS'.thisIndex'
p1598
I3
sg15
(lp1599
S'k'
asg30
g31
sg16
S'N'
sg14
I4
sg19
Nsg94
I3
sa(dp1600
g17
(lp1601
S'k'
asg18
S'Y'
sS'.thisRepN'
p1602
I13
sg20
S'Y'
sg32
g33
sS'.thisTrialN'
p1603
I2
sS'.thisN'
p1604
I197
sS'.thisIndex'
p1605
I4
sg15
(lp1606
S'k'
asg30
g31
sg16
S'Y'
sg14
I4
sg19
(lp1607
S'space'
p1608
asg94
I4
sa(dp1609
g17
(lp1610
S'k'
asg18
S'N'
sS'.thisRepN'
p1611
I13
sg20
S'N'
sg32
g33
sS'.thisTrialN'
p1612
I3
sS'.thisN'
p1613
I198
sS'.thisIndex'
p1614
I8
sg15
(lp1615
S'd'
asg30
g31
sg16
S'N'
sg14
I4
sg19
(lp1616
S'space'
p1617
asg94
I8
sa(dp1618
g17
(lp1619
S'd'
asg18
S'N'
sg22
I23
sS'.thisN'
p1620
I199
sg20
S'N'
sg32
g33
sS'.thisTrialN'
p1621
I4
sS'.thisRepN'
p1622
I13
sg21
I21
sS'.thisIndex'
p1623
I7
sg23
I25
sg15
(lp1624
S'k'
asg30
g31
sg16
S'N'
sg14
I4
sg19
(lp1625
S'space'
p1626
asg94
I7
sa(dp1627
g17
(lp1628
S'd'
asg94
I7
sS'.thisRepN'
p1629
I13
sg30
g31
sg32
g33
sS'.thisTrialN'
p1630
I5
sS'.thisN'
p1631
I200
sS'.thisIndex'
p1632
I7
sg15
(lp1633
S'd'
asg16
S'Y'
sg14
I5
sa(dp1634
g17
(lp1635
S'd'
asg94
I11
sS'.thisRepN'
p1636
I13
sg30
g31
sg32
g33
sS'.thisTrialN'
p1637
I6
sS'.thisN'
p1638
I201
sS'.thisIndex'
p1639
I11
sg15
(lp1640
S'd'
asg16
S'Y'
sg14
I5
sa(dp1641
g17
(lp1642
S'd'
asg18
S'N'
sS'.thisRepN'
p1643
I13
sg20
S'Y'
sg32
g33
sS'.thisTrialN'
p1644
I7
sS'.thisN'
p1645
I202
sS'.thisIndex'
p1646
I1
sg15
(lp1647
S'k'
asg30
g31
sg16
S'N'
sg14
I5
sg19
Nsg94
I1
sa(dp1648
g17
(lp1649
S'k'
asg18
S'Y'
sS'.thisRepN'
p1650
I13
sg20
S'Y'
sg32
g33
sS'.thisTrialN'
p1651
I8
sS'.thisN'
p1652
I203
sS'.thisIndex'
p1653
I11
sg15
(lp1654
S'd'
asg30
g31
sg16
S'N'
sg14
I5
sg19
(lp1655
S'space'
p1656
asg94
I11
sa(dp1657
g17
(lp1658
S'k'
asg18
S'N'
sS'.thisRepN'
p1659
I13
sg20
S'N'
sg32
g33
sS'.thisTrialN'
p1660
I9
sS'.thisN'
p1661
I204
sS'.thisIndex'
p1662
I9
sg15
(lp1663
S'k'
asg30
g31
sg16
S'Y'
sg14
I5
sg19
(lp1664
S'space'
p1665
asg94
I9
sa(dp1666
g17
(lp1667
S'k'
asg18
S'Y'
sS'.thisRepN'
p1668
I13
sg20
S'N'
sg32
g33
sS'.thisTrialN'
p1669
I10
sS'.thisN'
p1670
I205
sS'.thisIndex'
p1671
I13
sg15
(lp1672
S'd'
asg30
g31
sg16
S'N'
sg14
I5
sg19
Nsg94
I13
sa(dp1673
g17
(lp1674
S'd'
asg18
S'Y'
sS'.thisRepN'
p1675
I13
sg20
S'N'
sg32
g33
sS'.thisTrialN'
p1676
I11
sS'.thisN'
p1677
I206
sS'.thisIndex'
p1678
I9
sg15
(lp1679
S'k'
asg30
g31
sg16
S'N'
sg14
I5
sg19
Nsg94
I9
sa(dp1680
g17
(lp1681
S'k'
asg18
S'N'
sS'.thisRepN'
p1682
I13
sg20
S'N'
sg32
g33
sS'.thisTrialN'
p1683
I12
sS'.thisN'
p1684
I207
sS'.thisIndex'
p1685
I9
sg15
(lp1686
S'd'
asg30
g31
sg16
S'N'
sg14
I5
sg19
(lp1687
S'space'
p1688
asg94
I9
sa(dp1689
g17
(lp1690
S'k'
asg18
S'Y'
sS'.thisRepN'
p1691
I13
sg20
S'Y'
sg32
g33
sS'.thisTrialN'
p1692
I13
sS'.thisN'
p1693
I208
sS'.thisIndex'
p1694
I7
sg15
(lp1695
S'k'
asg30
g31
sg16
S'Y'
sg14
I5
sg19
(lp1696
S'space'
p1697
asg94
I7
sa(dp1698
g17
(lp1699
S'k'
asg18
S'N'
sS'.thisRepN'
p1700
I13
sg20
S'Y'
sg32
g33
sS'.thisTrialN'
p1701
I14
sS'.thisN'
p1702
I209
sS'.thisIndex'
p1703
I0
sg15
(lp1704
S'k'
asg30
g31
sg16
S'Y'
sg14
I5
sg19
Nsg94
I0
sa(dp1705
g17
(lp1706
S'd'
asg18
S'Y'
sS'.thisRepN'
p1707
I14
sg20
S'Y'
sg32
g33
sS'.thisTrialN'
p1708
I0
sS'.thisN'
p1709
I210
sS'.thisIndex'
p1710
I7
sg15
(lp1711
S'k'
asg30
g31
sg16
S'N'
sg14
I5
sg19
(lp1712
S'space'
p1713
asg94
I7
sa(dp1714
g17
(lp1715
S'k'
asg18
S'Y'
sS'.thisRepN'
p1716
I14
sg20
S'Y'
sg32
g33
sS'.thisTrialN'
p1717
I1
sS'.thisN'
p1718
I211
sS'.thisIndex'
p1719
I10
sg15
(lp1720
S'd'
asg30
g31
sg16
S'N'
sg14
I5
sg19
(lp1721
S'space'
p1722
asg94
I10
sa(dp1723
g17
(lp1724
S'd'
asg18
S'Y'
sS'.thisRepN'
p1725
I14
sg20
S'Y'
sg32
g33
sS'.thisTrialN'
p1726
I2
sS'.thisN'
p1727
I212
sS'.thisIndex'
p1728
I1
sg15
(lp1729
S'k'
asg30
g31
sg16
S'N'
sg14
I5
sg19
(lp1730
S'space'
p1731
asg94
I1
sa(dp1732
g17
(lp1733
S'k'
asg18
S'N'
sS'.thisRepN'
p1734
I14
sg20
S'N'
sg32
g33
sS'.thisTrialN'
p1735
I3
sS'.thisN'
p1736
I213
sS'.thisIndex'
p1737
I6
sg15
(lp1738
S'd'
asg30
g31
sg16
S'N'
sg14
I5
sg19
(lp1739
S'space'
p1740
asg94
I6
sa(dp1741
g17
(lp1742
S'k'
asg18
S'N'
sS'.thisRepN'
p1743
I14
sg20
S'Y'
sg32
g33
sS'.thisTrialN'
p1744
I4
sS'.thisN'
p1745
I214
sS'.thisIndex'
p1746
I12
sg15
(lp1747
S'd'
asg30
g31
sg16
S'N'
sg14
I5
sg19
Nsg94
I12
sa(dp1748
g17
(lp1749
S'k'
asg18
S'N'
sS'.thisRepN'
p1750
I14
sg20
S'N'
sg32
g33
sS'.thisTrialN'
p1751
I5
sS'.thisN'
p1752
I215
sS'.thisIndex'
p1753
I8
sg15
(lp1754
S'k'
asg30
g31
sg16
S'Y'
sg14
I5
sg19
(lp1755
S'space'
p1756
asg94
I8
sa(dp1757
g17
(lp1758
S'd'
asg18
S'N'
sS'.thisRepN'
p1759
I14
sg20
S'Y'
sg32
g33
sS'.thisTrialN'
p1760
I6
sS'.thisN'
p1761
I216
sS'.thisIndex'
p1762
I9
sg15
(lp1763
S'k'
asg30
g31
sg16
S'N'
sg14
I5
sg19
Nsg94
I9
sa(dp1764
g17
(lp1765
S'd'
asg18
S'N'
sS'.thisRepN'
p1766
I14
sg20
S'Y'
sg32
g33
sS'.thisTrialN'
p1767
I7
sS'.thisN'
p1768
I217
sS'.thisIndex'
p1769
I12
sg15
(lp1770
S'd'
asg30
g31
sg16
S'Y'
sg14
I5
sg19
Nsg94
I12
sa(dp1771
g17
(lp1772
S'd'
asg18
S'Y'
sS'.thisRepN'
p1773
I14
sg20
S'N'
sg32
g33
sS'.thisTrialN'
p1774
I8
sS'.thisN'
p1775
I218
sS'.thisIndex'
p1776
I4
sg15
(lp1777
S'd'
asg30
g31
sg16
S'Y'
sg14
I5
sg19
Nsg94
I4
sa(dp1778
g17
(lp1779
S'k'
asg18
S'N'
sS'.thisRepN'
p1780
I14
sg20
S'N'
sg32
g33
sS'.thisTrialN'
p1781
I9
sS'.thisN'
p1782
I219
sS'.thisIndex'
p1783
I7
sg15
(lp1784
S'd'
asg30
g31
sg16
S'N'
sg14
I5
sg19
(lp1785
S'space'
p1786
asg94
I7
sa(dp1787
g17
(lp1788
S'd'
asg18
S'N'
sS'.thisRepN'
p1789
I14
sg20
S'Y'
sg32
g33
sS'.thisTrialN'
p1790
I10
sS'.thisN'
p1791
I220
sS'.thisIndex'
p1792
I14
sg15
(lp1793
S'd'
asg30
g31
sg16
S'Y'
sg14
I5
sg19
Nsg94
I14
sa(dp1794
g17
(lp1795
S'k'
asg18
S'Y'
sS'.thisRepN'
p1796
I14
sg20
S'Y'
sg32
g33
sS'.thisTrialN'
p1797
I11
sS'.thisN'
p1798
I221
sS'.thisIndex'
p1799
I5
sg15
(lp1800
S'd'
asg30
g31
sg16
S'N'
sg14
I5
sg19
(lp1801
S'space'
p1802
asg94
I5
sa(dp1803
g17
(lp1804
S'd'
asg18
S'N'
sS'.thisRepN'
p1805
I14
sg20
S'N'
sg32
g33
sS'.thisTrialN'
p1806
I12
sS'.thisN'
p1807
I222
sS'.thisIndex'
p1808
I11
sg15
(lp1809
S'd'
asg30
g31
sg16
S'Y'
sg14
I5
sg19
(lp1810
S'space'
p1811
asg94
I11
sa(dp1812
g17
(lp1813
S'k'
asg18
S'N'
sS'.thisRepN'
p1814
I14
sg20
S'Y'
sg32
g33
sS'.thisTrialN'
p1815
I13
sS'.thisN'
p1816
I223
sS'.thisIndex'
p1817
I3
sg15
(lp1818
S'd'
asg30
g31
sg16
S'N'
sg14
I5
sg19
Nsg94
I3
sa(dp1819
g17
(lp1820
S'd'
asg18
S'Y'
sS'.thisRepN'
p1821
I14
sg20
S'N'
sg32
g33
sS'.thisTrialN'
p1822
I14
sS'.thisN'
p1823
I224
sS'.thisIndex'
p1824
I6
sg15
(lp1825
S'd'
asg30
g31
sg16
S'Y'
sg14
I5
sg19
Nsg94
I6
sa(dp1826
g17
(lp1827
S'd'
asg18
S'Y'
sS'.thisRepN'
p1828
I15
sg20
S'N'
sg32
g33
sS'.thisTrialN'
p1829
I0
sS'.thisN'
p1830
I225
sS'.thisIndex'
p1831
I4
sg15
(lp1832
S'd'
asg30
g31
sg16
S'Y'
sg14
I5
sg19
Nsg94
I4
sa(dp1833
g17
(lp1834
S'd'
asg18
S'Y'
sS'.thisRepN'
p1835
I15
sg20
S'N'
sg32
g33
sS'.thisTrialN'
p1836
I1
sS'.thisN'
p1837
I226
sS'.thisIndex'
p1838
I1
sg15
(lp1839
S'd'
asg30
g31
sg16
S'Y'
sg14
I5
sg19
Nsg94
I1
sa(dp1840
g17
(lp1841
S'd'
asg18
S'N'
sS'.thisRepN'
p1842
I15
sg20
S'Y'
sg32
g33
sS'.thisTrialN'
p1843
I2
sS'.thisN'
p1844
I227
sS'.thisIndex'
p1845
I14
sg15
(lp1846
S'k'
asg30
g31
sg16
S'N'
sg14
I5
sg19
Nsg94
I14
sa(dp1847
g17
(lp1848
S'k'
asg18
S'Y'
sS'.thisRepN'
p1849
I15
sg20
S'N'
sg32
g33
sS'.thisTrialN'
p1850
I3
sS'.thisN'
p1851
I228
sS'.thisIndex'
p1852
I12
sg15
(lp1853
S'd'
asg30
g31
sg16
S'N'
sg14
I5
sg19
Nsg94
I12
sa(dp1854
g17
(lp1855
S'k'
asg18
S'N'
sS'.thisRepN'
p1856
I15
sg20
S'Y'
sg32
g33
sS'.thisTrialN'
p1857
I4
sS'.thisN'
p1858
I229
sS'.thisIndex'
p1859
I1
sg15
(lp1860
S'd'
asg30
g31
sg16
S'N'
sg14
I5
sg19
Nsg94
I1
sa(dp1861
g17
(lp1862
S'd'
asg18
S'Y'
sS'.thisRepN'
p1863
I15
sg20
S'N'
sg32
g33
sS'.thisTrialN'
p1864
I5
sS'.thisN'
p1865
I230
sS'.thisIndex'
p1866
I2
sg15
(lp1867
S'd'
asg30
g31
sg16
S'Y'
sg14
I5
sg19
Nsg94
I2
sa(dp1868
g17
(lp1869
S'k'
asg18
S'N'
sS'.thisRepN'
p1870
I15
sg20
S'Y'
sg32
g33
sS'.thisTrialN'
p1871
I6
sS'.thisN'
p1872
I231
sS'.thisIndex'
p1873
I13
sg15
(lp1874
S'd'
asg30
g31
sg16
S'N'
sg14
I5
sg19
Nsg94
I13
sa(dp1875
g17
(lp1876
S'k'
asg18
S'Y'
sS'.thisRepN'
p1877
I15
sg20
S'N'
sg32
g33
sS'.thisTrialN'
p1878
I7
sS'.thisN'
p1879
I232
sS'.thisIndex'
p1880
I6
sg15
(lp1881
S'd'
asg30
g31
sg16
S'N'
sg14
I5
sg19
Nsg94
I6
sa(dp1882
g17
(lp1883
S'k'
asg18
S'N'
sS'.thisRepN'
p1884
I15
sg20
S'Y'
sg32
g33
sS'.thisTrialN'
p1885
I8
sS'.thisN'
p1886
I233
sS'.thisIndex'
p1887
I9
sg15
(lp1888
S'd'
asg30
g31
sg16
S'N'
sg14
I5
sg19
Nsg94
I9
sa(dp1889
g17
(lp1890
S'k'
asg18
S'N'
sS'.thisRepN'
p1891
I15
sg20
S'Y'
sg32
g33
sS'.thisTrialN'
p1892
I9
sS'.thisN'
p1893
I234
sS'.thisIndex'
p1894
I4
sg15
(lp1895
S'd'
asg30
g31
sg16
S'N'
sg14
I5
sg19
Nsg94
I4
sa(dp1896
g17
(lp1897
S'k'
asg18
S'Y'
sS'.thisRepN'
p1898
I15
sg20
S'N'
sg32
g33
sS'.thisTrialN'
p1899
I10
sS'.thisN'
p1900
I235
sS'.thisIndex'
p1901
I6
sg15
(lp1902
S'k'
asg30
g31
sg16
S'Y'
sg14
I5
sg19
Nsg94
I6
sa(dp1903
g17
(lp1904
S'k'
asg18
S'N'
sS'.thisRepN'
p1905
I15
sg20
S'Y'
sg32
g33
sS'.thisTrialN'
p1906
I11
sS'.thisN'
p1907
I236
sS'.thisIndex'
p1908
I2
sg15
(lp1909
S'd'
asg30
g31
sg16
S'N'
sg14
I5
sg19
Nsg94
I2
sa(dp1910
g17
(lp1911
S'k'
asg18
S'N'
sS'.thisRepN'
p1912
I15
sg20
S'Y'
sg32
g33
sS'.thisTrialN'
p1913
I12
sS'.thisN'
p1914
I237
sS'.thisIndex'
p1915
I9
sg15
(lp1916
S'k'
asg30
g31
sg16
S'Y'
sg14
I5
sg19
Nsg94
I9
sa(dp1917
g17
(lp1918
S'd'
asg18
S'N'
sS'.thisRepN'
p1919
I15
sg20
S'Y'
sg32
g33
sS'.thisTrialN'
p1920
I13
sS'.thisN'
p1921
I238
sS'.thisIndex'
p1922
I2
sg15
(lp1923
S'k'
asg30
g31
sg16
S'N'
sg14
I5
sg19
Nsg94
I2
sa(dp1924
g17
(lp1925
S'd'
asg18
S'Y'
sS'.thisRepN'
p1926
I15
sg20
S'N'
sg32
g33
sS'.thisTrialN'
p1927
I14
sS'.thisN'
p1928
I239
sS'.thisIndex'
p1929
I10
sg15
(lp1930
S'd'
asg30
g31
sg16
S'Y'
sg14
I5
sg19
Nsg94
I10
sa(dp1931
g17
(lp1932
S'k'
asg18
S'Y'
sS'.thisRepN'
p1933
I16
sg20
S'N'
sg32
g33
sS'.thisTrialN'
p1934
I0
sS'.thisN'
p1935
I240
sS'.thisIndex'
p1936
I13
sg15
(lp1937
S'd'
asg30
g31
sg16
S'N'
sg14
I5
sg19
Nsg94
I13
sa(dp1938
g17
(lp1939
S'k'
asg18
S'N'
sS'.thisRepN'
p1940
I16
sg20
S'Y'
sg32
g33
sS'.thisTrialN'
p1941
I1
sS'.thisN'
p1942
I241
sS'.thisIndex'
p1943
I11
sg15
(lp1944
S'd'
asg30
g31
sg16
S'N'
sg14
I5
sg19
Nsg94
I11
sa(dp1945
g17
(lp1946
S'k'
asg18
S'Y'
sS'.thisRepN'
p1947
I16
sg20
S'N'
sg32
g33
sS'.thisTrialN'
p1948
I2
sS'.thisN'
p1949
I242
sS'.thisIndex'
p1950
I8
sg15
(lp1951
S'd'
asg30
g31
sg16
S'N'
sg14
I5
sg19
Nsg94
I8
sa(dp1952
g17
(lp1953
S'k'
asg18
S'N'
sS'.thisRepN'
p1954
I16
sg20
S'Y'
sg32
g33
sS'.thisTrialN'
p1955
I3
sS'.thisN'
p1956
I243
sS'.thisIndex'
p1957
I0
sg15
(lp1958
S'k'
asg30
g31
sg16
S'Y'
sg14
I5
sg19
Nsg94
I0
sa(dp1959
g17
(lp1960
S'k'
asg18
S'N'
sS'.thisRepN'
p1961
I16
sg20
S'Y'
sg32
g33
sS'.thisTrialN'
p1962
I4
sS'.thisN'
p1963
I244
sS'.thisIndex'
p1964
I1
sg15
(lp1965
S'd'
asg30
g31
sg16
S'N'
sg14
I5
sg19
Nsg94
I1
sa(dp1966
g17
(lp1967
S'k'
asg18
S'N'
sS'.thisRepN'
p1968
I16
sg20
S'Y'
sg32
g33
sS'.thisTrialN'
p1969
I5
sS'.thisN'
p1970
I245
sS'.thisIndex'
p1971
I13
sg15
(lp1972
S'd'
asg30
g31
sg16
S'N'
sg14
I5
sg19
Nsg94
I13
sa(dp1973
g17
(lp1974
S'k'
asg18
S'Y'
sS'.thisRepN'
p1975
I16
sg20
S'N'
sg32
g33
sS'.thisTrialN'
p1976
I6
sS'.thisN'
p1977
I246
sS'.thisIndex'
p1978
I8
sg15
(lp1979
S'd'
asg30
g31
sg16
S'N'
sg14
I5
sg19
Nsg94
I8
sa(dp1980
g17
(lp1981
S'd'
asg18
S'Y'
sS'.thisRepN'
p1982
I16
sg20
S'N'
sg32
g33
sS'.thisTrialN'
p1983
I7
sS'.thisN'
p1984
I247
sS'.thisIndex'
p1985
I3
sg15
(lp1986
S'd'
asg30
g31
sg16
S'Y'
sg14
I5
sg19
Nsg94
I3
sa(dp1987
g17
(lp1988
S'd'
asg18
S'N'
sS'.thisRepN'
p1989
I16
sg20
S'Y'
sg32
g33
sS'.thisTrialN'
p1990
I8
sS'.thisN'
p1991
I248
sS'.thisIndex'
p1992
I2
sg15
(lp1993
S'k'
asg30
g31
sg16
S'N'
sg14
I5
sg19
Nsg94
I2
sa(dp1994
g17
(lp1995
S'k'
asg18
S'N'
sg22
I27
sS'.thisN'
p1996
I249
sg20
S'Y'
sg32
g33
sS'.thisTrialN'
p1997
I9
sS'.thisRepN'
p1998
I16
sg21
I19
sS'.thisIndex'
p1999
I14
sg23
I21
sg15
(lp2000
S'd'
asg30
g31
sg16
S'N'
sg14
I5
sg19
Nsg94
I14
sa(dp2001
g17
(lp2002
S'd'
asg94
I11
sS'.thisRepN'
p2003
I16
sg30
g31
sg32
g33
sS'.thisTrialN'
p2004
I10
sS'.thisN'
p2005
I250
sS'.thisIndex'
p2006
I11
sg15
(lp2007
S'k'
asg16
S'N'
sg14
I6
sa(dp2008
g17
(lp2009
S'd'
asg94
I12
sS'.thisRepN'
p2010
I16
sg30
g31
sg32
g33
sS'.thisTrialN'
p2011
I11
sS'.thisN'
p2012
I251
sS'.thisIndex'
p2013
I12
sg15
(lp2014
S'k'
asg16
S'N'
sg14
I6
sa(dp2015
g17
(lp2016
S'k'
asg18
S'Y'
sS'.thisRepN'
p2017
I16
sg20
S'N'
sg32
g33
sS'.thisTrialN'
p2018
I12
sS'.thisN'
p2019
I252
sS'.thisIndex'
p2020
I13
sg15
(lp2021
S'd'
asg30
g31
sg16
S'N'
sg14
I6
sg19
Nsg94
I13
sa(dp2022
g17
(lp2023
S'k'
asg18
S'Y'
sS'.thisRepN'
p2024
I16
sg20
S'N'
sg32
g33
sS'.thisTrialN'
p2025
I13
sS'.thisN'
p2026
I253
sS'.thisIndex'
p2027
I10
sg15
(lp2028
S'k'
asg30
g31
sg16
S'Y'
sg14
I6
sg19
Nsg94
I10
sa(dp2029
g17
(lp2030
S'k'
asg18
S'N'
sS'.thisRepN'
p2031
I16
sg20
S'Y'
sg32
g33
sS'.thisTrialN'
p2032
I14
sS'.thisN'
p2033
I254
sS'.thisIndex'
p2034
I13
sg15
(lp2035
S'd'
asg30
g31
sg16
S'N'
sg14
I6
sg19
Nsg94
I13
sa(dp2036
g17
(lp2037
S'd'
asg18
S'N'
sS'.thisRepN'
p2038
I17
sg20
S'Y'
sg32
g33
sS'.thisTrialN'
p2039
I0
sS'.thisN'
p2040
I255
sS'.thisIndex'
p2041
I2
sg15
(lp2042
S'd'
asg30
g31
sg16
S'Y'
sg14
I6
sg19
Nsg94
I2
sa(dp2043
g17
(lp2044
S'd'
asg18
S'N'
sS'.thisRepN'
p2045
I17
sg20
S'N'
sg32
g33
sS'.thisTrialN'
p2046
I1
sS'.thisN'
p2047
I256
sS'.thisIndex'
p2048
I6
sg15
(lp2049
S'd'
asg30
g31
sg16
S'Y'
sg14
I6
sg19
(lp2050
S'space'
p2051
asg94
I6
sa(dp2052
g17
(lp2053
S'd'
asg18
S'N'
sS'.thisRepN'
p2054
I17
sg20
S'Y'
sg32
g33
sS'.thisTrialN'
p2055
I2
sS'.thisN'
p2056
I257
sS'.thisIndex'
p2057
I7
sg15
(lp2058
S'd'
asg30
g31
sg16
S'Y'
sg14
I6
sg19
Nsg94
I7
sa(dp2059
g17
(lp2060
S'k'
asg18
S'Y'
sS'.thisRepN'
p2061
I17
sg20
S'Y'
sg32
g33
sS'.thisTrialN'
p2062
I3
sS'.thisN'
p2063
I258
sS'.thisIndex'
p2064
I4
sg15
(lp2065
S'd'
asg30
g31
sg16
S'N'
sg14
I6
sg19
(lp2066
S'space'
p2067
asg94
I4
sa(dp2068
g17
(lp2069
S'k'
asg18
S'Y'
sS'.thisRepN'
p2070
I17
sg20
S'N'
sg32
g33
sS'.thisTrialN'
p2071
I4
sS'.thisN'
p2072
I259
sS'.thisIndex'
p2073
I4
sg15
(lp2074
S'd'
asg30
g31
sg16
S'N'
sg14
I6
sg19
Nsg94
I4
sa(dp2075
g17
(lp2076
S'd'
asg18
S'Y'
sS'.thisRepN'
p2077
I17
sg20
S'N'
sg32
g33
sS'.thisTrialN'
p2078
I5
sS'.thisN'
p2079
I260
sS'.thisIndex'
p2080
I2
sg15
(lp2081
S'd'
asg30
g31
sg16
S'Y'
sg14
I6
sg19
Nsg94
I2
sa(dp2082
g17
(lp2083
S'k'
asg18
S'Y'
sS'.thisRepN'
p2084
I17
sg20
S'N'
sg32
g33
sS'.thisTrialN'
p2085
I6
sS'.thisN'
p2086
I261
sS'.thisIndex'
p2087
I5
sg15
(lp2088
S'k'
asg30
g31
sg16
S'Y'
sg14
I6
sg19
Nsg94
I5
sa(dp2089
g17
(lp2090
S'k'
asg18
S'N'
sS'.thisRepN'
p2091
I17
sg20
S'Y'
sg32
g33
sS'.thisTrialN'
p2092
I7
sS'.thisN'
p2093
I262
sS'.thisIndex'
p2094
I14
sg15
(lp2095
S'd'
asg30
g31
sg16
S'N'
sg14
I6
sg19
Nsg94
I14
sa(dp2096
g17
(lp2097
S'd'
asg18
S'Y'
sS'.thisRepN'
p2098
I17
sg20
S'N'
sg32
g33
sS'.thisTrialN'
p2099
I8
sS'.thisN'
p2100
I263
sS'.thisIndex'
p2101
I5
sg15
(lp2102
S'k'
asg30
g31
sg16
S'N'
sg14
I6
sg19
Nsg94
I5
sa(dp2103
g17
(lp2104
S'k'
asg18
S'N'
sS'.thisRepN'
p2105
I17
sg20
S'Y'
sg32
g33
sS'.thisTrialN'
p2106
I9
sS'.thisN'
p2107
I264
sS'.thisIndex'
p2108
I9
sg15
(lp2109
S'k'
asg30
g31
sg16
S'Y'
sg14
I6
sg19
Nsg94
I9
sa(dp2110
g17
(lp2111
S'd'
asg18
S'Y'
sS'.thisRepN'
p2112
I17
sg20
S'N'
sg32
g33
sS'.thisTrialN'
p2113
I10
sS'.thisN'
p2114
I265
sS'.thisIndex'
p2115
I6
sg15
(lp2116
S'd'
asg30
g31
sg16
S'Y'
sg14
I6
sg19
Nsg94
I6
sa(dp2117
g17
(lp2118
S'k'
asg18
S'Y'
sS'.thisRepN'
p2119
I17
sg20
S'N'
sg32
g33
sS'.thisTrialN'
p2120
I11
sS'.thisN'
p2121
I266
sS'.thisIndex'
p2122
I12
sg15
(lp2123
S'd'
asg30
g31
sg16
S'N'
sg14
I6
sg19
Nsg94
I12
sa(dp2124
g17
(lp2125
S'k'
asg18
S'N'
sS'.thisRepN'
p2126
I17
sg20
S'Y'
sg32
g33
sS'.thisTrialN'
p2127
I12
sS'.thisN'
p2128
I267
sS'.thisIndex'
p2129
I13
sg15
(lp2130
S'd'
asg30
g31
sg16
S'N'
sg14
I6
sg19
Nsg94
I13
sa(dp2131
g17
(lp2132
S'k'
asg18
S'N'
sS'.thisRepN'
p2133
I17
sg20
S'Y'
sg32
g33
sS'.thisTrialN'
p2134
I13
sS'.thisN'
p2135
I268
sS'.thisIndex'
p2136
I10
sg15
(lp2137
S'd'
asg30
g31
sg16
S'N'
sg14
I6
sg19
Nsg94
I10
sa(dp2138
g17
(lp2139
S'd'
asg18
S'N'
sS'.thisRepN'
p2140
I17
sg20
S'Y'
sg32
g33
sS'.thisTrialN'
p2141
I14
sS'.thisN'
p2142
I269
sS'.thisIndex'
p2143
I4
sg15
(lp2144
S'k'
asg30
g31
sg16
S'N'
sg14
I6
sg19
Nsg94
I4
sa(dp2145
g17
(lp2146
S'd'
asg18
S'N'
sS'.thisRepN'
p2147
I18
sg20
S'Y'
sg32
g33
sS'.thisTrialN'
p2148
I0
sS'.thisN'
p2149
I270
sS'.thisIndex'
p2150
I6
sg15
(lp2151
S'k'
asg30
g31
sg16
S'N'
sg14
I6
sg19
Nsg94
I6
sa(dp2152
g17
(lp2153
S'k'
asg18
S'Y'
sS'.thisRepN'
p2154
I18
sg20
S'N'
sg32
g33
sS'.thisTrialN'
p2155
I1
sS'.thisN'
p2156
I271
sS'.thisIndex'
p2157
I3
sg15
(lp2158
S'd'
asg30
g31
sg16
S'N'
sg14
I6
sg19
Nsg94
I3
sa(dp2159
g17
(lp2160
S'k'
asg18
S'N'
sS'.thisRepN'
p2161
I18
sg20
S'Y'
sg32
g33
sS'.thisTrialN'
p2162
I2
sS'.thisN'
p2163
I272
sS'.thisIndex'
p2164
I7
sg15
(lp2165
S'k'
asg30
g31
sg16
S'Y'
sg14
I6
sg19
Nsg94
I7
sa(dp2166
g17
(lp2167
S'k'
asg18
S'N'
sS'.thisRepN'
p2168
I18
sg20
S'Y'
sg32
g33
sS'.thisTrialN'
p2169
I3
sS'.thisN'
p2170
I273
sS'.thisIndex'
p2171
I5
sg15
(lp2172
S'k'
asg30
g31
sg16
S'Y'
sg14
I6
sg19
Nsg94
I5
sa(dp2173
g17
(lp2174
S'k'
asg18
S'Y'
sS'.thisRepN'
p2175
I18
sg20
S'N'
sg32
g33
sS'.thisTrialN'
p2176
I4
sS'.thisN'
p2177
I274
sS'.thisIndex'
p2178
I5
sg15
(lp2179
S'd'
asg30
g31
sg16
S'N'
sg14
I6
sg19
Nsg94
I5
sa(dp2180
g17
(lp2181
S'd'
asg18
S'Y'
sS'.thisRepN'
p2182
I18
sg20
S'N'
sg32
g33
sS'.thisTrialN'
p2183
I5
sS'.thisN'
p2184
I275
sS'.thisIndex'
p2185
I11
sg15
(lp2186
S'd'
asg30
g31
sg16
S'Y'
sg14
I6
sg19
Nsg94
I11
sa(dp2187
g17
(lp2188
S'k'
asg18
S'Y'
sS'.thisRepN'
p2189
I18
sg20
S'N'
sg32
g33
sS'.thisTrialN'
p2190
I6
sS'.thisN'
p2191
I276
sS'.thisIndex'
p2192
I9
sg15
(lp2193
S'k'
asg30
g31
sg16
S'Y'
sg14
I6
sg19
Nsg94
I9
sa(dp2194
g17
(lp2195
S'd'
asg18
S'Y'
sS'.thisRepN'
p2196
I18
sg20
S'N'
sg32
g33
sS'.thisTrialN'
p2197
I7
sS'.thisN'
p2198
I277
sS'.thisIndex'
p2199
I12
sg15
(lp2200
S'd'
asg30
g31
sg16
S'Y'
sg14
I6
sg19
Nsg94
I12
sa(dp2201
g17
(lp2202
S'k'
asg18
S'N'
sS'.thisRepN'
p2203
I18
sg20
S'Y'
sg32
g33
sS'.thisTrialN'
p2204
I8
sS'.thisN'
p2205
I278
sS'.thisIndex'
p2206
I5
sg15
(lp2207
S'd'
asg30
g31
sg16
S'N'
sg14
I6
sg19
Nsg94
I5
sa(dp2208
g17
(lp2209
S'k'
asg18
S'Y'
sS'.thisRepN'
p2210
I18
sg20
S'N'
sg32
g33
sS'.thisTrialN'
p2211
I9
sS'.thisN'
p2212
I279
sS'.thisIndex'
p2213
I12
sg15
(lp2214
S'k'
asg30
g31
sg16
S'Y'
sg14
I6
sg19
Nsg94
I12
sa(dp2215
g17
(lp2216
S'd'
asg18
S'Y'
sS'.thisRepN'
p2217
I18
sg20
S'Y'
sg32
g33
sS'.thisTrialN'
p2218
I10
sS'.thisN'
p2219
I280
sS'.thisIndex'
p2220
I7
sg15
(lp2221
S'd'
asg30
g31
sg16
S'Y'
sg14
I6
sg19
(lp2222
S'space'
p2223
asg94
I7
sa(dp2224
g17
(lp2225
S'k'
asg18
S'N'
sS'.thisRepN'
p2226
I18
sg20
S'Y'
sg32
g33
sS'.thisTrialN'
p2227
I11
sS'.thisN'
p2228
I281
sS'.thisIndex'
p2229
I7
sg15
(lp2230
S'd'
asg30
g31
sg16
S'N'
sg14
I6
sg19
Nsg94
I7
sa(dp2231
g17
(lp2232
S'd'
asg18
S'Y'
sS'.thisRepN'
p2233
I18
sg20
S'N'
sg32
g33
sS'.thisTrialN'
p2234
I12
sS'.thisN'
p2235
I282
sS'.thisIndex'
p2236
I12
sg15
(lp2237
S'k'
asg30
g31
sg16
S'N'
sg14
I6
sg19
Nsg94
I12
sa(dp2238
g17
(lp2239
S'd'
asg18
S'Y'
sS'.thisRepN'
p2240
I18
sg20
S'Y'
sg32
g33
sS'.thisTrialN'
p2241
I13
sS'.thisN'
p2242
I283
sS'.thisIndex'
p2243
I6
sg15
(lp2244
S'd'
asg30
g31
sg16
S'Y'
sg14
I6
sg19
(lp2245
S'space'
p2246
asg94
I6
sa(dp2247
g17
(lp2248
S'k'
asg18
S'N'
sS'.thisRepN'
p2249
I18
sg20
S'N'
sg32
g33
sS'.thisTrialN'
p2250
I14
sS'.thisN'
p2251
I284
sS'.thisIndex'
p2252
I7
sg15
(lp2253
S'd'
asg30
g31
sg16
S'N'
sg14
I6
sg19
(lp2254
S'space'
p2255
asg94
I7
sa(dp2256
g17
(lp2257
S'k'
asg18
S'Y'
sS'.thisRepN'
p2258
I19
sg20
S'Y'
sg32
g33
sS'.thisTrialN'
p2259
I0
sS'.thisN'
p2260
I285
sS'.thisIndex'
p2261
I5
sg15
(lp2262
S'd'
asg30
g31
sg16
S'N'
sg14
I6
sg19
(lp2263
S'space'
p2264
asg94
I5
sa(dp2265
g17
(lp2266
S'd'
asg18
S'Y'
sS'.thisRepN'
p2267
I19
sg20
S'Y'
sg32
g33
sS'.thisTrialN'
p2268
I1
sS'.thisN'
p2269
I286
sS'.thisIndex'
p2270
I6
sg15
(lp2271
S'd'
asg30
g31
sg16
S'Y'
sg14
I6
sg19
(lp2272
S'space'
p2273
asg94
I6
sa(dp2274
g17
(lp2275
S'd'
asg18
S'Y'
sS'.thisRepN'
p2276
I19
sg20
S'Y'
sg32
g33
sS'.thisTrialN'
p2277
I2
sS'.thisN'
p2278
I287
sS'.thisIndex'
p2279
I13
sg15
(lp2280
S'd'
asg30
g31
sg16
S'Y'
sg14
I6
sg19
(lp2281
S'space'
p2282
asg94
I13
sa(dp2283
g17
(lp2284
S'k'
asg18
S'Y'
sS'.thisRepN'
p2285
I19
sg20
S'Y'
sg32
g33
sS'.thisTrialN'
p2286
I3
sS'.thisN'
p2287
I288
sS'.thisIndex'
p2288
I14
sg15
(lp2289
S'd'
asg30
g31
sg16
S'N'
sg14
I6
sg19
(lp2290
S'space'
p2291
asg94
I14
sa(dp2292
g17
(lp2293
S'd'
asg18
S'Y'
sS'.thisRepN'
p2294
I19
sg20
S'Y'
sg32
g33
sS'.thisTrialN'
p2295
I4
sS'.thisN'
p2296
I289
sS'.thisIndex'
p2297
I14
sg15
(lp2298
S'd'
asg30
g31
sg16
S'Y'
sg14
I6
sg19
(lp2299
S'space'
p2300
asg94
I14
sa(dp2301
g17
(lp2302
S'k'
asg18
S'N'
sS'.thisRepN'
p2303
I19
sg20
S'Y'
sg32
g33
sS'.thisTrialN'
p2304
I5
sS'.thisN'
p2305
I290
sS'.thisIndex'
p2306
I11
sg15
(lp2307
S'd'
asg30
g31
sg16
S'N'
sg14
I6
sg19
Nsg94
I11
sa(dp2308
g17
(lp2309
S'd'
asg18
S'Y'
sS'.thisRepN'
p2310
I19
sg20
S'Y'
sg32
g33
sS'.thisTrialN'
p2311
I6
sS'.thisN'
p2312
I291
sS'.thisIndex'
p2313
I12
sg15
(lp2314
S'k'
asg30
g31
sg16
S'N'
sg14
I6
sg19
(lp2315
S'space'
p2316
asg94
I12
sa(dp2317
g17
(lp2318
S'd'
asg18
S'Y'
sS'.thisRepN'
p2319
I19
sg20
S'N'
sg32
g33
sS'.thisTrialN'
p2320
I7
sS'.thisN'
p2321
I292
sS'.thisIndex'
p2322
I6
sg15
(lp2323
S'k'
asg30
g31
sg16
S'N'
sg14
I6
sg19
Nsg94
I6
sa(dp2324
g17
(lp2325
S'd'
asg18
S'N'
sS'.thisRepN'
p2326
I19
sg20
S'Y'
sg32
g33
sS'.thisTrialN'
p2327
I8
sS'.thisN'
p2328
I293
sS'.thisIndex'
p2329
I6
sg15
(lp2330
S'd'
asg30
g31
sg16
S'Y'
sg14
I6
sg19
Nsg94
I6
sa(dp2331
g17
(lp2332
S'd'
asg18
S'N'
sS'.thisRepN'
p2333
I19
sg20
S'N'
sg32
g33
sS'.thisTrialN'
p2334
I9
sS'.thisN'
p2335
I294
sS'.thisIndex'
p2336
I5
sg15
(lp2337
S'd'
asg30
g31
sg16
S'Y'
sg14
I6
sg19
(lp2338
S'space'
p2339
asg94
I5
sa(dp2340
g17
(lp2341
S'd'
asg18
S'N'
sS'.thisRepN'
p2342
I19
sg20
S'N'
sg32
g33
sS'.thisTrialN'
p2343
I10
sS'.thisN'
p2344
I295
sS'.thisIndex'
p2345
I8
sg15
(lp2346
S'd'
asg30
g31
sg16
S'Y'
sg14
I6
sg19
(lp2347
S'd'
asg94
I8
sa(dp2348
g17
(lp2349
S'd'
asg18
S'N'
sS'.thisRepN'
p2350
I19
sg20
S'N'
sg32
g33
sS'.thisTrialN'
p2351
I11
sS'.thisN'
p2352
I296
sS'.thisIndex'
p2353
I5
sg15
(lp2354
S'd'
asg30
g31
sg16
S'Y'
sg14
I6
sg19
(lp2355
S'space'
p2356
asg94
I5
sa(dp2357
g17
(lp2358
S'k'
asg18
S'N'
sS'.thisRepN'
p2359
I19
sg20
S'Y'
sg32
g33
sS'.thisTrialN'
p2360
I12
sS'.thisN'
p2361
I297
sS'.thisIndex'
p2362
I10
sg15
(lp2363
S'd'
asg30
g31
sg16
S'N'
sg14
I6
sg19
Nsg94
I10
sa(dp2364
g17
(lp2365
S'k'
asg18
S'N'
sS'.thisRepN'
p2366
I19
sg20
S'Y'
sg32
g33
sS'.thisTrialN'
p2367
I13
sS'.thisN'
p2368
I298
sS'.thisIndex'
p2369
I11
sg15
(lp2370
S'k'
asg30
g31
sg16
S'Y'
sg14
I6
sg19
Nsg94
I11
sa(dp2371
g17
(lp2372
S'd'
asg18
S'N'
sg22
I27
sS'.thisN'
p2373
I299
sg20
S'Y'
sg32
g33
sS'.thisTrialN'
p2374
I14
sS'.thisRepN'
p2375
I19
sg21
I25
sS'.thisIndex'
p2376
I2
sg23
I25
sg15
(lp2377
S'd'
asg30
g31
sg16
S'Y'
sg14
I6
sg19
Nsg94
I2
sa(dp2378
g17
(lp2379
S'k'
asg94
I4
sS'.thisRepN'
p2380
I20
sg30
g31
sg32
g33
sS'.thisTrialN'
p2381
I0
sS'.thisN'
p2382
I300
sS'.thisIndex'
p2383
I4
sg15
(lp2384
S'd'
asg16
S'N'
sg14
I7
sa(dp2385
g17
(lp2386
S'd'
asg94
I5
sS'.thisRepN'
p2387
I20
sg30
g31
sg32
g33
sS'.thisTrialN'
p2388
I1
sS'.thisN'
p2389
I301
sS'.thisIndex'
p2390
I5
sg15
(lp2391
S'k'
asg16
S'N'
sg14
I7
sa(dp2392
g17
(lp2393
S'd'
asg18
S'Y'
sS'.thisRepN'
p2394
I20
sg20
S'N'
sg32
g33
sS'.thisTrialN'
p2395
I2
sS'.thisN'
p2396
I302
sS'.thisIndex'
p2397
I1
sg15
(lp2398
S'd'
asg30
g31
sg16
S'Y'
sg14
I7
sg19
Nsg94
I1
sa(dp2399
g17
(lp2400
S'k'
asg18
S'N'
sS'.thisRepN'
p2401
I20
sg20
S'Y'
sg32
g33
sS'.thisTrialN'
p2402
I3
sS'.thisN'
p2403
I303
sS'.thisIndex'
p2404
I13
sg15
(lp2405
S'd'
asg30
g31
sg16
S'N'
sg14
I7
sg19
Nsg94
I13
sa(dp2406
g17
(lp2407
S'd'
asg18
S'Y'
sS'.thisRepN'
p2408
I20
sg20
S'N'
sg32
g33
sS'.thisTrialN'
p2409
I4
sS'.thisN'
p2410
I304
sS'.thisIndex'
p2411
I10
sg15
(lp2412
S'd'
asg30
g31
sg16
S'Y'
sg14
I7
sg19
Nsg94
I10
sa(dp2413
g17
(lp2414
S'k'
asg18
S'Y'
sS'.thisRepN'
p2415
I20
sg20
S'N'
sg32
g33
sS'.thisTrialN'
p2416
I5
sS'.thisN'
p2417
I305
sS'.thisIndex'
p2418
I10
sg15
(lp2419
S'd'
asg30
g31
sg16
S'N'
sg14
I7
sg19
Nsg94
I10
sa(dp2420
g17
(lp2421
S'k'
asg18
S'Y'
sS'.thisRepN'
p2422
I20
sg20
S'Y'
sg32
g33
sS'.thisTrialN'
p2423
I6
sS'.thisN'
p2424
I306
sS'.thisIndex'
p2425
I13
sg15
(lp2426
S'd'
asg30
g31
sg16
S'N'
sg14
I7
sg19
(lp2427
S'space'
p2428
asg94
I13
sa(dp2429
g17
(lp2430
S'k'
asg18
S'Y'
sS'.thisRepN'
p2431
I20
sg20
S'Y'
sg32
g33
sS'.thisTrialN'
p2432
I7
sS'.thisN'
p2433
I307
sS'.thisIndex'
p2434
I0
sg15
(lp2435
S'k'
asg30
g31
sg16
S'Y'
sg14
I7
sg19
(lp2436
S'space'
p2437
asg94
I0
sa(dp2438
g17
(lp2439
S'd'
asg18
S'N'
sS'.thisRepN'
p2440
I20
sg20
S'N'
sg32
g33
sS'.thisTrialN'
p2441
I8
sS'.thisN'
p2442
I308
sS'.thisIndex'
p2443
I13
sg15
(lp2444
S'k'
asg30
g31
sg16
S'N'
sg14
I7
sg19
(lp2445
S'space'
p2446
asg94
I13
sa(dp2447
g17
(lp2448
S'd'
asg18
S'Y'
sS'.thisRepN'
p2449
I20
sg20
S'Y'
sg32
g33
sS'.thisTrialN'
p2450
I9
sS'.thisN'
p2451
I309
sS'.thisIndex'
p2452
I3
sg15
(lp2453
S'd'
asg30
g31
sg16
S'Y'
sg14
I7
sg19
(lp2454
S'space'
p2455
asg94
I3
sa(dp2456
g17
(lp2457
S'd'
asg18
S'Y'
sS'.thisRepN'
p2458
I20
sg20
S'N'
sg32
g33
sS'.thisTrialN'
p2459
I10
sS'.thisN'
p2460
I310
sS'.thisIndex'
p2461
I14
sg15
(lp2462
S'd'
asg30
g31
sg16
S'Y'
sg14
I7
sg19
(lp2463
S'd'
asg94
I14
sa(dp2464
g17
(lp2465
S'd'
asg18
S'N'
sS'.thisRepN'
p2466
I20
sg20
S'N'
sg32
g33
sS'.thisTrialN'
p2467
I11
sS'.thisN'
p2468
I311
sS'.thisIndex'
p2469
I8
sg15
(lp2470
S'd'
asg30
g31
sg16
S'Y'
sg14
I7
sg19
(lp2471
S'space'
p2472
asg94
I8
sa(dp2473
g17
(lp2474
S'd'
asg18
S'N'
sS'.thisRepN'
p2475
I20
sg20
S'N'
sg32
g33
sS'.thisTrialN'
p2476
I12
sS'.thisN'
p2477
I312
sS'.thisIndex'
p2478
I9
sg15
(lp2479
S'd'
asg30
g31
sg16
S'Y'
sg14
I7
sg19
(lp2480
S'space'
p2481
asg94
I9
sa(dp2482
g17
(lp2483
S'k'
asg18
S'Y'
sS'.thisRepN'
p2484
I20
sg20
S'N'
sg32
g33
sS'.thisTrialN'
p2485
I13
sS'.thisN'
p2486
I313
sS'.thisIndex'
p2487
I8
sg15
(lp2488
S'd'
asg30
g31
sg16
S'N'
sg14
I7
sg19
(lp2489
S'd'
asg94
I8
sa(dp2490
g17
(lp2491
S'k'
asg18
S'N'
sS'.thisRepN'
p2492
I20
sg20
S'N'
sg32
g33
sS'.thisTrialN'
p2493
I14
sS'.thisN'
p2494
I314
sS'.thisIndex'
p2495
I13
sg15
(lp2496
S'd'
asg30
g31
sg16
S'N'
sg14
I7
sg19
(lp2497
S'space'
p2498
asg94
I13
sa(dp2499
g17
(lp2500
S'k'
asg18
S'Y'
sS'.thisRepN'
p2501
I21
sg20
S'Y'
sg32
g33
sS'.thisTrialN'
p2502
I0
sS'.thisN'
p2503
I315
sS'.thisIndex'
p2504
I7
sg15
(lp2505
S'k'
asg30
g31
sg16
S'Y'
sg14
I7
sg19
(lp2506
S'space'
p2507
asg94
I7
sa(dp2508
g17
(lp2509
S'd'
asg18
S'Y'
sS'.thisRepN'
p2510
I21
sg20
S'Y'
sg32
g33
sS'.thisTrialN'
p2511
I1
sS'.thisN'
p2512
I316
sS'.thisIndex'
p2513
I12
sg15
(lp2514
S'd'
asg30
g31
sg16
S'Y'
sg14
I7
sg19
(lp2515
S'space'
p2516
asg94
I12
sa(dp2517
g17
(lp2518
S'd'
asg18
S'Y'
sS'.thisRepN'
p2519
I21
sg20
S'Y'
sg32
g33
sS'.thisTrialN'
p2520
I2
sS'.thisN'
p2521
I317
sS'.thisIndex'
p2522
I12
sg15
(lp2523
S'k'
asg30
g31
sg16
S'N'
sg14
I7
sg19
(lp2524
S'space'
p2525
asg94
I12
sa(dp2526
g17
(lp2527
S'd'
asg18
S'N'
sS'.thisRepN'
p2528
I21
sg20
S'N'
sg32
g33
sS'.thisTrialN'
p2529
I3
sS'.thisN'
p2530
I318
sS'.thisIndex'
p2531
I10
sg15
(lp2532
S'd'
asg30
g31
sg16
S'Y'
sg14
I7
sg19
(lp2533
S'space'
p2534
asg94
I10
sa(dp2535
g17
(lp2536
S'd'
asg18
S'N'
sS'.thisRepN'
p2537
I21
sg20
S'N'
sg32
g33
sS'.thisTrialN'
p2538
I4
sS'.thisN'
p2539
I319
sS'.thisIndex'
p2540
I11
sg15
(lp2541
S'k'
asg30
g31
sg16
S'N'
sg14
I7
sg19
(lp2542
S'space'
p2543
asg94
I11
sa(dp2544
g17
(lp2545
S'k'
asg18
S'N'
sS'.thisRepN'
p2546
I21
sg20
S'N'
sg32
g33
sS'.thisTrialN'
p2547
I5
sS'.thisN'
p2548
I320
sS'.thisIndex'
p2549
I10
sg15
(lp2550
S'd'
asg30
g31
sg16
S'N'
sg14
I7
sg19
(lp2551
S'space'
p2552
asg94
I10
sa(dp2553
g17
(lp2554
S'd'
asg18
S'Y'
sS'.thisRepN'
p2555
I21
sg20
S'N'
sg32
g33
sS'.thisTrialN'
p2556
I6
sS'.thisN'
p2557
I321
sS'.thisIndex'
p2558
I9
sg15
(lp2559
S'd'
asg30
g31
sg16
S'Y'
sg14
I7
sg19
Nsg94
I9
sa(dp2560
g17
(lp2561
S'd'
asg18
S'N'
sS'.thisRepN'
p2562
I21
sg20
S'Y'
sg32
g33
sS'.thisTrialN'
p2563
I7
sS'.thisN'
p2564
I322
sS'.thisIndex'
p2565
I0
sg15
(lp2566
S'k'
asg30
g31
sg16
S'N'
sg14
I7
sg19
Nsg94
I0
sa(dp2567
g17
(lp2568
S'k'
asg18
S'N'
sS'.thisRepN'
p2569
I21
sg20
S'Y'
sg32
g33
sS'.thisTrialN'
p2570
I8
sS'.thisN'
p2571
I323
sS'.thisIndex'
p2572
I10
sg15
(lp2573
S'd'
asg30
g31
sg16
S'N'
sg14
I7
sg19
Nsg94
I10
sa(dp2574
g17
(lp2575
S'd'
asg18
S'Y'
sS'.thisRepN'
p2576
I21
sg20
S'N'
sg32
g33
sS'.thisTrialN'
p2577
I9
sS'.thisN'
p2578
I324
sS'.thisIndex'
p2579
I2
sg15
(lp2580
S'd'
asg30
g31
sg16
S'Y'
sg14
I7
sg19
Nsg94
I2
sa(dp2581
g17
(lp2582
S'k'
asg18
S'Y'
sS'.thisRepN'
p2583
I21
sg20
S'N'
sg32
g33
sS'.thisTrialN'
p2584
I10
sS'.thisN'
p2585
I325
sS'.thisIndex'
p2586
I0
sg15
(lp2587
S'd'
asg30
g31
sg16
S'N'
sg14
I7
sg19
Nsg94
I0
sa(dp2588
g17
(lp2589
S'k'
asg18
S'N'
sS'.thisRepN'
p2590
I21
sg20
S'Y'
sg32
g33
sS'.thisTrialN'
p2591
I11
sS'.thisN'
p2592
I326
sS'.thisIndex'
p2593
I2
sg15
(lp2594
S'd'
asg30
g31
sg16
S'N'
sg14
I7
sg19
Nsg94
I2
sa(dp2595
g17
(lp2596
S'k'
asg18
S'Y'
sS'.thisRepN'
p2597
I21
sg20
S'Y'
sg32
g33
sS'.thisTrialN'
p2598
I12
sS'.thisN'
p2599
I327
sS'.thisIndex'
p2600
I0
sg15
(lp2601
S'd'
asg30
g31
sg16
S'N'
sg14
I7
sg19
(lp2602
S'space'
p2603
asg94
I0
sa(dp2604
g17
(lp2605
S'd'
asg18
S'N'
sS'.thisRepN'
p2606
I21
sg20
S'Y'
sg32
g33
sS'.thisTrialN'
p2607
I13
sS'.thisN'
p2608
I328
sS'.thisIndex'
p2609
I10
sg15
(lp2610
S'd'
asg30
g31
sg16
S'Y'
sg14
I7
sg19
Nsg94
I10
sa(dp2611
g17
(lp2612
S'd'
asg18
S'N'
sS'.thisRepN'
p2613
I21
sg20
S'Y'
sg32
g33
sS'.thisTrialN'
p2614
I14
sS'.thisN'
p2615
I329
sS'.thisIndex'
p2616
I13
sg15
(lp2617
S'd'
asg30
g31
sg16
S'Y'
sg14
I7
sg19
Nsg94
I13
sa(dp2618
g17
(lp2619
S'd'
asg18
S'N'
sS'.thisRepN'
p2620
I22
sg20
S'N'
sg32
g33
sS'.thisTrialN'
p2621
I0
sS'.thisN'
p2622
I330
sS'.thisIndex'
p2623
I1
sg15
(lp2624
S'd'
asg30
g31
sg16
S'Y'
sg14
I7
sg19
(lp2625
S'space'
p2626
asg94
I1
sa(dp2627
g17
(lp2628
S'k'
asg18
S'N'
sS'.thisRepN'
p2629
I22
sg20
S'N'
sg32
g33
sS'.thisTrialN'
p2630
I1
sS'.thisN'
p2631
I331
sS'.thisIndex'
p2632
I11
sg15
(lp2633
S'k'
asg30
g31
sg16
S'Y'
sg14
I7
sg19
(lp2634
S'space'
p2635
asg94
I11
sa(dp2636
g17
(lp2637
S'd'
asg18
S'N'
sS'.thisRepN'
p2638
I22
sg20
S'Y'
sg32
g33
sS'.thisTrialN'
p2639
I2
sS'.thisN'
p2640
I332
sS'.thisIndex'
p2641
I1
sg15
(lp2642
S'd'
asg30
g31
sg16
S'Y'
sg14
I7
sg19
Nsg94
I1
sa(dp2643
g17
(lp2644
S'k'
asg18
S'N'
sS'.thisRepN'
p2645
I22
sg20
S'N'
sg32
g33
sS'.thisTrialN'
p2646
I3
sS'.thisN'
p2647
I333
sS'.thisIndex'
p2648
I2
sg15
(lp2649
S'd'
asg30
g31
sg16
S'N'
sg14
I7
sg19
(lp2650
S'space'
p2651
asg94
I2
sa(dp2652
g17
(lp2653
S'd'
asg18
S'N'
sS'.thisRepN'
p2654
I22
sg20
S'N'
sg32
g33
sS'.thisTrialN'
p2655
I4
sS'.thisN'
p2656
I334
sS'.thisIndex'
p2657
I4
sg15
(lp2658
S'k'
asg30
g31
sg16
S'N'
sg14
I7
sg19
(lp2659
S'space'
p2660
asg94
I4
sa(dp2661
g17
(lp2662
S'd'
asg18
S'N'
sS'.thisRepN'
p2663
I22
sg20
S'N'
sg32
g33
sS'.thisTrialN'
p2664
I5
sS'.thisN'
p2665
I335
sS'.thisIndex'
p2666
I6
sg15
(lp2667
S'd'
asg30
g31
sg16
S'Y'
sg14
I7
sg19
(lp2668
S'space'
p2669
asg94
I6
sa(dp2670
g17
(lp2671
S'k'
asg18
S'N'
sS'.thisRepN'
p2672
I22
sg20
S'Y'
sg32
g33
sS'.thisTrialN'
p2673
I6
sS'.thisN'
p2674
I336
sS'.thisIndex'
p2675
I10
sg15
(lp2676
S'd'
asg30
g31
sg16
S'N'
sg14
I7
sg19
Nsg94
I10
sa(dp2677
g17
(lp2678
S'd'
asg18
S'N'
sS'.thisRepN'
p2679
I22
sg20
S'N'
sg32
g33
sS'.thisTrialN'
p2680
I7
sS'.thisN'
p2681
I337
sS'.thisIndex'
p2682
I6
sg15
(lp2683
S'd'
asg30
g31
sg16
S'Y'
sg14
I7
sg19
(lp2684
S'space'
p2685
asg94
I6
sa(dp2686
g17
(lp2687
S'd'
asg18
S'N'
sS'.thisRepN'
p2688
I22
sg20
S'Y'
sg32
g33
sS'.thisTrialN'
p2689
I8
sS'.thisN'
p2690
I338
sS'.thisIndex'
p2691
I14
sg15
(lp2692
S'k'
asg30
g31
sg16
S'N'
sg14
I7
sg19
Nsg94
I14
sa(dp2693
g17
(lp2694
S'd'
asg18
S'Y'
sS'.thisRepN'
p2695
I22
sg20
S'N'
sg32
g33
sS'.thisTrialN'
p2696
I9
sS'.thisN'
p2697
I339
sS'.thisIndex'
p2698
I3
sg15
(lp2699
S'd'
asg30
g31
sg16
S'Y'
sg14
I7
sg19
Nsg94
I3
sa(dp2700
g17
(lp2701
S'k'
asg18
S'Y'
sS'.thisRepN'
p2702
I22
sg20
S'N'
sg32
g33
sS'.thisTrialN'
p2703
I10
sS'.thisN'
p2704
I340
sS'.thisIndex'
p2705
I5
sg15
(lp2706
S'd'
asg30
g31
sg16
S'N'
sg14
I7
sg19
Nsg94
I5
sa(dp2707
g17
(lp2708
S'd'
asg18
S'N'
sS'.thisRepN'
p2709
I22
sg20
S'Y'
sg32
g33
sS'.thisTrialN'
p2710
I11
sS'.thisN'
p2711
I341
sS'.thisIndex'
p2712
I2
sg15
(lp2713
S'd'
asg30
g31
sg16
S'Y'
sg14
I7
sg19
Nsg94
I2
sa(dp2714
g17
(lp2715
S'k'
asg18
S'N'
sS'.thisRepN'
p2716
I22
sg20
S'Y'
sg32
g33
sS'.thisTrialN'
p2717
I12
sS'.thisN'
p2718
I342
sS'.thisIndex'
p2719
I1
sg15
(lp2720
S'd'
asg30
g31
sg16
S'N'
sg14
I7
sg19
Nsg94
I1
sa(dp2721
g17
(lp2722
S'k'
asg18
S'N'
sS'.thisRepN'
p2723
I22
sg20
S'N'
sg32
g33
sS'.thisTrialN'
p2724
I13
sS'.thisN'
p2725
I343
sS'.thisIndex'
p2726
I0
sg15
(lp2727
S'd'
asg30
g31
sg16
S'N'
sg14
I7
sg19
(lp2728
S'd'
asg94
I0
sa(dp2729
g17
(lp2730
S'd'
asg18
S'Y'
sS'.thisRepN'
p2731
I22
sg20
S'Y'
sg32
g33
sS'.thisTrialN'
p2732
I14
sS'.thisN'
p2733
I344
sS'.thisIndex'
p2734
I14
sg15
(lp2735
S'k'
asg30
g31
sg16
S'N'
sg14
I7
sg19
(lp2736
S'space'
p2737
asg94
I14
sa(dp2738
g17
(lp2739
S'k'
asg18
S'Y'
sS'.thisRepN'
p2740
I23
sg20
S'N'
sg32
g33
sS'.thisTrialN'
p2741
I0
sS'.thisN'
p2742
I345
sS'.thisIndex'
p2743
I9
sg15
(lp2744
S'k'
asg30
g31
sg16
S'Y'
sg14
I7
sg19
Nsg94
I9
sa(dp2745
g17
(lp2746
S'd'
asg18
S'Y'
sS'.thisRepN'
p2747
I23
sg20
S'N'
sg32
g33
sS'.thisTrialN'
p2748
I1
sS'.thisN'
p2749
I346
sS'.thisIndex'
p2750
I11
sg15
(lp2751
S'd'
asg30
g31
sg16
S'Y'
sg14
I7
sg19
Nsg94
I11
sa(dp2752
g17
(lp2753
S'k'
asg18
S'N'
sS'.thisRepN'
p2754
I23
sg20
S'Y'
sg32
g33
sS'.thisTrialN'
p2755
I2
sS'.thisN'
p2756
I347
sS'.thisIndex'
p2757
I6
sg15
(lp2758
S'd'
asg30
g31
sg16
S'N'
sg14
I7
sg19
Nsg94
I6
sa(dp2759
g17
(lp2760
S'd'
asg18
S'N'
sS'.thisRepN'
p2761
I23
sg20
S'Y'
sg32
g33
sS'.thisTrialN'
p2762
I3
sS'.thisN'
p2763
I348
sS'.thisIndex'
p2764
I1
sg15
(lp2765
S'k'
asg30
g31
sg16
S'N'
sg14
I7
sg19
Nsg94
I1
sa(dp2766
g17
(lp2767
S'k'
asg18
S'N'
sg22
I22
sS'.thisN'
p2768
I349
sg20
S'Y'
sg32
g33
sS'.thisTrialN'
p2769
I4
sS'.thisRepN'
p2770
I23
sg21
I23
sS'.thisIndex'
p2771
I3
sg23
I20
sg15
(lp2772
S'd'
asg30
g31
sg16
S'N'
sg14
I7
sg19
Nsg94
I3
sa(dp2773
g17
(lp2774
S'd'
asg94
I10
sS'.thisRepN'
p2775
I23
sg30
g31
sg32
g33
sS'.thisTrialN'
p2776
I5
sS'.thisN'
p2777
I350
sS'.thisIndex'
p2778
I10
sg15
(lp2779
S'd'
asg16
S'Y'
sg14
I8
sa(dp2780
g17
(lp2781
S'k'
asg94
I4
sS'.thisRepN'
p2782
I23
sg30
g31
sg32
g33
sS'.thisTrialN'
p2783
I6
sS'.thisN'
p2784
I351
sS'.thisIndex'
p2785
I4
sg15
(lp2786
S'd'
asg16
S'N'
sg14
I8
sa(dp2787
g17
(lp2788
S'd'
asg18
S'N'
sS'.thisRepN'
p2789
I23
sg20
S'Y'
sg32
g33
sS'.thisTrialN'
p2790
I7
sS'.thisN'
p2791
I352
sS'.thisIndex'
p2792
I0
sg15
(lp2793
S'd'
asg30
g31
sg16
S'Y'
sg14
I8
sg19
Nsg94
I0
sa(dp2794
g17
(lp2795
S'd'
asg18
S'N'
sS'.thisRepN'
p2796
I23
sg20
S'Y'
sg32
g33
sS'.thisTrialN'
p2797
I8
sS'.thisN'
p2798
I353
sS'.thisIndex'
p2799
I13
sg15
(lp2800
S'k'
asg30
g31
sg16
S'N'
sg14
I8
sg19
Nsg94
I13
sa(dp2801
g17
(lp2802
S'd'
asg18
S'Y'
sS'.thisRepN'
p2803
I23
sg20
S'N'
sg32
g33
sS'.thisTrialN'
p2804
I9
sS'.thisN'
p2805
I354
sS'.thisIndex'
p2806
I10
sg15
(lp2807
S'd'
asg30
g31
sg16
S'Y'
sg14
I8
sg19
Nsg94
I10
sa(dp2808
g17
(lp2809
S'd'
asg18
S'N'
sS'.thisRepN'
p2810
I23
sg20
S'N'
sg32
g33
sS'.thisTrialN'
p2811
I10
sS'.thisN'
p2812
I355
sS'.thisIndex'
p2813
I2
sg15
(lp2814
S'd'
asg30
g31
sg16
S'Y'
sg14
I8
sg19
(lp2815
S'space'
p2816
asg94
I2
sa(dp2817
g17
(lp2818
S'd'
asg18
S'Y'
sS'.thisRepN'
p2819
I23
sg20
S'N'
sg32
g33
sS'.thisTrialN'
p2820
I11
sS'.thisN'
p2821
I356
sS'.thisIndex'
p2822
I8
sg15
(lp2823
S'd'
asg30
g31
sg16
S'Y'
sg14
I8
sg19
Nsg94
I8
sa(dp2824
g17
(lp2825
S'd'
asg18
S'N'
sS'.thisRepN'
p2826
I23
sg20
S'Y'
sg32
g33
sS'.thisTrialN'
p2827
I12
sS'.thisN'
p2828
I357
sS'.thisIndex'
p2829
I3
sg15
(lp2830
S'd'
asg30
g31
sg16
S'Y'
sg14
I8
sg19
Nsg94
I3
sa(dp2831
g17
(lp2832
S'd'
asg18
S'Y'
sS'.thisRepN'
p2833
I23
sg20
S'N'
sg32
g33
sS'.thisTrialN'
p2834
I13
sS'.thisN'
p2835
I358
sS'.thisIndex'
p2836
I4
sg15
(lp2837
S'd'
asg30
g31
sg16
S'Y'
sg14
I8
sg19
Nsg94
I4
sa(dp2838
g17
(lp2839
S'k'
asg18
S'N'
sS'.thisRepN'
p2840
I23
sg20
S'Y'
sg32
g33
sS'.thisTrialN'
p2841
I14
sS'.thisN'
p2842
I359
sS'.thisIndex'
p2843
I6
sg15
(lp2844
S'd'
asg30
g31
sg16
S'N'
sg14
I8
sg19
Nsg94
I6
sa(dp2845
g17
(lp2846
S'd'
asg18
S'Y'
sS'.thisRepN'
p2847
I24
sg20
S'N'
sg32
g33
sS'.thisTrialN'
p2848
I0
sS'.thisN'
p2849
I360
sS'.thisIndex'
p2850
I10
sg15
(lp2851
S'd'
asg30
g31
sg16
S'Y'
sg14
I8
sg19
Nsg94
I10
sa(dp2852
g17
(lp2853
S'd'
asg18
S'N'
sS'.thisRepN'
p2854
I24
sg20
S'N'
sg32
g33
sS'.thisTrialN'
p2855
I1
sS'.thisN'
p2856
I361
sS'.thisIndex'
p2857
I8
sg15
(lp2858
S'd'
asg30
g31
sg16
S'Y'
sg14
I8
sg19
(lp2859
S'space'
p2860
asg94
I8
sa(dp2861
g17
(lp2862
S'd'
asg18
S'N'
sS'.thisRepN'
p2863
I24
sg20
S'Y'
sg32
g33
sS'.thisTrialN'
p2864
I2
sS'.thisN'
p2865
I362
sS'.thisIndex'
p2866
I1
sg15
(lp2867
S'd'
asg30
g31
sg16
S'Y'
sg14
I8
sg19
Nsg94
I1
sa(dp2868
g17
(lp2869
S'd'
asg18
S'Y'
sS'.thisRepN'
p2870
I24
sg20
S'N'
sg32
g33
sS'.thisTrialN'
p2871
I3
sS'.thisN'
p2872
I363
sS'.thisIndex'
p2873
I7
sg15
(lp2874
S'd'
asg30
g31
sg16
S'Y'
sg14
I8
sg19
Nsg94
I7
sa(dp2875
g17
(lp2876
S'k'
asg18
S'N'
sS'.thisRepN'
p2877
I24
sg20
S'Y'
sg32
g33
sS'.thisTrialN'
p2878
I4
sS'.thisN'
p2879
I364
sS'.thisIndex'
p2880
I5
sg15
(lp2881
S'd'
asg30
g31
sg16
S'N'
sg14
I8
sg19
Nsg94
I5
sa(dp2882
g17
(lp2883
S'k'
asg18
S'Y'
sS'.thisRepN'
p2884
I24
sg20
S'N'
sg32
g33
sS'.thisTrialN'
p2885
I5
sS'.thisN'
p2886
I365
sS'.thisIndex'
p2887
I5
sg15
(lp2888
S'k'
asg30
g31
sg16
S'Y'
sg14
I8
sg19
Nsg94
I5
sa(dp2889
g17
(lp2890
S'd'
asg18
S'N'
sS'.thisRepN'
p2891
I24
sg20
S'Y'
sg32
g33
sS'.thisTrialN'
p2892
I6
sS'.thisN'
p2893
I366
sS'.thisIndex'
p2894
I10
sg15
(lp2895
S'd'
asg30
g31
sg16
S'Y'
sg14
I8
sg19
Nsg94
I10
sa(dp2896
g17
(lp2897
S'k'
asg18
S'N'
sS'.thisRepN'
p2898
I24
sg20
S'Y'
sg32
g33
sS'.thisTrialN'
p2899
I7
sS'.thisN'
p2900
I367
sS'.thisIndex'
p2901
I8
sg15
(lp2902
S'k'
asg30
g31
sg16
S'Y'
sg14
I8
sg19
Nsg94
I8
sa(dp2903
g17
(lp2904
S'd'
asg18
S'N'
sS'.thisRepN'
p2905
I24
sg20
S'Y'
sg32
g33
sS'.thisTrialN'
p2906
I8
sS'.thisN'
p2907
I368
sS'.thisIndex'
p2908
I7
sg15
(lp2909
S'k'
asg30
g31
sg16
S'N'
sg14
I8
sg19
Nsg94
I7
sa(dp2910
g17
(lp2911
S'd'
asg18
S'Y'
sS'.thisRepN'
p2912
I24
sg20
S'Y'
sg32
g33
sS'.thisTrialN'
p2913
I9
sS'.thisN'
p2914
I369
sS'.thisIndex'
p2915
I0
sg15
(lp2916
S'k'
asg30
g31
sg16
S'N'
sg14
I8
sg19
(lp2917
S'space'
p2918
asg94
I0
sa(dp2919
g17
(lp2920
S'd'
asg18
S'Y'
sS'.thisRepN'
p2921
I24
sg20
S'N'
sg32
g33
sS'.thisTrialN'
p2922
I10
sS'.thisN'
p2923
I370
sS'.thisIndex'
p2924
I9
sg15
(lp2925
S'd'
asg30
g31
sg16
S'Y'
sg14
I8
sg19
Nsg94
I9
sa(dp2926
g17
(lp2927
S'd'
asg18
S'N'
sS'.thisRepN'
p2928
I24
sg20
S'N'
sg32
g33
sS'.thisTrialN'
p2929
I11
sS'.thisN'
p2930
I371
sS'.thisIndex'
p2931
I7
sg15
(lp2932
S'd'
asg30
g31
sg16
S'Y'
sg14
I8
sg19
(lp2933
S'space'
p2934
asg94
I7
sa(dp2935
g17
(lp2936
S'k'
asg18
S'N'
sS'.thisRepN'
p2937
I24
sg20
S'Y'
sg32
g33
sS'.thisTrialN'
p2938
I12
sS'.thisN'
p2939
I372
sS'.thisIndex'
p2940
I0
sg15
(lp2941
S'k'
asg30
g31
sg16
S'Y'
sg14
I8
sg19
Nsg94
I0
sa(dp2942
g17
(lp2943
S'k'
asg18
S'Y'
sS'.thisRepN'
p2944
I24
sg20
S'Y'
sg32
g33
sS'.thisTrialN'
p2945
I13
sS'.thisN'
p2946
I373
sS'.thisIndex'
p2947
I11
sg15
(lp2948
S'k'
asg30
g31
sg16
S'Y'
sg14
I8
sg19
(lp2949
S'space'
p2950
asg94
I11
sa(dp2951
g17
(lp2952
S'd'
asg18
S'N'
sS'.thisRepN'
p2953
I24
sg20
S'Y'
sg32
g33
sS'.thisTrialN'
p2954
I14
sS'.thisN'
p2955
I374
sS'.thisIndex'
p2956
I3
sg15
(lp2957
S'd'
asg30
g31
sg16
S'Y'
sg14
I8
sg19
Nsg94
I3
sa(dp2958
g17
(lp2959
S'd'
asg18
S'N'
sS'.thisRepN'
p2960
I25
sg20
S'Y'
sg32
g33
sS'.thisTrialN'
p2961
I0
sS'.thisN'
p2962
I375
sS'.thisIndex'
p2963
I14
sg15
(lp2964
S'd'
asg30
g31
sg16
S'Y'
sg14
I8
sg19
Nsg94
I14
sa(dp2965
g17
(lp2966
S'k'
asg18
S'Y'
sS'.thisRepN'
p2967
I25
sg20
S'N'
sg32
g33
sS'.thisTrialN'
p2968
I1
sS'.thisN'
p2969
I376
sS'.thisIndex'
p2970
I10
sg15
(lp2971
S'k'
asg30
g31
sg16
S'Y'
sg14
I8
sg19
Nsg94
I10
sa(dp2972
g17
(lp2973
S'k'
asg18
S'Y'
sS'.thisRepN'
p2974
I25
sg20
S'Y'
sg32
g33
sS'.thisTrialN'
p2975
I2
sS'.thisN'
p2976
I377
sS'.thisIndex'
p2977
I7
sg15
(lp2978
S'k'
asg30
g31
sg16
S'Y'
sg14
I8
sg19
(lp2979
S'space'
p2980
asg94
I7
sa(dp2981
g17
(lp2982
S'd'
asg18
S'N'
sS'.thisRepN'
p2983
I25
sg20
S'Y'
sg32
g33
sS'.thisTrialN'
p2984
I3
sS'.thisN'
p2985
I378
sS'.thisIndex'
p2986
I8
sg15
(lp2987
S'd'
asg30
g31
sg16
S'Y'
sg14
I8
sg19
Nsg94
I8
sa(dp2988
g17
(lp2989
S'd'
asg18
S'N'
sS'.thisRepN'
p2990
I25
sg20
S'N'
sg32
g33
sS'.thisTrialN'
p2991
I4
sS'.thisN'
p2992
I379
sS'.thisIndex'
p2993
I7
sg15
(lp2994
S'k'
asg30
g31
sg16
S'N'
sg14
I8
sg19
(lp2995
S'space'
p2996
asg94
I7
sa(dp2997
g17
(lp2998
S'k'
asg18
S'Y'
sS'.thisRepN'
p2999
I25
sg20
S'N'
sg32
g33
sS'.thisTrialN'
p3000
I5
sS'.thisN'
p3001
I380
sS'.thisIndex'
p3002
I10
sg15
(lp3003
S'k'
asg30
g31
sg16
S'Y'
sg14
I8
sg19
Nsg94
I10
sa(dp3004
g17
(lp3005
S'd'
asg18
S'N'
sS'.thisRepN'
p3006
I25
sg20
S'Y'
sg32
g33
sS'.thisTrialN'
p3007
I6
sS'.thisN'
p3008
I381
sS'.thisIndex'
p3009
I2
sg15
(lp3010
S'd'
asg30
g31
sg16
S'Y'
sg14
I8
sg19
Nsg94
I2
sa(dp3011
g17
(lp3012
S'd'
asg18
S'N'
sS'.thisRepN'
p3013
I25
sg20
S'Y'
sg32
g33
sS'.thisTrialN'
p3014
I7
sS'.thisN'
p3015
I382
sS'.thisIndex'
p3016
I1
sg15
(lp3017
S'd'
asg30
g31
sg16
S'Y'
sg14
I8
sg19
Nsg94
I1
sa(dp3018
g17
(lp3019
S'k'
asg18
S'N'
sS'.thisRepN'
p3020
I25
sg20
S'Y'
sg32
g33
sS'.thisTrialN'
p3021
I8
sS'.thisN'
p3022
I383
sS'.thisIndex'
p3023
I3
sg15
(lp3024
S'k'
asg30
g31
sg16
S'Y'
sg14
I8
sg19
Nsg94
I3
sa(dp3025
g17
(lp3026
S'k'
asg18
S'N'
sS'.thisRepN'
p3027
I25
sg20
S'Y'
sg32
g33
sS'.thisTrialN'
p3028
I9
sS'.thisN'
p3029
I384
sS'.thisIndex'
p3030
I1
sg15
(lp3031
S'k'
asg30
g31
sg16
S'Y'
sg14
I8
sg19
Nsg94
I1
sa(dp3032
g17
(lp3033
S'k'
asg18
S'N'
sS'.thisRepN'
p3034
I25
sg20
S'Y'
sg32
g33
sS'.thisTrialN'
p3035
I10
sS'.thisN'
p3036
I385
sS'.thisIndex'
p3037
I12
sg15
(lp3038
S'k'
asg30
g31
sg16
S'Y'
sg14
I8
sg19
Nsg94
I12
sa(dp3039
g17
(lp3040
S'd'
asg18
S'N'
sS'.thisRepN'
p3041
I25
sg20
S'Y'
sg32
g33
sS'.thisTrialN'
p3042
I11
sS'.thisN'
p3043
I386
sS'.thisIndex'
p3044
I13
sg15
(lp3045
S'd'
asg30
g31
sg16
S'Y'
sg14
I8
sg19
Nsg94
I13
sa(dp3046
g17
(lp3047
S'd'
asg18
S'Y'
sS'.thisRepN'
p3048
I25
sg20
S'N'
sg32
g33
sS'.thisTrialN'
p3049
I12
sS'.thisN'
p3050
I387
sS'.thisIndex'
p3051
I3
sg15
(lp3052
S'd'
asg30
g31
sg16
S'Y'
sg14
I8
sg19
Nsg94
I3
sa(dp3053
g17
(lp3054
S'k'
asg18
S'Y'
sS'.thisRepN'
p3055
I25
sg20
S'Y'
sg32
g33
sS'.thisTrialN'
p3056
I13
sS'.thisN'
p3057
I388
sS'.thisIndex'
p3058
I9
sg15
(lp3059
S'k'
asg30
g31
sg16
S'Y'
sg14
I8
sg19
(lp3060
S'space'
p3061
asg94
I9
sa(dp3062
g17
(lp3063
S'k'
asg18
S'N'
sS'.thisRepN'
p3064
I25
sg20
S'Y'
sg32
g33
sS'.thisTrialN'
p3065
I14
sS'.thisN'
p3066
I389
sS'.thisIndex'
p3067
I8
sg15
(lp3068
S'k'
asg30
g31
sg16
S'Y'
sg14
I8
sg19
Nsg94
I8
sa(dp3069
g17
(lp3070
S'k'
asg18
S'N'
sS'.thisRepN'
p3071
I26
sg20
S'N'
sg32
g33
sS'.thisTrialN'
p3072
I0
sS'.thisN'
p3073
I390
sS'.thisIndex'
p3074
I10
sg15
(lp3075
S'k'
asg30
g31
sg16
S'Y'
sg14
I8
sg19
(lp3076
S'space'
p3077
asg94
I10
sa(dp3078
g17
(lp3079
S'k'
asg18
S'N'
sS'.thisRepN'
p3080
I26
sg20
S'Y'
sg32
g33
sS'.thisTrialN'
p3081
I1
sS'.thisN'
p3082
I391
sS'.thisIndex'
p3083
I7
sg15
(lp3084
S'k'
asg30
g31
sg16
S'Y'
sg14
I8
sg19
Nsg94
I7
sa(dp3085
g17
(lp3086
S'd'
asg18
S'Y'
sS'.thisRepN'
p3087
I26
sg20
S'N'
sg32
g33
sS'.thisTrialN'
p3088
I2
sS'.thisN'
p3089
I392
sS'.thisIndex'
p3090
I0
sg15
(lp3091
S'd'
asg30
g31
sg16
S'Y'
sg14
I8
sg19
Nsg94
I0
sa(dp3092
g17
(lp3093
S'd'
asg18
S'Y'
sS'.thisRepN'
p3094
I26
sg20
S'Y'
sg32
g33
sS'.thisTrialN'
p3095
I3
sS'.thisN'
p3096
I393
sS'.thisIndex'
p3097
I1
sg15
(lp3098
S'd'
asg30
g31
sg16
S'Y'
sg14
I8
sg19
(lp3099
S'space'
p3100
asg94
I1
sa(dp3101
g17
(lp3102
S'd'
asg18
S'Y'
sS'.thisRepN'
p3103
I26
sg20
S'Y'
sg32
g33
sS'.thisTrialN'
p3104
I4
sS'.thisN'
p3105
I394
sS'.thisIndex'
p3106
I9
sg15
(lp3107
S'd'
asg30
g31
sg16
S'Y'
sg14
I8
sg19
(lp3108
S'space'
p3109
asg94
I9
sa(dp3110
g17
(lp3111
S'd'
asg18
S'N'
sS'.thisRepN'
p3112
I26
sg20
S'Y'
sg32
g33
sS'.thisTrialN'
p3113
I5
sS'.thisN'
p3114
I395
sS'.thisIndex'
p3115
I12
sg15
(lp3116
S'd'
asg30
g31
sg16
S'Y'
sg14
I8
sg19
Nsg94
I12
sa(dp3117
g17
(lp3118
S'd'
asg18
S'Y'
sS'.thisRepN'
p3119
I26
sg20
S'Y'
sg32
g33
sS'.thisTrialN'
p3120
I6
sS'.thisN'
p3121
I396
sS'.thisIndex'
p3122
I8
sg15
(lp3123
S'd'
asg30
g31
sg16
S'Y'
sg14
I8
sg19
(lp3124
S'space'
p3125
asg94
I8
sa(dp3126
g17
(lp3127
S'd'
asg18
S'N'
sS'.thisRepN'
p3128
I26
sg20
S'N'
sg32
g33
sS'.thisTrialN'
p3129
I7
sS'.thisN'
p3130
I397
sS'.thisIndex'
p3131
I12
sg15
(lp3132
S'd'
asg30
g31
sg16
S'Y'
sg14
I8
sg19
(lp3133
S'space'
p3134
asg94
I12
sa(dp3135
g17
(lp3136
S'd'
asg18
S'Y'
sS'.thisRepN'
p3137
I26
sg20
S'N'
sg32
g33
sS'.thisTrialN'
p3138
I8
sS'.thisN'
p3139
I398
sS'.thisIndex'
p3140
I13
sg15
(lp3141
S'd'
asg30
g31
sg16
S'Y'
sg14
I8
sg19
Nsg94
I13
sa(dp3142
g17
(lp3143
S'k'
asg18
S'N'
sg22
I30
sS'.thisN'
p3144
I399
sg20
S'Y'
sg32
g33
sS'.thisTrialN'
p3145
I9
sS'.thisRepN'
p3146
I26
sg21
I43
sS'.thisIndex'
p3147
I8
sg23
I19
sg15
(lp3148
S'k'
asg30
g31
sg16
S'Y'
sg14
I8
sg19
Nsg94
I8
sa(dp3149
g17
(lp3150
S'k'
asg94
I1
sS'.thisRepN'
p3151
I26
sg30
g31
sg32
g33
sS'.thisTrialN'
p3152
I10
sS'.thisN'
p3153
I400
sS'.thisIndex'
p3154
I1
sg15
(lp3155
S'k'
asg16
S'Y'
sg14
I9
sa(dp3156
g17
(lp3157
S'k'
asg94
I3
sS'.thisRepN'
p3158
I26
sg30
g31
sg32
g33
sS'.thisTrialN'
p3159
I11
sS'.thisN'
p3160
I401
sS'.thisIndex'
p3161
I3
sg15
(lp3162
S'k'
asg16
S'Y'
sg14
I9
sa(dp3163
g17
(lp3164
S'd'
asg18
S'N'
sS'.thisRepN'
p3165
I26
sg20
S'Y'
sg32
g33
sS'.thisTrialN'
p3166
I12
sS'.thisN'
p3167
I402
sS'.thisIndex'
p3168
I12
sg15
(lp3169
S'd'
asg30
g31
sg16
S'Y'
sg14
I9
sg19
Nsg94
I12
sa(dp3170
g17
(lp3171
S'k'
asg18
S'Y'
sS'.thisRepN'
p3172
I26
sg20
S'N'
sg32
g33
sS'.thisTrialN'
p3173
I13
sS'.thisN'
p3174
I403
sS'.thisIndex'
p3175
I14
sg15
(lp3176
S'd'
asg30
g31
sg16
S'N'
sg14
I9
sg19
Nsg94
I14
sa(dp3177
g17
(lp3178
S'k'
asg18
S'Y'
sS'.thisRepN'
p3179
I26
sg20
S'Y'
sg32
g33
sS'.thisTrialN'
p3180
I14
sS'.thisN'
p3181
I404
sS'.thisIndex'
p3182
I2
sg15
(lp3183
S'k'
asg30
g31
sg16
S'Y'
sg14
I9
sg19
(lp3184
S'space'
p3185
asg94
I2
sa(dp3186
g17
(lp3187
S'k'
asg18
S'Y'
sS'.thisRepN'
p3188
I27
sg20
S'Y'
sg32
g33
sS'.thisTrialN'
p3189
I0
sS'.thisN'
p3190
I405
sS'.thisIndex'
p3191
I0
sg15
(lp3192
S'k'
asg30
g31
sg16
S'Y'
sg14
I9
sg19
(lp3193
S'space'
p3194
asg94
I0
sa(dp3195
g17
(lp3196
S'd'
asg18
S'Y'
sS'.thisRepN'
p3197
I27
sg20
S'Y'
sg32
g33
sS'.thisTrialN'
p3198
I1
sS'.thisN'
p3199
I406
sS'.thisIndex'
p3200
I14
sg15
(lp3201
S'd'
asg30
g31
sg16
S'Y'
sg14
I9
sg19
(lp3202
S'space'
p3203
asg94
I14
sa(dp3204
g17
(lp3205
S'k'
asg18
S'N'
sS'.thisRepN'
p3206
I27
sg20
S'N'
sg32
g33
sS'.thisTrialN'
p3207
I2
sS'.thisN'
p3208
I407
sS'.thisIndex'
p3209
I12
sg15
(lp3210
S'k'
asg30
g31
sg16
S'Y'
sg14
I9
sg19
(lp3211
S'space'
p3212
asg94
I12
sa(dp3213
g17
(lp3214
S'k'
asg18
S'N'
sS'.thisRepN'
p3215
I27
sg20
S'Y'
sg32
g33
sS'.thisTrialN'
p3216
I3
sS'.thisN'
p3217
I408
sS'.thisIndex'
p3218
I6
sg15
(lp3219
S'k'
asg30
g31
sg16
S'Y'
sg14
I9
sg19
Nsg94
I6
sa(dp3220
g17
(lp3221
S'k'
asg18
S'Y'
sS'.thisRepN'
p3222
I27
sg20
S'Y'
sg32
g33
sS'.thisTrialN'
p3223
I4
sS'.thisN'
p3224
I409
sS'.thisIndex'
p3225
I7
sg15
(lp3226
S'k'
asg30
g31
sg16
S'Y'
sg14
I9
sg19
(lp3227
S'space'
p3228
asg94
I7
sa(dp3229
g17
(lp3230
S'k'
asg18
S'N'
sS'.thisRepN'
p3231
I27
sg20
S'Y'
sg32
g33
sS'.thisTrialN'
p3232
I5
sS'.thisN'
p3233
I410
sS'.thisIndex'
p3234
I4
sg15
(lp3235
S'k'
asg30
g31
sg16
S'Y'
sg14
I9
sg19
Nsg94
I4
sa(dp3236
g17
(lp3237
S'k'
asg18
S'Y'
sS'.thisRepN'
p3238
I27
sg20
S'Y'
sg32
g33
sS'.thisTrialN'
p3239
I6
sS'.thisN'
p3240
I411
sS'.thisIndex'
p3241
I11
sg15
(lp3242
S'k'
asg30
g31
sg16
S'Y'
sg14
I9
sg19
(lp3243
S'space'
p3244
asg94
I11
sa(dp3245
g17
(lp3246
S'd'
asg18
S'N'
sS'.thisRepN'
p3247
I27
sg20
S'Y'
sg32
g33
sS'.thisTrialN'
p3248
I7
sS'.thisN'
p3249
I412
sS'.thisIndex'
p3250
I14
sg15
(lp3251
S'd'
asg30
g31
sg16
S'Y'
sg14
I9
sg19
Nsg94
I14
sa(dp3252
g17
(lp3253
S'd'
asg18
S'N'
sS'.thisRepN'
p3254
I27
sg20
S'Y'
sg32
g33
sS'.thisTrialN'
p3255
I8
sS'.thisN'
p3256
I413
sS'.thisIndex'
p3257
I2
sg15
(lp3258
S'd'
asg30
g31
sg16
S'Y'
sg14
I9
sg19
Nsg94
I2
sa(dp3259
g17
(lp3260
S'd'
asg18
S'N'
sS'.thisRepN'
p3261
I27
sg20
S'Y'
sg32
g33
sS'.thisTrialN'
p3262
I9
sS'.thisN'
p3263
I414
sS'.thisIndex'
p3264
I11
sg15
(lp3265
S'd'
asg30
g31
sg16
S'Y'
sg14
I9
sg19
Nsg94
I11
sa(dp3266
g17
(lp3267
S'd'
asg18
S'N'
sS'.thisRepN'
p3268
I27
sg20
S'Y'
sg32
g33
sS'.thisTrialN'
p3269
I10
sS'.thisN'
p3270
I415
sS'.thisIndex'
p3271
I4
sg15
(lp3272
S'd'
asg30
g31
sg16
S'Y'
sg14
I9
sg19
Nsg94
I4
sa(dp3273
g17
(lp3274
S'd'
asg18
S'Y'
sS'.thisRepN'
p3275
I27
sg20
S'N'
sg32
g33
sS'.thisTrialN'
p3276
I11
sS'.thisN'
p3277
I416
sS'.thisIndex'
p3278
I9
sg15
(lp3279
S'k'
asg30
g31
sg16
S'N'
sg14
I9
sg19
Nsg94
I9
sa(dp3280
g17
(lp3281
S'd'
asg18
S'Y'
sS'.thisRepN'
p3282
I27
sg20
S'Y'
sg32
g33
sS'.thisTrialN'
p3283
I12
sS'.thisN'
p3284
I417
sS'.thisIndex'
p3285
I4
sg15
(lp3286
S'd'
asg30
g31
sg16
S'Y'
sg14
I9
sg19
(lp3287
S'space'
p3288
asg94
I4
sa(dp3289
g17
(lp3290
S'k'
asg18
S'N'
sS'.thisRepN'
p3291
I27
sg20
S'Y'
sg32
g33
sS'.thisTrialN'
p3292
I13
sS'.thisN'
p3293
I418
sS'.thisIndex'
p3294
I11
sg15
(lp3295
S'k'
asg30
g31
sg16
S'Y'
sg14
I9
sg19
Nsg94
I11
sa(dp3296
g17
(lp3297
S'd'
asg18
S'Y'
sS'.thisRepN'
p3298
I27
sg20
S'Y'
sg32
g33
sS'.thisTrialN'
p3299
I14
sS'.thisN'
p3300
I419
sS'.thisIndex'
p3301
I2
sg15
(lp3302
S'd'
asg30
g31
sg16
S'Y'
sg14
I9
sg19
(lp3303
S'space'
p3304
asg94
I2
sa(dp3305
g17
(lp3306
S'd'
asg18
S'N'
sS'.thisRepN'
p3307
I28
sg20
S'Y'
sg32
g33
sS'.thisTrialN'
p3308
I0
sS'.thisN'
p3309
I420
sS'.thisIndex'
p3310
I0
sg15
(lp3311
S'd'
asg30
g31
sg16
S'Y'
sg14
I9
sg19
Nsg94
I0
sa(dp3312
g17
(lp3313
S'k'
asg18
S'N'
sS'.thisRepN'
p3314
I28
sg20
S'Y'
sg32
g33
sS'.thisTrialN'
p3315
I1
sS'.thisN'
p3316
I421
sS'.thisIndex'
p3317
I8
sg15
(lp3318
S'k'
asg30
g31
sg16
S'Y'
sg14
I9
sg19
Nsg94
I8
sa(dp3319
g17
(lp3320
S'k'
asg18
S'N'
sS'.thisRepN'
p3321
I28
sg20
S'Y'
sg32
g33
sS'.thisTrialN'
p3322
I2
sS'.thisN'
p3323
I422
sS'.thisIndex'
p3324
I8
sg15
(lp3325
S'k'
asg30
g31
sg16
S'Y'
sg14
I9
sg19
Nsg94
I8
sa(dp3326
g17
(lp3327
S'k'
asg18
S'Y'
sS'.thisRepN'
p3328
I28
sg20
S'Y'
sg32
g33
sS'.thisTrialN'
p3329
I3
sS'.thisN'
p3330
I423
sS'.thisIndex'
p3331
I11
sg15
(lp3332
S'k'
asg30
g31
sg16
S'Y'
sg14
I9
sg19
(lp3333
S'space'
p3334
asg94
I11
sa(dp3335
g17
(lp3336
S'k'
asg18
S'N'
sS'.thisRepN'
p3337
I28
sg20
S'Y'
sg32
g33
sS'.thisTrialN'
p3338
I4
sS'.thisN'
p3339
I424
sS'.thisIndex'
p3340
I10
sg15
(lp3341
S'k'
asg30
g31
sg16
S'Y'
sg14
I9
sg19
Nsg94
I10
sa(dp3342
g17
(lp3343
S'k'
asg18
S'Y'
sS'.thisRepN'
p3344
I28
sg20
S'N'
sg32
g33
sS'.thisTrialN'
p3345
I5
sS'.thisN'
p3346
I425
sS'.thisIndex'
p3347
I4
sg15
(lp3348
S'k'
asg30
g31
sg16
S'Y'
sg14
I9
sg19
Nsg94
I4
sa(dp3349
g17
(lp3350
S'd'
asg18
S'N'
sS'.thisRepN'
p3351
I28
sg20
S'Y'
sg32
g33
sS'.thisTrialN'
p3352
I6
sS'.thisN'
p3353
I426
sS'.thisIndex'
p3354
I13
sg15
(lp3355
S'd'
asg30
g31
sg16
S'Y'
sg14
I9
sg19
Nsg94
I13
sa(dp3356
g17
(lp3357
S'k'
asg18
S'N'
sS'.thisRepN'
p3358
I28
sg20
S'N'
sg32
g33
sS'.thisTrialN'
p3359
I7
sS'.thisN'
p3360
I427
sS'.thisIndex'
p3361
I13
sg15
(lp3362
S'k'
asg30
g31
sg16
S'Y'
sg14
I9
sg19
(lp3363
S'space'
p3364
asg94
I13
sa(dp3365
g17
(lp3366
S'd'
asg18
S'Y'
sS'.thisRepN'
p3367
I28
sg20
S'Y'
sg32
g33
sS'.thisTrialN'
p3368
I8
sS'.thisN'
p3369
I428
sS'.thisIndex'
p3370
I13
sg15
(lp3371
S'd'
asg30
g31
sg16
S'Y'
sg14
I9
sg19
(lp3372
S'space'
p3373
asg94
I13
sa(dp3374
g17
(lp3375
S'd'
asg18
S'Y'
sS'.thisRepN'
p3376
I28
sg20
S'Y'
sg32
g33
sS'.thisTrialN'
p3377
I9
sS'.thisN'
p3378
I429
sS'.thisIndex'
p3379
I12
sg15
(lp3380
S'd'
asg30
g31
sg16
S'Y'
sg14
I9
sg19
(lp3381
S'space'
p3382
asg94
I12
sa(dp3383
g17
(lp3384
S'k'
asg18
S'N'
sS'.thisRepN'
p3385
I28
sg20
S'Y'
sg32
g33
sS'.thisTrialN'
p3386
I10
sS'.thisN'
p3387
I430
sS'.thisIndex'
p3388
I3
sg15
(lp3389
S'k'
asg30
g31
sg16
S'Y'
sg14
I9
sg19
Nsg94
I3
sa(dp3390
g17
(lp3391
S'd'
asg18
S'Y'
sS'.thisRepN'
p3392
I28
sg20
S'N'
sg32
g33
sS'.thisTrialN'
p3393
I11
sS'.thisN'
p3394
I431
sS'.thisIndex'
p3395
I0
sg15
(lp3396
S'd'
asg30
g31
sg16
S'Y'
sg14
I9
sg19
Nsg94
I0
sa(dp3397
g17
(lp3398
S'k'
asg18
S'N'
sS'.thisRepN'
p3399
I28
sg20
S'Y'
sg32
g33
sS'.thisTrialN'
p3400
I12
sS'.thisN'
p3401
I432
sS'.thisIndex'
p3402
I1
sg15
(lp3403
S'k'
asg30
g31
sg16
S'Y'
sg14
I9
sg19
Nsg94
I1
sa(dp3404
g17
(lp3405
S'k'
asg18
S'Y'
sS'.thisRepN'
p3406
I28
sg20
S'N'
sg32
g33
sS'.thisTrialN'
p3407
I13
sS'.thisN'
p3408
I433
sS'.thisIndex'
p3409
I7
sg15
(lp3410
S'k'
asg30
g31
sg16
S'Y'
sg14
I9
sg19
Nsg94
I7
sa(dp3411
g17
(lp3412
S'k'
asg18
S'Y'
sS'.thisRepN'
p3413
I28
sg20
S'Y'
sg32
g33
sS'.thisTrialN'
p3414
I14
sS'.thisN'
p3415
I434
sS'.thisIndex'
p3416
I9
sg15
(lp3417
S'k'
asg30
g31
sg16
S'Y'
sg14
I9
sg19
(lp3418
S'space'
p3419
asg94
I9
sa(dp3420
g17
(lp3421
S'k'
asg18
S'N'
sS'.thisRepN'
p3422
I29
sg20
S'Y'
sg32
g33
sS'.thisTrialN'
p3423
I0
sS'.thisN'
p3424
I435
sS'.thisIndex'
p3425
I9
sg15
(lp3426
S'k'
asg30
g31
sg16
S'Y'
sg14
I9
sg19
Nsg94
I9
sa(dp3427
g17
(lp3428
S'k'
asg18
S'Y'
sS'.thisRepN'
p3429
I29
sg20
S'Y'
sg32
g33
sS'.thisTrialN'
p3430
I1
sS'.thisN'
p3431
I436
sS'.thisIndex'
p3432
I3
sg15
(lp3433
S'k'
asg30
g31
sg16
S'Y'
sg14
I9
sg19
(lp3434
S'space'
p3435
asg94
I3
sa(dp3436
g17
(lp3437
S'k'
asg18
S'Y'
sS'.thisRepN'
p3438
I29
sg20
S'Y'
sg32
g33
sS'.thisTrialN'
p3439
I2
sS'.thisN'
p3440
I437
sS'.thisIndex'
p3441
I10
sg15
(lp3442
S'k'
asg30
g31
sg16
S'Y'
sg14
I9
sg19
(lp3443
S'space'
p3444
asg94
I10
sa(dp3445
g17
(lp3446
S'k'
asg18
S'Y'
sS'.thisRepN'
p3447
I29
sg20
S'Y'
sg32
g33
sS'.thisTrialN'
p3448
I3
sS'.thisN'
p3449
I438
sS'.thisIndex'
p3450
I9
sg15
(lp3451
S'k'
asg30
g31
sg16
S'Y'
sg14
I9
sg19
(lp3452
S'space'
p3453
asg94
I9
sa(dp3454
g17
(lp3455
S'd'
asg18
S'N'
sS'.thisRepN'
p3456
I29
sg20
S'Y'
sg32
g33
sS'.thisTrialN'
p3457
I4
sS'.thisN'
p3458
I439
sS'.thisIndex'
p3459
I11
sg15
(lp3460
S'd'
asg30
g31
sg16
S'Y'
sg14
I9
sg19
Nsg94
I11
sa(dp3461
g17
(lp3462
S'd'
asg18
S'N'
sS'.thisRepN'
p3463
I29
sg20
S'Y'
sg32
g33
sS'.thisTrialN'
p3464
I5
sS'.thisN'
p3465
I440
sS'.thisIndex'
p3466
I12
sg15
(lp3467
S'd'
asg30
g31
sg16
S'Y'
sg14
I9
sg19
Nsg94
I12
sa(dp3468
g17
(lp3469
S'k'
asg18
S'Y'
sS'.thisRepN'
p3470
I29
sg20
S'Y'
sg32
g33
sS'.thisTrialN'
p3471
I6
sS'.thisN'
p3472
I441
sS'.thisIndex'
p3473
I6
sg15
(lp3474
S'k'
asg30
g31
sg16
S'Y'
sg14
I9
sg19
(lp3475
S'space'
p3476
asg94
I6
sa(dp3477
g17
(lp3478
S'k'
asg18
S'Y'
sS'.thisRepN'
p3479
I29
sg20
S'Y'
sg32
g33
sS'.thisTrialN'
p3480
I7
sS'.thisN'
p3481
I442
sS'.thisIndex'
p3482
I9
sg15
(lp3483
S'k'
asg30
g31
sg16
S'Y'
sg14
I9
sg19
(lp3484
S'space'
p3485
asg94
I9
sa(dp3486
g17
(lp3487
S'k'
asg18
S'N'
sS'.thisRepN'
p3488
I29
sg20
S'Y'
sg32
g33
sS'.thisTrialN'
p3489
I8
sS'.thisN'
p3490
I443
sS'.thisIndex'
p3491
I0
sg15
(lp3492
S'k'
asg30
g31
sg16
S'Y'
sg14
I9
sg19
Nsg94
I0
sa(dp3493
g17
(lp3494
S'k'
asg18
S'N'
sS'.thisRepN'
p3495
I29
sg20
S'Y'
sg32
g33
sS'.thisTrialN'
p3496
I9
sS'.thisN'
p3497
I444
sS'.thisIndex'
p3498
I6
sg15
(lp3499
S'k'
asg30
g31
sg16
S'Y'
sg14
I9
sg19
Nsg94
I6
sa(dp3500
g17
(lp3501
S'k'
asg18
S'Y'
sS'.thisRepN'
p3502
I29
sg20
S'N'
sg32
g33
sS'.thisTrialN'
p3503
I10
sS'.thisN'
p3504
I445
sS'.thisIndex'
p3505
I14
sg15
(lp3506
S'k'
asg30
g31
sg16
S'Y'
sg14
I9
sg19
Nsg94
I14
sa(dp3507
g17
(lp3508
S'k'
asg18
S'Y'
sS'.thisRepN'
p3509
I29
sg20
S'Y'
sg32
g33
sS'.thisTrialN'
p3510
I11
sS'.thisN'
p3511
I446
sS'.thisIndex'
p3512
I11
sg15
(lp3513
S'k'
asg30
g31
sg16
S'Y'
sg14
I9
sg19
(lp3514
S'space'
p3515
asg94
I11
sa(dp3516
g17
(lp3517
S'k'
asg18
S'N'
sS'.thisRepN'
p3518
I29
sg20
S'Y'
sg32
g33
sS'.thisTrialN'
p3519
I12
sS'.thisN'
p3520
I447
sS'.thisIndex'
p3521
I4
sg15
(lp3522
S'k'
asg30
g31
sg16
S'Y'
sg14
I9
sg19
Nsg94
I4
sa(dp3523
g17
(lp3524
S'k'
asg18
S'Y'
sS'.thisRepN'
p3525
I29
sg20
S'Y'
sg32
g33
sS'.thisTrialN'
p3526
I13
sS'.thisN'
p3527
I448
sS'.thisIndex'
p3528
I5
sg15
(lp3529
S'k'
asg30
g31
sg16
S'Y'
sg14
I9
sg19
(lp3530
S'space'
p3531
asg94
I5
sa(dp3532
g17
(lp3533
S'k'
asg18
S'Y'
sg22
I40
sS'.thisN'
p3534
I449
sg20
S'Y'
sg32
g33
sS'.thisTrialN'
p3535
I14
sS'.thisRepN'
p3536
I29
sg21
I48
sS'.thisIndex'
p3537
I11
sg23
I25
sg15
(lp3538
S'k'
asg30
g31
sg16
S'Y'
sg14
I9
sg19
(lp3539
S'space'
p3540
asg94
I11
sa(dp3541
g17
(lp3542
S'k'
asg94
I5
sS'.thisRepN'
p3543
I30
sg30
g31
sg32
g33
sS'.thisTrialN'
p3544
I0
sS'.thisN'
p3545
I450
sS'.thisIndex'
p3546
I5
sg15
(lp3547
S'k'
asg16
S'Y'
sg14
I10
sa(dp3548
g17
(lp3549
S'd'
asg94
I4
sS'.thisRepN'
p3550
I30
sg30
g31
sg32
g33
sS'.thisTrialN'
p3551
I1
sS'.thisN'
p3552
I451
sS'.thisIndex'
p3553
I4
sg15
(lp3554
S'd'
asg16
S'Y'
sg14
I10
sa(dp3555
g17
(lp3556
S'd'
asg18
S'Y'
sS'.thisRepN'
p3557
I30
sg20
S'Y'
sg32
g33
sS'.thisTrialN'
p3558
I2
sS'.thisN'
p3559
I452
sS'.thisIndex'
p3560
I12
sg15
(lp3561
S'd'
asg30
g31
sg16
S'Y'
sg14
I10
sg19
(lp3562
S'space'
p3563
asg94
I12
sa(dp3564
g17
(lp3565
S'k'
asg18
S'N'
sS'.thisRepN'
p3566
I30
sg20
S'Y'
sg32
g33
sS'.thisTrialN'
p3567
I3
sS'.thisN'
p3568
I453
sS'.thisIndex'
p3569
I1
sg15
(lp3570
S'k'
asg30
g31
sg16
S'Y'
sg14
I10
sg19
Nsg94
I1
sa(dp3571
g17
(lp3572
S'k'
asg18
S'N'
sS'.thisRepN'
p3573
I30
sg20
S'Y'
sg32
g33
sS'.thisTrialN'
p3574
I4
sS'.thisN'
p3575
I454
sS'.thisIndex'
p3576
I2
sg15
(lp3577
S'k'
asg30
g31
sg16
S'Y'
sg14
I10
sg19
Nsg94
I2
sa(dp3578
g17
(lp3579
S'k'
asg18
S'N'
sS'.thisRepN'
p3580
I30
sg20
S'Y'
sg32
g33
sS'.thisTrialN'
p3581
I5
sS'.thisN'
p3582
I455
sS'.thisIndex'
p3583
I8
sg15
(lp3584
S'k'
asg30
g31
sg16
S'Y'
sg14
I10
sg19
Nsg94
I8
sa(dp3585
g17
(lp3586
S'k'
asg18
S'Y'
sS'.thisRepN'
p3587
I30
sg20
S'N'
sg32
g33
sS'.thisTrialN'
p3588
I6
sS'.thisN'
p3589
I456
sS'.thisIndex'
p3590
I8
sg15
(lp3591
S'k'
asg30
g31
sg16
S'Y'
sg14
I10
sg19
Nsg94
I8
sa(dp3592
g17
(lp3593
S'd'
asg18
S'N'
sS'.thisRepN'
p3594
I30
sg20
S'Y'
sg32
g33
sS'.thisTrialN'
p3595
I7
sS'.thisN'
p3596
I457
sS'.thisIndex'
p3597
I3
sg15
(lp3598
S'd'
asg30
g31
sg16
S'Y'
sg14
I10
sg19
Nsg94
I3
sa(dp3599
g17
(lp3600
S'd'
asg18
S'N'
sS'.thisRepN'
p3601
I30
sg20
S'N'
sg32
g33
sS'.thisTrialN'
p3602
I8
sS'.thisN'
p3603
I458
sS'.thisIndex'
p3604
I8
sg15
(lp3605
S'd'
asg30
g31
sg16
S'Y'
sg14
I10
sg19
(lp3606
S'space'
p3607
asg94
I8
sa(dp3608
g17
(lp3609
S'd'
asg18
S'N'
sS'.thisRepN'
p3610
I30
sg20
S'Y'
sg32
g33
sS'.thisTrialN'
p3611
I9
sS'.thisN'
p3612
I459
sS'.thisIndex'
p3613
I8
sg15
(lp3614
S'd'
asg30
g31
sg16
S'Y'
sg14
I10
sg19
Nsg94
I8
sa(dp3615
g17
(lp3616
S'k'
asg18
S'N'
sS'.thisRepN'
p3617
I30
sg20
S'Y'
sg32
g33
sS'.thisTrialN'
p3618
I10
sS'.thisN'
p3619
I460
sS'.thisIndex'
p3620
I4
sg15
(lp3621
S'k'
asg30
g31
sg16
S'Y'
sg14
I10
sg19
Nsg94
I4
sa(dp3622
g17
(lp3623
S'k'
asg18
S'N'
sS'.thisRepN'
p3624
I30
sg20
S'Y'
sg32
g33
sS'.thisTrialN'
p3625
I11
sS'.thisN'
p3626
I461
sS'.thisIndex'
p3627
I5
sg15
(lp3628
S'k'
asg30
g31
sg16
S'Y'
sg14
I10
sg19
Nsg94
I5
sa(dp3629
g17
(lp3630
S'd'
asg18
S'Y'
sS'.thisRepN'
p3631
I30
sg20
S'Y'
sg32
g33
sS'.thisTrialN'
p3632
I12
sS'.thisN'
p3633
I462
sS'.thisIndex'
p3634
I4
sg15
(lp3635
S'd'
asg30
g31
sg16
S'Y'
sg14
I10
sg19
(lp3636
S'space'
p3637
asg94
I4
sa(dp3638
g17
(lp3639
S'k'
asg18
S'Y'
sS'.thisRepN'
p3640
I30
sg20
S'N'
sg32
g33
sS'.thisTrialN'
p3641
I13
sS'.thisN'
p3642
I463
sS'.thisIndex'
p3643
I8
sg15
(lp3644
S'k'
asg30
g31
sg16
S'Y'
sg14
I10
sg19
Nsg94
I8
sa(dp3645
g17
(lp3646
S'd'
asg18
S'N'
sS'.thisRepN'
p3647
I30
sg20
S'Y'
sg32
g33
sS'.thisTrialN'
p3648
I14
sS'.thisN'
p3649
I464
sS'.thisIndex'
p3650
I2
sg15
(lp3651
S'd'
asg30
g31
sg16
S'Y'
sg14
I10
sg19
Nsg94
I2
sa(dp3652
g17
(lp3653
S'k'
asg18
S'N'
sS'.thisRepN'
p3654
I31
sg20
S'Y'
sg32
g33
sS'.thisTrialN'
p3655
I0
sS'.thisN'
p3656
I465
sS'.thisIndex'
p3657
I10
sg15
(lp3658
S'k'
asg30
g31
sg16
S'Y'
sg14
I10
sg19
Nsg94
I10
sa(dp3659
g17
(lp3660
S'k'
asg18
S'Y'
sS'.thisRepN'
p3661
I31
sg20
S'Y'
sg32
g33
sS'.thisTrialN'
p3662
I1
sS'.thisN'
p3663
I466
sS'.thisIndex'
p3664
I14
sg15
(lp3665
S'k'
asg30
g31
sg16
S'Y'
sg14
I10
sg19
(lp3666
S'space'
p3667
asg94
I14
sa(dp3668
g17
(lp3669
S'k'
asg18
S'N'
sS'.thisRepN'
p3670
I31
sg20
S'Y'
sg32
g33
sS'.thisTrialN'
p3671
I2
sS'.thisN'
p3672
I467
sS'.thisIndex'
p3673
I12
sg15
(lp3674
S'k'
asg30
g31
sg16
S'Y'
sg14
I10
sg19
Nsg94
I12
sa(dp3675
g17
(lp3676
S'k'
asg18
S'Y'
sS'.thisRepN'
p3677
I31
sg20
S'Y'
sg32
g33
sS'.thisTrialN'
p3678
I3
sS'.thisN'
p3679
I468
sS'.thisIndex'
p3680
I1
sg15
(lp3681
S'd'
asg30
g31
sg16
S'N'
sg14
I10
sg19
(lp3682
S'space'
p3683
asg94
I1
sa(dp3684
g17
(lp3685
S'd'
asg18
S'N'
sS'.thisRepN'
p3686
I31
sg20
S'Y'
sg32
g33
sS'.thisTrialN'
p3687
I4
sS'.thisN'
p3688
I469
sS'.thisIndex'
p3689
I7
sg15
(lp3690
S'd'
asg30
g31
sg16
S'Y'
sg14
I10
sg19
Nsg94
I7
sa(dp3691
g17
(lp3692
S'd'
asg18
S'Y'
sS'.thisRepN'
p3693
I31
sg20
S'Y'
sg32
g33
sS'.thisTrialN'
p3694
I5
sS'.thisN'
p3695
I470
sS'.thisIndex'
p3696
I10
sg15
(lp3697
S'd'
asg30
g31
sg16
S'Y'
sg14
I10
sg19
(lp3698
S'space'
p3699
asg94
I10
sa(dp3700
g17
(lp3701
S'k'
asg18
S'Y'
sS'.thisRepN'
p3702
I31
sg20
S'Y'
sg32
g33
sS'.thisTrialN'
p3703
I6
sS'.thisN'
p3704
I471
sS'.thisIndex'
p3705
I13
sg15
(lp3706
S'k'
asg30
g31
sg16
S'Y'
sg14
I10
sg19
(lp3707
S'space'
p3708
asg94
I13
sa(dp3709
g17
(lp3710
S'k'
asg18
S'N'
sS'.thisRepN'
p3711
I31
sg20
S'Y'
sg32
g33
sS'.thisTrialN'
p3712
I7
sS'.thisN'
p3713
I472
sS'.thisIndex'
p3714
I4
sg15
(lp3715
S'k'
asg30
g31
sg16
S'Y'
sg14
I10
sg19
Nsg94
I4
sa(dp3716
g17
(lp3717
S'k'
asg18
S'Y'
sS'.thisRepN'
p3718
I31
sg20
S'Y'
sg32
g33
sS'.thisTrialN'
p3719
I8
sS'.thisN'
p3720
I473
sS'.thisIndex'
p3721
I11
sg15
(lp3722
S'd'
asg30
g31
sg16
S'N'
sg14
I10
sg19
(lp3723
S'space'
p3724
asg94
I11
sa(dp3725
g17
(lp3726
S'k'
asg18
S'N'
sS'.thisRepN'
p3727
I31
sg20
S'Y'
sg32
g33
sS'.thisTrialN'
p3728
I9
sS'.thisN'
p3729
I474
sS'.thisIndex'
p3730
I9
sg15
(lp3731
S'k'
asg30
g31
sg16
S'Y'
sg14
I10
sg19
Nsg94
I9
sa(dp3732
g17
(lp3733
S'k'
asg18
S'Y'
sS'.thisRepN'
p3734
I31
sg20
S'Y'
sg32
g33
sS'.thisTrialN'
p3735
I10
sS'.thisN'
p3736
I475
sS'.thisIndex'
p3737
I12
sg15
(lp3738
S'k'
asg30
g31
sg16
S'Y'
sg14
I10
sg19
(lp3739
S'space'
p3740
asg94
I12
sa(dp3741
g17
(lp3742
S'd'
asg18
S'N'
sS'.thisRepN'
p3743
I31
sg20
S'Y'
sg32
g33
sS'.thisTrialN'
p3744
I11
sS'.thisN'
p3745
I476
sS'.thisIndex'
p3746
I14
sg15
(lp3747
S'd'
asg30
g31
sg16
S'Y'
sg14
I10
sg19
Nsg94
I14
sa(dp3748
g17
(lp3749
S'd'
asg18
S'N'
sS'.thisRepN'
p3750
I31
sg20
S'Y'
sg32
g33
sS'.thisTrialN'
p3751
I12
sS'.thisN'
p3752
I477
sS'.thisIndex'
p3753
I12
sg15
(lp3754
S'd'
asg30
g31
sg16
S'Y'
sg14
I10
sg19
Nsg94
I12
sa(dp3755
g17
(lp3756
S'k'
asg18
S'Y'
sS'.thisRepN'
p3757
I31
sg20
S'Y'
sg32
g33
sS'.thisTrialN'
p3758
I13
sS'.thisN'
p3759
I478
sS'.thisIndex'
p3760
I0
sg15
(lp3761
S'k'
asg30
g31
sg16
S'Y'
sg14
I10
sg19
(lp3762
S'space'
p3763
asg94
I0
sa(dp3764
g17
(lp3765
S'd'
asg18
S'N'
sS'.thisRepN'
p3766
I31
sg20
S'Y'
sg32
g33
sS'.thisTrialN'
p3767
I14
sS'.thisN'
p3768
I479
sS'.thisIndex'
p3769
I9
sg15
(lp3770
S'd'
asg30
g31
sg16
S'Y'
sg14
I10
sg19
Nsg94
I9
sa(dp3771
g17
(lp3772
S'k'
asg18
S'Y'
sS'.thisRepN'
p3773
I32
sg20
S'Y'
sg32
g33
sS'.thisTrialN'
p3774
I0
sS'.thisN'
p3775
I480
sS'.thisIndex'
p3776
I0
sg15
(lp3777
S'k'
asg30
g31
sg16
S'Y'
sg14
I10
sg19
(lp3778
S'space'
p3779
asg94
I0
sa(dp3780
g17
(lp3781
S'd'
asg18
S'Y'
sS'.thisRepN'
p3782
I32
sg20
S'Y'
sg32
g33
sS'.thisTrialN'
p3783
I1
sS'.thisN'
p3784
I481
sS'.thisIndex'
p3785
I14
sg15
(lp3786
S'd'
asg30
g31
sg16
S'Y'
sg14
I10
sg19
(lp3787
S'space'
p3788
asg94
I14
sa(dp3789
g17
(lp3790
S'k'
asg18
S'N'
sS'.thisRepN'
p3791
I32
sg20
S'Y'
sg32
g33
sS'.thisTrialN'
p3792
I2
sS'.thisN'
p3793
I482
sS'.thisIndex'
p3794
I3
sg15
(lp3795
S'k'
asg30
g31
sg16
S'Y'
sg14
I10
sg19
Nsg94
I3
sa(dp3796
g17
(lp3797
S'd'
asg18
S'Y'
sS'.thisRepN'
p3798
I32
sg20
S'Y'
sg32
g33
sS'.thisTrialN'
p3799
I3
sS'.thisN'
p3800
I483
sS'.thisIndex'
p3801
I7
sg15
(lp3802
S'd'
asg30
g31
sg16
S'Y'
sg14
I10
sg19
(lp3803
S'space'
p3804
asg94
I7
sa(dp3805
g17
(lp3806
S'k'
asg18
S'Y'
sS'.thisRepN'
p3807
I32
sg20
S'Y'
sg32
g33
sS'.thisTrialN'
p3808
I4
sS'.thisN'
p3809
I484
sS'.thisIndex'
p3810
I0
sg15
(lp3811
S'k'
asg30
g31
sg16
S'Y'
sg14
I10
sg19
(lp3812
S'space'
p3813
asg94
I0
sa(dp3814
g17
(lp3815
S'k'
asg18
S'N'
sS'.thisRepN'
p3816
I32
sg20
S'Y'
sg32
g33
sS'.thisTrialN'
p3817
I5
sS'.thisN'
p3818
I485
sS'.thisIndex'
p3819
I2
sg15
(lp3820
S'k'
asg30
g31
sg16
S'Y'
sg14
I10
sg19
Nsg94
I2
sa(dp3821
g17
(lp3822
S'k'
asg18
S'Y'
sS'.thisRepN'
p3823
I32
sg20
S'Y'
sg32
g33
sS'.thisTrialN'
p3824
I6
sS'.thisN'
p3825
I486
sS'.thisIndex'
p3826
I12
sg15
(lp3827
S'k'
asg30
g31
sg16
S'Y'
sg14
I10
sg19
(lp3828
S'space'
p3829
asg94
I12
sa(dp3830
g17
(lp3831
S'd'
asg18
S'Y'
sS'.thisRepN'
p3832
I32
sg20
S'Y'
sg32
g33
sS'.thisTrialN'
p3833
I7
sS'.thisN'
p3834
I487
sS'.thisIndex'
p3835
I8
sg15
(lp3836
S'd'
asg30
g31
sg16
S'Y'
sg14
I10
sg19
(lp3837
S'space'
p3838
asg94
I8
sa(dp3839
g17
(lp3840
S'd'
asg18
S'Y'
sS'.thisRepN'
p3841
I32
sg20
S'Y'
sg32
g33
sS'.thisTrialN'
p3842
I8
sS'.thisN'
p3843
I488
sS'.thisIndex'
p3844
I4
sg15
(lp3845
S'd'
asg30
g31
sg16
S'Y'
sg14
I10
sg19
(lp3846
S'space'
p3847
asg94
I4
sa(dp3848
g17
(lp3849
S'd'
asg18
S'N'
sS'.thisRepN'
p3850
I32
sg20
S'Y'
sg32
g33
sS'.thisTrialN'
p3851
I9
sS'.thisN'
p3852
I489
sS'.thisIndex'
p3853
I5
sg15
(lp3854
S'd'
asg30
g31
sg16
S'Y'
sg14
I10
sg19
Nsg94
I5
sa(dp3855
g17
(lp3856
S'd'
asg18
S'N'
sS'.thisRepN'
p3857
I32
sg20
S'Y'
sg32
g33
sS'.thisTrialN'
p3858
I10
sS'.thisN'
p3859
I490
sS'.thisIndex'
p3860
I3
sg15
(lp3861
S'd'
asg30
g31
sg16
S'Y'
sg14
I10
sg19
Nsg94
I3
sa(dp3862
g17
(lp3863
S'k'
asg18
S'N'
sS'.thisRepN'
p3864
I32
sg20
S'Y'
sg32
g33
sS'.thisTrialN'
p3865
I11
sS'.thisN'
p3866
I491
sS'.thisIndex'
p3867
I13
sg15
(lp3868
S'k'
asg30
g31
sg16
S'Y'
sg14
I10
sg19
Nsg94
I13
sa(dp3869
g17
(lp3870
S'k'
asg18
S'Y'
sS'.thisRepN'
p3871
I32
sg20
S'Y'
sg32
g33
sS'.thisTrialN'
p3872
I12
sS'.thisN'
p3873
I492
sS'.thisIndex'
p3874
I12
sg15
(lp3875
S'k'
asg30
g31
sg16
S'Y'
sg14
I10
sg19
(lp3876
S'space'
p3877
asg94
I12
sa(dp3878
g17
(lp3879
S'k'
asg18
S'Y'
sS'.thisRepN'
p3880
I32
sg20
S'Y'
sg32
g33
sS'.thisTrialN'
p3881
I13
sS'.thisN'
p3882
I493
sS'.thisIndex'
p3883
I1
sg15
(lp3884
S'k'
asg30
g31
sg16
S'Y'
sg14
I10
sg19
(lp3885
S'space'
p3886
asg94
I1
sa(dp3887
g17
(lp3888
S'd'
asg18
S'N'
sS'.thisRepN'
p3889
I32
sg20
S'Y'
sg32
g33
sS'.thisTrialN'
p3890
I14
sS'.thisN'
p3891
I494
sS'.thisIndex'
p3892
I14
sg15
(lp3893
S'd'
asg30
g31
sg16
S'Y'
sg14
I10
sg19
Nsg94
I14
sa(dp3894
g17
(lp3895
S'k'
asg18
S'Y'
sS'.thisRepN'
p3896
I33
sg20
S'Y'
sg32
g33
sS'.thisTrialN'
p3897
I0
sS'.thisN'
p3898
I495
sS'.thisIndex'
p3899
I4
sg15
(lp3900
S'k'
asg30
g31
sg16
S'Y'
sg14
I10
sg19
(lp3901
S'space'
p3902
asg94
I4
sa(dp3903
g17
(lp3904
S'k'
asg18
S'N'
sS'.thisRepN'
p3905
I33
sg20
S'Y'
sg32
g33
sS'.thisTrialN'
p3906
I1
sS'.thisN'
p3907
I496
sS'.thisIndex'
p3908
I14
sg15
(lp3909
S'k'
asg30
g31
sg16
S'Y'
sg14
I10
sg19
Nsg94
I14
sa(dp3910
g17
(lp3911
S'd'
asg18
S'Y'
sS'.thisRepN'
p3912
I33
sg20
S'Y'
sg32
g33
sS'.thisTrialN'
p3913
I2
sS'.thisN'
p3914
I497
sS'.thisIndex'
p3915
I8
sg15
(lp3916
S'd'
asg30
g31
sg16
S'Y'
sg14
I10
sg19
(lp3917
S'space'
p3918
asg94
I8
sa(dp3919
g17
(lp3920
S'k'
asg18
S'N'
sS'.thisRepN'
p3921
I33
sg20
S'Y'
sg32
g33
sS'.thisTrialN'
p3922
I3
sS'.thisN'
p3923
I498
sS'.thisIndex'
p3924
I3
sg15
(lp3925
S'k'
asg30
g31
sg16
S'Y'
sg14
I10
sg19
Nsg94
I3
sa(dp3926
g17
(lp3927
S'k'
asg18
S'Y'
sg22
I45
sS'.thisN'
p3928
I499
sg20
S'Y'
sg32
g33
sS'.thisTrialN'
p3929
I4
sS'.thisRepN'
p3930
I33
sg21
I48
sS'.thisIndex'
p3931
I3
sg23
I23
sg15
(lp3932
S'k'
asg30
g31
sg16
S'Y'
sg14
I10
sg19
(lp3933
S'space'
p3934
asg94
I3
sa(dp3935
g17
(lp3936
S'k'
asS'.thisIndex'
p3937
I5
sS'.thisRepN'
p3938
I33
sg26
S'Y'
sg30
g31
sg32
g33
sS'.thisTrialN'
p3939
I5
sS'.thisN'
p3940
I500
sg25
S'Y'
sg24
S'Y'
sg15
(lp3941
S'd'
asg16
S'Y'
sg14
I11
sg94
I5
sa(dp3942
S'.thisIndex'
p3943
I7
sS'.thisRepN'
p3944
I33
sg26
S'Y'
sg30
g31
sg32
g33
sS'.thisTrialN'
p3945
I6
sS'.thisN'
p3946
I501
sg25
S'Y'
sg15
Nsg16
g99
sg14
I11
sg94
I7
sa(dp3947
g17
(lp3948
S'd'
asg18
S'N'
sS'.thisRepN'
p3949
I33
sg26
S'Y'
sg20
S'Y'
sg32
g33
sS'.thisTrialN'
p3950
I7
sS'.thisN'
p3951
I502
sg25
S'Y'
sg15
(lp3952
S'k'
asg30
g31
sg16
S'Y'
sg14
I11
sg19
Nsg94
I5
sS'.thisIndex'
p3953
I5
sa(dp3954
g17
(lp3955
S'k'
asg18
S'N'
sS'.thisRepN'
p3956
I33
sg26
S'Y'
sg20
S'Y'
sg32
g33
sS'.thisTrialN'
p3957
I8
sS'.thisN'
p3958
I503
sg25
S'Y'
sg15
(lp3959
S'd'
asg30
g31
sg16
S'Y'
sg14
I11
sg19
Nsg94
I5
sS'.thisIndex'
p3960
I5
sa(dp3961
g17
(lp3962
S'd'
asg18
S'N'
sS'.thisRepN'
p3963
I33
sg26
S'Y'
sg20
S'Y'
sg32
g33
sS'.thisTrialN'
p3964
I9
sS'.thisN'
p3965
I504
sg25
S'Y'
sg15
(lp3966
S'k'
asg30
g31
sg16
S'Y'
sg14
I11
sg19
Nsg94
I1
sS'.thisIndex'
p3967
I1
sa(dp3968
g17
(lp3969
S'd'
asg18
S'N'
sS'.thisRepN'
p3970
I33
sg26
S'Y'
sg20
S'Y'
sg32
g33
sS'.thisTrialN'
p3971
I10
sS'.thisN'
p3972
I505
sg25
S'Y'
sg15
(lp3973
S'k'
asg30
g31
sg16
S'Y'
sg14
I11
sg19
Nsg94
I12
sS'.thisIndex'
p3974
I12
sa(dp3975
g17
(lp3976
S'd'
asg18
S'Y'
sS'.thisRepN'
p3977
I33
sg26
S'Y'
sg20
S'Y'
sg32
g33
sS'.thisTrialN'
p3978
I11
sS'.thisN'
p3979
I506
sg25
S'Y'
sg15
(lp3980
S'k'
asg30
g31
sg16
S'Y'
sg14
I11
sg19
(lp3981
S'space'
p3982
asg94
I11
sS'.thisIndex'
p3983
I11
sa(dp3984
g17
(lp3985
S'k'
asg18
S'N'
sS'.thisRepN'
p3986
I33
sg26
S'Y'
sg20
S'Y'
sg32
g33
sS'.thisTrialN'
p3987
I12
sS'.thisN'
p3988
I507
sg25
S'Y'
sg15
(lp3989
S'k'
asg30
g31
sg16
S'N'
sg14
I11
sg19
Nsg94
I5
sS'.thisIndex'
p3990
I5
sa(dp3991
g17
(lp3992
S'd'
asg18
S'Y'
sS'.thisRepN'
p3993
I33
sg26
S'Y'
sg20
S'Y'
sg32
g33
sS'.thisTrialN'
p3994
I13
sS'.thisN'
p3995
I508
sg25
S'Y'
sg15
(lp3996
S'k'
asg30
g31
sg16
S'Y'
sg14
I11
sg19
(lp3997
S'space'
p3998
asg94
I4
sS'.thisIndex'
p3999
I4
sa(dp4000
g17
(lp4001
S'd'
asg18
S'N'
sS'.thisRepN'
p4002
I33
sg26
S'Y'
sg20
S'Y'
sg32
g33
sS'.thisTrialN'
p4003
I14
sS'.thisN'
p4004
I509
sg25
S'Y'
sg15
(lp4005
S'k'
asg30
g31
sg16
S'Y'
sg14
I11
sg19
Nsg94
I10
sS'.thisIndex'
p4006
I10
sa(dp4007
g17
(lp4008
S'k'
asg18
S'N'
sS'.thisRepN'
p4009
I34
sg26
S'Y'
sg20
S'Y'
sg32
g33
sS'.thisTrialN'
p4010
I0
sS'.thisN'
p4011
I510
sg25
S'Y'
sg15
(lp4012
S'd'
asg30
g31
sg16
S'Y'
sg14
I11
sg19
Nsg94
I4
sS'.thisIndex'
p4013
I4
sa(dp4014
g17
(lp4015
S'd'
asg18
S'Y'
sS'.thisRepN'
p4016
I34
sg26
S'Y'
sg20
S'Y'
sg32
g33
sS'.thisTrialN'
p4017
I1
sS'.thisN'
p4018
I511
sg25
S'Y'
sg15
(lp4019
S'k'
asg30
g31
sg16
S'Y'
sg14
I11
sg19
(lp4020
S'space'
p4021
asg94
I14
sS'.thisIndex'
p4022
I14
sa(dp4023
g17
(lp4024
S'd'
asg18
S'Y'
sS'.thisRepN'
p4025
I34
sg26
S'Y'
sg20
S'Y'
sg32
g33
sS'.thisTrialN'
p4026
I2
sS'.thisN'
p4027
I512
sg25
S'Y'
sg15
(lp4028
S'k'
asg30
g31
sg16
S'Y'
sg14
I11
sg19
(lp4029
S'space'
p4030
asg94
I13
sS'.thisIndex'
p4031
I13
sa(dp4032
g17
(lp4033
S'd'
asg18
S'N'
sS'.thisRepN'
p4034
I34
sg26
S'Y'
sg20
S'Y'
sg32
g33
sS'.thisTrialN'
p4035
I3
sS'.thisN'
p4036
I513
sg25
S'Y'
sg15
(lp4037
S'k'
asg30
g31
sg16
S'Y'
sg14
I11
sg19
Nsg94
I10
sS'.thisIndex'
p4038
I10
sa(dp4039
g17
(lp4040
S'k'
asg18
S'N'
sS'.thisRepN'
p4041
I34
sg26
S'Y'
sg20
S'Y'
sg32
g33
sS'.thisTrialN'
p4042
I4
sS'.thisN'
p4043
I514
sg25
S'Y'
sg15
(lp4044
S'd'
asg30
g31
sg16
S'Y'
sg14
I11
sg19
Nsg94
I5
sS'.thisIndex'
p4045
I5
sa(dp4046
g17
(lp4047
S'd'
asg18
S'N'
sS'.thisRepN'
p4048
I34
sg26
S'Y'
sg20
S'Y'
sg32
g33
sS'.thisTrialN'
p4049
I5
sS'.thisN'
p4050
I515
sg25
S'Y'
sg15
(lp4051
S'k'
asg30
g31
sg16
S'Y'
sg14
I11
sg19
Nsg94
I4
sS'.thisIndex'
p4052
I4
sa(dp4053
g17
(lp4054
S'k'
asg18
S'Y'
sS'.thisRepN'
p4055
I34
sg26
S'Y'
sg20
S'Y'
sg32
g33
sS'.thisTrialN'
p4056
I6
sS'.thisN'
p4057
I516
sg25
S'Y'
sg15
(lp4058
S'd'
asg30
g31
sg16
S'Y'
sg14
I11
sg19
(lp4059
S'space'
p4060
asg94
I10
sS'.thisIndex'
p4061
I10
sa(dp4062
g17
(lp4063
S'k'
asg18
S'Y'
sS'.thisRepN'
p4064
I34
sg26
S'Y'
sg20
S'Y'
sg32
g33
sS'.thisTrialN'
p4065
I7
sS'.thisN'
p4066
I517
sg25
S'Y'
sg15
(lp4067
S'd'
asg30
g31
sg16
S'Y'
sg14
I11
sg19
(lp4068
S'space'
p4069
asg94
I1
sS'.thisIndex'
p4070
I1
sa(dp4071
g17
(lp4072
S'k'
asg18
S'N'
sS'.thisRepN'
p4073
I34
sg26
S'Y'
sg20
S'Y'
sg32
g33
sS'.thisTrialN'
p4074
I8
sS'.thisN'
p4075
I518
sg25
S'Y'
sg15
(lp4076
S'd'
asg30
g31
sg16
S'Y'
sg14
I11
sg19
Nsg94
I2
sS'.thisIndex'
p4077
I2
sa(dp4078
g17
(lp4079
S'd'
asg18
S'N'
sS'.thisRepN'
p4080
I34
sg26
S'Y'
sg20
S'Y'
sg32
g33
sS'.thisTrialN'
p4081
I9
sS'.thisN'
p4082
I519
sg25
S'Y'
sg15
(lp4083
S'k'
asg30
g31
sg16
S'Y'
sg14
I11
sg19
Nsg94
I6
sS'.thisIndex'
p4084
I6
sa(dp4085
g17
(lp4086
S'd'
asg18
S'N'
sS'.thisRepN'
p4087
I34
sg26
S'Y'
sg20
S'Y'
sg32
g33
sS'.thisTrialN'
p4088
I10
sS'.thisN'
p4089
I520
sg25
S'Y'
sg15
(lp4090
S'k'
asg30
g31
sg16
S'Y'
sg14
I11
sg19
Nsg94
I5
sS'.thisIndex'
p4091
I5
sa(dp4092
g17
(lp4093
S'k'
asg18
S'Y'
sS'.thisRepN'
p4094
I34
sg26
S'Y'
sg20
S'Y'
sg32
g33
sS'.thisTrialN'
p4095
I11
sS'.thisN'
p4096
I521
sg25
S'Y'
sg15
(lp4097
S'd'
asg30
g31
sg16
S'Y'
sg14
I11
sg19
(lp4098
S'space'
p4099
asg94
I0
sS'.thisIndex'
p4100
I0
sa(dp4101
g18
S'Y'
sS'.thisRepN'
p4102
I34
sg26
S'Y'
sg20
S'Y'
sg32
g33
sS'.thisTrialN'
p4103
I12
sS'.thisN'
p4104
I522
sg25
S'Y'
sg15
Nsg30
g31
sg16
g99
sg14
I11
sg19
(lp4105
S'space'
p4106
asg94
I11
sS'.thisIndex'
p4107
I11
sa(dp4108
g17
(lp4109
S'd'
asg18
S'N'
sS'.thisRepN'
p4110
I34
sg26
S'Y'
sg20
S'Y'
sg32
g33
sS'.thisTrialN'
p4111
I13
sS'.thisN'
p4112
I523
sg25
S'Y'
sg15
(lp4113
S'k'
asg30
g31
sg16
S'Y'
sg14
I11
sg19
Nsg94
I11
sS'.thisIndex'
p4114
I11
sa(dp4115
g17
(lp4116
S'd'
asg18
S'N'
sS'.thisRepN'
p4117
I34
sg26
S'Y'
sg20
S'Y'
sg32
g33
sS'.thisTrialN'
p4118
I14
sS'.thisN'
p4119
I524
sg25
S'Y'
sg15
(lp4120
S'k'
asg30
g31
sg16
S'Y'
sg14
I11
sg19
Nsg94
I11
sS'.thisIndex'
p4121
I11
sa(dp4122
g17
(lp4123
S'd'
asg18
S'N'
sS'.thisRepN'
p4124
I35
sg26
S'Y'
sg20
S'Y'
sg32
g33
sS'.thisTrialN'
p4125
I0
sS'.thisN'
p4126
I525
sg25
S'Y'
sg15
(lp4127
S'k'
asg30
g31
sg16
S'Y'
sg14
I11
sg19
Nsg94
I8
sS'.thisIndex'
p4128
I8
sa(dp4129
g17
(lp4130
S'k'
asg18
S'Y'
sS'.thisRepN'
p4131
I35
sg26
S'Y'
sg20
S'Y'
sg32
g33
sS'.thisTrialN'
p4132
I1
sS'.thisN'
p4133
I526
sg25
S'Y'
sg15
(lp4134
S'd'
asg30
g31
sg16
S'Y'
sg14
I11
sg19
(lp4135
S'space'
p4136
asg94
I5
sS'.thisIndex'
p4137
I5
sa(dp4138
g17
(lp4139
S'd'
asg18
S'Y'
sS'.thisRepN'
p4140
I35
sg26
S'Y'
sg20
S'Y'
sg32
g33
sS'.thisTrialN'
p4141
I2
sS'.thisN'
p4142
I527
sg25
S'Y'
sg15
(lp4143
S'k'
asg30
g31
sg16
S'Y'
sg14
I11
sg19
(lp4144
S'space'
p4145
asg94
I3
sS'.thisIndex'
p4146
I3
sa(dp4147
g17
(lp4148
S'k'
asg18
S'Y'
sS'.thisRepN'
p4149
I35
sg26
S'Y'
sg20
S'Y'
sg32
g33
sS'.thisTrialN'
p4150
I3
sS'.thisN'
p4151
I528
sg25
S'Y'
sg15
(lp4152
S'd'
asg30
g31
sg16
S'Y'
sg14
I11
sg19
(lp4153
S'space'
p4154
asg94
I5
sS'.thisIndex'
p4155
I5
sa(dp4156
g17
(lp4157
S'k'
asg18
S'N'
sS'.thisRepN'
p4158
I35
sg26
S'Y'
sg20
S'Y'
sg32
g33
sS'.thisTrialN'
p4159
I4
sS'.thisN'
p4160
I529
sg25
S'Y'
sg15
(lp4161
S'd'
asg30
g31
sg16
S'Y'
sg14
I11
sg19
Nsg94
I3
sS'.thisIndex'
p4162
I3
sa(dp4163
g17
(lp4164
S'd'
asg18
S'Y'
sS'.thisRepN'
p4165
I35
sg26
S'Y'
sg20
S'Y'
sg32
g33
sS'.thisTrialN'
p4166
I5
sS'.thisN'
p4167
I530
sg25
S'Y'
sg15
(lp4168
S'k'
asg30
g31
sg16
S'Y'
sg14
I11
sg19
(lp4169
S'space'
p4170
asg94
I6
sS'.thisIndex'
p4171
I6
sa(dp4172
g17
(lp4173
S'd'
asg18
S'N'
sS'.thisRepN'
p4174
I35
sg26
S'Y'
sg20
S'Y'
sg32
g33
sS'.thisTrialN'
p4175
I6
sS'.thisN'
p4176
I531
sg25
S'Y'
sg15
(lp4177
S'k'
asg30
g31
sg16
S'Y'
sg14
I11
sg19
Nsg94
I7
sS'.thisIndex'
p4178
I7
sa(dp4179
g17
(lp4180
S'k'
asg18
S'N'
sS'.thisRepN'
p4181
I35
sg26
S'Y'
sg20
S'Y'
sg32
g33
sS'.thisTrialN'
p4182
I7
sS'.thisN'
p4183
I532
sg25
S'Y'
sg15
(lp4184
S'd'
asg30
g31
sg16
S'Y'
sg14
I11
sg19
Nsg94
I13
sS'.thisIndex'
p4185
I13
sa(dp4186
g17
(lp4187
S'k'
asg18
S'N'
sS'.thisRepN'
p4188
I35
sg26
S'Y'
sg20
S'Y'
sg32
g33
sS'.thisTrialN'
p4189
I8
sS'.thisN'
p4190
I533
sg25
S'Y'
sg15
(lp4191
S'd'
asg30
g31
sg16
S'Y'
sg14
I11
sg19
Nsg94
I0
sS'.thisIndex'
p4192
I0
sa(dp4193
g17
(lp4194
S'k'
asg18
S'Y'
sS'.thisRepN'
p4195
I35
sg26
S'Y'
sg20
S'Y'
sg32
g33
sS'.thisTrialN'
p4196
I9
sS'.thisN'
p4197
I534
sg25
S'Y'
sg15
(lp4198
S'd'
asg30
g31
sg16
S'Y'
sg14
I11
sg19
(lp4199
S'space'
p4200
asg94
I8
sS'.thisIndex'
p4201
I8
sa(dp4202
g17
(lp4203
S'k'
asg18
S'Y'
sS'.thisRepN'
p4204
I35
sg26
S'Y'
sg20
S'Y'
sg32
g33
sS'.thisTrialN'
p4205
I10
sS'.thisN'
p4206
I535
sg25
S'Y'
sg15
(lp4207
S'd'
asg30
g31
sg16
S'Y'
sg14
I11
sg19
(lp4208
S'space'
p4209
asg94
I10
sS'.thisIndex'
p4210
I10
sa(dp4211
g17
(lp4212
S'd'
asg18
S'N'
sS'.thisRepN'
p4213
I35
sg26
S'Y'
sg20
S'Y'
sg32
g33
sS'.thisTrialN'
p4214
I11
sS'.thisN'
p4215
I536
sg25
S'Y'
sg15
(lp4216
S'k'
asg30
g31
sg16
S'Y'
sg14
I11
sg19
Nsg94
I3
sS'.thisIndex'
p4217
I3
sa(dp4218
g17
(lp4219
S'd'
asg18
S'Y'
sS'.thisRepN'
p4220
I35
sg26
S'Y'
sg20
S'Y'
sg32
g33
sS'.thisTrialN'
p4221
I12
sS'.thisN'
p4222
I537
sg25
S'Y'
sg15
(lp4223
S'k'
asg30
g31
sg16
S'Y'
sg14
I11
sg19
(lp4224
S'space'
p4225
asg94
I5
sS'.thisIndex'
p4226
I5
sa(dp4227
g17
(lp4228
S'd'
asg18
S'N'
sS'.thisRepN'
p4229
I35
sg26
S'Y'
sg20
S'Y'
sg32
g33
sS'.thisTrialN'
p4230
I13
sS'.thisN'
p4231
I538
sg25
S'Y'
sg15
(lp4232
S'k'
asg30
g31
sg16
S'Y'
sg14
I11
sg19
Nsg94
I13
sS'.thisIndex'
p4233
I13
sa(dp4234
g17
(lp4235
S'k'
asg18
S'Y'
sS'.thisRepN'
p4236
I35
sg26
S'Y'
sg20
S'N'
sg32
g33
sS'.thisTrialN'
p4237
I14
sS'.thisN'
p4238
I539
sg25
S'Y'
sg15
(lp4239
S'd'
asg30
g31
sg16
S'Y'
sg14
I11
sg19
Nsg94
I8
sS'.thisIndex'
p4240
I8
sa(dp4241
g17
(lp4242
S'd'
asg18
S'Y'
sS'.thisRepN'
p4243
I36
sg26
S'Y'
sg20
S'Y'
sg32
g33
sS'.thisTrialN'
p4244
I0
sS'.thisN'
p4245
I540
sg25
S'Y'
sg15
(lp4246
S'k'
asg30
g31
sg16
S'Y'
sg14
I11
sg19
(lp4247
S'space'
p4248
asg94
I2
sS'.thisIndex'
p4249
I2
sa(dp4250
g17
(lp4251
S'd'
asg18
S'Y'
sS'.thisRepN'
p4252
I36
sg26
S'Y'
sg20
S'Y'
sg32
g33
sS'.thisTrialN'
p4253
I1
sS'.thisN'
p4254
I541
sg25
S'Y'
sg15
(lp4255
S'd'
asg30
g31
sg16
S'N'
sg14
I11
sg19
(lp4256
S'space'
p4257
asg94
I1
sS'.thisIndex'
p4258
I1
sa(dp4259
g17
(lp4260
S'k'
asg18
S'Y'
sS'.thisRepN'
p4261
I36
sg26
S'Y'
sg20
S'N'
sg32
g33
sS'.thisTrialN'
p4262
I2
sS'.thisN'
p4263
I542
sg25
S'Y'
sg15
(lp4264
S'd'
asg30
g31
sg16
S'Y'
sg14
I11
sg19
Nsg94
I2
sS'.thisIndex'
p4265
I2
sa(dp4266
g17
(lp4267
S'k'
asg18
S'N'
sS'.thisRepN'
p4268
I36
sg26
S'Y'
sg20
S'Y'
sg32
g33
sS'.thisTrialN'
p4269
I3
sS'.thisN'
p4270
I543
sg25
S'Y'
sg15
(lp4271
S'd'
asg30
g31
sg16
S'Y'
sg14
I11
sg19
Nsg94
I12
sS'.thisIndex'
p4272
I12
sa(dp4273
g17
(lp4274
S'd'
asg18
S'N'
sS'.thisRepN'
p4275
I36
sg26
S'Y'
sg20
S'Y'
sg32
g33
sS'.thisTrialN'
p4276
I4
sS'.thisN'
p4277
I544
sg25
S'Y'
sg15
(lp4278
S'k'
asg30
g31
sg16
S'Y'
sg14
I11
sg19
Nsg94
I11
sS'.thisIndex'
p4279
I11
sa(dp4280
g17
(lp4281
S'k'
asg18
S'N'
sS'.thisRepN'
p4282
I36
sg26
S'Y'
sg20
S'Y'
sg32
g33
sS'.thisTrialN'
p4283
I5
sS'.thisN'
p4284
I545
sg25
S'Y'
sg15
(lp4285
S'd'
asg30
g31
sg16
S'Y'
sg14
I11
sg19
Nsg94
I5
sS'.thisIndex'
p4286
I5
sa(dp4287
g17
(lp4288
S'd'
asg18
S'Y'
sS'.thisRepN'
p4289
I36
sg26
S'Y'
sg20
S'Y'
sg32
g33
sS'.thisTrialN'
p4290
I6
sS'.thisN'
p4291
I546
sg25
S'Y'
sg15
(lp4292
S'k'
asg30
g31
sg16
S'Y'
sg14
I11
sg19
(lp4293
S'space'
p4294
asg94
I10
sS'.thisIndex'
p4295
I10
sa(dp4296
g17
(lp4297
S'k'
asg18
S'N'
sS'.thisRepN'
p4298
I36
sg26
S'Y'
sg20
S'Y'
sg32
g33
sS'.thisTrialN'
p4299
I7
sS'.thisN'
p4300
I547
sg25
S'Y'
sg15
(lp4301
S'd'
asg30
g31
sg16
S'Y'
sg14
I11
sg19
Nsg94
I9
sS'.thisIndex'
p4302
I9
sa(dp4303
g18
S'Y'
sS'.thisRepN'
p4304
I36
sg26
S'Y'
sg20
S'Y'
sg32
g33
sS'.thisTrialN'
p4305
I8
sS'.thisN'
p4306
I548
sg25
S'Y'
sg15
Nsg30
g31
sg16
g99
sg14
I11
sg19
(lp4307
S'space'
p4308
asg94
I0
sS'.thisIndex'
p4309
I0
sa(dp4310
g17
(lp4311
S'd'
asg18
S'Y'
sg22
I46
sg26
S'Y'
sS'.thisN'
p4312
I549
sg20
S'Y'
sg32
g33
sS'.thisTrialN'
p4313
I9
sS'.thisRepN'
p4314
I36
sg21
I45
sg25
S'Y'
sg23
I22
sg15
(lp4315
S'k'
asg30
g31
sg16
S'Y'
sg14
I11
sg19
(lp4316
S'space'
p4317
asg94
I10
sS'.thisIndex'
p4318
I10
sa(dp4319
g17
(lp4320
S'd'
asS'.thisIndex'
p4321
I2
sS'.thisRepN'
p4322
I36
sg26
S'Y'
sg30
g31
sg32
g33
sS'.thisTrialN'
p4323
I10
sS'.thisN'
p4324
I550
sg25
S'Y'
sg15
(lp4325
S'k'
asg16
S'Y'
sg14
I12
sg94
I2
sa(dp4326
g17
(lp4327
S'd'
asS'.thisIndex'
p4328
I1
sS'.thisRepN'
p4329
I36
sg26
S'Y'
sg30
g31
sg32
g33
sS'.thisTrialN'
p4330
I11
sS'.thisN'
p4331
I551
sg25
S'Y'
sg15
(lp4332
S'k'
asg16
S'Y'
sg14
I12
sg94
I1
sa(dp4333
g17
(lp4334
S'k'
asg18
S'Y'
sS'.thisRepN'
p4335
I36
sg26
S'Y'
sg20
S'Y'
sg32
g33
sS'.thisTrialN'
p4336
I12
sS'.thisN'
p4337
I552
sg25
S'Y'
sg15
(lp4338
S'd'
asg30
g31
sg16
S'Y'
sg14
I12
sg19
(lp4339
S'space'
p4340
asg94
I9
sS'.thisIndex'
p4341
I9
sa(dp4342
g17
(lp4343
S'k'
asg18
S'N'
sS'.thisRepN'
p4344
I36
sg26
S'Y'
sg20
S'Y'
sg32
g33
sS'.thisTrialN'
p4345
I13
sS'.thisN'
p4346
I553
sg25
S'Y'
sg15
(lp4347
S'd'
asg30
g31
sg16
S'Y'
sg14
I12
sg19
Nsg94
I1
sS'.thisIndex'
p4348
I1
sa(dp4349
g17
(lp4350
S'd'
asg18
S'N'
sS'.thisRepN'
p4351
I36
sg26
S'Y'
sg20
S'Y'
sg32
g33
sS'.thisTrialN'
p4352
I14
sS'.thisN'
p4353
I554
sg25
S'Y'
sg15
(lp4354
S'k'
asg30
g31
sg16
S'Y'
sg14
I12
sg19
Nsg94
I3
sS'.thisIndex'
p4355
I3
sa(dp4356
g17
(lp4357
S'k'
asg18
S'N'
sS'.thisRepN'
p4358
I37
sg26
S'Y'
sg20
S'N'
sg32
g33
sS'.thisTrialN'
p4359
I0
sS'.thisN'
p4360
I555
sg25
S'Y'
sg15
(lp4361
S'd'
asg30
g31
sg16
S'Y'
sg14
I12
sg19
(lp4362
S'space'
p4363
asg94
I11
sS'.thisIndex'
p4364
I11
sa(dp4365
g17
(lp4366
S'k'
asg18
S'N'
sS'.thisRepN'
p4367
I37
sg26
S'Y'
sg20
S'Y'
sg32
g33
sS'.thisTrialN'
p4368
I1
sS'.thisN'
p4369
I556
sg25
S'Y'
sg15
(lp4370
S'd'
asg30
g31
sg16
S'Y'
sg14
I12
sg19
Nsg94
I10
sS'.thisIndex'
p4371
I10
sa(dp4372
g17
(lp4373
S'd'
asg18
S'N'
sS'.thisRepN'
p4374
I37
sg26
S'Y'
sg20
S'Y'
sg32
g33
sS'.thisTrialN'
p4375
I2
sS'.thisN'
p4376
I557
sg25
S'Y'
sg15
(lp4377
S'k'
asg30
g31
sg16
S'Y'
sg14
I12
sg19
Nsg94
I8
sS'.thisIndex'
p4378
I8
sa(dp4379
g17
(lp4380
S'k'
asg18
S'N'
sS'.thisRepN'
p4381
I37
sg26
S'Y'
sg20
S'Y'
sg32
g33
sS'.thisTrialN'
p4382
I3
sS'.thisN'
p4383
I558
sg25
S'Y'
sg15
(lp4384
S'd'
asg30
g31
sg16
S'Y'
sg14
I12
sg19
Nsg94
I12
sS'.thisIndex'
p4385
I12
sa(dp4386
g17
(lp4387
S'k'
asg18
S'Y'
sS'.thisRepN'
p4388
I37
sg26
S'Y'
sg20
S'Y'
sg32
g33
sS'.thisTrialN'
p4389
I4
sS'.thisN'
p4390
I559
sg25
S'Y'
sg15
(lp4391
S'd'
asg30
g31
sg16
S'Y'
sg14
I12
sg19
(lp4392
S'space'
p4393
asg94
I9
sS'.thisIndex'
p4394
I9
sa(dp4395
g17
(lp4396
S'k'
asg18
S'N'
sS'.thisRepN'
p4397
I37
sg26
S'Y'
sg20
S'Y'
sg32
g33
sS'.thisTrialN'
p4398
I5
sS'.thisN'
p4399
I560
sg25
S'Y'
sg15
(lp4400
S'd'
asg30
g31
sg16
S'Y'
sg14
I12
sg19
Nsg94
I8
sS'.thisIndex'
p4401
I8
sa(dp4402
g17
(lp4403
S'k'
asg18
S'N'
sS'.thisRepN'
p4404
I37
sg26
S'Y'
sg20
S'Y'
sg32
g33
sS'.thisTrialN'
p4405
I6
sS'.thisN'
p4406
I561
sg25
S'Y'
sg15
(lp4407
S'd'
asg30
g31
sg16
S'Y'
sg14
I12
sg19
Nsg94
I11
sS'.thisIndex'
p4408
I11
sa(dp4409
g17
(lp4410
S'd'
asg18
S'Y'
sS'.thisRepN'
p4411
I37
sg26
S'Y'
sg20
S'Y'
sg32
g33
sS'.thisTrialN'
p4412
I7
sS'.thisN'
p4413
I562
sg25
S'Y'
sg15
(lp4414
S'k'
asg30
g31
sg16
S'Y'
sg14
I12
sg19
(lp4415
S'space'
p4416
asg94
I2
sS'.thisIndex'
p4417
I2
sa(dp4418
g17
(lp4419
S'd'
asg18
S'Y'
sS'.thisRepN'
p4420
I37
sg26
S'Y'
sg20
S'Y'
sg32
g33
sS'.thisTrialN'
p4421
I8
sS'.thisN'
p4422
I563
sg25
S'Y'
sg15
(lp4423
S'd'
asg30
g31
sg16
S'N'
sg14
I12
sg19
(lp4424
S'space'
p4425
asg94
I9
sS'.thisIndex'
p4426
I9
sa(dp4427
g17
(lp4428
S'k'
asg18
S'N'
sS'.thisRepN'
p4429
I37
sg26
S'Y'
sg20
S'Y'
sg32
g33
sS'.thisTrialN'
p4430
I9
sS'.thisN'
p4431
I564
sg25
S'Y'
sg15
(lp4432
S'd'
asg30
g31
sg16
S'Y'
sg14
I12
sg19
Nsg94
I11
sS'.thisIndex'
p4433
I11
sa(dp4434
g17
(lp4435
S'd'
asg18
S'N'
sS'.thisRepN'
p4436
I37
sg26
S'Y'
sg20
S'Y'
sg32
g33
sS'.thisTrialN'
p4437
I10
sS'.thisN'
p4438
I565
sg25
S'Y'
sg15
(lp4439
S'k'
asg30
g31
sg16
S'Y'
sg14
I12
sg19
Nsg94
I11
sS'.thisIndex'
p4440
I11
sa(dp4441
g17
(lp4442
S'k'
asg18
S'Y'
sS'.thisRepN'
p4443
I37
sg26
S'Y'
sg20
S'Y'
sg32
g33
sS'.thisTrialN'
p4444
I11
sS'.thisN'
p4445
I566
sg25
S'Y'
sg15
(lp4446
S'd'
asg30
g31
sg16
S'Y'
sg14
I12
sg19
(lp4447
S'space'
p4448
asg94
I12
sS'.thisIndex'
p4449
I12
sa(dp4450
g17
(lp4451
S'k'
asg18
S'N'
sS'.thisRepN'
p4452
I37
sg26
S'Y'
sg20
S'Y'
sg32
g33
sS'.thisTrialN'
p4453
I12
sS'.thisN'
p4454
I567
sg25
S'Y'
sg15
(lp4455
S'd'
asg30
g31
sg16
S'Y'
sg14
I12
sg19
Nsg94
I10
sS'.thisIndex'
p4456
I10
sa(dp4457
g17
(lp4458
S'd'
asg18
S'Y'
sS'.thisRepN'
p4459
I37
sg26
S'Y'
sg20
S'N'
sg32
g33
sS'.thisTrialN'
p4460
I13
sS'.thisN'
p4461
I568
sg25
S'Y'
sg15
(lp4462
S'k'
asg30
g31
sg16
S'Y'
sg14
I12
sg19
Nsg94
I11
sS'.thisIndex'
p4463
I11
sa(dp4464
g17
(lp4465
S'k'
asg18
S'N'
sS'.thisRepN'
p4466
I37
sg26
S'Y'
sg20
S'Y'
sg32
g33
sS'.thisTrialN'
p4467
I14
sS'.thisN'
p4468
I569
sg25
S'Y'
sg15
(lp4469
S'd'
asg30
g31
sg16
S'Y'
sg14
I12
sg19
Nsg94
I2
sS'.thisIndex'
p4470
I2
sa(dp4471
g17
(lp4472
S'd'
asg18
S'N'
sS'.thisRepN'
p4473
I38
sg26
S'Y'
sg20
S'Y'
sg32
g33
sS'.thisTrialN'
p4474
I0
sS'.thisN'
p4475
I570
sg25
S'Y'
sg15
(lp4476
S'k'
asg30
g31
sg16
S'Y'
sg14
I12
sg19
Nsg94
I5
sS'.thisIndex'
p4477
I5
sa(dp4478
g17
(lp4479
S'k'
asg18
S'Y'
sS'.thisRepN'
p4480
I38
sg26
S'Y'
sg20
S'Y'
sg32
g33
sS'.thisTrialN'
p4481
I1
sS'.thisN'
p4482
I571
sg25
S'Y'
sg15
(lp4483
S'd'
asg30
g31
sg16
S'Y'
sg14
I12
sg19
(lp4484
S'space'
p4485
asg94
I3
sS'.thisIndex'
p4486
I3
sa(dp4487
g17
(lp4488
S'd'
asg18
S'Y'
sS'.thisRepN'
p4489
I38
sg26
S'Y'
sg20
S'Y'
sg32
g33
sS'.thisTrialN'
p4490
I2
sS'.thisN'
p4491
I572
sg25
S'Y'
sg15
(lp4492
S'k'
asg30
g31
sg16
S'Y'
sg14
I12
sg19
(lp4493
S'space'
p4494
asg94
I9
sS'.thisIndex'
p4495
I9
sa(dp4496
g17
(lp4497
S'k'
asg18
S'N'
sS'.thisRepN'
p4498
I38
sg26
S'Y'
sg20
S'Y'
sg32
g33
sS'.thisTrialN'
p4499
I3
sS'.thisN'
p4500
I573
sg25
S'Y'
sg15
(lp4501
S'd'
asg30
g31
sg16
S'Y'
sg14
I12
sg19
Nsg94
I4
sS'.thisIndex'
p4502
I4
sa(dp4503
g17
(lp4504
S'k'
asg18
S'N'
sS'.thisRepN'
p4505
I38
sg26
S'Y'
sg20
S'Y'
sg32
g33
sS'.thisTrialN'
p4506
I4
sS'.thisN'
p4507
I574
sg25
S'Y'
sg15
(lp4508
S'd'
asg30
g31
sg16
S'Y'
sg14
I12
sg19
Nsg94
I9
sS'.thisIndex'
p4509
I9
sa(dp4510
g17
(lp4511
S'k'
asg18
S'Y'
sS'.thisRepN'
p4512
I38
sg26
S'Y'
sg20
S'N'
sg32
g33
sS'.thisTrialN'
p4513
I5
sS'.thisN'
p4514
I575
sg25
S'Y'
sg15
(lp4515
S'd'
asg30
g31
sg16
S'Y'
sg14
I12
sg19
Nsg94
I6
sS'.thisIndex'
p4516
I6
sa(dp4517
g17
(lp4518
S'd'
asg18
S'N'
sS'.thisRepN'
p4519
I38
sg26
S'Y'
sg20
S'N'
sg32
g33
sS'.thisTrialN'
p4520
I6
sS'.thisN'
p4521
I576
sg25
S'Y'
sg15
(lp4522
S'k'
asg30
g31
sg16
S'Y'
sg14
I12
sg19
(lp4523
S'space'
p4524
asg94
I4
sS'.thisIndex'
p4525
I4
sa(dp4526
g17
(lp4527
S'k'
asg18
S'Y'
sS'.thisRepN'
p4528
I38
sg26
S'Y'
sg20
S'Y'
sg32
g33
sS'.thisTrialN'
p4529
I7
sS'.thisN'
p4530
I577
sg25
S'Y'
sg15
(lp4531
S'd'
asg30
g31
sg16
S'Y'
sg14
I12
sg19
(lp4532
S'space'
p4533
asg94
I5
sS'.thisIndex'
p4534
I5
sa(dp4535
g17
(lp4536
S'k'
asg18
S'N'
sS'.thisRepN'
p4537
I38
sg26
S'Y'
sg20
S'Y'
sg32
g33
sS'.thisTrialN'
p4538
I8
sS'.thisN'
p4539
I578
sg25
S'Y'
sg15
(lp4540
S'd'
asg30
g31
sg16
S'Y'
sg14
I12
sg19
Nsg94
I6
sS'.thisIndex'
p4541
I6
sa(dp4542
g17
(lp4543
S'k'
asg18
S'N'
sS'.thisRepN'
p4544
I38
sg26
S'Y'
sg20
S'Y'
sg32
g33
sS'.thisTrialN'
p4545
I9
sS'.thisN'
p4546
I579
sg25
S'Y'
sg15
(lp4547
S'd'
asg30
g31
sg16
S'Y'
sg14
I12
sg19
Nsg94
I14
sS'.thisIndex'
p4548
I14
sa(dp4549
g17
(lp4550
S'd'
asg18
S'Y'
sS'.thisRepN'
p4551
I38
sg26
S'Y'
sg20
S'Y'
sg32
g33
sS'.thisTrialN'
p4552
I10
sS'.thisN'
p4553
I580
sg25
S'Y'
sg15
(lp4554
S'k'
asg30
g31
sg16
S'Y'
sg14
I12
sg19
(lp4555
S'space'
p4556
asg94
I14
sS'.thisIndex'
p4557
I14
sa(dp4558
g17
(lp4559
S'k'
asg18
S'N'
sS'.thisRepN'
p4560
I38
sg26
S'Y'
sg20
S'Y'
sg32
g33
sS'.thisTrialN'
p4561
I11
sS'.thisN'
p4562
I581
sg25
S'Y'
sg15
(lp4563
S'd'
asg30
g31
sg16
S'Y'
sg14
I12
sg19
Nsg94
I3
sS'.thisIndex'
p4564
I3
sa(dp4565
g17
(lp4566
S'd'
asg18
S'N'
sS'.thisRepN'
p4567
I38
sg26
S'Y'
sg20
S'N'
sg32
g33
sS'.thisTrialN'
p4568
I12
sS'.thisN'
p4569
I582
sg25
S'Y'
sg15
(lp4570
S'k'
asg30
g31
sg16
S'Y'
sg14
I12
sg19
(lp4571
S'space'
p4572
asg94
I14
sS'.thisIndex'
p4573
I14
sa(dp4574
g17
(lp4575
S'k'
asg18
S'N'
sS'.thisRepN'
p4576
I38
sg26
S'Y'
sg20
S'Y'
sg32
g33
sS'.thisTrialN'
p4577
I13
sS'.thisN'
p4578
I583
sg25
S'Y'
sg15
(lp4579
S'd'
asg30
g31
sg16
S'Y'
sg14
I12
sg19
Nsg94
I4
sS'.thisIndex'
p4580
I4
sa(dp4581
g17
(lp4582
S'd'
asg18
S'N'
sS'.thisRepN'
p4583
I38
sg26
S'Y'
sg20
S'Y'
sg32
g33
sS'.thisTrialN'
p4584
I14
sS'.thisN'
p4585
I584
sg25
S'Y'
sg15
(lp4586
S'k'
asg30
g31
sg16
S'Y'
sg14
I12
sg19
Nsg94
I1
sS'.thisIndex'
p4587
I1
sa(dp4588
g17
(lp4589
S'd'
asg18
S'N'
sS'.thisRepN'
p4590
I39
sg26
S'Y'
sg20
S'Y'
sg32
g33
sS'.thisTrialN'
p4591
I0
sS'.thisN'
p4592
I585
sg25
S'Y'
sg15
(lp4593
S'k'
asg30
g31
sg16
S'Y'
sg14
I12
sg19
Nsg94
I10
sS'.thisIndex'
p4594
I10
sa(dp4595
g17
(lp4596
S'd'
asg18
S'N'
sS'.thisRepN'
p4597
I39
sg26
S'Y'
sg20
S'Y'
sg32
g33
sS'.thisTrialN'
p4598
I1
sS'.thisN'
p4599
I586
sg25
S'Y'
sg15
(lp4600
S'k'
asg30
g31
sg16
S'Y'
sg14
I12
sg19
Nsg94
I5
sS'.thisIndex'
p4601
I5
sa(dp4602
g17
(lp4603
S'k'
asg18
S'Y'
sS'.thisRepN'
p4604
I39
sg26
S'Y'
sg20
S'Y'
sg32
g33
sS'.thisTrialN'
p4605
I2
sS'.thisN'
p4606
I587
sg25
S'Y'
sg15
(lp4607
S'd'
asg30
g31
sg16
S'Y'
sg14
I12
sg19
(lp4608
S'space'
p4609
asg94
I6
sS'.thisIndex'
p4610
I6
sa(dp4611
g17
(lp4612
S'd'
asg18
S'N'
sS'.thisRepN'
p4613
I39
sg26
S'Y'
sg20
S'Y'
sg32
g33
sS'.thisTrialN'
p4614
I3
sS'.thisN'
p4615
I588
sg25
S'Y'
sg15
(lp4616
S'k'
asg30
g31
sg16
S'Y'
sg14
I12
sg19
Nsg94
I0
sS'.thisIndex'
p4617
I0
sa(dp4618
g17
(lp4619
S'd'
asg18
S'Y'
sS'.thisRepN'
p4620
I39
sg26
S'Y'
sg20
S'Y'
sg32
g33
sS'.thisTrialN'
p4621
I4
sS'.thisN'
p4622
I589
sg25
S'Y'
sg15
(lp4623
S'k'
asg30
g31
sg16
S'Y'
sg14
I12
sg19
(lp4624
S'space'
p4625
asg94
I11
sS'.thisIndex'
p4626
I11
sa(dp4627
g17
(lp4628
S'k'
asg18
S'N'
sS'.thisRepN'
p4629
I39
sg26
S'Y'
sg20
S'Y'
sg32
g33
sS'.thisTrialN'
p4630
I5
sS'.thisN'
p4631
I590
sg25
S'Y'
sg15
(lp4632
S'd'
asg30
g31
sg16
S'Y'
sg14
I12
sg19
Nsg94
I3
sS'.thisIndex'
p4633
I3
sa(dp4634
g17
(lp4635
S'd'
asg18
S'Y'
sS'.thisRepN'
p4636
I39
sg26
S'Y'
sg20
S'Y'
sg32
g33
sS'.thisTrialN'
p4637
I6
sS'.thisN'
p4638
I591
sg25
S'Y'
sg15
(lp4639
S'k'
asg30
g31
sg16
S'Y'
sg14
I12
sg19
(lp4640
S'space'
p4641
asg94
I7
sS'.thisIndex'
p4642
I7
sa(dp4643
g17
(lp4644
S'k'
asg18
S'N'
sS'.thisRepN'
p4645
I39
sg26
S'Y'
sg20
S'Y'
sg32
g33
sS'.thisTrialN'
p4646
I7
sS'.thisN'
p4647
I592
sg25
S'Y'
sg15
(lp4648
S'd'
asg30
g31
sg16
S'Y'
sg14
I12
sg19
Nsg94
I13
sS'.thisIndex'
p4649
I13
sa(dp4650
g17
(lp4651
S'd'
asg18
S'Y'
sS'.thisRepN'
p4652
I39
sg26
S'Y'
sg20
S'N'
sg32
g33
sS'.thisTrialN'
p4653
I8
sS'.thisN'
p4654
I593
sg25
S'Y'
sg15
(lp4655
S'k'
asg30
g31
sg16
S'Y'
sg14
I12
sg19
Nsg94
I0
sS'.thisIndex'
p4656
I0
sa(dp4657
g17
(lp4658
S'd'
asg18
S'N'
sS'.thisRepN'
p4659
I39
sg26
S'Y'
sg20
S'Y'
sg32
g33
sS'.thisTrialN'
p4660
I9
sS'.thisN'
p4661
I594
sg25
S'Y'
sg15
(lp4662
S'k'
asg30
g31
sg16
S'Y'
sg14
I12
sg19
Nsg94
I2
sS'.thisIndex'
p4663
I2
sa(dp4664
g17
(lp4665
S'd'
asg18
S'N'
sS'.thisRepN'
p4666
I39
sg26
S'Y'
sg20
S'Y'
sg32
g33
sS'.thisTrialN'
p4667
I10
sS'.thisN'
p4668
I595
sg25
S'Y'
sg15
(lp4669
S'k'
asg30
g31
sg16
S'Y'
sg14
I12
sg19
Nsg94
I13
sS'.thisIndex'
p4670
I13
sa(dp4671
g17
(lp4672
S'd'
asg18
S'N'
sS'.thisRepN'
p4673
I39
sg26
S'Y'
sg20
S'Y'
sg32
g33
sS'.thisTrialN'
p4674
I11
sS'.thisN'
p4675
I596
sg25
S'Y'
sg15
(lp4676
S'k'
asg30
g31
sg16
S'Y'
sg14
I12
sg19
Nsg94
I4
sS'.thisIndex'
p4677
I4
sa(dp4678
g17
(lp4679
S'k'
asg18
S'Y'
sS'.thisRepN'
p4680
I39
sg26
S'Y'
sg20
S'Y'
sg32
g33
sS'.thisTrialN'
p4681
I12
sS'.thisN'
p4682
I597
sg25
S'Y'
sg15
(lp4683
S'd'
asg30
g31
sg16
S'Y'
sg14
I12
sg19
(lp4684
S'space'
p4685
asg94
I8
sS'.thisIndex'
p4686
I8
sa(dp4687
g17
(lp4688
S'd'
asg18
S'Y'
sS'.thisRepN'
p4689
I39
sg26
S'Y'
sg20
S'Y'
sg32
g33
sS'.thisTrialN'
p4690
I13
sS'.thisN'
p4691
I598
sg25
S'Y'
sg15
(lp4692
S'k'
asg30
g31
sg16
S'Y'
sg14
I12
sg19
(lp4693
S'space'
p4694
asg94
I0
sS'.thisIndex'
p4695
I0
sa(dp4696
g17
(lp4697
S'k'
asg18
S'N'
sg22
I42
sg26
S'Y'
sS'.thisN'
p4698
I599
sg20
S'Y'
sg32
g33
sS'.thisTrialN'
p4699
I14
sS'.thisRepN'
p4700
I39
sg21
I49
sg25
S'Y'
sg23
I17
sg15
(lp4701
S'd'
asg30
g31
sg16
S'Y'
sg14
I12
sg19
Nsg94
I10
sS'.thisIndex'
p4702
I10
sasS'loops'
p4703
(lp4704
g1
(g36
g3
NtRp4705
(dp4706
g39
Nsg40
(lp4707
sg41
I79389680
sg10
S''
sg6
g42
sg43
I1
sg27
I01
sg28
Nsg44
g1
(g45
g46
(dp4708
g48
g49
(g50
g51
g52
S'b'
tRp4709
(I1
(I600
I1
tg55
I00
S'\x00\x00\x80?\x00\x00\x80?\x00\x00\x80?\x00\x00\x80?\x00\x00\x80?\x00\x00\x80?\x00\x00\x80?\x00\x00\x80?\x00\x00\x80?\x00\x00\x80?\x00\x00\x80?\x00\x00\x80?\x00\x00\x80?\x00\x00\x80?\x00\x00\x80?\x00\x00\x80?\x00\x00\x80?\x00\x00\x80?\x00\x00\x80?\x00\x00\x80?\x00\x00\x80?\x00\x00\x80?\x00\x00\x80?\x00\x00\x80?\x00\x00\x80?\x00\x00\x80?\x00\x00\x80?\x00\x00\x80?\x00\x00\x80?\x00\x00\x80?\x00\x00\x80?\x00\x00\x80?\x00\x00\x80?\x00\x00\x80?\x00\x00\x80?\x00\x00\x80?\x00\x00\x80?\x00\x00\x80?\x00\x00\x80?\x00\x00\x80?\x00\x00\x80?\x00\x00\x80?\x00\x00\x80?\x00\x00\x80?\x00\x00\x80?\x00\x00\x80?\x00\x00\x80?\x00\x00\x80?\x00\x00\x80?\x00\x00\x80?\x00\x00\x80?\x00\x00\x80?\x00\x00\x80?\x00\x00\x80?\x00\x00\x80?\x00\x00\x80?\x00\x00\x80?\x00\x00\x80?\x00\x00\x80?\x00\x00\x80?\x00\x00\x80?\x00\x00\x80?\x00\x00\x80?\x00\x00\x80?\x00\x00\x80?\x00\x00\x80?\x00\x00\x80?\x00\x00\x80?\x00\x00\x80?\x00\x00\x80?\x00\x00\x80?\x00\x00\x80?\x00\x00\x80?\x00\x00\x80?\x00\x00\x80?\x00\x00\x80?\x00\x00\x80?\x00\x00\x80?\x00\x00\x80?\x00\x00\x80?\x00\x00\x80?\x00\x00\x80?\x00\x00\x80?\x00\x00\x80?\x00\x00\x80?\x00\x00\x80?\x00\x00\x80?\x00\x00\x80?\x00\x00\x80?\x00\x00\x80?\x00\x00\x80?\x00\x00\x80?\x00\x00\x80?\x00\x00\x80?\x00\x00\x80?\x00\x00\x80?\x00\x00\x80?\x00\x00\x80?\x00\x00\x80?\x00\x00\x80?\x00\x00\x80?\x00\x00\x80?\x00\x00\x80?\x00\x00\x80?\x00\x00\x80?\x00\x00\x80?\x00\x00\x80?\x00\x00\x80?\x00\x00\x80?\x00\x00\x80?\x00\x00\x80?\x00\x00\x80?\x00\x00\x80?\x00\x00\x80?\x00\x00\x80?\x00\x00\x80?\x00\x00\x80?\x00\x00\x80?\x00\x00\x80?\x00\x00\x80?\x00\x00\x80?\x00\x00\x80?\x00\x00\x80?\x00\x00\x80?\x00\x00\x80?\x00\x00\x80?\x00\x00\x80?\x00\x00\x80?\x00\x00\x80?\x00\x00\x80?\x00\x00\x80?\x00\x00\x80?\x00\x00\x80?\x00\x00\x80?\x00\x00\x80?\x00\x00\x80?\x00\x00\x80?\x00\x00\x80?\x00\x00\x80?\x00\x00\x80?\x00\x00\x80?\x00\x00\x80?\x00\x00\x80?\x00\x00\x80?\x00\x00\x80?\x00\x00\x80?\x00\x00\x80?\x00\x00\x80?\x00\x00\x80?\x00\x00\x80?\x00\x00\x80?\x00\x00\x80?\x00\x00\x80?\x00\x00\x80?\x00\x00\x80?\x00\x00\x80?\x00\x00\x80?\x00\x00\x80?\x00\x00\x80?\x00\x00\x80?\x00\x00\x80?\x00\x00\x80?\x00\x00\x80?\x00\x00\x80?\x00\x00\x80?\x00\x00\x80?\x00\x00\x80?\x00\x00\x80?\x00\x00\x80?\x00\x00\x80?\x00\x00\x80?\x00\x00\x80?\x00\x00\x80?\x00\x00\x80?\x00\x00\x80?\x00\x00\x80?\x00\x00\x80?\x00\x00\x80?\x00\x00\x80?\x00\x00\x80?\x00\x00\x80?\x00\x00\x80?\x00\x00\x80?\x00\x00\x80?\x00\x00\x80?\x00\x00\x80?\x00\x00\x80?\x00\x00\x80?\x00\x00\x80?\x00\x00\x80?\x00\x00\x80?\x00\x00\x80?\x00\x00\x80?\x00\x00\x80?\x00\x00\x80?\x00\x00\x80?\x00\x00\x80?\x00\x00\x80?\x00\x00\x80?\x00\x00\x80?\x00\x00\x80?\x00\x00\x80?\x00\x00\x80?\x00\x00\x80?\x00\x00\x80?\x00\x00\x80?\x00\x00\x80?\x00\x00\x80?\x00\x00\x80?\x00\x00\x80?\x00\x00\x80?\x00\x00\x80?\x00\x00\x80?\x00\x00\x80?\x00\x00\x80?\x00\x00\x80?\x00\x00\x80?\x00\x00\x80?\x00\x00\x80?\x00\x00\x80?\x00\x00\x80?\x00\x00\x80?\x00\x00\x80?\x00\x00\x80?\x00\x00\x80?\x00\x00\x80?\x00\x00\x80?\x00\x00\x80?\x00\x00\x80?\x00\x00\x80?\x00\x00\x80?\x00\x00\x80?\x00\x00\x80?\x00\x00\x80?\x00\x00\x80?\x00\x00\x80?\x00\x00\x80?\x00\x00\x80?\x00\x00\x80?\x00\x00\x80?\x00\x00\x80?\x00\x00\x80?\x00\x00\x80?\x00\x00\x80?\x00\x00\x80?\x00\x00\x80?\x00\x00\x80?\x00\x00\x80?\x00\x00\x80?\x00\x00\x80?\x00\x00\x80?\x00\x00\x80?\x00\x00\x80?\x00\x00\x80?\x00\x00\x80?\x00\x00\x80?\x00\x00\x80?\x00\x00\x80?\x00\x00\x80?\x00\x00\x80?\x00\x00\x80?\x00\x00\x80?\x00\x00\x80?\x00\x00\x80?\x00\x00\x80?\x00\x00\x80?\x00\x00\x80?\x00\x00\x80?\x00\x00\x80?\x00\x00\x80?\x00\x00\x80?\x00\x00\x80?\x00\x00\x80?\x00\x00\x80?\x00\x00\x80?\x00\x00\x80?\x00\x00\x80?\x00\x00\x80?\x00\x00\x80?\x00\x00\x80?\x00\x00\x80?\x00\x00\x80?\x00\x00\x80?\x00\x00\x80?\x00\x00\x80?\x00\x00\x80?\x00\x00\x80?\x00\x00\x80?\x00\x00\x80?\x00\x00\x80?\x00\x00\x80?\x00\x00\x80?\x00\x00\x80?\x00\x00\x80?\x00\x00\x80?\x00\x00\x80?\x00\x00\x80?\x00\x00\x80?\x00\x00\x80?\x00\x00\x80?\x00\x00\x80?\x00\x00\x80?\x00\x00\x80?\x00\x00\x80?\x00\x00\x80?\x00\x00\x80?\x00\x00\x80?\x00\x00\x80?\x00\x00\x80?\x00\x00\x80?\x00\x00\x80?\x00\x00\x80?\x00\x00\x80?\x00\x00\x80?\x00\x00\x80?\x00\x00\x80?\x00\x00\x80?\x00\x00\x80?\x00\x00\x80?\x00\x00\x80?\x00\x00\x80?\x00\x00\x80?\x00\x00\x80?\x00\x00\x80?\x00\x00\x80?\x00\x00\x80?\x00\x00\x80?\x00\x00\x80?\x00\x00\x80?\x00\x00\x80?\x00\x00\x80?\x00\x00\x80?\x00\x00\x80?\x00\x00\x80?\x00\x00\x80?\x00\x00\x80?\x00\x00\x80?\x00\x00\x80?\x00\x00\x80?\x00\x00\x80?\x00\x00\x80?\x00\x00\x80?\x00\x00\x80?\x00\x00\x80?\x00\x00\x80?\x00\x00\x80?\x00\x00\x80?\x00\x00\x80?\x00\x00\x80?\x00\x00\x80?\x00\x00\x80?\x00\x00\x80?\x00\x00\x80?\x00\x00\x80?\x00\x00\x80?\x00\x00\x80?\x00\x00\x80?\x00\x00\x80?\x00\x00\x80?\x00\x00\x80?\x00\x00\x80?\x00\x00\x80?\x00\x00\x80?\x00\x00\x80?\x00\x00\x80?\x00\x00\x80?\x00\x00\x80?\x00\x00\x80?\x00\x00\x80?\x00\x00\x80?\x00\x00\x80?\x00\x00\x80?\x00\x00\x80?\x00\x00\x80?\x00\x00\x80?\x00\x00\x80?\x00\x00\x80?\x00\x00\x80?\x00\x00\x80?\x00\x00\x80?\x00\x00\x80?\x00\x00\x80?\x00\x00\x80?\x00\x00\x80?\x00\x00\x80?\x00\x00\x80?\x00\x00\x80?\x00\x00\x80?\x00\x00\x80?\x00\x00\x80?\x00\x00\x80?\x00\x00\x80?\x00\x00\x80?\x00\x00\x80?\x00\x00\x80?\x00\x00\x80?\x00\x00\x80?\x00\x00\x80?\x00\x00\x80?\x00\x00\x80?\x00\x00\x80?\x00\x00\x80?\x00\x00\x80?\x00\x00\x80?\x00\x00\x80?\x00\x00\x80?\x00\x00\x80?\x00\x00\x80?\x00\x00\x80?\x00\x00\x80?\x00\x00\x80?\x00\x00\x80?\x00\x00\x80?\x00\x00\x80?\x00\x00\x80?\x00\x00\x80?\x00\x00\x80?\x00\x00\x80?\x00\x00\x80?\x00\x00\x80?\x00\x00\x80?\x00\x00\x80?\x00\x00\x80?\x00\x00\x80?\x00\x00\x80?\x00\x00\x80?\x00\x00\x80?\x00\x00\x80?\x00\x00\x80?\x00\x00\x80?\x00\x00\x80?\x00\x00\x80?\x00\x00\x80?\x00\x00\x80?\x00\x00\x80?\x00\x00\x80?\x00\x00\x80?\x00\x00\x80?\x00\x00\x80?\x00\x00\x80?\x00\x00\x80?\x00\x00\x80?\x00\x00\x80?\x00\x00\x80?\x00\x00\x80?\x00\x00\x80?\x00\x00\x80?\x00\x00\x80?\x00\x00\x80?\x00\x00\x80?\x00\x00\x80?\x00\x00\x80?\x00\x00\x80?\x00\x00\x80?\x00\x00\x80?\x00\x00\x80?\x00\x00\x80?\x00\x00\x80?\x00\x00\x80?\x00\x00\x80?\x00\x00\x80?\x00\x00\x80?\x00\x00\x80?\x00\x00\x80?\x00\x00\x80?\x00\x00\x80?\x00\x00\x80?\x00\x00\x80?\x00\x00\x80?\x00\x00\x80?\x00\x00\x80?\x00\x00\x80?\x00\x00\x80?\x00\x00\x80?\x00\x00\x80?\x00\x00\x80?\x00\x00\x80?\x00\x00\x80?\x00\x00\x80?\x00\x00\x80?\x00\x00\x80?\x00\x00\x80?\x00\x00\x80?\x00\x00\x80?\x00\x00\x80?\x00\x00\x80?\x00\x00\x80?\x00\x00\x80?\x00\x00\x80?\x00\x00\x80?\x00\x00\x80?\x00\x00\x80?\x00\x00\x80?\x00\x00\x80?\x00\x00\x80?\x00\x00\x80?\x00\x00\x80?\x00\x00\x80?\x00\x00\x80?\x00\x00\x80?\x00\x00\x80?\x00\x00\x80?\x00\x00\x80?\x00\x00\x80?\x00\x00\x80?\x00\x00\x80?\x00\x00\x80?\x00\x00\x80?\x00\x00\x80?\x00\x00\x80?\x00\x00\x80?\x00\x00\x80?\x00\x00\x80?\x00\x00\x80?\x00\x00\x80?\x00\x00\x80?\x00\x00\x80?\x00\x00\x80?\x00\x00\x80?\x00\x00\x80?\x00\x00\x80?\x00\x00\x80?\x00\x00\x80?\x00\x00\x80?\x00\x00\x80?\x00\x00\x80?\x00\x00\x80?\x00\x00\x80?\x00\x00\x80?\x00\x00\x80?\x00\x00\x80?\x00\x00\x80?\x00\x00\x80?\x00\x00\x80?\x00\x00\x80?\x00\x00\x80?\x00\x00\x80?\x00\x00\x80?\x00\x00\x80?\x00\x00\x80?\x00\x00\x80?\x00\x00\x80?\x00\x00\x80?\x00\x00\x80?\x00\x00\x80?\x00\x00\x80?\x00\x00\x80?\x00\x00\x80?\x00\x00\x80?\x00\x00\x80?\x00\x00\x80?\x00\x00\x80?\x00\x00\x80?\x00\x00\x80?\x00\x00\x80?\x00\x00\x80?\x00\x00\x80?\x00\x00\x80?\x00\x00\x80?\x00\x00\x80?\x00\x00\x80?\x00\x00\x80?\x00\x00\x80?\x00\x00\x80?\x00\x00\x80?\x00\x00\x80?\x00\x00\x80?\x00\x00\x80?\x00\x00\x80?\x00\x00\x80?\x00\x00\x80?\x00\x00\x80?\x00\x00\x80?\x00\x00\x80?\x00\x00\x80?\x00\x00\x80?\x00\x00\x80?\x00\x00\x80?\x00\x00\x80?\x00\x00\x80?\x00\x00\x80?\x00\x00\x80?\x00\x00\x80?\x00\x00\x80?\x00\x00\x80?\x00\x00\x80?\x00\x00\x80?\x00\x00\x80?\x00\x00\x80?\x00\x00\x80?\x00\x00\x80?\x00\x00\x80?\x00\x00\x80?\x00\x00\x80?\x00\x00\x80?\x00\x00\x80?\x00\x00\x80?\x00\x00\x80?\x00\x00\x80?\x00\x00\x80?'
S'\x00\x00\x00\x00\x00\x00\x00\x00\x00\x00\x00\x00\x00\x00\x00\x00\x00\x00\x00\x00\x00\x00\x00\x00\x00\x00\x00\x00\x00\x00\x00\x00\x00\x00\x00\x00\x00\x00\x00\x00\x00\x00\x00\x00\x00\x00\x00\x00\x00\x00\x00\x00\x00\x00\x00\x00\x00\x00\x00\x00\x00\x00\x00\x00\x00\x00\x00\x00\x00\x00\x00\x00\x00\x00\x00\x00\x00\x00\x00\x00\x00\x00\x00\x00\x00\x00\x00\x00\x00\x00\x00\x00\x00\x00\x00\x00\x00\x00\x00\x00\x00\x00\x00\x00\x00\x00\x00\x00\x00\x00\x00\x00\x00\x00\x00\x00\x00\x00\x00\x00\x00\x00\x00\x00\x00\x00\x00\x00\x00\x00\x00\x00\x00\x00\x00\x00\x00\x00\x00\x00\x00\x00\x00\x00\x00\x00\x00\x00\x00\x00\x00\x00\x00\x00\x00\x00\x00\x00\x00\x00\x00\x00\x00\x00\x00\x00\x00\x00\x00\x00\x00\x00\x00\x00\x00\x00\x00\x00\x00\x00\x00\x00\x00\x00\x00\x00\x00\x00\x00\x00\x00\x00\x00\x00\x00\x00\x00\x00\x00\x00\x00\x00\x00\x00\x00\x00\x00\x00\x00\x00\x00\x00\x00\x00\x00\x00\x00\x00\x00\x00\x00\x00\x00\x00\x00\x00\x00\x00\x00\x00\x00\x00\x00\x00\x00\x00\x00\x00\x00\x00\x00\x00\x00\x00\x00\x00\x00\x00\x00\x00\x00\x00\x00\x00\x00\x00\x00\x00\x00\x00\x00\x00\x00\x00\x00\x00\x00\x00\x00\x00\x00\x00\x00\x00\x00\x00\x00\x00\x00\x00\x00\x00\x00\x00\x00\x00\x00\x00\x00\x00\x00\x00\x00\x00\x00\x00\x00\x00\x00\x00\x00\x00\x00\x00\x00\x00\x00\x00\x00\x00\x00\x00\x00\x00\x00\x00\x00\x00\x00\x00\x00\x00\x00\x00\x00\x00\x00\x00\x00\x00\x00\x00\x00\x00\x00\x00\x00\x00\x00\x00\x00\x00\x00\x00\x00\x00\x00\x00\x00\x00\x00\x00\x00\x00\x00\x00\x00\x00\x00\x00\x00\x00\x00\x00\x00\x00\x00\x00\x00\x00\x00\x00\x00\x00\x00\x00\x00\x00\x00\x00\x00\x00\x00\x00\x00\x00\x00\x00\x00\x00\x00\x00\x00\x00\x00\x00\x00\x00\x00\x00\x00\x00\x00\x00\x00\x00\x00\x00\x00\x00\x00\x00\x00\x00\x00\x00\x00\x00\x00\x00\x00\x00\x00\x00\x00\x00\x00\x00\x00\x00\x00\x00\x00\x00\x00\x00\x00\x00\x00\x00\x00\x00\x00\x00\x00\x00\x00\x00\x00\x00\x00\x00\x00\x00\x00\x00\x00\x00\x00\x00\x00\x00\x00\x00\x00\x00\x00\x00\x00\x00\x00\x00\x00\x00\x00\x00\x00\x00\x00\x00\x00\x00\x00\x00\x00\x00\x00\x00\x00\x00\x00\x00\x00\x00\x00\x00\x00\x00\x00\x00\x00\x00\x00\x00\x00\x00\x00\x00\x00\x00\x00\x00\x00\x00\x00\x00\x00\x00\x00\x00\x00\x00\x00\x00\x00\x00\x00\x00\x00\x00\x00\x00\x00\x00\x00\x00\x00\x00\x00\x00\x00\x00\x00\x00\x00\x00\x00\x00\x00\x00\x00\x00\x00\x00\x00\x00\x00\x00\x00\x00\x00\x00\x00\x00\x00\x00\x00\x00\x00\x00\x00\x00\x00\x00\x00\x00\x00\x00\x00\x00\x00\x00\x00\x00\x00\x00\x00\x00\x00\x00\x00\x00\x00\x00\x00\x00\x00\x00\x00\x00'
Ntbsg56
g49
(g50
g51
g52
S'b'
tRp4710
(I1
(I600
I1
tg55
I00
S'\x00\x00\x16C\x00\x80\xa4C\x00\x80\xa0C\x00\x00\xa2B\x00\x00\x80A\x00\x00\xb8C\x00\x80\x89C\x00\x00\xbbC\x00\x00\xa1C\x00\x00HC\x00\x00\x9aC\x00\x80\xcfC\x00\x80\xc5C\x00\x80\xe4C\x00\x00\xceC\x00\x80\x11D\x00\x00&C\x00\x00\xa2C\x00\x00\xa6C\x00\x00\xbdC\x00\x00XC\x00\x00\xa4B\x00\x80\xbbC\x00\x00\x8fC\x00\x00\xb4B\x00\x80\xb9C\x00\xc0\x13D\x00\x00\x10D\x00\x00\xfeC\x00\x00\xc7C\x00\x00aC\x00\x00\x0fD\x00\x00\xfaB\x00\x00NC\x00\x00^C\x00\x00\x15C\x00\x00\x00\x00\x00\x00\xe8C\x00\x80\xfeC\x00\x80\xceC\x00\x00\xb1C\x00\x80\xeeC\x00\x00\x12D\x00\x00\xb4C\x00\x00(B\x00\x00\xbfC\x00\x00\xfbC\x00\x00\x90A\x00\x00\xb2B\x00\x80\xa7C\x00\x00zC\x00\x00\xb6B\x00\x00\xeeC\x00\x80\xeaC\x00\x80\xd1C\x00\x00\x0fC\x00\x00\xd8A\x00\x00\x80C\x00\x004C\x00\x00\x9eC\x00@\x07D\x00\x00\xe6B\x00\x00\x92C\x00\xc0\x04D\x00\x00RC\x00\x003C\x00\x80\x08D\x00\x00\x07D\x00\x00\xe2C\x00\x80\xb0C\x00\x001C\x00\x00$C\x00\x80\xb8C\x00\x00`C\x00\x00\x15D\x00\x00$B\x00\x80\xb2C\x00\x80\xc4C\x00\x00\xb9C\x00\x00\xe8A\x00\x80\x8aC\x00\x80\x92C\x00\x00\xc5C\x00\x80\xf8C\x00\xc0\x01D\x00\x80\xd6C\x00\xc0\x02D\x00\x00tB\x00@\x03D\x00\x00\x1fC\x00\x00\x10B\x00\x80\nD\x00\x00\x94C\x00\x00\xf6B\x00\x00\x00@\x00\x00,B\x00\x00\x10A\x00\x00\xa4C\x00\x00xB\x00\x00bC\x00\x00 B\x00\x00\x00A\x00\x00dB\x00\x00\x82B\x00\x80\x83C\x00\x00ZC\x00\x00PB\x00\x00TC\x00\x00@A\x00\x009C\x00\xc0\x0cD\x00\x80\x86C\x00\x00 C\x00\x00\xfcB\x00\x00\x18B\x00\x00cC\x00\xc0\x14D\x00\x80\x93C\x00@\x06D\x00\x00\xb2C\x00\x00DC\x00\x80\x96C\x00\x00\tD\x00\x00\x06D\x00\x00\xa9C\x00\x00\x00D\x00\x80\xd7C\x00\x006C\x00\x00\xf4C\x00\x00\xaaB\x00\x00 A\x00\x00\xa8A\x00\x80\x14D\x00\x00\xadC\x00\x00\xc1C\x00\x00!C\x00\x00\xc4C\x00\x00\x1cC\x00\x00\x03D\x00\x00\x04C\x00\x00\xd6C\x00\x00GC\x00\x00\x11D\x00\x00\xe0@\x00\x80\xb5C\x00\x00JC\x00\x80\x15D\x00\x00`A\x00\x80\x9aC\x00\x00\xacC\x00\x00+C\x00\x80\xc1C\x00\x007C\x00\x00pA\x00\x80\x91C\x00\x00TB\x00\x00xC\x00\x80\x02D\x00\x80\x9bC\x00\x00\x98B\x00\x00\xa6B\x00\x00\xdeB\x00\x00\x13D\x00\x00\x8aB\x00\x80\xe1C\x00\x80\xf1C\x00\x00\xd5C\x00\x00\xe7C\x00\x00\x87C\x00\x00\xd0A\x00\x00\xf5C\x00\x00\x88A\x00\x80\xb1C\x00\x80\tD\x00\x00nC\x00\x00\xb0C\x00\x00\xc6C\x00\x00\x04B\x00\x00CC\x00\x00#C\x00@\x13D\x00\x00\x98C\x00\x80\xd0C\x00@\x00D\x00\x00\xe2B\x00\x000C\x00\x80\x95C\x00\x80\x9fC\x00\x00\x93C\x00\x80\x90C\x00\x00oC\x00\x00\xafC\x00\x00\x9fC\x00\x00hB\x00\x00\xb3C\x00\x80\xffC\x00\x00\xebC\x00\x00\xe4B\x00\x00\xccB\x00\x00YC\x00\x00\x1dC\x00\x00wC\x00\x00\x86B\x00\x00LB\x00\x00\xe0B\x00\x00\x08B\x00\x00\x9cC\x00\x80\xfcC\x00\x00<B\x00\x00\x84B\x00@\x14D\x00\x80\xefC\x00\x80\xdbC\x00\x00\xd2B\x00\x00\xaeB\x00\x00\x1eC\x00\x80\xa8C\x00@\tD\x00\x008C\x00\x80\x8dC\x00\x00{C\x00\x00\xfcC\x00\x00\x02C\x00\x00\xf0B\x00\x80\x12D\x00\x00\x97C\x00\x00\x8dC\x00\x005C\x00\x80\x06D\x00\x80\x8fC\x00@\x12D\x00\x00\xa5C\x00\xc0\x03D\x00\x80\x80C\x00\x80\xf0C\x00\x80\xf3C\x00\x80\x84C\x00\x00\xe5C\x00\x00\xbcB\x00\x00\xd2C\x00\x80\xaaC\x00\x00,C\x00\xc0\tD\x00\x00IC\x00\x00fC\x00\x00\xcfC\x00\x80\xc6C\x00@\x0bD\x00\x00lB\x00\x00\xdcC\x00\x80\xbeC\x00\x00\xa7C\x00\x00\xb5C\x00\x00\xe8B\x00\x00\xb7C\x00\x00\xeeB\x00\x80\xf4C\x00\x80\xe5C\x00\x00\x82C\x00\x80\x04D\x00\x00\x7fC\x00\x00\xd0C\x00\x00\xc6B\x00\x00\tC\x00\x00\x9bC\x00\x80\xb4C\x00\x00\xaeC\x00\x80\x0cD\x00\x80\xbdC\x00\x00\x14B\x00\x00\x8cC\x00\x00\xfdC\x00\x00\x18C\x00\x00\x90B\x00\x00\x00C\x00\x00\xa0@\x00\x00\xf7C\x00\x00\x02D\x00\xc0\x00D\x00\x00\x80B\x00\x00BC\x00\x00@@\x00\x80\x0eD\x00\x00<C\x00\x00\xcbC\x00\x80\xa9C\x00\x00\xe0A\x00\x00\x08D\x00@\rD\x00\x00\xc9C\x00\x00HB\x00\x00\xc0A\x00\x00\xc4B\x00\x00\rC\x00\x80\x9eC\x00\x00\xa8B\x00\x00\x0eD\x00\x00\\C\x00\x00\xbaB\x00\x00\xf8A\x00@\x02D\x00\x80\xc8C\x00\x00\xa8C\x00\x80\x98C\x00\x00\xf0A\x00\x00@C\x00\x80\xf9C\x00\x00\xe1C\x00\x00\x8eB\x00\x80\x9dC\x00\x00WC\x00\x00yC\x00\x00\x08C\x00\x00\xf6C\x00\x00gC\x00\x00\xfeB\x00\x80\x97C\x00\x80\x9cC\x00\x80\xd8C\x00\x80\xc7C\x00\x80\xe2C\x00\x00\xc2C\x00\x00\xfaC\x00@\nD\x00@\x0eD\x00\x00\xc8C\x00\x80\xf6C\x00\x008B\x00\x00\xf4B\x00\x00\xf3C\x00\x00\x03C\x00\x80\x05D\x00\x00\'C\x00\x00\x90C\x00\x00eC\x00\x80\xacC\x00\x00\xdaC\x00\x80\xa5C\x00\x80\xbaC\x00\x80\x87C\x00\x80\xccC\x00\x00SC\x00\x00\x1aC\x00\x80\x85C\x00\x80\x01D\x00\x00\xb8A\x00\x00\x89C\x00\x00\xc0@\x00\x00\x0cB\x00\x80\xecC\x00\xc0\x06D\x00\x80\xd9C\x00\x80\xe7C\x00\x00(C\x00\x80\x07D\x00@\x11D\x00\x80\xf5C\x00\x00)C\x00@\x05D\x00\x00\x11C\x00\x00\x98A\x00\x00rC\x00\x80\xebC\x00\x00\x8bC\x00\x80\xd3C\x00\x00\xdeC\x00\x80\xcdC\x00\x80\x0bD\x00\xc0\x08D\x00\x00\xccC\x00\x00\xacB\x00\x80\xcbC\x00\x00FC\x00\x00\x14D\x00\x80\xf2C\x00\x00kC\x00\x80\x03D\x00\x80\xe0C\x00\x80\xdfC\x00\x00\x14C\x00\x80\xc3C\x00\x80\xcaC\x00\x00*C\x00\x00\x01C\x00\x00\x9dC\x00\x00\x0eC\x00\x00OC\x00\x002C\x00@\x10D\x00\x00\x80@\x00\x00\xbcC\x00\x00>C\x00\x00\xddC\x00\x00\x96C\x00\x00\x91C\x00\x80\rD\x00\x00\xc8B\x00\x00@B\x00\x00\x0bC\x00\x80\x8cC\x00\x80\xdeC\x00\x80\xd2C\x00\x00\xd4C\x00\x00QC\x00\x80\x8eC\x00\x00qC\x00\x00\xe9C\x00\x00vC\x00\x80\xb3C\x00@\x0fD\x00\x00\xdaB\x00\x00\xffC\x00\x80\x82C\x00\x00\xceB\x00\x80\xafC\x00\x00\x86C\x00\x00DB\x00\x00\xd4B\x00\x00\xd6B\x00\x00\xb0B\x00@\x08D\x00\x00\xdbC\x00\x80\xaeC\x00\x80\x10D\x00\x00\x8aC\x00\x80\xc2C\x00\x00\x1cB\x00\x00\xa0A\x00\x80\xa1C\x00\xc0\x0eD\x00\x00|B\x00\x00\x00B\x00\x00\x0cC\x00\x00\x83C\x00\x80\xfbC\x00\x80\xe3C\x00\x00\xbeB\x00\x80\x99C\x00\x80\xbcC\x00\x00\xd8B\x00\x00\xe6C\x00\x00dC\x00\x00/C\x00\x00\x0cD\x00\x00\xecB\x00\x00EC\x00\x00\xa0C\x00\xc0\x10D\x00\x00\x9aB\x00\x00_C\x00\x00}C\x00\x00\x17C\x00\x00UC\x00\x000A\x00\x00\xabC\x00\x00~C\x00\x00AC\x00\x80\xe9C\x00\x00\xb8B\x00\x00\xedC\x00\x00\xf8B\x00\x80\xdaC\x00\x00\x05C\x00\x00\xc3C\x00\x00\xa0B\x00\x80\x00D\x00\x00\x8cB\x00\x00LC\x00\x00\xd3C\x00\xc0\x11D\x00\x00jC\x00\x00?C\x00\x00\xc0B\x00\x80\x88C\x00\x80\xfdC\x00\x00\x0bD\x00\x80\xd4C\x00\x00KC\x00@\x01D\x00\x00\x06C\x00\x80\xe8C\x00\x00PA\x00\x00\x04D\x00\x00lC\x00\x80\xfaC\x00\x00\xc0C\x00\x80\x8bC\x00\x80\x0fD\x00\x00\xcaC\x00\x00\xbeC\x00\x00\xf8C\x00\x00\xefC\x00\x00\xe3C\x00\x00\x88C\x00\x00\xf2B\x00\x80\xb6C\x00\x00\x13C\x00\x00\nD\x00\x00"C\x00\x00\x10C\x00\x80\xb7C\x00\x00\xd0B\x00\x00\xc2B\x00\x00hC\x00\x80\xd5C\x00\x80\xc9C\x00\xc0\rD\x00\x80\xedC\x00\x00\xc8A\x00\x00\xf1C\x00\x00\xe0C\x00\x00\xd7C\x00\x00MC\x00\x00\xdcB\x00\x00\xcdC\x00\xc0\x05D\x00\x00PC\x00\x80\xbfC\x00\x80\x94C\x00\x00sC\x00\x00\xb0A\x00\x00\rD\x00\x00\xeaC\x00\x00\xd8C\x00@\x15D\x00\x00\nC\x00\x00\xa3C\x00\x00\xeaB\x00\x00]C\x00\xc0\x0fD\x00\x80\xe6C\x00\x00\x94B\x00\x80\x13D\x00\x00tC\x00\x00iC\x00\x80\xadC\x00\x00.C\x00\x80\xabC\x00\x00\xf9C\x00\x00XB\x00\xc0\x12D\x00\x00\\B\x00\x00\xbaC\x00\x80\xa2C\x00\x80\xa6C\x00\x00\xf0C\x00\x00\xdfC\x00\x00mC\x00\x00uC\x00\x00=C\x00\x00\xecC\x00\x00-C\x00\x80\x81C\x00\x00|C\x00\x00;C\x00\x80\xdcC\x00\x00\x1bC\x00\x00\x92B\x00\x00[C\x00\x00\x19C\x00\x00%C\x00\x00pB\x00\x00\x05D\x00\x00\xe4C\x00\x00\x9eB\x00\x00pC\x00@\x0cD\x00\x000B\x00\x00\x07C\x00\x80\xa3C\x00\x00\xd1C\x00\xc0\x15D\x00@\x04D\x00\x00\xf2C\x00\x00\xd9C\x00\x80\xddC\x00\x00\xb6C\x00\x00\x12C\x00\x80\xf7C\x00\x80\xc0C\x00\xc0\x0bD\x00\x00VC\x00\x00\x88B\x00\x00\x99C\x00\x004B\x00\x00\x81C\x00\x00\x80?\x00\x00\x84C\x00\x00\x01D\x00\x00\x85C\x00\xc0\nD\x00\x00\x96B\x00\x00\xaaC\x00\x00\x95C\x00\x00\x8eC\x00\x00`B\x00\x00\x9cB\x00\x00:C\x00\x00\xcaB\x00\xc0\x07D'
S'\x00\x00\x00\x00\x00\x00\x00\x00\x00\x00\x00\x00\x00\x00\x00\x00\x00\x00\x00\x00\x00\x00\x00\x00\x00\x00\x00\x00\x00\x00\x00\x00\x00\x00\x00\x00\x00\x00\x00\x00\x00\x00\x00\x00\x00\x00\x00\x00\x00\x00\x00\x00\x00\x00\x00\x00\x00\x00\x00\x00\x00\x00\x00\x00\x00\x00\x00\x00\x00\x00\x00\x00\x00\x00\x00\x00\x00\x00\x00\x00\x00\x00\x00\x00\x00\x00\x00\x00\x00\x00\x00\x00\x00\x00\x00\x00\x00\x00\x00\x00\x00\x00\x00\x00\x00\x00\x00\x00\x00\x00\x00\x00\x00\x00\x00\x00\x00\x00\x00\x00\x00\x00\x00\x00\x00\x00\x00\x00\x00\x00\x00\x00\x00\x00\x00\x00\x00\x00\x00\x00\x00\x00\x00\x00\x00\x00\x00\x00\x00\x00\x00\x00\x00\x00\x00\x00\x00\x00\x00\x00\x00\x00\x00\x00\x00\x00\x00\x00\x00\x00\x00\x00\x00\x00\x00\x00\x00\x00\x00\x00\x00\x00\x00\x00\x00\x00\x00\x00\x00\x00\x00\x00\x00\x00\x00\x00\x00\x00\x00\x00\x00\x00\x00\x00\x00\x00\x00\x00\x00\x00\x00\x00\x00\x00\x00\x00\x00\x00\x00\x00\x00\x00\x00\x00\x00\x00\x00\x00\x00\x00\x00\x00\x00\x00\x00\x00\x00\x00\x00\x00\x00\x00\x00\x00\x00\x00\x00\x00\x00\x00\x00\x00\x00\x00\x00\x00\x00\x00\x00\x00\x00\x00\x00\x00\x00\x00\x00\x00\x00\x00\x00\x00\x00\x00\x00\x00\x00\x00\x00\x00\x00\x00\x00\x00\x00\x00\x00\x00\x00\x00\x00\x00\x00\x00\x00\x00\x00\x00\x00\x00\x00\x00\x00\x00\x00\x00\x00\x00\x00\x00\x00\x00\x00\x00\x00\x00\x00\x00\x00\x00\x00\x00\x00\x00\x00\x00\x00\x00\x00\x00\x00\x00\x00\x00\x00\x00\x00\x00\x00\x00\x00\x00\x00\x00\x00\x00\x00\x00\x00\x00\x00\x00\x00\x00\x00\x00\x00\x00\x00\x00\x00\x00\x00\x00\x00\x00\x00\x00\x00\x00\x00\x00\x00\x00\x00\x00\x00\x00\x00\x00\x00\x00\x00\x00\x00\x00\x00\x00\x00\x00\x00\x00\x00\x00\x00\x00\x00\x00\x00\x00\x00\x00\x00\x00\x00\x00\x00\x00\x00\x00\x00\x00\x00\x00\x00\x00\x00\x00\x00\x00\x00\x00\x00\x00\x00\x00\x00\x00\x00\x00\x00\x00\x00\x00\x00\x00\x00\x00\x00\x00\x00\x00\x00\x00\x00\x00\x00\x00\x00\x00\x00\x00\x00\x00\x00\x00\x00\x00\x00\x00\x00\x00\x00\x00\x00\x00\x00\x00\x00\x00\x00\x00\x00\x00\x00\x00\x00\x00\x00\x00\x00\x00\x00\x00\x00\x00\x00\x00\x00\x00\x00\x00\x00\x00\x00\x00\x00\x00\x00\x00\x00\x00\x00\x00\x00\x00\x00\x00\x00\x00\x00\x00\x00\x00\x00\x00\x00\x00\x00\x00\x00\x00\x00\x00\x00\x00\x00\x00\x00\x00\x00\x00\x00\x00\x00\x00\x00\x00\x00\x00\x00\x00\x00\x00\x00\x00\x00\x00\x00\x00\x00\x00\x00\x00\x00\x00\x00\x00\x00\x00\x00\x00\x00\x00\x00\x00\x00\x00\x00\x00\x00\x00\x00\x00\x00\x00\x00\x00\x00\x00\x00\x00\x00\x00\x00\x00\x00\x00\x00\x00\x00\x00\x00\x00\x00\x00\x00\x00\x00\x00'
NtbstRp4711
(dp4712
g60
(dp4713
g48
I01
sg56
I01
ssg62
g4705
sg63
(lp4714
g48
ag56
asg65
(lp4715
I600
aI1
asbsg67
S'random'
p4716
sg69
g70
(g51
(I0
tS'b'
tRp4717
(I1
(I600
I1
tg54
(S'i4'
I0
I1
tRp4718
(I3
S'<'
NNNI-1
I-1
I0
tbI01
S'$\x00\x00\x00J\x02\x00\x00^\x00\x00\x00\x19\x01\x00\x00\x85\x01\x00\x00\x13\x01\x00\x00[\x01\x00\x00\x8f\x00\x00\x00e\x00\x00\x00`\x00\x00\x00\x82\x00\x00\x00\xc5\x01\x00\x00l\x00\x00\x00\xe1\x01\x00\x00\x93\x00\x00\x00\x99\x00\x00\x00\x04\x00\x00\x00\xab\x00\x00\x00/\x00\x00\x00h\x01\x00\x00\xab\x01\x00\x00\x83\x00\x00\x00\x08\x02\x00\x00Y\x01\x00\x00#\x01\x00\x00\xfc\x01\x00\x00\xa9\x00\x00\x008\x00\x00\x00\x1e\x01\x00\x00O\x00\x00\x000\x01\x00\x00+\x01\x00\x00\xaf\x01\x00\x00\xb1\x00\x00\x00\xcd\x00\x00\x00\\\x01\x00\x00Z\x00\x00\x00\r\x01\x00\x00r\x00\x00\x00\xaa\x01\x00\x00d\x00\x00\x00K\x00\x00\x00,\x00\x00\x00_\x00\x00\x007\x02\x00\x00H\x02\x00\x00G\x01\x00\x00\xd0\x00\x00\x00\x8d\x01\x00\x00\xa0\x01\x00\x00"\x01\x00\x00\xcb\x00\x00\x00j\x00\x00\x00\x9b\x00\x00\x00\x1b\x02\x00\x00\x1d\x02\x00\x00S\x02\x00\x00f\x00\x00\x00\xc1\x00\x00\x00\xf8\x00\x00\x001\x02\x00\x00W\x00\x00\x00b\x00\x00\x00\xae\x01\x00\x00\x17\x01\x00\x00g\x00\x00\x00\xd1\x00\x00\x00\xca\x00\x00\x00F\x02\x00\x00\xa3\x00\x00\x00\xd2\x01\x00\x004\x01\x00\x00\x11\x01\x00\x00-\x02\x00\x00\x13\x02\x00\x00O\x02\x00\x00\x9f\x00\x00\x00\xc0\x01\x00\x00T\x02\x00\x004\x02\x00\x00\xd0\x01\x00\x00\x03\x00\x00\x00\x15\x00\x00\x00\xa0\x00\x00\x00\'\x01\x00\x00\x81\x00\x00\x00r\x01\x00\x00\xd6\x00\x00\x00\xa3\x01\x00\x000\x00\x00\x00\x18\x00\x00\x003\x00\x00\x00\xca\x01\x00\x00*\x01\x00\x00\xee\x00\x00\x00\xb4\x01\x00\x00\xd8\x01\x00\x00\xf6\x01\x00\x00$\x01\x00\x00\x06\x01\x00\x00\x8c\x01\x00\x00V\x02\x00\x00\xc6\x00\x00\x00\x9d\x01\x00\x00\xf5\x01\x00\x00\xd5\x00\x00\x00\xa1\x01\x00\x00\xa2\x01\x00\x00\xb7\x01\x00\x00\x9a\x01\x00\x00\x01\x02\x00\x00\xa1\x00\x00\x00\xcc\x00\x00\x00\xb8\x00\x00\x00\xc5\x00\x00\x00=\x00\x00\x00\xfd\x00\x00\x00\x0f\x02\x00\x00\xbc\x01\x00\x00\xff\x00\x00\x00\xdf\x00\x00\x00\xee\x01\x00\x00H\x01\x00\x00]\x00\x00\x00\xcc\x01\x00\x00 \x00\x00\x00q\x00\x00\x00;\x01\x00\x00\x12\x01\x00\x00\x7f\x01\x00\x00\xde\x00\x00\x00J\x01\x00\x00\x8b\x00\x00\x00\xce\x01\x00\x00\xdf\x01\x00\x008\x02\x00\x008\x01\x00\x00\x07\x01\x00\x00\r\x02\x00\x00\x8e\x01\x00\x00\xb0\x01\x00\x00%\x01\x00\x00\x81\x01\x00\x007\x00\x00\x00\xf3\x01\x00\x00g\x01\x00\x00A\x02\x00\x00\xf0\x01\x00\x00{\x01\x00\x00#\x00\x00\x00\x00\x00\x00\x00\xc3\x01\x00\x00\x10\x01\x00\x00/\x02\x00\x00V\x01\x00\x00,\x02\x00\x00\x89\x00\x00\x00\xc8\x00\x00\x00\xd7\x00\x00\x00Y\x00\x00\x00p\x00\x00\x00\x87\x00\x00\x00\xf2\x01\x00\x00\xb3\x00\x00\x00G\x00\x00\x000\x02\x00\x00\x10\x00\x00\x00L\x01\x00\x00a\x01\x00\x00e\x01\x00\x00~\x01\x00\x00\x96\x00\x00\x00\xf1\x00\x00\x00\'\x02\x00\x00\x18\x02\x00\x00\xba\x01\x00\x00\xb9\x00\x00\x00F\x00\x00\x00\x83\x01\x00\x00A\x00\x00\x00:\x00\x00\x00\xe3\x00\x00\x00\x7f\x00\x00\x00\x98\x00\x00\x00\xda\x00\x00\x00m\x00\x00\x00U\x02\x00\x00*\x02\x00\x00\x1b\x01\x00\x00%\x02\x00\x00\x87\x01\x00\x00\xd7\x01\x00\x001\x01\x00\x00\xc8\x01\x00\x00\x18\x01\x00\x00\xb2\x00\x00\x00x\x00\x00\x00\xbd\x01\x00\x00t\x01\x00\x00\x8d\x00\x00\x00\t\x00\x00\x00\xf3\x00\x00\x00\x91\x00\x00\x00\xdd\x01\x00\x00\xd3\x01\x00\x00\x00\x02\x00\x00!\x00\x00\x00\x82\x01\x00\x00\x04\x02\x00\x00\x93\x01\x00\x00@\x00\x00\x00U\x01\x00\x00k\x00\x00\x00\xc4\x01\x00\x00E\x02\x00\x006\x01\x00\x00\x14\x00\x00\x00\xc7\x00\x00\x00i\x00\x00\x00.\x02\x00\x00)\x01\x00\x00\x10\x02\x00\x00"\x00\x00\x00\xc1\x01\x00\x00I\x00\x00\x00\x1e\x00\x00\x00c\x00\x00\x00s\x00\x00\x00\xb9\x01\x00\x00N\x01\x00\x00\xf4\x00\x00\x00:\x01\x00\x00\xf7\x01\x00\x00\x16\x02\x00\x00\xd6\x01\x00\x00w\x01\x00\x00\xe3\x01\x00\x00#\x02\x00\x00\xae\x00\x00\x00\xbe\x00\x00\x005\x02\x00\x00\x95\x01\x00\x00i\x01\x00\x00\x07\x02\x00\x00\x15\x02\x00\x00$\x02\x00\x00\x97\x01\x00\x00\xc9\x00\x00\x00\x9c\x00\x00\x007\x01\x00\x002\x00\x00\x00\xdc\x00\x00\x00)\x02\x00\x00\xc2\x01\x00\x00\xc7\x01\x00\x00\x04\x01\x00\x009\x00\x00\x00\xe9\x00\x00\x00I\x02\x00\x00(\x02\x00\x00\x02\x01\x00\x00\x9c\x01\x00\x00\xb1\x01\x00\x00h\x00\x00\x00K\x02\x00\x00\xec\x00\x00\x00M\x02\x00\x00W\x01\x00\x00\x9f\x01\x00\x00o\x00\x00\x00\xa8\x00\x00\x00S\x01\x00\x00\xed\x01\x00\x00\xd9\x01\x00\x00Z\x01\x00\x00\x06\x00\x00\x00\xa8\x01\x00\x00P\x00\x00\x00k\x01\x00\x00\xe6\x01\x00\x00\x0e\x01\x00\x00\x8f\x01\x00\x00\xe2\x00\x00\x00\xdb\x00\x00\x00R\x02\x00\x00\x94\x01\x00\x00\x17\x00\x00\x00\xe5\x00\x00\x00M\x01\x00\x00\xbd\x00\x00\x00\x8a\x01\x00\x00\x9a\x00\x00\x00>\x00\x00\x00Q\x00\x00\x00\xbc\x00\x00\x00u\x00\x00\x00\\\x00\x00\x00\x06\x02\x00\x00Q\x02\x00\x00\xba\x00\x00\x00\x89\x01\x00\x00y\x00\x00\x00\xe1\x00\x00\x00<\x01\x00\x00\xb5\x00\x00\x00/\x01\x00\x00G\x02\x00\x00\xb5\x01\x00\x00\n\x00\x00\x00\x94\x00\x00\x00\x08\x01\x00\x00\x9e\x00\x00\x00\xce\x00\x00\x00=\x01\x00\x00\x80\x01\x00\x005\x01\x00\x00;\x00\x00\x00&\x01\x00\x00\xc0\x00\x00\x00\xbb\x00\x00\x00\xbe\x01\x00\x00\x02\x00\x00\x00\x08\x00\x00\x00\xac\x01\x00\x00\x11\x00\x00\x00\x1f\x02\x00\x00\x0e\x02\x00\x009\x02\x00\x00a\x00\x00\x00\x01\x00\x00\x00\xe7\x00\x00\x00Q\x01\x00\x00\x12\x00\x00\x00 \x02\x00\x00\xfb\x00\x00\x001\x00\x00\x00.\x01\x00\x00\xd8\x00\x00\x00|\x00\x00\x00\x1d\x01\x00\x00P\x02\x00\x00\xf0\x00\x00\x00\xc6\x01\x00\x00\x19\x02\x00\x00\x95\x00\x00\x00O\x01\x00\x00\x85\x00\x00\x00\x17\x02\x00\x00\n\x01\x00\x00\xa6\x01\x00\x00\xbf\x00\x00\x00\x9e\x01\x00\x00\xaf\x00\x00\x00E\x00\x00\x00(\x00\x00\x00\xac\x00\x00\x00w\x00\x00\x00L\x00\x00\x00\xc2\x00\x00\x00\x98\x01\x00\x00+\x00\x00\x00\t\x01\x00\x00\xfc\x00\x00\x00\x90\x00\x00\x00@\x02\x00\x00\xef\x01\x00\x00\xfe\x00\x00\x00\xf4\x01\x00\x00\x05\x00\x00\x00H\x00\x00\x00N\x00\x00\x00\x19\x00\x00\x00\x1e\x02\x00\x00R\x01\x00\x00\x07\x00\x00\x00\x16\x00\x00\x00\x86\x01\x00\x00\xb6\x01\x00\x00\x13\x00\x00\x00\x0c\x01\x00\x00\xe9\x01\x00\x00\xfa\x00\x00\x00-\x00\x00\x00\x05\x02\x00\x00\xe5\x01\x00\x00C\x02\x00\x00\x86\x00\x00\x00\x97\x00\x00\x00A\x01\x00\x00\xa9\x01\x00\x00\xcf\x01\x00\x00|\x01\x00\x00\x88\x00\x00\x00M\x00\x00\x00R\x00\x00\x00\x0c\x00\x00\x00\xb0\x00\x00\x00\xf6\x00\x00\x00\x1d\x00\x00\x00?\x01\x00\x00E\x01\x00\x00-\x01\x00\x00!\x01\x00\x00\xf9\x01\x00\x00\xe8\x01\x00\x00}\x01\x00\x00\x1c\x01\x00\x00s\x01\x00\x00q\x01\x00\x00T\x01\x00\x00\x02\x02\x00\x00n\x01\x00\x00\x0e\x00\x00\x00\'\x00\x00\x00\xf5\x00\x00\x00\x0b\x00\x00\x00\x05\x01\x00\x00\xb6\x00\x00\x00:\x02\x00\x006\x00\x00\x00\xef\x00\x00\x00\x91\x01\x00\x00\xd4\x01\x00\x00l\x01\x00\x00\x92\x01\x00\x00\xdc\x01\x00\x00\xa6\x00\x00\x00\xf8\x01\x00\x00\x8c\x00\x00\x00U\x00\x00\x00\xff\x01\x00\x00~\x00\x00\x00\x0b\x02\x00\x00>\x01\x00\x00>\x02\x00\x00_\x01\x00\x00P\x01\x00\x00\xcd\x01\x00\x00\xa5\x01\x00\x00\xd4\x00\x00\x00\xf9\x00\x00\x00+\x02\x00\x00\x88\x01\x00\x00?\x02\x00\x00m\x01\x00\x00\x90\x01\x00\x00"\x02\x00\x00z\x01\x00\x00\xfe\x01\x00\x00y\x01\x00\x003\x01\x00\x00\xa4\x00\x00\x00D\x00\x00\x00@\x01\x00\x00\xec\x01\x00\x00\xb3\x01\x00\x003\x02\x00\x00\r\x00\x00\x00\xed\x00\x00\x00\x01\x01\x00\x00\xb8\x01\x00\x00\x12\x02\x00\x00\xa7\x00\x00\x00`\x01\x00\x00%\x00\x00\x00\xe0\x01\x00\x00\x96\x01\x00\x00\xc9\x01\x00\x00\n\x02\x00\x005\x00\x00\x00\xc4\x00\x00\x00j\x01\x00\x00&\x02\x00\x00]\x01\x00\x00\xcb\x01\x00\x00\xfb\x01\x00\x004\x00\x00\x00)\x00\x00\x00\xeb\x01\x00\x00\xd3\x00\x00\x00!\x02\x00\x00\xea\x00\x00\x00\xfd\x01\x00\x00\xa5\x00\x00\x00=\x02\x00\x00v\x01\x00\x00I\x01\x00\x00\xeb\x00\x00\x00\x80\x00\x00\x00\x00\x01\x00\x00\xaa\x00\x00\x00d\x01\x00\x009\x01\x00\x00F\x01\x00\x00\x14\x01\x00\x00B\x02\x00\x00\xea\x01\x00\x00S\x00\x00\x00\x1a\x02\x00\x002\x01\x00\x00B\x01\x00\x00\xe4\x01\x00\x00.\x00\x00\x00\xb2\x01\x00\x00\xdd\x00\x00\x00\xcf\x00\x00\x00\x0f\x01\x00\x00\xda\x01\x00\x00\x1c\x00\x00\x00&\x00\x00\x00\x9b\x01\x00\x00\xc3\x00\x00\x00}\x00\x00\x00\xb7\x00\x00\x00\xd1\x01\x00\x00\x16\x01\x00\x00L\x02\x00\x00\xde\x01\x00\x00X\x01\x00\x00T\x00\x00\x00\x15\x01\x00\x00,\x01\x00\x00\x9d\x00\x00\x00V\x00\x00\x00\x8a\x00\x00\x00X\x00\x00\x00x\x01\x00\x00\xe8\x00\x00\x00\xe2\x01\x00\x00<\x02\x00\x00\x03\x01\x00\x00?\x00\x00\x002\x02\x00\x00f\x01\x00\x00K\x01\x00\x00\x03\x02\x00\x00{\x00\x00\x00v\x00\x00\x00\xe4\x00\x00\x00^\x01\x00\x00C\x00\x00\x00<\x00\x00\x00b\x01\x00\x00W\x02\x00\x00\x1f\x01\x00\x00\xa4\x01\x00\x00B\x00\x00\x00p\x01\x00\x00z\x00\x00\x00\xd9\x00\x00\x00\xad\x00\x00\x00\xf2\x00\x00\x00\xf1\x01\x00\x00C\x01\x00\x00[\x00\x00\x00N\x02\x00\x00\xdb\x01\x00\x00\xf7\x00\x00\x00o\x01\x00\x00D\x02\x00\x00\xbb\x01\x00\x006\x02\x00\x00\x0b\x01\x00\x00n\x00\x00\x00\t\x02\x00\x00 \x01\x00\x00\x8b\x01\x00\x00\xfa\x01\x00\x00(\x01\x00\x00D\x01\x00\x00\x1a\x01\x00\x00\xad\x01\x00\x00\x1f\x00\x00\x00\x99\x01\x00\x00\xe7\x01\x00\x00\x11\x02\x00\x00\x1b\x00\x00\x00\x84\x01\x00\x00\xa7\x01\x00\x00\xbf\x01\x00\x00\x8e\x00\x00\x00c\x01\x00\x00\x0f\x00\x00\x00\xd5\x01\x00\x00*\x00\x00\x00\xe6\x00\x00\x00\xe0\x00\x00\x00\x1c\x02\x00\x00\xa2\x00\x00\x00\xb4\x00\x00\x00\x14\x02\x00\x00\x1a\x00\x00\x00u\x01\x00\x00\xd2\x00\x00\x00\x84\x00\x00\x00t\x00\x00\x00J\x00\x00\x00\x0c\x02\x00\x00\x92\x00\x00\x00;\x02\x00\x00'
tbsg74
I01
sg75
I1
sg76
I-1
sg77
(lp4719
I0
aI1
aI2
aI3
aI4
aI5
aI6
aI7
aI8
aI9
aI10
aI11
aI12
aI13
aI14
aI15
aI16
aI17
aI18
aI19
aI20
aI21
aI22
aI23
aI24
aI25
aI26
aI27
aI28
aI29
aI30
aI31
aI32
aI33
aI34
aI35
aI36
aI37
aI38
aI39
aI40
aI41
aI42
aI43
aI44
aI45
aI46
aI47
aI48
aI49
aI50
aI51
aI52
aI53
aI54
aI55
aI56
aI57
aI58
aI59
aI60
aI61
aI62
aI63
aI64
aI65
aI66
aI67
aI68
aI69
aI70
aI71
aI72
aI73
aI74
aI75
aI76
aI77
aI78
aI79
aI80
aI81
aI82
aI83
aI84
aI85
aI86
aI87
aI88
aI89
aI90
aI91
aI92
aI93
aI94
aI95
aI96
aI97
aI98
aI99
aI100
aI101
aI102
aI103
aI104
aI105
aI106
aI107
aI108
aI109
aI110
aI111
aI112
aI113
aI114
aI115
aI116
aI117
aI118
aI119
aI120
aI121
aI122
aI123
aI124
aI125
aI126
aI127
aI128
aI129
aI130
aI131
aI132
aI133
aI134
aI135
aI136
aI137
aI138
aI139
aI140
aI141
aI142
aI143
aI144
aI145
aI146
aI147
aI148
aI149
aI150
aI151
aI152
aI153
aI154
aI155
aI156
aI157
aI158
aI159
aI160
aI161
aI162
aI163
aI164
aI165
aI166
aI167
aI168
aI169
aI170
aI171
aI172
aI173
aI174
aI175
aI176
aI177
aI178
aI179
aI180
aI181
aI182
aI183
aI184
aI185
aI186
aI187
aI188
aI189
aI190
aI191
aI192
aI193
aI194
aI195
aI196
aI197
aI198
aI199
aI200
aI201
aI202
aI203
aI204
aI205
aI206
aI207
aI208
aI209
aI210
aI211
aI212
aI213
aI214
aI215
aI216
aI217
aI218
aI219
aI220
aI221
aI222
aI223
aI224
aI225
aI226
aI227
aI228
aI229
aI230
aI231
aI232
aI233
aI234
aI235
aI236
aI237
aI238
aI239
aI240
aI241
aI242
aI243
aI244
aI245
aI246
aI247
aI248
aI249
aI250
aI251
aI252
aI253
aI254
aI255
aI256
aI257
aI258
aI259
aI260
aI261
aI262
aI263
aI264
aI265
aI266
aI267
aI268
aI269
aI270
aI271
aI272
aI273
aI274
aI275
aI276
aI277
aI278
aI279
aI280
aI281
aI282
aI283
aI284
aI285
aI286
aI287
aI288
aI289
aI290
aI291
aI292
aI293
aI294
aI295
aI296
aI297
aI298
aI299
aI300
aI301
aI302
aI303
aI304
aI305
aI306
aI307
aI308
aI309
aI310
aI311
aI312
aI313
aI314
aI315
aI316
aI317
aI318
aI319
aI320
aI321
aI322
aI323
aI324
aI325
aI326
aI327
aI328
aI329
aI330
aI331
aI332
aI333
aI334
aI335
aI336
aI337
aI338
aI339
aI340
aI341
aI342
aI343
aI344
aI345
aI346
aI347
aI348
aI349
aI350
aI351
aI352
aI353
aI354
aI355
aI356
aI357
aI358
aI359
aI360
aI361
aI362
aI363
aI364
aI365
aI366
aI367
aI368
aI369
aI370
aI371
aI372
aI373
aI374
aI375
aI376
aI377
aI378
aI379
aI380
aI381
aI382
aI383
aI384
aI385
aI386
aI387
aI388
aI389
aI390
aI391
aI392
aI393
aI394
aI395
aI396
aI397
aI398
aI399
aI400
aI401
aI402
aI403
aI404
aI405
aI406
aI407
aI408
aI409
aI410
aI411
aI412
aI413
aI414
aI415
aI416
aI417
aI418
aI419
aI420
aI421
aI422
aI423
aI424
aI425
aI426
aI427
aI428
aI429
aI430
aI431
aI432
aI433
aI434
aI435
aI436
aI437
aI438
aI439
aI440
aI441
aI442
aI443
aI444
aI445
aI446
aI447
aI448
aI449
aI450
aI451
aI452
aI453
aI454
aI455
aI456
aI457
aI458
aI459
aI460
aI461
aI462
aI463
aI464
aI465
aI466
aI467
aI468
aI469
aI470
aI471
aI472
aI473
aI474
aI475
aI476
aI477
aI478
aI479
aI480
aI481
aI482
aI483
aI484
aI485
aI486
aI487
aI488
aI489
aI490
aI491
aI492
aI493
aI494
aI495
aI496
aI497
aI498
aI499
aI500
aI501
aI502
aI503
aI504
aI505
aI506
aI507
aI508
aI509
aI510
aI511
aI512
aI513
aI514
aI515
aI516
aI517
aI518
aI519
aI520
aI521
aI522
aI523
aI524
aI525
aI526
aI527
aI528
aI529
aI530
aI531
aI532
aI533
aI534
aI535
aI536
aI537
aI538
aI539
aI540
aI541
aI542
aI543
aI544
aI545
aI546
aI547
aI548
aI549
aI550
aI551
aI552
aI553
aI554
aI555
aI556
aI557
aI558
aI559
aI560
aI561
aI562
aI563
aI564
aI565
aI566
aI567
aI568
aI569
aI570
aI571
aI572
aI573
aI574
aI575
aI576
aI577
aI578
aI579
aI580
aI581
aI582
aI583
aI584
aI585
aI586
aI587
aI588
aI589
aI590
aI591
aI592
aI593
aI594
aI595
aI596
aI597
aI598
aI599
asg79
Nsg80
cnumpy.core.multiarray
scalar
p4720
(g4718
S';\x02\x00\x00'
tRp4721
sg81
I600
sg82
I0
sg83
I600
sg84
I01
sbag37
asS'savePickle'
p4722
I00
sb.