ccopy_reg
_reconstructor
p1
(cpsychopy.data
ExperimentHandler
p2
c__builtin__
object
p3
NtRp4
(dp5
S'originPath'
p6
NsS'dataFileName'
p7
Vsubject641
p8
sS'runtimeInfo'
p9
NsS'name'
p10
VVERBALRBsubject 641
p11
sS'dataNames'
p12
(lp13
S'Block Number'
p14
aS'Key pressed'
p15
aS'Category'
p16
aS'Correct?'
p17
aS'Int Match?'
p18
aS'Int Response'
p19
aS'Int Correct?'
p20
aS'Line Accuracy'
p21
aS'Interference Accuracy'
p22
aS'Matching Interferences'
p23
aS'New instruction shown?'
p24
aS'Buttons switched?'
p25
aS'Fast?'
p26
asS'autoLog'
p27
I01
sS'extraInfo'
p28
(dp29
S'gender'
p30
Vmale
p31
sS'age'
p32
V20
p33
ssS'loopsUnfinished'
p34
(lp35
g1
(cpsychopy.data
TrialHandler
p36
g3
NtRp37
(dp38
S'origin'
p39
NsS'thisTrial'
p40
I12
sS'_exp'
p41
I82924528
sg10
S''
sg6
S'C:\\Users\\Mike\\Desktop\\Dual2\\NEWSpatialRB.py'
p42
sS'thisRepN'
p43
I39
sg27
I01
sg28
NsS'data'
p44
g1
(cpsychopy.data
DataHandler
p45
c__builtin__
dict
p46
(dp47
S'ran'
p48
cnumpy.ma.core
_mareconstruct
p49
(cnumpy.ma.core
MaskedArray
p50
cnumpy
ndarray
p51
(I0
tp52
S'b'
tRp53
(I1
(I15
I40
tcnumpy
dtype
p54
(S'f4'
I0
I1
tRp55
(I3
S'<'
NNNI-1
I-1
I0
tbI00
S'\x00\x00\x80?\x00\x00\x80?\x00\x00\x80?\x00\x00\x80?\x00\x00\x80?\x00\x00\x80?\x00\x00\x80?\x00\x00\x80?\x00\x00\x80?\x00\x00\x80?\x00\x00\x80?\x00\x00\x80?\x00\x00\x80?\x00\x00\x80?\x00\x00\x80?\x00\x00\x80?\x00\x00\x80?\x00\x00\x80?\x00\x00\x80?\x00\x00\x80?\x00\x00\x80?\x00\x00\x80?\x00\x00\x80?\x00\x00\x80?\x00\x00\x80?\x00\x00\x80?\x00\x00\x80?\x00\x00\x80?\x00\x00\x80?\x00\x00\x80?\x00\x00\x80?\x00\x00\x80?\x00\x00\x80?\x00\x00\x80?\x00\x00\x80?\x00\x00\x80?\x00\x00\x80?\x00\x00\x80?\x00\x00\x80?\x00\x00\x80?\x00\x00\x80?\x00\x00\x80?\x00\x00\x80?\x00\x00\x80?\x00\x00\x80?\x00\x00\x80?\x00\x00\x80?\x00\x00\x80?\x00\x00\x80?\x00\x00\x80?\x00\x00\x80?\x00\x00\x80?\x00\x00\x80?\x00\x00\x80?\x00\x00\x80?\x00\x00\x80?\x00\x00\x80?\x00\x00\x80?\x00\x00\x80?\x00\x00\x80?\x00\x00\x80?\x00\x00\x80?\x00\x00\x80?\x00\x00\x80?\x00\x00\x80?\x00\x00\x80?\x00\x00\x80?\x00\x00\x80?\x00\x00\x80?\x00\x00\x80?\x00\x00\x80?\x00\x00\x80?\x00\x00\x80?\x00\x00\x80?\x00\x00\x80?\x00\x00\x80?\x00\x00\x80?\x00\x00\x80?\x00\x00\x80?\x00\x00\x80?\x00\x00\x80?\x00\x00\x80?\x00\x00\x80?\x00\x00\x80?\x00\x00\x80?\x00\x00\x80?\x00\x00\x80?\x00\x00\x80?\x00\x00\x80?\x00\x00\x80?\x00\x00\x80?\x00\x00\x80?\x00\x00\x80?\x00\x00\x80?\x00\x00\x80?\x00\x00\x80?\x00\x00\x80?\x00\x00\x80?\x00\x00\x80?\x00\x00\x80?\x00\x00\x80?\x00\x00\x80?\x00\x00\x80?\x00\x00\x80?\x00\x00\x80?\x00\x00\x80?\x00\x00\x80?\x00\x00\x80?\x00\x00\x80?\x00\x00\x80?\x00\x00\x80?\x00\x00\x80?\x00\x00\x80?\x00\x00\x80?\x00\x00\x80?\x00\x00\x80?\x00\x00\x80?\x00\x00\x80?\x00\x00\x80?\x00\x00\x80?\x00\x00\x80?\x00\x00\x80?\x00\x00\x80?\x00\x00\x80?\x00\x00\x80?\x00\x00\x80?\x00\x00\x80?\x00\x00\x80?\x00\x00\x80?\x00\x00\x80?\x00\x00\x80?\x00\x00\x80?\x00\x00\x80?\x00\x00\x80?\x00\x00\x80?\x00\x00\x80?\x00\x00\x80?\x00\x00\x80?\x00\x00\x80?\x00\x00\x80?\x00\x00\x80?\x00\x00\x80?\x00\x00\x80?\x00\x00\x80?\x00\x00\x80?\x00\x00\x80?\x00\x00\x80?\x00\x00\x80?\x00\x00\x80?\x00\x00\x80?\x00\x00\x80?\x00\x00\x80?\x00\x00\x80?\x00\x00\x80?\x00\x00\x80?\x00\x00\x80?\x00\x00\x80?\x00\x00\x80?\x00\x00\x80?\x00\x00\x80?\x00\x00\x80?\x00\x00\x80?\x00\x00\x80?\x00\x00\x80?\x00\x00\x80?\x00\x00\x80?\x00\x00\x80?\x00\x00\x80?\x00\x00\x80?\x00\x00\x80?\x00\x00\x80?\x00\x00\x80?\x00\x00\x80?\x00\x00\x80?\x00\x00\x80?\x00\x00\x80?\x00\x00\x80?\x00\x00\x80?\x00\x00\x80?\x00\x00\x80?\x00\x00\x80?\x00\x00\x80?\x00\x00\x80?\x00\x00\x80?\x00\x00\x80?\x00\x00\x80?\x00\x00\x80?\x00\x00\x80?\x00\x00\x80?\x00\x00\x80?\x00\x00\x80?\x00\x00\x80?\x00\x00\x80?\x00\x00\x80?\x00\x00\x80?\x00\x00\x80?\x00\x00\x80?\x00\x00\x80?\x00\x00\x80?\x00\x00\x80?\x00\x00\x80?\x00\x00\x80?\x00\x00\x80?\x00\x00\x80?\x00\x00\x80?\x00\x00\x80?\x00\x00\x80?\x00\x00\x80?\x00\x00\x80?\x00\x00\x80?\x00\x00\x80?\x00\x00\x80?\x00\x00\x80?\x00\x00\x80?\x00\x00\x80?\x00\x00\x80?\x00\x00\x80?\x00\x00\x80?\x00\x00\x80?\x00\x00\x80?\x00\x00\x80?\x00\x00\x80?\x00\x00\x80?\x00\x00\x80?\x00\x00\x80?\x00\x00\x80?\x00\x00\x80?\x00\x00\x80?\x00\x00\x80?\x00\x00\x80?\x00\x00\x80?\x00\x00\x80?\x00\x00\x80?\x00\x00\x80?\x00\x00\x80?\x00\x00\x80?\x00\x00\x80?\x00\x00\x80?\x00\x00\x80?\x00\x00\x80?\x00\x00\x80?\x00\x00\x80?\x00\x00\x80?\x00\x00\x80?\x00\x00\x80?\x00\x00\x80?\x00\x00\x80?\x00\x00\x80?\x00\x00\x80?\x00\x00\x80?\x00\x00\x80?\x00\x00\x80?\x00\x00\x80?\x00\x00\x80?\x00\x00\x80?\x00\x00\x80?\x00\x00\x80?\x00\x00\x80?\x00\x00\x80?\x00\x00\x80?\x00\x00\x80?\x00\x00\x80?\x00\x00\x80?\x00\x00\x80?\x00\x00\x80?\x00\x00\x80?\x00\x00\x80?\x00\x00\x80?\x00\x00\x80?\x00\x00\x80?\x00\x00\x80?\x00\x00\x80?\x00\x00\x80?\x00\x00\x80?\x00\x00\x80?\x00\x00\x80?\x00\x00\x80?\x00\x00\x80?\x00\x00\x80?\x00\x00\x80?\x00\x00\x80?\x00\x00\x80?\x00\x00\x80?\x00\x00\x80?\x00\x00\x80?\x00\x00\x80?\x00\x00\x80?\x00\x00\x80?\x00\x00\x80?\x00\x00\x80?\x00\x00\x80?\x00\x00\x80?\x00\x00\x80?\x00\x00\x80?\x00\x00\x80?\x00\x00\x80?\x00\x00\x80?\x00\x00\x80?\x00\x00\x80?\x00\x00\x80?\x00\x00\x80?\x00\x00\x80?\x00\x00\x80?\x00\x00\x80?\x00\x00\x80?\x00\x00\x80?\x00\x00\x80?\x00\x00\x80?\x00\x00\x80?\x00\x00\x80?\x00\x00\x80?\x00\x00\x80?\x00\x00\x80?\x00\x00\x80?\x00\x00\x80?\x00\x00\x80?\x00\x00\x80?\x00\x00\x80?\x00\x00\x80?\x00\x00\x80?\x00\x00\x80?\x00\x00\x80?\x00\x00\x80?\x00\x00\x80?\x00\x00\x80?\x00\x00\x80?\x00\x00\x80?\x00\x00\x80?\x00\x00\x80?\x00\x00\x80?\x00\x00\x80?\x00\x00\x80?\x00\x00\x80?\x00\x00\x80?\x00\x00\x80?\x00\x00\x80?\x00\x00\x80?\x00\x00\x80?\x00\x00\x80?\x00\x00\x80?\x00\x00\x80?\x00\x00\x80?\x00\x00\x80?\x00\x00\x80?\x00\x00\x80?\x00\x00\x80?\x00\x00\x80?\x00\x00\x80?\x00\x00\x80?\x00\x00\x80?\x00\x00\x80?\x00\x00\x80?\x00\x00\x80?\x00\x00\x80?\x00\x00\x80?\x00\x00\x80?\x00\x00\x80?\x00\x00\x80?\x00\x00\x80?\x00\x00\x80?\x00\x00\x80?\x00\x00\x80?\x00\x00\x80?\x00\x00\x80?\x00\x00\x80?\x00\x00\x80?\x00\x00\x80?\x00\x00\x80?\x00\x00\x80?\x00\x00\x80?\x00\x00\x80?\x00\x00\x80?\x00\x00\x80?\x00\x00\x80?\x00\x00\x80?\x00\x00\x80?\x00\x00\x80?\x00\x00\x80?\x00\x00\x80?\x00\x00\x80?\x00\x00\x80?\x00\x00\x80?\x00\x00\x80?\x00\x00\x80?\x00\x00\x80?\x00\x00\x80?\x00\x00\x80?\x00\x00\x80?\x00\x00\x80?\x00\x00\x80?\x00\x00\x80?\x00\x00\x80?\x00\x00\x80?\x00\x00\x80?\x00\x00\x80?\x00\x00\x80?\x00\x00\x80?\x00\x00\x80?\x00\x00\x80?\x00\x00\x80?\x00\x00\x80?\x00\x00\x80?\x00\x00\x80?\x00\x00\x80?\x00\x00\x80?\x00\x00\x80?\x00\x00\x80?\x00\x00\x80?\x00\x00\x80?\x00\x00\x80?\x00\x00\x80?\x00\x00\x80?\x00\x00\x80?\x00\x00\x80?\x00\x00\x80?\x00\x00\x80?\x00\x00\x80?\x00\x00\x80?\x00\x00\x80?\x00\x00\x80?\x00\x00\x80?\x00\x00\x80?\x00\x00\x80?\x00\x00\x80?\x00\x00\x80?\x00\x00\x80?\x00\x00\x80?\x00\x00\x80?\x00\x00\x80?\x00\x00\x80?\x00\x00\x80?\x00\x00\x80?\x00\x00\x80?\x00\x00\x80?\x00\x00\x80?\x00\x00\x80?\x00\x00\x80?\x00\x00\x80?\x00\x00\x80?\x00\x00\x80?\x00\x00\x80?\x00\x00\x80?\x00\x00\x80?\x00\x00\x80?\x00\x00\x80?\x00\x00\x80?\x00\x00\x80?\x00\x00\x80?\x00\x00\x80?\x00\x00\x80?\x00\x00\x80?\x00\x00\x80?\x00\x00\x80?\x00\x00\x80?\x00\x00\x80?\x00\x00\x80?\x00\x00\x80?\x00\x00\x80?\x00\x00\x80?\x00\x00\x80?\x00\x00\x80?\x00\x00\x80?\x00\x00\x80?\x00\x00\x80?\x00\x00\x80?\x00\x00\x80?\x00\x00\x80?\x00\x00\x80?\x00\x00\x80?\x00\x00\x80?\x00\x00\x80?\x00\x00\x80?\x00\x00\x80?\x00\x00\x80?\x00\x00\x80?\x00\x00\x80?\x00\x00\x80?\x00\x00\x80?\x00\x00\x80?\x00\x00\x80?\x00\x00\x80?\x00\x00\x80?\x00\x00\x80?\x00\x00\x80?\x00\x00\x80?\x00\x00\x80?\x00\x00\x80?\x00\x00\x80?\x00\x00\x80?\x00\x00\x80?\x00\x00\x80?\x00\x00\x80?\x00\x00\x80?\x00\x00\x80?\x00\x00\x80?\x00\x00\x80?\x00\x00\x80?\x00\x00\x80?\x00\x00\x80?\x00\x00\x80?\x00\x00\x80?\x00\x00\x80?\x00\x00\x80?\x00\x00\x80?\x00\x00\x80?\x00\x00\x80?\x00\x00\x80?\x00\x00\x80?\x00\x00\x80?\x00\x00\x80?\x00\x00\x80?\x00\x00\x80?\x00\x00\x80?\x00\x00\x80?\x00\x00\x80?\x00\x00\x80?\x00\x00\x80?\x00\x00\x80?\x00\x00\x80?\x00\x00\x80?\x00\x00\x80?\x00\x00\x80?\x00\x00\x80?\x00\x00\x80?\x00\x00\x80?\x00\x00\x80?\x00\x00\x80?\x00\x00\x80?\x00\x00\x80?\x00\x00\x80?\x00\x00\x80?\x00\x00\x80?\x00\x00\x80?\x00\x00\x80?\x00\x00\x80?\x00\x00\x80?\x00\x00\x80?\x00\x00\x80?\x00\x00\x80?\x00\x00\x80?\x00\x00\x80?\x00\x00\x80?\x00\x00\x80?\x00\x00\x80?\x00\x00\x80?\x00\x00\x80?\x00\x00\x80?\x00\x00\x80?\x00\x00\x80?\x00\x00\x80?\x00\x00\x80?\x00\x00\x80?\x00\x00\x80?\x00\x00\x80?\x00\x00\x80?\x00\x00\x80?\x00\x00\x80?\x00\x00\x80?\x00\x00\x80?\x00\x00\x80?\x00\x00\x80?\x00\x00\x80?\x00\x00\x80?\x00\x00\x80?\x00\x00\x80?\x00\x00\x80?\x00\x00\x80?\x00\x00\x80?\x00\x00\x80?\x00\x00\x80?\x00\x00\x80?\x00\x00\x80?\x00\x00\x80?\x00\x00\x80?\x00\x00\x80?\x00\x00\x80?\x00\x00\x80?\x00\x00\x80?\x00\x00\x80?\x00\x00\x80?\x00\x00\x80?\x00\x00\x80?\x00\x00\x80?\x00\x00\x80?\x00\x00\x80?\x00\x00\x80?\x00\x00\x80?\x00\x00\x80?\x00\x00\x80?\x00\x00\x80?\x00\x00\x80?\x00\x00\x80?\x00\x00\x80?\x00\x00\x80?\x00\x00\x80?\x00\x00\x80?\x00\x00\x80?\x00\x00\x80?\x00\x00\x80?\x00\x00\x80?'
S'\x00\x00\x00\x00\x00\x00\x00\x00\x00\x00\x00\x00\x00\x00\x00\x00\x00\x00\x00\x00\x00\x00\x00\x00\x00\x00\x00\x00\x00\x00\x00\x00\x00\x00\x00\x00\x00\x00\x00\x00\x00\x00\x00\x00\x00\x00\x00\x00\x00\x00\x00\x00\x00\x00\x00\x00\x00\x00\x00\x00\x00\x00\x00\x00\x00\x00\x00\x00\x00\x00\x00\x00\x00\x00\x00\x00\x00\x00\x00\x00\x00\x00\x00\x00\x00\x00\x00\x00\x00\x00\x00\x00\x00\x00\x00\x00\x00\x00\x00\x00\x00\x00\x00\x00\x00\x00\x00\x00\x00\x00\x00\x00\x00\x00\x00\x00\x00\x00\x00\x00\x00\x00\x00\x00\x00\x00\x00\x00\x00\x00\x00\x00\x00\x00\x00\x00\x00\x00\x00\x00\x00\x00\x00\x00\x00\x00\x00\x00\x00\x00\x00\x00\x00\x00\x00\x00\x00\x00\x00\x00\x00\x00\x00\x00\x00\x00\x00\x00\x00\x00\x00\x00\x00\x00\x00\x00\x00\x00\x00\x00\x00\x00\x00\x00\x00\x00\x00\x00\x00\x00\x00\x00\x00\x00\x00\x00\x00\x00\x00\x00\x00\x00\x00\x00\x00\x00\x00\x00\x00\x00\x00\x00\x00\x00\x00\x00\x00\x00\x00\x00\x00\x00\x00\x00\x00\x00\x00\x00\x00\x00\x00\x00\x00\x00\x00\x00\x00\x00\x00\x00\x00\x00\x00\x00\x00\x00\x00\x00\x00\x00\x00\x00\x00\x00\x00\x00\x00\x00\x00\x00\x00\x00\x00\x00\x00\x00\x00\x00\x00\x00\x00\x00\x00\x00\x00\x00\x00\x00\x00\x00\x00\x00\x00\x00\x00\x00\x00\x00\x00\x00\x00\x00\x00\x00\x00\x00\x00\x00\x00\x00\x00\x00\x00\x00\x00\x00\x00\x00\x00\x00\x00\x00\x00\x00\x00\x00\x00\x00\x00\x00\x00\x00\x00\x00\x00\x00\x00\x00\x00\x00\x00\x00\x00\x00\x00\x00\x00\x00\x00\x00\x00\x00\x00\x00\x00\x00\x00\x00\x00\x00\x00\x00\x00\x00\x00\x00\x00\x00\x00\x00\x00\x00\x00\x00\x00\x00\x00\x00\x00\x00\x00\x00\x00\x00\x00\x00\x00\x00\x00\x00\x00\x00\x00\x00\x00\x00\x00\x00\x00\x00\x00\x00\x00\x00\x00\x00\x00\x00\x00\x00\x00\x00\x00\x00\x00\x00\x00\x00\x00\x00\x00\x00\x00\x00\x00\x00\x00\x00\x00\x00\x00\x00\x00\x00\x00\x00\x00\x00\x00\x00\x00\x00\x00\x00\x00\x00\x00\x00\x00\x00\x00\x00\x00\x00\x00\x00\x00\x00\x00\x00\x00\x00\x00\x00\x00\x00\x00\x00\x00\x00\x00\x00\x00\x00\x00\x00\x00\x00\x00\x00\x00\x00\x00\x00\x00\x00\x00\x00\x00\x00\x00\x00\x00\x00\x00\x00\x00\x00\x00\x00\x00\x00\x00\x00\x00\x00\x00\x00\x00\x00\x00\x00\x00\x00\x00\x00\x00\x00\x00\x00\x00\x00\x00\x00\x00\x00\x00\x00\x00\x00\x00\x00\x00\x00\x00\x00\x00\x00\x00\x00\x00\x00\x00\x00\x00\x00\x00\x00\x00\x00\x00\x00\x00\x00\x00\x00\x00\x00\x00\x00\x00\x00\x00\x00\x00\x00\x00\x00\x00\x00\x00\x00\x00\x00\x00\x00\x00\x00\x00\x00\x00\x00\x00\x00\x00\x00\x00\x00\x00\x00\x00\x00\x00\x00\x00\x00\x00\x00\x00\x00\x00\x00\x00\x00\x00\x00\x00\x00\x00\x00'
NtbsS'order'
p56
g49
(g50
g51
g52
S'b'
tRp57
(I1
(I15
I40
tg55
I00
S'\x00\x00\x80?\x00\x00`A\x00\x00\xa0A\x00\x00\xa8A\x00\x00\xb8A\x00\x00\xd0A\x00\x00\x00B\x00\x00\x92B\x00\x00\xaaB\x00\x00\xc2B\x00\x00\xd2B\x00\x00\xe8B\x00\x00\xfaB\x00\x00\x0bC\x00\x00\x0cC\x00\x00.C\x00\x00>C\x00\x00TC\x00\x00qC\x00\x00yC\x00\x00\x84C\x00\x80\x86C\x00\x00\x95C\x00\x80\x98C\x00\x00\x9cC\x00\x00\xa7C\x00\x00\xafC\x00\x80\xafC\x00\x00\xb1C\x00\x80\xc6C\x00\x80\xccC\x00\x00\xe1C\x00\x00\xe7C\x00\x80\xf1C\x00\x00\xf6C\x00\x00\x03D\x00@\x03D\x00\x00\x0bD\x00\x80\x0cD\x00\x80\x10D\x00\x00 A\x00\x00\x88A\x00\x00\x98A\x00\x00\xd8A\x00\x00 B\x00\x00TB\x00\x00\x94B\x00\x00\x9eB\x00\x00\xc6B\x00\x00\xd8B\x00\x00\xecB\x00\x00\x00C\x00\x00\x14C\x00\x00+C\x00\x005C\x00\x00:C\x00\x00?C\x00\x00LC\x00\x00\\C\x00\x00nC\x00\x00wC\x00\x80\x89C\x00\x80\x8aC\x00\x80\x8bC\x00\x80\x92C\x00\x80\x94C\x00\x00\x99C\x00\x00\xa1C\x00\x80\xa2C\x00\x00\xaeC\x00\x80\xb7C\x00\x00\xb8C\x00\x80\xbaC\x00\x00\xc7C\x00\x80\xddC\x00\x00\xedC\x00\x00\xfcC\x00\x00\xffC\x00@\x10D\x00@\x13D\x00\x00\xc0@\x00\x00\x00A\x00\x00\x9cB\x00\x00\xe6B\x00\x00\xeaB\x00\x00\x08C\x00\x00\x12C\x00\x00\x16C\x00\x00\x1aC\x00\x00*C\x00\x003C\x00\x009C\x00\x00KC\x00\x00NC\x00\x00\x7fC\x00\x00\x80C\x00\x00\x82C\x00\x80\x82C\x00\x80\x85C\x00\x00\x87C\x00\x80\x9aC\x00\x00\xa5C\x00\x00\xb7C\x00\x80\xbbC\x00\x80\xc4C\x00\x00\xd3C\x00\x80\xe1C\x00\x80\xe2C\x00\x80\xecC\x00\x00\xf0C\x00\x00\xf1C\x00\x80\xf5C\x00\x80\xfaC\x00\x80\xffC\x00\x80\x03D\x00\xc0\x05D\x00\x80\x08D\x00\x00\x0fD\x00\x80\x12D\x00\x00\x14D\x00\x00\x04B\x00\x00<B\x00\x00\xacB\x00\x00\xb4B\x00\x00\xdeB\x00\x00\xe0B\x00\x00\xf8B\x00\x00\xfeB\x00\x00\x05C\x00\x00\x11C\x00\x00\x1eC\x00\x00"C\x00\x00JC\x00\x00MC\x00\x00SC\x00\x00ZC\x00\x00lC\x00\x00uC\x00\x00\x8fC\x00\x00\xa6C\x00\x00\xabC\x00\x80\xacC\x00\x00\xb9C\x00\x80\xc0C\x00\x80\xc3C\x00\x00\xc4C\x00\x80\xd8C\x00\x00\xdaC\x00\x00\xe2C\x00\x80\xe3C\x00\x00\xe6C\x00\x00\xeaC\x00\x80\xedC\x00\x00\xeeC\x00\x00\xfeC\x00\x80\x04D\x00\x80\x06D\x00@\x0cD\x00@\rD\x00\x00\x13D\x00\x00\x10A\x00\x00\xf0A\x00\x00lB\x00\x00\x82B\x00\x00\x8eB\x00\x00\xa0B\x00\x00\xa6B\x00\x00\xb6B\x00\x00\xccB\x00\x00\xe4B\x00\x00-C\x00\x006C\x00\x00PC\x00\x00aC\x00\x00iC\x00\x00pC\x00\x00vC\x00\x00\x86C\x00\x80\x88C\x00\x80\xa5C\x00\x80\xa8C\x00\x00\xadC\x00\x80\xb4C\x00\x00\xc3C\x00\x80\xcaC\x00\x80\xd1C\x00\x00\xd7C\x00\x00\xd9C\x00\x80\xdcC\x00\x00\xdfC\x00\x00\xe9C\x00\x00\xfbC\x00@\x05D\x00@\x08D\x00\x80\x0bD\x00\xc0\x0bD\x00\x80\x0eD\x00\xc0\x0eD\x00\x80\x0fD\x00@\x14D\x00\x00(B\x00\x008B\x00\x00XB\x00\x00hB\x00\x00xB\x00\x00|B\x00\x00\xd0B\x00\x00\x02C\x00\x00\x06C\x00\x00\x0fC\x00\x008C\x00\x00=C\x00\x00UC\x00\x00fC\x00\x00jC\x00\x00}C\x00\x80\x8cC\x00\x80\x95C\x00\x80\x96C\x00\x00\x97C\x00\x00\xa0C\x00\x80\xa9C\x00\x80\xaaC\x00\x80\xbcC\x00\x00\xc5C\x00\x00\xcbC\x00\x00\xd0C\x00\x00\xdbC\x00\x80\xdfC\x00\x80\xe5C\x00\x00\xf8C\x00\x80\xf9C\x00\x80\xfbC\x00\x80\x00D\x00\x80\x01D\x00\xc0\x02D\x00\xc0\x03D\x00@\x04D\x00\x00\rD\x00@\x12D\x00\x00\xa0@\x00\x00PA\x00\x00\xb0A\x00\x00\x10B\x00\x004B\x00\x00\xb8B\x00\x00\xbaB\x00\x00\xc0B\x00\x00\xd6B\x00\x00\xeeB\x00\x00\xf6B\x00\x00\x1bC\x00\x004C\x00\x007C\x00\x00BC\x00\x00XC\x00\x00]C\x00\x00^C\x00\x00`C\x00\x00gC\x00\x00\x8aC\x00\x00\x8eC\x00\x80\xa1C\x00\x00\xa4C\x00\x00\xb3C\x00\x00\xbdC\x00\x00\xc1C\x00\x80\xd2C\x00\x80\xdeC\x00\x80\xe0C\x00\x80\xe6C\x00\x80\xf2C\x00\x80\xf7C\x00\x80\x02D\x00@\x06D\x00\xc0\x06D\x00\xc0\x08D\x00@\tD\x00\xc0\tD\x00@\nD\x00\x00\x90A\x00\x00HB\x00\x00\x88B\x00\x00\x8cB\x00\x00\xbeB\x00\x00\rC\x00\x00\'C\x00\x001C\x00\x00<C\x00\x00CC\x00\x00_C\x00\x00kC\x00\x00mC\x00\x00oC\x00\x00sC\x00\x00zC\x00\x00\x81C\x00\x80\x83C\x00\x00\x90C\x00\x80\x9fC\x00\x00\xb2C\x00\x80\xb2C\x00\x00\xb6C\x00\x80\xb6C\x00\x00\xc6C\x00\x80\xc9C\x00\x80\xd5C\x00\x00\xddC\x00\x00\xe8C\x00\x00\xebC\x00\x00\xefC\x00\x80\xefC\x00\x80\xf6C\x00\x00\xf7C\x00\x80\xfdC\x00@\x01D\x00\x00\x04D\x00\x00\x08D\x00\x00\x0cD\x00\x80\x11D\x00\x00\x00@\x00\x00\xe0@\x00\x00\x80A\x00\x00\xe0A\x00\x00\x0cB\x00\x00\x1cB\x00\x00@B\x00\x00dB\x00\x00\x86B\x00\x00\xf2B\x00\x00\x18C\x00\x00\x1cC\x00\x002C\x00\x00AC\x00\x00VC\x00\x00cC\x00\x00xC\x00\x00~C\x00\x80\x81C\x00\x00\x83C\x00\x80\x93C\x00\x80\x99C\x00\x00\x9aC\x00\x00\x9dC\x00\x00\xacC\x00\x80\xadC\x00\x00\xb4C\x00\x00\xbbC\x00\x00\xd4C\x00\x00\xe0C\x00\x00\xe3C\x00\x00\xf3C\x00\x80\xf8C\x00\x00\xfdC\x00@\x07D\x00\x00\nD\x00\x80\nD\x00\xc0\x12D\x00\xc0\x13D\x00\xc0\x14D\x00\x00LB\x00\x00pB\x00\x00\x84B\x00\x00\xaeB\x00\x00\xb0B\x00\x00\xdaB\x00\x00\xe2B\x00\x00\xf4B\x00\x00\x04C\x00\x00\x15C\x00\x00RC\x00\x00[C\x00\x00|C\x00\x80\x84C\x00\x00\x94C\x00\x00\x98C\x00\x80\x9bC\x00\x80\x9dC\x00\x00\x9fC\x00\x80\xa7C\x00\x00\xa9C\x00\x00\xaaC\x00\x00\xb0C\x00\x00\xc9C\x00\x80\xcbC\x00\x80\xcdC\x00\x00\xceC\x00\x80\xd3C\x00\x80\xd4C\x00\x80\xd6C\x00\x00\xd8C\x00\x80\xf4C\x00\x00\xf9C\x00\x80\xfcC\x00@\x00D\x00\xc0\x04D\x00\xc0\x0fD\x00@\x11D\x00\x80\x13D\x00\x80\x15D\x00\x00\xc8A\x00\x00\x08B\x00\x000B\x00\x00PB\x00\x00`B\x00\x00\x8aB\x00\x00\xa2B\x00\x00\xc4B\x00\x00\xdcB\x00\x00\nC\x00\x00%C\x00\x00EC\x00\x00dC\x00\x00tC\x00\x00\x85C\x00\x80\x87C\x00\x00\x8cC\x00\x00\x8dC\x00\x80\x8dC\x00\x00\x92C\x00\x00\x93C\x00\x00\xa3C\x00\x80\xa4C\x00\x80\xa6C\x00\x80\xb0C\x00\x80\xb3C\x00\x80\xbdC\x00\x00\xbeC\x00\x00\xc0C\x00\x00\xccC\x00\x00\xd5C\x00\x00\xe4C\x00\x80\xe4C\x00\x80\xf3C\x00\x00\xf5C\x00\x00\xfaC\x00\xc0\x01D\x00\x00\x02D\x00\x80\x05D\x00\x00\x11D\x00\x00\xc0A\x00\x00\x98B\x00\x00\x9aB\x00\x00\xa4B\x00\x00\xa8B\x00\x00\xbcB\x00\x00\xfcB\x00\x00\x0eC\x00\x00\x17C\x00\x00 C\x00\x00!C\x00\x00#C\x00\x00&C\x00\x00(C\x00\x00,C\x00\x000C\x00\x00HC\x00\x00IC\x00\x00QC\x00\x00bC\x00\x00{C\x00\x00\x89C\x00\x80\x8fC\x00\x00\xa2C\x00\x80\xb5C\x00\x00\xbcC\x00\x00\xc2C\x00\x80\xc7C\x00\x80\xcfC\x00\x00\xd2C\x00\x80\xdbC\x00\x80\xe8C\x00\x80\xe9C\x00\x80\xeaC\x00\x00\x01D\x00\x80\x07D\x00@\x0fD\x00\x00\x10D\x00\xc0\x10D\x00@\x15D\x00\x00@@\x00\x00\x80@\x00\x00pA\x00\x00\x18B\x00\x00\x96B\x00\x00\xb2B\x00\x00\xceB\x00\x00\x01C\x00\x00\x13C\x00\x00FC\x00\x00eC\x00\x00rC\x00\x80\x80C\x00\x00\x8bC\x00\x00\x91C\x00\x00\x96C\x00\x80\x97C\x00\x80\x9eC\x00\x80\xa3C\x00\x00\xa8C\x00\x80\xb1C\x00\x80\xbeC\x00\x80\xbfC\x00\x80\xc5C\x00\x00\xcaC\x00\x00\xcfC\x00\x00\xd1C\x00\x80\xd9C\x00\x80\xeeC\x00\x80\xf0C\x00\x00\xf2C\x00@\x02D\x00\x00\x05D\x00\xc0\x07D\x00\x80\tD\x00\xc0\x0cD\x00\x00\x0eD\x00\x00\x12D\x00\x00\x15D\x00\xc0\x15D\x00\x00\x00\x00\x00\x000A\x00\x00@A\x00\x00\xe8A\x00\x00\xf8A\x00\x00\x14B\x00\x00$B\x00\x00\xcaB\x00\x00\xd4B\x00\x00\xf0B\x00\x00\x03C\x00\x00\tC\x00\x00\x1fC\x00\x00)C\x00\x00;C\x00\x00@C\x00\x00DC\x00\x00GC\x00\x00OC\x00\x00hC\x00\x00\x88C\x00\x80\x90C\x00\x80\xabC\x00\x80\xaeC\x00\x00\xb5C\x00\x80\xb9C\x00\x80\xc2C\x00\x80\xc8C\x00\x00\xd6C\x00\x80\xd7C\x00\x80\xdaC\x00\x00\xe5C\x00\x80\xe7C\x00\x00\xf4C\x00\x80\xfeC\x00\xc0\x00D\x00\x00\x07D\x00\xc0\nD\x00\xc0\rD\x00\x80\x14D\x00\x00,B\x00\x00DB\x00\x00\\B\x00\x00tB\x00\x00\x80B\x00\x00\x90B\x00\x00\xc8B\x00\x00\x07C\x00\x00\x10C\x00\x00\x19C\x00\x00\x1dC\x00\x00$C\x00\x00/C\x00\x00WC\x00\x00YC\x00\x80\x8eC\x00\x80\x91C\x00\x00\x9bC\x00\x80\x9cC\x00\x00\x9eC\x00\x80\xa0C\x00\x80\xb8C\x00\x00\xbaC\x00\x00\xbfC\x00\x80\xc1C\x00\x00\xc8C\x00\x00\xcdC\x00\x80\xceC\x00\x80\xd0C\x00\x00\xdcC\x00\x00\xdeC\x00\x80\xebC\x00\x00\xecC\x00\x00\x00D\x00\x00\x06D\x00\x00\tD\x00@\x0bD\x00\x80\rD\x00@\x0eD\x00\xc0\x11D'
S'\x00\x00\x00\x00\x00\x00\x00\x00\x00\x00\x00\x00\x00\x00\x00\x00\x00\x00\x00\x00\x00\x00\x00\x00\x00\x00\x00\x00\x00\x00\x00\x00\x00\x00\x00\x00\x00\x00\x00\x00\x00\x00\x00\x00\x00\x00\x00\x00\x00\x00\x00\x00\x00\x00\x00\x00\x00\x00\x00\x00\x00\x00\x00\x00\x00\x00\x00\x00\x00\x00\x00\x00\x00\x00\x00\x00\x00\x00\x00\x00\x00\x00\x00\x00\x00\x00\x00\x00\x00\x00\x00\x00\x00\x00\x00\x00\x00\x00\x00\x00\x00\x00\x00\x00\x00\x00\x00\x00\x00\x00\x00\x00\x00\x00\x00\x00\x00\x00\x00\x00\x00\x00\x00\x00\x00\x00\x00\x00\x00\x00\x00\x00\x00\x00\x00\x00\x00\x00\x00\x00\x00\x00\x00\x00\x00\x00\x00\x00\x00\x00\x00\x00\x00\x00\x00\x00\x00\x00\x00\x00\x00\x00\x00\x00\x00\x00\x00\x00\x00\x00\x00\x00\x00\x00\x00\x00\x00\x00\x00\x00\x00\x00\x00\x00\x00\x00\x00\x00\x00\x00\x00\x00\x00\x00\x00\x00\x00\x00\x00\x00\x00\x00\x00\x00\x00\x00\x00\x00\x00\x00\x00\x00\x00\x00\x00\x00\x00\x00\x00\x00\x00\x00\x00\x00\x00\x00\x00\x00\x00\x00\x00\x00\x00\x00\x00\x00\x00\x00\x00\x00\x00\x00\x00\x00\x00\x00\x00\x00\x00\x00\x00\x00\x00\x00\x00\x00\x00\x00\x00\x00\x00\x00\x00\x00\x00\x00\x00\x00\x00\x00\x00\x00\x00\x00\x00\x00\x00\x00\x00\x00\x00\x00\x00\x00\x00\x00\x00\x00\x00\x00\x00\x00\x00\x00\x00\x00\x00\x00\x00\x00\x00\x00\x00\x00\x00\x00\x00\x00\x00\x00\x00\x00\x00\x00\x00\x00\x00\x00\x00\x00\x00\x00\x00\x00\x00\x00\x00\x00\x00\x00\x00\x00\x00\x00\x00\x00\x00\x00\x00\x00\x00\x00\x00\x00\x00\x00\x00\x00\x00\x00\x00\x00\x00\x00\x00\x00\x00\x00\x00\x00\x00\x00\x00\x00\x00\x00\x00\x00\x00\x00\x00\x00\x00\x00\x00\x00\x00\x00\x00\x00\x00\x00\x00\x00\x00\x00\x00\x00\x00\x00\x00\x00\x00\x00\x00\x00\x00\x00\x00\x00\x00\x00\x00\x00\x00\x00\x00\x00\x00\x00\x00\x00\x00\x00\x00\x00\x00\x00\x00\x00\x00\x00\x00\x00\x00\x00\x00\x00\x00\x00\x00\x00\x00\x00\x00\x00\x00\x00\x00\x00\x00\x00\x00\x00\x00\x00\x00\x00\x00\x00\x00\x00\x00\x00\x00\x00\x00\x00\x00\x00\x00\x00\x00\x00\x00\x00\x00\x00\x00\x00\x00\x00\x00\x00\x00\x00\x00\x00\x00\x00\x00\x00\x00\x00\x00\x00\x00\x00\x00\x00\x00\x00\x00\x00\x00\x00\x00\x00\x00\x00\x00\x00\x00\x00\x00\x00\x00\x00\x00\x00\x00\x00\x00\x00\x00\x00\x00\x00\x00\x00\x00\x00\x00\x00\x00\x00\x00\x00\x00\x00\x00\x00\x00\x00\x00\x00\x00\x00\x00\x00\x00\x00\x00\x00\x00\x00\x00\x00\x00\x00\x00\x00\x00\x00\x00\x00\x00\x00\x00\x00\x00\x00\x00\x00\x00\x00\x00\x00\x00\x00\x00\x00\x00\x00\x00\x00\x00\x00\x00\x00\x00\x00\x00\x00\x00\x00\x00\x00\x00\x00\x00\x00\x00\x00\x00\x00\x00\x00\x00\x00'
NtbstRp58
(dp59
S'isNumeric'
p60
(dp61
g48
I01
sg56
I01
ssS'trials'
p62
g37
sS'dataTypes'
p63
(lp64
g48
ag56
asS'dataShape'
p65
(lp66
I15
aI40
asbsS'method'
p67
S'fullRandom'
p68
sS'sequenceIndices'
p69
cnumpy.core.multiarray
_reconstruct
p70
(g51
(I0
tS'b'
tRp71
(I1
(I15
I40
tg54
(S'O4'
I0
I1
tRp72
(I3
S'|'
NNNI-1
I-1
I63
tbI00
(lp73
I13
aI12
aI4
aI6
aI9
aI12
aI3
aI0
aI13
aI14
aI2
aI10
aI6
aI7
aI9
aI4
aI4
aI2
aI2
aI14
aI12
aI9
aI2
aI3
aI8
aI2
aI4
aI4
aI11
aI12
aI0
aI11
aI2
aI6
aI1
aI0
aI13
aI13
aI4
aI5
aI0
aI8
aI13
aI5
aI14
aI11
aI4
aI13
aI8
aI2
aI11
aI11
aI1
aI13
aI3
aI11
aI0
aI2
aI10
aI3
aI5
aI14
aI4
aI4
aI4
aI11
aI3
aI5
aI6
aI3
aI2
aI4
aI12
aI5
aI2
aI2
aI8
aI0
aI4
aI2
aI8
aI1
aI0
aI3
aI5
aI11
aI6
aI6
aI9
aI13
aI8
aI7
aI4
aI10
aI0
aI8
aI12
aI12
aI13
aI11
aI5
aI12
aI3
aI8
aI13
aI5
aI3
aI9
aI2
aI13
aI3
aI11
aI2
aI8
aI14
aI5
aI11
aI14
aI2
aI8
aI12
aI7
aI3
aI8
aI5
aI2
aI6
aI1
aI6
aI10
aI14
aI11
aI6
aI12
aI5
aI10
aI7
aI7
aI4
aI7
aI12
aI9
aI10
aI1
aI11
aI6
aI2
aI10
aI9
aI5
aI2
aI3
aI0
aI9
aI9
aI7
aI12
aI4
aI11
aI3
aI12
aI1
aI10
aI14
aI14
aI1
aI11
aI9
aI3
aI0
aI2
aI13
aI5
aI13
aI8
aI12
aI10
aI8
aI11
aI13
aI9
aI7
aI0
aI13
aI7
aI10
aI5
aI0
aI8
aI11
aI8
aI11
aI12
aI5
aI5
aI5
aI7
aI4
aI4
aI1
aI6
aI0
aI8
aI7
aI4
aI4
aI7
aI10
aI0
aI0
aI6
aI2
aI2
aI11
aI14
aI5
aI3
aI2
aI1
aI12
aI0
aI5
aI9
aI0
aI7
aI10
aI12
aI14
aI9
aI14
aI3
aI7
aI6
aI10
aI13
aI3
aI4
aI7
aI9
aI9
aI2
aI0
aI6
aI9
aI9
aI10
aI6
aI3
aI11
aI7
aI8
aI1
aI1
aI11
aI6
aI6
aI4
aI2
aI6
aI14
aI1
aI14
aI12
aI0
aI2
aI12
aI7
aI9
aI10
aI4
aI10
aI14
aI8
aI2
aI11
aI9
aI2
aI3
aI11
aI8
aI8
aI6
aI13
aI10
aI8
aI11
aI0
aI3
aI3
aI11
aI14
aI11
aI13
aI3
aI14
aI13
aI1
aI8
aI1
aI10
aI8
aI1
aI4
aI9
aI1
aI14
aI0
aI9
aI7
aI7
aI10
aI14
aI10
aI4
aI7
aI12
aI6
aI0
aI1
aI2
aI2
aI0
aI12
aI1
aI7
aI4
aI10
aI9
aI1
aI5
aI3
aI4
aI7
aI2
aI3
aI4
aI8
aI7
aI12
aI1
aI8
aI6
aI9
aI10
aI1
aI12
aI1
aI14
aI13
aI1
aI13
aI2
aI13
aI5
aI5
aI4
aI14
aI12
aI0
aI4
aI4
aI11
aI8
aI5
aI10
aI11
aI1
aI4
aI12
aI14
aI13
aI0
aI5
aI1
aI9
aI5
aI0
aI0
aI1
aI10
aI2
aI11
aI5
aI0
aI14
aI10
aI11
aI12
aI9
aI14
aI5
aI1
aI9
aI1
aI10
aI10
aI6
aI5
aI11
aI13
aI1
aI10
aI1
aI14
aI7
aI0
aI14
aI2
aI5
aI3
aI11
aI14
aI0
aI3
aI1
aI7
aI7
aI9
aI10
aI8
aI14
aI1
aI9
aI12
aI3
aI3
aI14
aI11
aI4
aI6
aI3
aI3
aI10
aI9
aI10
aI2
aI12
aI3
aI10
aI8
aI13
aI0
aI13
aI10
aI4
aI3
aI13
aI0
aI13
aI2
aI11
aI11
aI1
aI2
aI6
aI3
aI11
aI10
aI5
aI9
aI9
aI10
aI5
aI7
aI13
aI6
aI13
aI5
aI13
aI4
aI6
aI3
aI2
aI8
aI12
aI14
aI6
aI14
aI9
aI12
aI13
aI1
aI5
aI8
aI14
aI9
aI4
aI2
aI9
aI12
aI3
aI7
aI13
aI13
aI6
aI7
aI9
aI2
aI10
aI1
aI0
aI12
aI3
aI7
aI14
aI14
aI9
aI14
aI9
aI5
aI0
aI12
aI0
aI7
aI6
aI6
aI8
aI13
aI7
aI11
aI6
aI8
aI14
aI5
aI0
aI9
aI12
aI1
aI3
aI1
aI11
aI8
aI8
aI4
aI7
aI1
aI5
aI4
aI10
aI0
aI14
aI6
aI13
aI6
aI1
aI11
aI7
aI12
aI3
aI8
aI13
aI7
aI7
aI3
aI5
aI3
aI6
aI12
aI14
aI9
aI0
aI13
aI10
aI4
aI1
aI12
aI5
aI6
aI5
aI9
aI14
aI2
aI6
aI11
aI6
aI7
aI8
aI0
aI6
aI5
aI8
aI10
aI8
aI10
aI8
aI13
aI12
aI4
aI4
aI6
aI7
aI7
aI7
aI13
aI0
aI6
aI8
aI14
aI12
aI12
atbsS'finished'
p74
I00
sS'nReps'
p75
I40
sS'nRemaining'
p76
I0
sS'trialList'
p77
(lp78
I0
aI1
aI2
aI3
aI4
aI5
aI6
aI7
aI8
aI9
aI10
aI11
aI12
aI13
aI14
asS'seed'
p79
NsS'thisIndex'
p80
I12
sS'thisN'
p81
I599
sS'thisTrialN'
p82
I14
sS'nTotal'
p83
I600
sS'_warnUseOfNext'
p84
I01
sbasS'saveWideText'
p85
I00
sS'thisEntry'
p86
(dp87
sS'version'
p88
S''
sS'_paramNamesSoFar'
p89
(lp90
sS'entries'
p91
(lp92
(dp93
g16
(lp94
S'd'
asS'.thisTrial'
p95
I13
sS'.thisRepN'
p96
I0
sg30
g31
sg32
g33
sS'.thisTrialN'
p97
I0
sS'.thisN'
p98
I0
sS'.thisIndex'
p99
I13
sg15
(lp100
S'd'
asg17
S'Y'
sg14
I1
sa(dp101
g16
(lp102
S'd'
asg95
I0
sS'.thisRepN'
p103
I0
sg30
g31
sg32
g33
sS'.thisTrialN'
p104
I1
sS'.thisN'
p105
I1
sS'.thisIndex'
p106
I0
sg15
(lp107
S'd'
asg17
S'Y'
sg14
I1
sa(dp108
g16
(lp109
S'k'
asg18
S'N'
sS'.thisRepN'
p110
I0
sg20
S'Y'
sg32
g33
sS'.thisTrialN'
p111
I2
sS'.thisN'
p112
I2
sS'.thisIndex'
p113
I8
sg15
(lp114
S'd'
asg30
g31
sg17
S'N'
sg14
I1
sg19
Nsg95
I8
sa(dp115
g16
(lp116
S'd'
asg18
S'N'
sS'.thisRepN'
p117
I0
sg20
S'Y'
sg32
g33
sS'.thisTrialN'
p118
I3
sS'.thisN'
p119
I3
sS'.thisIndex'
p120
I12
sg15
(lp121
S'k'
asg30
g31
sg17
S'N'
sg14
I1
sg19
Nsg95
I12
sa(dp122
g16
(lp123
S'k'
asg18
S'N'
sS'.thisRepN'
p124
I0
sg20
S'N'
sg32
g33
sS'.thisTrialN'
p125
I4
sS'.thisN'
p126
I4
sS'.thisIndex'
p127
I12
sg15
(lp128
S'k'
asg30
g31
sg17
S'Y'
sg14
I1
sg19
(lp129
S'space'
p130
asg95
I12
sa(dp131
g16
(lp132
S'k'
asg18
S'Y'
sS'.thisRepN'
p133
I0
sg20
S'Y'
sg32
g33
sS'.thisTrialN'
p134
I5
sS'.thisN'
p135
I5
sS'.thisIndex'
p136
I6
sg15
(lp137
S'd'
asg30
g31
sg17
S'N'
sg14
I1
sg19
(lp138
S'space'
p139
asg95
I6
sa(dp140
g16
(lp141
S'k'
asg18
S'N'
sS'.thisRepN'
p142
I0
sg20
S'N'
sg32
g33
sS'.thisTrialN'
p143
I6
sS'.thisN'
p144
I6
sS'.thisIndex'
p145
I2
sg15
(lp146
S'd'
asg30
g31
sg17
S'N'
sg14
I1
sg19
(lp147
S'space'
p148
asg95
I2
sa(dp149
g16
(lp150
S'd'
asg18
S'N'
sS'.thisRepN'
p151
I0
sg20
S'Y'
sg32
g33
sS'.thisTrialN'
p152
I7
sS'.thisN'
p153
I7
sS'.thisIndex'
p154
I8
sg15
(lp155
S'd'
asg30
g31
sg17
S'Y'
sg14
I1
sg19
Nsg95
I8
sa(dp156
g16
(lp157
S'k'
asg18
S'Y'
sS'.thisRepN'
p158
I0
sg20
S'N'
sg32
g33
sS'.thisTrialN'
p159
I8
sS'.thisN'
p160
I8
sS'.thisIndex'
p161
I2
sg15
(lp162
S'd'
asg30
g31
sg17
S'N'
sg14
I1
sg19
Nsg95
I2
sa(dp163
g16
(lp164
S'd'
asg18
S'Y'
sS'.thisRepN'
p165
I0
sg20
S'N'
sg32
g33
sS'.thisTrialN'
p166
I9
sS'.thisN'
p167
I9
sS'.thisIndex'
p168
I4
sg15
(lp169
S'd'
asg30
g31
sg17
S'Y'
sg14
I1
sg19
Nsg95
I4
sa(dp170
g16
(lp171
S'd'
asg18
S'N'
sS'.thisRepN'
p172
I0
sg20
S'Y'
sg32
g33
sS'.thisTrialN'
p173
I10
sS'.thisN'
p174
I10
sS'.thisIndex'
p175
I1
sg15
(lp176
S'k'
asg30
g31
sg17
S'N'
sg14
I1
sg19
Nsg95
I1
sa(dp177
g16
(lp178
S'k'
asg18
S'N'
sS'.thisRepN'
p179
I0
sg20
S'Y'
sg32
g33
sS'.thisTrialN'
p180
I11
sS'.thisN'
p181
I11
sS'.thisIndex'
p182
I13
sg15
(lp183
S'k'
asg30
g31
sg17
S'Y'
sg14
I1
sg19
Nsg95
I13
sa(dp184
g16
(lp185
S'k'
asg18
S'Y'
sS'.thisRepN'
p186
I0
sg20
S'N'
sg32
g33
sS'.thisTrialN'
p187
I12
sS'.thisN'
p188
I12
sS'.thisIndex'
p189
I13
sg15
(lp190
S'd'
asg30
g31
sg17
S'N'
sg14
I1
sg19
Nsg95
I13
sa(dp191
g16
(lp192
S'd'
asg18
S'Y'
sS'.thisRepN'
p193
I0
sg20
S'Y'
sg32
g33
sS'.thisTrialN'
p194
I13
sS'.thisN'
p195
I13
sS'.thisIndex'
p196
I6
sg15
(lp197
S'k'
asg30
g31
sg17
S'N'
sg14
I1
sg19
(lp198
S'space'
p199
asg95
I6
sa(dp200
g16
(lp201
S'd'
asg18
S'Y'
sS'.thisRepN'
p202
I0
sg20
S'N'
sg32
g33
sS'.thisTrialN'
p203
I14
sS'.thisN'
p204
I14
sS'.thisIndex'
p205
I0
sg15
(lp206
S'd'
asg30
g31
sg17
S'Y'
sg14
I1
sg19
Nsg95
I0
sa(dp207
g16
(lp208
S'd'
asg18
S'N'
sS'.thisRepN'
p209
I1
sg20
S'N'
sg32
g33
sS'.thisTrialN'
p210
I0
sS'.thisN'
p211
I15
sS'.thisIndex'
p212
I12
sg15
(lp213
S'd'
asg30
g31
sg17
S'Y'
sg14
I1
sg19
(lp214
S'space'
p215
asg95
I12
sa(dp216
g18
S'Y'
sS'.thisRepN'
p217
I1
sg20
S'N'
sg32
g33
sS'.thisTrialN'
p218
I1
sS'.thisN'
p219
I16
sS'.thisIndex'
p220
I8
sg15
Nsg30
g31
sg17
S'Timed out'
p221
sg14
I1
sg19
Nsg95
I8
sa(dp222
g16
(lp223
S'd'
asg18
S'Y'
sS'.thisRepN'
p224
I1
sg20
S'N'
sg32
g33
sS'.thisTrialN'
p225
I2
sS'.thisN'
p226
I17
sS'.thisIndex'
p227
I1
sg15
(lp228
S'k'
asg30
g31
sg17
S'N'
sg14
I1
sg19
Nsg95
I1
sa(dp229
g16
(lp230
S'd'
asg18
S'N'
sS'.thisRepN'
p231
I1
sg20
S'Y'
sg32
g33
sS'.thisTrialN'
p232
I3
sS'.thisN'
p233
I18
sS'.thisIndex'
p234
I7
sg15
(lp235
S'd'
asg30
g31
sg17
S'Y'
sg14
I1
sg19
Nsg95
I7
sa(dp236
g16
(lp237
S'd'
asg18
S'Y'
sS'.thisRepN'
p238
I1
sg20
S'Y'
sg32
g33
sS'.thisTrialN'
p239
I4
sS'.thisN'
p240
I19
sS'.thisIndex'
p241
I1
sg15
(lp242
S'k'
asg30
g31
sg17
S'N'
sg14
I1
sg19
(lp243
S'space'
p244
asg95
I1
sa(dp245
g16
(lp246
S'k'
asg18
S'N'
sS'.thisRepN'
p247
I1
sg20
S'Y'
sg32
g33
sS'.thisTrialN'
p248
I5
sS'.thisN'
p249
I20
sS'.thisIndex'
p250
I0
sg15
(lp251
S'd'
asg30
g31
sg17
S'N'
sg14
I1
sg19
Nsg95
I0
sa(dp252
g16
(lp253
S'k'
asg18
S'Y'
sS'.thisRepN'
p254
I1
sg20
S'Y'
sg32
g33
sS'.thisTrialN'
p255
I6
sS'.thisN'
p256
I21
sS'.thisIndex'
p257
I0
sg15
(lp258
S'k'
asg30
g31
sg17
S'Y'
sg14
I1
sg19
(lp259
S'space'
p260
asg95
I0
sa(dp261
g16
(lp262
S'k'
asg18
S'Y'
sS'.thisRepN'
p263
I1
sg20
S'N'
sg32
g33
sS'.thisTrialN'
p264
I7
sS'.thisN'
p265
I22
sS'.thisIndex'
p266
I6
sg15
(lp267
S'd'
asg30
g31
sg17
S'N'
sg14
I1
sg19
Nsg95
I6
sa(dp268
g16
(lp269
S'd'
asg18
S'N'
sS'.thisRepN'
p270
I1
sg20
S'Y'
sg32
g33
sS'.thisTrialN'
p271
I8
sS'.thisN'
p272
I23
sS'.thisIndex'
p273
I0
sg15
(lp274
S'k'
asg30
g31
sg17
S'N'
sg14
I1
sg19
Nsg95
I0
sa(dp275
g16
(lp276
S'd'
asg18
S'Y'
sS'.thisRepN'
p277
I1
sg20
S'Y'
sg32
g33
sS'.thisTrialN'
p278
I9
sS'.thisN'
p279
I24
sS'.thisIndex'
p280
I11
sg15
(lp281
S'd'
asg30
g31
sg17
S'Y'
sg14
I1
sg19
(lp282
S'space'
p283
asg95
I11
sa(dp284
g16
(lp285
S'd'
asg18
S'Y'
sS'.thisRepN'
p286
I1
sg20
S'Y'
sg32
g33
sS'.thisTrialN'
p287
I10
sS'.thisN'
p288
I25
sS'.thisIndex'
p289
I10
sg15
(lp290
S'd'
asg30
g31
sg17
S'Y'
sg14
I1
sg19
(lp291
S'space'
p292
asg95
I10
sa(dp293
g16
(lp294
S'd'
asg18
S'N'
sS'.thisRepN'
p295
I1
sg20
S'Y'
sg32
g33
sS'.thisTrialN'
p296
I11
sS'.thisN'
p297
I26
sS'.thisIndex'
p298
I0
sg15
(lp299
S'd'
asg30
g31
sg17
S'Y'
sg14
I1
sg19
Nsg95
I0
sa(dp300
g16
(lp301
S'k'
asg18
S'Y'
sS'.thisRepN'
p302
I1
sg20
S'Y'
sg32
g33
sS'.thisTrialN'
p303
I12
sS'.thisN'
p304
I27
sS'.thisIndex'
p305
I1
sg15
(lp306
S'k'
asg30
g31
sg17
S'Y'
sg14
I1
sg19
(lp307
S'space'
p308
asg95
I1
sa(dp309
g16
(lp310
S'k'
asg18
S'Y'
sS'.thisRepN'
p311
I1
sg20
S'Y'
sg32
g33
sS'.thisTrialN'
p312
I13
sS'.thisN'
p313
I28
sS'.thisIndex'
p314
I8
sg15
(lp315
S'd'
asg30
g31
sg17
S'N'
sg14
I1
sg19
(lp316
S'space'
p317
asg95
I8
sa(dp318
g16
(lp319
S'k'
asg18
S'N'
sS'.thisRepN'
p320
I1
sg20
S'Y'
sg32
g33
sS'.thisTrialN'
p321
I14
sS'.thisN'
p322
I29
sS'.thisIndex'
p323
I13
sg15
(lp324
S'k'
asg30
g31
sg17
S'Y'
sg14
I1
sg19
Nsg95
I13
sa(dp325
g16
(lp326
S'k'
asg18
S'Y'
sS'.thisRepN'
p327
I2
sg20
S'Y'
sg32
g33
sS'.thisTrialN'
p328
I0
sS'.thisN'
p329
I30
sS'.thisIndex'
p330
I4
sg15
(lp331
S'd'
asg30
g31
sg17
S'N'
sg14
I1
sg19
(lp332
S'space'
p333
asg95
I4
sa(dp334
g16
(lp335
S'k'
asg18
S'N'
sS'.thisRepN'
p336
I2
sg20
S'Y'
sg32
g33
sS'.thisTrialN'
p337
I1
sS'.thisN'
p338
I31
sS'.thisIndex'
p339
I13
sg15
(lp340
S'k'
asg30
g31
sg17
S'Y'
sg14
I1
sg19
Nsg95
I13
sa(dp341
g16
(lp342
S'd'
asg18
S'Y'
sS'.thisRepN'
p343
I2
sg20
S'N'
sg32
g33
sS'.thisTrialN'
p344
I2
sS'.thisN'
p345
I32
sS'.thisIndex'
p346
I0
sg15
(lp347
S'd'
asg30
g31
sg17
S'Y'
sg14
I1
sg19
Nsg95
I0
sa(dp348
g16
(lp349
S'k'
asg18
S'N'
sS'.thisRepN'
p350
I2
sg20
S'Y'
sg32
g33
sS'.thisTrialN'
p351
I3
sS'.thisN'
p352
I33
sS'.thisIndex'
p353
I3
sg15
(lp354
S'd'
asg30
g31
sg17
S'N'
sg14
I1
sg19
Nsg95
I3
sa(dp355
g16
(lp356
S'd'
asg18
S'Y'
sS'.thisRepN'
p357
I2
sg20
S'Y'
sg32
g33
sS'.thisTrialN'
p358
I4
sS'.thisN'
p359
I34
sS'.thisIndex'
p360
I10
sg15
(lp361
S'k'
asg30
g31
sg17
S'N'
sg14
I1
sg19
(lp362
S'space'
p363
asg95
I10
sa(dp364
g16
(lp365
S'd'
asg18
S'N'
sS'.thisRepN'
p366
I2
sg20
S'Y'
sg32
g33
sS'.thisTrialN'
p367
I5
sS'.thisN'
p368
I35
sS'.thisIndex'
p369
I8
sg15
(lp370
S'd'
asg30
g31
sg17
S'Y'
sg14
I1
sg19
Nsg95
I8
sa(dp371
g16
(lp372
S'k'
asg18
S'Y'
sS'.thisRepN'
p373
I2
sg20
S'N'
sg32
g33
sS'.thisTrialN'
p374
I6
sS'.thisN'
p375
I36
sS'.thisIndex'
p376
I6
sg15
(lp377
S'd'
asg30
g31
sg17
S'N'
sg14
I1
sg19
Nsg95
I6
sa(dp378
g16
(lp379
S'k'
asg18
S'Y'
sS'.thisRepN'
p380
I2
sg20
S'Y'
sg32
g33
sS'.thisTrialN'
p381
I7
sS'.thisN'
p382
I37
sS'.thisIndex'
p383
I13
sg15
(lp384
S'k'
asg30
g31
sg17
S'Y'
sg14
I1
sg19
(lp385
S'space'
p386
asg95
I13
sa(dp387
g16
(lp388
S'k'
asg18
S'N'
sS'.thisRepN'
p389
I2
sg20
S'N'
sg32
g33
sS'.thisTrialN'
p390
I8
sS'.thisN'
p391
I38
sS'.thisIndex'
p392
I12
sg15
(lp393
S'd'
asg30
g31
sg17
S'N'
sg14
I1
sg19
(lp394
S'space'
p395
asg95
I12
sa(dp396
g16
(lp397
S'k'
asg18
S'Y'
sS'.thisRepN'
p398
I2
sg20
S'Y'
sg32
g33
sS'.thisTrialN'
p399
I9
sS'.thisN'
p400
I39
sS'.thisIndex'
p401
I8
sg15
(lp402
S'k'
asg30
g31
sg17
S'Y'
sg14
I1
sg19
(lp403
S'space'
p404
asg95
I8
sa(dp405
g16
(lp406
S'd'
asg18
S'N'
sS'.thisRepN'
p407
I2
sg20
S'Y'
sg32
g33
sS'.thisTrialN'
p408
I10
sS'.thisN'
p409
I40
sS'.thisIndex'
p410
I1
sg15
(lp411
S'd'
asg30
g31
sg17
S'Y'
sg14
I1
sg19
Nsg95
I1
sa(dp412
g16
(lp413
S'k'
asg18
S'Y'
sS'.thisRepN'
p414
I2
sg20
S'Y'
sg32
g33
sS'.thisTrialN'
p415
I11
sS'.thisN'
p416
I41
sS'.thisIndex'
p417
I13
sg15
(lp418
S'k'
asg30
g31
sg17
S'Y'
sg14
I1
sg19
(lp419
S'space'
p420
asg95
I13
sa(dp421
g16
(lp422
S'd'
asg18
S'Y'
sS'.thisRepN'
p423
I2
sg20
S'Y'
sg32
g33
sS'.thisTrialN'
p424
I12
sS'.thisN'
p425
I42
sS'.thisIndex'
p426
I5
sg15
(lp427
S'd'
asg30
g31
sg17
S'Y'
sg14
I1
sg19
(lp428
S'space'
p429
asg95
I5
sa(dp430
g16
(lp431
S'd'
asg18
S'Y'
sS'.thisRepN'
p432
I2
sg20
S'Y'
sg32
g33
sS'.thisTrialN'
p433
I13
sS'.thisN'
p434
I43
sS'.thisIndex'
p435
I14
sg15
(lp436
S'd'
asg30
g31
sg17
S'Y'
sg14
I1
sg19
(lp437
S'space'
p438
asg95
I14
sa(dp439
g16
(lp440
S'k'
asg18
S'N'
sS'.thisRepN'
p441
I2
sg20
S'Y'
sg32
g33
sS'.thisTrialN'
p442
I14
sS'.thisN'
p443
I44
sS'.thisIndex'
p444
I10
sg15
(lp445
S'd'
asg30
g31
sg17
S'N'
sg14
I1
sg19
Nsg95
I10
sa(dp446
g16
(lp447
S'k'
asg18
S'Y'
sS'.thisRepN'
p448
I3
sg20
S'Y'
sg32
g33
sS'.thisTrialN'
p449
I0
sS'.thisN'
p450
I45
sS'.thisIndex'
p451
I6
sg15
(lp452
S'k'
asg30
g31
sg17
S'Y'
sg14
I1
sg19
(lp453
S'space'
p454
asg95
I6
sa(dp455
g16
(lp456
S'k'
asg18
S'N'
sS'.thisRepN'
p457
I3
sg20
S'Y'
sg32
g33
sS'.thisTrialN'
p458
I1
sS'.thisN'
p459
I46
sS'.thisIndex'
p460
I5
sg15
(lp461
S'd'
asg30
g31
sg17
S'N'
sg14
I1
sg19
Nsg95
I5
sa(dp462
g16
(lp463
S'd'
asg18
S'N'
sS'.thisRepN'
p464
I3
sg20
S'Y'
sg32
g33
sS'.thisTrialN'
p465
I2
sS'.thisN'
p466
I47
sS'.thisIndex'
p467
I3
sg15
(lp468
S'k'
asg30
g31
sg17
S'N'
sg14
I1
sg19
Nsg95
I3
sa(dp469
g16
(lp470
S'd'
asg18
S'N'
sS'.thisRepN'
p471
I3
sg20
S'N'
sg32
g33
sS'.thisTrialN'
p472
I3
sS'.thisN'
p473
I48
sS'.thisIndex'
p474
I8
sg15
(lp475
S'd'
asg30
g31
sg17
S'Y'
sg14
I1
sg19
(lp476
S'space'
p477
asg95
I8
sa(dp478
g16
(lp479
S'd'
asg18
S'N'
sg22
I34
sS'.thisN'
p480
I49
sg20
S'Y'
sg32
g33
sS'.thisTrialN'
p481
I4
sS'.thisRepN'
p482
I3
sg21
I26
sS'.thisIndex'
p483
I14
sg23
I25
sg15
(lp484
S'k'
asg30
g31
sg17
S'N'
sg14
I1
sg19
Nsg95
I14
sa(dp485
g16
(lp486
S'd'
asg95
I7
sS'.thisRepN'
p487
I3
sg30
g31
sg32
g33
sS'.thisTrialN'
p488
I5
sS'.thisN'
p489
I50
sS'.thisIndex'
p490
I7
sg15
(lp491
S'd'
asg17
S'Y'
sg14
I2
sa(dp492
g16
(lp493
S'k'
asg95
I9
sS'.thisRepN'
p494
I3
sg30
g31
sg32
g33
sS'.thisTrialN'
p495
I6
sS'.thisN'
p496
I51
sS'.thisIndex'
p497
I9
sg15
(lp498
S'd'
asg17
S'N'
sg14
I2
sa(dp499
g16
(lp500
S'd'
asg18
S'N'
sS'.thisRepN'
p501
I3
sg20
S'Y'
sg32
g33
sS'.thisTrialN'
p502
I7
sS'.thisN'
p503
I52
sS'.thisIndex'
p504
I10
sg15
(lp505
S'k'
asg30
g31
sg17
S'N'
sg14
I2
sg19
Nsg95
I10
sa(dp506
g16
(lp507
S'd'
asg18
S'N'
sS'.thisRepN'
p508
I3
sg20
S'Y'
sg32
g33
sS'.thisTrialN'
p509
I8
sS'.thisN'
p510
I53
sS'.thisIndex'
p511
I1
sg15
(lp512
S'd'
asg30
g31
sg17
S'Y'
sg14
I2
sg19
Nsg95
I1
sa(dp513
g16
(lp514
S'd'
asg18
S'Y'
sS'.thisRepN'
p515
I3
sg20
S'Y'
sg32
g33
sS'.thisTrialN'
p516
I9
sS'.thisN'
p517
I54
sS'.thisIndex'
p518
I5
sg15
(lp519
S'd'
asg30
g31
sg17
S'Y'
sg14
I2
sg19
(lp520
S'space'
p521
asg95
I5
sa(dp522
g16
(lp523
S'd'
asg18
S'Y'
sS'.thisRepN'
p524
I3
sg20
S'N'
sg32
g33
sS'.thisTrialN'
p525
I10
sS'.thisN'
p526
I55
sS'.thisIndex'
p527
I14
sg15
(lp528
S'd'
asg30
g31
sg17
S'Y'
sg14
I2
sg19
Nsg95
I14
sa(dp529
g16
(lp530
S'd'
asg18
S'N'
sS'.thisRepN'
p531
I3
sg20
S'Y'
sg32
g33
sS'.thisTrialN'
p532
I11
sS'.thisN'
p533
I56
sS'.thisIndex'
p534
I10
sg15
(lp535
S'd'
asg30
g31
sg17
S'Y'
sg14
I2
sg19
Nsg95
I10
sa(dp536
g16
(lp537
S'd'
asg18
S'N'
sS'.thisRepN'
p538
I3
sg20
S'Y'
sg32
g33
sS'.thisTrialN'
p539
I12
sS'.thisN'
p540
I57
sS'.thisIndex'
p541
I8
sg15
(lp542
S'd'
asg30
g31
sg17
S'Y'
sg14
I2
sg19
Nsg95
I8
sa(dp543
g16
(lp544
S'd'
asg18
S'N'
sS'.thisRepN'
p545
I3
sg20
S'Y'
sg32
g33
sS'.thisTrialN'
p546
I13
sS'.thisN'
p547
I58
sS'.thisIndex'
p548
I5
sg15
(lp549
S'k'
asg30
g31
sg17
S'N'
sg14
I2
sg19
Nsg95
I5
sa(dp550
g16
(lp551
S'd'
asg18
S'Y'
sS'.thisRepN'
p552
I3
sg20
S'Y'
sg32
g33
sS'.thisTrialN'
p553
I14
sS'.thisN'
p554
I59
sS'.thisIndex'
p555
I4
sg15
(lp556
S'd'
asg30
g31
sg17
S'Y'
sg14
I2
sg19
(lp557
S'space'
p558
asg95
I4
sa(dp559
g16
(lp560
S'd'
asg18
S'Y'
sS'.thisRepN'
p561
I4
sg20
S'Y'
sg32
g33
sS'.thisTrialN'
p562
I0
sS'.thisN'
p563
I60
sS'.thisIndex'
p564
I9
sg15
(lp565
S'd'
asg30
g31
sg17
S'Y'
sg14
I2
sg19
(lp566
S'space'
p567
asg95
I9
sa(dp568
g16
(lp569
S'd'
asg18
S'N'
sS'.thisRepN'
p570
I4
sg20
S'Y'
sg32
g33
sS'.thisTrialN'
p571
I1
sS'.thisN'
p572
I61
sS'.thisIndex'
p573
I14
sg15
(lp574
S'd'
asg30
g31
sg17
S'Y'
sg14
I2
sg19
Nsg95
I14
sa(dp575
g16
(lp576
S'd'
asg18
S'Y'
sS'.thisRepN'
p577
I4
sg20
S'Y'
sg32
g33
sS'.thisTrialN'
p578
I2
sS'.thisN'
p579
I62
sS'.thisIndex'
p580
I5
sg15
(lp581
S'd'
asg30
g31
sg17
S'Y'
sg14
I2
sg19
(lp582
S'space'
p583
asg95
I5
sa(dp584
g16
(lp585
S'd'
asg18
S'Y'
sS'.thisRepN'
p586
I4
sg20
S'N'
sg32
g33
sS'.thisTrialN'
p587
I3
sS'.thisN'
p588
I63
sS'.thisIndex'
p589
I5
sg15
(lp590
S'k'
asg30
g31
sg17
S'N'
sg14
I2
sg19
(lp591
S'k'
asg95
I5
sa(dp592
g16
(lp593
S'd'
asg18
S'N'
sS'.thisRepN'
p594
I4
sg20
S'Y'
sg32
g33
sS'.thisTrialN'
p595
I4
sS'.thisN'
p596
I64
sS'.thisIndex'
p597
I14
sg15
(lp598
S'd'
asg30
g31
sg17
S'Y'
sg14
I2
sg19
Nsg95
I14
sa(dp599
g16
(lp600
S'k'
asg18
S'Y'
sS'.thisRepN'
p601
I4
sg20
S'Y'
sg32
g33
sS'.thisTrialN'
p602
I5
sS'.thisN'
p603
I65
sS'.thisIndex'
p604
I4
sg15
(lp605
S'd'
asg30
g31
sg17
S'N'
sg14
I2
sg19
(lp606
S'space'
p607
asg95
I4
sa(dp608
g16
(lp609
S'd'
asg18
S'N'
sS'.thisRepN'
p610
I4
sg20
S'Y'
sg32
g33
sS'.thisTrialN'
p611
I6
sS'.thisN'
p612
I66
sS'.thisIndex'
p613
I9
sg15
(lp614
S'd'
asg30
g31
sg17
S'Y'
sg14
I2
sg19
Nsg95
I9
sa(dp615
g16
(lp616
S'k'
asg18
S'Y'
sS'.thisRepN'
p617
I4
sg20
S'Y'
sg32
g33
sS'.thisTrialN'
p618
I7
sS'.thisN'
p619
I67
sS'.thisIndex'
p620
I8
sg15
(lp621
S'd'
asg30
g31
sg17
S'N'
sg14
I2
sg19
(lp622
S'space'
p623
asg95
I8
sa(dp624
g16
(lp625
S'k'
asg18
S'N'
sS'.thisRepN'
p626
I4
sg20
S'Y'
sg32
g33
sS'.thisTrialN'
p627
I8
sS'.thisN'
p628
I68
sS'.thisIndex'
p629
I7
sg15
(lp630
S'k'
asg30
g31
sg17
S'Y'
sg14
I2
sg19
Nsg95
I7
sa(dp631
g16
(lp632
S'd'
asg18
S'Y'
sS'.thisRepN'
p633
I4
sg20
S'Y'
sg32
g33
sS'.thisTrialN'
p634
I9
sS'.thisN'
p635
I69
sS'.thisIndex'
p636
I10
sg15
(lp637
S'd'
asg30
g31
sg17
S'Y'
sg14
I2
sg19
(lp638
S'space'
p639
asg95
I10
sa(dp640
g16
(lp641
S'k'
asg18
S'Y'
sS'.thisRepN'
p642
I4
sg20
S'Y'
sg32
g33
sS'.thisTrialN'
p643
I10
sS'.thisN'
p644
I70
sS'.thisIndex'
p645
I7
sg15
(lp646
S'k'
asg30
g31
sg17
S'Y'
sg14
I2
sg19
(lp647
S'space'
p648
asg95
I7
sa(dp649
g16
(lp650
S'k'
asg18
S'N'
sS'.thisRepN'
p651
I4
sg20
S'Y'
sg32
g33
sS'.thisTrialN'
p652
I11
sS'.thisN'
p653
I71
sS'.thisIndex'
p654
I4
sg15
(lp655
S'd'
asg30
g31
sg17
S'N'
sg14
I2
sg19
Nsg95
I4
sa(dp656
g16
(lp657
S'k'
asg18
S'Y'
sS'.thisRepN'
p658
I4
sg20
S'Y'
sg32
g33
sS'.thisTrialN'
p659
I12
sS'.thisN'
p660
I72
sS'.thisIndex'
p661
I14
sg15
(lp662
S'k'
asg30
g31
sg17
S'Y'
sg14
I2
sg19
(lp663
S'space'
p664
asg95
I14
sa(dp665
g16
(lp666
S'd'
asg18
S'N'
sS'.thisRepN'
p667
I4
sg20
S'Y'
sg32
g33
sS'.thisTrialN'
p668
I13
sS'.thisN'
p669
I73
sS'.thisIndex'
p670
I0
sg15
(lp671
S'd'
asg30
g31
sg17
S'Y'
sg14
I2
sg19
Nsg95
I0
sa(dp672
g16
(lp673
S'k'
asg18
S'Y'
sS'.thisRepN'
p674
I4
sg20
S'Y'
sg32
g33
sS'.thisTrialN'
p675
I14
sS'.thisN'
p676
I74
sS'.thisIndex'
p677
I1
sg15
(lp678
S'd'
asg30
g31
sg17
S'N'
sg14
I2
sg19
(lp679
S'space'
p680
asg95
I1
sa(dp681
g16
(lp682
S'k'
asg18
S'N'
sS'.thisRepN'
p683
I5
sg20
S'Y'
sg32
g33
sS'.thisTrialN'
p684
I0
sS'.thisN'
p685
I75
sS'.thisIndex'
p686
I12
sg15
(lp687
S'k'
asg30
g31
sg17
S'Y'
sg14
I2
sg19
Nsg95
I12
sa(dp688
g16
(lp689
S'd'
asg18
S'N'
sS'.thisRepN'
p690
I5
sg20
S'Y'
sg32
g33
sS'.thisTrialN'
p691
I1
sS'.thisN'
p692
I76
sS'.thisIndex'
p693
I11
sg15
(lp694
S'd'
asg30
g31
sg17
S'Y'
sg14
I2
sg19
Nsg95
I11
sa(dp695
g16
(lp696
S'k'
asg18
S'Y'
sS'.thisRepN'
p697
I5
sg20
S'Y'
sg32
g33
sS'.thisTrialN'
p698
I2
sS'.thisN'
p699
I77
sS'.thisIndex'
p700
I11
sg15
(lp701
S'k'
asg30
g31
sg17
S'Y'
sg14
I2
sg19
(lp702
S'space'
p703
asg95
I11
sa(dp704
g16
(lp705
S'k'
asg18
S'N'
sS'.thisRepN'
p706
I5
sg20
S'Y'
sg32
g33
sS'.thisTrialN'
p707
I3
sS'.thisN'
p708
I78
sS'.thisIndex'
p709
I2
sg15
(lp710
S'd'
asg30
g31
sg17
S'N'
sg14
I2
sg19
Nsg95
I2
sa(dp711
g16
(lp712
S'k'
asg18
S'N'
sS'.thisRepN'
p713
I5
sg20
S'N'
sg32
g33
sS'.thisTrialN'
p714
I4
sS'.thisN'
p715
I79
sS'.thisIndex'
p716
I1
sg15
(lp717
S'k'
asg30
g31
sg17
S'Y'
sg14
I2
sg19
(lp718
S'space'
p719
asg95
I1
sa(dp720
g16
(lp721
S'd'
asg18
S'Y'
sS'.thisRepN'
p722
I5
sg20
S'Y'
sg32
g33
sS'.thisTrialN'
p723
I5
sS'.thisN'
p724
I80
sS'.thisIndex'
p725
I4
sg15
(lp726
S'k'
asg30
g31
sg17
S'N'
sg14
I2
sg19
(lp727
S'space'
p728
asg95
I4
sa(dp729
g16
(lp730
S'k'
asg18
S'N'
sS'.thisRepN'
p731
I5
sg20
S'Y'
sg32
g33
sS'.thisTrialN'
p732
I6
sS'.thisN'
p733
I81
sS'.thisIndex'
p734
I10
sg15
(lp735
S'd'
asg30
g31
sg17
S'N'
sg14
I2
sg19
Nsg95
I10
sa(dp736
g16
(lp737
S'k'
asg18
S'N'
sS'.thisRepN'
p738
I5
sg20
S'Y'
sg32
g33
sS'.thisTrialN'
p739
I7
sS'.thisN'
p740
I82
sS'.thisIndex'
p741
I11
sg15
(lp742
S'k'
asg30
g31
sg17
S'Y'
sg14
I2
sg19
Nsg95
I11
sa(dp743
g16
(lp744
S'd'
asg18
S'Y'
sS'.thisRepN'
p745
I5
sg20
S'N'
sg32
g33
sS'.thisTrialN'
p746
I8
sS'.thisN'
p747
I83
sS'.thisIndex'
p748
I4
sg15
(lp749
S'k'
asg30
g31
sg17
S'N'
sg14
I2
sg19
Nsg95
I4
sa(dp750
g16
(lp751
S'd'
asg18
S'Y'
sS'.thisRepN'
p752
I5
sg20
S'Y'
sg32
g33
sS'.thisTrialN'
p753
I9
sS'.thisN'
p754
I84
sS'.thisIndex'
p755
I11
sg15
(lp756
S'd'
asg30
g31
sg17
S'Y'
sg14
I2
sg19
(lp757
S'space'
p758
asg95
I11
sa(dp759
g16
(lp760
S'k'
asg18
S'N'
sS'.thisRepN'
p761
I5
sg20
S'Y'
sg32
g33
sS'.thisTrialN'
p762
I10
sS'.thisN'
p763
I85
sS'.thisIndex'
p764
I0
sg15
(lp765
S'k'
asg30
g31
sg17
S'Y'
sg14
I2
sg19
Nsg95
I0
sa(dp766
g16
(lp767
S'k'
asg18
S'Y'
sS'.thisRepN'
p768
I5
sg20
S'Y'
sg32
g33
sS'.thisTrialN'
p769
I11
sS'.thisN'
p770
I86
sS'.thisIndex'
p771
I3
sg15
(lp772
S'd'
asg30
g31
sg17
S'N'
sg14
I2
sg19
(lp773
S'space'
p774
asg95
I3
sa(dp775
g16
(lp776
S'd'
asg18
S'Y'
sS'.thisRepN'
p777
I5
sg20
S'Y'
sg32
g33
sS'.thisTrialN'
p778
I12
sS'.thisN'
p779
I87
sS'.thisIndex'
p780
I9
sg15
(lp781
S'k'
asg30
g31
sg17
S'N'
sg14
I2
sg19
(lp782
S'space'
p783
asg95
I9
sa(dp784
g16
(lp785
S'k'
asg18
S'Y'
sS'.thisRepN'
p786
I5
sg20
S'Y'
sg32
g33
sS'.thisTrialN'
p787
I13
sS'.thisN'
p788
I88
sS'.thisIndex'
p789
I9
sg15
(lp790
S'd'
asg30
g31
sg17
S'N'
sg14
I2
sg19
(lp791
S'space'
p792
asg95
I9
sa(dp793
g16
(lp794
S'd'
asg18
S'N'
sS'.thisRepN'
p795
I5
sg20
S'Y'
sg32
g33
sS'.thisTrialN'
p796
I14
sS'.thisN'
p797
I89
sS'.thisIndex'
p798
I12
sg15
(lp799
S'k'
asg30
g31
sg17
S'N'
sg14
I2
sg19
Nsg95
I12
sa(dp800
g16
(lp801
S'k'
asg18
S'N'
sS'.thisRepN'
p802
I6
sg20
S'Y'
sg32
g33
sS'.thisTrialN'
p803
I0
sS'.thisN'
p804
I90
sS'.thisIndex'
p805
I3
sg15
(lp806
S'k'
asg30
g31
sg17
S'Y'
sg14
I2
sg19
Nsg95
I3
sa(dp807
g16
(lp808
S'k'
asg18
S'N'
sS'.thisRepN'
p809
I6
sg20
S'Y'
sg32
g33
sS'.thisTrialN'
p810
I1
sS'.thisN'
p811
I91
sS'.thisIndex'
p812
I4
sg15
(lp813
S'd'
asg30
g31
sg17
S'N'
sg14
I2
sg19
Nsg95
I4
sa(dp814
g16
(lp815
S'd'
asg18
S'Y'
sS'.thisRepN'
p816
I6
sg20
S'Y'
sg32
g33
sS'.thisTrialN'
p817
I2
sS'.thisN'
p818
I92
sS'.thisIndex'
p819
I6
sg15
(lp820
S'k'
asg30
g31
sg17
S'N'
sg14
I2
sg19
(lp821
S'space'
p822
asg95
I6
sa(dp823
g16
(lp824
S'k'
asg18
S'Y'
sS'.thisRepN'
p825
I6
sg20
S'Y'
sg32
g33
sS'.thisTrialN'
p826
I3
sS'.thisN'
p827
I93
sS'.thisIndex'
p828
I6
sg15
(lp829
S'd'
asg30
g31
sg17
S'N'
sg14
I2
sg19
(lp830
S'space'
p831
asg95
I6
sa(dp832
g16
(lp833
S'k'
asg18
S'N'
sS'.thisRepN'
p834
I6
sg20
S'Y'
sg32
g33
sS'.thisTrialN'
p835
I4
sS'.thisN'
p836
I94
sS'.thisIndex'
p837
I11
sg15
(lp838
S'd'
asg30
g31
sg17
S'N'
sg14
I2
sg19
Nsg95
I11
sa(dp839
g16
(lp840
S'k'
asg18
S'N'
sS'.thisRepN'
p841
I6
sg20
S'N'
sg32
g33
sS'.thisTrialN'
p842
I5
sS'.thisN'
p843
I95
sS'.thisIndex'
p844
I7
sg15
(lp845
S'd'
asg30
g31
sg17
S'N'
sg14
I2
sg19
(lp846
S'k'
asg95
I7
sa(dp847
g16
(lp848
S'k'
asg18
S'Y'
sS'.thisRepN'
p849
I6
sg20
S'Y'
sg32
g33
sS'.thisTrialN'
p850
I6
sS'.thisN'
p851
I96
sS'.thisIndex'
p852
I6
sg15
(lp853
S'k'
asg30
g31
sg17
S'Y'
sg14
I2
sg19
(lp854
S'space'
p855
asg95
I6
sa(dp856
g16
(lp857
S'k'
asg18
S'Y'
sS'.thisRepN'
p858
I6
sg20
S'Y'
sg32
g33
sS'.thisTrialN'
p859
I7
sS'.thisN'
p860
I97
sS'.thisIndex'
p861
I0
sg15
(lp862
S'k'
asg30
g31
sg17
S'Y'
sg14
I2
sg19
(lp863
S'space'
p864
asg95
I0
sa(dp865
g16
(lp866
S'd'
asg18
S'Y'
sS'.thisRepN'
p867
I6
sg20
S'N'
sg32
g33
sS'.thisTrialN'
p868
I8
sS'.thisN'
p869
I98
sS'.thisIndex'
p870
I10
sg15
(lp871
S'k'
asg30
g31
sg17
S'N'
sg14
I2
sg19
Nsg95
I10
sa(dp872
g16
(lp873
S'd'
asg18
S'N'
sg22
I42
sS'.thisN'
p874
I99
sg20
S'Y'
sg32
g33
sS'.thisTrialN'
p875
I9
sS'.thisRepN'
p876
I6
sg21
I28
sS'.thisIndex'
p877
I1
sg23
I24
sg15
(lp878
S'd'
asg30
g31
sg17
S'Y'
sg14
I2
sg19
Nsg95
I1
sa(dp879
g16
(lp880
S'd'
asg95
I14
sS'.thisRepN'
p881
I6
sg30
g31
sg32
g33
sS'.thisTrialN'
p882
I10
sS'.thisN'
p883
I100
sS'.thisIndex'
p884
I14
sg15
(lp885
S'd'
asg17
S'Y'
sg14
I3
sa(dp886
g16
(lp887
S'd'
asg95
I13
sS'.thisRepN'
p888
I6
sg30
g31
sg32
g33
sS'.thisTrialN'
p889
I11
sS'.thisN'
p890
I101
sS'.thisIndex'
p891
I13
sg15
(lp892
S'd'
asg17
S'Y'
sg14
I3
sa(dp893
g16
(lp894
S'k'
asg18
S'N'
sS'.thisRepN'
p895
I6
sg20
S'Y'
sg32
g33
sS'.thisTrialN'
p896
I12
sS'.thisN'
p897
I102
sS'.thisIndex'
p898
I4
sg15
(lp899
S'd'
asg30
g31
sg17
S'N'
sg14
I3
sg19
Nsg95
I4
sa(dp900
g16
(lp901
S'k'
asg18
S'N'
sS'.thisRepN'
p902
I6
sg20
S'Y'
sg32
g33
sS'.thisTrialN'
p903
I13
sS'.thisN'
p904
I103
sS'.thisIndex'
p905
I12
sg15
(lp906
S'd'
asg30
g31
sg17
S'N'
sg14
I3
sg19
Nsg95
I12
sa(dp907
g16
(lp908
S'd'
asg18
S'Y'
sS'.thisRepN'
p909
I6
sg20
S'Y'
sg32
g33
sS'.thisTrialN'
p910
I14
sS'.thisN'
p911
I104
sS'.thisIndex'
p912
I5
sg15
(lp913
S'k'
asg30
g31
sg17
S'N'
sg14
I3
sg19
(lp914
S'space'
p915
asg95
I5
sa(dp916
g16
(lp917
S'd'
asg18
S'Y'
sS'.thisRepN'
p918
I7
sg20
S'Y'
sg32
g33
sS'.thisTrialN'
p919
I0
sS'.thisN'
p920
I105
sS'.thisIndex'
p921
I0
sg15
(lp922
S'd'
asg30
g31
sg17
S'Y'
sg14
I3
sg19
(lp923
S'space'
p924
asg95
I0
sa(dp925
g16
(lp926
S'd'
asg18
S'N'
sS'.thisRepN'
p927
I7
sg20
S'Y'
sg32
g33
sS'.thisTrialN'
p928
I1
sS'.thisN'
p929
I106
sS'.thisIndex'
p930
I13
sg15
(lp931
S'd'
asg30
g31
sg17
S'Y'
sg14
I3
sg19
Nsg95
I13
sa(dp932
g16
(lp933
S'k'
asg18
S'N'
sS'.thisRepN'
p934
I7
sg20
S'Y'
sg32
g33
sS'.thisTrialN'
p935
I2
sS'.thisN'
p936
I107
sS'.thisIndex'
p937
I6
sg15
(lp938
S'k'
asg30
g31
sg17
S'Y'
sg14
I3
sg19
Nsg95
I6
sa(dp939
g16
(lp940
S'k'
asg18
S'N'
sS'.thisRepN'
p941
I7
sg20
S'Y'
sg32
g33
sS'.thisTrialN'
p942
I3
sS'.thisN'
p943
I108
sS'.thisIndex'
p944
I1
sg15
(lp945
S'd'
asg30
g31
sg17
S'N'
sg14
I3
sg19
Nsg95
I1
sa(dp946
g16
(lp947
S'd'
asg18
S'N'
sS'.thisRepN'
p948
I7
sg20
S'Y'
sg32
g33
sS'.thisTrialN'
p949
I4
sS'.thisN'
p950
I109
sS'.thisIndex'
p951
I9
sg15
(lp952
S'k'
asg30
g31
sg17
S'N'
sg14
I3
sg19
Nsg95
I9
sa(dp953
g16
(lp954
S'd'
asg18
S'N'
sS'.thisRepN'
p955
I7
sg20
S'Y'
sg32
g33
sS'.thisTrialN'
p956
I5
sS'.thisN'
p957
I110
sS'.thisIndex'
p958
I10
sg15
(lp959
S'k'
asg30
g31
sg17
S'N'
sg14
I3
sg19
Nsg95
I10
sa(dp960
g16
(lp961
S'k'
asg18
S'N'
sS'.thisRepN'
p962
I7
sg20
S'Y'
sg32
g33
sS'.thisTrialN'
p963
I6
sS'.thisN'
p964
I111
sS'.thisIndex'
p965
I3
sg15
(lp966
S'd'
asg30
g31
sg17
S'N'
sg14
I3
sg19
Nsg95
I3
sa(dp967
g16
(lp968
S'd'
asg18
S'Y'
sS'.thisRepN'
p969
I7
sg20
S'Y'
sg32
g33
sS'.thisTrialN'
p970
I7
sS'.thisN'
p971
I112
sS'.thisIndex'
p972
I3
sg15
(lp973
S'd'
asg30
g31
sg17
S'Y'
sg14
I3
sg19
(lp974
S'space'
p975
asg95
I3
sa(dp976
g16
(lp977
S'd'
asg18
S'N'
sS'.thisRepN'
p978
I7
sg20
S'Y'
sg32
g33
sS'.thisTrialN'
p979
I8
sS'.thisN'
p980
I113
sS'.thisIndex'
p981
I9
sg15
(lp982
S'k'
asg30
g31
sg17
S'N'
sg14
I3
sg19
Nsg95
I9
sa(dp983
g16
(lp984
S'k'
asg18
S'N'
sS'.thisRepN'
p985
I7
sg20
S'Y'
sg32
g33
sS'.thisTrialN'
p986
I9
sS'.thisN'
p987
I114
sS'.thisIndex'
p988
I4
sg15
(lp989
S'd'
asg30
g31
sg17
S'N'
sg14
I3
sg19
Nsg95
I4
sa(dp990
g16
(lp991
S'd'
asg18
S'N'
sS'.thisRepN'
p992
I7
sg20
S'Y'
sg32
g33
sS'.thisTrialN'
p993
I10
sS'.thisN'
p994
I115
sS'.thisIndex'
p995
I2
sg15
(lp996
S'k'
asg30
g31
sg17
S'N'
sg14
I3
sg19
Nsg95
I2
sa(dp997
g16
(lp998
S'k'
asg18
S'N'
sS'.thisRepN'
p999
I7
sg20
S'Y'
sg32
g33
sS'.thisTrialN'
p1000
I11
sS'.thisN'
p1001
I116
sS'.thisIndex'
p1002
I0
sg15
(lp1003
S'k'
asg30
g31
sg17
S'Y'
sg14
I3
sg19
Nsg95
I0
sa(dp1004
g16
(lp1005
S'd'
asg18
S'N'
sS'.thisRepN'
p1006
I7
sg20
S'N'
sg32
g33
sS'.thisTrialN'
p1007
I12
sS'.thisN'
p1008
I117
sS'.thisIndex'
p1009
I2
sg15
(lp1010
S'd'
asg30
g31
sg17
S'Y'
sg14
I3
sg19
(lp1011
S'space'
p1012
asg95
I2
sa(dp1013
g16
(lp1014
S'k'
asg18
S'Y'
sS'.thisRepN'
p1015
I7
sg20
S'N'
sg32
g33
sS'.thisTrialN'
p1016
I13
sS'.thisN'
p1017
I118
sS'.thisIndex'
p1018
I1
sg15
(lp1019
S'k'
asg30
g31
sg17
S'Y'
sg14
I3
sg19
Nsg95
I1
sa(dp1020
g16
(lp1021
S'd'
asg18
S'Y'
sS'.thisRepN'
p1022
I7
sg20
S'Y'
sg32
g33
sS'.thisTrialN'
p1023
I14
sS'.thisN'
p1024
I119
sS'.thisIndex'
p1025
I6
sg15
(lp1026
S'd'
asg30
g31
sg17
S'Y'
sg14
I3
sg19
(lp1027
S'space'
p1028
asg95
I6
sa(dp1029
g16
(lp1030
S'd'
asg18
S'N'
sS'.thisRepN'
p1031
I8
sg20
S'Y'
sg32
g33
sS'.thisTrialN'
p1032
I0
sS'.thisN'
p1033
I120
sS'.thisIndex'
p1034
I13
sg15
(lp1035
S'k'
asg30
g31
sg17
S'N'
sg14
I3
sg19
Nsg95
I13
sa(dp1036
g16
(lp1037
S'd'
asg18
S'N'
sS'.thisRepN'
p1038
I8
sg20
S'Y'
sg32
g33
sS'.thisTrialN'
p1039
I1
sS'.thisN'
p1040
I121
sS'.thisIndex'
p1041
I8
sg15
(lp1042
S'd'
asg30
g31
sg17
S'Y'
sg14
I3
sg19
Nsg95
I8
sa(dp1043
g16
(lp1044
S'd'
asg18
S'Y'
sS'.thisRepN'
p1045
I8
sg20
S'Y'
sg32
g33
sS'.thisTrialN'
p1046
I2
sS'.thisN'
p1047
I122
sS'.thisIndex'
p1048
I9
sg15
(lp1049
S'd'
asg30
g31
sg17
S'Y'
sg14
I3
sg19
(lp1050
S'space'
p1051
asg95
I9
sa(dp1052
g16
(lp1053
S'k'
asg18
S'N'
sS'.thisRepN'
p1054
I8
sg20
S'Y'
sg32
g33
sS'.thisTrialN'
p1055
I3
sS'.thisN'
p1056
I123
sS'.thisIndex'
p1057
I6
sg15
(lp1058
S'd'
asg30
g31
sg17
S'N'
sg14
I3
sg19
Nsg95
I6
sa(dp1059
g16
(lp1060
S'k'
asg18
S'N'
sS'.thisRepN'
p1061
I8
sg20
S'Y'
sg32
g33
sS'.thisTrialN'
p1062
I4
sS'.thisN'
p1063
I124
sS'.thisIndex'
p1064
I3
sg15
(lp1065
S'k'
asg30
g31
sg17
S'Y'
sg14
I3
sg19
Nsg95
I3
sa(dp1066
g16
(lp1067
S'k'
asg18
S'N'
sS'.thisRepN'
p1068
I8
sg20
S'Y'
sg32
g33
sS'.thisTrialN'
p1069
I5
sS'.thisN'
p1070
I125
sS'.thisIndex'
p1071
I0
sg15
(lp1072
S'd'
asg30
g31
sg17
S'N'
sg14
I3
sg19
Nsg95
I0
sa(dp1073
g16
(lp1074
S'd'
asg18
S'Y'
sS'.thisRepN'
p1075
I8
sg20
S'Y'
sg32
g33
sS'.thisTrialN'
p1076
I6
sS'.thisN'
p1077
I126
sS'.thisIndex'
p1078
I11
sg15
(lp1079
S'k'
asg30
g31
sg17
S'N'
sg14
I3
sg19
(lp1080
S'space'
p1081
asg95
I11
sa(dp1082
g16
(lp1083
S'k'
asg18
S'N'
sS'.thisRepN'
p1084
I8
sg20
S'N'
sg32
g33
sS'.thisTrialN'
p1085
I7
sS'.thisN'
p1086
I127
sS'.thisIndex'
p1087
I3
sg15
(lp1088
S'd'
asg30
g31
sg17
S'N'
sg14
I3
sg19
(lp1089
S'space'
p1090
asg95
I3
sa(dp1091
g16
(lp1092
S'k'
asg18
S'N'
sS'.thisRepN'
p1093
I8
sg20
S'Y'
sg32
g33
sS'.thisTrialN'
p1094
I8
sS'.thisN'
p1095
I128
sS'.thisIndex'
p1096
I1
sg15
(lp1097
S'd'
asg30
g31
sg17
S'N'
sg14
I3
sg19
Nsg95
I1
sa(dp1098
g16
(lp1099
S'd'
asg18
S'N'
sS'.thisRepN'
p1100
I8
sg20
S'N'
sg32
g33
sS'.thisTrialN'
p1101
I9
sS'.thisN'
p1102
I129
sS'.thisIndex'
p1103
I12
sg15
(lp1104
S'k'
asg30
g31
sg17
S'N'
sg14
I3
sg19
(lp1105
S'space'
p1106
asg95
I12
sa(dp1107
g16
(lp1108
S'k'
asg18
S'Y'
sS'.thisRepN'
p1109
I8
sg20
S'N'
sg32
g33
sS'.thisTrialN'
p1110
I10
sS'.thisN'
p1111
I130
sS'.thisIndex'
p1112
I5
sg15
(lp1113
S'k'
asg30
g31
sg17
S'Y'
sg14
I3
sg19
Nsg95
I5
sa(dp1114
g16
(lp1115
S'd'
asg18
S'Y'
sS'.thisRepN'
p1116
I8
sg20
S'Y'
sg32
g33
sS'.thisTrialN'
p1117
I11
sS'.thisN'
p1118
I131
sS'.thisIndex'
p1119
I13
sg15
(lp1120
S'd'
asg30
g31
sg17
S'Y'
sg14
I3
sg19
(lp1121
S'space'
p1122
asg95
I13
sa(dp1123
g16
(lp1124
S'k'
asg18
S'N'
sS'.thisRepN'
p1125
I8
sg20
S'Y'
sg32
g33
sS'.thisTrialN'
p1126
I12
sS'.thisN'
p1127
I132
sS'.thisIndex'
p1128
I9
sg15
(lp1129
S'd'
asg30
g31
sg17
S'N'
sg14
I3
sg19
Nsg95
I9
sa(dp1130
g16
(lp1131
S'd'
asg18
S'Y'
sS'.thisRepN'
p1132
I8
sg20
S'Y'
sg32
g33
sS'.thisTrialN'
p1133
I13
sS'.thisN'
p1134
I133
sS'.thisIndex'
p1135
I3
sg15
(lp1136
S'd'
asg30
g31
sg17
S'Y'
sg14
I3
sg19
(lp1137
S'space'
p1138
asg95
I3
sa(dp1139
g16
(lp1140
S'd'
asg18
S'N'
sS'.thisRepN'
p1141
I8
sg20
S'Y'
sg32
g33
sS'.thisTrialN'
p1142
I14
sS'.thisN'
p1143
I134
sS'.thisIndex'
p1144
I5
sg15
(lp1145
S'k'
asg30
g31
sg17
S'N'
sg14
I3
sg19
Nsg95
I5
sa(dp1146
g16
(lp1147
S'k'
asg18
S'Y'
sS'.thisRepN'
p1148
I9
sg20
S'N'
sg32
g33
sS'.thisTrialN'
p1149
I0
sS'.thisN'
p1150
I135
sS'.thisIndex'
p1151
I14
sg15
(lp1152
S'd'
asg30
g31
sg17
S'N'
sg14
I3
sg19
Nsg95
I14
sa(dp1153
g16
(lp1154
S'd'
asg18
S'N'
sS'.thisRepN'
p1155
I9
sg20
S'Y'
sg32
g33
sS'.thisTrialN'
p1156
I1
sS'.thisN'
p1157
I136
sS'.thisIndex'
p1158
I2
sg15
(lp1159
S'k'
asg30
g31
sg17
S'N'
sg14
I3
sg19
Nsg95
I2
sa(dp1160
g16
(lp1161
S'k'
asg18
S'Y'
sS'.thisRepN'
p1162
I9
sg20
S'Y'
sg32
g33
sS'.thisTrialN'
p1163
I2
sS'.thisN'
p1164
I137
sS'.thisIndex'
p1165
I13
sg15
(lp1166
S'd'
asg30
g31
sg17
S'N'
sg14
I3
sg19
(lp1167
S'space'
p1168
asg95
I13
sa(dp1169
g16
(lp1170
S'k'
asg18
S'N'
sS'.thisRepN'
p1171
I9
sg20
S'Y'
sg32
g33
sS'.thisTrialN'
p1172
I3
sS'.thisN'
p1173
I138
sS'.thisIndex'
p1174
I10
sg15
(lp1175
S'd'
asg30
g31
sg17
S'N'
sg14
I3
sg19
Nsg95
I10
sa(dp1176
g16
(lp1177
S'd'
asg18
S'N'
sS'.thisRepN'
p1178
I9
sg20
S'Y'
sg32
g33
sS'.thisTrialN'
p1179
I4
sS'.thisN'
p1180
I139
sS'.thisIndex'
p1181
I0
sg15
(lp1182
S'k'
asg30
g31
sg17
S'N'
sg14
I3
sg19
Nsg95
I0
sa(dp1183
g16
(lp1184
S'k'
asg18
S'Y'
sS'.thisRepN'
p1185
I9
sg20
S'Y'
sg32
g33
sS'.thisTrialN'
p1186
I5
sS'.thisN'
p1187
I140
sS'.thisIndex'
p1188
I0
sg15
(lp1189
S'd'
asg30
g31
sg17
S'N'
sg14
I3
sg19
(lp1190
S'space'
p1191
asg95
I0
sa(dp1192
g16
(lp1193
S'k'
asg18
S'N'
sS'.thisRepN'
p1194
I9
sg20
S'Y'
sg32
g33
sS'.thisTrialN'
p1195
I6
sS'.thisN'
p1196
I141
sS'.thisIndex'
p1197
I7
sg15
(lp1198
S'k'
asg30
g31
sg17
S'Y'
sg14
I3
sg19
Nsg95
I7
sa(dp1199
g16
(lp1200
S'k'
asg18
S'N'
sS'.thisRepN'
p1201
I9
sg20
S'Y'
sg32
g33
sS'.thisTrialN'
p1202
I7
sS'.thisN'
p1203
I142
sS'.thisIndex'
p1204
I11
sg15
(lp1205
S'd'
asg30
g31
sg17
S'N'
sg14
I3
sg19
Nsg95
I11
sa(dp1206
g16
(lp1207
S'k'
asg18
S'Y'
sS'.thisRepN'
p1208
I9
sg20
S'N'
sg32
g33
sS'.thisTrialN'
p1209
I8
sS'.thisN'
p1210
I143
sS'.thisIndex'
p1211
I5
sg15
(lp1212
S'k'
asg30
g31
sg17
S'Y'
sg14
I3
sg19
(lp1213
S'k'
asg95
I5
sa(dp1214
g16
(lp1215
S'd'
asg18
S'N'
sS'.thisRepN'
p1216
I9
sg20
S'Y'
sg32
g33
sS'.thisTrialN'
p1217
I9
sS'.thisN'
p1218
I144
sS'.thisIndex'
p1219
I14
sg15
(lp1220
S'd'
asg30
g31
sg17
S'Y'
sg14
I3
sg19
Nsg95
I14
sa(dp1221
g16
(lp1222
S'k'
asg18
S'N'
sS'.thisRepN'
p1223
I9
sg20
S'Y'
sg32
g33
sS'.thisTrialN'
p1224
I10
sS'.thisN'
p1225
I145
sS'.thisIndex'
p1226
I3
sg15
(lp1227
S'd'
asg30
g31
sg17
S'N'
sg14
I3
sg19
Nsg95
I3
sa(dp1228
g16
(lp1229
S'd'
asg18
S'Y'
sS'.thisRepN'
p1230
I9
sg20
S'Y'
sg32
g33
sS'.thisTrialN'
p1231
I11
sS'.thisN'
p1232
I146
sS'.thisIndex'
p1233
I2
sg15
(lp1234
S'd'
asg30
g31
sg17
S'Y'
sg14
I3
sg19
(lp1235
S'space'
p1236
asg95
I2
sa(dp1237
g16
(lp1238
S'k'
asg18
S'N'
sS'.thisRepN'
p1239
I9
sg20
S'N'
sg32
g33
sS'.thisTrialN'
p1240
I12
sS'.thisN'
p1241
I147
sS'.thisIndex'
p1242
I12
sg15
(lp1243
S'k'
asg30
g31
sg17
S'Y'
sg14
I3
sg19
(lp1244
S'space'
p1245
asg95
I12
sa(dp1246
g16
(lp1247
S'k'
asg18
S'Y'
sS'.thisRepN'
p1248
I9
sg20
S'Y'
sg32
g33
sS'.thisTrialN'
p1249
I13
sS'.thisN'
p1250
I148
sS'.thisIndex'
p1251
I1
sg15
(lp1252
S'd'
asg30
g31
sg17
S'N'
sg14
I3
sg19
(lp1253
S'space'
p1254
asg95
I1
sa(dp1255
g16
(lp1256
S'd'
asg18
S'N'
sg22
I40
sS'.thisN'
p1257
I149
sg20
S'Y'
sg32
g33
sS'.thisTrialN'
p1258
I14
sS'.thisRepN'
p1259
I9
sg21
I21
sS'.thisIndex'
p1260
I9
sg23
I16
sg15
(lp1261
S'k'
asg30
g31
sg17
S'N'
sg14
I3
sg19
Nsg95
I9
sa(dp1262
g16
(lp1263
S'k'
asg95
I2
sS'.thisRepN'
p1264
I10
sg30
g31
sg32
g33
sS'.thisTrialN'
p1265
I0
sS'.thisN'
p1266
I150
sS'.thisIndex'
p1267
I2
sg15
(lp1268
S'd'
asg17
S'N'
sg14
I4
sa(dp1269
g16
(lp1270
S'd'
asg95
I11
sS'.thisRepN'
p1271
I10
sg30
g31
sg32
g33
sS'.thisTrialN'
p1272
I1
sS'.thisN'
p1273
I151
sS'.thisIndex'
p1274
I11
sg15
(lp1275
S'k'
asg17
S'N'
sg14
I4
sa(dp1276
g16
(lp1277
S'k'
asg18
S'Y'
sS'.thisRepN'
p1278
I10
sg20
S'Y'
sg32
g33
sS'.thisTrialN'
p1279
I2
sS'.thisN'
p1280
I152
sS'.thisIndex'
p1281
I8
sg15
(lp1282
S'd'
asg30
g31
sg17
S'N'
sg14
I4
sg19
(lp1283
S'space'
p1284
asg95
I8
sa(dp1285
g16
(lp1286
S'd'
asg18
S'N'
sS'.thisRepN'
p1287
I10
sg20
S'Y'
sg32
g33
sS'.thisTrialN'
p1288
I3
sS'.thisN'
p1289
I153
sS'.thisIndex'
p1290
I14
sg15
(lp1291
S'd'
asg30
g31
sg17
S'Y'
sg14
I4
sg19
Nsg95
I14
sa(dp1292
g16
(lp1293
S'k'
asg18
S'Y'
sS'.thisRepN'
p1294
I10
sg20
S'Y'
sg32
g33
sS'.thisTrialN'
p1295
I4
sS'.thisN'
p1296
I154
sS'.thisIndex'
p1297
I2
sg15
(lp1298
S'd'
asg30
g31
sg17
S'N'
sg14
I4
sg19
(lp1299
S'space'
p1300
asg95
I2
sa(dp1301
g16
(lp1302
S'd'
asg18
S'Y'
sS'.thisRepN'
p1303
I10
sg20
S'N'
sg32
g33
sS'.thisTrialN'
p1304
I5
sS'.thisN'
p1305
I155
sS'.thisIndex'
p1306
I6
sg15
(lp1307
S'd'
asg30
g31
sg17
S'Y'
sg14
I4
sg19
Nsg95
I6
sa(dp1308
g18
S'N'
sS'.thisRepN'
p1309
I10
sg20
S'Y'
sg32
g33
sS'.thisTrialN'
p1310
I6
sS'.thisN'
p1311
I156
sS'.thisIndex'
p1312
I8
sg15
Nsg30
g31
sg17
g221
sg14
I4
sg19
Nsg95
I8
sa(dp1313
g16
(lp1314
S'd'
asg18
S'Y'
sS'.thisRepN'
p1315
I10
sg20
S'N'
sg32
g33
sS'.thisTrialN'
p1316
I7
sS'.thisN'
p1317
I157
sS'.thisIndex'
p1318
I14
sg15
(lp1319
S'd'
asg30
g31
sg17
S'Y'
sg14
I4
sg19
Nsg95
I14
sa(dp1320
g16
(lp1321
S'd'
asg18
S'N'
sS'.thisRepN'
p1322
I10
sg20
S'Y'
sg32
g33
sS'.thisTrialN'
p1323
I8
sS'.thisN'
p1324
I158
sS'.thisIndex'
p1325
I3
sg15
(lp1326
S'k'
asg30
g31
sg17
S'N'
sg14
I4
sg19
Nsg95
I3
sa(dp1327
g16
(lp1328
S'k'
asg18
S'N'
sS'.thisRepN'
p1329
I10
sg20
S'Y'
sg32
g33
sS'.thisTrialN'
p1330
I9
sS'.thisN'
p1331
I159
sS'.thisIndex'
p1332
I13
sg15
(lp1333
S'd'
asg30
g31
sg17
S'N'
sg14
I4
sg19
Nsg95
I13
sa(dp1334
g16
(lp1335
S'd'
asg18
S'N'
sS'.thisRepN'
p1336
I10
sg20
S'Y'
sg32
g33
sS'.thisTrialN'
p1337
I10
sS'.thisN'
p1338
I160
sS'.thisIndex'
p1339
I11
sg15
(lp1340
S'k'
asg30
g31
sg17
S'N'
sg14
I4
sg19
Nsg95
I11
sa(dp1341
g16
(lp1342
S'k'
asg18
S'N'
sS'.thisRepN'
p1343
I10
sg20
S'Y'
sg32
g33
sS'.thisTrialN'
p1344
I11
sS'.thisN'
p1345
I161
sS'.thisIndex'
p1346
I11
sg15
(lp1347
S'd'
asg30
g31
sg17
S'N'
sg14
I4
sg19
Nsg95
I11
sa(dp1348
g16
(lp1349
S'd'
asg18
S'Y'
sS'.thisRepN'
p1350
I10
sg20
S'N'
sg32
g33
sS'.thisTrialN'
p1351
I12
sS'.thisN'
p1352
I162
sS'.thisIndex'
p1353
I3
sg15
(lp1354
S'd'
asg30
g31
sg17
S'Y'
sg14
I4
sg19
Nsg95
I3
sa(dp1355
g16
(lp1356
S'k'
asg18
S'Y'
sS'.thisRepN'
p1357
I10
sg20
S'N'
sg32
g33
sS'.thisTrialN'
p1358
I13
sS'.thisN'
p1359
I163
sS'.thisIndex'
p1360
I11
sg15
(lp1361
S'k'
asg30
g31
sg17
S'Y'
sg14
I4
sg19
Nsg95
I11
sa(dp1362
g16
(lp1363
S'd'
asg18
S'N'
sS'.thisRepN'
p1364
I10
sg20
S'Y'
sg32
g33
sS'.thisTrialN'
p1365
I14
sS'.thisN'
p1366
I164
sS'.thisIndex'
p1367
I14
sg15
(lp1368
S'd'
asg30
g31
sg17
S'Y'
sg14
I4
sg19
Nsg95
I14
sa(dp1369
g16
(lp1370
S'd'
asg18
S'N'
sS'.thisRepN'
p1371
I11
sg20
S'Y'
sg32
g33
sS'.thisTrialN'
p1372
I0
sS'.thisN'
p1373
I165
sS'.thisIndex'
p1374
I10
sg15
(lp1375
S'k'
asg30
g31
sg17
S'N'
sg14
I4
sg19
Nsg95
I10
sa(dp1376
g16
(lp1377
S'd'
asg18
S'Y'
sS'.thisRepN'
p1378
I11
sg20
S'N'
sg32
g33
sS'.thisTrialN'
p1379
I1
sS'.thisN'
p1380
I166
sS'.thisIndex'
p1381
I11
sg15
(lp1382
S'd'
asg30
g31
sg17
S'Y'
sg14
I4
sg19
Nsg95
I11
sa(dp1383
g16
(lp1384
S'd'
asg18
S'N'
sS'.thisRepN'
p1385
I11
sg20
S'Y'
sg32
g33
sS'.thisTrialN'
p1386
I2
sS'.thisN'
p1387
I167
sS'.thisIndex'
p1388
I7
sg15
(lp1389
S'd'
asg30
g31
sg17
S'Y'
sg14
I4
sg19
Nsg95
I7
sa(dp1390
g16
(lp1391
S'k'
asg18
S'Y'
sS'.thisRepN'
p1392
I11
sg20
S'N'
sg32
g33
sS'.thisTrialN'
p1393
I3
sS'.thisN'
p1394
I168
sS'.thisIndex'
p1395
I11
sg15
(lp1396
S'k'
asg30
g31
sg17
S'Y'
sg14
I4
sg19
Nsg95
I11
sa(dp1397
g16
(lp1398
S'd'
asg18
S'N'
sS'.thisRepN'
p1399
I11
sg20
S'Y'
sg32
g33
sS'.thisTrialN'
p1400
I4
sS'.thisN'
p1401
I169
sS'.thisIndex'
p1402
I13
sg15
(lp1403
S'k'
asg30
g31
sg17
S'N'
sg14
I4
sg19
Nsg95
I13
sa(dp1404
g16
(lp1405
S'k'
asg18
S'N'
sS'.thisRepN'
p1406
I11
sg20
S'Y'
sg32
g33
sS'.thisTrialN'
p1407
I5
sS'.thisN'
p1408
I170
sS'.thisIndex'
p1409
I2
sg15
(lp1410
S'k'
asg30
g31
sg17
S'Y'
sg14
I4
sg19
Nsg95
I2
sa(dp1411
g16
(lp1412
S'd'
asg18
S'Y'
sS'.thisRepN'
p1413
I11
sg20
S'Y'
sg32
g33
sS'.thisTrialN'
p1414
I6
sS'.thisN'
p1415
I171
sS'.thisIndex'
p1416
I1
sg15
(lp1417
S'd'
asg30
g31
sg17
S'Y'
sg14
I4
sg19
(lp1418
S'space'
p1419
asg95
I1
sa(dp1420
g16
(lp1421
S'd'
asg18
S'N'
sS'.thisRepN'
p1422
I11
sg20
S'Y'
sg32
g33
sS'.thisTrialN'
p1423
I7
sS'.thisN'
p1424
I172
sS'.thisIndex'
p1425
I11
sg15
(lp1426
S'd'
asg30
g31
sg17
S'Y'
sg14
I4
sg19
Nsg95
I11
sa(dp1427
g16
(lp1428
S'k'
asg18
S'N'
sS'.thisRepN'
p1429
I11
sg20
S'Y'
sg32
g33
sS'.thisTrialN'
p1430
I8
sS'.thisN'
p1431
I173
sS'.thisIndex'
p1432
I4
sg15
(lp1433
S'k'
asg30
g31
sg17
S'Y'
sg14
I4
sg19
Nsg95
I4
sa(dp1434
g16
(lp1435
S'k'
asg18
S'N'
sS'.thisRepN'
p1436
I11
sg20
S'Y'
sg32
g33
sS'.thisTrialN'
p1437
I9
sS'.thisN'
p1438
I174
sS'.thisIndex'
p1439
I0
sg15
(lp1440
S'k'
asg30
g31
sg17
S'Y'
sg14
I4
sg19
Nsg95
I0
sa(dp1441
g16
(lp1442
S'k'
asg18
S'N'
sS'.thisRepN'
p1443
I11
sg20
S'Y'
sg32
g33
sS'.thisTrialN'
p1444
I10
sS'.thisN'
p1445
I175
sS'.thisIndex'
p1446
I14
sg15
(lp1447
S'k'
asg30
g31
sg17
S'Y'
sg14
I4
sg19
Nsg95
I14
sa(dp1448
g16
(lp1449
S'k'
asg18
S'Y'
sS'.thisRepN'
p1450
I11
sg20
S'Y'
sg32
g33
sS'.thisTrialN'
p1451
I11
sS'.thisN'
p1452
I176
sS'.thisIndex'
p1453
I11
sg15
(lp1454
S'k'
asg30
g31
sg17
S'Y'
sg14
I4
sg19
(lp1455
S'space'
p1456
asg95
I11
sa(dp1457
g16
(lp1458
S'd'
asg18
S'N'
sS'.thisRepN'
p1459
I11
sg20
S'Y'
sg32
g33
sS'.thisTrialN'
p1460
I12
sS'.thisN'
p1461
I177
sS'.thisIndex'
p1462
I7
sg15
(lp1463
S'd'
asg30
g31
sg17
S'Y'
sg14
I4
sg19
Nsg95
I7
sa(dp1464
g16
(lp1465
S'd'
asg18
S'N'
sS'.thisRepN'
p1466
I11
sg20
S'Y'
sg32
g33
sS'.thisTrialN'
p1467
I13
sS'.thisN'
p1468
I178
sS'.thisIndex'
p1469
I8
sg15
(lp1470
S'd'
asg30
g31
sg17
S'Y'
sg14
I4
sg19
Nsg95
I8
sa(dp1471
g16
(lp1472
S'k'
asg18
S'N'
sS'.thisRepN'
p1473
I11
sg20
S'Y'
sg32
g33
sS'.thisTrialN'
p1474
I14
sS'.thisN'
p1475
I179
sS'.thisIndex'
p1476
I2
sg15
(lp1477
S'k'
asg30
g31
sg17
S'Y'
sg14
I4
sg19
Nsg95
I2
sa(dp1478
g16
(lp1479
S'k'
asg18
S'N'
sS'.thisRepN'
p1480
I12
sg20
S'Y'
sg32
g33
sS'.thisTrialN'
p1481
I0
sS'.thisN'
p1482
I180
sS'.thisIndex'
p1483
I6
sg15
(lp1484
S'k'
asg30
g31
sg17
S'Y'
sg14
I4
sg19
Nsg95
I6
sa(dp1485
g16
(lp1486
S'k'
asg18
S'Y'
sS'.thisRepN'
p1487
I12
sg20
S'N'
sg32
g33
sS'.thisTrialN'
p1488
I1
sS'.thisN'
p1489
I181
sS'.thisIndex'
p1490
I1
sg15
(lp1491
S'k'
asg30
g31
sg17
S'Y'
sg14
I4
sg19
Nsg95
I1
sa(dp1492
g16
(lp1493
S'd'
asg18
S'N'
sS'.thisRepN'
p1494
I12
sg20
S'Y'
sg32
g33
sS'.thisTrialN'
p1495
I2
sS'.thisN'
p1496
I182
sS'.thisIndex'
p1497
I4
sg15
(lp1498
S'd'
asg30
g31
sg17
S'Y'
sg14
I4
sg19
Nsg95
I4
sa(dp1499
g16
(lp1500
S'd'
asg18
S'Y'
sS'.thisRepN'
p1501
I12
sg20
S'Y'
sg32
g33
sS'.thisTrialN'
p1502
I3
sS'.thisN'
p1503
I183
sS'.thisIndex'
p1504
I6
sg15
(lp1505
S'd'
asg30
g31
sg17
S'Y'
sg14
I4
sg19
(lp1506
S'space'
p1507
asg95
I6
sa(dp1508
g16
(lp1509
S'k'
asg18
S'N'
sS'.thisRepN'
p1510
I12
sg20
S'Y'
sg32
g33
sS'.thisTrialN'
p1511
I4
sS'.thisN'
p1512
I184
sS'.thisIndex'
p1513
I5
sg15
(lp1514
S'k'
asg30
g31
sg17
S'Y'
sg14
I4
sg19
Nsg95
I5
sa(dp1515
g16
(lp1516
S'k'
asg18
S'Y'
sS'.thisRepN'
p1517
I12
sg20
S'Y'
sg32
g33
sS'.thisTrialN'
p1518
I5
sS'.thisN'
p1519
I185
sS'.thisIndex'
p1520
I2
sg15
(lp1521
S'k'
asg30
g31
sg17
S'Y'
sg14
I4
sg19
(lp1522
S'space'
p1523
asg95
I2
sa(dp1524
g16
(lp1525
S'k'
asg18
S'N'
sS'.thisRepN'
p1526
I12
sg20
S'Y'
sg32
g33
sS'.thisTrialN'
p1527
I6
sS'.thisN'
p1528
I186
sS'.thisIndex'
p1529
I1
sg15
(lp1530
S'k'
asg30
g31
sg17
S'Y'
sg14
I4
sg19
Nsg95
I1
sa(dp1531
g16
(lp1532
S'k'
asg18
S'N'
sS'.thisRepN'
p1533
I12
sg20
S'Y'
sg32
g33
sS'.thisTrialN'
p1534
I7
sS'.thisN'
p1535
I187
sS'.thisIndex'
p1536
I13
sg15
(lp1537
S'k'
asg30
g31
sg17
S'Y'
sg14
I4
sg19
Nsg95
I13
sa(dp1538
g16
(lp1539
S'k'
asg18
S'N'
sS'.thisRepN'
p1540
I12
sg20
S'Y'
sg32
g33
sS'.thisTrialN'
p1541
I8
sS'.thisN'
p1542
I188
sS'.thisIndex'
p1543
I7
sg15
(lp1544
S'k'
asg30
g31
sg17
S'Y'
sg14
I4
sg19
Nsg95
I7
sa(dp1545
g16
(lp1546
S'd'
asg18
S'Y'
sS'.thisRepN'
p1547
I12
sg20
S'N'
sg32
g33
sS'.thisTrialN'
p1548
I9
sS'.thisN'
p1549
I189
sS'.thisIndex'
p1550
I5
sg15
(lp1551
S'd'
asg30
g31
sg17
S'Y'
sg14
I4
sg19
Nsg95
I5
sa(dp1552
g16
(lp1553
S'd'
asg18
S'N'
sS'.thisRepN'
p1554
I12
sg20
S'Y'
sg32
g33
sS'.thisTrialN'
p1555
I10
sS'.thisN'
p1556
I190
sS'.thisIndex'
p1557
I0
sg15
(lp1558
S'd'
asg30
g31
sg17
S'Y'
sg14
I4
sg19
Nsg95
I0
sa(dp1559
g16
(lp1560
S'd'
asg18
S'N'
sS'.thisRepN'
p1561
I12
sg20
S'Y'
sg32
g33
sS'.thisTrialN'
p1562
I11
sS'.thisN'
p1563
I191
sS'.thisIndex'
p1564
I1
sg15
(lp1565
S'd'
asg30
g31
sg17
S'Y'
sg14
I4
sg19
Nsg95
I1
sa(dp1566
g16
(lp1567
S'd'
asg18
S'N'
sS'.thisRepN'
p1568
I12
sg20
S'Y'
sg32
g33
sS'.thisTrialN'
p1569
I12
sS'.thisN'
p1570
I192
sS'.thisIndex'
p1571
I13
sg15
(lp1572
S'd'
asg30
g31
sg17
S'Y'
sg14
I4
sg19
Nsg95
I13
sa(dp1573
g16
(lp1574
S'k'
asg18
S'N'
sS'.thisRepN'
p1575
I12
sg20
S'N'
sg32
g33
sS'.thisTrialN'
p1576
I13
sS'.thisN'
p1577
I193
sS'.thisIndex'
p1578
I8
sg15
(lp1579
S'k'
asg30
g31
sg17
S'Y'
sg14
I4
sg19
(lp1580
S'space'
p1581
asg95
I8
sa(dp1582
g16
(lp1583
S'k'
asg18
S'Y'
sS'.thisRepN'
p1584
I12
sg20
S'N'
sg32
g33
sS'.thisTrialN'
p1585
I14
sS'.thisN'
p1586
I194
sS'.thisIndex'
p1587
I6
sg15
(lp1588
S'k'
asg30
g31
sg17
S'Y'
sg14
I4
sg19
Nsg95
I6
sa(dp1589
g16
(lp1590
S'k'
asg18
S'Y'
sS'.thisRepN'
p1591
I13
sg20
S'Y'
sg32
g33
sS'.thisTrialN'
p1592
I0
sS'.thisN'
p1593
I195
sS'.thisIndex'
p1594
I7
sg15
(lp1595
S'k'
asg30
g31
sg17
S'Y'
sg14
I4
sg19
(lp1596
S'space'
p1597
asg95
I7
sa(dp1598
g16
(lp1599
S'd'
asg18
S'Y'
sS'.thisRepN'
p1600
I13
sg20
S'Y'
sg32
g33
sS'.thisTrialN'
p1601
I1
sS'.thisN'
p1602
I196
sS'.thisIndex'
p1603
I13
sg15
(lp1604
S'd'
asg30
g31
sg17
S'Y'
sg14
I4
sg19
(lp1605
S'space'
p1606
asg95
I13
sa(dp1607
g16
(lp1608
S'k'
asg18
S'N'
sS'.thisRepN'
p1609
I13
sg20
S'Y'
sg32
g33
sS'.thisTrialN'
p1610
I2
sS'.thisN'
p1611
I197
sS'.thisIndex'
p1612
I10
sg15
(lp1613
S'k'
asg30
g31
sg17
S'Y'
sg14
I4
sg19
Nsg95
I10
sa(dp1614
g16
(lp1615
S'k'
asg18
S'Y'
sS'.thisRepN'
p1616
I13
sg20
S'Y'
sg32
g33
sS'.thisTrialN'
p1617
I3
sS'.thisN'
p1618
I198
sS'.thisIndex'
p1619
I12
sg15
(lp1620
S'k'
asg30
g31
sg17
S'Y'
sg14
I4
sg19
(lp1621
S'space'
p1622
asg95
I12
sa(dp1623
g16
(lp1624
S'd'
asg18
S'N'
sg22
I38
sS'.thisN'
p1625
I199
sg20
S'Y'
sg32
g33
sS'.thisTrialN'
p1626
I4
sS'.thisRepN'
p1627
I13
sg21
I39
sS'.thisIndex'
p1628
I13
sg23
I18
sg15
(lp1629
S'd'
asg30
g31
sg17
S'Y'
sg14
I4
sg19
Nsg95
I13
sa(dp1630
g16
(lp1631
S'k'
asg95
I11
sS'.thisRepN'
p1632
I13
sg30
g31
sg32
g33
sS'.thisTrialN'
p1633
I5
sS'.thisN'
p1634
I200
sS'.thisIndex'
p1635
I11
sg15
(lp1636
S'k'
asg17
S'Y'
sg14
I5
sa(dp1637
g16
(lp1638
S'k'
asg95
I11
sS'.thisRepN'
p1639
I13
sg30
g31
sg32
g33
sS'.thisTrialN'
p1640
I6
sS'.thisN'
p1641
I201
sS'.thisIndex'
p1642
I11
sg15
(lp1643
S'k'
asg17
S'Y'
sg14
I5
sa(dp1644
g16
(lp1645
S'd'
asg18
S'N'
sS'.thisRepN'
p1646
I13
sg20
S'Y'
sg32
g33
sS'.thisTrialN'
p1647
I7
sS'.thisN'
p1648
I202
sS'.thisIndex'
p1649
I3
sg15
(lp1650
S'd'
asg30
g31
sg17
S'Y'
sg14
I5
sg19
Nsg95
I3
sa(dp1651
g16
(lp1652
S'd'
asg18
S'Y'
sS'.thisRepN'
p1653
I13
sg20
S'Y'
sg32
g33
sS'.thisTrialN'
p1654
I8
sS'.thisN'
p1655
I203
sS'.thisIndex'
p1656
I2
sg15
(lp1657
S'd'
asg30
g31
sg17
S'Y'
sg14
I5
sg19
(lp1658
S'space'
p1659
asg95
I2
sa(dp1660
g16
(lp1661
S'k'
asg18
S'N'
sS'.thisRepN'
p1662
I13
sg20
S'Y'
sg32
g33
sS'.thisTrialN'
p1663
I9
sS'.thisN'
p1664
I204
sS'.thisIndex'
p1665
I1
sg15
(lp1666
S'k'
asg30
g31
sg17
S'Y'
sg14
I5
sg19
Nsg95
I1
sa(dp1667
g16
(lp1668
S'k'
asg18
S'Y'
sS'.thisRepN'
p1669
I13
sg20
S'N'
sg32
g33
sS'.thisTrialN'
p1670
I10
sS'.thisN'
p1671
I205
sS'.thisIndex'
p1672
I3
sg15
(lp1673
S'k'
asg30
g31
sg17
S'Y'
sg14
I5
sg19
Nsg95
I3
sa(dp1674
g16
(lp1675
S'd'
asg18
S'Y'
sS'.thisRepN'
p1676
I13
sg20
S'Y'
sg32
g33
sS'.thisTrialN'
p1677
I11
sS'.thisN'
p1678
I206
sS'.thisIndex'
p1679
I2
sg15
(lp1680
S'd'
asg30
g31
sg17
S'Y'
sg14
I5
sg19
(lp1681
S'space'
p1682
asg95
I2
sa(dp1683
g16
(lp1684
S'd'
asg18
S'N'
sS'.thisRepN'
p1685
I13
sg20
S'Y'
sg32
g33
sS'.thisTrialN'
p1686
I12
sS'.thisN'
p1687
I207
sS'.thisIndex'
p1688
I13
sg15
(lp1689
S'd'
asg30
g31
sg17
S'Y'
sg14
I5
sg19
Nsg95
I13
sa(dp1690
g16
(lp1691
S'k'
asg18
S'Y'
sS'.thisRepN'
p1692
I13
sg20
S'Y'
sg32
g33
sS'.thisTrialN'
p1693
I13
sS'.thisN'
p1694
I208
sS'.thisIndex'
p1695
I4
sg15
(lp1696
S'k'
asg30
g31
sg17
S'Y'
sg14
I5
sg19
(lp1697
S'space'
p1698
asg95
I4
sa(dp1699
g16
(lp1700
S'd'
asg18
S'N'
sS'.thisRepN'
p1701
I13
sg20
S'Y'
sg32
g33
sS'.thisTrialN'
p1702
I14
sS'.thisN'
p1703
I209
sS'.thisIndex'
p1704
I11
sg15
(lp1705
S'd'
asg30
g31
sg17
S'Y'
sg14
I5
sg19
Nsg95
I11
sa(dp1706
g16
(lp1707
S'd'
asg18
S'N'
sS'.thisRepN'
p1708
I14
sg20
S'Y'
sg32
g33
sS'.thisTrialN'
p1709
I0
sS'.thisN'
p1710
I210
sS'.thisIndex'
p1711
I9
sg15
(lp1712
S'd'
asg30
g31
sg17
S'Y'
sg14
I5
sg19
Nsg95
I9
sa(dp1713
g16
(lp1714
S'k'
asg18
S'N'
sS'.thisRepN'
p1715
I14
sg20
S'Y'
sg32
g33
sS'.thisTrialN'
p1716
I1
sS'.thisN'
p1717
I211
sS'.thisIndex'
p1718
I3
sg15
(lp1719
S'k'
asg30
g31
sg17
S'Y'
sg14
I5
sg19
Nsg95
I3
sa(dp1720
g16
(lp1721
S'k'
asg18
S'N'
sS'.thisRepN'
p1722
I14
sg20
S'Y'
sg32
g33
sS'.thisTrialN'
p1723
I2
sS'.thisN'
p1724
I212
sS'.thisIndex'
p1725
I0
sg15
(lp1726
S'k'
asg30
g31
sg17
S'Y'
sg14
I5
sg19
Nsg95
I0
sa(dp1727
g16
(lp1728
S'k'
asg18
S'Y'
sS'.thisRepN'
p1729
I14
sg20
S'Y'
sg32
g33
sS'.thisTrialN'
p1730
I3
sS'.thisN'
p1731
I213
sS'.thisIndex'
p1732
I5
sg15
(lp1733
S'k'
asg30
g31
sg17
S'Y'
sg14
I5
sg19
(lp1734
S'space'
p1735
asg95
I5
sa(dp1736
g16
(lp1737
S'k'
asg18
S'N'
sS'.thisRepN'
p1738
I14
sg20
S'Y'
sg32
g33
sS'.thisTrialN'
p1739
I4
sS'.thisN'
p1740
I214
sS'.thisIndex'
p1741
I8
sg15
(lp1742
S'k'
asg30
g31
sg17
S'Y'
sg14
I5
sg19
Nsg95
I8
sa(dp1743
g16
(lp1744
S'k'
asg18
S'Y'
sS'.thisRepN'
p1745
I14
sg20
S'N'
sg32
g33
sS'.thisTrialN'
p1746
I5
sS'.thisN'
p1747
I215
sS'.thisIndex'
p1748
I14
sg15
(lp1749
S'k'
asg30
g31
sg17
S'Y'
sg14
I5
sg19
Nsg95
I14
sa(dp1750
g16
(lp1751
S'd'
asg18
S'N'
sS'.thisRepN'
p1752
I14
sg20
S'Y'
sg32
g33
sS'.thisTrialN'
p1753
I6
sS'.thisN'
p1754
I216
sS'.thisIndex'
p1755
I6
sg15
(lp1756
S'd'
asg30
g31
sg17
S'Y'
sg14
I5
sg19
Nsg95
I6
sa(dp1757
g16
(lp1758
S'd'
asg18
S'N'
sS'.thisRepN'
p1759
I14
sg20
S'Y'
sg32
g33
sS'.thisTrialN'
p1760
I7
sS'.thisN'
p1761
I217
sS'.thisIndex'
p1762
I14
sg15
(lp1763
S'd'
asg30
g31
sg17
S'Y'
sg14
I5
sg19
Nsg95
I14
sa(dp1764
g16
(lp1765
S'k'
asg18
S'N'
sS'.thisRepN'
p1766
I14
sg20
S'Y'
sg32
g33
sS'.thisTrialN'
p1767
I8
sS'.thisN'
p1768
I218
sS'.thisIndex'
p1769
I3
sg15
(lp1770
S'k'
asg30
g31
sg17
S'Y'
sg14
I5
sg19
Nsg95
I3
sa(dp1771
g16
(lp1772
S'k'
asg18
S'N'
sS'.thisRepN'
p1773
I14
sg20
S'Y'
sg32
g33
sS'.thisTrialN'
p1774
I9
sS'.thisN'
p1775
I219
sS'.thisIndex'
p1776
I9
sg15
(lp1777
S'd'
asg30
g31
sg17
S'N'
sg14
I5
sg19
Nsg95
I9
sa(dp1778
g16
(lp1779
S'k'
asg18
S'Y'
sS'.thisRepN'
p1780
I14
sg20
S'Y'
sg32
g33
sS'.thisTrialN'
p1781
I10
sS'.thisN'
p1782
I220
sS'.thisIndex'
p1783
I1
sg15
(lp1784
S'k'
asg30
g31
sg17
S'Y'
sg14
I5
sg19
(lp1785
S'space'
p1786
asg95
I1
sa(dp1787
g16
(lp1788
S'd'
asg18
S'N'
sS'.thisRepN'
p1789
I14
sg20
S'Y'
sg32
g33
sS'.thisTrialN'
p1790
I11
sS'.thisN'
p1791
I221
sS'.thisIndex'
p1792
I6
sg15
(lp1793
S'd'
asg30
g31
sg17
S'Y'
sg14
I5
sg19
Nsg95
I6
sa(dp1794
g16
(lp1795
S'd'
asg18
S'N'
sS'.thisRepN'
p1796
I14
sg20
S'Y'
sg32
g33
sS'.thisTrialN'
p1797
I12
sS'.thisN'
p1798
I222
sS'.thisIndex'
p1799
I6
sg15
(lp1800
S'd'
asg30
g31
sg17
S'Y'
sg14
I5
sg19
Nsg95
I6
sa(dp1801
g16
(lp1802
S'k'
asg18
S'N'
sS'.thisRepN'
p1803
I14
sg20
S'Y'
sg32
g33
sS'.thisTrialN'
p1804
I13
sS'.thisN'
p1805
I223
sS'.thisIndex'
p1806
I7
sg15
(lp1807
S'k'
asg30
g31
sg17
S'Y'
sg14
I5
sg19
Nsg95
I7
sa(dp1808
g16
(lp1809
S'd'
asg18
S'N'
sS'.thisRepN'
p1810
I14
sg20
S'Y'
sg32
g33
sS'.thisTrialN'
p1811
I14
sS'.thisN'
p1812
I224
sS'.thisIndex'
p1813
I6
sg15
(lp1814
S'k'
asg30
g31
sg17
S'N'
sg14
I5
sg19
Nsg95
I6
sa(dp1815
g16
(lp1816
S'k'
asg18
S'Y'
sS'.thisRepN'
p1817
I15
sg20
S'Y'
sg32
g33
sS'.thisTrialN'
p1818
I0
sS'.thisN'
p1819
I225
sS'.thisIndex'
p1820
I4
sg15
(lp1821
S'k'
asg30
g31
sg17
S'Y'
sg14
I5
sg19
(lp1822
S'space'
p1823
asg95
I4
sa(dp1824
g16
(lp1825
S'd'
asg18
S'Y'
sS'.thisRepN'
p1826
I15
sg20
S'Y'
sg32
g33
sS'.thisTrialN'
p1827
I1
sS'.thisN'
p1828
I226
sS'.thisIndex'
p1829
I11
sg15
(lp1830
S'd'
asg30
g31
sg17
S'Y'
sg14
I5
sg19
(lp1831
S'space'
p1832
asg95
I11
sa(dp1833
g16
(lp1834
S'k'
asg18
S'Y'
sS'.thisRepN'
p1835
I15
sg20
S'Y'
sg32
g33
sS'.thisTrialN'
p1836
I2
sS'.thisN'
p1837
I227
sS'.thisIndex'
p1838
I8
sg15
(lp1839
S'k'
asg30
g31
sg17
S'Y'
sg14
I5
sg19
(lp1840
S'space'
p1841
asg95
I8
sa(dp1842
g16
(lp1843
S'd'
asg18
S'N'
sS'.thisRepN'
p1844
I15
sg20
S'Y'
sg32
g33
sS'.thisTrialN'
p1845
I3
sS'.thisN'
p1846
I228
sS'.thisIndex'
p1847
I10
sg15
(lp1848
S'd'
asg30
g31
sg17
S'Y'
sg14
I5
sg19
Nsg95
I10
sa(dp1849
g16
(lp1850
S'k'
asg18
S'N'
sS'.thisRepN'
p1851
I15
sg20
S'Y'
sg32
g33
sS'.thisTrialN'
p1852
I4
sS'.thisN'
p1853
I229
sS'.thisIndex'
p1854
I12
sg15
(lp1855
S'k'
asg30
g31
sg17
S'Y'
sg14
I5
sg19
Nsg95
I12
sa(dp1856
g16
(lp1857
S'd'
asg18
S'N'
sS'.thisRepN'
p1858
I15
sg20
S'N'
sg32
g33
sS'.thisTrialN'
p1859
I5
sS'.thisN'
p1860
I230
sS'.thisIndex'
p1861
I5
sg15
(lp1862
S'd'
asg30
g31
sg17
S'Y'
sg14
I5
sg19
(lp1863
S'space'
p1864
asg95
I5
sa(dp1865
g16
(lp1866
S'k'
asg18
S'Y'
sS'.thisRepN'
p1867
I15
sg20
S'Y'
sg32
g33
sS'.thisTrialN'
p1868
I6
sS'.thisN'
p1869
I231
sS'.thisIndex'
p1870
I6
sg15
(lp1871
S'k'
asg30
g31
sg17
S'Y'
sg14
I5
sg19
(lp1872
S'space'
p1873
asg95
I6
sa(dp1874
g16
(lp1875
S'd'
asg18
S'N'
sS'.thisRepN'
p1876
I15
sg20
S'Y'
sg32
g33
sS'.thisTrialN'
p1877
I7
sS'.thisN'
p1878
I232
sS'.thisIndex'
p1879
I13
sg15
(lp1880
S'd'
asg30
g31
sg17
S'Y'
sg14
I5
sg19
Nsg95
I13
sa(dp1881
g16
(lp1882
S'd'
asg18
S'Y'
sS'.thisRepN'
p1883
I15
sg20
S'Y'
sg32
g33
sS'.thisTrialN'
p1884
I8
sS'.thisN'
p1885
I233
sS'.thisIndex'
p1886
I4
sg15
(lp1887
S'd'
asg30
g31
sg17
S'Y'
sg14
I5
sg19
(lp1888
S'space'
p1889
asg95
I4
sa(dp1890
g16
(lp1891
S'k'
asg18
S'N'
sS'.thisRepN'
p1892
I15
sg20
S'Y'
sg32
g33
sS'.thisTrialN'
p1893
I9
sS'.thisN'
p1894
I234
sS'.thisIndex'
p1895
I5
sg15
(lp1896
S'k'
asg30
g31
sg17
S'Y'
sg14
I5
sg19
Nsg95
I5
sa(dp1897
g16
(lp1898
S'k'
asg18
S'N'
sS'.thisRepN'
p1899
I15
sg20
S'Y'
sg32
g33
sS'.thisTrialN'
p1900
I10
sS'.thisN'
p1901
I235
sS'.thisIndex'
p1902
I7
sg15
(lp1903
S'k'
asg30
g31
sg17
S'Y'
sg14
I5
sg19
Nsg95
I7
sa(dp1904
g16
(lp1905
S'k'
asg18
S'Y'
sS'.thisRepN'
p1906
I15
sg20
S'Y'
sg32
g33
sS'.thisTrialN'
p1907
I11
sS'.thisN'
p1908
I236
sS'.thisIndex'
p1909
I3
sg15
(lp1910
S'k'
asg30
g31
sg17
S'Y'
sg14
I5
sg19
(lp1911
S'space'
p1912
asg95
I3
sa(dp1913
g16
(lp1914
S'k'
asg18
S'Y'
sS'.thisRepN'
p1915
I15
sg20
S'Y'
sg32
g33
sS'.thisTrialN'
p1916
I12
sS'.thisN'
p1917
I237
sS'.thisIndex'
p1918
I7
sg15
(lp1919
S'k'
asg30
g31
sg17
S'Y'
sg14
I5
sg19
(lp1920
S'space'
p1921
asg95
I7
sa(dp1922
g16
(lp1923
S'k'
asg18
S'N'
sS'.thisRepN'
p1924
I15
sg20
S'Y'
sg32
g33
sS'.thisTrialN'
p1925
I13
sS'.thisN'
p1926
I238
sS'.thisIndex'
p1927
I1
sg15
(lp1928
S'k'
asg30
g31
sg17
S'Y'
sg14
I5
sg19
Nsg95
I1
sa(dp1929
g16
(lp1930
S'd'
asg18
S'Y'
sS'.thisRepN'
p1931
I15
sg20
S'Y'
sg32
g33
sS'.thisTrialN'
p1932
I14
sS'.thisN'
p1933
I239
sS'.thisIndex'
p1934
I7
sg15
(lp1935
S'd'
asg30
g31
sg17
S'Y'
sg14
I5
sg19
(lp1936
S'space'
p1937
asg95
I7
sa(dp1938
g16
(lp1939
S'd'
asg18
S'Y'
sS'.thisRepN'
p1940
I16
sg20
S'Y'
sg32
g33
sS'.thisTrialN'
p1941
I0
sS'.thisN'
p1942
I240
sS'.thisIndex'
p1943
I4
sg15
(lp1944
S'd'
asg30
g31
sg17
S'Y'
sg14
I5
sg19
(lp1945
S'space'
p1946
asg95
I4
sa(dp1947
g16
(lp1948
S'k'
asg18
S'Y'
sS'.thisRepN'
p1949
I16
sg20
S'Y'
sg32
g33
sS'.thisTrialN'
p1950
I1
sS'.thisN'
p1951
I241
sS'.thisIndex'
p1952
I0
sg15
(lp1953
S'k'
asg30
g31
sg17
S'Y'
sg14
I5
sg19
(lp1954
S'space'
p1955
asg95
I0
sa(dp1956
g16
(lp1957
S'k'
asg18
S'N'
sS'.thisRepN'
p1958
I16
sg20
S'Y'
sg32
g33
sS'.thisTrialN'
p1959
I2
sS'.thisN'
p1960
I242
sS'.thisIndex'
p1961
I12
sg15
(lp1962
S'k'
asg30
g31
sg17
S'Y'
sg14
I5
sg19
Nsg95
I12
sa(dp1963
g16
(lp1964
S'k'
asg18
S'Y'
sS'.thisRepN'
p1965
I16
sg20
S'N'
sg32
g33
sS'.thisTrialN'
p1966
I3
sS'.thisN'
p1967
I243
sS'.thisIndex'
p1968
I7
sg15
(lp1969
S'k'
asg30
g31
sg17
S'Y'
sg14
I5
sg19
Nsg95
I7
sa(dp1970
g16
(lp1971
S'd'
asg18
S'N'
sS'.thisRepN'
p1972
I16
sg20
S'Y'
sg32
g33
sS'.thisTrialN'
p1973
I4
sS'.thisN'
p1974
I244
sS'.thisIndex'
p1975
I10
sg15
(lp1976
S'd'
asg30
g31
sg17
S'Y'
sg14
I5
sg19
Nsg95
I10
sa(dp1977
g16
(lp1978
S'd'
asg18
S'Y'
sS'.thisRepN'
p1979
I16
sg20
S'Y'
sg32
g33
sS'.thisTrialN'
p1980
I5
sS'.thisN'
p1981
I245
sS'.thisIndex'
p1982
I3
sg15
(lp1983
S'd'
asg30
g31
sg17
S'Y'
sg14
I5
sg19
(lp1984
S'space'
p1985
asg95
I3
sa(dp1986
g16
(lp1987
S'k'
asg18
S'Y'
sS'.thisRepN'
p1988
I16
sg20
S'Y'
sg32
g33
sS'.thisTrialN'
p1989
I6
sS'.thisN'
p1990
I246
sS'.thisIndex'
p1991
I4
sg15
(lp1992
S'k'
asg30
g31
sg17
S'Y'
sg14
I5
sg19
(lp1993
S'space'
p1994
asg95
I4
sa(dp1995
g16
(lp1996
S'd'
asg18
S'Y'
sS'.thisRepN'
p1997
I16
sg20
S'Y'
sg32
g33
sS'.thisTrialN'
p1998
I7
sS'.thisN'
p1999
I247
sS'.thisIndex'
p2000
I1
sg15
(lp2001
S'd'
asg30
g31
sg17
S'Y'
sg14
I5
sg19
(lp2002
S'space'
p2003
asg95
I1
sa(dp2004
g16
(lp2005
S'k'
asg18
S'N'
sS'.thisRepN'
p2006
I16
sg20
S'Y'
sg32
g33
sS'.thisTrialN'
p2007
I8
sS'.thisN'
p2008
I248
sS'.thisIndex'
p2009
I8
sg15
(lp2010
S'k'
asg30
g31
sg17
S'Y'
sg14
I5
sg19
Nsg95
I8
sa(dp2011
g16
(lp2012
S'k'
asg18
S'Y'
sg22
I44
sS'.thisN'
p2013
I249
sg20
S'Y'
sg32
g33
sS'.thisTrialN'
p2014
I9
sS'.thisRepN'
p2015
I16
sg21
I48
sS'.thisIndex'
p2016
I0
sg23
I22
sg15
(lp2017
S'k'
asg30
g31
sg17
S'Y'
sg14
I5
sg19
(lp2018
S'space'
p2019
asg95
I0
sa(dp2020
g16
(lp2021
S'd'
asg95
I7
sS'.thisRepN'
p2022
I16
sg30
g31
sg32
g33
sS'.thisTrialN'
p2023
I10
sS'.thisN'
p2024
I250
sS'.thisIndex'
p2025
I7
sg15
(lp2026
S'd'
asg17
S'Y'
sg14
I6
sa(dp2027
g16
(lp2028
S'd'
asg95
I11
sS'.thisRepN'
p2029
I16
sg30
g31
sg32
g33
sS'.thisTrialN'
p2030
I11
sS'.thisN'
p2031
I251
sS'.thisIndex'
p2032
I11
sg15
(lp2033
S'd'
asg17
S'Y'
sg14
I6
sa(dp2034
g16
(lp2035
S'd'
asg18
S'N'
sS'.thisRepN'
p2036
I16
sg20
S'Y'
sg32
g33
sS'.thisTrialN'
p2037
I12
sS'.thisN'
p2038
I252
sS'.thisIndex'
p2039
I9
sg15
(lp2040
S'd'
asg30
g31
sg17
S'Y'
sg14
I6
sg19
Nsg95
I9
sa(dp2041
g16
(lp2042
S'd'
asg18
S'Y'
sS'.thisRepN'
p2043
I16
sg20
S'Y'
sg32
g33
sS'.thisTrialN'
p2044
I13
sS'.thisN'
p2045
I253
sS'.thisIndex'
p2046
I5
sg15
(lp2047
S'd'
asg30
g31
sg17
S'Y'
sg14
I6
sg19
(lp2048
S'space'
p2049
asg95
I5
sa(dp2050
g16
(lp2051
S'd'
asg18
S'Y'
sS'.thisRepN'
p2052
I16
sg20
S'Y'
sg32
g33
sS'.thisTrialN'
p2053
I14
sS'.thisN'
p2054
I254
sS'.thisIndex'
p2055
I8
sg15
(lp2056
S'd'
asg30
g31
sg17
S'Y'
sg14
I6
sg19
(lp2057
S'space'
p2058
asg95
I8
sa(dp2059
g16
(lp2060
S'd'
asg18
S'Y'
sS'.thisRepN'
p2061
I17
sg20
S'Y'
sg32
g33
sS'.thisTrialN'
p2062
I0
sS'.thisN'
p2063
I255
sS'.thisIndex'
p2064
I2
sg15
(lp2065
S'k'
asg30
g31
sg17
S'N'
sg14
I6
sg19
(lp2066
S'space'
p2067
asg95
I2
sa(dp2068
g16
(lp2069
S'k'
asg18
S'Y'
sS'.thisRepN'
p2070
I17
sg20
S'Y'
sg32
g33
sS'.thisTrialN'
p2071
I1
sS'.thisN'
p2072
I256
sS'.thisIndex'
p2073
I2
sg15
(lp2074
S'k'
asg30
g31
sg17
S'Y'
sg14
I6
sg19
(lp2075
S'space'
p2076
asg95
I2
sa(dp2077
g16
(lp2078
S'k'
asg18
S'Y'
sS'.thisRepN'
p2079
I17
sg20
S'Y'
sg32
g33
sS'.thisTrialN'
p2080
I2
sS'.thisN'
p2081
I257
sS'.thisIndex'
p2082
I12
sg15
(lp2083
S'k'
asg30
g31
sg17
S'Y'
sg14
I6
sg19
(lp2084
S'space'
p2085
asg95
I12
sa(dp2086
g16
(lp2087
S'k'
asg18
S'Y'
sS'.thisRepN'
p2088
I17
sg20
S'Y'
sg32
g33
sS'.thisTrialN'
p2089
I3
sS'.thisN'
p2090
I258
sS'.thisIndex'
p2091
I7
sg15
(lp2092
S'k'
asg30
g31
sg17
S'Y'
sg14
I6
sg19
(lp2093
S'space'
p2094
asg95
I7
sa(dp2095
g16
(lp2096
S'd'
asg18
S'Y'
sS'.thisRepN'
p2097
I17
sg20
S'Y'
sg32
g33
sS'.thisTrialN'
p2098
I4
sS'.thisN'
p2099
I259
sS'.thisIndex'
p2100
I8
sg15
(lp2101
S'd'
asg30
g31
sg17
S'Y'
sg14
I6
sg19
(lp2102
S'space'
p2103
asg95
I8
sa(dp2104
g18
S'N'
sS'.thisRepN'
p2105
I17
sg20
S'Y'
sg32
g33
sS'.thisTrialN'
p2106
I5
sS'.thisN'
p2107
I260
sS'.thisIndex'
p2108
I2
sg15
Nsg30
g31
sg17
g221
sg14
I6
sg19
Nsg95
I2
sa(dp2109
g16
(lp2110
S'k'
asg18
S'Y'
sS'.thisRepN'
p2111
I17
sg20
S'Y'
sg32
g33
sS'.thisTrialN'
p2112
I6
sS'.thisN'
p2113
I261
sS'.thisIndex'
p2114
I2
sg15
(lp2115
S'k'
asg30
g31
sg17
S'Y'
sg14
I6
sg19
(lp2116
S'space'
p2117
asg95
I2
sa(dp2118
g16
(lp2119
S'd'
asg18
S'N'
sS'.thisRepN'
p2120
I17
sg20
S'Y'
sg32
g33
sS'.thisTrialN'
p2121
I7
sS'.thisN'
p2122
I262
sS'.thisIndex'
p2123
I8
sg15
(lp2124
S'd'
asg30
g31
sg17
S'Y'
sg14
I6
sg19
Nsg95
I8
sa(dp2125
g16
(lp2126
S'd'
asg18
S'N'
sS'.thisRepN'
p2127
I17
sg20
S'Y'
sg32
g33
sS'.thisTrialN'
p2128
I8
sS'.thisN'
p2129
I263
sS'.thisIndex'
p2130
I7
sg15
(lp2131
S'd'
asg30
g31
sg17
S'Y'
sg14
I6
sg19
Nsg95
I7
sa(dp2132
g16
(lp2133
S'k'
asg18
S'Y'
sS'.thisRepN'
p2134
I17
sg20
S'Y'
sg32
g33
sS'.thisTrialN'
p2135
I9
sS'.thisN'
p2136
I264
sS'.thisIndex'
p2137
I0
sg15
(lp2138
S'k'
asg30
g31
sg17
S'Y'
sg14
I6
sg19
(lp2139
S'space'
p2140
asg95
I0
sa(dp2141
g16
(lp2142
S'd'
asg18
S'Y'
sS'.thisRepN'
p2143
I17
sg20
S'Y'
sg32
g33
sS'.thisTrialN'
p2144
I10
sS'.thisN'
p2145
I265
sS'.thisIndex'
p2146
I9
sg15
(lp2147
S'd'
asg30
g31
sg17
S'Y'
sg14
I6
sg19
(lp2148
S'space'
p2149
asg95
I9
sa(dp2150
g16
(lp2151
S'k'
asg18
S'N'
sS'.thisRepN'
p2152
I17
sg20
S'Y'
sg32
g33
sS'.thisTrialN'
p2153
I11
sS'.thisN'
p2154
I266
sS'.thisIndex'
p2155
I10
sg15
(lp2156
S'k'
asg30
g31
sg17
S'Y'
sg14
I6
sg19
Nsg95
I10
sa(dp2157
g16
(lp2158
S'd'
asg18
S'Y'
sS'.thisRepN'
p2159
I17
sg20
S'Y'
sg32
g33
sS'.thisTrialN'
p2160
I12
sS'.thisN'
p2161
I267
sS'.thisIndex'
p2162
I2
sg15
(lp2163
S'd'
asg30
g31
sg17
S'Y'
sg14
I6
sg19
(lp2164
S'space'
p2165
asg95
I2
sa(dp2166
g16
(lp2167
S'd'
asg18
S'N'
sS'.thisRepN'
p2168
I17
sg20
S'Y'
sg32
g33
sS'.thisTrialN'
p2169
I13
sS'.thisN'
p2170
I268
sS'.thisIndex'
p2171
I4
sg15
(lp2172
S'd'
asg30
g31
sg17
S'Y'
sg14
I6
sg19
Nsg95
I4
sa(dp2173
g16
(lp2174
S'k'
asg18
S'Y'
sS'.thisRepN'
p2175
I17
sg20
S'Y'
sg32
g33
sS'.thisTrialN'
p2176
I14
sS'.thisN'
p2177
I269
sS'.thisIndex'
p2178
I0
sg15
(lp2179
S'k'
asg30
g31
sg17
S'Y'
sg14
I6
sg19
(lp2180
S'space'
p2181
asg95
I0
sa(dp2182
g16
(lp2183
S'd'
asg18
S'Y'
sS'.thisRepN'
p2184
I18
sg20
S'Y'
sg32
g33
sS'.thisTrialN'
p2185
I0
sS'.thisN'
p2186
I270
sS'.thisIndex'
p2187
I2
sg15
(lp2188
S'd'
asg30
g31
sg17
S'Y'
sg14
I6
sg19
(lp2189
S'space'
p2190
asg95
I2
sa(dp2191
g16
(lp2192
S'k'
asg18
S'Y'
sS'.thisRepN'
p2193
I18
sg20
S'Y'
sg32
g33
sS'.thisTrialN'
p2194
I1
sS'.thisN'
p2195
I271
sS'.thisIndex'
p2196
I10
sg15
(lp2197
S'k'
asg30
g31
sg17
S'Y'
sg14
I6
sg19
(lp2198
S'space'
p2199
asg95
I10
sa(dp2200
g16
(lp2201
S'd'
asg18
S'N'
sS'.thisRepN'
p2202
I18
sg20
S'Y'
sg32
g33
sS'.thisTrialN'
p2203
I2
sS'.thisN'
p2204
I272
sS'.thisIndex'
p2205
I13
sg15
(lp2206
S'd'
asg30
g31
sg17
S'Y'
sg14
I6
sg19
Nsg95
I13
sa(dp2207
g16
(lp2208
S'd'
asg18
S'N'
sS'.thisRepN'
p2209
I18
sg20
S'Y'
sg32
g33
sS'.thisTrialN'
p2210
I3
sS'.thisN'
p2211
I273
sS'.thisIndex'
p2212
I4
sg15
(lp2213
S'd'
asg30
g31
sg17
S'Y'
sg14
I6
sg19
Nsg95
I4
sa(dp2214
g16
(lp2215
S'k'
asg18
S'N'
sS'.thisRepN'
p2216
I18
sg20
S'Y'
sg32
g33
sS'.thisTrialN'
p2217
I4
sS'.thisN'
p2218
I274
sS'.thisIndex'
p2219
I11
sg15
(lp2220
S'd'
asg30
g31
sg17
S'N'
sg14
I6
sg19
Nsg95
I11
sa(dp2221
g16
(lp2222
S'k'
asg18
S'Y'
sS'.thisRepN'
p2223
I18
sg20
S'N'
sg32
g33
sS'.thisTrialN'
p2224
I5
sS'.thisN'
p2225
I275
sS'.thisIndex'
p2226
I1
sg15
(lp2227
S'k'
asg30
g31
sg17
S'Y'
sg14
I6
sg19
Nsg95
I1
sa(dp2228
g16
(lp2229
S'd'
asg18
S'N'
sS'.thisRepN'
p2230
I18
sg20
S'Y'
sg32
g33
sS'.thisTrialN'
p2231
I6
sS'.thisN'
p2232
I276
sS'.thisIndex'
p2233
I6
sg15
(lp2234
S'd'
asg30
g31
sg17
S'Y'
sg14
I6
sg19
Nsg95
I6
sa(dp2235
g16
(lp2236
S'k'
asg18
S'N'
sS'.thisRepN'
p2237
I18
sg20
S'Y'
sg32
g33
sS'.thisTrialN'
p2238
I7
sS'.thisN'
p2239
I277
sS'.thisIndex'
p2240
I1
sg15
(lp2241
S'k'
asg30
g31
sg17
S'Y'
sg14
I6
sg19
Nsg95
I1
sa(dp2242
g16
(lp2243
S'd'
asg18
S'Y'
sS'.thisRepN'
p2244
I18
sg20
S'Y'
sg32
g33
sS'.thisTrialN'
p2245
I8
sS'.thisN'
p2246
I278
sS'.thisIndex'
p2247
I12
sg15
(lp2248
S'd'
asg30
g31
sg17
S'Y'
sg14
I6
sg19
(lp2249
S'space'
p2250
asg95
I12
sa(dp2251
g16
(lp2252
S'd'
asg18
S'N'
sS'.thisRepN'
p2253
I18
sg20
S'Y'
sg32
g33
sS'.thisTrialN'
p2254
I9
sS'.thisN'
p2255
I279
sS'.thisIndex'
p2256
I1
sg15
(lp2257
S'd'
asg30
g31
sg17
S'Y'
sg14
I6
sg19
Nsg95
I1
sa(dp2258
g16
(lp2259
S'd'
asg18
S'Y'
sS'.thisRepN'
p2260
I18
sg20
S'Y'
sg32
g33
sS'.thisTrialN'
p2261
I10
sS'.thisN'
p2262
I280
sS'.thisIndex'
p2263
I10
sg15
(lp2264
S'd'
asg30
g31
sg17
S'Y'
sg14
I6
sg19
(lp2265
S'space'
p2266
asg95
I10
sa(dp2267
g16
(lp2268
S'd'
asg18
S'N'
sS'.thisRepN'
p2269
I18
sg20
S'Y'
sg32
g33
sS'.thisTrialN'
p2270
I11
sS'.thisN'
p2271
I281
sS'.thisIndex'
p2272
I5
sg15
(lp2273
S'd'
asg30
g31
sg17
S'Y'
sg14
I6
sg19
Nsg95
I5
sa(dp2274
g16
(lp2275
S'k'
asg18
S'N'
sS'.thisRepN'
p2276
I18
sg20
S'Y'
sg32
g33
sS'.thisTrialN'
p2277
I12
sS'.thisN'
p2278
I282
sS'.thisIndex'
p2279
I10
sg15
(lp2280
S'k'
asg30
g31
sg17
S'Y'
sg14
I6
sg19
Nsg95
I10
sa(dp2281
g16
(lp2282
S'k'
asg18
S'N'
sS'.thisRepN'
p2283
I18
sg20
S'Y'
sg32
g33
sS'.thisTrialN'
p2284
I13
sS'.thisN'
p2285
I283
sS'.thisIndex'
p2286
I10
sg15
(lp2287
S'k'
asg30
g31
sg17
S'Y'
sg14
I6
sg19
Nsg95
I10
sa(dp2288
g16
(lp2289
S'k'
asg18
S'N'
sS'.thisRepN'
p2290
I18
sg20
S'Y'
sg32
g33
sS'.thisTrialN'
p2291
I14
sS'.thisN'
p2292
I284
sS'.thisIndex'
p2293
I6
sg15
(lp2294
S'k'
asg30
g31
sg17
S'Y'
sg14
I6
sg19
Nsg95
I6
sa(dp2295
g16
(lp2296
S'k'
asg18
S'Y'
sS'.thisRepN'
p2297
I19
sg20
S'Y'
sg32
g33
sS'.thisTrialN'
p2298
I0
sS'.thisN'
p2299
I285
sS'.thisIndex'
p2300
I14
sg15
(lp2301
S'k'
asg30
g31
sg17
S'Y'
sg14
I6
sg19
(lp2302
S'space'
p2303
asg95
I14
sa(dp2304
g16
(lp2305
S'd'
asg18
S'N'
sS'.thisRepN'
p2306
I19
sg20
S'Y'
sg32
g33
sS'.thisTrialN'
p2307
I1
sS'.thisN'
p2308
I286
sS'.thisIndex'
p2309
I3
sg15
(lp2310
S'd'
asg30
g31
sg17
S'Y'
sg14
I6
sg19
Nsg95
I3
sa(dp2311
g16
(lp2312
S'k'
asg18
S'Y'
sS'.thisRepN'
p2313
I19
sg20
S'Y'
sg32
g33
sS'.thisTrialN'
p2314
I2
sS'.thisN'
p2315
I287
sS'.thisIndex'
p2316
I11
sg15
(lp2317
S'k'
asg30
g31
sg17
S'Y'
sg14
I6
sg19
(lp2318
S'space'
p2319
asg95
I11
sa(dp2320
g16
(lp2321
S'k'
asg18
S'N'
sS'.thisRepN'
p2322
I19
sg20
S'Y'
sg32
g33
sS'.thisTrialN'
p2323
I3
sS'.thisN'
p2324
I288
sS'.thisIndex'
p2325
I7
sg15
(lp2326
S'k'
asg30
g31
sg17
S'Y'
sg14
I6
sg19
Nsg95
I7
sa(dp2327
g16
(lp2328
S'd'
asg18
S'N'
sS'.thisRepN'
p2329
I19
sg20
S'Y'
sg32
g33
sS'.thisTrialN'
p2330
I4
sS'.thisN'
p2331
I289
sS'.thisIndex'
p2332
I13
sg15
(lp2333
S'd'
asg30
g31
sg17
S'Y'
sg14
I6
sg19
Nsg95
I13
sa(dp2334
g16
(lp2335
S'k'
asg18
S'Y'
sS'.thisRepN'
p2336
I19
sg20
S'Y'
sg32
g33
sS'.thisTrialN'
p2337
I5
sS'.thisN'
p2338
I290
sS'.thisIndex'
p2339
I12
sg15
(lp2340
S'k'
asg30
g31
sg17
S'Y'
sg14
I6
sg19
(lp2341
S'space'
p2342
asg95
I12
sa(dp2343
g16
(lp2344
S'd'
asg18
S'N'
sS'.thisRepN'
p2345
I19
sg20
S'Y'
sg32
g33
sS'.thisTrialN'
p2346
I6
sS'.thisN'
p2347
I291
sS'.thisIndex'
p2348
I14
sg15
(lp2349
S'd'
asg30
g31
sg17
S'Y'
sg14
I6
sg19
Nsg95
I14
sa(dp2350
g16
(lp2351
S'd'
asg18
S'N'
sS'.thisRepN'
p2352
I19
sg20
S'Y'
sg32
g33
sS'.thisTrialN'
p2353
I7
sS'.thisN'
p2354
I292
sS'.thisIndex'
p2355
I10
sg15
(lp2356
S'd'
asg30
g31
sg17
S'Y'
sg14
I6
sg19
Nsg95
I10
sa(dp2357
g16
(lp2358
S'd'
asg18
S'Y'
sS'.thisRepN'
p2359
I19
sg20
S'Y'
sg32
g33
sS'.thisTrialN'
p2360
I8
sS'.thisN'
p2361
I293
sS'.thisIndex'
p2362
I1
sg15
(lp2363
S'k'
asg30
g31
sg17
S'N'
sg14
I6
sg19
(lp2364
S'space'
p2365
asg95
I1
sa(dp2366
g16
(lp2367
S'd'
asg18
S'N'
sS'.thisRepN'
p2368
I19
sg20
S'Y'
sg32
g33
sS'.thisTrialN'
p2369
I9
sS'.thisN'
p2370
I294
sS'.thisIndex'
p2371
I10
sg15
(lp2372
S'd'
asg30
g31
sg17
S'Y'
sg14
I6
sg19
Nsg95
I10
sa(dp2373
g16
(lp2374
S'k'
asg18
S'Y'
sS'.thisRepN'
p2375
I19
sg20
S'Y'
sg32
g33
sS'.thisTrialN'
p2376
I10
sS'.thisN'
p2377
I295
sS'.thisIndex'
p2378
I8
sg15
(lp2379
S'k'
asg30
g31
sg17
S'Y'
sg14
I6
sg19
(lp2380
S'space'
p2381
asg95
I8
sa(dp2382
g16
(lp2383
S'd'
asg18
S'Y'
sS'.thisRepN'
p2384
I19
sg20
S'Y'
sg32
g33
sS'.thisTrialN'
p2385
I11
sS'.thisN'
p2386
I296
sS'.thisIndex'
p2387
I9
sg15
(lp2388
S'd'
asg30
g31
sg17
S'Y'
sg14
I6
sg19
(lp2389
S'space'
p2390
asg95
I9
sa(dp2391
g16
(lp2392
S'k'
asg18
S'N'
sS'.thisRepN'
p2393
I19
sg20
S'Y'
sg32
g33
sS'.thisTrialN'
p2394
I12
sS'.thisN'
p2395
I297
sS'.thisIndex'
p2396
I1
sg15
(lp2397
S'k'
asg30
g31
sg17
S'Y'
sg14
I6
sg19
Nsg95
I1
sa(dp2398
g16
(lp2399
S'd'
asg18
S'Y'
sS'.thisRepN'
p2400
I19
sg20
S'Y'
sg32
g33
sS'.thisTrialN'
p2401
I13
sS'.thisN'
p2402
I298
sS'.thisIndex'
p2403
I0
sg15
(lp2404
S'd'
asg30
g31
sg17
S'Y'
sg14
I6
sg19
(lp2405
S'space'
p2406
asg95
I0
sa(dp2407
g16
(lp2408
S'k'
asg18
S'Y'
sg22
I47
sS'.thisN'
p2409
I299
sg20
S'Y'
sg32
g33
sS'.thisTrialN'
p2410
I14
sS'.thisRepN'
p2411
I19
sg21
I46
sS'.thisIndex'
p2412
I5
sg23
I25
sg15
(lp2413
S'k'
asg30
g31
sg17
S'Y'
sg14
I6
sg19
(lp2414
S'space'
p2415
asg95
I5
sa(dp2416
g16
(lp2417
S'd'
asg95
I12
sS'.thisRepN'
p2418
I20
sg30
g31
sg32
g33
sS'.thisTrialN'
p2419
I0
sS'.thisN'
p2420
I300
sS'.thisIndex'
p2421
I12
sg15
(lp2422
S'd'
asg17
S'Y'
sg14
I7
sa(dp2423
g16
(lp2424
S'k'
asg95
I5
sS'.thisRepN'
p2425
I20
sg30
g31
sg32
g33
sS'.thisTrialN'
p2426
I1
sS'.thisN'
p2427
I301
sS'.thisIndex'
p2428
I5
sg15
(lp2429
S'd'
asg17
S'N'
sg14
I7
sa(dp2430
g16
(lp2431
S'k'
asg18
S'Y'
sS'.thisRepN'
p2432
I20
sg20
S'Y'
sg32
g33
sS'.thisTrialN'
p2433
I2
sS'.thisN'
p2434
I302
sS'.thisIndex'
p2435
I5
sg15
(lp2436
S'k'
asg30
g31
sg17
S'Y'
sg14
I7
sg19
(lp2437
S'space'
p2438
asg95
I5
sa(dp2439
g16
(lp2440
S'k'
asg18
S'N'
sS'.thisRepN'
p2441
I20
sg20
S'Y'
sg32
g33
sS'.thisTrialN'
p2442
I3
sS'.thisN'
p2443
I303
sS'.thisIndex'
p2444
I12
sg15
(lp2445
S'k'
asg30
g31
sg17
S'Y'
sg14
I7
sg19
Nsg95
I12
sa(dp2446
g16
(lp2447
S'k'
asg18
S'Y'
sS'.thisRepN'
p2448
I20
sg20
S'Y'
sg32
g33
sS'.thisTrialN'
p2449
I4
sS'.thisN'
p2450
I304
sS'.thisIndex'
p2451
I9
sg15
(lp2452
S'k'
asg30
g31
sg17
S'Y'
sg14
I7
sg19
(lp2453
S'space'
p2454
asg95
I9
sa(dp2455
g16
(lp2456
S'k'
asg18
S'Y'
sS'.thisRepN'
p2457
I20
sg20
S'Y'
sg32
g33
sS'.thisTrialN'
p2458
I5
sS'.thisN'
p2459
I305
sS'.thisIndex'
p2460
I0
sg15
(lp2461
S'k'
asg30
g31
sg17
S'Y'
sg14
I7
sg19
(lp2462
S'space'
p2463
asg95
I0
sa(dp2464
g16
(lp2465
S'k'
asg18
S'N'
sS'.thisRepN'
p2466
I20
sg20
S'Y'
sg32
g33
sS'.thisTrialN'
p2467
I6
sS'.thisN'
p2468
I306
sS'.thisIndex'
p2469
I1
sg15
(lp2470
S'd'
asg30
g31
sg17
S'N'
sg14
I7
sg19
Nsg95
I1
sa(dp2471
g16
(lp2472
S'd'
asg18
S'N'
sS'.thisRepN'
p2473
I20
sg20
S'Y'
sg32
g33
sS'.thisTrialN'
p2474
I7
sS'.thisN'
p2475
I307
sS'.thisIndex'
p2476
I8
sg15
(lp2477
S'd'
asg30
g31
sg17
S'Y'
sg14
I7
sg19
Nsg95
I8
sa(dp2478
g16
(lp2479
S'k'
asg18
S'Y'
sS'.thisRepN'
p2480
I20
sg20
S'Y'
sg32
g33
sS'.thisTrialN'
p2481
I8
sS'.thisN'
p2482
I308
sS'.thisIndex'
p2483
I8
sg15
(lp2484
S'k'
asg30
g31
sg17
S'Y'
sg14
I7
sg19
(lp2485
S'space'
p2486
asg95
I8
sa(dp2487
g16
(lp2488
S'd'
asg18
S'Y'
sS'.thisRepN'
p2489
I20
sg20
S'Y'
sg32
g33
sS'.thisTrialN'
p2490
I9
sS'.thisN'
p2491
I309
sS'.thisIndex'
p2492
I2
sg15
(lp2493
S'd'
asg30
g31
sg17
S'Y'
sg14
I7
sg19
(lp2494
S'space'
p2495
asg95
I2
sa(dp2496
g16
(lp2497
S'k'
asg18
S'Y'
sS'.thisRepN'
p2498
I20
sg20
S'Y'
sg32
g33
sS'.thisTrialN'
p2499
I10
sS'.thisN'
p2500
I310
sS'.thisIndex'
p2501
I14
sg15
(lp2502
S'k'
asg30
g31
sg17
S'Y'
sg14
I7
sg19
(lp2503
S'space'
p2504
asg95
I14
sa(dp2505
g16
(lp2506
S'k'
asg18
S'N'
sS'.thisRepN'
p2507
I20
sg20
S'Y'
sg32
g33
sS'.thisTrialN'
p2508
I11
sS'.thisN'
p2509
I311
sS'.thisIndex'
p2510
I9
sg15
(lp2511
S'k'
asg30
g31
sg17
S'Y'
sg14
I7
sg19
Nsg95
I9
sa(dp2512
g16
(lp2513
S'k'
asg18
S'N'
sS'.thisRepN'
p2514
I20
sg20
S'Y'
sg32
g33
sS'.thisTrialN'
p2515
I12
sS'.thisN'
p2516
I312
sS'.thisIndex'
p2517
I0
sg15
(lp2518
S'k'
asg30
g31
sg17
S'Y'
sg14
I7
sg19
Nsg95
I0
sa(dp2519
g16
(lp2520
S'k'
asg18
S'Y'
sS'.thisRepN'
p2521
I20
sg20
S'Y'
sg32
g33
sS'.thisTrialN'
p2522
I13
sS'.thisN'
p2523
I313
sS'.thisIndex'
p2524
I14
sg15
(lp2525
S'k'
asg30
g31
sg17
S'Y'
sg14
I7
sg19
(lp2526
S'space'
p2527
asg95
I14
sa(dp2528
g16
(lp2529
S'k'
asg18
S'N'
sS'.thisRepN'
p2530
I20
sg20
S'Y'
sg32
g33
sS'.thisTrialN'
p2531
I14
sS'.thisN'
p2532
I314
sS'.thisIndex'
p2533
I8
sg15
(lp2534
S'k'
asg30
g31
sg17
S'Y'
sg14
I7
sg19
Nsg95
I8
sa(dp2535
g16
(lp2536
S'd'
asg18
S'N'
sS'.thisRepN'
p2537
I21
sg20
S'Y'
sg32
g33
sS'.thisTrialN'
p2538
I0
sS'.thisN'
p2539
I315
sS'.thisIndex'
p2540
I9
sg15
(lp2541
S'd'
asg30
g31
sg17
S'Y'
sg14
I7
sg19
Nsg95
I9
sa(dp2542
g16
(lp2543
S'k'
asg18
S'N'
sS'.thisRepN'
p2544
I21
sg20
S'Y'
sg32
g33
sS'.thisTrialN'
p2545
I1
sS'.thisN'
p2546
I316
sS'.thisIndex'
p2547
I14
sg15
(lp2548
S'd'
asg30
g31
sg17
S'N'
sg14
I7
sg19
Nsg95
I14
sa(dp2549
g16
(lp2550
S'k'
asg18
S'Y'
sS'.thisRepN'
p2551
I21
sg20
S'Y'
sg32
g33
sS'.thisTrialN'
p2552
I2
sS'.thisN'
p2553
I317
sS'.thisIndex'
p2554
I12
sg15
(lp2555
S'k'
asg30
g31
sg17
S'Y'
sg14
I7
sg19
(lp2556
S'space'
p2557
asg95
I12
sa(dp2558
g16
(lp2559
S'd'
asg18
S'N'
sS'.thisRepN'
p2560
I21
sg20
S'Y'
sg32
g33
sS'.thisTrialN'
p2561
I3
sS'.thisN'
p2562
I318
sS'.thisIndex'
p2563
I9
sg15
(lp2564
S'd'
asg30
g31
sg17
S'Y'
sg14
I7
sg19
Nsg95
I9
sa(dp2565
g16
(lp2566
S'd'
asg18
S'N'
sS'.thisRepN'
p2567
I21
sg20
S'Y'
sg32
g33
sS'.thisTrialN'
p2568
I4
sS'.thisN'
p2569
I319
sS'.thisIndex'
p2570
I7
sg15
(lp2571
S'd'
asg30
g31
sg17
S'Y'
sg14
I7
sg19
Nsg95
I7
sa(dp2572
g16
(lp2573
S'k'
asg18
S'Y'
sS'.thisRepN'
p2574
I21
sg20
S'Y'
sg32
g33
sS'.thisTrialN'
p2575
I5
sS'.thisN'
p2576
I320
sS'.thisIndex'
p2577
I5
sg15
(lp2578
S'k'
asg30
g31
sg17
S'Y'
sg14
I7
sg19
(lp2579
S'space'
p2580
asg95
I5
sa(dp2581
g16
(lp2582
S'd'
asg18
S'Y'
sS'.thisRepN'
p2583
I21
sg20
S'Y'
sg32
g33
sS'.thisTrialN'
p2584
I6
sS'.thisN'
p2585
I321
sS'.thisIndex'
p2586
I14
sg15
(lp2587
S'd'
asg30
g31
sg17
S'Y'
sg14
I7
sg19
(lp2588
S'space'
p2589
asg95
I14
sa(dp2590
g16
(lp2591
S'k'
asg18
S'N'
sS'.thisRepN'
p2592
I21
sg20
S'Y'
sg32
g33
sS'.thisTrialN'
p2593
I7
sS'.thisN'
p2594
I322
sS'.thisIndex'
p2595
I1
sg15
(lp2596
S'k'
asg30
g31
sg17
S'Y'
sg14
I7
sg19
Nsg95
I1
sa(dp2597
g16
(lp2598
S'd'
asg18
S'N'
sS'.thisRepN'
p2599
I21
sg20
S'Y'
sg32
g33
sS'.thisTrialN'
p2600
I8
sS'.thisN'
p2601
I323
sS'.thisIndex'
p2602
I6
sg15
(lp2603
S'd'
asg30
g31
sg17
S'Y'
sg14
I7
sg19
Nsg95
I6
sa(dp2604
g16
(lp2605
S'k'
asg18
S'Y'
sS'.thisRepN'
p2606
I21
sg20
S'Y'
sg32
g33
sS'.thisTrialN'
p2607
I9
sS'.thisN'
p2608
I324
sS'.thisIndex'
p2609
I11
sg15
(lp2610
S'k'
asg30
g31
sg17
S'Y'
sg14
I7
sg19
(lp2611
S'space'
p2612
asg95
I11
sa(dp2613
g16
(lp2614
S'k'
asg18
S'Y'
sS'.thisRepN'
p2615
I21
sg20
S'Y'
sg32
g33
sS'.thisTrialN'
p2616
I10
sS'.thisN'
p2617
I325
sS'.thisIndex'
p2618
I1
sg15
(lp2619
S'k'
asg30
g31
sg17
S'Y'
sg14
I7
sg19
(lp2620
S'space'
p2621
asg95
I1
sa(dp2622
g16
(lp2623
S'd'
asg18
S'N'
sS'.thisRepN'
p2624
I21
sg20
S'Y'
sg32
g33
sS'.thisTrialN'
p2625
I11
sS'.thisN'
p2626
I326
sS'.thisIndex'
p2627
I10
sg15
(lp2628
S'd'
asg30
g31
sg17
S'Y'
sg14
I7
sg19
Nsg95
I10
sa(dp2629
g16
(lp2630
S'd'
asg18
S'Y'
sS'.thisRepN'
p2631
I21
sg20
S'Y'
sg32
g33
sS'.thisTrialN'
p2632
I12
sS'.thisN'
p2633
I327
sS'.thisIndex'
p2634
I12
sg15
(lp2635
S'd'
asg30
g31
sg17
S'Y'
sg14
I7
sg19
(lp2636
S'space'
p2637
asg95
I12
sa(dp2638
g16
(lp2639
S'k'
asg18
S'Y'
sS'.thisRepN'
p2640
I21
sg20
S'Y'
sg32
g33
sS'.thisTrialN'
p2641
I13
sS'.thisN'
p2642
I328
sS'.thisIndex'
p2643
I6
sg15
(lp2644
S'k'
asg30
g31
sg17
S'Y'
sg14
I7
sg19
(lp2645
S'space'
p2646
asg95
I6
sa(dp2647
g16
(lp2648
S'd'
asg18
S'N'
sS'.thisRepN'
p2649
I21
sg20
S'Y'
sg32
g33
sS'.thisTrialN'
p2650
I14
sS'.thisN'
p2651
I329
sS'.thisIndex'
p2652
I10
sg15
(lp2653
S'd'
asg30
g31
sg17
S'Y'
sg14
I7
sg19
Nsg95
I10
sa(dp2654
g16
(lp2655
S'k'
asg18
S'N'
sS'.thisRepN'
p2656
I22
sg20
S'Y'
sg32
g33
sS'.thisTrialN'
p2657
I0
sS'.thisN'
p2658
I330
sS'.thisIndex'
p2659
I2
sg15
(lp2660
S'k'
asg30
g31
sg17
S'Y'
sg14
I7
sg19
Nsg95
I2
sa(dp2661
g16
(lp2662
S'd'
asg18
S'N'
sS'.thisRepN'
p2663
I22
sg20
S'Y'
sg32
g33
sS'.thisTrialN'
p2664
I1
sS'.thisN'
p2665
I331
sS'.thisIndex'
p2666
I4
sg15
(lp2667
S'd'
asg30
g31
sg17
S'Y'
sg14
I7
sg19
Nsg95
I4
sa(dp2668
g16
(lp2669
S'd'
asg18
S'N'
sS'.thisRepN'
p2670
I22
sg20
S'Y'
sg32
g33
sS'.thisTrialN'
p2671
I2
sS'.thisN'
p2672
I332
sS'.thisIndex'
p2673
I3
sg15
(lp2674
S'd'
asg30
g31
sg17
S'Y'
sg14
I7
sg19
Nsg95
I3
sa(dp2675
g16
(lp2676
S'k'
asg18
S'N'
sS'.thisRepN'
p2677
I22
sg20
S'Y'
sg32
g33
sS'.thisTrialN'
p2678
I3
sS'.thisN'
p2679
I333
sS'.thisIndex'
p2680
I10
sg15
(lp2681
S'k'
asg30
g31
sg17
S'Y'
sg14
I7
sg19
Nsg95
I10
sa(dp2682
g16
(lp2683
S'k'
asg18
S'N'
sS'.thisRepN'
p2684
I22
sg20
S'Y'
sg32
g33
sS'.thisTrialN'
p2685
I4
sS'.thisN'
p2686
I334
sS'.thisIndex'
p2687
I0
sg15
(lp2688
S'k'
asg30
g31
sg17
S'Y'
sg14
I7
sg19
Nsg95
I0
sa(dp2689
g16
(lp2690
S'd'
asg18
S'Y'
sS'.thisRepN'
p2691
I22
sg20
S'Y'
sg32
g33
sS'.thisTrialN'
p2692
I5
sS'.thisN'
p2693
I335
sS'.thisIndex'
p2694
I9
sg15
(lp2695
S'k'
asg30
g31
sg17
S'N'
sg14
I7
sg19
(lp2696
S'space'
p2697
asg95
I9
sa(dp2698
g16
(lp2699
S'k'
asg18
S'N'
sS'.thisRepN'
p2700
I22
sg20
S'Y'
sg32
g33
sS'.thisTrialN'
p2701
I6
sS'.thisN'
p2702
I336
sS'.thisIndex'
p2703
I12
sg15
(lp2704
S'k'
asg30
g31
sg17
S'Y'
sg14
I7
sg19
Nsg95
I12
sa(dp2705
g16
(lp2706
S'd'
asg18
S'Y'
sS'.thisRepN'
p2707
I22
sg20
S'Y'
sg32
g33
sS'.thisTrialN'
p2708
I7
sS'.thisN'
p2709
I337
sS'.thisIndex'
p2710
I4
sg15
(lp2711
S'd'
asg30
g31
sg17
S'Y'
sg14
I7
sg19
(lp2712
S'space'
p2713
asg95
I4
sa(dp2714
g16
(lp2715
S'd'
asg18
S'N'
sS'.thisRepN'
p2716
I22
sg20
S'Y'
sg32
g33
sS'.thisTrialN'
p2717
I8
sS'.thisN'
p2718
I338
sS'.thisIndex'
p2719
I9
sg15
(lp2720
S'd'
asg30
g31
sg17
S'Y'
sg14
I7
sg19
Nsg95
I9
sa(dp2721
g16
(lp2722
S'd'
asg18
S'N'
sS'.thisRepN'
p2723
I22
sg20
S'Y'
sg32
g33
sS'.thisTrialN'
p2724
I9
sS'.thisN'
p2725
I339
sS'.thisIndex'
p2726
I5
sg15
(lp2727
S'k'
asg30
g31
sg17
S'N'
sg14
I7
sg19
Nsg95
I5
sa(dp2728
g16
(lp2729
S'k'
asg18
S'Y'
sS'.thisRepN'
p2730
I22
sg20
S'N'
sg32
g33
sS'.thisTrialN'
p2731
I10
sS'.thisN'
p2732
I340
sS'.thisIndex'
p2733
I9
sg15
(lp2734
S'k'
asg30
g31
sg17
S'Y'
sg14
I7
sg19
Nsg95
I9
sa(dp2735
g16
(lp2736
S'k'
asg18
S'N'
sS'.thisRepN'
p2737
I22
sg20
S'Y'
sg32
g33
sS'.thisTrialN'
p2738
I11
sS'.thisN'
p2739
I341
sS'.thisIndex'
p2740
I5
sg15
(lp2741
S'k'
asg30
g31
sg17
S'Y'
sg14
I7
sg19
Nsg95
I5
sa(dp2742
g16
(lp2743
S'd'
asg18
S'N'
sS'.thisRepN'
p2744
I22
sg20
S'Y'
sg32
g33
sS'.thisTrialN'
p2745
I12
sS'.thisN'
p2746
I342
sS'.thisIndex'
p2747
I3
sg15
(lp2748
S'd'
asg30
g31
sg17
S'Y'
sg14
I7
sg19
Nsg95
I3
sa(dp2749
g16
(lp2750
S'k'
asg18
S'Y'
sS'.thisRepN'
p2751
I22
sg20
S'Y'
sg32
g33
sS'.thisTrialN'
p2752
I13
sS'.thisN'
p2753
I343
sS'.thisIndex'
p2754
I13
sg15
(lp2755
S'k'
asg30
g31
sg17
S'Y'
sg14
I7
sg19
(lp2756
S'space'
p2757
asg95
I13
sa(dp2758
g16
(lp2759
S'd'
asg18
S'Y'
sS'.thisRepN'
p2760
I22
sg20
S'Y'
sg32
g33
sS'.thisTrialN'
p2761
I14
sS'.thisN'
p2762
I344
sS'.thisIndex'
p2763
I8
sg15
(lp2764
S'd'
asg30
g31
sg17
S'Y'
sg14
I7
sg19
(lp2765
S'space'
p2766
asg95
I8
sa(dp2767
g16
(lp2768
S'd'
asg18
S'N'
sS'.thisRepN'
p2769
I23
sg20
S'Y'
sg32
g33
sS'.thisTrialN'
p2770
I0
sS'.thisN'
p2771
I345
sS'.thisIndex'
p2772
I3
sg15
(lp2773
S'd'
asg30
g31
sg17
S'Y'
sg14
I7
sg19
Nsg95
I3
sa(dp2774
g16
(lp2775
S'd'
asg18
S'N'
sS'.thisRepN'
p2776
I23
sg20
S'Y'
sg32
g33
sS'.thisTrialN'
p2777
I1
sS'.thisN'
p2778
I346
sS'.thisIndex'
p2779
I4
sg15
(lp2780
S'd'
asg30
g31
sg17
S'Y'
sg14
I7
sg19
Nsg95
I4
sa(dp2781
g16
(lp2782
S'd'
asg18
S'N'
sS'.thisRepN'
p2783
I23
sg20
S'Y'
sg32
g33
sS'.thisTrialN'
p2784
I2
sS'.thisN'
p2785
I347
sS'.thisIndex'
p2786
I8
sg15
(lp2787
S'k'
asg30
g31
sg17
S'N'
sg14
I7
sg19
Nsg95
I8
sa(dp2788
g16
(lp2789
S'd'
asg18
S'N'
sS'.thisRepN'
p2790
I23
sg20
S'Y'
sg32
g33
sS'.thisTrialN'
p2791
I3
sS'.thisN'
p2792
I348
sS'.thisIndex'
p2793
I1
sg15
(lp2794
S'd'
asg30
g31
sg17
S'Y'
sg14
I7
sg19
Nsg95
I1
sa(dp2795
g16
(lp2796
S'k'
asg18
S'N'
sg22
I46
sS'.thisN'
p2797
I349
sg20
S'N'
sg32
g33
sS'.thisTrialN'
p2798
I4
sS'.thisRepN'
p2799
I23
sg21
I44
sS'.thisIndex'
p2800
I13
sg23
I19
sg15
(lp2801
S'k'
asg30
g31
sg17
S'Y'
sg14
I7
sg19
(lp2802
S'space'
p2803
asg95
I13
sa(dp2804
g16
(lp2805
S'k'
asg95
I0
sS'.thisRepN'
p2806
I23
sg30
g31
sg32
g33
sS'.thisTrialN'
p2807
I5
sS'.thisN'
p2808
I350
sS'.thisIndex'
p2809
I0
sg15
(lp2810
S'k'
asg17
S'Y'
sg14
I8
sa(dp2811
g16
(lp2812
S'k'
asg95
I0
sS'.thisRepN'
p2813
I23
sg30
g31
sg32
g33
sS'.thisTrialN'
p2814
I6
sS'.thisN'
p2815
I351
sS'.thisIndex'
p2816
I0
sg15
(lp2817
S'k'
asg17
S'Y'
sg14
I8
sa(dp2818
g16
(lp2819
S'k'
asg18
S'N'
sS'.thisRepN'
p2820
I23
sg20
S'Y'
sg32
g33
sS'.thisTrialN'
p2821
I7
sS'.thisN'
p2822
I352
sS'.thisIndex'
p2823
I9
sg15
(lp2824
S'k'
asg30
g31
sg17
S'Y'
sg14
I8
sg19
Nsg95
I9
sa(dp2825
g16
(lp2826
S'k'
asg18
S'Y'
sS'.thisRepN'
p2827
I23
sg20
S'Y'
sg32
g33
sS'.thisTrialN'
p2828
I8
sS'.thisN'
p2829
I353
sS'.thisIndex'
p2830
I10
sg15
(lp2831
S'k'
asg30
g31
sg17
S'Y'
sg14
I8
sg19
(lp2832
S'space'
p2833
asg95
I10
sa(dp2834
g16
(lp2835
S'd'
asg18
S'Y'
sS'.thisRepN'
p2836
I23
sg20
S'Y'
sg32
g33
sS'.thisTrialN'
p2837
I9
sS'.thisN'
p2838
I354
sS'.thisIndex'
p2839
I0
sg15
(lp2840
S'd'
asg30
g31
sg17
S'Y'
sg14
I8
sg19
(lp2841
S'space'
p2842
asg95
I0
sa(dp2843
g16
(lp2844
S'd'
asg18
S'N'
sS'.thisRepN'
p2845
I23
sg20
S'Y'
sg32
g33
sS'.thisTrialN'
p2846
I10
sS'.thisN'
p2847
I355
sS'.thisIndex'
p2848
I12
sg15
(lp2849
S'd'
asg30
g31
sg17
S'Y'
sg14
I8
sg19
Nsg95
I12
sa(dp2850
g16
(lp2851
S'd'
asg18
S'Y'
sS'.thisRepN'
p2852
I23
sg20
S'Y'
sg32
g33
sS'.thisTrialN'
p2853
I11
sS'.thisN'
p2854
I356
sS'.thisIndex'
p2855
I7
sg15
(lp2856
S'd'
asg30
g31
sg17
S'Y'
sg14
I8
sg19
(lp2857
S'space'
p2858
asg95
I7
sa(dp2859
g16
(lp2860
S'k'
asg18
S'Y'
sS'.thisRepN'
p2861
I23
sg20
S'Y'
sg32
g33
sS'.thisTrialN'
p2862
I12
sS'.thisN'
p2863
I357
sS'.thisIndex'
p2864
I7
sg15
(lp2865
S'k'
asg30
g31
sg17
S'Y'
sg14
I8
sg19
(lp2866
S'space'
p2867
asg95
I7
sa(dp2868
g16
(lp2869
S'k'
asg18
S'N'
sS'.thisRepN'
p2870
I23
sg20
S'Y'
sg32
g33
sS'.thisTrialN'
p2871
I13
sS'.thisN'
p2872
I358
sS'.thisIndex'
p2873
I6
sg15
(lp2874
S'k'
asg30
g31
sg17
S'Y'
sg14
I8
sg19
Nsg95
I6
sa(dp2875
g16
(lp2876
S'k'
asg18
S'Y'
sS'.thisRepN'
p2877
I23
sg20
S'Y'
sg32
g33
sS'.thisTrialN'
p2878
I14
sS'.thisN'
p2879
I359
sS'.thisIndex'
p2880
I10
sg15
(lp2881
S'k'
asg30
g31
sg17
S'Y'
sg14
I8
sg19
(lp2882
S'space'
p2883
asg95
I10
sa(dp2884
g16
(lp2885
S'k'
asg18
S'Y'
sS'.thisRepN'
p2886
I24
sg20
S'Y'
sg32
g33
sS'.thisTrialN'
p2887
I0
sS'.thisN'
p2888
I360
sS'.thisIndex'
p2889
I8
sg15
(lp2890
S'k'
asg30
g31
sg17
S'Y'
sg14
I8
sg19
(lp2891
S'space'
p2892
asg95
I8
sa(dp2893
g16
(lp2894
S'k'
asg18
S'N'
sS'.thisRepN'
p2895
I24
sg20
S'Y'
sg32
g33
sS'.thisTrialN'
p2896
I1
sS'.thisN'
p2897
I361
sS'.thisIndex'
p2898
I4
sg15
(lp2899
S'k'
asg30
g31
sg17
S'Y'
sg14
I8
sg19
Nsg95
I4
sa(dp2900
g16
(lp2901
S'k'
asg18
S'Y'
sS'.thisRepN'
p2902
I24
sg20
S'Y'
sg32
g33
sS'.thisTrialN'
p2903
I2
sS'.thisN'
p2904
I362
sS'.thisIndex'
p2905
I13
sg15
(lp2906
S'k'
asg30
g31
sg17
S'Y'
sg14
I8
sg19
(lp2907
S'space'
p2908
asg95
I13
sa(dp2909
g16
(lp2910
S'd'
asg18
S'Y'
sS'.thisRepN'
p2911
I24
sg20
S'Y'
sg32
g33
sS'.thisTrialN'
p2912
I3
sS'.thisN'
p2913
I363
sS'.thisIndex'
p2914
I11
sg15
(lp2915
S'd'
asg30
g31
sg17
S'Y'
sg14
I8
sg19
(lp2916
S'space'
p2917
asg95
I11
sa(dp2918
g16
(lp2919
S'k'
asg18
S'Y'
sS'.thisRepN'
p2920
I24
sg20
S'N'
sg32
g33
sS'.thisTrialN'
p2921
I4
sS'.thisN'
p2922
I364
sS'.thisIndex'
p2923
I7
sg15
(lp2924
S'k'
asg30
g31
sg17
S'Y'
sg14
I8
sg19
Nsg95
I7
sa(dp2925
g16
(lp2926
S'd'
asg18
S'N'
sS'.thisRepN'
p2927
I24
sg20
S'Y'
sg32
g33
sS'.thisTrialN'
p2928
I5
sS'.thisN'
p2929
I365
sS'.thisIndex'
p2930
I7
sg15
(lp2931
S'd'
asg30
g31
sg17
S'Y'
sg14
I8
sg19
Nsg95
I7
sa(dp2932
g16
(lp2933
S'k'
asg18
S'Y'
sS'.thisRepN'
p2934
I24
sg20
S'Y'
sg32
g33
sS'.thisTrialN'
p2935
I6
sS'.thisN'
p2936
I366
sS'.thisIndex'
p2937
I2
sg15
(lp2938
S'k'
asg30
g31
sg17
S'Y'
sg14
I8
sg19
(lp2939
S'space'
p2940
asg95
I2
sa(dp2941
g16
(lp2942
S'd'
asg18
S'Y'
sS'.thisRepN'
p2943
I24
sg20
S'Y'
sg32
g33
sS'.thisTrialN'
p2944
I7
sS'.thisN'
p2945
I367
sS'.thisIndex'
p2946
I1
sg15
(lp2947
S'd'
asg30
g31
sg17
S'Y'
sg14
I8
sg19
(lp2948
S'space'
p2949
asg95
I1
sa(dp2950
g16
(lp2951
S'd'
asg18
S'Y'
sS'.thisRepN'
p2952
I24
sg20
S'Y'
sg32
g33
sS'.thisTrialN'
p2953
I8
sS'.thisN'
p2954
I368
sS'.thisIndex'
p2955
I1
sg15
(lp2956
S'd'
asg30
g31
sg17
S'Y'
sg14
I8
sg19
(lp2957
S'space'
p2958
asg95
I1
sa(dp2959
g16
(lp2960
S'd'
asg18
S'Y'
sS'.thisRepN'
p2961
I24
sg20
S'Y'
sg32
g33
sS'.thisTrialN'
p2962
I9
sS'.thisN'
p2963
I369
sS'.thisIndex'
p2964
I14
sg15
(lp2965
S'd'
asg30
g31
sg17
S'Y'
sg14
I8
sg19
(lp2966
S'space'
p2967
asg95
I14
sa(dp2968
g16
(lp2969
S'k'
asg18
S'Y'
sS'.thisRepN'
p2970
I24
sg20
S'Y'
sg32
g33
sS'.thisTrialN'
p2971
I10
sS'.thisN'
p2972
I370
sS'.thisIndex'
p2973
I3
sg15
(lp2974
S'k'
asg30
g31
sg17
S'Y'
sg14
I8
sg19
(lp2975
S'space'
p2976
asg95
I3
sa(dp2977
g16
(lp2978
S'd'
asg18
S'N'
sS'.thisRepN'
p2979
I24
sg20
S'Y'
sg32
g33
sS'.thisTrialN'
p2980
I11
sS'.thisN'
p2981
I371
sS'.thisIndex'
p2982
I13
sg15
(lp2983
S'd'
asg30
g31
sg17
S'Y'
sg14
I8
sg19
Nsg95
I13
sa(dp2984
g16
(lp2985
S'd'
asg18
S'N'
sS'.thisRepN'
p2986
I24
sg20
S'Y'
sg32
g33
sS'.thisTrialN'
p2987
I12
sS'.thisN'
p2988
I372
sS'.thisIndex'
p2989
I14
sg15
(lp2990
S'k'
asg30
g31
sg17
S'N'
sg14
I8
sg19
Nsg95
I14
sa(dp2991
g16
(lp2992
S'k'
asg18
S'Y'
sS'.thisRepN'
p2993
I24
sg20
S'Y'
sg32
g33
sS'.thisTrialN'
p2994
I13
sS'.thisN'
p2995
I373
sS'.thisIndex'
p2996
I1
sg15
(lp2997
S'k'
asg30
g31
sg17
S'Y'
sg14
I8
sg19
(lp2998
S'space'
p2999
asg95
I1
sa(dp3000
g16
(lp3001
S'd'
asg18
S'Y'
sS'.thisRepN'
p3002
I24
sg20
S'Y'
sg32
g33
sS'.thisTrialN'
p3003
I14
sS'.thisN'
p3004
I374
sS'.thisIndex'
p3005
I8
sg15
(lp3006
S'd'
asg30
g31
sg17
S'Y'
sg14
I8
sg19
(lp3007
S'space'
p3008
asg95
I8
sa(dp3009
g16
(lp3010
S'k'
asg18
S'N'
sS'.thisRepN'
p3011
I25
sg20
S'Y'
sg32
g33
sS'.thisTrialN'
p3012
I0
sS'.thisN'
p3013
I375
sS'.thisIndex'
p3014
I2
sg15
(lp3015
S'k'
asg30
g31
sg17
S'Y'
sg14
I8
sg19
Nsg95
I2
sa(dp3016
g16
(lp3017
S'k'
asg18
S'N'
sS'.thisRepN'
p3018
I25
sg20
S'Y'
sg32
g33
sS'.thisTrialN'
p3019
I1
sS'.thisN'
p3020
I376
sS'.thisIndex'
p3021
I11
sg15
(lp3022
S'k'
asg30
g31
sg17
S'Y'
sg14
I8
sg19
Nsg95
I11
sa(dp3023
g16
(lp3024
S'd'
asg18
S'N'
sS'.thisRepN'
p3025
I25
sg20
S'Y'
sg32
g33
sS'.thisTrialN'
p3026
I2
sS'.thisN'
p3027
I377
sS'.thisIndex'
p3028
I5
sg15
(lp3029
S'd'
asg30
g31
sg17
S'Y'
sg14
I8
sg19
Nsg95
I5
sa(dp3030
g16
(lp3031
S'd'
asg18
S'Y'
sS'.thisRepN'
p3032
I25
sg20
S'N'
sg32
g33
sS'.thisTrialN'
p3033
I3
sS'.thisN'
p3034
I378
sS'.thisIndex'
p3035
I6
sg15
(lp3036
S'd'
asg30
g31
sg17
S'Y'
sg14
I8
sg19
Nsg95
I6
sa(dp3037
g16
(lp3038
S'd'
asg18
S'Y'
sS'.thisRepN'
p3039
I25
sg20
S'Y'
sg32
g33
sS'.thisTrialN'
p3040
I4
sS'.thisN'
p3041
I379
sS'.thisIndex'
p3042
I10
sg15
(lp3043
S'd'
asg30
g31
sg17
S'Y'
sg14
I8
sg19
(lp3044
S'space'
p3045
asg95
I10
sa(dp3046
g16
(lp3047
S'k'
asg18
S'Y'
sS'.thisRepN'
p3048
I25
sg20
S'N'
sg32
g33
sS'.thisTrialN'
p3049
I5
sS'.thisN'
p3050
I380
sS'.thisIndex'
p3051
I10
sg15
(lp3052
S'k'
asg30
g31
sg17
S'Y'
sg14
I8
sg19
Nsg95
I10
sa(dp3053
g16
(lp3054
S'k'
asg18
S'Y'
sS'.thisRepN'
p3055
I25
sg20
S'Y'
sg32
g33
sS'.thisTrialN'
p3056
I6
sS'.thisN'
p3057
I381
sS'.thisIndex'
p3058
I12
sg15
(lp3059
S'k'
asg30
g31
sg17
S'Y'
sg14
I8
sg19
(lp3060
S'space'
p3061
asg95
I12
sa(dp3062
g16
(lp3063
S'k'
asg18
S'Y'
sS'.thisRepN'
p3064
I25
sg20
S'Y'
sg32
g33
sS'.thisTrialN'
p3065
I7
sS'.thisN'
p3066
I382
sS'.thisIndex'
p3067
I14
sg15
(lp3068
S'k'
asg30
g31
sg17
S'Y'
sg14
I8
sg19
(lp3069
S'space'
p3070
asg95
I14
sa(dp3071
g16
(lp3072
S'd'
asg18
S'Y'
sS'.thisRepN'
p3073
I25
sg20
S'N'
sg32
g33
sS'.thisTrialN'
p3074
I8
sS'.thisN'
p3075
I383
sS'.thisIndex'
p3076
I12
sg15
(lp3077
S'd'
asg30
g31
sg17
S'Y'
sg14
I8
sg19
Nsg95
I12
sa(dp3078
g16
(lp3079
S'k'
asg18
S'N'
sS'.thisRepN'
p3080
I25
sg20
S'Y'
sg32
g33
sS'.thisTrialN'
p3081
I9
sS'.thisN'
p3082
I384
sS'.thisIndex'
p3083
I10
sg15
(lp3084
S'k'
asg30
g31
sg17
S'Y'
sg14
I8
sg19
Nsg95
I10
sa(dp3085
g16
(lp3086
S'd'
asg18
S'N'
sS'.thisRepN'
p3087
I25
sg20
S'Y'
sg32
g33
sS'.thisTrialN'
p3088
I10
sS'.thisN'
p3089
I385
sS'.thisIndex'
p3090
I3
sg15
(lp3091
S'd'
asg30
g31
sg17
S'Y'
sg14
I8
sg19
Nsg95
I3
sa(dp3092
g16
(lp3093
S'k'
asg18
S'Y'
sS'.thisRepN'
p3094
I25
sg20
S'Y'
sg32
g33
sS'.thisTrialN'
p3095
I11
sS'.thisN'
p3096
I386
sS'.thisIndex'
p3097
I6
sg15
(lp3098
S'k'
asg30
g31
sg17
S'Y'
sg14
I8
sg19
(lp3099
S'space'
p3100
asg95
I6
sa(dp3101
g16
(lp3102
S'k'
asg18
S'Y'
sS'.thisRepN'
p3103
I25
sg20
S'Y'
sg32
g33
sS'.thisTrialN'
p3104
I12
sS'.thisN'
p3105
I387
sS'.thisIndex'
p3106
I14
sg15
(lp3107
S'k'
asg30
g31
sg17
S'Y'
sg14
I8
sg19
(lp3108
S'space'
p3109
asg95
I14
sa(dp3110
g16
(lp3111
S'd'
asg18
S'N'
sS'.thisRepN'
p3112
I25
sg20
S'Y'
sg32
g33
sS'.thisTrialN'
p3113
I13
sS'.thisN'
p3114
I388
sS'.thisIndex'
p3115
I11
sg15
(lp3116
S'd'
asg30
g31
sg17
S'Y'
sg14
I8
sg19
Nsg95
I11
sa(dp3117
g16
(lp3118
S'k'
asg18
S'N'
sS'.thisRepN'
p3119
I25
sg20
S'Y'
sg32
g33
sS'.thisTrialN'
p3120
I14
sS'.thisN'
p3121
I389
sS'.thisIndex'
p3122
I13
sg15
(lp3123
S'k'
asg30
g31
sg17
S'Y'
sg14
I8
sg19
Nsg95
I13
sa(dp3124
g16
(lp3125
S'd'
asg18
S'Y'
sS'.thisRepN'
p3126
I26
sg20
S'Y'
sg32
g33
sS'.thisTrialN'
p3127
I0
sS'.thisN'
p3128
I390
sS'.thisIndex'
p3129
I4
sg15
(lp3130
S'd'
asg30
g31
sg17
S'Y'
sg14
I8
sg19
(lp3131
S'space'
p3132
asg95
I4
sa(dp3133
g16
(lp3134
S'd'
asg18
S'N'
sS'.thisRepN'
p3135
I26
sg20
S'Y'
sg32
g33
sS'.thisTrialN'
p3136
I1
sS'.thisN'
p3137
I391
sS'.thisIndex'
p3138
I3
sg15
(lp3139
S'd'
asg30
g31
sg17
S'Y'
sg14
I8
sg19
Nsg95
I3
sa(dp3140
g16
(lp3141
S'k'
asg18
S'N'
sS'.thisRepN'
p3142
I26
sg20
S'Y'
sg32
g33
sS'.thisTrialN'
p3143
I2
sS'.thisN'
p3144
I392
sS'.thisIndex'
p3145
I3
sg15
(lp3146
S'k'
asg30
g31
sg17
S'Y'
sg14
I8
sg19
Nsg95
I3
sa(dp3147
g16
(lp3148
S'k'
asg18
S'N'
sS'.thisRepN'
p3149
I26
sg20
S'Y'
sg32
g33
sS'.thisTrialN'
p3150
I3
sS'.thisN'
p3151
I393
sS'.thisIndex'
p3152
I2
sg15
(lp3153
S'k'
asg30
g31
sg17
S'Y'
sg14
I8
sg19
Nsg95
I2
sa(dp3154
g16
(lp3155
S'd'
asg18
S'N'
sS'.thisRepN'
p3156
I26
sg20
S'Y'
sg32
g33
sS'.thisTrialN'
p3157
I4
sS'.thisN'
p3158
I394
sS'.thisIndex'
p3159
I5
sg15
(lp3160
S'd'
asg30
g31
sg17
S'Y'
sg14
I8
sg19
Nsg95
I5
sa(dp3161
g16
(lp3162
S'd'
asg18
S'N'
sS'.thisRepN'
p3163
I26
sg20
S'Y'
sg32
g33
sS'.thisTrialN'
p3164
I5
sS'.thisN'
p3165
I395
sS'.thisIndex'
p3166
I12
sg15
(lp3167
S'd'
asg30
g31
sg17
S'Y'
sg14
I8
sg19
Nsg95
I12
sa(dp3168
g16
(lp3169
S'k'
asg18
S'N'
sS'.thisRepN'
p3170
I26
sg20
S'Y'
sg32
g33
sS'.thisTrialN'
p3171
I6
sS'.thisN'
p3172
I396
sS'.thisIndex'
p3173
I7
sg15
(lp3174
S'k'
asg30
g31
sg17
S'Y'
sg14
I8
sg19
Nsg95
I7
sa(dp3175
g16
(lp3176
S'd'
asg18
S'N'
sS'.thisRepN'
p3177
I26
sg20
S'Y'
sg32
g33
sS'.thisTrialN'
p3178
I7
sS'.thisN'
p3179
I397
sS'.thisIndex'
p3180
I0
sg15
(lp3181
S'd'
asg30
g31
sg17
S'Y'
sg14
I8
sg19
Nsg95
I0
sa(dp3182
g16
(lp3183
S'k'
asg18
S'N'
sS'.thisRepN'
p3184
I26
sg20
S'Y'
sg32
g33
sS'.thisTrialN'
p3185
I8
sS'.thisN'
p3186
I398
sS'.thisIndex'
p3187
I1
sg15
(lp3188
S'k'
asg30
g31
sg17
S'Y'
sg14
I8
sg19
Nsg95
I1
sa(dp3189
g16
(lp3190
S'd'
asg18
S'N'
sg22
I44
sS'.thisN'
p3191
I399
sg20
S'Y'
sg32
g33
sS'.thisTrialN'
p3192
I9
sS'.thisRepN'
p3193
I26
sg21
I49
sS'.thisIndex'
p3194
I11
sg23
I25
sg15
(lp3195
S'd'
asg30
g31
sg17
S'Y'
sg14
I8
sg19
Nsg95
I11
sa(dp3196
g16
(lp3197
S'k'
asg95
I14
sS'.thisRepN'
p3198
I26
sg30
g31
sg32
g33
sS'.thisTrialN'
p3199
I10
sS'.thisN'
p3200
I400
sS'.thisIndex'
p3201
I14
sg15
(lp3202
S'k'
asg17
S'Y'
sg14
I9
sa(dp3203
g16
(lp3204
S'k'
asg95
I13
sS'.thisRepN'
p3205
I26
sg30
g31
sg32
g33
sS'.thisTrialN'
p3206
I11
sS'.thisN'
p3207
I401
sS'.thisIndex'
p3208
I13
sg15
(lp3209
S'k'
asg17
S'Y'
sg14
I9
sa(dp3210
g16
(lp3211
S'd'
asg18
S'Y'
sS'.thisRepN'
p3212
I26
sg20
S'Y'
sg32
g33
sS'.thisTrialN'
p3213
I12
sS'.thisN'
p3214
I402
sS'.thisIndex'
p3215
I9
sg15
(lp3216
S'd'
asg30
g31
sg17
S'Y'
sg14
I9
sg19
(lp3217
S'space'
p3218
asg95
I9
sa(dp3219
g16
(lp3220
S'd'
asg18
S'N'
sS'.thisRepN'
p3221
I26
sg20
S'Y'
sg32
g33
sS'.thisTrialN'
p3222
I13
sS'.thisN'
p3223
I403
sS'.thisIndex'
p3224
I7
sg15
(lp3225
S'd'
asg30
g31
sg17
S'Y'
sg14
I9
sg19
Nsg95
I7
sa(dp3226
g16
(lp3227
S'k'
asg18
S'Y'
sS'.thisRepN'
p3228
I26
sg20
S'Y'
sg32
g33
sS'.thisTrialN'
p3229
I14
sS'.thisN'
p3230
I404
sS'.thisIndex'
p3231
I12
sg15
(lp3232
S'k'
asg30
g31
sg17
S'Y'
sg14
I9
sg19
(lp3233
S'space'
p3234
asg95
I12
sa(dp3235
g16
(lp3236
S'd'
asg18
S'N'
sS'.thisRepN'
p3237
I27
sg20
S'Y'
sg32
g33
sS'.thisTrialN'
p3238
I0
sS'.thisN'
p3239
I405
sS'.thisIndex'
p3240
I4
sg15
(lp3241
S'd'
asg30
g31
sg17
S'Y'
sg14
I9
sg19
Nsg95
I4
sa(dp3242
g16
(lp3243
S'k'
asg18
S'N'
sS'.thisRepN'
p3244
I27
sg20
S'Y'
sg32
g33
sS'.thisTrialN'
p3245
I1
sS'.thisN'
p3246
I406
sS'.thisIndex'
p3247
I5
sg15
(lp3248
S'k'
asg30
g31
sg17
S'Y'
sg14
I9
sg19
Nsg95
I5
sa(dp3249
g16
(lp3250
S'k'
asg18
S'Y'
sS'.thisRepN'
p3251
I27
sg20
S'Y'
sg32
g33
sS'.thisTrialN'
p3252
I2
sS'.thisN'
p3253
I407
sS'.thisIndex'
p3254
I9
sg15
(lp3255
S'k'
asg30
g31
sg17
S'Y'
sg14
I9
sg19
(lp3256
S'space'
p3257
asg95
I9
sa(dp3258
g16
(lp3259
S'd'
asg18
S'N'
sS'.thisRepN'
p3260
I27
sg20
S'Y'
sg32
g33
sS'.thisTrialN'
p3261
I3
sS'.thisN'
p3262
I408
sS'.thisIndex'
p3263
I10
sg15
(lp3264
S'd'
asg30
g31
sg17
S'Y'
sg14
I9
sg19
Nsg95
I10
sa(dp3265
g16
(lp3266
S'd'
asg18
S'Y'
sS'.thisRepN'
p3267
I27
sg20
S'Y'
sg32
g33
sS'.thisTrialN'
p3268
I4
sS'.thisN'
p3269
I409
sS'.thisIndex'
p3270
I0
sg15
(lp3271
S'd'
asg30
g31
sg17
S'Y'
sg14
I9
sg19
(lp3272
S'space'
p3273
asg95
I0
sa(dp3274
g16
(lp3275
S'k'
asg18
S'N'
sS'.thisRepN'
p3276
I27
sg20
S'Y'
sg32
g33
sS'.thisTrialN'
p3277
I5
sS'.thisN'
p3278
I410
sS'.thisIndex'
p3279
I14
sg15
(lp3280
S'k'
asg30
g31
sg17
S'Y'
sg14
I9
sg19
Nsg95
I14
sa(dp3281
g16
(lp3282
S'k'
asg18
S'Y'
sS'.thisRepN'
p3283
I27
sg20
S'Y'
sg32
g33
sS'.thisTrialN'
p3284
I6
sS'.thisN'
p3285
I411
sS'.thisIndex'
p3286
I9
sg15
(lp3287
S'k'
asg30
g31
sg17
S'Y'
sg14
I9
sg19
(lp3288
S'space'
p3289
asg95
I9
sa(dp3290
g16
(lp3291
S'k'
asg18
S'Y'
sS'.thisRepN'
p3292
I27
sg20
S'Y'
sg32
g33
sS'.thisTrialN'
p3293
I7
sS'.thisN'
p3294
I412
sS'.thisIndex'
p3295
I9
sg15
(lp3296
S'k'
asg30
g31
sg17
S'Y'
sg14
I9
sg19
(lp3297
S'space'
p3298
asg95
I9
sa(dp3299
g16
(lp3300
S'k'
asg18
S'N'
sS'.thisRepN'
p3301
I27
sg20
S'Y'
sg32
g33
sS'.thisTrialN'
p3302
I8
sS'.thisN'
p3303
I413
sS'.thisIndex'
p3304
I14
sg15
(lp3305
S'k'
asg30
g31
sg17
S'Y'
sg14
I9
sg19
Nsg95
I14
sa(dp3306
g16
(lp3307
S'd'
asg18
S'N'
sS'.thisRepN'
p3308
I27
sg20
S'Y'
sg32
g33
sS'.thisTrialN'
p3309
I9
sS'.thisN'
p3310
I414
sS'.thisIndex'
p3311
I12
sg15
(lp3312
S'd'
asg30
g31
sg17
S'Y'
sg14
I9
sg19
Nsg95
I12
sa(dp3313
g16
(lp3314
S'k'
asg18
S'Y'
sS'.thisRepN'
p3315
I27
sg20
S'N'
sg32
g33
sS'.thisTrialN'
p3316
I10
sS'.thisN'
p3317
I415
sS'.thisIndex'
p3318
I11
sg15
(lp3319
S'k'
asg30
g31
sg17
S'Y'
sg14
I9
sg19
Nsg95
I11
sa(dp3320
g16
(lp3321
S'k'
asg18
S'Y'
sS'.thisRepN'
p3322
I27
sg20
S'Y'
sg32
g33
sS'.thisTrialN'
p3323
I11
sS'.thisN'
p3324
I416
sS'.thisIndex'
p3325
I5
sg15
(lp3326
S'k'
asg30
g31
sg17
S'Y'
sg14
I9
sg19
(lp3327
S'space'
p3328
asg95
I5
sa(dp3329
g16
(lp3330
S'd'
asg18
S'Y'
sS'.thisRepN'
p3331
I27
sg20
S'Y'
sg32
g33
sS'.thisTrialN'
p3332
I12
sS'.thisN'
p3333
I417
sS'.thisIndex'
p3334
I14
sg15
(lp3335
S'd'
asg30
g31
sg17
S'Y'
sg14
I9
sg19
(lp3336
S'space'
p3337
asg95
I14
sa(dp3338
g16
(lp3339
S'd'
asg18
S'Y'
sS'.thisRepN'
p3340
I27
sg20
S'Y'
sg32
g33
sS'.thisTrialN'
p3341
I13
sS'.thisN'
p3342
I418
sS'.thisIndex'
p3343
I12
sg15
(lp3344
S'd'
asg30
g31
sg17
S'Y'
sg14
I9
sg19
(lp3345
S'space'
p3346
asg95
I12
sa(dp3347
g16
(lp3348
S'k'
asg18
S'N'
sS'.thisRepN'
p3349
I27
sg20
S'Y'
sg32
g33
sS'.thisTrialN'
p3350
I14
sS'.thisN'
p3351
I419
sS'.thisIndex'
p3352
I4
sg15
(lp3353
S'k'
asg30
g31
sg17
S'Y'
sg14
I9
sg19
Nsg95
I4
sa(dp3354
g16
(lp3355
S'k'
asg18
S'Y'
sS'.thisRepN'
p3356
I28
sg20
S'Y'
sg32
g33
sS'.thisTrialN'
p3357
I0
sS'.thisN'
p3358
I420
sS'.thisIndex'
p3359
I11
sg15
(lp3360
S'k'
asg30
g31
sg17
S'Y'
sg14
I9
sg19
(lp3361
S'space'
p3362
asg95
I11
sa(dp3363
g16
(lp3364
S'd'
asg18
S'Y'
sS'.thisRepN'
p3365
I28
sg20
S'Y'
sg32
g33
sS'.thisTrialN'
p3366
I1
sS'.thisN'
p3367
I421
sS'.thisIndex'
p3368
I6
sg15
(lp3369
S'd'
asg30
g31
sg17
S'Y'
sg14
I9
sg19
(lp3370
S'space'
p3371
asg95
I6
sa(dp3372
g16
(lp3373
S'd'
asg18
S'Y'
sS'.thisRepN'
p3374
I28
sg20
S'Y'
sg32
g33
sS'.thisTrialN'
p3375
I2
sS'.thisN'
p3376
I422
sS'.thisIndex'
p3377
I2
sg15
(lp3378
S'd'
asg30
g31
sg17
S'Y'
sg14
I9
sg19
(lp3379
S'space'
p3380
asg95
I2
sa(dp3381
g16
(lp3382
S'k'
asg18
S'N'
sS'.thisRepN'
p3383
I28
sg20
S'Y'
sg32
g33
sS'.thisTrialN'
p3384
I3
sS'.thisN'
p3385
I423
sS'.thisIndex'
p3386
I9
sg15
(lp3387
S'd'
asg30
g31
sg17
S'N'
sg14
I9
sg19
Nsg95
I9
sa(dp3388
g16
(lp3389
S'd'
asg18
S'Y'
sS'.thisRepN'
p3390
I28
sg20
S'Y'
sg32
g33
sS'.thisTrialN'
p3391
I4
sS'.thisN'
p3392
I424
sS'.thisIndex'
p3393
I8
sg15
(lp3394
S'd'
asg30
g31
sg17
S'Y'
sg14
I9
sg19
(lp3395
S'space'
p3396
asg95
I8
sa(dp3397
g16
(lp3398
S'd'
asg18
S'N'
sS'.thisRepN'
p3399
I28
sg20
S'Y'
sg32
g33
sS'.thisTrialN'
p3400
I5
sS'.thisN'
p3401
I425
sS'.thisIndex'
p3402
I9
sg15
(lp3403
S'k'
asg30
g31
sg17
S'N'
sg14
I9
sg19
Nsg95
I9
sa(dp3404
g16
(lp3405
S'd'
asg18
S'N'
sS'.thisRepN'
p3406
I28
sg20
S'Y'
sg32
g33
sS'.thisTrialN'
p3407
I6
sS'.thisN'
p3408
I426
sS'.thisIndex'
p3409
I10
sg15
(lp3410
S'd'
asg30
g31
sg17
S'Y'
sg14
I9
sg19
Nsg95
I10
sa(dp3411
g16
(lp3412
S'd'
asg18
S'Y'
sS'.thisRepN'
p3413
I28
sg20
S'Y'
sg32
g33
sS'.thisTrialN'
p3414
I7
sS'.thisN'
p3415
I427
sS'.thisIndex'
p3416
I7
sg15
(lp3417
S'd'
asg30
g31
sg17
S'Y'
sg14
I9
sg19
(lp3418
S'space'
p3419
asg95
I7
sa(dp3420
g16
(lp3421
S'd'
asg18
S'Y'
sS'.thisRepN'
p3422
I28
sg20
S'Y'
sg32
g33
sS'.thisTrialN'
p3423
I8
sS'.thisN'
p3424
I428
sS'.thisIndex'
p3425
I13
sg15
(lp3426
S'd'
asg30
g31
sg17
S'Y'
sg14
I9
sg19
(lp3427
S'space'
p3428
asg95
I13
sa(dp3429
g16
(lp3430
S'd'
asg18
S'Y'
sS'.thisRepN'
p3431
I28
sg20
S'Y'
sg32
g33
sS'.thisTrialN'
p3432
I9
sS'.thisN'
p3433
I429
sS'.thisIndex'
p3434
I9
sg15
(lp3435
S'd'
asg30
g31
sg17
S'Y'
sg14
I9
sg19
(lp3436
S'space'
p3437
asg95
I9
sa(dp3438
g16
(lp3439
S'k'
asg18
S'N'
sS'.thisRepN'
p3440
I28
sg20
S'Y'
sg32
g33
sS'.thisTrialN'
p3441
I10
sS'.thisN'
p3442
I430
sS'.thisIndex'
p3443
I4
sg15
(lp3444
S'k'
asg30
g31
sg17
S'Y'
sg14
I9
sg19
Nsg95
I4
sa(dp3445
g16
(lp3446
S'd'
asg18
S'N'
sS'.thisRepN'
p3447
I28
sg20
S'Y'
sg32
g33
sS'.thisTrialN'
p3448
I11
sS'.thisN'
p3449
I431
sS'.thisIndex'
p3450
I13
sg15
(lp3451
S'd'
asg30
g31
sg17
S'Y'
sg14
I9
sg19
Nsg95
I13
sa(dp3452
g16
(lp3453
S'd'
asg18
S'Y'
sS'.thisRepN'
p3454
I28
sg20
S'Y'
sg32
g33
sS'.thisTrialN'
p3455
I12
sS'.thisN'
p3456
I432
sS'.thisIndex'
p3457
I9
sg15
(lp3458
S'k'
asg30
g31
sg17
S'N'
sg14
I9
sg19
(lp3459
S'space'
p3460
asg95
I9
sa(dp3461
g16
(lp3462
S'k'
asg18
S'Y'
sS'.thisRepN'
p3463
I28
sg20
S'Y'
sg32
g33
sS'.thisTrialN'
p3464
I13
sS'.thisN'
p3465
I433
sS'.thisIndex'
p3466
I3
sg15
(lp3467
S'k'
asg30
g31
sg17
S'Y'
sg14
I9
sg19
(lp3468
S'space'
p3469
asg95
I3
sa(dp3470
g16
(lp3471
S'd'
asg18
S'Y'
sS'.thisRepN'
p3472
I28
sg20
S'Y'
sg32
g33
sS'.thisTrialN'
p3473
I14
sS'.thisN'
p3474
I434
sS'.thisIndex'
p3475
I4
sg15
(lp3476
S'd'
asg30
g31
sg17
S'Y'
sg14
I9
sg19
(lp3477
S'space'
p3478
asg95
I4
sa(dp3479
g16
(lp3480
S'd'
asg18
S'Y'
sS'.thisRepN'
p3481
I29
sg20
S'Y'
sg32
g33
sS'.thisTrialN'
p3482
I0
sS'.thisN'
p3483
I435
sS'.thisIndex'
p3484
I12
sg15
(lp3485
S'd'
asg30
g31
sg17
S'Y'
sg14
I9
sg19
(lp3486
S'space'
p3487
asg95
I12
sa(dp3488
g16
(lp3489
S'd'
asg18
S'N'
sS'.thisRepN'
p3490
I29
sg20
S'Y'
sg32
g33
sS'.thisTrialN'
p3491
I1
sS'.thisN'
p3492
I436
sS'.thisIndex'
p3493
I3
sg15
(lp3494
S'd'
asg30
g31
sg17
S'Y'
sg14
I9
sg19
Nsg95
I3
sa(dp3495
g16
(lp3496
S'd'
asg18
S'N'
sS'.thisRepN'
p3497
I29
sg20
S'Y'
sg32
g33
sS'.thisTrialN'
p3498
I2
sS'.thisN'
p3499
I437
sS'.thisIndex'
p3500
I13
sg15
(lp3501
S'd'
asg30
g31
sg17
S'Y'
sg14
I9
sg19
Nsg95
I13
sa(dp3502
g16
(lp3503
S'd'
asg18
S'N'
sS'.thisRepN'
p3504
I29
sg20
S'Y'
sg32
g33
sS'.thisTrialN'
p3505
I3
sS'.thisN'
p3506
I438
sS'.thisIndex'
p3507
I5
sg15
(lp3508
S'k'
asg30
g31
sg17
S'N'
sg14
I9
sg19
Nsg95
I5
sa(dp3509
g16
(lp3510
S'k'
asg18
S'N'
sS'.thisRepN'
p3511
I29
sg20
S'Y'
sg32
g33
sS'.thisTrialN'
p3512
I4
sS'.thisN'
p3513
I439
sS'.thisIndex'
p3514
I11
sg15
(lp3515
S'k'
asg30
g31
sg17
S'Y'
sg14
I9
sg19
Nsg95
I11
sa(dp3516
g16
(lp3517
S'd'
asg18
S'Y'
sS'.thisRepN'
p3518
I29
sg20
S'Y'
sg32
g33
sS'.thisTrialN'
p3519
I5
sS'.thisN'
p3520
I440
sS'.thisIndex'
p3521
I14
sg15
(lp3522
S'd'
asg30
g31
sg17
S'Y'
sg14
I9
sg19
(lp3523
S'space'
p3524
asg95
I14
sa(dp3525
g16
(lp3526
S'd'
asg18
S'N'
sS'.thisRepN'
p3527
I29
sg20
S'Y'
sg32
g33
sS'.thisTrialN'
p3528
I6
sS'.thisN'
p3529
I441
sS'.thisIndex'
p3530
I4
sg15
(lp3531
S'd'
asg30
g31
sg17
S'Y'
sg14
I9
sg19
Nsg95
I4
sa(dp3532
g16
(lp3533
S'k'
asg18
S'Y'
sS'.thisRepN'
p3534
I29
sg20
S'Y'
sg32
g33
sS'.thisTrialN'
p3535
I7
sS'.thisN'
p3536
I442
sS'.thisIndex'
p3537
I7
sg15
(lp3538
S'k'
asg30
g31
sg17
S'Y'
sg14
I9
sg19
(lp3539
S'space'
p3540
asg95
I7
sa(dp3541
g16
(lp3542
S'd'
asg18
S'Y'
sS'.thisRepN'
p3543
I29
sg20
S'Y'
sg32
g33
sS'.thisTrialN'
p3544
I8
sS'.thisN'
p3545
I443
sS'.thisIndex'
p3546
I1
sg15
(lp3547
S'd'
asg30
g31
sg17
S'Y'
sg14
I9
sg19
(lp3548
S'space'
p3549
asg95
I1
sa(dp3550
g16
(lp3551
S'd'
asg18
S'N'
sS'.thisRepN'
p3552
I29
sg20
S'Y'
sg32
g33
sS'.thisTrialN'
p3553
I9
sS'.thisN'
p3554
I444
sS'.thisIndex'
p3555
I14
sg15
(lp3556
S'd'
asg30
g31
sg17
S'Y'
sg14
I9
sg19
Nsg95
I14
sa(dp3557
g16
(lp3558
S'd'
asg18
S'Y'
sS'.thisRepN'
p3559
I29
sg20
S'Y'
sg32
g33
sS'.thisTrialN'
p3560
I10
sS'.thisN'
p3561
I445
sS'.thisIndex'
p3562
I6
sg15
(lp3563
S'd'
asg30
g31
sg17
S'Y'
sg14
I9
sg19
(lp3564
S'space'
p3565
asg95
I6
sa(dp3566
g16
(lp3567
S'k'
asg18
S'N'
sS'.thisRepN'
p3568
I29
sg20
S'Y'
sg32
g33
sS'.thisTrialN'
p3569
I11
sS'.thisN'
p3570
I446
sS'.thisIndex'
p3571
I4
sg15
(lp3572
S'k'
asg30
g31
sg17
S'Y'
sg14
I9
sg19
Nsg95
I4
sa(dp3573
g16
(lp3574
S'd'
asg18
S'N'
sS'.thisRepN'
p3575
I29
sg20
S'Y'
sg32
g33
sS'.thisTrialN'
p3576
I12
sS'.thisN'
p3577
I447
sS'.thisIndex'
p3578
I5
sg15
(lp3579
S'd'
asg30
g31
sg17
S'Y'
sg14
I9
sg19
Nsg95
I5
sa(dp3580
g16
(lp3581
S'k'
asg18
S'N'
sS'.thisRepN'
p3582
I29
sg20
S'Y'
sg32
g33
sS'.thisTrialN'
p3583
I13
sS'.thisN'
p3584
I448
sS'.thisIndex'
p3585
I8
sg15
(lp3586
S'k'
asg30
g31
sg17
S'Y'
sg14
I9
sg19
Nsg95
I8
sa(dp3587
g16
(lp3588
S'k'
asg18
S'N'
sg22
I47
sS'.thisN'
p3589
I449
sg20
S'Y'
sg32
g33
sS'.thisTrialN'
p3590
I14
sS'.thisRepN'
p3591
I29
sg21
I46
sS'.thisIndex'
p3592
I6
sg23
I25
sg15
(lp3593
S'k'
asg30
g31
sg17
S'Y'
sg14
I9
sg19
Nsg95
I6
sa(dp3594
g16
(lp3595
S'd'
asg95
I0
sS'.thisRepN'
p3596
I30
sg30
g31
sg32
g33
sS'.thisTrialN'
p3597
I0
sS'.thisN'
p3598
I450
sS'.thisIndex'
p3599
I0
sg15
(lp3600
S'd'
asg17
S'Y'
sg14
I10
sa(dp3601
g16
(lp3602
S'd'
asg95
I2
sS'.thisRepN'
p3603
I30
sg30
g31
sg32
g33
sS'.thisTrialN'
p3604
I1
sS'.thisN'
p3605
I451
sS'.thisIndex'
p3606
I2
sg15
(lp3607
S'd'
asg17
S'Y'
sg14
I10
sa(dp3608
g16
(lp3609
S'd'
asg18
S'N'
sS'.thisRepN'
p3610
I30
sg20
S'Y'
sg32
g33
sS'.thisTrialN'
p3611
I2
sS'.thisN'
p3612
I452
sS'.thisIndex'
p3613
I3
sg15
(lp3614
S'd'
asg30
g31
sg17
S'Y'
sg14
I10
sg19
Nsg95
I3
sa(dp3615
g16
(lp3616
S'k'
asg18
S'N'
sS'.thisRepN'
p3617
I30
sg20
S'Y'
sg32
g33
sS'.thisTrialN'
p3618
I3
sS'.thisN'
p3619
I453
sS'.thisIndex'
p3620
I2
sg15
(lp3621
S'k'
asg30
g31
sg17
S'Y'
sg14
I10
sg19
Nsg95
I2
sa(dp3622
g16
(lp3623
S'k'
asg18
S'N'
sS'.thisRepN'
p3624
I30
sg20
S'Y'
sg32
g33
sS'.thisTrialN'
p3625
I4
sS'.thisN'
p3626
I454
sS'.thisIndex'
p3627
I8
sg15
(lp3628
S'k'
asg30
g31
sg17
S'Y'
sg14
I10
sg19
Nsg95
I8
sa(dp3629
g16
(lp3630
S'k'
asg18
S'N'
sS'.thisRepN'
p3631
I30
sg20
S'Y'
sg32
g33
sS'.thisTrialN'
p3632
I5
sS'.thisN'
p3633
I455
sS'.thisIndex'
p3634
I3
sg15
(lp3635
S'k'
asg30
g31
sg17
S'Y'
sg14
I10
sg19
Nsg95
I3
sa(dp3636
g16
(lp3637
S'k'
asg18
S'Y'
sS'.thisRepN'
p3638
I30
sg20
S'Y'
sg32
g33
sS'.thisTrialN'
p3639
I6
sS'.thisN'
p3640
I456
sS'.thisIndex'
p3641
I10
sg15
(lp3642
S'k'
asg30
g31
sg17
S'Y'
sg14
I10
sg19
(lp3643
S'space'
p3644
asg95
I10
sa(dp3645
g16
(lp3646
S'd'
asg18
S'Y'
sS'.thisRepN'
p3647
I30
sg20
S'Y'
sg32
g33
sS'.thisTrialN'
p3648
I7
sS'.thisN'
p3649
I457
sS'.thisIndex'
p3650
I10
sg15
(lp3651
S'd'
asg30
g31
sg17
S'Y'
sg14
I10
sg19
(lp3652
S'space'
p3653
asg95
I10
sa(dp3654
g16
(lp3655
S'k'
asg18
S'N'
sS'.thisRepN'
p3656
I30
sg20
S'N'
sg32
g33
sS'.thisTrialN'
p3657
I8
sS'.thisN'
p3658
I458
sS'.thisIndex'
p3659
I13
sg15
(lp3660
S'k'
asg30
g31
sg17
S'Y'
sg14
I10
sg19
(lp3661
S'd'
asg95
I13
sa(dp3662
g16
(lp3663
S'd'
asg18
S'N'
sS'.thisRepN'
p3664
I30
sg20
S'Y'
sg32
g33
sS'.thisTrialN'
p3665
I9
sS'.thisN'
p3666
I459
sS'.thisIndex'
p3667
I5
sg15
(lp3668
S'd'
asg30
g31
sg17
S'Y'
sg14
I10
sg19
Nsg95
I5
sa(dp3669
g16
(lp3670
S'k'
asg18
S'Y'
sS'.thisRepN'
p3671
I30
sg20
S'Y'
sg32
g33
sS'.thisTrialN'
p3672
I10
sS'.thisN'
p3673
I460
sS'.thisIndex'
p3674
I3
sg15
(lp3675
S'k'
asg30
g31
sg17
S'Y'
sg14
I10
sg19
(lp3676
S'space'
p3677
asg95
I3
sa(dp3678
g16
(lp3679
S'd'
asg18
S'Y'
sS'.thisRepN'
p3680
I30
sg20
S'Y'
sg32
g33
sS'.thisTrialN'
p3681
I11
sS'.thisN'
p3682
I461
sS'.thisIndex'
p3683
I6
sg15
(lp3684
S'd'
asg30
g31
sg17
S'Y'
sg14
I10
sg19
(lp3685
S'space'
p3686
asg95
I6
sa(dp3687
g16
(lp3688
S'd'
asg18
S'Y'
sS'.thisRepN'
p3689
I30
sg20
S'Y'
sg32
g33
sS'.thisTrialN'
p3690
I12
sS'.thisN'
p3691
I462
sS'.thisIndex'
p3692
I0
sg15
(lp3693
S'd'
asg30
g31
sg17
S'Y'
sg14
I10
sg19
(lp3694
S'space'
p3695
asg95
I0
sa(dp3696
g16
(lp3697
S'k'
asg18
S'Y'
sS'.thisRepN'
p3698
I30
sg20
S'N'
sg32
g33
sS'.thisTrialN'
p3699
I13
sS'.thisN'
p3700
I463
sS'.thisIndex'
p3701
I13
sg15
(lp3702
S'k'
asg30
g31
sg17
S'Y'
sg14
I10
sg19
Nsg95
I13
sa(dp3703
g16
(lp3704
S'd'
asg18
S'Y'
sS'.thisRepN'
p3705
I30
sg20
S'Y'
sg32
g33
sS'.thisTrialN'
p3706
I14
sS'.thisN'
p3707
I464
sS'.thisIndex'
p3708
I7
sg15
(lp3709
S'd'
asg30
g31
sg17
S'Y'
sg14
I10
sg19
(lp3710
S'space'
p3711
asg95
I7
sa(dp3712
g16
(lp3713
S'k'
asg18
S'Y'
sS'.thisRepN'
p3714
I31
sg20
S'Y'
sg32
g33
sS'.thisTrialN'
p3715
I0
sS'.thisN'
p3716
I465
sS'.thisIndex'
p3717
I11
sg15
(lp3718
S'k'
asg30
g31
sg17
S'Y'
sg14
I10
sg19
(lp3719
S'space'
p3720
asg95
I11
sa(dp3721
g16
(lp3722
S'd'
asg18
S'N'
sS'.thisRepN'
p3723
I31
sg20
S'Y'
sg32
g33
sS'.thisTrialN'
p3724
I1
sS'.thisN'
p3725
I466
sS'.thisIndex'
p3726
I4
sg15
(lp3727
S'd'
asg30
g31
sg17
S'Y'
sg14
I10
sg19
Nsg95
I4
sa(dp3728
g16
(lp3729
S'k'
asg18
S'Y'
sS'.thisRepN'
p3730
I31
sg20
S'Y'
sg32
g33
sS'.thisTrialN'
p3731
I2
sS'.thisN'
p3732
I467
sS'.thisIndex'
p3733
I11
sg15
(lp3734
S'k'
asg30
g31
sg17
S'Y'
sg14
I10
sg19
(lp3735
S'space'
p3736
asg95
I11
sa(dp3737
g16
(lp3738
S'k'
asg18
S'N'
sS'.thisRepN'
p3739
I31
sg20
S'Y'
sg32
g33
sS'.thisTrialN'
p3740
I3
sS'.thisN'
p3741
I468
sS'.thisIndex'
p3742
I3
sg15
(lp3743
S'k'
asg30
g31
sg17
S'Y'
sg14
I10
sg19
Nsg95
I3
sa(dp3744
g16
(lp3745
S'k'
asg18
S'N'
sS'.thisRepN'
p3746
I31
sg20
S'Y'
sg32
g33
sS'.thisTrialN'
p3747
I4
sS'.thisN'
p3748
I469
sS'.thisIndex'
p3749
I11
sg15
(lp3750
S'k'
asg30
g31
sg17
S'Y'
sg14
I10
sg19
Nsg95
I11
sa(dp3751
g16
(lp3752
S'k'
asg18
S'Y'
sS'.thisRepN'
p3753
I31
sg20
S'Y'
sg32
g33
sS'.thisTrialN'
p3754
I5
sS'.thisN'
p3755
I470
sS'.thisIndex'
p3756
I7
sg15
(lp3757
S'k'
asg30
g31
sg17
S'Y'
sg14
I10
sg19
(lp3758
S'space'
p3759
asg95
I7
sa(dp3760
g16
(lp3761
S'k'
asg18
S'Y'
sS'.thisRepN'
p3762
I31
sg20
S'N'
sg32
g33
sS'.thisTrialN'
p3763
I6
sS'.thisN'
p3764
I471
sS'.thisIndex'
p3765
I14
sg15
(lp3766
S'k'
asg30
g31
sg17
S'Y'
sg14
I10
sg19
(lp3767
S'k'
asg95
I14
sa(dp3768
g16
(lp3769
S'k'
asg18
S'N'
sS'.thisRepN'
p3770
I31
sg20
S'Y'
sg32
g33
sS'.thisTrialN'
p3771
I7
sS'.thisN'
p3772
I472
sS'.thisIndex'
p3773
I14
sg15
(lp3774
S'k'
asg30
g31
sg17
S'Y'
sg14
I10
sg19
Nsg95
I14
sa(dp3775
g16
(lp3776
S'd'
asg18
S'Y'
sS'.thisRepN'
p3777
I31
sg20
S'Y'
sg32
g33
sS'.thisTrialN'
p3778
I8
sS'.thisN'
p3779
I473
sS'.thisIndex'
p3780
I2
sg15
(lp3781
S'd'
asg30
g31
sg17
S'Y'
sg14
I10
sg19
(lp3782
S'space'
p3783
asg95
I2
sa(dp3784
g16
(lp3785
S'k'
asg18
S'N'
sS'.thisRepN'
p3786
I31
sg20
S'Y'
sg32
g33
sS'.thisTrialN'
p3787
I9
sS'.thisN'
p3788
I474
sS'.thisIndex'
p3789
I1
sg15
(lp3790
S'k'
asg30
g31
sg17
S'Y'
sg14
I10
sg19
Nsg95
I1
sa(dp3791
g16
(lp3792
S'd'
asg18
S'Y'
sS'.thisRepN'
p3793
I31
sg20
S'Y'
sg32
g33
sS'.thisTrialN'
p3794
I10
sS'.thisN'
p3795
I475
sS'.thisIndex'
p3796
I3
sg15
(lp3797
S'd'
asg30
g31
sg17
S'Y'
sg14
I10
sg19
(lp3798
S'space'
p3799
asg95
I3
sa(dp3800
g16
(lp3801
S'k'
asg18
S'Y'
sS'.thisRepN'
p3802
I31
sg20
S'Y'
sg32
g33
sS'.thisTrialN'
p3803
I11
sS'.thisN'
p3804
I476
sS'.thisIndex'
p3805
I3
sg15
(lp3806
S'k'
asg30
g31
sg17
S'Y'
sg14
I10
sg19
(lp3807
S'space'
p3808
asg95
I3
sa(dp3809
g16
(lp3810
S'k'
asg18
S'N'
sS'.thisRepN'
p3811
I31
sg20
S'Y'
sg32
g33
sS'.thisTrialN'
p3812
I12
sS'.thisN'
p3813
I477
sS'.thisIndex'
p3814
I12
sg15
(lp3815
S'k'
asg30
g31
sg17
S'Y'
sg14
I10
sg19
Nsg95
I12
sa(dp3816
g16
(lp3817
S'k'
asg18
S'Y'
sS'.thisRepN'
p3818
I31
sg20
S'Y'
sg32
g33
sS'.thisTrialN'
p3819
I13
sS'.thisN'
p3820
I478
sS'.thisIndex'
p3821
I7
sg15
(lp3822
S'k'
asg30
g31
sg17
S'Y'
sg14
I10
sg19
(lp3823
S'space'
p3824
asg95
I7
sa(dp3825
g16
(lp3826
S'k'
asg18
S'Y'
sS'.thisRepN'
p3827
I31
sg20
S'Y'
sg32
g33
sS'.thisTrialN'
p3828
I14
sS'.thisN'
p3829
I479
sS'.thisIndex'
p3830
I7
sg15
(lp3831
S'k'
asg30
g31
sg17
S'Y'
sg14
I10
sg19
(lp3832
S'space'
p3833
asg95
I7
sa(dp3834
g16
(lp3835
S'd'
asg18
S'N'
sS'.thisRepN'
p3836
I32
sg20
S'Y'
sg32
g33
sS'.thisTrialN'
p3837
I0
sS'.thisN'
p3838
I480
sS'.thisIndex'
p3839
I2
sg15
(lp3840
S'd'
asg30
g31
sg17
S'Y'
sg14
I10
sg19
Nsg95
I2
sa(dp3841
g16
(lp3842
S'd'
asg18
S'N'
sS'.thisRepN'
p3843
I32
sg20
S'Y'
sg32
g33
sS'.thisTrialN'
p3844
I1
sS'.thisN'
p3845
I481
sS'.thisIndex'
p3846
I12
sg15
(lp3847
S'd'
asg30
g31
sg17
S'Y'
sg14
I10
sg19
Nsg95
I12
sa(dp3848
g16
(lp3849
S'k'
asg18
S'N'
sS'.thisRepN'
p3850
I32
sg20
S'Y'
sg32
g33
sS'.thisTrialN'
p3851
I2
sS'.thisN'
p3852
I482
sS'.thisIndex'
p3853
I2
sg15
(lp3854
S'k'
asg30
g31
sg17
S'Y'
sg14
I10
sg19
Nsg95
I2
sa(dp3855
g16
(lp3856
S'd'
asg18
S'N'
sS'.thisRepN'
p3857
I32
sg20
S'Y'
sg32
g33
sS'.thisTrialN'
p3858
I3
sS'.thisN'
p3859
I483
sS'.thisIndex'
p3860
I0
sg15
(lp3861
S'd'
asg30
g31
sg17
S'Y'
sg14
I10
sg19
Nsg95
I0
sa(dp3862
g16
(lp3863
S'd'
asg18
S'Y'
sS'.thisRepN'
p3864
I32
sg20
S'Y'
sg32
g33
sS'.thisTrialN'
p3865
I4
sS'.thisN'
p3866
I484
sS'.thisIndex'
p3867
I12
sg15
(lp3868
S'd'
asg30
g31
sg17
S'Y'
sg14
I10
sg19
(lp3869
S'space'
p3870
asg95
I12
sa(dp3871
g16
(lp3872
S'k'
asg18
S'Y'
sS'.thisRepN'
p3873
I32
sg20
S'Y'
sg32
g33
sS'.thisTrialN'
p3874
I5
sS'.thisN'
p3875
I485
sS'.thisIndex'
p3876
I6
sg15
(lp3877
S'k'
asg30
g31
sg17
S'Y'
sg14
I10
sg19
(lp3878
S'space'
p3879
asg95
I6
sa(dp3880
g16
(lp3881
S'd'
asg18
S'Y'
sS'.thisRepN'
p3882
I32
sg20
S'Y'
sg32
g33
sS'.thisTrialN'
p3883
I6
sS'.thisN'
p3884
I486
sS'.thisIndex'
p3885
I8
sg15
(lp3886
S'd'
asg30
g31
sg17
S'Y'
sg14
I10
sg19
(lp3887
S'space'
p3888
asg95
I8
sa(dp3889
g16
(lp3890
S'd'
asg18
S'Y'
sS'.thisRepN'
p3891
I32
sg20
S'Y'
sg32
g33
sS'.thisTrialN'
p3892
I7
sS'.thisN'
p3893
I487
sS'.thisIndex'
p3894
I10
sg15
(lp3895
S'd'
asg30
g31
sg17
S'Y'
sg14
I10
sg19
(lp3896
S'space'
p3897
asg95
I10
sa(dp3898
g16
(lp3899
S'd'
asg18
S'Y'
sS'.thisRepN'
p3900
I32
sg20
S'Y'
sg32
g33
sS'.thisTrialN'
p3901
I8
sS'.thisN'
p3902
I488
sS'.thisIndex'
p3903
I13
sg15
(lp3904
S'k'
asg30
g31
sg17
S'N'
sg14
I10
sg19
(lp3905
S'space'
p3906
asg95
I13
sa(dp3907
g16
(lp3908
S'd'
asg18
S'N'
sS'.thisRepN'
p3909
I32
sg20
S'Y'
sg32
g33
sS'.thisTrialN'
p3910
I9
sS'.thisN'
p3911
I489
sS'.thisIndex'
p3912
I9
sg15
(lp3913
S'd'
asg30
g31
sg17
S'Y'
sg14
I10
sg19
Nsg95
I9
sa(dp3914
g16
(lp3915
S'k'
asg18
S'Y'
sS'.thisRepN'
p3916
I32
sg20
S'Y'
sg32
g33
sS'.thisTrialN'
p3917
I10
sS'.thisN'
p3918
I490
sS'.thisIndex'
p3919
I10
sg15
(lp3920
S'k'
asg30
g31
sg17
S'Y'
sg14
I10
sg19
(lp3921
S'space'
p3922
asg95
I10
sa(dp3923
g16
(lp3924
S'k'
asg18
S'Y'
sS'.thisRepN'
p3925
I32
sg20
S'Y'
sg32
g33
sS'.thisTrialN'
p3926
I11
sS'.thisN'
p3927
I491
sS'.thisIndex'
p3928
I2
sg15
(lp3929
S'k'
asg30
g31
sg17
S'Y'
sg14
I10
sg19
(lp3930
S'space'
p3931
asg95
I2
sa(dp3932
g16
(lp3933
S'k'
asg18
S'Y'
sS'.thisRepN'
p3934
I32
sg20
S'N'
sg32
g33
sS'.thisTrialN'
p3935
I12
sS'.thisN'
p3936
I492
sS'.thisIndex'
p3937
I0
sg15
(lp3938
S'k'
asg30
g31
sg17
S'Y'
sg14
I10
sg19
Nsg95
I0
sa(dp3939
g16
(lp3940
S'd'
asg18
S'Y'
sS'.thisRepN'
p3941
I32
sg20
S'Y'
sg32
g33
sS'.thisTrialN'
p3942
I13
sS'.thisN'
p3943
I493
sS'.thisIndex'
p3944
I7
sg15
(lp3945
S'd'
asg30
g31
sg17
S'Y'
sg14
I10
sg19
(lp3946
S'space'
p3947
asg95
I7
sa(dp3948
g16
(lp3949
S'k'
asg18
S'N'
sS'.thisRepN'
p3950
I32
sg20
S'Y'
sg32
g33
sS'.thisTrialN'
p3951
I14
sS'.thisN'
p3952
I494
sS'.thisIndex'
p3953
I7
sg15
(lp3954
S'k'
asg30
g31
sg17
S'Y'
sg14
I10
sg19
Nsg95
I7
sa(dp3955
g16
(lp3956
S'd'
asg18
S'N'
sS'.thisRepN'
p3957
I33
sg20
S'Y'
sg32
g33
sS'.thisTrialN'
p3958
I0
sS'.thisN'
p3959
I495
sS'.thisIndex'
p3960
I6
sg15
(lp3961
S'd'
asg30
g31
sg17
S'Y'
sg14
I10
sg19
Nsg95
I6
sa(dp3962
g16
(lp3963
S'k'
asg18
S'N'
sS'.thisRepN'
p3964
I33
sg20
S'Y'
sg32
g33
sS'.thisTrialN'
p3965
I1
sS'.thisN'
p3966
I496
sS'.thisIndex'
p3967
I5
sg15
(lp3968
S'k'
asg30
g31
sg17
S'Y'
sg14
I10
sg19
Nsg95
I5
sa(dp3969
g16
(lp3970
S'k'
asg18
S'N'
sS'.thisRepN'
p3971
I33
sg20
S'Y'
sg32
g33
sS'.thisTrialN'
p3972
I2
sS'.thisN'
p3973
I497
sS'.thisIndex'
p3974
I8
sg15
(lp3975
S'k'
asg30
g31
sg17
S'Y'
sg14
I10
sg19
Nsg95
I8
sa(dp3976
g16
(lp3977
S'k'
asg18
S'N'
sS'.thisRepN'
p3978
I33
sg20
S'Y'
sg32
g33
sS'.thisTrialN'
p3979
I3
sS'.thisN'
p3980
I498
sS'.thisIndex'
p3981
I9
sg15
(lp3982
S'k'
asg30
g31
sg17
S'Y'
sg14
I10
sg19
Nsg95
I9
sa(dp3983
g16
(lp3984
S'd'
asg18
S'N'
sg22
I44
sS'.thisN'
p3985
I499
sg20
S'Y'
sg32
g33
sS'.thisTrialN'
p3986
I4
sS'.thisRepN'
p3987
I33
sg21
I49
sS'.thisIndex'
p3988
I5
sg23
I25
sg15
(lp3989
S'd'
asg30
g31
sg17
S'Y'
sg14
I10
sg19
Nsg95
I5
sa(dp3990
g16
(lp3991
S'd'
asS'.thisIndex'
p3992
I10
sS'.thisRepN'
p3993
I33
sg26
S'Y'
sg30
g31
sg32
g33
sS'.thisTrialN'
p3994
I5
sS'.thisN'
p3995
I500
sg25
S'Y'
sg24
S'Y'
sg15
(lp3996
S'd'
asg17
S'N'
sg14
I11
sg95
I10
sa(dp3997
g16
(lp3998
S'k'
asS'.thisIndex'
p3999
I2
sS'.thisRepN'
p4000
I33
sg26
S'Y'
sg30
g31
sg32
g33
sS'.thisTrialN'
p4001
I6
sS'.thisN'
p4002
I501
sg25
S'Y'
sg15
(lp4003
S'd'
asg17
S'Y'
sg14
I11
sg95
I2
sa(dp4004
g16
(lp4005
S'd'
asg18
S'N'
sS'.thisRepN'
p4006
I33
sg26
S'Y'
sg20
S'Y'
sg32
g33
sS'.thisTrialN'
p4007
I7
sS'.thisN'
p4008
I502
sg25
S'Y'
sg15
(lp4009
S'k'
asg30
g31
sg17
S'Y'
sg14
I11
sg19
Nsg95
I4
sS'.thisIndex'
p4010
I4
sa(dp4011
g16
(lp4012
S'k'
asg18
S'N'
sS'.thisRepN'
p4013
I33
sg26
S'Y'
sg20
S'Y'
sg32
g33
sS'.thisTrialN'
p4014
I8
sS'.thisN'
p4015
I503
sg25
S'Y'
sg15
(lp4016
S'd'
asg30
g31
sg17
S'Y'
sg14
I11
sg19
Nsg95
I5
sS'.thisIndex'
p4017
I5
sa(dp4018
g16
(lp4019
S'k'
asg18
S'Y'
sS'.thisRepN'
p4020
I33
sg26
S'Y'
sg20
S'Y'
sg32
g33
sS'.thisTrialN'
p4021
I9
sS'.thisN'
p4022
I504
sg25
S'Y'
sg15
(lp4023
S'd'
asg30
g31
sg17
S'Y'
sg14
I11
sg19
(lp4024
S'space'
p4025
asg95
I1
sS'.thisIndex'
p4026
I1
sa(dp4027
g16
(lp4028
S'd'
asg18
S'Y'
sS'.thisRepN'
p4029
I33
sg26
S'Y'
sg20
S'N'
sg32
g33
sS'.thisTrialN'
p4030
I10
sS'.thisN'
p4031
I505
sg25
S'Y'
sg15
(lp4032
S'k'
asg30
g31
sg17
S'Y'
sg14
I11
sg19
Nsg95
I9
sS'.thisIndex'
p4033
I9
sa(dp4034
g16
(lp4035
S'k'
asg18
S'Y'
sS'.thisRepN'
p4036
I33
sg26
S'Y'
sg20
S'Y'
sg32
g33
sS'.thisTrialN'
p4037
I11
sS'.thisN'
p4038
I506
sg25
S'Y'
sg15
(lp4039
S'd'
asg30
g31
sg17
S'Y'
sg14
I11
sg19
(lp4040
S'space'
p4041
asg95
I8
sS'.thisIndex'
p4042
I8
sa(dp4043
g16
(lp4044
S'd'
asg18
S'Y'
sS'.thisRepN'
p4045
I33
sg26
S'Y'
sg20
S'Y'
sg32
g33
sS'.thisTrialN'
p4046
I12
sS'.thisN'
p4047
I507
sg25
S'Y'
sg15
(lp4048
S'k'
asg30
g31
sg17
S'Y'
sg14
I11
sg19
(lp4049
S'space'
p4050
asg95
I7
sS'.thisIndex'
p4051
I7
sa(dp4052
g16
(lp4053
S'd'
asg18
S'Y'
sS'.thisRepN'
p4054
I33
sg26
S'Y'
sg20
S'Y'
sg32
g33
sS'.thisTrialN'
p4055
I13
sS'.thisN'
p4056
I508
sg25
S'Y'
sg15
(lp4057
S'd'
asg30
g31
sg17
S'N'
sg14
I11
sg19
(lp4058
S'space'
p4059
asg95
I3
sS'.thisIndex'
p4060
I3
sa(dp4061
g16
(lp4062
S'd'
asg18
S'Y'
sS'.thisRepN'
p4063
I33
sg26
S'Y'
sg20
S'Y'
sg32
g33
sS'.thisTrialN'
p4064
I14
sS'.thisN'
p4065
I509
sg25
S'Y'
sg15
(lp4066
S'k'
asg30
g31
sg17
S'Y'
sg14
I11
sg19
(lp4067
S'space'
p4068
asg95
I13
sS'.thisIndex'
p4069
I13
sa(dp4070
g16
(lp4071
S'd'
asg18
S'Y'
sS'.thisRepN'
p4072
I34
sg26
S'Y'
sg20
S'Y'
sg32
g33
sS'.thisTrialN'
p4073
I0
sS'.thisN'
p4074
I510
sg25
S'Y'
sg15
(lp4075
S'k'
asg30
g31
sg17
S'Y'
sg14
I11
sg19
(lp4076
S'space'
p4077
asg95
I1
sS'.thisIndex'
p4078
I1
sa(dp4079
g16
(lp4080
S'k'
asg18
S'N'
sS'.thisRepN'
p4081
I34
sg26
S'Y'
sg20
S'Y'
sg32
g33
sS'.thisTrialN'
p4082
I1
sS'.thisN'
p4083
I511
sg25
S'Y'
sg15
(lp4084
S'd'
asg30
g31
sg17
S'Y'
sg14
I11
sg19
Nsg95
I2
sS'.thisIndex'
p4085
I2
sa(dp4086
g18
S'N'
sS'.thisRepN'
p4087
I34
sg26
S'Y'
sg20
S'Y'
sg32
g33
sS'.thisTrialN'
p4088
I2
sS'.thisN'
p4089
I512
sg25
S'Y'
sg15
Nsg30
g31
sg17
g221
sg14
I11
sg19
Nsg95
I14
sS'.thisIndex'
p4090
I14
sa(dp4091
g16
(lp4092
S'd'
asg18
S'Y'
sS'.thisRepN'
p4093
I34
sg26
S'Y'
sg20
S'Y'
sg32
g33
sS'.thisTrialN'
p4094
I3
sS'.thisN'
p4095
I513
sg25
S'Y'
sg15
(lp4096
S'k'
asg30
g31
sg17
S'Y'
sg14
I11
sg19
(lp4097
S'space'
p4098
asg95
I9
sS'.thisIndex'
p4099
I9
sa(dp4100
g16
(lp4101
S'k'
asg18
S'Y'
sS'.thisRepN'
p4102
I34
sg26
S'Y'
sg20
S'Y'
sg32
g33
sS'.thisTrialN'
p4103
I4
sS'.thisN'
p4104
I514
sg25
S'Y'
sg15
(lp4105
S'd'
asg30
g31
sg17
S'Y'
sg14
I11
sg19
(lp4106
S'space'
p4107
asg95
I5
sS'.thisIndex'
p4108
I5
sa(dp4109
g16
(lp4110
S'd'
asg18
S'N'
sS'.thisRepN'
p4111
I34
sg26
S'Y'
sg20
S'Y'
sg32
g33
sS'.thisTrialN'
p4112
I5
sS'.thisN'
p4113
I515
sg25
S'Y'
sg15
(lp4114
S'k'
asg30
g31
sg17
S'Y'
sg14
I11
sg19
Nsg95
I13
sS'.thisIndex'
p4115
I13
sa(dp4116
g16
(lp4117
S'd'
asg18
S'Y'
sS'.thisRepN'
p4118
I34
sg26
S'Y'
sg20
S'Y'
sg32
g33
sS'.thisTrialN'
p4119
I6
sS'.thisN'
p4120
I516
sg25
S'Y'
sg15
(lp4121
S'k'
asg30
g31
sg17
S'Y'
sg14
I11
sg19
(lp4122
S'space'
p4123
asg95
I11
sS'.thisIndex'
p4124
I11
sa(dp4125
g16
(lp4126
S'k'
asg18
S'Y'
sS'.thisRepN'
p4127
I34
sg26
S'Y'
sg20
S'Y'
sg32
g33
sS'.thisTrialN'
p4128
I7
sS'.thisN'
p4129
I517
sg25
S'Y'
sg15
(lp4130
S'd'
asg30
g31
sg17
S'Y'
sg14
I11
sg19
(lp4131
S'space'
p4132
asg95
I7
sS'.thisIndex'
p4133
I7
sa(dp4134
g16
(lp4135
S'd'
asg18
S'Y'
sS'.thisRepN'
p4136
I34
sg26
S'Y'
sg20
S'Y'
sg32
g33
sS'.thisTrialN'
p4137
I8
sS'.thisN'
p4138
I518
sg25
S'Y'
sg15
(lp4139
S'k'
asg30
g31
sg17
S'Y'
sg14
I11
sg19
(lp4140
S'space'
p4141
asg95
I5
sS'.thisIndex'
p4142
I5
sa(dp4143
g16
(lp4144
S'k'
asg18
S'Y'
sS'.thisRepN'
p4145
I34
sg26
S'Y'
sg20
S'Y'
sg32
g33
sS'.thisTrialN'
p4146
I9
sS'.thisN'
p4147
I519
sg25
S'Y'
sg15
(lp4148
S'd'
asg30
g31
sg17
S'Y'
sg14
I11
sg19
(lp4149
S'space'
p4150
asg95
I10
sS'.thisIndex'
p4151
I10
sa(dp4152
g16
(lp4153
S'k'
asg18
S'Y'
sS'.thisRepN'
p4154
I34
sg26
S'Y'
sg20
S'Y'
sg32
g33
sS'.thisTrialN'
p4155
I10
sS'.thisN'
p4156
I520
sg25
S'Y'
sg15
(lp4157
S'd'
asg30
g31
sg17
S'Y'
sg14
I11
sg19
(lp4158
S'space'
p4159
asg95
I10
sS'.thisIndex'
p4160
I10
sa(dp4161
g18
S'Y'
sS'.thisRepN'
p4162
I34
sg26
S'Y'
sg20
S'N'
sg32
g33
sS'.thisTrialN'
p4163
I11
sS'.thisN'
p4164
I521
sg25
S'Y'
sg15
Nsg30
g31
sg17
g221
sg14
I11
sg19
(lp4165
S'k'
asg95
I12
sS'.thisIndex'
p4166
I12
sa(dp4167
g16
(lp4168
S'd'
asg18
S'Y'
sS'.thisRepN'
p4169
I34
sg26
S'Y'
sg20
S'Y'
sg32
g33
sS'.thisTrialN'
p4170
I12
sS'.thisN'
p4171
I522
sg25
S'Y'
sg15
(lp4172
S'k'
asg30
g31
sg17
S'Y'
sg14
I11
sg19
(lp4173
S'space'
p4174
asg95
I6
sS'.thisIndex'
p4175
I6
sa(dp4176
g16
(lp4177
S'd'
asg18
S'Y'
sS'.thisRepN'
p4178
I34
sg26
S'Y'
sg20
S'Y'
sg32
g33
sS'.thisTrialN'
p4179
I13
sS'.thisN'
p4180
I523
sg25
S'Y'
sg15
(lp4181
S'k'
asg30
g31
sg17
S'Y'
sg14
I11
sg19
(lp4182
S'space'
p4183
asg95
I5
sS'.thisIndex'
p4184
I5
sa(dp4185
g16
(lp4186
S'k'
asg18
S'Y'
sS'.thisRepN'
p4187
I34
sg26
S'Y'
sg20
S'Y'
sg32
g33
sS'.thisTrialN'
p4188
I14
sS'.thisN'
p4189
I524
sg25
S'Y'
sg15
(lp4190
S'd'
asg30
g31
sg17
S'Y'
sg14
I11
sg19
(lp4191
S'space'
p4192
asg95
I0
sS'.thisIndex'
p4193
I0
sa(dp4194
g16
(lp4195
S'k'
asg18
S'Y'
sS'.thisRepN'
p4196
I35
sg26
S'Y'
sg20
S'Y'
sg32
g33
sS'.thisTrialN'
p4197
I0
sS'.thisN'
p4198
I525
sg25
S'Y'
sg15
(lp4199
S'd'
asg30
g31
sg17
S'Y'
sg14
I11
sg19
(lp4200
S'space'
p4201
asg95
I0
sS'.thisIndex'
p4202
I0
sa(dp4203
g16
(lp4204
S'k'
asg18
S'N'
sS'.thisRepN'
p4205
I35
sg26
S'Y'
sg20
S'Y'
sg32
g33
sS'.thisTrialN'
p4206
I1
sS'.thisN'
p4207
I526
sg25
S'Y'
sg15
(lp4208
S'd'
asg30
g31
sg17
S'Y'
sg14
I11
sg19
Nsg95
I2
sS'.thisIndex'
p4209
I2
sa(dp4210
g16
(lp4211
S'k'
asg18
S'N'
sS'.thisRepN'
p4212
I35
sg26
S'Y'
sg20
S'Y'
sg32
g33
sS'.thisTrialN'
p4213
I2
sS'.thisN'
p4214
I527
sg25
S'Y'
sg15
(lp4215
S'd'
asg30
g31
sg17
S'Y'
sg14
I11
sg19
Nsg95
I5
sS'.thisIndex'
p4216
I5
sa(dp4217
g16
(lp4218
S'k'
asg18
S'N'
sS'.thisRepN'
p4219
I35
sg26
S'Y'
sg20
S'Y'
sg32
g33
sS'.thisTrialN'
p4220
I3
sS'.thisN'
p4221
I528
sg25
S'Y'
sg15
(lp4222
S'k'
asg30
g31
sg17
S'N'
sg14
I11
sg19
Nsg95
I7
sS'.thisIndex'
p4223
I7
sa(dp4224
g16
(lp4225
S'd'
asg18
S'Y'
sS'.thisRepN'
p4226
I35
sg26
S'Y'
sg20
S'Y'
sg32
g33
sS'.thisTrialN'
p4227
I4
sS'.thisN'
p4228
I529
sg25
S'Y'
sg15
(lp4229
S'k'
asg30
g31
sg17
S'Y'
sg14
I11
sg19
(lp4230
S'space'
p4231
asg95
I5
sS'.thisIndex'
p4232
I5
sa(dp4233
g16
(lp4234
S'k'
asg18
S'N'
sS'.thisRepN'
p4235
I35
sg26
S'Y'
sg20
S'Y'
sg32
g33
sS'.thisTrialN'
p4236
I5
sS'.thisN'
p4237
I530
sg25
S'Y'
sg15
(lp4238
S'd'
asg30
g31
sg17
S'Y'
sg14
I11
sg19
Nsg95
I3
sS'.thisIndex'
p4239
I3
sa(dp4240
g16
(lp4241
S'd'
asg18
S'N'
sS'.thisRepN'
p4242
I35
sg26
S'Y'
sg20
S'Y'
sg32
g33
sS'.thisTrialN'
p4243
I6
sS'.thisN'
p4244
I531
sg25
S'Y'
sg15
(lp4245
S'k'
asg30
g31
sg17
S'Y'
sg14
I11
sg19
Nsg95
I9
sS'.thisIndex'
p4246
I9
sa(dp4247
g16
(lp4248
S'd'
asg18
S'N'
sS'.thisRepN'
p4249
I35
sg26
S'Y'
sg20
S'N'
sg32
g33
sS'.thisTrialN'
p4250
I7
sS'.thisN'
p4251
I532
sg25
S'Y'
sg15
(lp4252
S'k'
asg30
g31
sg17
S'Y'
sg14
I11
sg19
(lp4253
S'space'
p4254
asg95
I12
sS'.thisIndex'
p4255
I12
sa(dp4256
g16
(lp4257
S'd'
asg18
S'Y'
sS'.thisRepN'
p4258
I35
sg26
S'Y'
sg20
S'Y'
sg32
g33
sS'.thisTrialN'
p4259
I8
sS'.thisN'
p4260
I533
sg25
S'Y'
sg15
(lp4261
S'k'
asg30
g31
sg17
S'Y'
sg14
I11
sg19
(lp4262
S'space'
p4263
asg95
I4
sS'.thisIndex'
p4264
I4
sa(dp4265
g16
(lp4266
S'k'
asg18
S'Y'
sS'.thisRepN'
p4267
I35
sg26
S'Y'
sg20
S'Y'
sg32
g33
sS'.thisTrialN'
p4268
I9
sS'.thisN'
p4269
I534
sg25
S'Y'
sg15
(lp4270
S'd'
asg30
g31
sg17
S'Y'
sg14
I11
sg19
(lp4271
S'space'
p4272
asg95
I10
sS'.thisIndex'
p4273
I10
sa(dp4274
g16
(lp4275
S'd'
asg18
S'Y'
sS'.thisRepN'
p4276
I35
sg26
S'Y'
sg20
S'Y'
sg32
g33
sS'.thisTrialN'
p4277
I10
sS'.thisN'
p4278
I535
sg25
S'Y'
sg15
(lp4279
S'k'
asg30
g31
sg17
S'Y'
sg14
I11
sg19
(lp4280
S'space'
p4281
asg95
I2
sS'.thisIndex'
p4282
I2
sa(dp4283
g16
(lp4284
S'k'
asg18
S'Y'
sS'.thisRepN'
p4285
I35
sg26
S'Y'
sg20
S'Y'
sg32
g33
sS'.thisTrialN'
p4286
I11
sS'.thisN'
p4287
I536
sg25
S'Y'
sg15
(lp4288
S'd'
asg30
g31
sg17
S'Y'
sg14
I11
sg19
(lp4289
S'space'
p4290
asg95
I14
sS'.thisIndex'
p4291
I14
sa(dp4292
g16
(lp4293
S'd'
asg18
S'Y'
sS'.thisRepN'
p4294
I35
sg26
S'Y'
sg20
S'N'
sg32
g33
sS'.thisTrialN'
p4295
I12
sS'.thisN'
p4296
I537
sg25
S'Y'
sg15
(lp4297
S'k'
asg30
g31
sg17
S'Y'
sg14
I11
sg19
Nsg95
I6
sS'.thisIndex'
p4298
I6
sa(dp4299
g16
(lp4300
S'k'
asg18
S'N'
sS'.thisRepN'
p4301
I35
sg26
S'Y'
sg20
S'N'
sg32
g33
sS'.thisTrialN'
p4302
I13
sS'.thisN'
p4303
I538
sg25
S'Y'
sg15
(lp4304
S'k'
asg30
g31
sg17
S'N'
sg14
I11
sg19
(lp4305
S'space'
p4306
asg95
I3
sS'.thisIndex'
p4307
I3
sa(dp4308
g16
(lp4309
S'k'
asg18
S'N'
sS'.thisRepN'
p4310
I35
sg26
S'Y'
sg20
S'Y'
sg32
g33
sS'.thisTrialN'
p4311
I14
sS'.thisN'
p4312
I539
sg25
S'Y'
sg15
(lp4313
S'd'
asg30
g31
sg17
S'Y'
sg14
I11
sg19
Nsg95
I6
sS'.thisIndex'
p4314
I6
sa(dp4315
g16
(lp4316
S'k'
asg18
S'N'
sS'.thisRepN'
p4317
I36
sg26
S'Y'
sg20
S'Y'
sg32
g33
sS'.thisTrialN'
p4318
I0
sS'.thisN'
p4319
I540
sg25
S'Y'
sg15
(lp4320
S'd'
asg30
g31
sg17
S'Y'
sg14
I11
sg19
Nsg95
I13
sS'.thisIndex'
p4321
I13
sa(dp4322
g18
S'N'
sS'.thisRepN'
p4323
I36
sg26
S'Y'
sg20
S'N'
sg32
g33
sS'.thisTrialN'
p4324
I1
sS'.thisN'
p4325
I541
sg25
S'Y'
sg15
Nsg30
g31
sg17
g221
sg14
I11
sg19
(lp4326
S'space'
p4327
asg95
I8
sS'.thisIndex'
p4328
I8
sa(dp4329
g16
(lp4330
S'k'
asg18
S'N'
sS'.thisRepN'
p4331
I36
sg26
S'Y'
sg20
S'Y'
sg32
g33
sS'.thisTrialN'
p4332
I2
sS'.thisN'
p4333
I542
sg25
S'Y'
sg15
(lp4334
S'd'
asg30
g31
sg17
S'Y'
sg14
I11
sg19
Nsg95
I11
sS'.thisIndex'
p4335
I11
sa(dp4336
g16
(lp4337
S'd'
asg18
S'N'
sS'.thisRepN'
p4338
I36
sg26
S'Y'
sg20
S'Y'
sg32
g33
sS'.thisTrialN'
p4339
I3
sS'.thisN'
p4340
I543
sg25
S'Y'
sg15
(lp4341
S'k'
asg30
g31
sg17
S'Y'
sg14
I11
sg19
Nsg95
I12
sS'.thisIndex'
p4342
I12
sa(dp4343
g16
(lp4344
S'k'
asg18
S'N'
sS'.thisRepN'
p4345
I36
sg26
S'Y'
sg20
S'Y'
sg32
g33
sS'.thisTrialN'
p4346
I4
sS'.thisN'
p4347
I544
sg25
S'Y'
sg15
(lp4348
S'd'
asg30
g31
sg17
S'Y'
sg14
I11
sg19
Nsg95
I7
sS'.thisIndex'
p4349
I7
sa(dp4350
g16
(lp4351
S'k'
asg18
S'N'
sS'.thisRepN'
p4352
I36
sg26
S'Y'
sg20
S'Y'
sg32
g33
sS'.thisTrialN'
p4353
I5
sS'.thisN'
p4354
I545
sg25
S'Y'
sg15
(lp4355
S'd'
asg30
g31
sg17
S'Y'
sg14
I11
sg19
Nsg95
I4
sS'.thisIndex'
p4356
I4
sa(dp4357
g16
(lp4358
S'd'
asg18
S'N'
sS'.thisRepN'
p4359
I36
sg26
S'Y'
sg20
S'Y'
sg32
g33
sS'.thisTrialN'
p4360
I6
sS'.thisN'
p4361
I546
sg25
S'Y'
sg15
(lp4362
S'k'
asg30
g31
sg17
S'Y'
sg14
I11
sg19
Nsg95
I2
sS'.thisIndex'
p4363
I2
sa(dp4364
g16
(lp4365
S'k'
asg18
S'N'
sS'.thisRepN'
p4366
I36
sg26
S'Y'
sg20
S'Y'
sg32
g33
sS'.thisTrialN'
p4367
I7
sS'.thisN'
p4368
I547
sg25
S'Y'
sg15
(lp4369
S'd'
asg30
g31
sg17
S'Y'
sg14
I11
sg19
Nsg95
I6
sS'.thisIndex'
p4370
I6
sa(dp4371
g16
(lp4372
S'd'
asg18
S'N'
sS'.thisRepN'
p4373
I36
sg26
S'Y'
sg20
S'Y'
sg32
g33
sS'.thisTrialN'
p4374
I8
sS'.thisN'
p4375
I548
sg25
S'Y'
sg15
(lp4376
S'k'
asg30
g31
sg17
S'Y'
sg14
I11
sg19
Nsg95
I14
sS'.thisIndex'
p4377
I14
sa(dp4378
g16
(lp4379
S'k'
asg18
S'N'
sg22
I42
sg26
S'Y'
sS'.thisN'
p4380
I549
sg20
S'Y'
sg32
g33
sS'.thisTrialN'
p4381
I9
sS'.thisRepN'
p4382
I36
sg21
I43
sg25
S'Y'
sg23
I25
sg15
(lp4383
S'd'
asg30
g31
sg17
S'Y'
sg14
I11
sg19
Nsg95
I6
sS'.thisIndex'
p4384
I6
sa(dp4385
g16
(lp4386
S'd'
asS'.thisIndex'
p4387
I12
sS'.thisRepN'
p4388
I36
sg26
S'Y'
sg30
g31
sg32
g33
sS'.thisTrialN'
p4389
I10
sS'.thisN'
p4390
I550
sg25
S'Y'
sg15
(lp4391
S'd'
asg17
S'N'
sg14
I12
sg95
I12
sa(dp4392
g16
(lp4393
S'd'
asS'.thisIndex'
p4394
I6
sS'.thisRepN'
p4395
I36
sg26
S'Y'
sg30
g31
sg32
g33
sS'.thisTrialN'
p4396
I11
sS'.thisN'
p4397
I551
sg25
S'Y'
sg15
(lp4398
S'k'
asg17
S'Y'
sg14
I12
sg95
I6
sa(dp4399
g16
(lp4400
S'd'
asg18
S'Y'
sS'.thisRepN'
p4401
I36
sg26
S'Y'
sg20
S'Y'
sg32
g33
sS'.thisTrialN'
p4402
I12
sS'.thisN'
p4403
I552
sg25
S'Y'
sg15
(lp4404
S'k'
asg30
g31
sg17
S'Y'
sg14
I12
sg19
(lp4405
S'space'
p4406
asg95
I8
sS'.thisIndex'
p4407
I8
sa(dp4408
g16
(lp4409
S'd'
asg18
S'N'
sS'.thisRepN'
p4410
I36
sg26
S'Y'
sg20
S'Y'
sg32
g33
sS'.thisTrialN'
p4411
I13
sS'.thisN'
p4412
I553
sg25
S'Y'
sg15
(lp4413
S'k'
asg30
g31
sg17
S'Y'
sg14
I12
sg19
Nsg95
I6
sS'.thisIndex'
p4414
I6
sa(dp4415
g16
(lp4416
S'k'
asg18
S'Y'
sS'.thisRepN'
p4417
I36
sg26
S'Y'
sg20
S'Y'
sg32
g33
sS'.thisTrialN'
p4418
I14
sS'.thisN'
p4419
I554
sg25
S'Y'
sg15
(lp4420
S'd'
asg30
g31
sg17
S'Y'
sg14
I12
sg19
(lp4421
S'space'
p4422
asg95
I8
sS'.thisIndex'
p4423
I8
sa(dp4424
g16
(lp4425
S'd'
asg18
S'N'
sS'.thisRepN'
p4426
I37
sg26
S'Y'
sg20
S'Y'
sg32
g33
sS'.thisTrialN'
p4427
I0
sS'.thisN'
p4428
I555
sg25
S'Y'
sg15
(lp4429
S'k'
asg30
g31
sg17
S'Y'
sg14
I12
sg19
Nsg95
I13
sS'.thisIndex'
p4430
I13
sa(dp4431
g16
(lp4432
S'd'
asg18
S'Y'
sS'.thisRepN'
p4433
I37
sg26
S'Y'
sg20
S'Y'
sg32
g33
sS'.thisTrialN'
p4434
I1
sS'.thisN'
p4435
I556
sg25
S'Y'
sg15
(lp4436
S'k'
asg30
g31
sg17
S'Y'
sg14
I12
sg19
(lp4437
S'space'
p4438
asg95
I0
sS'.thisIndex'
p4439
I0
sa(dp4440
g16
(lp4441
S'd'
asg18
S'N'
sS'.thisRepN'
p4442
I37
sg26
S'Y'
sg20
S'Y'
sg32
g33
sS'.thisTrialN'
p4443
I2
sS'.thisN'
p4444
I557
sg25
S'Y'
sg15
(lp4445
S'k'
asg30
g31
sg17
S'Y'
sg14
I12
sg19
Nsg95
I14
sS'.thisIndex'
p4446
I14
sa(dp4447
g16
(lp4448
S'd'
asg18
S'Y'
sS'.thisRepN'
p4449
I37
sg26
S'Y'
sg20
S'Y'
sg32
g33
sS'.thisTrialN'
p4450
I3
sS'.thisN'
p4451
I558
sg25
S'Y'
sg15
(lp4452
S'k'
asg30
g31
sg17
S'Y'
sg14
I12
sg19
(lp4453
S'space'
p4454
asg95
I4
sS'.thisIndex'
p4455
I4
sa(dp4456
g16
(lp4457
S'd'
asg18
S'Y'
sS'.thisRepN'
p4458
I37
sg26
S'Y'
sg20
S'Y'
sg32
g33
sS'.thisTrialN'
p4459
I4
sS'.thisN'
p4460
I559
sg25
S'Y'
sg15
(lp4461
S'k'
asg30
g31
sg17
S'Y'
sg14
I12
sg19
(lp4462
S'space'
p4463
asg95
I4
sS'.thisIndex'
p4464
I4
sa(dp4465
g16
(lp4466
S'd'
asg18
S'Y'
sS'.thisRepN'
p4467
I37
sg26
S'Y'
sg20
S'Y'
sg32
g33
sS'.thisTrialN'
p4468
I5
sS'.thisN'
p4469
I560
sg25
S'Y'
sg15
(lp4470
S'k'
asg30
g31
sg17
S'Y'
sg14
I12
sg19
(lp4471
S'space'
p4472
asg95
I7
sS'.thisIndex'
p4473
I7
sa(dp4474
g16
(lp4475
S'd'
asg18
S'Y'
sS'.thisRepN'
p4476
I37
sg26
S'Y'
sg20
S'Y'
sg32
g33
sS'.thisTrialN'
p4477
I6
sS'.thisN'
p4478
I561
sg25
S'Y'
sg15
(lp4479
S'k'
asg30
g31
sg17
S'Y'
sg14
I12
sg19
(lp4480
S'space'
p4481
asg95
I3
sS'.thisIndex'
p4482
I3
sa(dp4483
g16
(lp4484
S'k'
asg18
S'Y'
sS'.thisRepN'
p4485
I37
sg26
S'Y'
sg20
S'Y'
sg32
g33
sS'.thisTrialN'
p4486
I7
sS'.thisN'
p4487
I562
sg25
S'Y'
sg15
(lp4488
S'd'
asg30
g31
sg17
S'Y'
sg14
I12
sg19
(lp4489
S'space'
p4490
asg95
I0
sS'.thisIndex'
p4491
I0
sa(dp4492
g16
(lp4493
S'k'
asg18
S'Y'
sS'.thisRepN'
p4494
I37
sg26
S'Y'
sg20
S'Y'
sg32
g33
sS'.thisTrialN'
p4495
I8
sS'.thisN'
p4496
I563
sg25
S'Y'
sg15
(lp4497
S'd'
asg30
g31
sg17
S'Y'
sg14
I12
sg19
(lp4498
S'space'
p4499
asg95
I12
sS'.thisIndex'
p4500
I12
sa(dp4501
g16
(lp4502
S'd'
asg18
S'Y'
sS'.thisRepN'
p4503
I37
sg26
S'Y'
sg20
S'Y'
sg32
g33
sS'.thisTrialN'
p4504
I9
sS'.thisN'
p4505
I564
sg25
S'Y'
sg15
(lp4506
S'k'
asg30
g31
sg17
S'Y'
sg14
I12
sg19
(lp4507
S'space'
p4508
asg95
I5
sS'.thisIndex'
p4509
I5
sa(dp4510
g16
(lp4511
S'd'
asg18
S'Y'
sS'.thisRepN'
p4512
I37
sg26
S'Y'
sg20
S'Y'
sg32
g33
sS'.thisTrialN'
p4513
I10
sS'.thisN'
p4514
I565
sg25
S'Y'
sg15
(lp4515
S'k'
asg30
g31
sg17
S'Y'
sg14
I12
sg19
(lp4516
S'space'
p4517
asg95
I3
sS'.thisIndex'
p4518
I3
sa(dp4519
g16
(lp4520
S'd'
asg18
S'N'
sS'.thisRepN'
p4521
I37
sg26
S'Y'
sg20
S'Y'
sg32
g33
sS'.thisTrialN'
p4522
I11
sS'.thisN'
p4523
I566
sg25
S'Y'
sg15
(lp4524
S'k'
asg30
g31
sg17
S'Y'
sg14
I12
sg19
Nsg95
I14
sS'.thisIndex'
p4525
I14
sa(dp4526
g16
(lp4527
S'd'
asg18
S'N'
sS'.thisRepN'
p4528
I37
sg26
S'Y'
sg20
S'Y'
sg32
g33
sS'.thisTrialN'
p4529
I12
sS'.thisN'
p4530
I567
sg25
S'Y'
sg15
(lp4531
S'k'
asg30
g31
sg17
S'Y'
sg14
I12
sg19
Nsg95
I13
sS'.thisIndex'
p4532
I13
sa(dp4533
g16
(lp4534
S'd'
asg18
S'Y'
sS'.thisRepN'
p4535
I37
sg26
S'Y'
sg20
S'Y'
sg32
g33
sS'.thisTrialN'
p4536
I13
sS'.thisN'
p4537
I568
sg25
S'Y'
sg15
(lp4538
S'k'
asg30
g31
sg17
S'Y'
sg14
I12
sg19
(lp4539
S'space'
p4540
asg95
I12
sS'.thisIndex'
p4541
I12
sa(dp4542
g16
(lp4543
S'd'
asg18
S'N'
sS'.thisRepN'
p4544
I37
sg26
S'Y'
sg20
S'Y'
sg32
g33
sS'.thisTrialN'
p4545
I14
sS'.thisN'
p4546
I569
sg25
S'Y'
sg15
(lp4547
S'd'
asg30
g31
sg17
S'N'
sg14
I12
sg19
Nsg95
I14
sS'.thisIndex'
p4548
I14
sa(dp4549
g16
(lp4550
S'd'
asg18
S'Y'
sS'.thisRepN'
p4551
I38
sg26
S'Y'
sg20
S'Y'
sg32
g33
sS'.thisTrialN'
p4552
I0
sS'.thisN'
p4553
I570
sg25
S'Y'
sg15
(lp4554
S'k'
asg30
g31
sg17
S'Y'
sg14
I12
sg19
(lp4555
S'space'
p4556
asg95
I4
sS'.thisIndex'
p4557
I4
sa(dp4558
g16
(lp4559
S'k'
asg18
S'Y'
sS'.thisRepN'
p4560
I38
sg26
S'Y'
sg20
S'Y'
sg32
g33
sS'.thisTrialN'
p4561
I1
sS'.thisN'
p4562
I571
sg25
S'Y'
sg15
(lp4563
S'd'
asg30
g31
sg17
S'Y'
sg14
I12
sg19
(lp4564
S'space'
p4565
asg95
I4
sS'.thisIndex'
p4566
I4
sa(dp4567
g16
(lp4568
S'k'
asg18
S'N'
sS'.thisRepN'
p4569
I38
sg26
S'Y'
sg20
S'Y'
sg32
g33
sS'.thisTrialN'
p4570
I2
sS'.thisN'
p4571
I572
sg25
S'Y'
sg15
(lp4572
S'd'
asg30
g31
sg17
S'Y'
sg14
I12
sg19
Nsg95
I2
sS'.thisIndex'
p4573
I2
sa(dp4574
g16
(lp4575
S'k'
asg18
S'N'
sS'.thisRepN'
p4576
I38
sg26
S'Y'
sg20
S'Y'
sg32
g33
sS'.thisTrialN'
p4577
I3
sS'.thisN'
p4578
I573
sg25
S'Y'
sg15
(lp4579
S'd'
asg30
g31
sg17
S'Y'
sg14
I12
sg19
Nsg95
I11
sS'.thisIndex'
p4580
I11
sa(dp4581
g16
(lp4582
S'd'
asg18
S'Y'
sS'.thisRepN'
p4583
I38
sg26
S'Y'
sg20
S'Y'
sg32
g33
sS'.thisTrialN'
p4584
I4
sS'.thisN'
p4585
I574
sg25
S'Y'
sg15
(lp4586
S'd'
asg30
g31
sg17
S'N'
sg14
I12
sg19
(lp4587
S'space'
p4588
asg95
I4
sS'.thisIndex'
p4589
I4
sa(dp4590
g16
(lp4591
S'k'
asg18
S'N'
sS'.thisRepN'
p4592
I38
sg26
S'Y'
sg20
S'Y'
sg32
g33
sS'.thisTrialN'
p4593
I5
sS'.thisN'
p4594
I575
sg25
S'Y'
sg15
(lp4595
S'd'
asg30
g31
sg17
S'Y'
sg14
I12
sg19
Nsg95
I9
sS'.thisIndex'
p4596
I9
sa(dp4597
g16
(lp4598
S'k'
asg18
S'N'
sS'.thisRepN'
p4599
I38
sg26
S'Y'
sg20
S'Y'
sg32
g33
sS'.thisTrialN'
p4600
I6
sS'.thisN'
p4601
I576
sg25
S'Y'
sg15
(lp4602
S'd'
asg30
g31
sg17
S'Y'
sg14
I12
sg19
Nsg95
I11
sS'.thisIndex'
p4603
I11
sa(dp4604
g16
(lp4605
S'k'
asg18
S'Y'
sS'.thisRepN'
p4606
I38
sg26
S'Y'
sg20
S'Y'
sg32
g33
sS'.thisTrialN'
p4607
I7
sS'.thisN'
p4608
I577
sg25
S'Y'
sg15
(lp4609
S'd'
asg30
g31
sg17
S'Y'
sg14
I12
sg19
(lp4610
S'space'
p4611
asg95
I1
sS'.thisIndex'
p4612
I1
sa(dp4613
g16
(lp4614
S'd'
asg18
S'Y'
sS'.thisRepN'
p4615
I38
sg26
S'Y'
sg20
S'N'
sg32
g33
sS'.thisTrialN'
p4616
I8
sS'.thisN'
p4617
I578
sg25
S'Y'
sg15
(lp4618
S'k'
asg30
g31
sg17
S'Y'
sg14
I12
sg19
Nsg95
I0
sS'.thisIndex'
p4619
I0
sa(dp4620
g16
(lp4621
S'k'
asg18
S'Y'
sS'.thisRepN'
p4622
I38
sg26
S'Y'
sg20
S'N'
sg32
g33
sS'.thisTrialN'
p4623
I9
sS'.thisN'
p4624
I579
sg25
S'Y'
sg15
(lp4625
S'k'
asg30
g31
sg17
S'N'
sg14
I12
sg19
Nsg95
I11
sS'.thisIndex'
p4626
I11
sa(dp4627
g16
(lp4628
S'k'
asg18
S'Y'
sS'.thisRepN'
p4629
I38
sg26
S'Y'
sg20
S'Y'
sg32
g33
sS'.thisTrialN'
p4630
I10
sS'.thisN'
p4631
I580
sg25
S'Y'
sg15
(lp4632
S'd'
asg30
g31
sg17
S'Y'
sg14
I12
sg19
(lp4633
S'space'
p4634
asg95
I10
sS'.thisIndex'
p4635
I10
sa(dp4636
g16
(lp4637
S'd'
asg18
S'N'
sS'.thisRepN'
p4638
I38
sg26
S'Y'
sg20
S'Y'
sg32
g33
sS'.thisTrialN'
p4639
I11
sS'.thisN'
p4640
I581
sg25
S'Y'
sg15
(lp4641
S'k'
asg30
g31
sg17
S'Y'
sg14
I12
sg19
Nsg95
I9
sS'.thisIndex'
p4642
I9
sa(dp4643
g16
(lp4644
S'd'
asg18
S'N'
sS'.thisRepN'
p4645
I38
sg26
S'Y'
sg20
S'Y'
sg32
g33
sS'.thisTrialN'
p4646
I12
sS'.thisN'
p4647
I582
sg25
S'Y'
sg15
(lp4648
S'k'
asg30
g31
sg17
S'Y'
sg14
I12
sg19
Nsg95
I7
sS'.thisIndex'
p4649
I7
sa(dp4650
g16
(lp4651
S'd'
asg18
S'N'
sS'.thisRepN'
p4652
I38
sg26
S'Y'
sg20
S'Y'
sg32
g33
sS'.thisTrialN'
p4653
I13
sS'.thisN'
p4654
I583
sg25
S'Y'
sg15
(lp4655
S'k'
asg30
g31
sg17
S'Y'
sg14
I12
sg19
Nsg95
I14
sS'.thisIndex'
p4656
I14
sa(dp4657
g16
(lp4658
S'd'
asg18
S'N'
sS'.thisRepN'
p4659
I38
sg26
S'Y'
sg20
S'Y'
sg32
g33
sS'.thisTrialN'
p4660
I14
sS'.thisN'
p4661
I584
sg25
S'Y'
sg15
(lp4662
S'k'
asg30
g31
sg17
S'Y'
sg14
I12
sg19
Nsg95
I12
sS'.thisIndex'
p4663
I12
sa(dp4664
g16
(lp4665
S'k'
asg18
S'N'
sS'.thisRepN'
p4666
I39
sg26
S'Y'
sg20
S'Y'
sg32
g33
sS'.thisTrialN'
p4667
I0
sS'.thisN'
p4668
I585
sg25
S'Y'
sg15
(lp4669
S'd'
asg30
g31
sg17
S'Y'
sg14
I12
sg19
Nsg95
I5
sS'.thisIndex'
p4670
I5
sa(dp4671
g16
(lp4672
S'd'
asg18
S'Y'
sS'.thisRepN'
p4673
I39
sg26
S'Y'
sg20
S'Y'
sg32
g33
sS'.thisTrialN'
p4674
I1
sS'.thisN'
p4675
I586
sg25
S'Y'
sg15
(lp4676
S'd'
asg30
g31
sg17
S'N'
sg14
I12
sg19
(lp4677
S'space'
p4678
asg95
I2
sS'.thisIndex'
p4679
I2
sa(dp4680
g16
(lp4681
S'k'
asg18
S'N'
sS'.thisRepN'
p4682
I39
sg26
S'Y'
sg20
S'Y'
sg32
g33
sS'.thisTrialN'
p4683
I2
sS'.thisN'
p4684
I587
sg25
S'Y'
sg15
(lp4685
S'd'
asg30
g31
sg17
S'Y'
sg14
I12
sg19
Nsg95
I8
sS'.thisIndex'
p4686
I8
sa(dp4687
g16
(lp4688
S'k'
asg18
S'N'
sS'.thisRepN'
p4689
I39
sg26
S'Y'
sg20
S'N'
sg32
g33
sS'.thisTrialN'
p4690
I3
sS'.thisN'
p4691
I588
sg25
S'Y'
sg15
(lp4692
S'd'
asg30
g31
sg17
S'Y'
sg14
I12
sg19
(lp4693
S'space'
p4694
asg95
I3
sS'.thisIndex'
p4695
I3
sa(dp4696
g16
(lp4697
S'k'
asg18
S'Y'
sS'.thisRepN'
p4698
I39
sg26
S'Y'
sg20
S'Y'
sg32
g33
sS'.thisTrialN'
p4699
I4
sS'.thisN'
p4700
I589
sg25
S'Y'
sg15
(lp4701
S'd'
asg30
g31
sg17
S'Y'
sg14
I12
sg19
(lp4702
S'space'
p4703
asg95
I1
sS'.thisIndex'
p4704
I1
sa(dp4705
g16
(lp4706
S'd'
asg18
S'Y'
sS'.thisRepN'
p4707
I39
sg26
S'Y'
sg20
S'Y'
sg32
g33
sS'.thisTrialN'
p4708
I5
sS'.thisN'
p4709
I590
sg25
S'Y'
sg15
(lp4710
S'k'
asg30
g31
sg17
S'Y'
sg14
I12
sg19
(lp4711
S'space'
p4712
asg95
I9
sS'.thisIndex'
p4713
I9
sa(dp4714
g16
(lp4715
S'k'
asg18
S'Y'
sS'.thisRepN'
p4716
I39
sg26
S'Y'
sg20
S'Y'
sg32
g33
sS'.thisTrialN'
p4717
I6
sS'.thisN'
p4718
I591
sg25
S'Y'
sg15
(lp4719
S'd'
asg30
g31
sg17
S'Y'
sg14
I12
sg19
(lp4720
S'space'
p4721
asg95
I8
sS'.thisIndex'
p4722
I8
sa(dp4723
g16
(lp4724
S'd'
asg18
S'Y'
sS'.thisRepN'
p4725
I39
sg26
S'Y'
sg20
S'Y'
sg32
g33
sS'.thisTrialN'
p4726
I7
sS'.thisN'
p4727
I592
sg25
S'Y'
sg15
(lp4728
S'k'
asg30
g31
sg17
S'Y'
sg14
I12
sg19
(lp4729
S'space'
p4730
asg95
I2
sS'.thisIndex'
p4731
I2
sa(dp4732
g16
(lp4733
S'k'
asg18
S'Y'
sS'.thisRepN'
p4734
I39
sg26
S'Y'
sg20
S'Y'
sg32
g33
sS'.thisTrialN'
p4735
I8
sS'.thisN'
p4736
I593
sg25
S'Y'
sg15
(lp4737
S'd'
asg30
g31
sg17
S'Y'
sg14
I12
sg19
(lp4738
S'space'
p4739
asg95
I4
sS'.thisIndex'
p4740
I4
sa(dp4741
g16
(lp4742
S'k'
asg18
S'N'
sS'.thisRepN'
p4743
I39
sg26
S'Y'
sg20
S'Y'
sg32
g33
sS'.thisTrialN'
p4744
I9
sS'.thisN'
p4745
I594
sg25
S'Y'
sg15
(lp4746
S'd'
asg30
g31
sg17
S'Y'
sg14
I12
sg19
Nsg95
I13
sS'.thisIndex'
p4747
I13
sa(dp4748
g16
(lp4749
S'k'
asg18
S'N'
sS'.thisRepN'
p4750
I39
sg26
S'Y'
sg20
S'Y'
sg32
g33
sS'.thisTrialN'
p4751
I10
sS'.thisN'
p4752
I595
sg25
S'Y'
sg15
(lp4753
S'd'
asg30
g31
sg17
S'Y'
sg14
I12
sg19
Nsg95
I8
sS'.thisIndex'
p4754
I8
sa(dp4755
g16
(lp4756
S'k'
asg18
S'N'
sS'.thisRepN'
p4757
I39
sg26
S'Y'
sg20
S'Y'
sg32
g33
sS'.thisTrialN'
p4758
I11
sS'.thisN'
p4759
I596
sg25
S'Y'
sg15
(lp4760
S'd'
asg30
g31
sg17
S'Y'
sg14
I12
sg19
Nsg95
I12
sS'.thisIndex'
p4761
I12
sa(dp4762
g16
(lp4763
S'd'
asg18
S'N'
sS'.thisRepN'
p4764
I39
sg26
S'Y'
sg20
S'Y'
sg32
g33
sS'.thisTrialN'
p4765
I12
sS'.thisN'
p4766
I597
sg25
S'Y'
sg15
(lp4767
S'k'
asg30
g31
sg17
S'Y'
sg14
I12
sg19
Nsg95
I11
sS'.thisIndex'
p4768
I11
sa(dp4769
g16
(lp4770
S'd'
asg18
S'N'
sS'.thisRepN'
p4771
I39
sg26
S'Y'
sg20
S'Y'
sg32
g33
sS'.thisTrialN'
p4772
I13
sS'.thisN'
p4773
I598
sg25
S'Y'
sg15
(lp4774
S'k'
asg30
g31
sg17
S'Y'
sg14
I12
sg19
Nsg95
I9
sS'.thisIndex'
p4775
I9
sa(dp4776
g16
(lp4777
S'k'
asg18
S'N'
sg22
I45
sg26
S'Y'
sS'.thisN'
p4778
I599
sg20
S'Y'
sg32
g33
sS'.thisTrialN'
p4779
I14
sS'.thisRepN'
p4780
I39
sg21
I44
sg25
S'Y'
sg23
I25
sg15
(lp4781
S'k'
asg30
g31
sg17
S'N'
sg14
I12
sg19
Nsg95
I12
sS'.thisIndex'
p4782
I12
sasS'loops'
p4783
(lp4784
g1
(g36
g3
NtRp4785
(dp4786
g39
Nsg40
(lp4787
sg41
I82924528
sg10
S''
sg6
g42
sg43
I1
sg27
I01
sg28
Nsg44
g1
(g45
g46
(dp4788
g48
g49
(g50
g51
g52
S'b'
tRp4789
(I1
(I600
I1
tg55
I00
S'\x00\x00\x80?\x00\x00\x80?\x00\x00\x80?\x00\x00\x80?\x00\x00\x80?\x00\x00\x80?\x00\x00\x80?\x00\x00\x80?\x00\x00\x80?\x00\x00\x80?\x00\x00\x80?\x00\x00\x80?\x00\x00\x80?\x00\x00\x80?\x00\x00\x80?\x00\x00\x80?\x00\x00\x80?\x00\x00\x80?\x00\x00\x80?\x00\x00\x80?\x00\x00\x80?\x00\x00\x80?\x00\x00\x80?\x00\x00\x80?\x00\x00\x80?\x00\x00\x80?\x00\x00\x80?\x00\x00\x80?\x00\x00\x80?\x00\x00\x80?\x00\x00\x80?\x00\x00\x80?\x00\x00\x80?\x00\x00\x80?\x00\x00\x80?\x00\x00\x80?\x00\x00\x80?\x00\x00\x80?\x00\x00\x80?\x00\x00\x80?\x00\x00\x80?\x00\x00\x80?\x00\x00\x80?\x00\x00\x80?\x00\x00\x80?\x00\x00\x80?\x00\x00\x80?\x00\x00\x80?\x00\x00\x80?\x00\x00\x80?\x00\x00\x80?\x00\x00\x80?\x00\x00\x80?\x00\x00\x80?\x00\x00\x80?\x00\x00\x80?\x00\x00\x80?\x00\x00\x80?\x00\x00\x80?\x00\x00\x80?\x00\x00\x80?\x00\x00\x80?\x00\x00\x80?\x00\x00\x80?\x00\x00\x80?\x00\x00\x80?\x00\x00\x80?\x00\x00\x80?\x00\x00\x80?\x00\x00\x80?\x00\x00\x80?\x00\x00\x80?\x00\x00\x80?\x00\x00\x80?\x00\x00\x80?\x00\x00\x80?\x00\x00\x80?\x00\x00\x80?\x00\x00\x80?\x00\x00\x80?\x00\x00\x80?\x00\x00\x80?\x00\x00\x80?\x00\x00\x80?\x00\x00\x80?\x00\x00\x80?\x00\x00\x80?\x00\x00\x80?\x00\x00\x80?\x00\x00\x80?\x00\x00\x80?\x00\x00\x80?\x00\x00\x80?\x00\x00\x80?\x00\x00\x80?\x00\x00\x80?\x00\x00\x80?\x00\x00\x80?\x00\x00\x80?\x00\x00\x80?\x00\x00\x80?\x00\x00\x80?\x00\x00\x80?\x00\x00\x80?\x00\x00\x80?\x00\x00\x80?\x00\x00\x80?\x00\x00\x80?\x00\x00\x80?\x00\x00\x80?\x00\x00\x80?\x00\x00\x80?\x00\x00\x80?\x00\x00\x80?\x00\x00\x80?\x00\x00\x80?\x00\x00\x80?\x00\x00\x80?\x00\x00\x80?\x00\x00\x80?\x00\x00\x80?\x00\x00\x80?\x00\x00\x80?\x00\x00\x80?\x00\x00\x80?\x00\x00\x80?\x00\x00\x80?\x00\x00\x80?\x00\x00\x80?\x00\x00\x80?\x00\x00\x80?\x00\x00\x80?\x00\x00\x80?\x00\x00\x80?\x00\x00\x80?\x00\x00\x80?\x00\x00\x80?\x00\x00\x80?\x00\x00\x80?\x00\x00\x80?\x00\x00\x80?\x00\x00\x80?\x00\x00\x80?\x00\x00\x80?\x00\x00\x80?\x00\x00\x80?\x00\x00\x80?\x00\x00\x80?\x00\x00\x80?\x00\x00\x80?\x00\x00\x80?\x00\x00\x80?\x00\x00\x80?\x00\x00\x80?\x00\x00\x80?\x00\x00\x80?\x00\x00\x80?\x00\x00\x80?\x00\x00\x80?\x00\x00\x80?\x00\x00\x80?\x00\x00\x80?\x00\x00\x80?\x00\x00\x80?\x00\x00\x80?\x00\x00\x80?\x00\x00\x80?\x00\x00\x80?\x00\x00\x80?\x00\x00\x80?\x00\x00\x80?\x00\x00\x80?\x00\x00\x80?\x00\x00\x80?\x00\x00\x80?\x00\x00\x80?\x00\x00\x80?\x00\x00\x80?\x00\x00\x80?\x00\x00\x80?\x00\x00\x80?\x00\x00\x80?\x00\x00\x80?\x00\x00\x80?\x00\x00\x80?\x00\x00\x80?\x00\x00\x80?\x00\x00\x80?\x00\x00\x80?\x00\x00\x80?\x00\x00\x80?\x00\x00\x80?\x00\x00\x80?\x00\x00\x80?\x00\x00\x80?\x00\x00\x80?\x00\x00\x80?\x00\x00\x80?\x00\x00\x80?\x00\x00\x80?\x00\x00\x80?\x00\x00\x80?\x00\x00\x80?\x00\x00\x80?\x00\x00\x80?\x00\x00\x80?\x00\x00\x80?\x00\x00\x80?\x00\x00\x80?\x00\x00\x80?\x00\x00\x80?\x00\x00\x80?\x00\x00\x80?\x00\x00\x80?\x00\x00\x80?\x00\x00\x80?\x00\x00\x80?\x00\x00\x80?\x00\x00\x80?\x00\x00\x80?\x00\x00\x80?\x00\x00\x80?\x00\x00\x80?\x00\x00\x80?\x00\x00\x80?\x00\x00\x80?\x00\x00\x80?\x00\x00\x80?\x00\x00\x80?\x00\x00\x80?\x00\x00\x80?\x00\x00\x80?\x00\x00\x80?\x00\x00\x80?\x00\x00\x80?\x00\x00\x80?\x00\x00\x80?\x00\x00\x80?\x00\x00\x80?\x00\x00\x80?\x00\x00\x80?\x00\x00\x80?\x00\x00\x80?\x00\x00\x80?\x00\x00\x80?\x00\x00\x80?\x00\x00\x80?\x00\x00\x80?\x00\x00\x80?\x00\x00\x80?\x00\x00\x80?\x00\x00\x80?\x00\x00\x80?\x00\x00\x80?\x00\x00\x80?\x00\x00\x80?\x00\x00\x80?\x00\x00\x80?\x00\x00\x80?\x00\x00\x80?\x00\x00\x80?\x00\x00\x80?\x00\x00\x80?\x00\x00\x80?\x00\x00\x80?\x00\x00\x80?\x00\x00\x80?\x00\x00\x80?\x00\x00\x80?\x00\x00\x80?\x00\x00\x80?\x00\x00\x80?\x00\x00\x80?\x00\x00\x80?\x00\x00\x80?\x00\x00\x80?\x00\x00\x80?\x00\x00\x80?\x00\x00\x80?\x00\x00\x80?\x00\x00\x80?\x00\x00\x80?\x00\x00\x80?\x00\x00\x80?\x00\x00\x80?\x00\x00\x80?\x00\x00\x80?\x00\x00\x80?\x00\x00\x80?\x00\x00\x80?\x00\x00\x80?\x00\x00\x80?\x00\x00\x80?\x00\x00\x80?\x00\x00\x80?\x00\x00\x80?\x00\x00\x80?\x00\x00\x80?\x00\x00\x80?\x00\x00\x80?\x00\x00\x80?\x00\x00\x80?\x00\x00\x80?\x00\x00\x80?\x00\x00\x80?\x00\x00\x80?\x00\x00\x80?\x00\x00\x80?\x00\x00\x80?\x00\x00\x80?\x00\x00\x80?\x00\x00\x80?\x00\x00\x80?\x00\x00\x80?\x00\x00\x80?\x00\x00\x80?\x00\x00\x80?\x00\x00\x80?\x00\x00\x80?\x00\x00\x80?\x00\x00\x80?\x00\x00\x80?\x00\x00\x80?\x00\x00\x80?\x00\x00\x80?\x00\x00\x80?\x00\x00\x80?\x00\x00\x80?\x00\x00\x80?\x00\x00\x80?\x00\x00\x80?\x00\x00\x80?\x00\x00\x80?\x00\x00\x80?\x00\x00\x80?\x00\x00\x80?\x00\x00\x80?\x00\x00\x80?\x00\x00\x80?\x00\x00\x80?\x00\x00\x80?\x00\x00\x80?\x00\x00\x80?\x00\x00\x80?\x00\x00\x80?\x00\x00\x80?\x00\x00\x80?\x00\x00\x80?\x00\x00\x80?\x00\x00\x80?\x00\x00\x80?\x00\x00\x80?\x00\x00\x80?\x00\x00\x80?\x00\x00\x80?\x00\x00\x80?\x00\x00\x80?\x00\x00\x80?\x00\x00\x80?\x00\x00\x80?\x00\x00\x80?\x00\x00\x80?\x00\x00\x80?\x00\x00\x80?\x00\x00\x80?\x00\x00\x80?\x00\x00\x80?\x00\x00\x80?\x00\x00\x80?\x00\x00\x80?\x00\x00\x80?\x00\x00\x80?\x00\x00\x80?\x00\x00\x80?\x00\x00\x80?\x00\x00\x80?\x00\x00\x80?\x00\x00\x80?\x00\x00\x80?\x00\x00\x80?\x00\x00\x80?\x00\x00\x80?\x00\x00\x80?\x00\x00\x80?\x00\x00\x80?\x00\x00\x80?\x00\x00\x80?\x00\x00\x80?\x00\x00\x80?\x00\x00\x80?\x00\x00\x80?\x00\x00\x80?\x00\x00\x80?\x00\x00\x80?\x00\x00\x80?\x00\x00\x80?\x00\x00\x80?\x00\x00\x80?\x00\x00\x80?\x00\x00\x80?\x00\x00\x80?\x00\x00\x80?\x00\x00\x80?\x00\x00\x80?\x00\x00\x80?\x00\x00\x80?\x00\x00\x80?\x00\x00\x80?\x00\x00\x80?\x00\x00\x80?\x00\x00\x80?\x00\x00\x80?\x00\x00\x80?\x00\x00\x80?\x00\x00\x80?\x00\x00\x80?\x00\x00\x80?\x00\x00\x80?\x00\x00\x80?\x00\x00\x80?\x00\x00\x80?\x00\x00\x80?\x00\x00\x80?\x00\x00\x80?\x00\x00\x80?\x00\x00\x80?\x00\x00\x80?\x00\x00\x80?\x00\x00\x80?\x00\x00\x80?\x00\x00\x80?\x00\x00\x80?\x00\x00\x80?\x00\x00\x80?\x00\x00\x80?\x00\x00\x80?\x00\x00\x80?\x00\x00\x80?\x00\x00\x80?\x00\x00\x80?\x00\x00\x80?\x00\x00\x80?\x00\x00\x80?\x00\x00\x80?\x00\x00\x80?\x00\x00\x80?\x00\x00\x80?\x00\x00\x80?\x00\x00\x80?\x00\x00\x80?\x00\x00\x80?\x00\x00\x80?\x00\x00\x80?\x00\x00\x80?\x00\x00\x80?\x00\x00\x80?\x00\x00\x80?\x00\x00\x80?\x00\x00\x80?\x00\x00\x80?\x00\x00\x80?\x00\x00\x80?\x00\x00\x80?\x00\x00\x80?\x00\x00\x80?\x00\x00\x80?\x00\x00\x80?\x00\x00\x80?\x00\x00\x80?\x00\x00\x80?\x00\x00\x80?\x00\x00\x80?\x00\x00\x80?\x00\x00\x80?\x00\x00\x80?\x00\x00\x80?\x00\x00\x80?\x00\x00\x80?\x00\x00\x80?\x00\x00\x80?\x00\x00\x80?\x00\x00\x80?\x00\x00\x80?\x00\x00\x80?\x00\x00\x80?\x00\x00\x80?\x00\x00\x80?\x00\x00\x80?\x00\x00\x80?\x00\x00\x80?\x00\x00\x80?\x00\x00\x80?\x00\x00\x80?\x00\x00\x80?\x00\x00\x80?\x00\x00\x80?\x00\x00\x80?\x00\x00\x80?\x00\x00\x80?\x00\x00\x80?\x00\x00\x80?\x00\x00\x80?\x00\x00\x80?\x00\x00\x80?\x00\x00\x80?\x00\x00\x80?\x00\x00\x80?\x00\x00\x80?\x00\x00\x80?\x00\x00\x80?\x00\x00\x80?\x00\x00\x80?\x00\x00\x80?\x00\x00\x80?\x00\x00\x80?\x00\x00\x80?\x00\x00\x80?\x00\x00\x80?\x00\x00\x80?\x00\x00\x80?\x00\x00\x80?\x00\x00\x80?\x00\x00\x80?\x00\x00\x80?\x00\x00\x80?\x00\x00\x80?\x00\x00\x80?\x00\x00\x80?\x00\x00\x80?\x00\x00\x80?\x00\x00\x80?\x00\x00\x80?\x00\x00\x80?\x00\x00\x80?\x00\x00\x80?\x00\x00\x80?\x00\x00\x80?\x00\x00\x80?\x00\x00\x80?\x00\x00\x80?\x00\x00\x80?\x00\x00\x80?\x00\x00\x80?\x00\x00\x80?\x00\x00\x80?\x00\x00\x80?\x00\x00\x80?\x00\x00\x80?\x00\x00\x80?\x00\x00\x80?\x00\x00\x80?\x00\x00\x80?\x00\x00\x80?\x00\x00\x80?\x00\x00\x80?\x00\x00\x80?\x00\x00\x80?\x00\x00\x80?\x00\x00\x80?\x00\x00\x80?\x00\x00\x80?\x00\x00\x80?\x00\x00\x80?\x00\x00\x80?\x00\x00\x80?\x00\x00\x80?\x00\x00\x80?\x00\x00\x80?\x00\x00\x80?\x00\x00\x80?\x00\x00\x80?\x00\x00\x80?\x00\x00\x80?\x00\x00\x80?\x00\x00\x80?\x00\x00\x80?\x00\x00\x80?\x00\x00\x80?\x00\x00\x80?\x00\x00\x80?\x00\x00\x80?\x00\x00\x80?\x00\x00\x80?\x00\x00\x80?\x00\x00\x80?\x00\x00\x80?\x00\x00\x80?\x00\x00\x80?\x00\x00\x80?\x00\x00\x80?\x00\x00\x80?\x00\x00\x80?\x00\x00\x80?\x00\x00\x80?\x00\x00\x80?\x00\x00\x80?\x00\x00\x80?\x00\x00\x80?\x00\x00\x80?\x00\x00\x80?'
S'\x00\x00\x00\x00\x00\x00\x00\x00\x00\x00\x00\x00\x00\x00\x00\x00\x00\x00\x00\x00\x00\x00\x00\x00\x00\x00\x00\x00\x00\x00\x00\x00\x00\x00\x00\x00\x00\x00\x00\x00\x00\x00\x00\x00\x00\x00\x00\x00\x00\x00\x00\x00\x00\x00\x00\x00\x00\x00\x00\x00\x00\x00\x00\x00\x00\x00\x00\x00\x00\x00\x00\x00\x00\x00\x00\x00\x00\x00\x00\x00\x00\x00\x00\x00\x00\x00\x00\x00\x00\x00\x00\x00\x00\x00\x00\x00\x00\x00\x00\x00\x00\x00\x00\x00\x00\x00\x00\x00\x00\x00\x00\x00\x00\x00\x00\x00\x00\x00\x00\x00\x00\x00\x00\x00\x00\x00\x00\x00\x00\x00\x00\x00\x00\x00\x00\x00\x00\x00\x00\x00\x00\x00\x00\x00\x00\x00\x00\x00\x00\x00\x00\x00\x00\x00\x00\x00\x00\x00\x00\x00\x00\x00\x00\x00\x00\x00\x00\x00\x00\x00\x00\x00\x00\x00\x00\x00\x00\x00\x00\x00\x00\x00\x00\x00\x00\x00\x00\x00\x00\x00\x00\x00\x00\x00\x00\x00\x00\x00\x00\x00\x00\x00\x00\x00\x00\x00\x00\x00\x00\x00\x00\x00\x00\x00\x00\x00\x00\x00\x00\x00\x00\x00\x00\x00\x00\x00\x00\x00\x00\x00\x00\x00\x00\x00\x00\x00\x00\x00\x00\x00\x00\x00\x00\x00\x00\x00\x00\x00\x00\x00\x00\x00\x00\x00\x00\x00\x00\x00\x00\x00\x00\x00\x00\x00\x00\x00\x00\x00\x00\x00\x00\x00\x00\x00\x00\x00\x00\x00\x00\x00\x00\x00\x00\x00\x00\x00\x00\x00\x00\x00\x00\x00\x00\x00\x00\x00\x00\x00\x00\x00\x00\x00\x00\x00\x00\x00\x00\x00\x00\x00\x00\x00\x00\x00\x00\x00\x00\x00\x00\x00\x00\x00\x00\x00\x00\x00\x00\x00\x00\x00\x00\x00\x00\x00\x00\x00\x00\x00\x00\x00\x00\x00\x00\x00\x00\x00\x00\x00\x00\x00\x00\x00\x00\x00\x00\x00\x00\x00\x00\x00\x00\x00\x00\x00\x00\x00\x00\x00\x00\x00\x00\x00\x00\x00\x00\x00\x00\x00\x00\x00\x00\x00\x00\x00\x00\x00\x00\x00\x00\x00\x00\x00\x00\x00\x00\x00\x00\x00\x00\x00\x00\x00\x00\x00\x00\x00\x00\x00\x00\x00\x00\x00\x00\x00\x00\x00\x00\x00\x00\x00\x00\x00\x00\x00\x00\x00\x00\x00\x00\x00\x00\x00\x00\x00\x00\x00\x00\x00\x00\x00\x00\x00\x00\x00\x00\x00\x00\x00\x00\x00\x00\x00\x00\x00\x00\x00\x00\x00\x00\x00\x00\x00\x00\x00\x00\x00\x00\x00\x00\x00\x00\x00\x00\x00\x00\x00\x00\x00\x00\x00\x00\x00\x00\x00\x00\x00\x00\x00\x00\x00\x00\x00\x00\x00\x00\x00\x00\x00\x00\x00\x00\x00\x00\x00\x00\x00\x00\x00\x00\x00\x00\x00\x00\x00\x00\x00\x00\x00\x00\x00\x00\x00\x00\x00\x00\x00\x00\x00\x00\x00\x00\x00\x00\x00\x00\x00\x00\x00\x00\x00\x00\x00\x00\x00\x00\x00\x00\x00\x00\x00\x00\x00\x00\x00\x00\x00\x00\x00\x00\x00\x00\x00\x00\x00\x00\x00\x00\x00\x00\x00\x00\x00\x00\x00\x00\x00\x00\x00\x00\x00\x00\x00\x00\x00\x00\x00\x00\x00\x00\x00\x00\x00\x00\x00\x00\x00\x00\x00\x00\x00'
Ntbsg56
g49
(g50
g51
g52
S'b'
tRp4790
(I1
(I600
I1
tg55
I00
S'\x00\x00\xc5C\x00\x00\xabC\x00\x00\xe2C\x00\x80\x0fD\x00\x00)C\x00\x00,C\x00\x80\xdaC\x00\xc0\x04D\x00\x00\x03C\x00\x00\xbaC\x00@\x0cD\x00\x80\xf1C\x00\x00\x1bC\x00\x00\x10C\x00\x80\xb9C\x00\x00^C\x00\x00\xbdC\x00@\x06D\x00\x80\xbcC\x00\x00\x0bC\x00\x00\xacC\x00\x80\tD\x00\x80\xa0C\x00\x80\xd7C\x00\x00\xaeC\x00\x00\xd0B\x00\x00tC\x00\x00\xb1C\x00\x80\x9dC\x00\x00\x00\x00\x00\x00NC\x00\x80\x12D\x00\x00\xc0A\x00\x00\x0eD\x00\x00\xdbC\x00\x00\x8bC\x00\x00?C\x00\x80\xf4C\x00\x006C\x00\x00hC\x00\x80\xf0C\x00\x80\x9aC\x00@\x04D\x00\x80\xa7C\x00\x00tB\x00\x00{C\x00\x00\xf3C\x00\x00\xd4C\x00\x00\xcaB\x00\x00GC\x00\xc0\x07D\x00\x80\xb7C\x00\x00@C\x00\x00\x86C\x00\x00\x19C\x00\x00$C\x00\x80\x8cC\x00\x00\xd1C\x00\x80\x84C\x00\x00 B\x00\x00\x15C\x00\x00+C\x00\x80\xbdC\x00\x80\xdfC\x00\x00`C\x00\x00\xeaB\x00\x00\x96C\x00\x002C\x00\x80\xfdC\x00\x00|C\x00\x80\x91C\x00\x00oC\x00\x00DB\x00\x00\x01D\x00\x80\xc6C\x00\x00\x98A\x00\x80\xc7C\x00\x00`B\x00\x00\x92C\x00\x00\x08B\x00\x00\x1eC\x00\x00\xf2B\x00\xc0\x02D\x00\x00dC\x00\x00XC\x00\x00\xb2B\x00\x00<B\x00\x00\x1dC\x00\x00\xa8B\x00\x00\xc2C\x00\x00\xc9C\x00\x00\xa3C\x00\x00HB\x00\x80\xb8C\x00\x00fC\x00\x00PA\x00\x00\xe0B\x00\x00\x98B\x00\x80\xb6C\x00\x00~C\x00\x80\xdcC\x00\x00zC\x00\x00\rD\x00\x00\tD\x00\x00pB\x00\x00uC\x00@\rD\x00\x00\xe2B\x00\x80\xa3C\x00\x00\x05D\x00\x00\xc8B\x00\x00\xcfC\x00\x007C\x00\x80\x99C\x00@\nD\x00\x00\xc3C\x00\x80\xd0C\x00\x80\xa8C\x00\x80\xccC\x00\x80\xb5C\x00@\x05D\x00@\x0eD\x00\x80\xa1C\x00\x00\xccC\x00\x00"C\x00\x00\x0cD\x00\x00\xbbC\x00\x00]C\x00\x80\xecC\x00\x00\xdaB\x00\x00TB\x00\x00\x88A\x00\x80\x11D\x00\x80\x01D\x00\x80\xb1C\x00\x00\xe6B\x00\x00\x83C\x00\x00\xe7C\x00\x00\xf4C\x00\x00pC\x00\x80\xf7C\x00\x80\xadC\x00\x80\xd5C\x00\x00\x06C\x00@\x07D\x00\x00\xfaC\x00\x00 C\x00\x00RC\x00\x00\x01C\x00\x00bC\x00\x00\x94C\x00\x80\xddC\x00\x00\x00B\x00\xc0\x05D\x00\x80\xa5C\x00\x00\nD\x00\x00\xc8A\x00\x00\xb8B\x00\x80\x81C\x00\x00\xfeC\x00\x00\x8cC\x00\x80\xd9C\x00@\x11D\x00\x80\x83C\x00\x00XB\x00\x00\xf4B\x00\x00\xf0B\x00\x80\xa4C\x00\x00@B\x00\x80\x15D\x00\x00\xd6C\x00@\x15D\x00\x00\xfbC\x00\x00hB\x00\x00\xa0B\x00\x00pA\x00\x80\x0bD\x00\x00\x8fC\x00\x00\xe8C\x00\x00\x80B\x00\x00\\B\x00\x00\xd8C\x00\x80\x08D\x00\x00\x80?\x00\x80\xe6C\x00\x00=C\x00\x80\xcaC\x00\x00\xc6B\x00\x00QC\x00\x80\xfcC\x00\xc0\x00D\x00\x00%C\x00\x80\x85C\x00\x80\xa9C\x00\x00\x10A\x00\x00&C\x00\x00,B\x00\x80\xe1C\x00\x00\xd3C\x00\x00\xeeB\x00\x00xB\x00\x00\x95C\x00\x00\x12D\x00\x00\xa9C\x00\x80\x0eD\x00\x00lB\x00\x00\x80A\x00\x00`A\x00\x00\xd9C\x00\x80\xc3C\x00\x00\xa6B\x00\xc0\nD\x00\x80\xd4C\x00\xc0\rD\x00@\x02D\x00\x80\x92C\x00\x80\xd2C\x00\x00\xf0C\x00\x00\xfcB\x00\x80\xe5C\x00\x80\xbfC\x00\x00\x87C\x00\x80\xf3C\x00\x80\xc0C\x00\x80\x13D\x00\x00\xd4B\x00\x00PB\x00\x80\xf9C\x00\x001C\x00\x00JC\x00\x00\x12C\x00\x00\xdcB\x00\x00\x9fC\x00\x00@@\x00\x00\xa6C\x00\x80\xf6C\x00\x00(B\x00\xc0\x0bD\x00\x80\xd6C\x00\x00\x14D\x00\x00\xe1C\x00\x00\x05C\x00\x80\xedC\x00\x00\xdeC\x00\x00\xdaC\x00\x00\xb8A\x00\x00\x92B\x00\x80\x9fC\x00\x80\xacC\x00\x00wC\x00\x80\xe4C\x00\x80\x88C\x00\x80\x02D\x00\x00|B\x00\x00\xdcC\x00\x00\xe0@\x00\x00\x8aB\x00\x00\xe9C\x00\xc0\tD\x00\x00\x90A\x00\x00\xc4B\x00\x00\x84B\x00\x00\x7fC\x00\x00}C\x00\x00\'C\x00\x00\xb8C\x00\x80\xfeC\x00\x00\xd2B\x00\x80\xc5C\x00\x00iC\x00\x00\xf2C\x00\x00\x08C\x00\x00OC\x00\x00\xd5C\x00\x00dB\x00\x80\x90C\x00\x80\xdeC\x00\x00>C\x00\x00\xaeB\x00\x00\xadC\x00\x00\x17C\x00@\x0bD\x00\x00\xd0A\x00\x00\x88C\x00\xc0\x11D\x00\x00DC\x00\x00\xb2C\x00\x00 A\x00@\x00D\x00\x00\x0cB\x00\x00\xffC\x00\x00\x93C\x00\x80\xc9C\x00\x00YC\x00\x00\x0bD\x00\x80\x8bC\x00\x80\x10D\x00\x80\rD\x00\x00\x8aC\x00\x00KC\x00\xc0\x14D\x00\x00$B\x00\x00;C\x00\x00\xe8B\x00\x00ZC\x00\x00rC\x00\x80\xb4C\x00\x00\xe0A\x00\x80\nD\x00\x80\xf8C\x00\x00jC\x00\x80\x95C\x00\x80\x87C\x00\x00\x94B\x00\x00\x82B\x00\x00\x85C\x00\x00\x08D\x00\x80\xeeC\x00\x00\x8eB\x00\x00\x8cB\x00\x00\xedC\x00\x00!C\x00\x00\xb0C\x00\x00[C\x00\x80\xa6C\x00\x00\x18C\x00\x80\xf5C\x00\x80\xc1C\x00\x80\xfaC\x00\x80\xe7C\x00\x00\xa7C\x00\x00\xfcC\x00\x00MC\x00\x00\xc0C\x00\x80\x94C\x00\x80\x03D\x00\x004B\x00\x00\xf6C\x00\x80\xbeC\x00\x80\xb3C\x00\x80\xcfC\x00\x80\x8eC\x00\x00\xbfC\x00\x80\xdbC\x00\x00\x1cC\x00\x00IC\x00\x00\xa2C\x00\x80\xfbC\x00@\x13D\x00\x003C\x00\x000A\x00\x00\x13D\x00\x00<C\x00\x00\xbcC\x00\x00\xa5C\x00\x00\x80C\x00\x000B\x00\x00\xf5C\x00@\x14D\x00\x80\xe9C\x00\x00\x98C\x00\x00AC\x00\x00UC\x00\x00\xc2B\x00\x80\xaaC\x00\x00\xb3C\x00\xc0\x12D\x00\x00\xd2C\x00\x00\x02C\x00\x00\x16C\x00\x00\xefC\x00\x80\xe2C\x00\x80\xcbC\x00\x80\x96C\x00\x00\x0eC\x00\x00\xb0B\x00\x80\x93C\x00\x00\xf6B\x00\x00cC\x00\x80\xbbC\x00\x00\xb6C\x00\x80\xefC\x00\x00\xe6C\x00\x00\xc8C\x00\x00\xa0@\x00\x00xC\x00\x00\x11D\x00\x00\xbcB\x00@\x12D\x00\x00\x00A\x00\x00\xe0C\x00\x80\xe0C\x00\x00nC\x00\x00qC\x00\x00FC\x00\x80\x06D\x00\x00\xb7C\x00\x00LB\x00\x00\xaaB\x00@\x01D\x00\x00#C\x00\x00\x06D\x00\x00\xe4C\x00\x00\xdeB\x00\x00\xd8B\x00\x00\x86B\x00\x00\xa4B\x00\x00\x18B\x00\x80\xaeC\x00\x00aC\x00\x00WC\x00@\x03D\x00\xc0\x08D\x00\xc0\x0eD\x00\x00\tC\x00\x008B\x00\x80\x8dC\x00\x00\x99C\x00\x00\rC\x00\x00\xf0A\x00\x80\xcdC\x00\x00BC\x00\xc0\x15D\x00\x00\x9cB\x00\x00\x88B\x00\x00\x9aB\x00\x80\xeaC\x00\x008C\x00\x00\xc1C\x00\x00\xcdC\x00\x00\x04B\x00\x00/C\x00\x00lC\x00\x00\x89C\x00\x00kC\x00\x00\nC\x00@\x0fD\x00\x80\x14D\x00\x005C\x00\x00sC\x00\x80\x0cD\x00\x00\x07D\x00\x00PC\x00\xc0\x06D\x00\x00\x8dC\x00\x00\xe4B\x00\x00\xe3C\x00\x80\xb0C\x00\x00*C\x00\x00\xd7C\x00\xc0\x01D\x00\x00\x90C\x00\x00\xd8A\x00\x00\xf7C\x00\x00\x00D\x00\x00\xb9C\x00\x00\x91C\x00\x00vC\x00\x00\xf9C\x00\x00\x03D\x00\x80\xe8C\x00\x00\xf8A\x00\x80\xc2C\x00\x00\x9bC\x00\x00\x1cB\x00\x80\x98C\x00\x00\x8eC\x00\xc0\x0fD\x00\x00\x04C\x00\x004C\x00\x80\xc8C\x00\x80\xd1C\x00\x80\x9bC\x00\x00gC\x00\x00\xfdC\x00\x00\xafC\x00\x00\xcbC\x00\x00\x9dC\x00\x000C\x00\x00\xb0A\x00\x00CC\x00\x00\xf8C\x00\x00\x15D\x00\x00\xbeC\x00\x00\x07C\x00\x80\x9eC\x00\x00\x9cC\x00\x00\xf1C\x00@\x10D\x00@\x08D\x00\x00\x0fD\x00\x00\xceB\x00\x00EC\x00\x00\x0fC\x00\x00\xbeB\x00\x00:C\x00\x00HC\x00\x009C\x00\x80\x89C\x00\x80\x80C\x00\x00\x00@\x00\x00\x82C\x00\x00\x14C\x00\x00\xccB\x00\x00\x90B\x00\x00\xddC\x00\x80\xc4C\x00\xc0\x13D\x00\x00@A\x00\x00\x10D\x00\x00\xa0A\x00\x00\xfaB\x00\x80\x07D\x00\xc0\x10D\x00\x80\xbaC\x00\x00\xebC\x00\x00TC\x00\x00\xa4C\x00\x00VC\x00\x00\xecB\x00\x00\xf8B\x00\x80\x05D\x00\x00\x04D\x00\x00\xc7C\x00\x00\x13C\x00\x00\x9aC\x00\x00\x02D\x00\x80\x82C\x00\xc0\x03D\x00\x00SC\x00\xc0\x0cD\x00\x00\xfeB\x00\x00\xa8A\x00\x00\x96B\x00\x00\xeeC\x00@\tD\x00\x80\xafC\x00\x00\x11C\x00\x00\xb4C\x00\x00\xb5C\x00\x00-C\x00\x00LC\x00\x00\xa8C\x00\x00\xa1C\x00\x00\xaaC\x00\x00\xd6B\x00\x00\x97C\x00\x00yC\x00\x00\x1fC\x00\x00\xcaC\x00\x80\x04D\x00\x80\xceC\x00\x00\xacB\x00\x00(C\x00\x00\xb4B\x00\x00\x00C\x00\x00\xe5C\x00\x80\x8aC\x00\x00\x81C\x00\x00\xeaC\x00\x00\xdfC\x00\x80\x8fC\x00\x80\xf2C\x00\x00\x0cC\x00\x80\xb2C\x00\x00\xc0B\x00\x80\x86C\x00\x00_C\x00\x00\x1aC\x00\x00eC\x00\x00\xbaB\x00\x00\xd0C\x00\x80\xffC\x00\x80\x97C\x00\x80\xabC\x00\x80\xe3C\x00\x00\xecC\x00\x80\xa2C\x00\x00\x9eB\x00\x00\\C\x00\x00\xb6B\x00\x00\xc6C\x00\x00\xc4C\x00\x00.C\x00\x00\xe8A\x00\x00\xa0C\x00\x80\xd8C\x00\x00\xa2B\x00\x80\xd3C\x00\x00\x9eC\x00\x80\x00D\x00\x80\x9cC\x00\x00\xceC\x00\x00\x84C\x00\x00\x80@\x00\x00\xc0@\x00\x00\x10B\x00\x00\x14B\x00\x00mC\x00\x80\xebC'
S'\x00\x00\x00\x00\x00\x00\x00\x00\x00\x00\x00\x00\x00\x00\x00\x00\x00\x00\x00\x00\x00\x00\x00\x00\x00\x00\x00\x00\x00\x00\x00\x00\x00\x00\x00\x00\x00\x00\x00\x00\x00\x00\x00\x00\x00\x00\x00\x00\x00\x00\x00\x00\x00\x00\x00\x00\x00\x00\x00\x00\x00\x00\x00\x00\x00\x00\x00\x00\x00\x00\x00\x00\x00\x00\x00\x00\x00\x00\x00\x00\x00\x00\x00\x00\x00\x00\x00\x00\x00\x00\x00\x00\x00\x00\x00\x00\x00\x00\x00\x00\x00\x00\x00\x00\x00\x00\x00\x00\x00\x00\x00\x00\x00\x00\x00\x00\x00\x00\x00\x00\x00\x00\x00\x00\x00\x00\x00\x00\x00\x00\x00\x00\x00\x00\x00\x00\x00\x00\x00\x00\x00\x00\x00\x00\x00\x00\x00\x00\x00\x00\x00\x00\x00\x00\x00\x00\x00\x00\x00\x00\x00\x00\x00\x00\x00\x00\x00\x00\x00\x00\x00\x00\x00\x00\x00\x00\x00\x00\x00\x00\x00\x00\x00\x00\x00\x00\x00\x00\x00\x00\x00\x00\x00\x00\x00\x00\x00\x00\x00\x00\x00\x00\x00\x00\x00\x00\x00\x00\x00\x00\x00\x00\x00\x00\x00\x00\x00\x00\x00\x00\x00\x00\x00\x00\x00\x00\x00\x00\x00\x00\x00\x00\x00\x00\x00\x00\x00\x00\x00\x00\x00\x00\x00\x00\x00\x00\x00\x00\x00\x00\x00\x00\x00\x00\x00\x00\x00\x00\x00\x00\x00\x00\x00\x00\x00\x00\x00\x00\x00\x00\x00\x00\x00\x00\x00\x00\x00\x00\x00\x00\x00\x00\x00\x00\x00\x00\x00\x00\x00\x00\x00\x00\x00\x00\x00\x00\x00\x00\x00\x00\x00\x00\x00\x00\x00\x00\x00\x00\x00\x00\x00\x00\x00\x00\x00\x00\x00\x00\x00\x00\x00\x00\x00\x00\x00\x00\x00\x00\x00\x00\x00\x00\x00\x00\x00\x00\x00\x00\x00\x00\x00\x00\x00\x00\x00\x00\x00\x00\x00\x00\x00\x00\x00\x00\x00\x00\x00\x00\x00\x00\x00\x00\x00\x00\x00\x00\x00\x00\x00\x00\x00\x00\x00\x00\x00\x00\x00\x00\x00\x00\x00\x00\x00\x00\x00\x00\x00\x00\x00\x00\x00\x00\x00\x00\x00\x00\x00\x00\x00\x00\x00\x00\x00\x00\x00\x00\x00\x00\x00\x00\x00\x00\x00\x00\x00\x00\x00\x00\x00\x00\x00\x00\x00\x00\x00\x00\x00\x00\x00\x00\x00\x00\x00\x00\x00\x00\x00\x00\x00\x00\x00\x00\x00\x00\x00\x00\x00\x00\x00\x00\x00\x00\x00\x00\x00\x00\x00\x00\x00\x00\x00\x00\x00\x00\x00\x00\x00\x00\x00\x00\x00\x00\x00\x00\x00\x00\x00\x00\x00\x00\x00\x00\x00\x00\x00\x00\x00\x00\x00\x00\x00\x00\x00\x00\x00\x00\x00\x00\x00\x00\x00\x00\x00\x00\x00\x00\x00\x00\x00\x00\x00\x00\x00\x00\x00\x00\x00\x00\x00\x00\x00\x00\x00\x00\x00\x00\x00\x00\x00\x00\x00\x00\x00\x00\x00\x00\x00\x00\x00\x00\x00\x00\x00\x00\x00\x00\x00\x00\x00\x00\x00\x00\x00\x00\x00\x00\x00\x00\x00\x00\x00\x00\x00\x00\x00\x00\x00\x00\x00\x00\x00\x00\x00\x00\x00\x00\x00\x00\x00\x00\x00\x00\x00\x00\x00\x00\x00\x00\x00\x00\x00\x00\x00\x00\x00\x00\x00\x00\x00\x00'
NtbstRp4791
(dp4792
g60
(dp4793
g48
I01
sg56
I01
ssg62
g4785
sg63
(lp4794
g48
ag56
asg65
(lp4795
I600
aI1
asbsg67
S'random'
p4796
sg69
g70
(g51
(I0
tS'b'
tRp4797
(I1
(I600
I1
tg54
(S'i4'
I0
I1
tRp4798
(I3
S'<'
NNNI-1
I-1
I0
tbI01
S'\x1d\x00\x00\x00\xb7\x00\x00\x00\xf4\x01\x00\x00\xe9\x00\x00\x00R\x02\x00\x00\x80\x01\x00\x00S\x02\x00\x00\xff\x00\x00\x00\x85\x01\x00\x00\xc2\x00\x00\x00\x1f\x01\x00\x00^\x01\x00\x00\xfc\x01\x00\x00_\x00\x00\x00\xcf\x00\x00\x00\xaf\x00\x00\x00\xce\x00\x00\x00\x83\x00\x00\x00\x03\x01\x00\x00K\x00\x00\x00\xfe\x01\x00\x00\x14\x02\x00\x00\xdf\x01\x00\x00\xf5\x00\x00\x00 \x00\x00\x00\x9c\x00\x00\x00\x1a\x01\x00\x00\xc4\x01\x00\x003\x01\x00\x00H\x02\x00\x00\xa3\x01\x00\x00\xcd\x01\x00\x00\x98\x00\x00\x00\xae\x01\x00\x00O\x00\x00\x00!\x01\x00\x00T\x02\x00\x00U\x02\x00\x00\x97\x01\x00\x00\xd0\x01\x00\x00;\x00\x00\x00-\x01\x00\x00\xec\x00\x00\x00\xc4\x00\x00\x00d\x01\x00\x00P\x01\x00\x00\x9f\x01\x00\x00V\x00\x00\x00\xa8\x00\x00\x00H\x00\x00\x00\\\x00\x00\x00\x8d\x01\x00\x00\xe2\x00\x00\x00\x82\x00\x00\x00\xa4\x00\x00\x00\xb4\x00\x00\x00M\x00\x00\x00\x12\x01\x00\x00\xad\x00\x00\x00\xcd\x00\x00\x00h\x00\x00\x00,\x00\x00\x00\xc8\x00\x00\x00\xfd\x00\x00\x00\xb3\x00\x00\x00:\x01\x00\x00\x05\x01\x00\x00\x95\x01\x00\x00\xa8\x01\x00\x00\x00\x01\x00\x00?\x01\x00\x00>\x01\x00\x00\xf8\x01\x00\x00\xf6\x00\x00\x009\x01\x00\x00\x15\x02\x00\x00a\x00\x00\x00\xa9\x01\x00\x00\xa7\x01\x00\x00B\x02\x00\x00\xae\x00\x00\x00K\x02\x00\x00\x96\x01\x00\x00\xd2\x00\x00\x00X\x00\x00\x00\x8e\x01\x00\x00(\x02\x00\x00\x16\x01\x00\x00w\x01\x00\x00U\x00\x00\x00*\x02\x00\x00D\x02\x00\x00\x9d\x00\x00\x00:\x02\x00\x00\x83\x01\x00\x00\xee\x01\x00\x005\x02\x00\x00k\x01\x00\x00\x04\x01\x00\x00\xbb\x00\x00\x00n\x00\x00\x000\x00\x00\x00\xf7\x01\x00\x00\xeb\x01\x00\x00\x19\x00\x00\x00\x0b\x01\x00\x00\xe1\x00\x00\x00!\x02\x00\x00\x94\x01\x00\x00\x81\x00\x00\x00\xe7\x00\x00\x00\x93\x01\x00\x00`\x00\x00\x00k\x00\x00\x00\xbd\x01\x00\x00\x87\x00\x00\x00/\x01\x00\x00A\x00\x00\x00\x07\x02\x00\x00\xc7\x00\x00\x00\xa6\x00\x00\x00Q\x00\x00\x00\xa5\x00\x00\x00y\x01\x00\x00\x08\x02\x00\x00\xff\x01\x00\x00\xda\x00\x00\x00\x13\x02\x00\x00+\x02\x00\x00\x94\x00\x00\x00p\x01\x00\x00\x08\x00\x00\x00\xd4\x01\x00\x00\xf1\x00\x00\x00\x8f\x00\x00\x00\xe4\x01\x00\x00\x0f\x01\x00\x00\x9e\x01\x00\x00\xb3\x01\x00\x00\x13\x00\x00\x003\x02\x00\x00\xa2\x01\x00\x00v\x01\x00\x00\xed\x01\x00\x00\r\x00\x00\x00\x19\x02\x00\x00\xe6\x00\x00\x00\x0c\x02\x00\x00\xf6\x01\x00\x00<\x00\x00\x00q\x01\x00\x00\x18\x01\x00\x00E\x01\x00\x006\x00\x00\x008\x02\x00\x00\x0c\x00\x00\x00X\x01\x00\x00W\x00\x00\x00P\x00\x00\x00$\x02\x00\x00\x92\x00\x00\x00A\x01\x00\x00|\x00\x00\x00\x90\x01\x00\x007\x00\x00\x00\xbf\x00\x00\x00\xc3\x00\x00\x00\x08\x01\x00\x00)\x02\x00\x00\x04\x00\x00\x00\xc0\x01\x00\x00=\x00\x00\x00\x05\x00\x00\x00\x1c\x02\x00\x00G\x02\x00\x00\xaf\x01\x00\x00\xde\x01\x00\x00\xe4\x00\x00\x00C\x00\x00\x00]\x01\x00\x00\xd5\x01\x00\x00\xb6\x01\x00\x00&\x00\x00\x00p\x00\x00\x00\xab\x01\x00\x00\xf1\x01\x00\x00\xef\x01\x00\x00.\x01\x00\x00`\x01\x00\x00\xb9\x00\x00\x00\x15\x01\x00\x00$\x00\x00\x004\x00\x00\x00i\x01\x00\x00\xa5\x01\x00\x00\xe0\x01\x00\x00\x1d\x01\x00\x00\xec\x01\x00\x00\x8a\x01\x00\x001\x00\x00\x00\xf0\x01\x00\x00Y\x01\x00\x00\xe5\x00\x00\x00+\x01\x00\x00\x1d\x02\x00\x00L\x01\x00\x00\x1e\x00\x00\x00\x10\x01\x00\x00\xba\x01\x00\x00\xbc\x00\x00\x00\x93\x00\x00\x00\x11\x02\x00\x00\x04\x02\x00\x00j\x01\x00\x00\x06\x02\x00\x00\x9a\x01\x00\x00T\x00\x00\x00%\x01\x00\x000\x01\x00\x00C\x01\x00\x00C\x02\x00\x00\x7f\x00\x00\x00\x0f\x00\x00\x007\x02\x00\x00@\x00\x00\x00\x99\x01\x00\x00\x95\x00\x00\x00z\x01\x00\x00S\x00\x00\x009\x02\x00\x00^\x00\x00\x00\xd9\x01\x00\x00\'\x00\x00\x00\r\x01\x00\x006\x01\x00\x00\xb2\x01\x00\x00\xb0\x01\x00\x00V\x02\x00\x00\x88\x01\x00\x00G\x00\x00\x00\x8b\x00\x00\x00\x89\x01\x00\x001\x01\x00\x00\xb7\x01\x00\x00\x1a\x00\x00\x00i\x00\x00\x00\xc9\x01\x00\x00\xf9\x00\x00\x00\x81\x01\x00\x00#\x02\x00\x00e\x00\x00\x00-\x00\x00\x00E\x00\x00\x00\x07\x01\x00\x00c\x00\x00\x00\x06\x01\x00\x00c\x01\x00\x00\xf3\x01\x00\x00.\x02\x00\x00\x9e\x00\x00\x00\xf5\x01\x00\x00\x0f\x02\x00\x00\x88\x00\x00\x00\xa3\x00\x00\x00Q\x02\x00\x00:\x00\x00\x00;\x01\x00\x00\xc0\x00\x00\x005\x00\x00\x006\x02\x00\x00\xdd\x00\x00\x008\x01\x00\x00\x1b\x01\x00\x00\xfb\x00\x00\x00\xb1\x01\x00\x00\xf2\x01\x00\x00*\x01\x00\x00-\x02\x00\x00#\x00\x00\x00\'\x01\x00\x00\xa0\x00\x00\x008\x00\x00\x00\xbc\x01\x00\x00\xa0\x01\x00\x00\xd2\x01\x00\x00U\x01\x00\x00\xb1\x00\x00\x001\x02\x00\x00\xc3\x01\x00\x00\x13\x01\x00\x00\xc8\x01\x00\x00F\x00\x00\x00N\x00\x00\x00\xd7\x00\x00\x00#\x01\x00\x00x\x01\x00\x00\x96\x00\x00\x00N\x01\x00\x00\xc9\x00\x00\x007\x01\x00\x00B\x00\x00\x00u\x01\x00\x00"\x02\x00\x00=\x02\x00\x00h\x01\x00\x00\xd1\x01\x00\x00\xa1\x01\x00\x00q\x00\x00\x00\r\x02\x00\x00)\x00\x00\x00\xcf\x01\x00\x00\xd8\x01\x00\x00\xe6\x01\x00\x00O\x02\x00\x00\xdd\x01\x00\x00\x1c\x00\x00\x00M\x02\x00\x00\xe5\x01\x00\x00\xe8\x00\x00\x00\xf7\x00\x00\x00I\x02\x00\x00\x16\x00\x00\x00\x1f\x02\x00\x00z\x00\x00\x00Z\x01\x00\x00A\x02\x00\x00[\x00\x00\x00l\x00\x00\x00\x05\x02\x00\x00\xa7\x00\x00\x00b\x01\x00\x00\x9a\x00\x00\x00\xea\x00\x00\x00D\x01\x00\x00J\x01\x00\x00+\x00\x00\x00\x1e\x02\x00\x00u\x00\x00\x00\xcb\x00\x00\x00\xc1\x00\x00\x00 \x02\x00\x00l\x01\x00\x00\x01\x00\x00\x00>\x02\x00\x00\x14\x00\x00\x00\xf8\x00\x00\x00\x17\x01\x00\x00\x8d\x00\x00\x00\x18\x00\x00\x00\x98\x01\x00\x00\xdb\x01\x00\x00\x18\x02\x00\x00B\x01\x00\x00\xbf\x01\x00\x00\x1b\x00\x00\x00\x86\x00\x00\x00\x1e\x01\x00\x004\x02\x00\x00m\x01\x00\x00S\x01\x00\x00\x1a\x02\x00\x002\x01\x00\x00\x1b\x02\x00\x00w\x00\x00\x00|\x01\x00\x00b\x00\x00\x00\x8c\x01\x00\x003\x00\x00\x00\t\x01\x00\x00]\x00\x00\x00\xc7\x01\x00\x00\x0e\x00\x00\x00\t\x00\x00\x00\x02\x02\x00\x00~\x00\x00\x00{\x01\x00\x00a\x01\x00\x00\x12\x00\x00\x00\x10\x00\x00\x00>\x00\x00\x00\xe3\x01\x00\x00R\x01\x00\x00V\x01\x00\x00\xdc\x00\x00\x00M\x01\x00\x00\xdf\x00\x00\x00\xac\x01\x00\x00G\x01\x00\x00Y\x00\x00\x00\xce\x01\x00\x00s\x00\x00\x00\xd1\x00\x00\x00F\x02\x00\x00\xfa\x01\x00\x00\x00\x00\x00\x00\x0c\x01\x00\x00E\x02\x00\x00J\x00\x00\x00\x0b\x02\x00\x00L\x00\x00\x00\x7f\x01\x00\x00\xd6\x01\x00\x00Z\x00\x00\x00$\x01\x00\x00%\x02\x00\x00\xba\x00\x00\x00\xdc\x01\x00\x00t\x01\x00\x00{\x00\x00\x00v\x00\x00\x00\xad\x01\x00\x00\xa4\x01\x00\x00P\x02\x00\x00\'\x02\x00\x00o\x00\x00\x00T\x01\x00\x00;\x02\x00\x00t\x00\x00\x009\x00\x00\x00\xd7\x01\x00\x00o\x01\x00\x00\xd8\x00\x00\x00\xc6\x00\x00\x00L\x02\x00\x00/\x00\x00\x00\xd4\x00\x00\x00\x11\x01\x00\x00\x8e\x00\x00\x00\xaa\x00\x00\x00\xee\x00\x00\x00\xc1\x01\x00\x00\x17\x00\x00\x00\xb5\x00\x00\x00J\x02\x00\x00\xd0\x00\x00\x00\xa1\x00\x00\x00\xf4\x00\x00\x00\x06\x00\x00\x00"\x00\x00\x00W\x01\x00\x00\xfe\x00\x00\x00d\x00\x00\x00\xf9\x01\x00\x00\x97\x00\x00\x00\xf3\x00\x00\x00\x14\x01\x00\x000\x02\x00\x00?\x00\x00\x00\x86\x01\x00\x00\x87\x01\x00\x00\xf0\x00\x00\x00\xc5\x00\x00\x00\x02\x00\x00\x00s\x01\x00\x00\xbe\x01\x00\x00?\x02\x00\x00\x92\x01\x00\x00\xfa\x00\x00\x00,\x02\x00\x00\xdb\x00\x00\x00~\x01\x00\x00\xb8\x00\x00\x00\x89\x00\x00\x00I\x01\x00\x00\xb2\x00\x00\x00\xcc\x01\x00\x00\x01\x01\x00\x00g\x01\x00\x00/\x02\x00\x00\xaa\x01\x00\x00\x03\x02\x00\x00W\x02\x00\x00@\x02\x00\x00\x80\x00\x00\x00@\x01\x00\x00\xf2\x00\x00\x00\x16\x02\x00\x00=\x01\x00\x00r\x01\x00\x00}\x01\x00\x00\xd9\x00\x00\x00(\x00\x00\x00\xe7\x01\x00\x00\x0b\x00\x00\x00\x0e\x01\x00\x002\x02\x00\x00.\x00\x00\x00\xde\x00\x00\x00\x8a\x00\x00\x00%\x00\x00\x00e\x01\x00\x00F\x01\x00\x00Q\x01\x00\x00\xeb\x00\x00\x00\xc5\x01\x00\x00\x8c\x00\x00\x00\xe1\x01\x00\x005\x01\x00\x00\xca\x01\x00\x00\xe3\x00\x00\x00\x91\x00\x00\x00H\x01\x00\x00\xac\x00\x00\x00[\x01\x00\x00K\x01\x00\x00\xbd\x00\x00\x00\xda\x01\x00\x00D\x00\x00\x00\x9f\x00\x00\x00\n\x01\x00\x00"\x01\x00\x00<\x02\x00\x00\xc6\x01\x00\x00 \x01\x00\x00N\x02\x00\x00\xbe\x00\x00\x00I\x00\x00\x00\x8f\x01\x00\x00\x85\x00\x00\x00\xc2\x01\x00\x00\x0e\x02\x00\x00\xd6\x00\x00\x00\xfc\x00\x00\x00R\x00\x00\x00\xcb\x01\x00\x00\x9b\x01\x00\x00O\x01\x00\x00\x10\x02\x00\x00\n\x02\x00\x00*\x00\x00\x00&\x02\x00\x00\x07\x00\x00\x00m\x00\x00\x00x\x00\x00\x00\t\x02\x00\x00\x99\x00\x00\x00\x91\x01\x00\x00\x11\x00\x00\x00\x8b\x01\x00\x00\xbb\x01\x00\x00\xb9\x01\x00\x00\x90\x00\x00\x00\x00\x02\x00\x002\x00\x00\x00<\x01\x00\x00\xe9\x01\x00\x00\xb6\x00\x00\x00\x9c\x01\x00\x00g\x00\x00\x00\x17\x02\x00\x00\x15\x00\x00\x00\x02\x01\x00\x00\x9b\x00\x00\x00r\x00\x00\x004\x01\x00\x00\xd3\x00\x00\x00&\x01\x00\x00\x19\x01\x00\x00\xb0\x00\x00\x00\xed\x00\x00\x00}\x00\x00\x00\n\x00\x00\x00\xb8\x01\x00\x00\x12\x02\x00\x00f\x00\x00\x00j\x00\x00\x00)\x01\x00\x00\xd5\x00\x00\x00!\x00\x00\x00y\x00\x00\x00\xcc\x00\x00\x00\x9d\x01\x00\x00\xea\x01\x00\x00\xb4\x01\x00\x00\x03\x00\x00\x00\xd3\x01\x00\x00\xfd\x01\x00\x00\xe8\x01\x00\x00(\x01\x00\x00\x01\x02\x00\x00\x82\x01\x00\x00\xa2\x00\x00\x00\x84\x00\x00\x00\x1c\x01\x00\x00\xca\x00\x00\x00\x84\x01\x00\x00\x1f\x00\x00\x00n\x01\x00\x00_\x01\x00\x00\\\x01\x00\x00\xe0\x00\x00\x00\xfb\x01\x00\x00\xef\x00\x00\x00f\x01\x00\x00\xb5\x01\x00\x00,\x01\x00\x00\xe2\x01\x00\x00\xab\x00\x00\x00\xa9\x00\x00\x00\xa6\x01\x00\x00'
tbsg74
I01
sg75
I1
sg76
I-1
sg77
(lp4799
I0
aI1
aI2
aI3
aI4
aI5
aI6
aI7
aI8
aI9
aI10
aI11
aI12
aI13
aI14
aI15
aI16
aI17
aI18
aI19
aI20
aI21
aI22
aI23
aI24
aI25
aI26
aI27
aI28
aI29
aI30
aI31
aI32
aI33
aI34
aI35
aI36
aI37
aI38
aI39
aI40
aI41
aI42
aI43
aI44
aI45
aI46
aI47
aI48
aI49
aI50
aI51
aI52
aI53
aI54
aI55
aI56
aI57
aI58
aI59
aI60
aI61
aI62
aI63
aI64
aI65
aI66
aI67
aI68
aI69
aI70
aI71
aI72
aI73
aI74
aI75
aI76
aI77
aI78
aI79
aI80
aI81
aI82
aI83
aI84
aI85
aI86
aI87
aI88
aI89
aI90
aI91
aI92
aI93
aI94
aI95
aI96
aI97
aI98
aI99
aI100
aI101
aI102
aI103
aI104
aI105
aI106
aI107
aI108
aI109
aI110
aI111
aI112
aI113
aI114
aI115
aI116
aI117
aI118
aI119
aI120
aI121
aI122
aI123
aI124
aI125
aI126
aI127
aI128
aI129
aI130
aI131
aI132
aI133
aI134
aI135
aI136
aI137
aI138
aI139
aI140
aI141
aI142
aI143
aI144
aI145
aI146
aI147
aI148
aI149
aI150
aI151
aI152
aI153
aI154
aI155
aI156
aI157
aI158
aI159
aI160
aI161
aI162
aI163
aI164
aI165
aI166
aI167
aI168
aI169
aI170
aI171
aI172
aI173
aI174
aI175
aI176
aI177
aI178
aI179
aI180
aI181
aI182
aI183
aI184
aI185
aI186
aI187
aI188
aI189
aI190
aI191
aI192
aI193
aI194
aI195
aI196
aI197
aI198
aI199
aI200
aI201
aI202
aI203
aI204
aI205
aI206
aI207
aI208
aI209
aI210
aI211
aI212
aI213
aI214
aI215
aI216
aI217
aI218
aI219
aI220
aI221
aI222
aI223
aI224
aI225
aI226
aI227
aI228
aI229
aI230
aI231
aI232
aI233
aI234
aI235
aI236
aI237
aI238
aI239
aI240
aI241
aI242
aI243
aI244
aI245
aI246
aI247
aI248
aI249
aI250
aI251
aI252
aI253
aI254
aI255
aI256
aI257
aI258
aI259
aI260
aI261
aI262
aI263
aI264
aI265
aI266
aI267
aI268
aI269
aI270
aI271
aI272
aI273
aI274
aI275
aI276
aI277
aI278
aI279
aI280
aI281
aI282
aI283
aI284
aI285
aI286
aI287
aI288
aI289
aI290
aI291
aI292
aI293
aI294
aI295
aI296
aI297
aI298
aI299
aI300
aI301
aI302
aI303
aI304
aI305
aI306
aI307
aI308
aI309
aI310
aI311
aI312
aI313
aI314
aI315
aI316
aI317
aI318
aI319
aI320
aI321
aI322
aI323
aI324
aI325
aI326
aI327
aI328
aI329
aI330
aI331
aI332
aI333
aI334
aI335
aI336
aI337
aI338
aI339
aI340
aI341
aI342
aI343
aI344
aI345
aI346
aI347
aI348
aI349
aI350
aI351
aI352
aI353
aI354
aI355
aI356
aI357
aI358
aI359
aI360
aI361
aI362
aI363
aI364
aI365
aI366
aI367
aI368
aI369
aI370
aI371
aI372
aI373
aI374
aI375
aI376
aI377
aI378
aI379
aI380
aI381
aI382
aI383
aI384
aI385
aI386
aI387
aI388
aI389
aI390
aI391
aI392
aI393
aI394
aI395
aI396
aI397
aI398
aI399
aI400
aI401
aI402
aI403
aI404
aI405
aI406
aI407
aI408
aI409
aI410
aI411
aI412
aI413
aI414
aI415
aI416
aI417
aI418
aI419
aI420
aI421
aI422
aI423
aI424
aI425
aI426
aI427
aI428
aI429
aI430
aI431
aI432
aI433
aI434
aI435
aI436
aI437
aI438
aI439
aI440
aI441
aI442
aI443
aI444
aI445
aI446
aI447
aI448
aI449
aI450
aI451
aI452
aI453
aI454
aI455
aI456
aI457
aI458
aI459
aI460
aI461
aI462
aI463
aI464
aI465
aI466
aI467
aI468
aI469
aI470
aI471
aI472
aI473
aI474
aI475
aI476
aI477
aI478
aI479
aI480
aI481
aI482
aI483
aI484
aI485
aI486
aI487
aI488
aI489
aI490
aI491
aI492
aI493
aI494
aI495
aI496
aI497
aI498
aI499
aI500
aI501
aI502
aI503
aI504
aI505
aI506
aI507
aI508
aI509
aI510
aI511
aI512
aI513
aI514
aI515
aI516
aI517
aI518
aI519
aI520
aI521
aI522
aI523
aI524
aI525
aI526
aI527
aI528
aI529
aI530
aI531
aI532
aI533
aI534
aI535
aI536
aI537
aI538
aI539
aI540
aI541
aI542
aI543
aI544
aI545
aI546
aI547
aI548
aI549
aI550
aI551
aI552
aI553
aI554
aI555
aI556
aI557
aI558
aI559
aI560
aI561
aI562
aI563
aI564
aI565
aI566
aI567
aI568
aI569
aI570
aI571
aI572
aI573
aI574
aI575
aI576
aI577
aI578
aI579
aI580
aI581
aI582
aI583
aI584
aI585
aI586
aI587
aI588
aI589
aI590
aI591
aI592
aI593
aI594
aI595
aI596
aI597
aI598
aI599
asg79
Nsg80
cnumpy.core.multiarray
scalar
p4800
(g4798
S'\xa6\x01\x00\x00'
tRp4801
sg81
I600
sg82
I0
sg83
I600
sg84
I01
sbag37
asS'savePickle'
p4802
I00
sb.