ccopy_reg
_reconstructor
p1
(cpsychopy.data
ExperimentHandler
p2
c__builtin__
object
p3
NtRp4
(dp5
S'originPath'
p6
NsS'dataFileName'
p7
Vsubject646
p8
sS'runtimeInfo'
p9
NsS'name'
p10
VVERBALRBsubject 646
p11
sS'dataNames'
p12
(lp13
S'Block Number'
p14
aS'Key pressed'
p15
aS'Correct?'
p16
aS'Int Match?'
p17
aS'Int Response'
p18
aS'Int Correct?'
p19
aS'Category'
p20
aS'Line Accuracy'
p21
aS'Interference Accuracy'
p22
aS'Matching Interferences'
p23
aS'New instruction shown?'
p24
aS'Buttons switched?'
p25
aS'Fast?'
p26
asS'autoLog'
p27
I01
sS'extraInfo'
p28
(dp29
S'gender'
p30
VFemale
p31
sS'age'
p32
V20
p33
ssS'loopsUnfinished'
p34
(lp35
g1
(cpsychopy.data
TrialHandler
p36
g3
NtRp37
(dp38
S'origin'
p39
NsS'thisTrial'
p40
I9
sS'_exp'
p41
I80307184
sg10
S''
sg6
S'C:\\Users\\Mike\\Desktop\\Dual2\\NEWSpatialRB.py'
p42
sS'thisRepN'
p43
I39
sg27
I01
sg28
NsS'data'
p44
g1
(cpsychopy.data
DataHandler
p45
c__builtin__
dict
p46
(dp47
S'ran'
p48
cnumpy.ma.core
_mareconstruct
p49
(cnumpy.ma.core
MaskedArray
p50
cnumpy
ndarray
p51
(I0
tp52
S'b'
tRp53
(I1
(I15
I40
tcnumpy
dtype
p54
(S'f4'
I0
I1
tRp55
(I3
S'<'
NNNI-1
I-1
I0
tbI00
S'\x00\x00\x80?\x00\x00\x80?\x00\x00\x80?\x00\x00\x80?\x00\x00\x80?\x00\x00\x80?\x00\x00\x80?\x00\x00\x80?\x00\x00\x80?\x00\x00\x80?\x00\x00\x80?\x00\x00\x80?\x00\x00\x80?\x00\x00\x80?\x00\x00\x80?\x00\x00\x80?\x00\x00\x80?\x00\x00\x80?\x00\x00\x80?\x00\x00\x80?\x00\x00\x80?\x00\x00\x80?\x00\x00\x80?\x00\x00\x80?\x00\x00\x80?\x00\x00\x80?\x00\x00\x80?\x00\x00\x80?\x00\x00\x80?\x00\x00\x80?\x00\x00\x80?\x00\x00\x80?\x00\x00\x80?\x00\x00\x80?\x00\x00\x80?\x00\x00\x80?\x00\x00\x80?\x00\x00\x80?\x00\x00\x80?\x00\x00\x80?\x00\x00\x80?\x00\x00\x80?\x00\x00\x80?\x00\x00\x80?\x00\x00\x80?\x00\x00\x80?\x00\x00\x80?\x00\x00\x80?\x00\x00\x80?\x00\x00\x80?\x00\x00\x80?\x00\x00\x80?\x00\x00\x80?\x00\x00\x80?\x00\x00\x80?\x00\x00\x80?\x00\x00\x80?\x00\x00\x80?\x00\x00\x80?\x00\x00\x80?\x00\x00\x80?\x00\x00\x80?\x00\x00\x80?\x00\x00\x80?\x00\x00\x80?\x00\x00\x80?\x00\x00\x80?\x00\x00\x80?\x00\x00\x80?\x00\x00\x80?\x00\x00\x80?\x00\x00\x80?\x00\x00\x80?\x00\x00\x80?\x00\x00\x80?\x00\x00\x80?\x00\x00\x80?\x00\x00\x80?\x00\x00\x80?\x00\x00\x80?\x00\x00\x80?\x00\x00\x80?\x00\x00\x80?\x00\x00\x80?\x00\x00\x80?\x00\x00\x80?\x00\x00\x80?\x00\x00\x80?\x00\x00\x80?\x00\x00\x80?\x00\x00\x80?\x00\x00\x80?\x00\x00\x80?\x00\x00\x80?\x00\x00\x80?\x00\x00\x80?\x00\x00\x80?\x00\x00\x80?\x00\x00\x80?\x00\x00\x80?\x00\x00\x80?\x00\x00\x80?\x00\x00\x80?\x00\x00\x80?\x00\x00\x80?\x00\x00\x80?\x00\x00\x80?\x00\x00\x80?\x00\x00\x80?\x00\x00\x80?\x00\x00\x80?\x00\x00\x80?\x00\x00\x80?\x00\x00\x80?\x00\x00\x80?\x00\x00\x80?\x00\x00\x80?\x00\x00\x80?\x00\x00\x80?\x00\x00\x80?\x00\x00\x80?\x00\x00\x80?\x00\x00\x80?\x00\x00\x80?\x00\x00\x80?\x00\x00\x80?\x00\x00\x80?\x00\x00\x80?\x00\x00\x80?\x00\x00\x80?\x00\x00\x80?\x00\x00\x80?\x00\x00\x80?\x00\x00\x80?\x00\x00\x80?\x00\x00\x80?\x00\x00\x80?\x00\x00\x80?\x00\x00\x80?\x00\x00\x80?\x00\x00\x80?\x00\x00\x80?\x00\x00\x80?\x00\x00\x80?\x00\x00\x80?\x00\x00\x80?\x00\x00\x80?\x00\x00\x80?\x00\x00\x80?\x00\x00\x80?\x00\x00\x80?\x00\x00\x80?\x00\x00\x80?\x00\x00\x80?\x00\x00\x80?\x00\x00\x80?\x00\x00\x80?\x00\x00\x80?\x00\x00\x80?\x00\x00\x80?\x00\x00\x80?\x00\x00\x80?\x00\x00\x80?\x00\x00\x80?\x00\x00\x80?\x00\x00\x80?\x00\x00\x80?\x00\x00\x80?\x00\x00\x80?\x00\x00\x80?\x00\x00\x80?\x00\x00\x80?\x00\x00\x80?\x00\x00\x80?\x00\x00\x80?\x00\x00\x80?\x00\x00\x80?\x00\x00\x80?\x00\x00\x80?\x00\x00\x80?\x00\x00\x80?\x00\x00\x80?\x00\x00\x80?\x00\x00\x80?\x00\x00\x80?\x00\x00\x80?\x00\x00\x80?\x00\x00\x80?\x00\x00\x80?\x00\x00\x80?\x00\x00\x80?\x00\x00\x80?\x00\x00\x80?\x00\x00\x80?\x00\x00\x80?\x00\x00\x80?\x00\x00\x80?\x00\x00\x80?\x00\x00\x80?\x00\x00\x80?\x00\x00\x80?\x00\x00\x80?\x00\x00\x80?\x00\x00\x80?\x00\x00\x80?\x00\x00\x80?\x00\x00\x80?\x00\x00\x80?\x00\x00\x80?\x00\x00\x80?\x00\x00\x80?\x00\x00\x80?\x00\x00\x80?\x00\x00\x80?\x00\x00\x80?\x00\x00\x80?\x00\x00\x80?\x00\x00\x80?\x00\x00\x80?\x00\x00\x80?\x00\x00\x80?\x00\x00\x80?\x00\x00\x80?\x00\x00\x80?\x00\x00\x80?\x00\x00\x80?\x00\x00\x80?\x00\x00\x80?\x00\x00\x80?\x00\x00\x80?\x00\x00\x80?\x00\x00\x80?\x00\x00\x80?\x00\x00\x80?\x00\x00\x80?\x00\x00\x80?\x00\x00\x80?\x00\x00\x80?\x00\x00\x80?\x00\x00\x80?\x00\x00\x80?\x00\x00\x80?\x00\x00\x80?\x00\x00\x80?\x00\x00\x80?\x00\x00\x80?\x00\x00\x80?\x00\x00\x80?\x00\x00\x80?\x00\x00\x80?\x00\x00\x80?\x00\x00\x80?\x00\x00\x80?\x00\x00\x80?\x00\x00\x80?\x00\x00\x80?\x00\x00\x80?\x00\x00\x80?\x00\x00\x80?\x00\x00\x80?\x00\x00\x80?\x00\x00\x80?\x00\x00\x80?\x00\x00\x80?\x00\x00\x80?\x00\x00\x80?\x00\x00\x80?\x00\x00\x80?\x00\x00\x80?\x00\x00\x80?\x00\x00\x80?\x00\x00\x80?\x00\x00\x80?\x00\x00\x80?\x00\x00\x80?\x00\x00\x80?\x00\x00\x80?\x00\x00\x80?\x00\x00\x80?\x00\x00\x80?\x00\x00\x80?\x00\x00\x80?\x00\x00\x80?\x00\x00\x80?\x00\x00\x80?\x00\x00\x80?\x00\x00\x80?\x00\x00\x80?\x00\x00\x80?\x00\x00\x80?\x00\x00\x80?\x00\x00\x80?\x00\x00\x80?\x00\x00\x80?\x00\x00\x80?\x00\x00\x80?\x00\x00\x80?\x00\x00\x80?\x00\x00\x80?\x00\x00\x80?\x00\x00\x80?\x00\x00\x80?\x00\x00\x80?\x00\x00\x80?\x00\x00\x80?\x00\x00\x80?\x00\x00\x80?\x00\x00\x80?\x00\x00\x80?\x00\x00\x80?\x00\x00\x80?\x00\x00\x80?\x00\x00\x80?\x00\x00\x80?\x00\x00\x80?\x00\x00\x80?\x00\x00\x80?\x00\x00\x80?\x00\x00\x80?\x00\x00\x80?\x00\x00\x80?\x00\x00\x80?\x00\x00\x80?\x00\x00\x80?\x00\x00\x80?\x00\x00\x80?\x00\x00\x80?\x00\x00\x80?\x00\x00\x80?\x00\x00\x80?\x00\x00\x80?\x00\x00\x80?\x00\x00\x80?\x00\x00\x80?\x00\x00\x80?\x00\x00\x80?\x00\x00\x80?\x00\x00\x80?\x00\x00\x80?\x00\x00\x80?\x00\x00\x80?\x00\x00\x80?\x00\x00\x80?\x00\x00\x80?\x00\x00\x80?\x00\x00\x80?\x00\x00\x80?\x00\x00\x80?\x00\x00\x80?\x00\x00\x80?\x00\x00\x80?\x00\x00\x80?\x00\x00\x80?\x00\x00\x80?\x00\x00\x80?\x00\x00\x80?\x00\x00\x80?\x00\x00\x80?\x00\x00\x80?\x00\x00\x80?\x00\x00\x80?\x00\x00\x80?\x00\x00\x80?\x00\x00\x80?\x00\x00\x80?\x00\x00\x80?\x00\x00\x80?\x00\x00\x80?\x00\x00\x80?\x00\x00\x80?\x00\x00\x80?\x00\x00\x80?\x00\x00\x80?\x00\x00\x80?\x00\x00\x80?\x00\x00\x80?\x00\x00\x80?\x00\x00\x80?\x00\x00\x80?\x00\x00\x80?\x00\x00\x80?\x00\x00\x80?\x00\x00\x80?\x00\x00\x80?\x00\x00\x80?\x00\x00\x80?\x00\x00\x80?\x00\x00\x80?\x00\x00\x80?\x00\x00\x80?\x00\x00\x80?\x00\x00\x80?\x00\x00\x80?\x00\x00\x80?\x00\x00\x80?\x00\x00\x80?\x00\x00\x80?\x00\x00\x80?\x00\x00\x80?\x00\x00\x80?\x00\x00\x80?\x00\x00\x80?\x00\x00\x80?\x00\x00\x80?\x00\x00\x80?\x00\x00\x80?\x00\x00\x80?\x00\x00\x80?\x00\x00\x80?\x00\x00\x80?\x00\x00\x80?\x00\x00\x80?\x00\x00\x80?\x00\x00\x80?\x00\x00\x80?\x00\x00\x80?\x00\x00\x80?\x00\x00\x80?\x00\x00\x80?\x00\x00\x80?\x00\x00\x80?\x00\x00\x80?\x00\x00\x80?\x00\x00\x80?\x00\x00\x80?\x00\x00\x80?\x00\x00\x80?\x00\x00\x80?\x00\x00\x80?\x00\x00\x80?\x00\x00\x80?\x00\x00\x80?\x00\x00\x80?\x00\x00\x80?\x00\x00\x80?\x00\x00\x80?\x00\x00\x80?\x00\x00\x80?\x00\x00\x80?\x00\x00\x80?\x00\x00\x80?\x00\x00\x80?\x00\x00\x80?\x00\x00\x80?\x00\x00\x80?\x00\x00\x80?\x00\x00\x80?\x00\x00\x80?\x00\x00\x80?\x00\x00\x80?\x00\x00\x80?\x00\x00\x80?\x00\x00\x80?\x00\x00\x80?\x00\x00\x80?\x00\x00\x80?\x00\x00\x80?\x00\x00\x80?\x00\x00\x80?\x00\x00\x80?\x00\x00\x80?\x00\x00\x80?\x00\x00\x80?\x00\x00\x80?\x00\x00\x80?\x00\x00\x80?\x00\x00\x80?\x00\x00\x80?\x00\x00\x80?\x00\x00\x80?\x00\x00\x80?\x00\x00\x80?\x00\x00\x80?\x00\x00\x80?\x00\x00\x80?\x00\x00\x80?\x00\x00\x80?\x00\x00\x80?\x00\x00\x80?\x00\x00\x80?\x00\x00\x80?\x00\x00\x80?\x00\x00\x80?\x00\x00\x80?\x00\x00\x80?\x00\x00\x80?\x00\x00\x80?\x00\x00\x80?\x00\x00\x80?\x00\x00\x80?\x00\x00\x80?\x00\x00\x80?\x00\x00\x80?\x00\x00\x80?\x00\x00\x80?\x00\x00\x80?\x00\x00\x80?\x00\x00\x80?\x00\x00\x80?\x00\x00\x80?\x00\x00\x80?\x00\x00\x80?\x00\x00\x80?\x00\x00\x80?\x00\x00\x80?\x00\x00\x80?\x00\x00\x80?\x00\x00\x80?\x00\x00\x80?\x00\x00\x80?\x00\x00\x80?\x00\x00\x80?\x00\x00\x80?\x00\x00\x80?\x00\x00\x80?\x00\x00\x80?\x00\x00\x80?\x00\x00\x80?\x00\x00\x80?\x00\x00\x80?\x00\x00\x80?\x00\x00\x80?\x00\x00\x80?\x00\x00\x80?\x00\x00\x80?\x00\x00\x80?\x00\x00\x80?\x00\x00\x80?\x00\x00\x80?\x00\x00\x80?\x00\x00\x80?\x00\x00\x80?\x00\x00\x80?\x00\x00\x80?\x00\x00\x80?\x00\x00\x80?\x00\x00\x80?\x00\x00\x80?\x00\x00\x80?\x00\x00\x80?\x00\x00\x80?\x00\x00\x80?\x00\x00\x80?\x00\x00\x80?\x00\x00\x80?\x00\x00\x80?\x00\x00\x80?\x00\x00\x80?\x00\x00\x80?\x00\x00\x80?\x00\x00\x80?\x00\x00\x80?\x00\x00\x80?\x00\x00\x80?\x00\x00\x80?\x00\x00\x80?\x00\x00\x80?\x00\x00\x80?\x00\x00\x80?\x00\x00\x80?\x00\x00\x80?\x00\x00\x80?\x00\x00\x80?\x00\x00\x80?\x00\x00\x80?\x00\x00\x80?\x00\x00\x80?\x00\x00\x80?\x00\x00\x80?\x00\x00\x80?\x00\x00\x80?\x00\x00\x80?\x00\x00\x80?\x00\x00\x80?\x00\x00\x80?\x00\x00\x80?\x00\x00\x80?\x00\x00\x80?\x00\x00\x80?\x00\x00\x80?\x00\x00\x80?\x00\x00\x80?\x00\x00\x80?\x00\x00\x80?\x00\x00\x80?\x00\x00\x80?\x00\x00\x80?\x00\x00\x80?\x00\x00\x80?\x00\x00\x80?\x00\x00\x80?\x00\x00\x80?\x00\x00\x80?\x00\x00\x80?\x00\x00\x80?\x00\x00\x80?\x00\x00\x80?\x00\x00\x80?\x00\x00\x80?\x00\x00\x80?'
S'\x00\x00\x00\x00\x00\x00\x00\x00\x00\x00\x00\x00\x00\x00\x00\x00\x00\x00\x00\x00\x00\x00\x00\x00\x00\x00\x00\x00\x00\x00\x00\x00\x00\x00\x00\x00\x00\x00\x00\x00\x00\x00\x00\x00\x00\x00\x00\x00\x00\x00\x00\x00\x00\x00\x00\x00\x00\x00\x00\x00\x00\x00\x00\x00\x00\x00\x00\x00\x00\x00\x00\x00\x00\x00\x00\x00\x00\x00\x00\x00\x00\x00\x00\x00\x00\x00\x00\x00\x00\x00\x00\x00\x00\x00\x00\x00\x00\x00\x00\x00\x00\x00\x00\x00\x00\x00\x00\x00\x00\x00\x00\x00\x00\x00\x00\x00\x00\x00\x00\x00\x00\x00\x00\x00\x00\x00\x00\x00\x00\x00\x00\x00\x00\x00\x00\x00\x00\x00\x00\x00\x00\x00\x00\x00\x00\x00\x00\x00\x00\x00\x00\x00\x00\x00\x00\x00\x00\x00\x00\x00\x00\x00\x00\x00\x00\x00\x00\x00\x00\x00\x00\x00\x00\x00\x00\x00\x00\x00\x00\x00\x00\x00\x00\x00\x00\x00\x00\x00\x00\x00\x00\x00\x00\x00\x00\x00\x00\x00\x00\x00\x00\x00\x00\x00\x00\x00\x00\x00\x00\x00\x00\x00\x00\x00\x00\x00\x00\x00\x00\x00\x00\x00\x00\x00\x00\x00\x00\x00\x00\x00\x00\x00\x00\x00\x00\x00\x00\x00\x00\x00\x00\x00\x00\x00\x00\x00\x00\x00\x00\x00\x00\x00\x00\x00\x00\x00\x00\x00\x00\x00\x00\x00\x00\x00\x00\x00\x00\x00\x00\x00\x00\x00\x00\x00\x00\x00\x00\x00\x00\x00\x00\x00\x00\x00\x00\x00\x00\x00\x00\x00\x00\x00\x00\x00\x00\x00\x00\x00\x00\x00\x00\x00\x00\x00\x00\x00\x00\x00\x00\x00\x00\x00\x00\x00\x00\x00\x00\x00\x00\x00\x00\x00\x00\x00\x00\x00\x00\x00\x00\x00\x00\x00\x00\x00\x00\x00\x00\x00\x00\x00\x00\x00\x00\x00\x00\x00\x00\x00\x00\x00\x00\x00\x00\x00\x00\x00\x00\x00\x00\x00\x00\x00\x00\x00\x00\x00\x00\x00\x00\x00\x00\x00\x00\x00\x00\x00\x00\x00\x00\x00\x00\x00\x00\x00\x00\x00\x00\x00\x00\x00\x00\x00\x00\x00\x00\x00\x00\x00\x00\x00\x00\x00\x00\x00\x00\x00\x00\x00\x00\x00\x00\x00\x00\x00\x00\x00\x00\x00\x00\x00\x00\x00\x00\x00\x00\x00\x00\x00\x00\x00\x00\x00\x00\x00\x00\x00\x00\x00\x00\x00\x00\x00\x00\x00\x00\x00\x00\x00\x00\x00\x00\x00\x00\x00\x00\x00\x00\x00\x00\x00\x00\x00\x00\x00\x00\x00\x00\x00\x00\x00\x00\x00\x00\x00\x00\x00\x00\x00\x00\x00\x00\x00\x00\x00\x00\x00\x00\x00\x00\x00\x00\x00\x00\x00\x00\x00\x00\x00\x00\x00\x00\x00\x00\x00\x00\x00\x00\x00\x00\x00\x00\x00\x00\x00\x00\x00\x00\x00\x00\x00\x00\x00\x00\x00\x00\x00\x00\x00\x00\x00\x00\x00\x00\x00\x00\x00\x00\x00\x00\x00\x00\x00\x00\x00\x00\x00\x00\x00\x00\x00\x00\x00\x00\x00\x00\x00\x00\x00\x00\x00\x00\x00\x00\x00\x00\x00\x00\x00\x00\x00\x00\x00\x00\x00\x00\x00\x00\x00\x00\x00\x00\x00\x00\x00\x00\x00\x00\x00\x00\x00\x00\x00\x00\x00\x00\x00\x00\x00\x00\x00'
NtbsS'order'
p56
g49
(g50
g51
g52
S'b'
tRp57
(I1
(I15
I40
tg55
I00
S'\x00\x00\xc0@\x00\x00\xa8A\x00\x00\xe8A\x00\x00\x1cB\x00\x00(B\x00\x004B\x00\x00hB\x00\x00xB\x00\x00\xbaB\x00\x00\xf4B\x00\x00\xf8B\x00\x00(C\x00\x009C\x00\x00\x83C\x00\x80\x8cC\x00\x00\x92C\x00\x00\x93C\x00\x80\x95C\x00\x00\x98C\x00\x80\x9eC\x00\x80\xa3C\x00\x00\xaaC\x00\x80\xacC\x00\x80\xaeC\x00\x80\xb5C\x00\x80\xbcC\x00\x00\xc4C\x00\x00\xc7C\x00\x80\xc9C\x00\x00\xdeC\x00\x80\xe8C\x00\x00\xf3C\x00\x80\xfaC\x00\x00\x00D\x00@\x07D\x00\xc0\x07D\x00\x00\nD\x00\x80\x0bD\x00\xc0\x0bD\x00@\x14D\x00\x00\x00A\x00\x00\xf8A\x00\x00$B\x00\x00\x8aB\x00\x00\x94B\x00\x00\x9cB\x00\x00\xb4B\x00\x00\xbeB\x00\x00\x10C\x00\x00\x15C\x00\x00%C\x00\x00+C\x00\x006C\x00\x00MC\x00\x00`C\x00\x00gC\x00\x00wC\x00\x80\x8dC\x00\x80\x94C\x00\x00\x96C\x00\x80\x98C\x00\x00\x99C\x00\x80\x9aC\x00\x00\x9fC\x00\x80\xa0C\x00\x80\xb4C\x00\x80\xb9C\x00\x00\xbbC\x00\x00\xc9C\x00\x00\xccC\x00\x00\xd6C\x00\x00\xd7C\x00\x80\xd8C\x00\x80\xe6C\x00@\x02D\x00\xc0\x03D\x00\x80\tD\x00\x00\x0bD\x00\x80\x0eD\x00\x80\x12D\x00\x00\x80?\x00\x00\x88A\x00\x00\x10B\x00\x00tB\x00\x00|B\x00\x00\x90B\x00\x00\xaaB\x00\x00\xc0B\x00\x00\xe0B\x00\x00\x03C\x00\x00)C\x00\x008C\x00\x00AC\x00\x00SC\x00\x00WC\x00\x80\x81C\x00\x80\x84C\x00\x80\x86C\x00\x80\x87C\x00\x00\x90C\x00\x80\x90C\x00\x80\x9dC\x00\x80\xaaC\x00\x00\xb5C\x00\x80\xc0C\x00\x00\xd2C\x00\x80\xdaC\x00\x00\xe2C\x00\x00\xe8C\x00\x00\xecC\x00\x00\xefC\x00\x00\xf9C\x00\x80\xfeC\x00@\x04D\x00\xc0\x04D\x00\x80\x05D\x00@\x06D\x00@\tD\x00@\x0bD\x00\xc0\x11D\x00\x00\x08B\x00\x00\x18B\x00\x00pB\x00\x00\xa8B\x00\x00\x14C\x00\x00\x1eC\x00\x00"C\x00\x00*C\x00\x00,C\x00\x00?C\x00\x00@C\x00\x00BC\x00\x00uC\x00\x00xC\x00\x00|C\x00\x00\x84C\x00\x00\x89C\x00\x80\x96C\x00\x80\x9cC\x00\x80\x9fC\x00\x00\xa6C\x00\x00\xa8C\x00\x80\xb2C\x00\x80\xbdC\x00\x80\xc3C\x00\x80\xc4C\x00\x80\xcaC\x00\x00\xceC\x00\x00\xcfC\x00\x00\xd8C\x00\x00\xe3C\x00\x00\xebC\x00\x00\xedC\x00\x80\xefC\x00\x00\xf0C\x00\x00\xf7C\x00\x00\xfaC\x00@\x01D\x00\x80\x01D\x00\x00\x02D\x00\x00\x80A\x00\x00PB\x00\x00`B\x00\x00dB\x00\x00\xa2B\x00\x00\xb0B\x00\x00\xccB\x00\x00\xd4B\x00\x00\x06C\x00\x00\x08C\x00\x00\x0cC\x00\x00#C\x00\x00/C\x00\x001C\x00\x002C\x00\x003C\x00\x007C\x00\x00RC\x00\x00VC\x00\x00YC\x00\x00aC\x00\x00bC\x00\x00tC\x00\x00~C\x00\x00\xa3C\x00\x00\xa9C\x00\x80\xadC\x00\x00\xc0C\x00\x80\xc8C\x00\x00\xdbC\x00\x00\xe6C\x00\x00\xe7C\x00\x80\xeaC\x00\x80\xf6C\x00\x80\xffC\x00\xc0\x00D\x00@\nD\x00\x80\nD\x00\xc0\rD\x00\x80\x14D\x00\x00\x14B\x00\x00HB\x00\x00\x84B\x00\x00\x86B\x00\x00\x92B\x00\x00\xb2B\x00\x00\xc4B\x00\x00\xfeB\x00\x00\'C\x00\x004C\x00\x00;C\x00\x00LC\x00\x00cC\x00\x00kC\x00\x00}C\x00\x80\x82C\x00\x00\x8eC\x00\x00\x95C\x00\x00\x9bC\x00\x00\xa5C\x00\x80\xa9C\x00\x00\xb4C\x00\x00\xb7C\x00\x00\xb9C\x00\x00\xbdC\x00\x00\xc8C\x00\x80\xcbC\x00\x00\xd0C\x00\x00\xd1C\x00\x80\xdcC\x00\x80\xdeC\x00\x00\xdfC\x00\x80\xe0C\x00\x00\xeaC\x00\x80\xf0C\x00\x00\xf4C\x00\x80\xfcC\x00\x80\x00D\x00@\x03D\x00\xc0\x08D\x00\x00\xe0@\x00\x00PA\x00\x00`A\x00\x00\x0cB\x00\x00,B\x00\x00\x8eB\x00\x00\xacB\x00\x00\xb8B\x00\x00\xc2B\x00\x00\xe4B\x00\x00\xe6B\x00\x00\xf0B\x00\x00\x04C\x00\x00-C\x00\x005C\x00\x00IC\x00\x00OC\x00\x80\x88C\x00\x00\x8dC\x00\x80\x8fC\x00\x80\x93C\x00\x00\x97C\x00\x00\xa2C\x00\x00\xa4C\x00\x80\xbfC\x00\x80\xd4C\x00\x80\xd6C\x00\x00\xdcC\x00\x80\xe2C\x00\x80\xebC\x00\x80\xecC\x00\x00\xffC\x00\xc0\x02D\x00@\x08D\x00@\x0cD\x00@\x10D\x00\x80\x11D\x00\xc0\x12D\x00\x80\x13D\x00\x80\x15D\x00\x000A\x00\x00\x04B\x00\x00DB\x00\x00TB\x00\x00\\B\x00\x00\x9eB\x00\x00\xaeB\x00\x00\xe8B\x00\x00\xeaB\x00\x00\xecB\x00\x00\x00C\x00\x00\x05C\x00\x00\x07C\x00\x00.C\x00\x00>C\x00\x00CC\x00\x00GC\x00\x00UC\x00\x00^C\x00\x00dC\x00\x00jC\x00\x00lC\x00\x00zC\x00\x00\x94C\x00\x00\x9aC\x00\x00\x9cC\x00\x80\xa2C\x00\x00\xafC\x00\x80\xafC\x00\x00\xb2C\x00\x00\xbaC\x00\x00\xc3C\x00\x00\xcbC\x00\x00\xd5C\x00\x80\xe7C\x00\x00\xf1C\x00\x80\xf5C\x00\x80\xfdC\x00\x00\x01D\x00\x80\x03D\x00\x00\x00\x00\x00\x00\x00@\x00\x00\xc0A\x00\x00 B\x00\x00XB\x00\x00\x02C\x00\x00\x0bC\x00\x00\x19C\x00\x00\x1aC\x00\x00 C\x00\x000C\x00\x00<C\x00\x00EC\x00\x00fC\x00\x00iC\x00\x00oC\x00\x00\x85C\x00\x00\x88C\x00\x80\x89C\x00\x80\x92C\x00\x00\xa0C\x00\x80\xa4C\x00\x00\xa7C\x00\x80\xb0C\x00\x80\xbeC\x00\x00\xbfC\x00\x80\xc7C\x00\x00\xd4C\x00\x80\xe3C\x00\x00\xf2C\x00\x00\xf5C\x00\x80\xf9C\x00\x80\xfbC\x00\x00\xfdC\x00\x80\x02D\x00\x00\x07D\x00@\x0eD\x00\xc0\x10D\x00@\x11D\x00\xc0\x13D\x00\x00\x80@\x00\x00\xa0@\x00\x00pA\x00\x00\xb8A\x00\x00<B\x00\x00\x82B\x00\x00\xbcB\x00\x00\xceB\x00\x00\xdaB\x00\x00\xf2B\x00\x00\xfcB\x00\x00\x13C\x00\x00HC\x00\x00JC\x00\x00TC\x00\x00]C\x00\x00rC\x00\x00\x81C\x00\x80\xa8C\x00\x80\xbaC\x00\x00\xbeC\x00\x80\xd2C\x00\x80\xd9C\x00\x80\xddC\x00\x80\xdfC\x00\x80\xe1C\x00\x80\xe4C\x00\x00\xe9C\x00\x80\xf1C\x00\x00\xfcC\x00\x00\x03D\x00\xc0\x05D\x00\x00\x08D\x00\x00\rD\x00\x00\x0fD\x00\x80\x0fD\x00\xc0\x0fD\x00@\x12D\x00@\x13D\x00\xc0\x15D\x00\x00@A\x00\x00\xd0A\x00\x00\x00B\x00\x00\x96B\x00\x00\x9aB\x00\x00\xc8B\x00\x00\xd0B\x00\x00\xd2B\x00\x00\xd8B\x00\x00\xdcB\x00\x00\x12C\x00\x00&C\x00\x00\\C\x00\x00hC\x00\x00qC\x00\x00\x7fC\x00\x00\x80C\x00\x80\x8aC\x00\x80\x8bC\x00\x80\xa5C\x00\x80\xa6C\x00\x00\xaeC\x00\x80\xb8C\x00\x00\xc1C\x00\x00\xc5C\x00\x80\xc5C\x00\x80\xccC\x00\x80\xd5C\x00\x00\xdaC\x00\x00\xe5C\x00\x80\xedC\x00\x00\xeeC\x00\x80\xf8C\x00\xc0\x01D\x00\x80\x04D\x00\x80\x06D\x00\x80\x08D\x00\xc0\tD\x00\xc0\x0cD\x00@\x0fD\x00\x00\x98A\x00\x00\xe0A\x00\x00LB\x00\x00\x88B\x00\x00\xa4B\x00\x00\xc6B\x00\x00\xcaB\x00\x00\xd6B\x00\x00\xdeB\x00\x00\xe2B\x00\x00\xf6B\x00\x00\xfaB\x00\x00\tC\x00\x00\nC\x00\x00:C\x00\x00=C\x00\x00DC\x00\x00KC\x00\x00NC\x00\x00nC\x00\x00{C\x00\x00\x86C\x00\x00\x91C\x00\x80\x97C\x00\x80\x99C\x00\x80\x9bC\x00\x00\xadC\x00\x00\xb1C\x00\x00\xb6C\x00\x80\xb7C\x00\x00\xb8C\x00\x80\xd0C\x00\x00\xd3C\x00\x00\xddC\x00\x80\xe9C\x00\x00\xf8C\x00\x00\x05D\x00\x00\tD\x00\xc0\x14D\x00\x00\x15D\x00\x00 A\x00\x00\xa0A\x00\x00\xb0A\x00\x00\xc8A\x00\x00\xf0A\x00\x00@B\x00\x00lB\x00\x00\x8cB\x00\x00\xa0B\x00\x00\x01C\x00\x00\rC\x00\x00\x17C\x00\x00\x18C\x00\x00\x1bC\x00\x00\x1cC\x00\x00!C\x00\x00FC\x00\x00XC\x00\x00ZC\x00\x00_C\x00\x00sC\x00\x00\x9dC\x00\x80\xa1C\x00\x00\xabC\x00\x00\xb3C\x00\x80\xb6C\x00\x80\xbbC\x00\x00\xbcC\x00\x80\xcfC\x00\x80\xd1C\x00\x80\xdbC\x00\x00\xe1C\x00\x80\xf2C\x00\x00\xf6C\x00\x00\xfbC\x00@\x05D\x00\x00\x0cD\x00\x80\x0cD\x00\x80\rD\x00\x00\x12D\x00\x00@@\x00\x00\xd8A\x00\x00\x80B\x00\x00\xb6B\x00\x00\x0eC\x00\x00\x0fC\x00\x00\x11C\x00\x00\x16C\x00\x00\x1fC\x00\x00QC\x00\x00[C\x00\x00vC\x00\x80\x80C\x00\x80\x83C\x00\x80\x85C\x00\x00\x8fC\x00\x80\x91C\x00\x00\x9eC\x00\x00\xa1C\x00\x80\xa7C\x00\x80\xabC\x00\x00\xacC\x00\x80\xb1C\x00\x80\xb3C\x00\x00\xc6C\x00\x80\xc6C\x00\x00\xcaC\x00\x80\xcdC\x00\x80\xd3C\x00\x80\xd7C\x00\x00\xd9C\x00\x00\xfeC\x00\x00\x04D\x00\xc0\nD\x00@\rD\x00\x00\x0eD\x00\xc0\x0eD\x00\x80\x10D\x00\x00\x11D\x00\x00\x13D\x00\x00\x10A\x00\x00\x90A\x00\x000B\x00\x008B\x00\x00\x98B\x00\x00\xa6B\x00\x00\xeeB\x00\x00\x1dC\x00\x00$C\x00\x00PC\x00\x00eC\x00\x00mC\x00\x00pC\x00\x00yC\x00\x00\x82C\x00\x00\x87C\x00\x00\x8aC\x00\x00\x8bC\x00\x00\x8cC\x00\x80\x8eC\x00\x00\xb0C\x00\x80\xc1C\x00\x00\xc2C\x00\x80\xc2C\x00\x00\xcdC\x00\x80\xceC\x00\x00\xe0C\x00\x00\xe4C\x00\x80\xe5C\x00\x80\xeeC\x00\x80\xf3C\x00\x80\xf4C\x00\x80\xf7C\x00@\x00D\x00\x00\x06D\x00\xc0\x06D\x00\x80\x07D\x00\x00\x10D\x00\x00\x14D\x00@\x15D'
S'\x00\x00\x00\x00\x00\x00\x00\x00\x00\x00\x00\x00\x00\x00\x00\x00\x00\x00\x00\x00\x00\x00\x00\x00\x00\x00\x00\x00\x00\x00\x00\x00\x00\x00\x00\x00\x00\x00\x00\x00\x00\x00\x00\x00\x00\x00\x00\x00\x00\x00\x00\x00\x00\x00\x00\x00\x00\x00\x00\x00\x00\x00\x00\x00\x00\x00\x00\x00\x00\x00\x00\x00\x00\x00\x00\x00\x00\x00\x00\x00\x00\x00\x00\x00\x00\x00\x00\x00\x00\x00\x00\x00\x00\x00\x00\x00\x00\x00\x00\x00\x00\x00\x00\x00\x00\x00\x00\x00\x00\x00\x00\x00\x00\x00\x00\x00\x00\x00\x00\x00\x00\x00\x00\x00\x00\x00\x00\x00\x00\x00\x00\x00\x00\x00\x00\x00\x00\x00\x00\x00\x00\x00\x00\x00\x00\x00\x00\x00\x00\x00\x00\x00\x00\x00\x00\x00\x00\x00\x00\x00\x00\x00\x00\x00\x00\x00\x00\x00\x00\x00\x00\x00\x00\x00\x00\x00\x00\x00\x00\x00\x00\x00\x00\x00\x00\x00\x00\x00\x00\x00\x00\x00\x00\x00\x00\x00\x00\x00\x00\x00\x00\x00\x00\x00\x00\x00\x00\x00\x00\x00\x00\x00\x00\x00\x00\x00\x00\x00\x00\x00\x00\x00\x00\x00\x00\x00\x00\x00\x00\x00\x00\x00\x00\x00\x00\x00\x00\x00\x00\x00\x00\x00\x00\x00\x00\x00\x00\x00\x00\x00\x00\x00\x00\x00\x00\x00\x00\x00\x00\x00\x00\x00\x00\x00\x00\x00\x00\x00\x00\x00\x00\x00\x00\x00\x00\x00\x00\x00\x00\x00\x00\x00\x00\x00\x00\x00\x00\x00\x00\x00\x00\x00\x00\x00\x00\x00\x00\x00\x00\x00\x00\x00\x00\x00\x00\x00\x00\x00\x00\x00\x00\x00\x00\x00\x00\x00\x00\x00\x00\x00\x00\x00\x00\x00\x00\x00\x00\x00\x00\x00\x00\x00\x00\x00\x00\x00\x00\x00\x00\x00\x00\x00\x00\x00\x00\x00\x00\x00\x00\x00\x00\x00\x00\x00\x00\x00\x00\x00\x00\x00\x00\x00\x00\x00\x00\x00\x00\x00\x00\x00\x00\x00\x00\x00\x00\x00\x00\x00\x00\x00\x00\x00\x00\x00\x00\x00\x00\x00\x00\x00\x00\x00\x00\x00\x00\x00\x00\x00\x00\x00\x00\x00\x00\x00\x00\x00\x00\x00\x00\x00\x00\x00\x00\x00\x00\x00\x00\x00\x00\x00\x00\x00\x00\x00\x00\x00\x00\x00\x00\x00\x00\x00\x00\x00\x00\x00\x00\x00\x00\x00\x00\x00\x00\x00\x00\x00\x00\x00\x00\x00\x00\x00\x00\x00\x00\x00\x00\x00\x00\x00\x00\x00\x00\x00\x00\x00\x00\x00\x00\x00\x00\x00\x00\x00\x00\x00\x00\x00\x00\x00\x00\x00\x00\x00\x00\x00\x00\x00\x00\x00\x00\x00\x00\x00\x00\x00\x00\x00\x00\x00\x00\x00\x00\x00\x00\x00\x00\x00\x00\x00\x00\x00\x00\x00\x00\x00\x00\x00\x00\x00\x00\x00\x00\x00\x00\x00\x00\x00\x00\x00\x00\x00\x00\x00\x00\x00\x00\x00\x00\x00\x00\x00\x00\x00\x00\x00\x00\x00\x00\x00\x00\x00\x00\x00\x00\x00\x00\x00\x00\x00\x00\x00\x00\x00\x00\x00\x00\x00\x00\x00\x00\x00\x00\x00\x00\x00\x00\x00\x00\x00\x00\x00\x00\x00\x00\x00\x00\x00\x00\x00\x00\x00\x00\x00\x00\x00\x00\x00\x00\x00'
NtbstRp58
(dp59
S'isNumeric'
p60
(dp61
g48
I01
sg56
I01
ssS'trials'
p62
g37
sS'dataTypes'
p63
(lp64
g48
ag56
asS'dataShape'
p65
(lp66
I15
aI40
asbsS'method'
p67
S'fullRandom'
p68
sS'sequenceIndices'
p69
cnumpy.core.multiarray
_reconstruct
p70
(g51
(I0
tS'b'
tRp71
(I1
(I15
I40
tg54
(S'O4'
I0
I1
tRp72
(I3
S'|'
NNNI-1
I-1
I63
tbI00
(lp73
I8
aI9
aI12
aI0
aI3
aI10
aI1
aI10
aI6
aI7
aI13
aI1
aI5
aI7
aI4
aI4
aI14
aI10
aI14
aI14
aI1
aI2
aI5
aI0
aI5
aI12
aI7
aI3
aI2
aI9
aI12
aI0
aI3
aI14
aI6
aI5
aI8
aI13
aI1
aI9
aI2
aI4
aI1
aI14
aI2
aI14
aI13
aI4
aI9
aI4
aI12
aI10
aI6
aI11
aI2
aI4
aI10
aI10
aI2
aI13
aI3
aI13
aI10
aI11
aI1
aI12
aI3
aI7
aI9
aI10
aI9
aI9
aI5
aI11
aI4
aI7
aI0
aI1
aI13
aI1
aI8
aI2
aI10
aI9
aI0
aI10
aI6
aI11
aI0
aI11
aI12
aI5
aI1
aI8
aI9
aI5
aI9
aI13
aI8
aI6
aI6
aI0
aI3
aI4
aI2
aI0
aI0
aI5
aI11
aI2
aI2
aI11
aI7
aI10
aI0
aI1
aI14
aI2
aI9
aI6
aI13
aI14
aI7
aI12
aI2
aI1
aI0
aI10
aI11
aI11
aI8
aI0
aI4
aI12
aI7
aI7
aI12
aI9
aI6
aI2
aI11
aI1
aI10
aI10
aI0
aI5
aI3
aI1
aI13
aI4
aI6
aI5
aI9
aI2
aI14
aI13
aI0
aI0
aI10
aI13
aI9
aI11
aI3
aI7
aI13
aI7
aI9
aI9
aI0
aI8
aI8
aI2
aI2
aI7
aI4
aI14
aI4
aI2
aI3
aI2
aI0
aI3
aI8
aI0
aI11
aI3
aI10
aI10
aI8
aI12
aI3
aI4
aI8
aI8
aI5
aI2
aI9
aI0
aI9
aI9
aI9
aI12
aI6
aI5
aI9
aI12
aI1
aI10
aI11
aI4
aI12
aI3
aI0
aI9
aI2
aI8
aI3
aI14
aI8
aI11
aI1
aI8
aI13
aI7
aI12
aI9
aI10
aI14
aI6
aI6
aI8
aI3
aI12
aI3
aI4
aI10
aI6
aI12
aI9
aI6
aI0
aI0
aI2
aI11
aI5
aI4
aI2
aI11
aI9
aI12
aI12
aI1
aI11
aI6
aI12
aI1
aI13
aI5
aI14
aI13
aI1
aI1
aI3
aI7
aI5
aI8
aI13
aI13
aI7
aI5
aI14
aI6
aI0
aI0
aI7
aI2
aI10
aI6
aI14
aI8
aI6
aI12
aI5
aI4
aI5
aI11
aI6
aI2
aI5
aI13
aI14
aI3
aI5
aI9
aI4
aI10
aI1
aI0
aI10
aI0
aI11
aI13
aI9
aI14
aI11
aI8
aI13
aI3
aI10
aI11
aI9
aI2
aI14
aI12
aI3
aI11
aI5
aI12
aI6
aI14
aI1
aI9
aI3
aI7
aI11
aI14
aI5
aI11
aI7
aI13
aI3
aI6
aI8
aI11
aI12
aI8
aI3
aI13
aI14
aI8
aI7
aI12
aI4
aI8
aI11
aI6
aI0
aI14
aI1
aI9
aI10
aI6
aI5
aI8
aI3
aI12
aI11
aI10
aI13
aI0
aI14
aI8
aI0
aI8
aI1
aI3
aI11
aI6
aI12
aI1
aI13
aI7
aI11
aI5
aI13
aI7
aI14
aI3
aI10
aI0
aI1
aI6
aI5
aI11
aI10
aI4
aI8
aI3
aI6
aI0
aI14
aI3
aI14
aI9
aI10
aI2
aI2
aI9
aI8
aI4
aI12
aI12
aI8
aI7
aI12
aI2
aI10
aI6
aI8
aI13
aI8
aI4
aI7
aI1
aI10
aI5
aI7
aI2
aI14
aI6
aI5
aI7
aI0
aI13
aI5
aI2
aI5
aI12
aI1
aI5
aI4
aI10
aI8
aI5
aI3
aI9
aI1
aI13
aI13
aI11
aI7
aI10
aI1
aI4
aI6
aI6
aI11
aI7
aI2
aI10
aI12
aI8
aI3
aI11
aI9
aI7
aI11
aI8
aI0
aI7
aI11
aI4
aI2
aI7
aI1
aI10
aI4
aI5
aI13
aI5
aI1
aI10
aI7
aI8
aI1
aI14
aI10
aI12
aI8
aI11
aI10
aI13
aI0
aI4
aI2
aI7
aI4
aI7
aI6
aI9
aI3
aI4
aI3
aI6
aI7
aI14
aI3
aI13
aI6
aI1
aI7
aI0
aI12
aI3
aI7
aI14
aI1
aI11
aI3
aI9
aI4
aI14
aI12
aI7
aI8
aI2
aI0
aI4
aI6
aI14
aI6
aI11
aI6
aI0
aI5
aI4
aI9
aI7
aI7
aI3
aI4
aI4
aI2
aI14
aI12
aI11
aI5
aI11
aI1
aI5
aI3
aI6
aI13
aI12
aI9
aI14
aI0
aI5
aI1
aI14
aI7
aI2
aI4
aI13
aI6
aI10
aI4
aI13
aI2
aI6
aI6
aI0
aI14
aI12
aI1
aI5
aI10
aI14
aI4
aI1
aI14
aI4
aI3
aI13
aI1
aI8
aI4
aI2
aI5
aI0
aI12
aI8
aI13
aI13
aI1
aI14
aI13
aI12
aI13
aI5
aI2
aI3
aI3
aI2
aI9
aI14
aI4
aI8
aI12
aI9
atbsS'finished'
p74
I00
sS'nReps'
p75
I40
sS'nRemaining'
p76
I0
sS'trialList'
p77
(lp78
I0
aI1
aI2
aI3
aI4
aI5
aI6
aI7
aI8
aI9
aI10
aI11
aI12
aI13
aI14
asS'seed'
p79
NsS'thisIndex'
p80
I9
sS'thisN'
p81
I599
sS'thisTrialN'
p82
I14
sS'nTotal'
p83
I600
sS'_warnUseOfNext'
p84
I01
sbasS'saveWideText'
p85
I00
sS'thisEntry'
p86
(dp87
sS'version'
p88
S''
sS'_paramNamesSoFar'
p89
(lp90
sS'entries'
p91
(lp92
(dp93
S'.thisTrial'
p94
I8
sS'.thisN'
p95
I0
sg30
g31
sg32
g33
sS'.thisTrialN'
p96
I0
sS'.thisRepN'
p97
I0
sS'.thisIndex'
p98
I8
sg15
Nsg16
S'Timed out'
p99
sg14
I1
sa(dp100
g94
I2
sS'.thisN'
p101
I1
sg30
g31
sg32
g33
sS'.thisTrialN'
p102
I1
sS'.thisRepN'
p103
I0
sS'.thisIndex'
p104
I2
sg15
Nsg16
g99
sg14
I1
sa(dp105
g17
S'Y'
sS'.thisRepN'
p106
I0
sg19
S'N'
sg32
g33
sS'.thisTrialN'
p107
I2
sS'.thisN'
p108
I2
sS'.thisIndex'
p109
I8
sg15
Nsg30
g31
sg16
g99
sg14
I1
sg18
Nsg94
I8
sa(dp110
g17
S'N'
sS'.thisRepN'
p111
I0
sg19
S'Y'
sg32
g33
sS'.thisTrialN'
p112
I3
sS'.thisN'
p113
I3
sS'.thisIndex'
p114
I13
sg15
Nsg30
g31
sg16
g99
sg14
I1
sg18
Nsg94
I13
sa(dp115
g20
(lp116
S'd'
asg17
S'Y'
sS'.thisRepN'
p117
I0
sg19
S'N'
sg32
g33
sS'.thisTrialN'
p118
I4
sS'.thisN'
p119
I4
sS'.thisIndex'
p120
I9
sg15
(lp121
S'd'
asg30
g31
sg16
S'Y'
sg14
I1
sg18
(lp122
S'd'
asg94
I9
sa(dp123
g20
(lp124
S'k'
asg17
S'Y'
sS'.thisRepN'
p125
I0
sg19
S'N'
sg32
g33
sS'.thisTrialN'
p126
I5
sS'.thisN'
p127
I5
sS'.thisIndex'
p128
I9
sg15
(lp129
S'k'
asg30
g31
sg16
S'Y'
sg14
I1
sg18
Nsg94
I9
sa(dp130
g20
(lp131
S'd'
asg17
S'N'
sS'.thisRepN'
p132
I0
sg19
S'Y'
sg32
g33
sS'.thisTrialN'
p133
I6
sS'.thisN'
p134
I6
sS'.thisIndex'
p135
I0
sg15
(lp136
S'd'
asg30
g31
sg16
S'Y'
sg14
I1
sg18
Nsg94
I0
sa(dp137
g20
(lp138
S'd'
asg17
S'N'
sS'.thisRepN'
p139
I0
sg19
S'Y'
sg32
g33
sS'.thisTrialN'
p140
I7
sS'.thisN'
p141
I7
sS'.thisIndex'
p142
I6
sg15
(lp143
S'k'
asg30
g31
sg16
S'N'
sg14
I1
sg18
Nsg94
I6
sa(dp144
g20
(lp145
S'k'
asg17
S'N'
sS'.thisRepN'
p146
I0
sg19
S'Y'
sg32
g33
sS'.thisTrialN'
p147
I8
sS'.thisN'
p148
I8
sS'.thisIndex'
p149
I1
sg15
(lp150
S'd'
asg30
g31
sg16
S'N'
sg14
I1
sg18
Nsg94
I1
sa(dp151
g20
(lp152
S'd'
asg17
S'N'
sS'.thisRepN'
p153
I0
sg19
S'Y'
sg32
g33
sS'.thisTrialN'
p154
I9
sS'.thisN'
p155
I9
sS'.thisIndex'
p156
I14
sg15
(lp157
S'd'
asg30
g31
sg16
S'Y'
sg14
I1
sg18
Nsg94
I14
sa(dp158
g20
(lp159
S'd'
asg17
S'N'
sS'.thisRepN'
p160
I0
sg19
S'Y'
sg32
g33
sS'.thisTrialN'
p161
I10
sS'.thisN'
p162
I10
sS'.thisIndex'
p163
I12
sg15
(lp164
S'k'
asg30
g31
sg16
S'N'
sg14
I1
sg18
Nsg94
I12
sa(dp165
g20
(lp166
S'k'
asg17
S'N'
sS'.thisRepN'
p167
I0
sg19
S'Y'
sg32
g33
sS'.thisTrialN'
p168
I11
sS'.thisN'
p169
I11
sS'.thisIndex'
p170
I7
sg15
(lp171
S'd'
asg30
g31
sg16
S'N'
sg14
I1
sg18
Nsg94
I7
sa(dp172
g20
(lp173
S'k'
asg17
S'N'
sS'.thisRepN'
p174
I0
sg19
S'Y'
sg32
g33
sS'.thisTrialN'
p175
I12
sS'.thisN'
p176
I12
sS'.thisIndex'
p177
I10
sg15
(lp178
S'k'
asg30
g31
sg16
S'Y'
sg14
I1
sg18
Nsg94
I10
sa(dp179
g20
(lp180
S'd'
asg17
S'Y'
sS'.thisRepN'
p181
I0
sg19
S'Y'
sg32
g33
sS'.thisTrialN'
p182
I13
sS'.thisN'
p183
I13
sS'.thisIndex'
p184
I6
sg15
(lp185
S'd'
asg30
g31
sg16
S'Y'
sg14
I1
sg18
(lp186
S'space'
p187
asg94
I6
sa(dp188
g20
(lp189
S'd'
asg17
S'N'
sS'.thisRepN'
p190
I0
sg19
S'Y'
sg32
g33
sS'.thisTrialN'
p191
I14
sS'.thisN'
p192
I14
sS'.thisIndex'
p193
I6
sg15
(lp194
S'k'
asg30
g31
sg16
S'N'
sg14
I1
sg18
Nsg94
I6
sa(dp195
g20
(lp196
S'd'
asg17
S'N'
sS'.thisRepN'
p197
I1
sg19
S'Y'
sg32
g33
sS'.thisTrialN'
p198
I0
sS'.thisN'
p199
I15
sS'.thisIndex'
p200
I9
sg15
(lp201
S'd'
asg30
g31
sg16
S'Y'
sg14
I1
sg18
Nsg94
I9
sa(dp202
g20
(lp203
S'k'
asg17
S'N'
sS'.thisRepN'
p204
I1
sg19
S'Y'
sg32
g33
sS'.thisTrialN'
p205
I1
sS'.thisN'
p206
I16
sS'.thisIndex'
p207
I4
sg15
(lp208
S'k'
asg30
g31
sg16
S'Y'
sg14
I1
sg18
Nsg94
I4
sa(dp209
g20
(lp210
S'd'
asg17
S'Y'
sS'.thisRepN'
p211
I1
sg19
S'N'
sg32
g33
sS'.thisTrialN'
p212
I2
sS'.thisN'
p213
I17
sS'.thisIndex'
p214
I2
sg15
(lp215
S'd'
asg30
g31
sg16
S'Y'
sg14
I1
sg18
(lp216
S'd'
asg94
I2
sa(dp217
g20
(lp218
S'k'
asg17
S'Y'
sS'.thisRepN'
p219
I1
sg19
S'N'
sg32
g33
sS'.thisTrialN'
p220
I3
sS'.thisN'
p221
I18
sS'.thisIndex'
p222
I14
sg15
(lp223
S'k'
asg30
g31
sg16
S'Y'
sg14
I1
sg18
Nsg94
I14
sa(dp224
g20
(lp225
S'd'
asg17
S'N'
sS'.thisRepN'
p226
I1
sg19
S'Y'
sg32
g33
sS'.thisTrialN'
p227
I4
sS'.thisN'
p228
I19
sS'.thisIndex'
p229
I11
sg15
(lp230
S'd'
asg30
g31
sg16
S'Y'
sg14
I1
sg18
Nsg94
I11
sa(dp231
g20
(lp232
S'k'
asg17
S'Y'
sS'.thisRepN'
p233
I1
sg19
S'Y'
sg32
g33
sS'.thisTrialN'
p234
I5
sS'.thisN'
p235
I20
sS'.thisIndex'
p236
I12
sg15
(lp237
S'k'
asg30
g31
sg16
S'Y'
sg14
I1
sg18
(lp238
S'space'
p239
asg94
I12
sa(dp240
g20
(lp241
S'd'
asg17
S'N'
sS'.thisRepN'
p242
I1
sg19
S'Y'
sg32
g33
sS'.thisTrialN'
p243
I6
sS'.thisN'
p244
I21
sS'.thisIndex'
p245
I0
sg15
(lp246
S'd'
asg30
g31
sg16
S'Y'
sg14
I1
sg18
Nsg94
I0
sa(dp247
g20
(lp248
S'k'
asg17
S'N'
sS'.thisRepN'
p249
I1
sg19
S'Y'
sg32
g33
sS'.thisTrialN'
p250
I7
sS'.thisN'
p251
I22
sS'.thisIndex'
p252
I12
sg15
(lp253
S'd'
asg30
g31
sg16
S'N'
sg14
I1
sg18
Nsg94
I12
sa(dp254
g20
(lp255
S'k'
asg17
S'Y'
sS'.thisRepN'
p256
I1
sg19
S'N'
sg32
g33
sS'.thisTrialN'
p257
I8
sS'.thisN'
p258
I23
sS'.thisIndex'
p259
I9
sg15
(lp260
S'd'
asg30
g31
sg16
S'N'
sg14
I1
sg18
Nsg94
I9
sa(dp261
g20
(lp262
S'k'
asg17
S'N'
sS'.thisRepN'
p263
I1
sg19
S'Y'
sg32
g33
sS'.thisTrialN'
p264
I9
sS'.thisN'
p265
I24
sS'.thisIndex'
p266
I8
sg15
(lp267
S'k'
asg30
g31
sg16
S'Y'
sg14
I1
sg18
Nsg94
I8
sa(dp268
g20
(lp269
S'k'
asg17
S'Y'
sS'.thisRepN'
p270
I1
sg19
S'Y'
sg32
g33
sS'.thisTrialN'
p271
I10
sS'.thisN'
p272
I25
sS'.thisIndex'
p273
I12
sg15
(lp274
S'k'
asg30
g31
sg16
S'Y'
sg14
I1
sg18
(lp275
S'space'
p276
asg94
I12
sa(dp277
g20
(lp278
S'k'
asg17
S'N'
sS'.thisRepN'
p279
I1
sg19
S'Y'
sg32
g33
sS'.thisTrialN'
p280
I11
sS'.thisN'
p281
I26
sS'.thisIndex'
p282
I10
sg15
(lp283
S'd'
asg30
g31
sg16
S'N'
sg14
I1
sg18
Nsg94
I10
sa(dp284
g20
(lp285
S'd'
asg17
S'N'
sS'.thisRepN'
p286
I1
sg19
S'Y'
sg32
g33
sS'.thisTrialN'
p287
I12
sS'.thisN'
p288
I27
sS'.thisIndex'
p289
I13
sg15
(lp290
S'd'
asg30
g31
sg16
S'Y'
sg14
I1
sg18
Nsg94
I13
sa(dp291
g20
(lp292
S'k'
asg17
S'N'
sS'.thisRepN'
p293
I1
sg19
S'Y'
sg32
g33
sS'.thisTrialN'
p294
I13
sS'.thisN'
p295
I28
sS'.thisIndex'
p296
I11
sg15
(lp297
S'k'
asg30
g31
sg16
S'Y'
sg14
I1
sg18
Nsg94
I11
sa(dp298
g20
(lp299
S'k'
asg17
S'Y'
sS'.thisRepN'
p300
I1
sg19
S'Y'
sg32
g33
sS'.thisTrialN'
p301
I14
sS'.thisN'
p302
I29
sS'.thisIndex'
p303
I0
sg15
(lp304
S'd'
asg30
g31
sg16
S'N'
sg14
I1
sg18
(lp305
S'space'
p306
asg94
I0
sa(dp307
g20
(lp308
S'k'
asg17
S'Y'
sS'.thisRepN'
p309
I2
sg19
S'Y'
sg32
g33
sS'.thisTrialN'
p310
I0
sS'.thisN'
p311
I30
sS'.thisIndex'
p312
I12
sg15
(lp313
S'd'
asg30
g31
sg16
S'N'
sg14
I1
sg18
(lp314
S'space'
p315
asg94
I12
sa(dp316
g20
(lp317
S'd'
asg17
S'N'
sS'.thisRepN'
p318
I2
sg19
S'Y'
sg32
g33
sS'.thisTrialN'
p319
I1
sS'.thisN'
p320
I31
sS'.thisIndex'
p321
I1
sg15
(lp322
S'k'
asg30
g31
sg16
S'N'
sg14
I1
sg18
Nsg94
I1
sa(dp323
g20
(lp324
S'k'
asg17
S'Y'
sS'.thisRepN'
p325
I2
sg19
S'N'
sg32
g33
sS'.thisTrialN'
p326
I2
sS'.thisN'
p327
I32
sS'.thisIndex'
p328
I10
sg15
(lp329
S'd'
asg30
g31
sg16
S'N'
sg14
I1
sg18
Nsg94
I10
sa(dp330
g20
(lp331
S'd'
asg17
S'N'
sS'.thisRepN'
p332
I2
sg19
S'Y'
sg32
g33
sS'.thisTrialN'
p333
I3
sS'.thisN'
p334
I33
sS'.thisIndex'
p335
I7
sg15
(lp336
S'd'
asg30
g31
sg16
S'Y'
sg14
I1
sg18
Nsg94
I7
sa(dp337
g20
(lp338
S'd'
asg17
S'N'
sS'.thisRepN'
p339
I2
sg19
S'Y'
sg32
g33
sS'.thisTrialN'
p340
I4
sS'.thisN'
p341
I34
sS'.thisIndex'
p342
I3
sg15
(lp343
S'k'
asg30
g31
sg16
S'N'
sg14
I1
sg18
Nsg94
I3
sa(dp344
g20
(lp345
S'k'
asg17
S'Y'
sS'.thisRepN'
p346
I2
sg19
S'N'
sg32
g33
sS'.thisTrialN'
p347
I5
sS'.thisN'
p348
I35
sS'.thisIndex'
p349
I6
sg15
(lp350
S'd'
asg30
g31
sg16
S'N'
sg14
I1
sg18
Nsg94
I6
sa(dp351
g20
(lp352
S'd'
asg17
S'N'
sS'.thisRepN'
p353
I2
sg19
S'Y'
sg32
g33
sS'.thisTrialN'
p354
I6
sS'.thisN'
p355
I36
sS'.thisIndex'
p356
I2
sg15
(lp357
S'k'
asg30
g31
sg16
S'N'
sg14
I1
sg18
Nsg94
I2
sa(dp358
g20
(lp359
S'k'
asg17
S'N'
sS'.thisRepN'
p360
I2
sg19
S'Y'
sg32
g33
sS'.thisTrialN'
p361
I7
sS'.thisN'
p362
I37
sS'.thisIndex'
p363
I5
sg15
(lp364
S'k'
asg30
g31
sg16
S'Y'
sg14
I1
sg18
Nsg94
I5
sa(dp365
g20
(lp366
S'k'
asg17
S'Y'
sS'.thisRepN'
p367
I2
sg19
S'Y'
sg32
g33
sS'.thisTrialN'
p368
I8
sS'.thisN'
p369
I38
sS'.thisIndex'
p370
I3
sg15
(lp371
S'd'
asg30
g31
sg16
S'N'
sg14
I1
sg18
(lp372
S'space'
p373
asg94
I3
sa(dp374
g20
(lp375
S'd'
asg17
S'N'
sS'.thisRepN'
p376
I2
sg19
S'Y'
sg32
g33
sS'.thisTrialN'
p377
I9
sS'.thisN'
p378
I39
sS'.thisIndex'
p379
I0
sg15
(lp380
S'd'
asg30
g31
sg16
S'Y'
sg14
I1
sg18
Nsg94
I0
sa(dp381
g20
(lp382
S'k'
asg17
S'N'
sS'.thisRepN'
p383
I2
sg19
S'Y'
sg32
g33
sS'.thisTrialN'
p384
I10
sS'.thisN'
p385
I40
sS'.thisIndex'
p386
I8
sg15
(lp387
S'k'
asg30
g31
sg16
S'Y'
sg14
I1
sg18
Nsg94
I8
sa(dp388
g20
(lp389
S'k'
asg17
S'Y'
sS'.thisRepN'
p390
I2
sg19
S'Y'
sg32
g33
sS'.thisTrialN'
p391
I11
sS'.thisN'
p392
I41
sS'.thisIndex'
p393
I1
sg15
(lp394
S'd'
asg30
g31
sg16
S'N'
sg14
I1
sg18
(lp395
S'space'
p396
asg94
I1
sa(dp397
g20
(lp398
S'd'
asg17
S'Y'
sS'.thisRepN'
p399
I2
sg19
S'Y'
sg32
g33
sS'.thisTrialN'
p400
I12
sS'.thisN'
p401
I42
sS'.thisIndex'
p402
I0
sg15
(lp403
S'k'
asg30
g31
sg16
S'N'
sg14
I1
sg18
(lp404
S'space'
p405
asg94
I0
sa(dp406
g20
(lp407
S'd'
asg17
S'N'
sS'.thisRepN'
p408
I2
sg19
S'Y'
sg32
g33
sS'.thisTrialN'
p409
I13
sS'.thisN'
p410
I43
sS'.thisIndex'
p411
I6
sg15
(lp412
S'd'
asg30
g31
sg16
S'Y'
sg14
I1
sg18
Nsg94
I6
sa(dp413
g20
(lp414
S'd'
asg17
S'N'
sS'.thisRepN'
p415
I2
sg19
S'Y'
sg32
g33
sS'.thisTrialN'
p416
I14
sS'.thisN'
p417
I44
sS'.thisIndex'
p418
I14
sg15
(lp419
S'k'
asg30
g31
sg16
S'N'
sg14
I1
sg18
Nsg94
I14
sa(dp420
g20
(lp421
S'd'
asg17
S'Y'
sS'.thisRepN'
p422
I3
sg19
S'Y'
sg32
g33
sS'.thisTrialN'
p423
I0
sS'.thisN'
p424
I45
sS'.thisIndex'
p425
I0
sg15
(lp426
S'k'
asg30
g31
sg16
S'N'
sg14
I1
sg18
(lp427
S'space'
p428
asg94
I0
sa(dp429
g20
(lp430
S'd'
asg17
S'Y'
sS'.thisRepN'
p431
I3
sg19
S'N'
sg32
g33
sS'.thisTrialN'
p432
I1
sS'.thisN'
p433
I46
sS'.thisIndex'
p434
I14
sg15
(lp435
S'd'
asg30
g31
sg16
S'Y'
sg14
I1
sg18
Nsg94
I14
sa(dp436
g20
(lp437
S'd'
asg17
S'N'
sS'.thisRepN'
p438
I3
sg19
S'Y'
sg32
g33
sS'.thisTrialN'
p439
I2
sS'.thisN'
p440
I47
sS'.thisIndex'
p441
I9
sg15
(lp442
S'k'
asg30
g31
sg16
S'N'
sg14
I1
sg18
Nsg94
I9
sa(dp443
g20
(lp444
S'd'
asg17
S'Y'
sS'.thisRepN'
p445
I3
sg19
S'Y'
sg32
g33
sS'.thisTrialN'
p446
I3
sS'.thisN'
p447
I48
sS'.thisIndex'
p448
I12
sg15
(lp449
S'k'
asg30
g31
sg16
S'N'
sg14
I1
sg18
(lp450
S'space'
p451
asg94
I12
sa(dp452
g20
(lp453
S'd'
asg17
S'N'
sg22
I39
sS'.thisN'
p454
I49
sg19
S'Y'
sg32
g33
sS'.thisTrialN'
p455
I4
sS'.thisRepN'
p456
I3
sg21
I24
sS'.thisIndex'
p457
I7
sg23
I19
sg15
(lp458
S'd'
asg30
g31
sg16
S'Y'
sg14
I1
sg18
Nsg94
I7
sa(dp459
g20
(lp460
S'k'
asg94
I5
sS'.thisRepN'
p461
I3
sg30
g31
sg32
g33
sS'.thisTrialN'
p462
I5
sS'.thisN'
p463
I50
sS'.thisIndex'
p464
I5
sg15
(lp465
S'd'
asg16
S'N'
sg14
I2
sa(dp466
g20
(lp467
S'k'
asg94
I11
sS'.thisRepN'
p468
I3
sg30
g31
sg32
g33
sS'.thisTrialN'
p469
I6
sS'.thisN'
p470
I51
sS'.thisIndex'
p471
I11
sg15
(lp472
S'd'
asg16
S'N'
sg14
I2
sa(dp473
g20
(lp474
S'k'
asg17
S'N'
sS'.thisRepN'
p475
I3
sg19
S'Y'
sg32
g33
sS'.thisTrialN'
p476
I7
sS'.thisN'
p477
I52
sS'.thisIndex'
p478
I4
sg15
(lp479
S'd'
asg30
g31
sg16
S'N'
sg14
I2
sg18
Nsg94
I4
sa(dp480
g20
(lp481
S'd'
asg17
S'Y'
sS'.thisRepN'
p482
I3
sg19
S'Y'
sg32
g33
sS'.thisTrialN'
p483
I8
sS'.thisN'
p484
I53
sS'.thisIndex'
p485
I7
sg15
(lp486
S'd'
asg30
g31
sg16
S'Y'
sg14
I2
sg18
(lp487
S'space'
p488
asg94
I7
sa(dp489
g20
(lp490
S'k'
asg17
S'N'
sS'.thisRepN'
p491
I3
sg19
S'Y'
sg32
g33
sS'.thisTrialN'
p492
I9
sS'.thisN'
p493
I54
sS'.thisIndex'
p494
I8
sg15
(lp495
S'k'
asg30
g31
sg16
S'Y'
sg14
I2
sg18
Nsg94
I8
sa(dp496
g20
(lp497
S'd'
asg17
S'N'
sS'.thisRepN'
p498
I3
sg19
S'N'
sg32
g33
sS'.thisTrialN'
p499
I10
sS'.thisN'
p500
I55
sS'.thisIndex'
p501
I7
sg15
(lp502
S'd'
asg30
g31
sg16
S'Y'
sg14
I2
sg18
(lp503
S'space'
p504
asg94
I7
sa(dp505
g20
(lp506
S'd'
asg17
S'Y'
sS'.thisRepN'
p507
I3
sg19
S'N'
sg32
g33
sS'.thisTrialN'
p508
I11
sS'.thisN'
p509
I56
sS'.thisIndex'
p510
I4
sg15
(lp511
S'k'
asg30
g31
sg16
S'N'
sg14
I2
sg18
Nsg94
I4
sa(dp512
g20
(lp513
S'k'
asg17
S'Y'
sS'.thisRepN'
p514
I3
sg19
S'Y'
sg32
g33
sS'.thisTrialN'
p515
I12
sS'.thisN'
p516
I57
sS'.thisIndex'
p517
I4
sg15
(lp518
S'k'
asg30
g31
sg16
S'Y'
sg14
I2
sg18
(lp519
S'space'
p520
asg94
I4
sa(dp521
g20
(lp522
S'k'
asg17
S'Y'
sS'.thisRepN'
p523
I3
sg19
S'N'
sg32
g33
sS'.thisTrialN'
p524
I13
sS'.thisN'
p525
I58
sS'.thisIndex'
p526
I0
sg15
(lp527
S'k'
asg30
g31
sg16
S'Y'
sg14
I2
sg18
Nsg94
I0
sa(dp528
g20
(lp529
S'd'
asg17
S'N'
sS'.thisRepN'
p530
I3
sg19
S'Y'
sg32
g33
sS'.thisTrialN'
p531
I14
sS'.thisN'
p532
I59
sS'.thisIndex'
p533
I12
sg15
(lp534
S'k'
asg30
g31
sg16
S'N'
sg14
I2
sg18
Nsg94
I12
sa(dp535
g20
(lp536
S'k'
asg17
S'N'
sS'.thisRepN'
p537
I4
sg19
S'Y'
sg32
g33
sS'.thisTrialN'
p538
I0
sS'.thisN'
p539
I60
sS'.thisIndex'
p540
I3
sg15
(lp541
S'd'
asg30
g31
sg16
S'N'
sg14
I2
sg18
Nsg94
I3
sa(dp542
g20
(lp543
S'd'
asg17
S'N'
sS'.thisRepN'
p544
I4
sg19
S'Y'
sg32
g33
sS'.thisTrialN'
p545
I1
sS'.thisN'
p546
I61
sS'.thisIndex'
p547
I2
sg15
(lp548
S'd'
asg30
g31
sg16
S'Y'
sg14
I2
sg18
Nsg94
I2
sa(dp549
g20
(lp550
S'd'
asg17
S'N'
sS'.thisRepN'
p551
I4
sg19
S'N'
sg32
g33
sS'.thisTrialN'
p552
I2
sS'.thisN'
p553
I62
sS'.thisIndex'
p554
I0
sg15
(lp555
S'k'
asg30
g31
sg16
S'N'
sg14
I2
sg18
(lp556
S'space'
p557
asg94
I0
sa(dp558
g20
(lp559
S'd'
asg17
S'N'
sS'.thisRepN'
p560
I4
sg19
S'Y'
sg32
g33
sS'.thisTrialN'
p561
I3
sS'.thisN'
p562
I63
sS'.thisIndex'
p563
I2
sg15
(lp564
S'd'
asg30
g31
sg16
S'Y'
sg14
I2
sg18
Nsg94
I2
sa(dp565
g20
(lp566
S'd'
asg17
S'Y'
sS'.thisRepN'
p567
I4
sg19
S'N'
sg32
g33
sS'.thisTrialN'
p568
I4
sS'.thisN'
p569
I64
sS'.thisIndex'
p570
I13
sg15
(lp571
S'k'
asg30
g31
sg16
S'N'
sg14
I2
sg18
Nsg94
I13
sa(dp572
g20
(lp573
S'k'
asg17
S'N'
sS'.thisRepN'
p574
I4
sg19
S'Y'
sg32
g33
sS'.thisTrialN'
p575
I5
sS'.thisN'
p576
I65
sS'.thisIndex'
p577
I9
sg15
(lp578
S'd'
asg30
g31
sg16
S'N'
sg14
I2
sg18
Nsg94
I9
sa(dp579
g20
(lp580
S'k'
asg17
S'Y'
sS'.thisRepN'
p581
I4
sg19
S'Y'
sg32
g33
sS'.thisTrialN'
p582
I6
sS'.thisN'
p583
I66
sS'.thisIndex'
p584
I5
sg15
(lp585
S'd'
asg30
g31
sg16
S'N'
sg14
I2
sg18
(lp586
S'space'
p587
asg94
I5
sa(dp588
g20
(lp589
S'd'
asg17
S'N'
sS'.thisRepN'
p590
I4
sg19
S'Y'
sg32
g33
sS'.thisTrialN'
p591
I7
sS'.thisN'
p592
I67
sS'.thisIndex'
p593
I5
sg15
(lp594
S'd'
asg30
g31
sg16
S'Y'
sg14
I2
sg18
Nsg94
I5
sa(dp595
g20
(lp596
S'k'
asg17
S'Y'
sS'.thisRepN'
p597
I4
sg19
S'Y'
sg32
g33
sS'.thisTrialN'
p598
I8
sS'.thisN'
p599
I68
sS'.thisIndex'
p600
I11
sg15
(lp601
S'k'
asg30
g31
sg16
S'Y'
sg14
I2
sg18
(lp602
S'space'
p603
asg94
I11
sa(dp604
g20
(lp605
S'd'
asg17
S'Y'
sS'.thisRepN'
p606
I4
sg19
S'Y'
sg32
g33
sS'.thisTrialN'
p607
I9
sS'.thisN'
p608
I69
sS'.thisIndex'
p609
I1
sg15
(lp610
S'd'
asg30
g31
sg16
S'Y'
sg14
I2
sg18
(lp611
S'space'
p612
asg94
I1
sa(dp613
g20
(lp614
S'd'
asg17
S'N'
sS'.thisRepN'
p615
I4
sg19
S'Y'
sg32
g33
sS'.thisTrialN'
p616
I10
sS'.thisN'
p617
I70
sS'.thisIndex'
p618
I12
sg15
(lp619
S'k'
asg30
g31
sg16
S'N'
sg14
I2
sg18
Nsg94
I12
sa(dp620
g20
(lp621
S'd'
asg17
S'Y'
sS'.thisRepN'
p622
I4
sg19
S'Y'
sg32
g33
sS'.thisTrialN'
p623
I11
sS'.thisN'
p624
I71
sS'.thisIndex'
p625
I6
sg15
(lp626
S'd'
asg30
g31
sg16
S'Y'
sg14
I2
sg18
(lp627
S'space'
p628
asg94
I6
sa(dp629
g20
(lp630
S'd'
asg17
S'N'
sS'.thisRepN'
p631
I4
sg19
S'Y'
sg32
g33
sS'.thisTrialN'
p632
I12
sS'.thisN'
p633
I72
sS'.thisIndex'
p634
I2
sg15
(lp635
S'k'
asg30
g31
sg16
S'N'
sg14
I2
sg18
Nsg94
I2
sa(dp636
g20
(lp637
S'd'
asg17
S'N'
sS'.thisRepN'
p638
I4
sg19
S'Y'
sg32
g33
sS'.thisTrialN'
p639
I13
sS'.thisN'
p640
I73
sS'.thisIndex'
p641
I5
sg15
(lp642
S'd'
asg30
g31
sg16
S'Y'
sg14
I2
sg18
Nsg94
I5
sa(dp643
g20
(lp644
S'd'
asg17
S'Y'
sS'.thisRepN'
p645
I4
sg19
S'Y'
sg32
g33
sS'.thisTrialN'
p646
I14
sS'.thisN'
p647
I74
sS'.thisIndex'
p648
I1
sg15
(lp649
S'k'
asg30
g31
sg16
S'N'
sg14
I2
sg18
(lp650
S'space'
p651
asg94
I1
sa(dp652
g20
(lp653
S'd'
asg17
S'N'
sS'.thisRepN'
p654
I5
sg19
S'Y'
sg32
g33
sS'.thisTrialN'
p655
I0
sS'.thisN'
p656
I75
sS'.thisIndex'
p657
I10
sg15
(lp658
S'd'
asg30
g31
sg16
S'Y'
sg14
I2
sg18
Nsg94
I10
sa(dp659
g20
(lp660
S'd'
asg17
S'N'
sS'.thisRepN'
p661
I5
sg19
S'N'
sg32
g33
sS'.thisTrialN'
p662
I1
sS'.thisN'
p663
I76
sS'.thisIndex'
p664
I14
sg15
(lp665
S'd'
asg30
g31
sg16
S'Y'
sg14
I2
sg18
(lp666
S'space'
p667
asg94
I14
sa(dp668
g20
(lp669
S'd'
asg17
S'N'
sS'.thisRepN'
p670
I5
sg19
S'Y'
sg32
g33
sS'.thisTrialN'
p671
I2
sS'.thisN'
p672
I77
sS'.thisIndex'
p673
I10
sg15
(lp674
S'k'
asg30
g31
sg16
S'N'
sg14
I2
sg18
Nsg94
I10
sa(dp675
g20
(lp676
S'd'
asg17
S'N'
sS'.thisRepN'
p677
I5
sg19
S'Y'
sg32
g33
sS'.thisTrialN'
p678
I3
sS'.thisN'
p679
I78
sS'.thisIndex'
p680
I1
sg15
(lp681
S'd'
asg30
g31
sg16
S'Y'
sg14
I2
sg18
Nsg94
I1
sa(dp682
g20
(lp683
S'd'
asg17
S'Y'
sS'.thisRepN'
p684
I5
sg19
S'Y'
sg32
g33
sS'.thisTrialN'
p685
I4
sS'.thisN'
p686
I79
sS'.thisIndex'
p687
I7
sg15
(lp688
S'd'
asg30
g31
sg16
S'Y'
sg14
I2
sg18
(lp689
S'space'
p690
asg94
I7
sa(dp691
g20
(lp692
S'k'
asg17
S'Y'
sS'.thisRepN'
p693
I5
sg19
S'Y'
sg32
g33
sS'.thisTrialN'
p694
I5
sS'.thisN'
p695
I80
sS'.thisIndex'
p696
I12
sg15
(lp697
S'd'
asg30
g31
sg16
S'N'
sg14
I2
sg18
(lp698
S'space'
p699
asg94
I12
sa(dp700
g20
(lp701
S'd'
asg17
S'N'
sS'.thisRepN'
p702
I5
sg19
S'Y'
sg32
g33
sS'.thisTrialN'
p703
I6
sS'.thisN'
p704
I81
sS'.thisIndex'
p705
I4
sg15
(lp706
S'd'
asg30
g31
sg16
S'Y'
sg14
I2
sg18
Nsg94
I4
sa(dp707
g20
(lp708
S'd'
asg17
S'Y'
sS'.thisRepN'
p709
I5
sg19
S'N'
sg32
g33
sS'.thisTrialN'
p710
I7
sS'.thisN'
p711
I82
sS'.thisIndex'
p712
I11
sg15
(lp713
S'k'
asg30
g31
sg16
S'N'
sg14
I2
sg18
Nsg94
I11
sa(dp714
g20
(lp715
S'k'
asg17
S'Y'
sS'.thisRepN'
p716
I5
sg19
S'Y'
sg32
g33
sS'.thisTrialN'
p717
I8
sS'.thisN'
p718
I83
sS'.thisIndex'
p719
I14
sg15
(lp720
S'd'
asg30
g31
sg16
S'N'
sg14
I2
sg18
(lp721
S'space'
p722
asg94
I14
sa(dp723
g20
(lp724
S'd'
asg17
S'N'
sS'.thisRepN'
p725
I5
sg19
S'Y'
sg32
g33
sS'.thisTrialN'
p726
I9
sS'.thisN'
p727
I84
sS'.thisIndex'
p728
I3
sg15
(lp729
S'd'
asg30
g31
sg16
S'Y'
sg14
I2
sg18
Nsg94
I3
sa(dp730
g20
(lp731
S'k'
asg17
S'Y'
sS'.thisRepN'
p732
I5
sg19
S'Y'
sg32
g33
sS'.thisTrialN'
p733
I10
sS'.thisN'
p734
I85
sS'.thisIndex'
p735
I2
sg15
(lp736
S'k'
asg30
g31
sg16
S'Y'
sg14
I2
sg18
(lp737
S'space'
p738
asg94
I2
sa(dp739
g20
(lp740
S'd'
asg17
S'N'
sS'.thisRepN'
p741
I5
sg19
S'Y'
sg32
g33
sS'.thisTrialN'
p742
I11
sS'.thisN'
p743
I86
sS'.thisIndex'
p744
I6
sg15
(lp745
S'd'
asg30
g31
sg16
S'Y'
sg14
I2
sg18
Nsg94
I6
sa(dp746
g20
(lp747
S'k'
asg17
S'Y'
sS'.thisRepN'
p748
I5
sg19
S'Y'
sg32
g33
sS'.thisTrialN'
p749
I12
sS'.thisN'
p750
I87
sS'.thisIndex'
p751
I7
sg15
(lp752
S'd'
asg30
g31
sg16
S'N'
sg14
I2
sg18
(lp753
S'space'
p754
asg94
I7
sa(dp755
g20
(lp756
S'k'
asg17
S'Y'
sS'.thisRepN'
p757
I5
sg19
S'Y'
sg32
g33
sS'.thisTrialN'
p758
I13
sS'.thisN'
p759
I88
sS'.thisIndex'
p760
I4
sg15
(lp761
S'k'
asg30
g31
sg16
S'Y'
sg14
I2
sg18
(lp762
S'space'
p763
asg94
I4
sa(dp764
g20
(lp765
S'k'
asg17
S'Y'
sS'.thisRepN'
p766
I5
sg19
S'N'
sg32
g33
sS'.thisTrialN'
p767
I14
sS'.thisN'
p768
I89
sS'.thisIndex'
p769
I5
sg15
(lp770
S'd'
asg30
g31
sg16
S'N'
sg14
I2
sg18
Nsg94
I5
sa(dp771
g20
(lp772
S'k'
asg17
S'N'
sS'.thisRepN'
p773
I6
sg19
S'Y'
sg32
g33
sS'.thisTrialN'
p774
I0
sS'.thisN'
p775
I90
sS'.thisIndex'
p776
I1
sg15
(lp777
S'k'
asg30
g31
sg16
S'Y'
sg14
I2
sg18
Nsg94
I1
sa(dp778
g20
(lp779
S'd'
asg17
S'N'
sS'.thisRepN'
p780
I6
sg19
S'Y'
sg32
g33
sS'.thisTrialN'
p781
I1
sS'.thisN'
p782
I91
sS'.thisIndex'
p783
I13
sg15
(lp784
S'k'
asg30
g31
sg16
S'N'
sg14
I2
sg18
Nsg94
I13
sa(dp785
g20
(lp786
S'd'
asg17
S'Y'
sS'.thisRepN'
p787
I6
sg19
S'Y'
sg32
g33
sS'.thisTrialN'
p788
I2
sS'.thisN'
p789
I92
sS'.thisIndex'
p790
I6
sg15
(lp791
S'd'
asg30
g31
sg16
S'Y'
sg14
I2
sg18
(lp792
S'space'
p793
asg94
I6
sa(dp794
g20
(lp795
S'd'
asg17
S'N'
sS'.thisRepN'
p796
I6
sg19
S'N'
sg32
g33
sS'.thisTrialN'
p797
I3
sS'.thisN'
p798
I93
sS'.thisIndex'
p799
I0
sg15
(lp800
S'd'
asg30
g31
sg16
S'Y'
sg14
I2
sg18
(lp801
S'k'
asg94
I0
sa(dp802
g20
(lp803
S'k'
asg17
S'Y'
sS'.thisRepN'
p804
I6
sg19
S'N'
sg32
g33
sS'.thisTrialN'
p805
I4
sS'.thisN'
p806
I94
sS'.thisIndex'
p807
I9
sg15
(lp808
S'd'
asg30
g31
sg16
S'N'
sg14
I2
sg18
Nsg94
I9
sa(dp809
g20
(lp810
S'k'
asg17
S'N'
sS'.thisRepN'
p811
I6
sg19
S'Y'
sg32
g33
sS'.thisTrialN'
p812
I5
sS'.thisN'
p813
I95
sS'.thisIndex'
p814
I1
sg15
(lp815
S'k'
asg30
g31
sg16
S'Y'
sg14
I2
sg18
Nsg94
I1
sa(dp816
g20
(lp817
S'd'
asg17
S'N'
sS'.thisRepN'
p818
I6
sg19
S'Y'
sg32
g33
sS'.thisTrialN'
p819
I6
sS'.thisN'
p820
I96
sS'.thisIndex'
p821
I2
sg15
(lp822
S'k'
asg30
g31
sg16
S'N'
sg14
I2
sg18
Nsg94
I2
sa(dp823
g20
(lp824
S'd'
asg17
S'Y'
sS'.thisRepN'
p825
I6
sg19
S'Y'
sg32
g33
sS'.thisTrialN'
p826
I7
sS'.thisN'
p827
I97
sS'.thisIndex'
p828
I6
sg15
(lp829
S'k'
asg30
g31
sg16
S'N'
sg14
I2
sg18
(lp830
S'space'
p831
asg94
I6
sa(dp832
g20
(lp833
S'k'
asg17
S'Y'
sS'.thisRepN'
p834
I6
sg19
S'Y'
sg32
g33
sS'.thisTrialN'
p835
I8
sS'.thisN'
p836
I98
sS'.thisIndex'
p837
I5
sg15
(lp838
S'd'
asg30
g31
sg16
S'N'
sg14
I2
sg18
(lp839
S'space'
p840
asg94
I5
sa(dp841
g20
(lp842
S'k'
asg17
S'N'
sg22
I38
sS'.thisN'
p843
I99
sg19
S'Y'
sg32
g33
sS'.thisTrialN'
p844
I9
sS'.thisRepN'
p845
I6
sg21
I26
sS'.thisIndex'
p846
I11
sg23
I22
sg15
(lp847
S'k'
asg30
g31
sg16
S'Y'
sg14
I2
sg18
Nsg94
I11
sa(dp848
g20
(lp849
S'd'
asg94
I10
sS'.thisRepN'
p850
I6
sg30
g31
sg32
g33
sS'.thisTrialN'
p851
I10
sS'.thisN'
p852
I100
sS'.thisIndex'
p853
I10
sg15
(lp854
S'd'
asg16
S'Y'
sg14
I3
sa(dp855
g20
(lp856
S'k'
asg94
I11
sS'.thisRepN'
p857
I6
sg30
g31
sg32
g33
sS'.thisTrialN'
p858
I11
sS'.thisN'
p859
I101
sS'.thisIndex'
p860
I11
sg15
(lp861
S'd'
asg16
S'N'
sg14
I3
sa(dp862
g20
(lp863
S'd'
asg17
S'Y'
sS'.thisRepN'
p864
I6
sg19
S'N'
sg32
g33
sS'.thisTrialN'
p865
I12
sS'.thisN'
p866
I102
sS'.thisIndex'
p867
I4
sg15
(lp868
S'k'
asg30
g31
sg16
S'N'
sg14
I3
sg18
Nsg94
I4
sa(dp869
g20
(lp870
S'k'
asg17
S'N'
sS'.thisRepN'
p871
I6
sg19
S'Y'
sg32
g33
sS'.thisTrialN'
p872
I13
sS'.thisN'
p873
I103
sS'.thisIndex'
p874
I9
sg15
(lp875
S'k'
asg30
g31
sg16
S'Y'
sg14
I3
sg18
Nsg94
I9
sa(dp876
g20
(lp877
S'k'
asg17
S'N'
sS'.thisRepN'
p878
I6
sg19
S'Y'
sg32
g33
sS'.thisTrialN'
p879
I14
sS'.thisN'
p880
I104
sS'.thisIndex'
p881
I10
sg15
(lp882
S'k'
asg30
g31
sg16
S'Y'
sg14
I3
sg18
Nsg94
I10
sa(dp883
g20
(lp884
S'k'
asg17
S'Y'
sS'.thisRepN'
p885
I7
sg19
S'Y'
sg32
g33
sS'.thisTrialN'
p886
I0
sS'.thisN'
p887
I105
sS'.thisIndex'
p888
I10
sg15
(lp889
S'd'
asg30
g31
sg16
S'N'
sg14
I3
sg18
(lp890
S'space'
p891
asg94
I10
sa(dp892
g20
(lp893
S'k'
asg17
S'Y'
sS'.thisRepN'
p894
I7
sg19
S'Y'
sg32
g33
sS'.thisTrialN'
p895
I1
sS'.thisN'
p896
I106
sS'.thisIndex'
p897
I4
sg15
(lp898
S'k'
asg30
g31
sg16
S'Y'
sg14
I3
sg18
(lp899
S'space'
p900
asg94
I4
sa(dp901
g20
(lp902
S'd'
asg17
S'N'
sS'.thisRepN'
p903
I7
sg19
S'Y'
sg32
g33
sS'.thisTrialN'
p904
I2
sS'.thisN'
p905
I107
sS'.thisIndex'
p906
I11
sg15
(lp907
S'k'
asg30
g31
sg16
S'N'
sg14
I3
sg18
Nsg94
I11
sa(dp908
g20
(lp909
S'k'
asg17
S'Y'
sS'.thisRepN'
p910
I7
sg19
S'N'
sg32
g33
sS'.thisTrialN'
p911
I3
sS'.thisN'
p912
I108
sS'.thisIndex'
p913
I10
sg15
(lp914
S'd'
asg30
g31
sg16
S'N'
sg14
I3
sg18
Nsg94
I10
sa(dp915
g20
(lp916
S'k'
asg17
S'Y'
sS'.thisRepN'
p917
I7
sg19
S'N'
sg32
g33
sS'.thisTrialN'
p918
I4
sS'.thisN'
p919
I109
sS'.thisIndex'
p920
I9
sg15
(lp921
S'd'
asg30
g31
sg16
S'N'
sg14
I3
sg18
Nsg94
I9
sa(dp922
g20
(lp923
S'k'
asg17
S'Y'
sS'.thisRepN'
p924
I7
sg19
S'N'
sg32
g33
sS'.thisTrialN'
p925
I5
sS'.thisN'
p926
I110
sS'.thisIndex'
p927
I10
sg15
(lp928
S'd'
asg30
g31
sg16
S'N'
sg14
I3
sg18
Nsg94
I10
sa(dp929
g20
(lp930
S'd'
asg17
S'Y'
sS'.thisRepN'
p931
I7
sg19
S'Y'
sg32
g33
sS'.thisTrialN'
p932
I6
sS'.thisN'
p933
I111
sS'.thisIndex'
p934
I11
sg15
(lp935
S'k'
asg30
g31
sg16
S'N'
sg14
I3
sg18
(lp936
S'space'
p937
asg94
I11
sa(dp938
g20
(lp939
S'd'
asg17
S'N'
sS'.thisRepN'
p940
I7
sg19
S'Y'
sg32
g33
sS'.thisTrialN'
p941
I7
sS'.thisN'
p942
I112
sS'.thisIndex'
p943
I2
sg15
(lp944
S'd'
asg30
g31
sg16
S'Y'
sg14
I3
sg18
Nsg94
I2
sa(dp945
g20
(lp946
S'd'
asg17
S'Y'
sS'.thisRepN'
p947
I7
sg19
S'N'
sg32
g33
sS'.thisTrialN'
p948
I8
sS'.thisN'
p949
I113
sS'.thisIndex'
p950
I11
sg15
(lp951
S'k'
asg30
g31
sg16
S'N'
sg14
I3
sg18
Nsg94
I11
sa(dp952
g20
(lp953
S'd'
asg17
S'Y'
sS'.thisRepN'
p954
I7
sg19
S'Y'
sg32
g33
sS'.thisTrialN'
p955
I9
sS'.thisN'
p956
I114
sS'.thisIndex'
p957
I6
sg15
(lp958
S'd'
asg30
g31
sg16
S'Y'
sg14
I3
sg18
(lp959
S'space'
p960
asg94
I6
sa(dp961
g20
(lp962
S'k'
asg17
S'N'
sS'.thisRepN'
p963
I7
sg19
S'Y'
sg32
g33
sS'.thisTrialN'
p964
I10
sS'.thisN'
p965
I115
sS'.thisIndex'
p966
I6
sg15
(lp967
S'k'
asg30
g31
sg16
S'Y'
sg14
I3
sg18
Nsg94
I6
sa(dp968
g20
(lp969
S'k'
asg17
S'N'
sS'.thisRepN'
p970
I7
sg19
S'Y'
sg32
g33
sS'.thisTrialN'
p971
I11
sS'.thisN'
p972
I116
sS'.thisIndex'
p973
I7
sg15
(lp974
S'd'
asg30
g31
sg16
S'N'
sg14
I3
sg18
Nsg94
I7
sa(dp975
g20
(lp976
S'd'
asg17
S'Y'
sS'.thisRepN'
p977
I7
sg19
S'N'
sg32
g33
sS'.thisTrialN'
p978
I12
sS'.thisN'
p979
I117
sS'.thisIndex'
p980
I7
sg15
(lp981
S'd'
asg30
g31
sg16
S'Y'
sg14
I3
sg18
Nsg94
I7
sa(dp982
g20
(lp983
S'd'
asg17
S'N'
sS'.thisRepN'
p984
I7
sg19
S'Y'
sg32
g33
sS'.thisTrialN'
p985
I13
sS'.thisN'
p986
I118
sS'.thisIndex'
p987
I7
sg15
(lp988
S'k'
asg30
g31
sg16
S'N'
sg14
I3
sg18
Nsg94
I7
sa(dp989
g17
S'Y'
sS'.thisRepN'
p990
I7
sg19
S'N'
sg32
g33
sS'.thisTrialN'
p991
I14
sS'.thisN'
p992
I119
sS'.thisIndex'
p993
I14
sg15
Nsg30
g31
sg16
g99
sg14
I3
sg18
Nsg94
I14
sa(dp994
g20
(lp995
S'd'
asg17
S'N'
sS'.thisRepN'
p996
I8
sg19
S'Y'
sg32
g33
sS'.thisTrialN'
p997
I0
sS'.thisN'
p998
I120
sS'.thisIndex'
p999
I6
sg15
(lp1000
S'k'
asg30
g31
sg16
S'N'
sg14
I3
sg18
Nsg94
I6
sa(dp1001
g20
(lp1002
S'd'
asg17
S'N'
sS'.thisRepN'
p1003
I8
sg19
S'Y'
sg32
g33
sS'.thisTrialN'
p1004
I1
sS'.thisN'
p1005
I121
sS'.thisIndex'
p1006
I9
sg15
(lp1007
S'k'
asg30
g31
sg16
S'N'
sg14
I3
sg18
Nsg94
I9
sa(dp1008
g20
(lp1009
S'k'
asg17
S'N'
sS'.thisRepN'
p1010
I8
sg19
S'Y'
sg32
g33
sS'.thisTrialN'
p1011
I2
sS'.thisN'
p1012
I122
sS'.thisIndex'
p1013
I0
sg15
(lp1014
S'd'
asg30
g31
sg16
S'N'
sg14
I3
sg18
Nsg94
I0
sa(dp1015
g20
(lp1016
S'k'
asg17
S'Y'
sS'.thisRepN'
p1017
I8
sg19
S'Y'
sg32
g33
sS'.thisTrialN'
p1018
I3
sS'.thisN'
p1019
I123
sS'.thisIndex'
p1020
I11
sg15
(lp1021
S'd'
asg30
g31
sg16
S'N'
sg14
I3
sg18
(lp1022
S'space'
p1023
asg94
I11
sa(dp1024
g20
(lp1025
S'd'
asg17
S'Y'
sS'.thisRepN'
p1026
I8
sg19
S'Y'
sg32
g33
sS'.thisTrialN'
p1027
I4
sS'.thisN'
p1028
I124
sS'.thisIndex'
p1029
I0
sg15
(lp1030
S'k'
asg30
g31
sg16
S'N'
sg14
I3
sg18
(lp1031
S'space'
p1032
asg94
I0
sa(dp1033
g20
(lp1034
S'd'
asg17
S'Y'
sS'.thisRepN'
p1035
I8
sg19
S'Y'
sg32
g33
sS'.thisTrialN'
p1036
I5
sS'.thisN'
p1037
I125
sS'.thisIndex'
p1038
I11
sg15
(lp1039
S'k'
asg30
g31
sg16
S'N'
sg14
I3
sg18
(lp1040
S'space'
p1041
asg94
I11
sa(dp1042
g20
(lp1043
S'k'
asg17
S'N'
sS'.thisRepN'
p1044
I8
sg19
S'Y'
sg32
g33
sS'.thisTrialN'
p1045
I6
sS'.thisN'
p1046
I126
sS'.thisIndex'
p1047
I9
sg15
(lp1048
S'k'
asg30
g31
sg16
S'Y'
sg14
I3
sg18
Nsg94
I9
sa(dp1049
g20
(lp1050
S'd'
asg17
S'N'
sS'.thisRepN'
p1051
I8
sg19
S'Y'
sg32
g33
sS'.thisTrialN'
p1052
I7
sS'.thisN'
p1053
I127
sS'.thisIndex'
p1054
I5
sg15
(lp1055
S'd'
asg30
g31
sg16
S'Y'
sg14
I3
sg18
Nsg94
I5
sa(dp1056
g20
(lp1057
S'd'
asg17
S'N'
sS'.thisRepN'
p1058
I8
sg19
S'Y'
sg32
g33
sS'.thisTrialN'
p1059
I8
sS'.thisN'
p1060
I128
sS'.thisIndex'
p1061
I7
sg15
(lp1062
S'k'
asg30
g31
sg16
S'N'
sg14
I3
sg18
Nsg94
I7
sa(dp1063
g20
(lp1064
S'k'
asg17
S'Y'
sS'.thisRepN'
p1065
I8
sg19
S'N'
sg32
g33
sS'.thisTrialN'
p1066
I9
sS'.thisN'
p1067
I129
sS'.thisIndex'
p1068
I12
sg15
(lp1069
S'd'
asg30
g31
sg16
S'N'
sg14
I3
sg18
Nsg94
I12
sa(dp1070
g20
(lp1071
S'k'
asg17
S'N'
sS'.thisRepN'
p1072
I8
sg19
S'Y'
sg32
g33
sS'.thisTrialN'
p1073
I10
sS'.thisN'
p1074
I130
sS'.thisIndex'
p1075
I8
sg15
(lp1076
S'k'
asg30
g31
sg16
S'Y'
sg14
I3
sg18
Nsg94
I8
sa(dp1077
g20
(lp1078
S'k'
asg17
S'N'
sS'.thisRepN'
p1079
I8
sg19
S'Y'
sg32
g33
sS'.thisTrialN'
p1080
I11
sS'.thisN'
p1081
I131
sS'.thisIndex'
p1082
I2
sg15
(lp1083
S'd'
asg30
g31
sg16
S'N'
sg14
I3
sg18
Nsg94
I2
sa(dp1084
g20
(lp1085
S'k'
asg17
S'N'
sS'.thisRepN'
p1086
I8
sg19
S'Y'
sg32
g33
sS'.thisTrialN'
p1087
I12
sS'.thisN'
p1088
I132
sS'.thisIndex'
p1089
I6
sg15
(lp1090
S'k'
asg30
g31
sg16
S'Y'
sg14
I3
sg18
Nsg94
I6
sa(dp1091
g20
(lp1092
S'd'
asg17
S'N'
sS'.thisRepN'
p1093
I8
sg19
S'Y'
sg32
g33
sS'.thisTrialN'
p1094
I13
sS'.thisN'
p1095
I133
sS'.thisIndex'
p1096
I7
sg15
(lp1097
S'k'
asg30
g31
sg16
S'N'
sg14
I3
sg18
Nsg94
I7
sa(dp1098
g20
(lp1099
S'k'
asg17
S'Y'
sS'.thisRepN'
p1100
I8
sg19
S'N'
sg32
g33
sS'.thisTrialN'
p1101
I14
sS'.thisN'
p1102
I134
sS'.thisIndex'
p1103
I4
sg15
(lp1104
S'k'
asg30
g31
sg16
S'Y'
sg14
I3
sg18
Nsg94
I4
sa(dp1105
g20
(lp1106
S'k'
asg17
S'Y'
sS'.thisRepN'
p1107
I9
sg19
S'Y'
sg32
g33
sS'.thisTrialN'
p1108
I0
sS'.thisN'
p1109
I135
sS'.thisIndex'
p1110
I7
sg15
(lp1111
S'd'
asg30
g31
sg16
S'N'
sg14
I3
sg18
(lp1112
S'space'
p1113
asg94
I7
sa(dp1114
g20
(lp1115
S'd'
asg17
S'Y'
sS'.thisRepN'
p1116
I9
sg19
S'Y'
sg32
g33
sS'.thisTrialN'
p1117
I1
sS'.thisN'
p1118
I136
sS'.thisIndex'
p1119
I4
sg15
(lp1120
S'k'
asg30
g31
sg16
S'N'
sg14
I3
sg18
(lp1121
S'space'
p1122
asg94
I4
sa(dp1123
g20
(lp1124
S'd'
asg17
S'N'
sS'.thisRepN'
p1125
I9
sg19
S'Y'
sg32
g33
sS'.thisTrialN'
p1126
I2
sS'.thisN'
p1127
I137
sS'.thisIndex'
p1128
I11
sg15
(lp1129
S'd'
asg30
g31
sg16
S'Y'
sg14
I3
sg18
Nsg94
I11
sa(dp1130
g20
(lp1131
S'k'
asg17
S'N'
sS'.thisRepN'
p1132
I9
sg19
S'Y'
sg32
g33
sS'.thisTrialN'
p1133
I3
sS'.thisN'
p1134
I138
sS'.thisIndex'
p1135
I11
sg15
(lp1136
S'k'
asg30
g31
sg16
S'Y'
sg14
I3
sg18
Nsg94
I11
sa(dp1137
g20
(lp1138
S'd'
asg17
S'N'
sS'.thisRepN'
p1139
I9
sg19
S'N'
sg32
g33
sS'.thisTrialN'
p1140
I4
sS'.thisN'
p1141
I139
sS'.thisIndex'
p1142
I8
sg15
(lp1143
S'k'
asg30
g31
sg16
S'N'
sg14
I3
sg18
(lp1144
S'space'
p1145
asg94
I8
sa(dp1146
g20
(lp1147
S'd'
asg17
S'Y'
sS'.thisRepN'
p1148
I9
sg19
S'N'
sg32
g33
sS'.thisTrialN'
p1149
I5
sS'.thisN'
p1150
I140
sS'.thisIndex'
p1151
I4
sg15
(lp1152
S'd'
asg30
g31
sg16
S'Y'
sg14
I3
sg18
Nsg94
I4
sa(dp1153
g20
(lp1154
S'd'
asg17
S'N'
sS'.thisRepN'
p1155
I9
sg19
S'Y'
sg32
g33
sS'.thisTrialN'
p1156
I6
sS'.thisN'
p1157
I141
sS'.thisIndex'
p1158
I12
sg15
(lp1159
S'd'
asg30
g31
sg16
S'Y'
sg14
I3
sg18
Nsg94
I12
sa(dp1160
g20
(lp1161
S'k'
asg17
S'Y'
sS'.thisRepN'
p1162
I9
sg19
S'N'
sg32
g33
sS'.thisTrialN'
p1163
I7
sS'.thisN'
p1164
I142
sS'.thisIndex'
p1165
I13
sg15
(lp1166
S'd'
asg30
g31
sg16
S'N'
sg14
I3
sg18
Nsg94
I13
sa(dp1167
g20
(lp1168
S'k'
asg17
S'N'
sS'.thisRepN'
p1169
I9
sg19
S'Y'
sg32
g33
sS'.thisTrialN'
p1170
I8
sS'.thisN'
p1171
I143
sS'.thisIndex'
p1172
I13
sg15
(lp1173
S'k'
asg30
g31
sg16
S'Y'
sg14
I3
sg18
Nsg94
I13
sa(dp1174
g20
(lp1175
S'k'
asg17
S'N'
sS'.thisRepN'
p1176
I9
sg19
S'Y'
sg32
g33
sS'.thisTrialN'
p1177
I9
sS'.thisN'
p1178
I144
sS'.thisIndex'
p1179
I1
sg15
(lp1180
S'k'
asg30
g31
sg16
S'Y'
sg14
I3
sg18
Nsg94
I1
sa(dp1181
g20
(lp1182
S'k'
asg17
S'Y'
sS'.thisRepN'
p1183
I9
sg19
S'Y'
sg32
g33
sS'.thisTrialN'
p1184
I10
sS'.thisN'
p1185
I145
sS'.thisIndex'
p1186
I13
sg15
(lp1187
S'k'
asg30
g31
sg16
S'Y'
sg14
I3
sg18
(lp1188
S'space'
p1189
asg94
I13
sa(dp1190
g20
(lp1191
S'd'
asg17
S'N'
sS'.thisRepN'
p1192
I9
sg19
S'Y'
sg32
g33
sS'.thisTrialN'
p1193
I11
sS'.thisN'
p1194
I146
sS'.thisIndex'
p1195
I10
sg15
(lp1196
S'd'
asg30
g31
sg16
S'Y'
sg14
I3
sg18
Nsg94
I10
sa(dp1197
g20
(lp1198
S'k'
asg17
S'Y'
sS'.thisRepN'
p1199
I9
sg19
S'N'
sg32
g33
sS'.thisTrialN'
p1200
I12
sS'.thisN'
p1201
I147
sS'.thisIndex'
p1202
I9
sg15
(lp1203
S'd'
asg30
g31
sg16
S'N'
sg14
I3
sg18
Nsg94
I9
sa(dp1204
g20
(lp1205
S'd'
asg17
S'N'
sS'.thisRepN'
p1206
I9
sg19
S'Y'
sg32
g33
sS'.thisTrialN'
p1207
I13
sS'.thisN'
p1208
I148
sS'.thisIndex'
p1209
I3
sg15
(lp1210
S'd'
asg30
g31
sg16
S'Y'
sg14
I3
sg18
Nsg94
I3
sa(dp1211
g20
(lp1212
S'k'
asg17
S'N'
sg22
I35
sS'.thisN'
p1213
I149
sg19
S'Y'
sg32
g33
sS'.thisTrialN'
p1214
I14
sS'.thisRepN'
p1215
I9
sg21
I23
sS'.thisIndex'
p1216
I1
sg23
I22
sg15
(lp1217
S'k'
asg30
g31
sg16
S'Y'
sg14
I3
sg18
Nsg94
I1
sa(dp1218
g20
(lp1219
S'k'
asg94
I13
sS'.thisRepN'
p1220
I10
sg30
g31
sg32
g33
sS'.thisTrialN'
p1221
I0
sS'.thisN'
p1222
I150
sS'.thisIndex'
p1223
I13
sg15
(lp1224
S'd'
asg16
S'N'
sg14
I4
sa(dp1225
g20
(lp1226
S'd'
asg94
I12
sS'.thisRepN'
p1227
I10
sg30
g31
sg32
g33
sS'.thisTrialN'
p1228
I1
sS'.thisN'
p1229
I151
sS'.thisIndex'
p1230
I12
sg15
(lp1231
S'k'
asg16
S'N'
sg14
I4
sa(dp1232
g20
(lp1233
S'k'
asg17
S'N'
sS'.thisRepN'
p1234
I10
sg19
S'Y'
sg32
g33
sS'.thisTrialN'
p1235
I2
sS'.thisN'
p1236
I152
sS'.thisIndex'
p1237
I12
sg15
(lp1238
S'd'
asg30
g31
sg16
S'N'
sg14
I4
sg18
Nsg94
I12
sa(dp1239
g20
(lp1240
S'k'
asg17
S'N'
sS'.thisRepN'
p1241
I10
sg19
S'Y'
sg32
g33
sS'.thisTrialN'
p1242
I3
sS'.thisN'
p1243
I153
sS'.thisIndex'
p1244
I8
sg15
(lp1245
S'k'
asg30
g31
sg16
S'Y'
sg14
I4
sg18
Nsg94
I8
sa(dp1246
g20
(lp1247
S'k'
asg17
S'N'
sS'.thisRepN'
p1248
I10
sg19
S'N'
sg32
g33
sS'.thisTrialN'
p1249
I4
sS'.thisN'
p1250
I154
sS'.thisIndex'
p1251
I8
sg15
(lp1252
S'k'
asg30
g31
sg16
S'Y'
sg14
I4
sg18
(lp1253
S'space'
p1254
asg94
I8
sa(dp1255
g20
(lp1256
S'd'
asg17
S'N'
sS'.thisRepN'
p1257
I10
sg19
S'N'
sg32
g33
sS'.thisTrialN'
p1258
I5
sS'.thisN'
p1259
I155
sS'.thisIndex'
p1260
I12
sg15
(lp1261
S'd'
asg30
g31
sg16
S'Y'
sg14
I4
sg18
(lp1262
S'space'
p1263
asg94
I12
sa(dp1264
g20
(lp1265
S'd'
asg17
S'Y'
sS'.thisRepN'
p1266
I10
sg19
S'Y'
sg32
g33
sS'.thisTrialN'
p1267
I6
sS'.thisN'
p1268
I156
sS'.thisIndex'
p1269
I12
sg15
(lp1270
S'k'
asg30
g31
sg16
S'N'
sg14
I4
sg18
(lp1271
S'space'
p1272
asg94
I12
sa(dp1273
g20
(lp1274
S'd'
asg17
S'Y'
sS'.thisRepN'
p1275
I10
sg19
S'N'
sg32
g33
sS'.thisTrialN'
p1276
I7
sS'.thisN'
p1277
I157
sS'.thisIndex'
p1278
I14
sg15
(lp1279
S'd'
asg30
g31
sg16
S'Y'
sg14
I4
sg18
Nsg94
I14
sa(dp1280
g20
(lp1281
S'd'
asg17
S'N'
sS'.thisRepN'
p1282
I10
sg19
S'Y'
sg32
g33
sS'.thisTrialN'
p1283
I8
sS'.thisN'
p1284
I158
sS'.thisIndex'
p1285
I3
sg15
(lp1286
S'd'
asg30
g31
sg16
S'Y'
sg14
I4
sg18
Nsg94
I3
sa(dp1287
g20
(lp1288
S'k'
asg17
S'N'
sS'.thisRepN'
p1289
I10
sg19
S'Y'
sg32
g33
sS'.thisTrialN'
p1290
I9
sS'.thisN'
p1291
I159
sS'.thisIndex'
p1292
I13
sg15
(lp1293
S'k'
asg30
g31
sg16
S'Y'
sg14
I4
sg18
Nsg94
I13
sa(dp1294
g20
(lp1295
S'd'
asg17
S'Y'
sS'.thisRepN'
p1296
I10
sg19
S'Y'
sg32
g33
sS'.thisTrialN'
p1297
I10
sS'.thisN'
p1298
I160
sS'.thisIndex'
p1299
I8
sg15
(lp1300
S'd'
asg30
g31
sg16
S'Y'
sg14
I4
sg18
(lp1301
S'space'
p1302
asg94
I8
sa(dp1303
g20
(lp1304
S'k'
asg17
S'N'
sS'.thisRepN'
p1305
I10
sg19
S'Y'
sg32
g33
sS'.thisTrialN'
p1306
I11
sS'.thisN'
p1307
I161
sS'.thisIndex'
p1308
I12
sg15
(lp1309
S'k'
asg30
g31
sg16
S'Y'
sg14
I4
sg18
Nsg94
I12
sa(dp1310
g20
(lp1311
S'k'
asg17
S'N'
sS'.thisRepN'
p1312
I10
sg19
S'Y'
sg32
g33
sS'.thisTrialN'
p1313
I12
sS'.thisN'
p1314
I162
sS'.thisIndex'
p1315
I3
sg15
(lp1316
S'k'
asg30
g31
sg16
S'Y'
sg14
I4
sg18
Nsg94
I3
sa(dp1317
g20
(lp1318
S'k'
asg17
S'Y'
sS'.thisRepN'
p1319
I10
sg19
S'Y'
sg32
g33
sS'.thisTrialN'
p1320
I13
sS'.thisN'
p1321
I163
sS'.thisIndex'
p1322
I4
sg15
(lp1323
S'k'
asg30
g31
sg16
S'Y'
sg14
I4
sg18
(lp1324
S'space'
p1325
asg94
I4
sa(dp1326
g20
(lp1327
S'k'
asg17
S'Y'
sS'.thisRepN'
p1328
I10
sg19
S'N'
sg32
g33
sS'.thisTrialN'
p1329
I14
sS'.thisN'
p1330
I164
sS'.thisIndex'
p1331
I14
sg15
(lp1332
S'k'
asg30
g31
sg16
S'Y'
sg14
I4
sg18
Nsg94
I14
sa(dp1333
g20
(lp1334
S'k'
asg17
S'N'
sS'.thisRepN'
p1335
I11
sg19
S'Y'
sg32
g33
sS'.thisTrialN'
p1336
I0
sS'.thisN'
p1337
I165
sS'.thisIndex'
p1338
I1
sg15
(lp1339
S'k'
asg30
g31
sg16
S'Y'
sg14
I4
sg18
Nsg94
I1
sa(dp1340
g20
(lp1341
S'k'
asg17
S'Y'
sS'.thisRepN'
p1342
I11
sg19
S'Y'
sg32
g33
sS'.thisTrialN'
p1343
I1
sS'.thisN'
p1344
I166
sS'.thisIndex'
p1345
I10
sg15
(lp1346
S'k'
asg30
g31
sg16
S'Y'
sg14
I4
sg18
(lp1347
S'space'
p1348
asg94
I10
sa(dp1349
g20
(lp1350
S'd'
asg17
S'N'
sS'.thisRepN'
p1351
I11
sg19
S'Y'
sg32
g33
sS'.thisTrialN'
p1352
I2
sS'.thisN'
p1353
I167
sS'.thisIndex'
p1354
I5
sg15
(lp1355
S'd'
asg30
g31
sg16
S'Y'
sg14
I4
sg18
Nsg94
I5
sa(dp1356
g20
(lp1357
S'k'
asg17
S'N'
sS'.thisRepN'
p1358
I11
sg19
S'Y'
sg32
g33
sS'.thisTrialN'
p1359
I3
sS'.thisN'
p1360
I168
sS'.thisIndex'
p1361
I0
sg15
(lp1362
S'd'
asg30
g31
sg16
S'N'
sg14
I4
sg18
Nsg94
I0
sa(dp1363
g20
(lp1364
S'd'
asg17
S'Y'
sS'.thisRepN'
p1365
I11
sg19
S'Y'
sg32
g33
sS'.thisTrialN'
p1366
I4
sS'.thisN'
p1367
I169
sS'.thisIndex'
p1368
I2
sg15
(lp1369
S'k'
asg30
g31
sg16
S'N'
sg14
I4
sg18
(lp1370
S'space'
p1371
asg94
I2
sa(dp1372
g20
(lp1373
S'd'
asg17
S'Y'
sS'.thisRepN'
p1374
I11
sg19
S'N'
sg32
g33
sS'.thisTrialN'
p1375
I5
sS'.thisN'
p1376
I170
sS'.thisIndex'
p1377
I3
sg15
(lp1378
S'k'
asg30
g31
sg16
S'N'
sg14
I4
sg18
Nsg94
I3
sa(dp1379
g20
(lp1380
S'k'
asg17
S'Y'
sS'.thisRepN'
p1381
I11
sg19
S'N'
sg32
g33
sS'.thisTrialN'
p1382
I6
sS'.thisN'
p1383
I171
sS'.thisIndex'
p1384
I1
sg15
(lp1385
S'd'
asg30
g31
sg16
S'N'
sg14
I4
sg18
Nsg94
I1
sa(dp1386
g20
(lp1387
S'd'
asg17
S'Y'
sS'.thisRepN'
p1388
I11
sg19
S'Y'
sg32
g33
sS'.thisTrialN'
p1389
I7
sS'.thisN'
p1390
I172
sS'.thisIndex'
p1391
I3
sg15
(lp1392
S'd'
asg30
g31
sg16
S'Y'
sg14
I4
sg18
(lp1393
S'space'
p1394
asg94
I3
sa(dp1395
g20
(lp1396
S'k'
asg17
S'Y'
sS'.thisRepN'
p1397
I11
sg19
S'Y'
sg32
g33
sS'.thisTrialN'
p1398
I8
sS'.thisN'
p1399
I173
sS'.thisIndex'
p1400
I6
sg15
(lp1401
S'd'
asg30
g31
sg16
S'N'
sg14
I4
sg18
(lp1402
S'space'
p1403
asg94
I6
sa(dp1404
g20
(lp1405
S'k'
asg17
S'Y'
sS'.thisRepN'
p1406
I11
sg19
S'N'
sg32
g33
sS'.thisTrialN'
p1407
I9
sS'.thisN'
p1408
I174
sS'.thisIndex'
p1409
I7
sg15
(lp1410
S'd'
asg30
g31
sg16
S'N'
sg14
I4
sg18
Nsg94
I7
sa(dp1411
g20
(lp1412
S'k'
asg17
S'Y'
sS'.thisRepN'
p1413
I11
sg19
S'N'
sg32
g33
sS'.thisTrialN'
p1414
I10
sS'.thisN'
p1415
I175
sS'.thisIndex'
p1416
I4
sg15
(lp1417
S'd'
asg30
g31
sg16
S'N'
sg14
I4
sg18
Nsg94
I4
sa(dp1418
g20
(lp1419
S'k'
asg17
S'Y'
sS'.thisRepN'
p1420
I11
sg19
S'N'
sg32
g33
sS'.thisTrialN'
p1421
I11
sS'.thisN'
p1422
I176
sS'.thisIndex'
p1423
I8
sg15
(lp1424
S'k'
asg30
g31
sg16
S'Y'
sg14
I4
sg18
Nsg94
I8
sa(dp1425
g20
(lp1426
S'k'
asg17
S'N'
sS'.thisRepN'
p1427
I11
sg19
S'Y'
sg32
g33
sS'.thisTrialN'
p1428
I12
sS'.thisN'
p1429
I177
sS'.thisIndex'
p1430
I4
sg15
(lp1431
S'k'
asg30
g31
sg16
S'Y'
sg14
I4
sg18
Nsg94
I4
sa(dp1432
g20
(lp1433
S'k'
asg17
S'Y'
sS'.thisRepN'
p1434
I11
sg19
S'N'
sg32
g33
sS'.thisTrialN'
p1435
I13
sS'.thisN'
p1436
I178
sS'.thisIndex'
p1437
I4
sg15
(lp1438
S'd'
asg30
g31
sg16
S'N'
sg14
I4
sg18
Nsg94
I4
sa(dp1439
g20
(lp1440
S'd'
asg17
S'Y'
sS'.thisRepN'
p1441
I11
sg19
S'N'
sg32
g33
sS'.thisTrialN'
p1442
I14
sS'.thisN'
p1443
I179
sS'.thisIndex'
p1444
I4
sg15
(lp1445
S'd'
asg30
g31
sg16
S'Y'
sg14
I4
sg18
Nsg94
I4
sa(dp1446
g20
(lp1447
S'k'
asg17
S'N'
sS'.thisRepN'
p1448
I12
sg19
S'Y'
sg32
g33
sS'.thisTrialN'
p1449
I0
sS'.thisN'
p1450
I180
sS'.thisIndex'
p1451
I5
sg15
(lp1452
S'k'
asg30
g31
sg16
S'Y'
sg14
I4
sg18
Nsg94
I5
sa(dp1453
g20
(lp1454
S'k'
asg17
S'Y'
sS'.thisRepN'
p1455
I12
sg19
S'N'
sg32
g33
sS'.thisTrialN'
p1456
I1
sS'.thisN'
p1457
I181
sS'.thisIndex'
p1458
I6
sg15
(lp1459
S'k'
asg30
g31
sg16
S'Y'
sg14
I4
sg18
Nsg94
I6
sa(dp1460
g20
(lp1461
S'd'
asg17
S'N'
sS'.thisRepN'
p1462
I12
sg19
S'Y'
sg32
g33
sS'.thisTrialN'
p1463
I2
sS'.thisN'
p1464
I182
sS'.thisIndex'
p1465
I1
sg15
(lp1466
S'k'
asg30
g31
sg16
S'N'
sg14
I4
sg18
Nsg94
I1
sa(dp1467
g20
(lp1468
S'd'
asg17
S'N'
sS'.thisRepN'
p1469
I12
sg19
S'Y'
sg32
g33
sS'.thisTrialN'
p1470
I3
sS'.thisN'
p1471
I183
sS'.thisIndex'
p1472
I4
sg15
(lp1473
S'k'
asg30
g31
sg16
S'N'
sg14
I4
sg18
Nsg94
I4
sa(dp1474
g20
(lp1475
S'd'
asg17
S'N'
sS'.thisRepN'
p1476
I12
sg19
S'Y'
sg32
g33
sS'.thisTrialN'
p1477
I4
sS'.thisN'
p1478
I184
sS'.thisIndex'
p1479
I2
sg15
(lp1480
S'd'
asg30
g31
sg16
S'Y'
sg14
I4
sg18
Nsg94
I2
sa(dp1481
g20
(lp1482
S'k'
asg17
S'N'
sS'.thisRepN'
p1483
I12
sg19
S'Y'
sg32
g33
sS'.thisTrialN'
p1484
I5
sS'.thisN'
p1485
I185
sS'.thisIndex'
p1486
I0
sg15
(lp1487
S'd'
asg30
g31
sg16
S'N'
sg14
I4
sg18
Nsg94
I0
sa(dp1488
g20
(lp1489
S'd'
asg17
S'Y'
sS'.thisRepN'
p1490
I12
sg19
S'N'
sg32
g33
sS'.thisTrialN'
p1491
I6
sS'.thisN'
p1492
I186
sS'.thisIndex'
p1493
I11
sg15
(lp1494
S'k'
asg30
g31
sg16
S'N'
sg14
I4
sg18
Nsg94
I11
sa(dp1495
g20
(lp1496
S'd'
asg17
S'Y'
sS'.thisRepN'
p1497
I12
sg19
S'N'
sg32
g33
sS'.thisTrialN'
p1498
I7
sS'.thisN'
p1499
I187
sS'.thisIndex'
p1500
I5
sg15
(lp1501
S'd'
asg30
g31
sg16
S'Y'
sg14
I4
sg18
Nsg94
I5
sa(dp1502
g20
(lp1503
S'd'
asg17
S'N'
sS'.thisRepN'
p1504
I12
sg19
S'Y'
sg32
g33
sS'.thisTrialN'
p1505
I8
sS'.thisN'
p1506
I188
sS'.thisIndex'
p1507
I8
sg15
(lp1508
S'k'
asg30
g31
sg16
S'N'
sg14
I4
sg18
Nsg94
I8
sa(dp1509
g20
(lp1510
S'k'
asg17
S'N'
sS'.thisRepN'
p1511
I12
sg19
S'Y'
sg32
g33
sS'.thisTrialN'
p1512
I9
sS'.thisN'
p1513
I189
sS'.thisIndex'
p1514
I11
sg15
(lp1515
S'k'
asg30
g31
sg16
S'Y'
sg14
I4
sg18
Nsg94
I11
sa(dp1516
g20
(lp1517
S'k'
asg17
S'Y'
sS'.thisRepN'
p1518
I12
sg19
S'Y'
sg32
g33
sS'.thisTrialN'
p1519
I10
sS'.thisN'
p1520
I190
sS'.thisIndex'
p1521
I7
sg15
(lp1522
S'k'
asg30
g31
sg16
S'Y'
sg14
I4
sg18
(lp1523
S'space'
p1524
asg94
I7
sa(dp1525
g20
(lp1526
S'k'
asg17
S'N'
sS'.thisRepN'
p1527
I12
sg19
S'Y'
sg32
g33
sS'.thisTrialN'
p1528
I11
sS'.thisN'
p1529
I191
sS'.thisIndex'
p1530
I3
sg15
(lp1531
S'k'
asg30
g31
sg16
S'Y'
sg14
I4
sg18
Nsg94
I3
sa(dp1532
g20
(lp1533
S'd'
asg17
S'N'
sS'.thisRepN'
p1534
I12
sg19
S'Y'
sg32
g33
sS'.thisTrialN'
p1535
I12
sS'.thisN'
p1536
I192
sS'.thisIndex'
p1537
I3
sg15
(lp1538
S'k'
asg30
g31
sg16
S'N'
sg14
I4
sg18
Nsg94
I3
sa(dp1539
g20
(lp1540
S'k'
asg17
S'Y'
sS'.thisRepN'
p1541
I12
sg19
S'Y'
sg32
g33
sS'.thisTrialN'
p1542
I13
sS'.thisN'
p1543
I193
sS'.thisIndex'
p1544
I2
sg15
(lp1545
S'd'
asg30
g31
sg16
S'N'
sg14
I4
sg18
(lp1546
S'space'
p1547
asg94
I2
sa(dp1548
g20
(lp1549
S'd'
asg17
S'N'
sS'.thisRepN'
p1550
I12
sg19
S'Y'
sg32
g33
sS'.thisTrialN'
p1551
I14
sS'.thisN'
p1552
I194
sS'.thisIndex'
p1553
I3
sg15
(lp1554
S'k'
asg30
g31
sg16
S'N'
sg14
I4
sg18
Nsg94
I3
sa(dp1555
g20
(lp1556
S'k'
asg17
S'N'
sS'.thisRepN'
p1557
I13
sg19
S'Y'
sg32
g33
sS'.thisTrialN'
p1558
I0
sS'.thisN'
p1559
I195
sS'.thisIndex'
p1560
I7
sg15
(lp1561
S'd'
asg30
g31
sg16
S'N'
sg14
I4
sg18
Nsg94
I7
sa(dp1562
g20
(lp1563
S'k'
asg17
S'N'
sS'.thisRepN'
p1564
I13
sg19
S'Y'
sg32
g33
sS'.thisTrialN'
p1565
I1
sS'.thisN'
p1566
I196
sS'.thisIndex'
p1567
I11
sg15
(lp1568
S'd'
asg30
g31
sg16
S'N'
sg14
I4
sg18
Nsg94
I11
sa(dp1569
g20
(lp1570
S'd'
asg17
S'N'
sS'.thisRepN'
p1571
I13
sg19
S'Y'
sg32
g33
sS'.thisTrialN'
p1572
I2
sS'.thisN'
p1573
I197
sS'.thisIndex'
p1574
I8
sg15
(lp1575
S'd'
asg30
g31
sg16
S'Y'
sg14
I4
sg18
Nsg94
I8
sa(dp1576
g20
(lp1577
S'd'
asg17
S'N'
sS'.thisRepN'
p1578
I13
sg19
S'Y'
sg32
g33
sS'.thisTrialN'
p1579
I3
sS'.thisN'
p1580
I198
sS'.thisIndex'
p1581
I12
sg15
(lp1582
S'd'
asg30
g31
sg16
S'Y'
sg14
I4
sg18
Nsg94
I12
sa(dp1583
g20
(lp1584
S'k'
asg17
S'N'
sg22
I34
sS'.thisN'
p1585
I199
sg19
S'Y'
sg32
g33
sS'.thisTrialN'
p1586
I4
sS'.thisRepN'
p1587
I13
sg21
I27
sS'.thisIndex'
p1588
I7
sg23
I21
sg15
(lp1589
S'd'
asg30
g31
sg16
S'N'
sg14
I4
sg18
Nsg94
I7
sa(dp1590
g20
(lp1591
S'd'
asg94
I9
sS'.thisRepN'
p1592
I13
sg30
g31
sg32
g33
sS'.thisTrialN'
p1593
I5
sS'.thisN'
p1594
I200
sS'.thisIndex'
p1595
I9
sg15
(lp1596
S'd'
asg16
S'Y'
sg14
I5
sa(dp1597
g20
(lp1598
S'k'
asg94
I6
sS'.thisRepN'
p1599
I13
sg30
g31
sg32
g33
sS'.thisTrialN'
p1600
I6
sS'.thisN'
p1601
I201
sS'.thisIndex'
p1602
I6
sg15
(lp1603
S'd'
asg16
S'N'
sg14
I5
sa(dp1604
g20
(lp1605
S'k'
asg17
S'Y'
sS'.thisRepN'
p1606
I13
sg19
S'Y'
sg32
g33
sS'.thisTrialN'
p1607
I7
sS'.thisN'
p1608
I202
sS'.thisIndex'
p1609
I9
sg15
(lp1610
S'd'
asg30
g31
sg16
S'N'
sg14
I5
sg18
(lp1611
S'space'
p1612
asg94
I9
sa(dp1613
g20
(lp1614
S'k'
asg17
S'N'
sS'.thisRepN'
p1615
I13
sg19
S'Y'
sg32
g33
sS'.thisTrialN'
p1616
I8
sS'.thisN'
p1617
I203
sS'.thisIndex'
p1618
I11
sg15
(lp1619
S'd'
asg30
g31
sg16
S'N'
sg14
I5
sg18
Nsg94
I11
sa(dp1620
g20
(lp1621
S'd'
asg17
S'N'
sS'.thisRepN'
p1622
I13
sg19
S'Y'
sg32
g33
sS'.thisTrialN'
p1623
I9
sS'.thisN'
p1624
I204
sS'.thisIndex'
p1625
I5
sg15
(lp1626
S'k'
asg30
g31
sg16
S'N'
sg14
I5
sg18
Nsg94
I5
sa(dp1627
g20
(lp1628
S'k'
asg17
S'N'
sS'.thisRepN'
p1629
I13
sg19
S'Y'
sg32
g33
sS'.thisTrialN'
p1630
I10
sS'.thisN'
p1631
I205
sS'.thisIndex'
p1632
I1
sg15
(lp1633
S'd'
asg30
g31
sg16
S'N'
sg14
I5
sg18
Nsg94
I1
sa(dp1634
g20
(lp1635
S'k'
asg17
S'N'
sS'.thisRepN'
p1636
I13
sg19
S'N'
sg32
g33
sS'.thisTrialN'
p1637
I11
sS'.thisN'
p1638
I206
sS'.thisIndex'
p1639
I11
sg15
(lp1640
S'k'
asg30
g31
sg16
S'Y'
sg14
I5
sg18
(lp1641
S'space'
p1642
asg94
I11
sa(dp1643
g20
(lp1644
S'k'
asg17
S'Y'
sS'.thisRepN'
p1645
I13
sg19
S'N'
sg32
g33
sS'.thisTrialN'
p1646
I12
sS'.thisN'
p1647
I207
sS'.thisIndex'
p1648
I6
sg15
(lp1649
S'k'
asg30
g31
sg16
S'Y'
sg14
I5
sg18
Nsg94
I6
sa(dp1650
g20
(lp1651
S'k'
asg17
S'N'
sS'.thisRepN'
p1652
I13
sg19
S'Y'
sg32
g33
sS'.thisTrialN'
p1653
I13
sS'.thisN'
p1654
I208
sS'.thisIndex'
p1655
I14
sg15
(lp1656
S'd'
asg30
g31
sg16
S'N'
sg14
I5
sg18
Nsg94
I14
sa(dp1657
g20
(lp1658
S'k'
asg17
S'N'
sS'.thisRepN'
p1659
I13
sg19
S'Y'
sg32
g33
sS'.thisTrialN'
p1660
I14
sS'.thisN'
p1661
I209
sS'.thisIndex'
p1662
I13
sg15
(lp1663
S'd'
asg30
g31
sg16
S'N'
sg14
I5
sg18
Nsg94
I13
sa(dp1664
g20
(lp1665
S'd'
asg17
S'N'
sS'.thisRepN'
p1666
I14
sg19
S'Y'
sg32
g33
sS'.thisTrialN'
p1667
I0
sS'.thisN'
p1668
I210
sS'.thisIndex'
p1669
I4
sg15
(lp1670
S'd'
asg30
g31
sg16
S'Y'
sg14
I5
sg18
Nsg94
I4
sa(dp1671
g20
(lp1672
S'd'
asg17
S'N'
sS'.thisRepN'
p1673
I14
sg19
S'Y'
sg32
g33
sS'.thisTrialN'
p1674
I1
sS'.thisN'
p1675
I211
sS'.thisIndex'
p1676
I2
sg15
(lp1677
S'd'
asg30
g31
sg16
S'Y'
sg14
I5
sg18
Nsg94
I2
sa(dp1678
g20
(lp1679
S'k'
asg17
S'Y'
sS'.thisRepN'
p1680
I14
sg19
S'Y'
sg32
g33
sS'.thisTrialN'
p1681
I2
sS'.thisN'
p1682
I212
sS'.thisIndex'
p1683
I9
sg15
(lp1684
S'k'
asg30
g31
sg16
S'Y'
sg14
I5
sg18
(lp1685
S'space'
p1686
asg94
I9
sa(dp1687
g20
(lp1688
S'd'
asg17
S'Y'
sS'.thisRepN'
p1689
I14
sg19
S'Y'
sg32
g33
sS'.thisTrialN'
p1690
I3
sS'.thisN'
p1691
I213
sS'.thisIndex'
p1692
I7
sg15
(lp1693
S'k'
asg30
g31
sg16
S'N'
sg14
I5
sg18
(lp1694
S'space'
p1695
asg94
I7
sa(dp1696
g20
(lp1697
S'd'
asg17
S'N'
sS'.thisRepN'
p1698
I14
sg19
S'Y'
sg32
g33
sS'.thisTrialN'
p1699
I4
sS'.thisN'
p1700
I214
sS'.thisIndex'
p1701
I4
sg15
(lp1702
S'k'
asg30
g31
sg16
S'N'
sg14
I5
sg18
Nsg94
I4
sa(dp1703
g20
(lp1704
S'k'
asg17
S'Y'
sS'.thisRepN'
p1705
I14
sg19
S'N'
sg32
g33
sS'.thisTrialN'
p1706
I5
sS'.thisN'
p1707
I215
sS'.thisIndex'
p1708
I2
sg15
(lp1709
S'k'
asg30
g31
sg16
S'Y'
sg14
I5
sg18
Nsg94
I2
sa(dp1710
g20
(lp1711
S'd'
asg17
S'Y'
sS'.thisRepN'
p1712
I14
sg19
S'Y'
sg32
g33
sS'.thisTrialN'
p1713
I6
sS'.thisN'
p1714
I216
sS'.thisIndex'
p1715
I12
sg15
(lp1716
S'd'
asg30
g31
sg16
S'Y'
sg14
I5
sg18
(lp1717
S'space'
p1718
asg94
I12
sa(dp1719
g20
(lp1720
S'd'
asg17
S'N'
sS'.thisRepN'
p1721
I14
sg19
S'Y'
sg32
g33
sS'.thisTrialN'
p1722
I7
sS'.thisN'
p1723
I217
sS'.thisIndex'
p1724
I4
sg15
(lp1725
S'd'
asg30
g31
sg16
S'Y'
sg14
I5
sg18
Nsg94
I4
sa(dp1726
g20
(lp1727
S'k'
asg17
S'Y'
sS'.thisRepN'
p1728
I14
sg19
S'Y'
sg32
g33
sS'.thisTrialN'
p1729
I8
sS'.thisN'
p1730
I218
sS'.thisIndex'
p1731
I12
sg15
(lp1732
S'k'
asg30
g31
sg16
S'Y'
sg14
I5
sg18
(lp1733
S'space'
p1734
asg94
I12
sa(dp1735
g20
(lp1736
S'd'
asg17
S'Y'
sS'.thisRepN'
p1737
I14
sg19
S'Y'
sg32
g33
sS'.thisTrialN'
p1738
I9
sS'.thisN'
p1739
I219
sS'.thisIndex'
p1740
I13
sg15
(lp1741
S'k'
asg30
g31
sg16
S'N'
sg14
I5
sg18
(lp1742
S'space'
p1743
asg94
I13
sa(dp1744
g20
(lp1745
S'd'
asg17
S'N'
sS'.thisRepN'
p1746
I14
sg19
S'Y'
sg32
g33
sS'.thisTrialN'
p1747
I10
sS'.thisN'
p1748
I220
sS'.thisIndex'
p1749
I10
sg15
(lp1750
S'k'
asg30
g31
sg16
S'N'
sg14
I5
sg18
Nsg94
I10
sa(dp1751
g20
(lp1752
S'k'
asg17
S'Y'
sS'.thisRepN'
p1753
I14
sg19
S'N'
sg32
g33
sS'.thisTrialN'
p1754
I11
sS'.thisN'
p1755
I221
sS'.thisIndex'
p1756
I9
sg15
(lp1757
S'd'
asg30
g31
sg16
S'N'
sg14
I5
sg18
Nsg94
I9
sa(dp1758
g20
(lp1759
S'k'
asg17
S'Y'
sS'.thisRepN'
p1760
I14
sg19
S'N'
sg32
g33
sS'.thisTrialN'
p1761
I12
sS'.thisN'
p1762
I222
sS'.thisIndex'
p1763
I7
sg15
(lp1764
S'd'
asg30
g31
sg16
S'N'
sg14
I5
sg18
Nsg94
I7
sa(dp1765
g20
(lp1766
S'k'
asg17
S'Y'
sS'.thisRepN'
p1767
I14
sg19
S'N'
sg32
g33
sS'.thisTrialN'
p1768
I13
sS'.thisN'
p1769
I223
sS'.thisIndex'
p1770
I12
sg15
(lp1771
S'd'
asg30
g31
sg16
S'N'
sg14
I5
sg18
Nsg94
I12
sa(dp1772
g20
(lp1773
S'd'
asg17
S'N'
sS'.thisRepN'
p1774
I14
sg19
S'Y'
sg32
g33
sS'.thisTrialN'
p1775
I14
sS'.thisN'
p1776
I224
sS'.thisIndex'
p1777
I1
sg15
(lp1778
S'k'
asg30
g31
sg16
S'N'
sg14
I5
sg18
Nsg94
I1
sa(dp1779
g20
(lp1780
S'd'
asg17
S'N'
sS'.thisRepN'
p1781
I15
sg19
S'Y'
sg32
g33
sS'.thisTrialN'
p1782
I0
sS'.thisN'
p1783
I225
sS'.thisIndex'
p1784
I4
sg15
(lp1785
S'k'
asg30
g31
sg16
S'N'
sg14
I5
sg18
Nsg94
I4
sa(dp1786
g20
(lp1787
S'k'
asg17
S'Y'
sS'.thisRepN'
p1788
I15
sg19
S'Y'
sg32
g33
sS'.thisTrialN'
p1789
I1
sS'.thisN'
p1790
I226
sS'.thisIndex'
p1791
I4
sg15
(lp1792
S'd'
asg30
g31
sg16
S'N'
sg14
I5
sg18
(lp1793
S'space'
p1794
asg94
I4
sa(dp1795
g20
(lp1796
S'd'
asg17
S'Y'
sS'.thisRepN'
p1797
I15
sg19
S'Y'
sg32
g33
sS'.thisTrialN'
p1798
I2
sS'.thisN'
p1799
I227
sS'.thisIndex'
p1800
I5
sg15
(lp1801
S'k'
asg30
g31
sg16
S'N'
sg14
I5
sg18
(lp1802
S'space'
p1803
asg94
I5
sa(dp1804
g20
(lp1805
S'd'
asg17
S'N'
sS'.thisRepN'
p1806
I15
sg19
S'Y'
sg32
g33
sS'.thisTrialN'
p1807
I3
sS'.thisN'
p1808
I228
sS'.thisIndex'
p1809
I7
sg15
(lp1810
S'd'
asg30
g31
sg16
S'Y'
sg14
I5
sg18
Nsg94
I7
sa(dp1811
g20
(lp1812
S'd'
asg17
S'N'
sS'.thisRepN'
p1813
I15
sg19
S'Y'
sg32
g33
sS'.thisTrialN'
p1814
I4
sS'.thisN'
p1815
I229
sS'.thisIndex'
p1816
I14
sg15
(lp1817
S'k'
asg30
g31
sg16
S'N'
sg14
I5
sg18
Nsg94
I14
sa(dp1818
g20
(lp1819
S'd'
asg17
S'N'
sS'.thisRepN'
p1820
I15
sg19
S'Y'
sg32
g33
sS'.thisTrialN'
p1821
I5
sS'.thisN'
p1822
I230
sS'.thisIndex'
p1823
I8
sg15
(lp1824
S'k'
asg30
g31
sg16
S'N'
sg14
I5
sg18
Nsg94
I8
sa(dp1825
g20
(lp1826
S'd'
asg17
S'N'
sS'.thisRepN'
p1827
I15
sg19
S'Y'
sg32
g33
sS'.thisTrialN'
p1828
I6
sS'.thisN'
p1829
I231
sS'.thisIndex'
p1830
I1
sg15
(lp1831
S'k'
asg30
g31
sg16
S'N'
sg14
I5
sg18
Nsg94
I1
sa(dp1832
g20
(lp1833
S'd'
asg17
S'Y'
sS'.thisRepN'
p1834
I15
sg19
S'N'
sg32
g33
sS'.thisTrialN'
p1835
I7
sS'.thisN'
p1836
I232
sS'.thisIndex'
p1837
I10
sg15
(lp1838
S'd'
asg30
g31
sg16
S'Y'
sg14
I5
sg18
Nsg94
I10
sa(dp1839
g20
(lp1840
S'k'
asg17
S'N'
sS'.thisRepN'
p1841
I15
sg19
S'Y'
sg32
g33
sS'.thisTrialN'
p1842
I8
sS'.thisN'
p1843
I233
sS'.thisIndex'
p1844
I8
sg15
(lp1845
S'k'
asg30
g31
sg16
S'Y'
sg14
I5
sg18
Nsg94
I8
sa(dp1846
g20
(lp1847
S'k'
asg17
S'Y'
sS'.thisRepN'
p1848
I15
sg19
S'N'
sg32
g33
sS'.thisTrialN'
p1849
I9
sS'.thisN'
p1850
I234
sS'.thisIndex'
p1851
I7
sg15
(lp1852
S'd'
asg30
g31
sg16
S'N'
sg14
I5
sg18
Nsg94
I7
sa(dp1853
g20
(lp1854
S'k'
asg17
S'Y'
sS'.thisRepN'
p1855
I15
sg19
S'N'
sg32
g33
sS'.thisTrialN'
p1856
I10
sS'.thisN'
p1857
I235
sS'.thisIndex'
p1858
I5
sg15
(lp1859
S'd'
asg30
g31
sg16
S'N'
sg14
I5
sg18
Nsg94
I5
sa(dp1860
g20
(lp1861
S'k'
asg17
S'N'
sS'.thisRepN'
p1862
I15
sg19
S'Y'
sg32
g33
sS'.thisTrialN'
p1863
I11
sS'.thisN'
p1864
I236
sS'.thisIndex'
p1865
I7
sg15
(lp1866
S'k'
asg30
g31
sg16
S'Y'
sg14
I5
sg18
Nsg94
I7
sa(dp1867
g20
(lp1868
S'd'
asg17
S'N'
sS'.thisRepN'
p1869
I15
sg19
S'Y'
sg32
g33
sS'.thisTrialN'
p1870
I12
sS'.thisN'
p1871
I237
sS'.thisIndex'
p1872
I14
sg15
(lp1873
S'k'
asg30
g31
sg16
S'N'
sg14
I5
sg18
Nsg94
I14
sa(dp1874
g20
(lp1875
S'd'
asg17
S'N'
sS'.thisRepN'
p1876
I15
sg19
S'Y'
sg32
g33
sS'.thisTrialN'
p1877
I13
sS'.thisN'
p1878
I238
sS'.thisIndex'
p1879
I11
sg15
(lp1880
S'k'
asg30
g31
sg16
S'N'
sg14
I5
sg18
Nsg94
I11
sa(dp1881
g20
(lp1882
S'k'
asg17
S'N'
sS'.thisRepN'
p1883
I15
sg19
S'Y'
sg32
g33
sS'.thisTrialN'
p1884
I14
sS'.thisN'
p1885
I239
sS'.thisIndex'
p1886
I8
sg15
(lp1887
S'd'
asg30
g31
sg16
S'N'
sg14
I5
sg18
Nsg94
I8
sa(dp1888
g20
(lp1889
S'd'
asg17
S'N'
sS'.thisRepN'
p1890
I16
sg19
S'Y'
sg32
g33
sS'.thisTrialN'
p1891
I0
sS'.thisN'
p1892
I240
sS'.thisIndex'
p1893
I14
sg15
(lp1894
S'd'
asg30
g31
sg16
S'Y'
sg14
I5
sg18
Nsg94
I14
sa(dp1895
g20
(lp1896
S'k'
asg17
S'Y'
sS'.thisRepN'
p1897
I16
sg19
S'N'
sg32
g33
sS'.thisTrialN'
p1898
I1
sS'.thisN'
p1899
I241
sS'.thisIndex'
p1900
I10
sg15
(lp1901
S'd'
asg30
g31
sg16
S'N'
sg14
I5
sg18
Nsg94
I10
sa(dp1902
g20
(lp1903
S'd'
asg17
S'N'
sS'.thisRepN'
p1904
I16
sg19
S'Y'
sg32
g33
sS'.thisTrialN'
p1905
I2
sS'.thisN'
p1906
I242
sS'.thisIndex'
p1907
I9
sg15
(lp1908
S'd'
asg30
g31
sg16
S'Y'
sg14
I5
sg18
Nsg94
I9
sa(dp1909
g20
(lp1910
S'd'
asg17
S'Y'
sS'.thisRepN'
p1911
I16
sg19
S'Y'
sg32
g33
sS'.thisTrialN'
p1912
I3
sS'.thisN'
p1913
I243
sS'.thisIndex'
p1914
I12
sg15
(lp1915
S'k'
asg30
g31
sg16
S'N'
sg14
I5
sg18
(lp1916
S'space'
p1917
asg94
I12
sa(dp1918
g20
(lp1919
S'd'
asg17
S'N'
sS'.thisRepN'
p1920
I16
sg19
S'Y'
sg32
g33
sS'.thisTrialN'
p1921
I4
sS'.thisN'
p1922
I244
sS'.thisIndex'
p1923
I4
sg15
(lp1924
S'd'
asg30
g31
sg16
S'Y'
sg14
I5
sg18
Nsg94
I4
sa(dp1925
g20
(lp1926
S'd'
asg17
S'N'
sS'.thisRepN'
p1927
I16
sg19
S'Y'
sg32
g33
sS'.thisTrialN'
p1928
I5
sS'.thisN'
p1929
I245
sS'.thisIndex'
p1930
I3
sg15
(lp1931
S'd'
asg30
g31
sg16
S'Y'
sg14
I5
sg18
Nsg94
I3
sa(dp1932
g20
(lp1933
S'k'
asg17
S'N'
sS'.thisRepN'
p1934
I16
sg19
S'Y'
sg32
g33
sS'.thisTrialN'
p1935
I6
sS'.thisN'
p1936
I246
sS'.thisIndex'
p1937
I13
sg15
(lp1938
S'k'
asg30
g31
sg16
S'Y'
sg14
I5
sg18
Nsg94
I13
sa(dp1939
g17
S'N'
sS'.thisRepN'
p1940
I16
sg19
S'Y'
sg32
g33
sS'.thisTrialN'
p1941
I7
sS'.thisN'
p1942
I247
sS'.thisIndex'
p1943
I1
sg15
Nsg30
g31
sg16
g99
sg14
I5
sg18
Nsg94
I1
sa(dp1944
g20
(lp1945
S'k'
asg17
S'N'
sS'.thisRepN'
p1946
I16
sg19
S'N'
sg32
g33
sS'.thisTrialN'
p1947
I8
sS'.thisN'
p1948
I248
sS'.thisIndex'
p1949
I3
sg15
(lp1950
S'k'
asg30
g31
sg16
S'Y'
sg14
I5
sg18
(lp1951
S'space'
p1952
asg94
I3
sa(dp1953
g20
(lp1954
S'k'
asg17
S'N'
sg22
I37
sS'.thisN'
p1955
I249
sg19
S'Y'
sg32
g33
sS'.thisTrialN'
p1956
I9
sS'.thisRepN'
p1957
I16
sg21
I21
sS'.thisIndex'
p1958
I14
sg23
I18
sg15
(lp1959
S'k'
asg30
g31
sg16
S'Y'
sg14
I5
sg18
Nsg94
I14
sa(dp1960
g20
(lp1961
S'd'
asg94
I7
sS'.thisRepN'
p1962
I16
sg30
g31
sg32
g33
sS'.thisTrialN'
p1963
I10
sS'.thisN'
p1964
I250
sS'.thisIndex'
p1965
I7
sg15
(lp1966
S'k'
asg16
S'N'
sg14
I6
sa(dp1967
g20
(lp1968
S'k'
asg94
I11
sS'.thisRepN'
p1969
I16
sg30
g31
sg32
g33
sS'.thisTrialN'
p1970
I11
sS'.thisN'
p1971
I251
sS'.thisIndex'
p1972
I11
sg15
(lp1973
S'd'
asg16
S'N'
sg14
I6
sa(dp1974
g20
(lp1975
S'd'
asg17
S'N'
sS'.thisRepN'
p1976
I16
sg19
S'Y'
sg32
g33
sS'.thisTrialN'
p1977
I12
sS'.thisN'
p1978
I252
sS'.thisIndex'
p1979
I3
sg15
(lp1980
S'k'
asg30
g31
sg16
S'N'
sg14
I6
sg18
Nsg94
I3
sa(dp1981
g20
(lp1982
S'd'
asg17
S'Y'
sS'.thisRepN'
p1983
I16
sg19
S'N'
sg32
g33
sS'.thisTrialN'
p1984
I13
sS'.thisN'
p1985
I253
sS'.thisIndex'
p1986
I5
sg15
(lp1987
S'k'
asg30
g31
sg16
S'N'
sg14
I6
sg18
Nsg94
I5
sa(dp1988
g20
(lp1989
S'k'
asg17
S'Y'
sS'.thisRepN'
p1990
I16
sg19
S'Y'
sg32
g33
sS'.thisTrialN'
p1991
I14
sS'.thisN'
p1992
I254
sS'.thisIndex'
p1993
I4
sg15
(lp1994
S'k'
asg30
g31
sg16
S'Y'
sg14
I6
sg18
(lp1995
S'space'
p1996
asg94
I4
sa(dp1997
g20
(lp1998
S'k'
asg17
S'N'
sS'.thisRepN'
p1999
I17
sg19
S'Y'
sg32
g33
sS'.thisTrialN'
p2000
I0
sS'.thisN'
p2001
I255
sS'.thisIndex'
p2002
I10
sg15
(lp2003
S'd'
asg30
g31
sg16
S'N'
sg14
I6
sg18
Nsg94
I10
sa(dp2004
g20
(lp2005
S'd'
asg17
S'N'
sS'.thisRepN'
p2006
I17
sg19
S'Y'
sg32
g33
sS'.thisTrialN'
p2007
I1
sS'.thisN'
p2008
I256
sS'.thisIndex'
p2009
I10
sg15
(lp2010
S'k'
asg30
g31
sg16
S'N'
sg14
I6
sg18
Nsg94
I10
sa(dp2011
g20
(lp2012
S'd'
asg17
S'Y'
sS'.thisRepN'
p2013
I17
sg19
S'Y'
sg32
g33
sS'.thisTrialN'
p2014
I2
sS'.thisN'
p2015
I257
sS'.thisIndex'
p2016
I13
sg15
(lp2017
S'd'
asg30
g31
sg16
S'Y'
sg14
I6
sg18
(lp2018
S'space'
p2019
asg94
I13
sa(dp2020
g20
(lp2021
S'd'
asg17
S'N'
sS'.thisRepN'
p2022
I17
sg19
S'Y'
sg32
g33
sS'.thisTrialN'
p2023
I3
sS'.thisN'
p2024
I258
sS'.thisIndex'
p2025
I9
sg15
(lp2026
S'k'
asg30
g31
sg16
S'N'
sg14
I6
sg18
Nsg94
I9
sa(dp2027
g20
(lp2028
S'k'
asg17
S'Y'
sS'.thisRepN'
p2029
I17
sg19
S'N'
sg32
g33
sS'.thisTrialN'
p2030
I4
sS'.thisN'
p2031
I259
sS'.thisIndex'
p2032
I2
sg15
(lp2033
S'k'
asg30
g31
sg16
S'Y'
sg14
I6
sg18
Nsg94
I2
sa(dp2034
g20
(lp2035
S'd'
asg17
S'Y'
sS'.thisRepN'
p2036
I17
sg19
S'Y'
sg32
g33
sS'.thisTrialN'
p2037
I5
sS'.thisN'
p2038
I260
sS'.thisIndex'
p2039
I14
sg15
(lp2040
S'k'
asg30
g31
sg16
S'N'
sg14
I6
sg18
(lp2041
S'space'
p2042
asg94
I14
sa(dp2043
g20
(lp2044
S'd'
asg17
S'Y'
sS'.thisRepN'
p2045
I17
sg19
S'N'
sg32
g33
sS'.thisTrialN'
p2046
I6
sS'.thisN'
p2047
I261
sS'.thisIndex'
p2048
I5
sg15
(lp2049
S'd'
asg30
g31
sg16
S'Y'
sg14
I6
sg18
Nsg94
I5
sa(dp2050
g20
(lp2051
S'k'
asg17
S'N'
sS'.thisRepN'
p2052
I17
sg19
S'Y'
sg32
g33
sS'.thisTrialN'
p2053
I7
sS'.thisN'
p2054
I262
sS'.thisIndex'
p2055
I0
sg15
(lp2056
S'k'
asg30
g31
sg16
S'Y'
sg14
I6
sg18
Nsg94
I0
sa(dp2057
g20
(lp2058
S'd'
asg17
S'Y'
sS'.thisRepN'
p2059
I17
sg19
S'Y'
sg32
g33
sS'.thisTrialN'
p2060
I8
sS'.thisN'
p2061
I263
sS'.thisIndex'
p2062
I13
sg15
(lp2063
S'k'
asg30
g31
sg16
S'N'
sg14
I6
sg18
(lp2064
S'space'
p2065
asg94
I13
sa(dp2066
g20
(lp2067
S'k'
asg17
S'Y'
sS'.thisRepN'
p2068
I17
sg19
S'N'
sg32
g33
sS'.thisTrialN'
p2069
I9
sS'.thisN'
p2070
I264
sS'.thisIndex'
p2071
I3
sg15
(lp2072
S'k'
asg30
g31
sg16
S'Y'
sg14
I6
sg18
Nsg94
I3
sa(dp2073
g20
(lp2074
S'd'
asg17
S'N'
sS'.thisRepN'
p2075
I17
sg19
S'Y'
sg32
g33
sS'.thisTrialN'
p2076
I10
sS'.thisN'
p2077
I265
sS'.thisIndex'
p2078
I2
sg15
(lp2079
S'k'
asg30
g31
sg16
S'N'
sg14
I6
sg18
Nsg94
I2
sa(dp2080
g20
(lp2081
S'd'
asg17
S'Y'
sS'.thisRepN'
p2082
I17
sg19
S'N'
sg32
g33
sS'.thisTrialN'
p2083
I11
sS'.thisN'
p2084
I266
sS'.thisIndex'
p2085
I8
sg15
(lp2086
S'k'
asg30
g31
sg16
S'N'
sg14
I6
sg18
Nsg94
I8
sa(dp2087
g20
(lp2088
S'd'
asg17
S'Y'
sS'.thisRepN'
p2089
I17
sg19
S'Y'
sg32
g33
sS'.thisTrialN'
p2090
I12
sS'.thisN'
p2091
I267
sS'.thisIndex'
p2092
I13
sg15
(lp2093
S'd'
asg30
g31
sg16
S'Y'
sg14
I6
sg18
(lp2094
S'space'
p2095
asg94
I13
sa(dp2096
g20
(lp2097
S'k'
asg17
S'N'
sS'.thisRepN'
p2098
I17
sg19
S'Y'
sg32
g33
sS'.thisTrialN'
p2099
I13
sS'.thisN'
p2100
I268
sS'.thisIndex'
p2101
I11
sg15
(lp2102
S'k'
asg30
g31
sg16
S'Y'
sg14
I6
sg18
Nsg94
I11
sa(dp2103
g20
(lp2104
S'd'
asg17
S'Y'
sS'.thisRepN'
p2105
I17
sg19
S'Y'
sg32
g33
sS'.thisTrialN'
p2106
I14
sS'.thisN'
p2107
I269
sS'.thisIndex'
p2108
I2
sg15
(lp2109
S'k'
asg30
g31
sg16
S'N'
sg14
I6
sg18
(lp2110
S'space'
p2111
asg94
I2
sa(dp2112
g20
(lp2113
S'd'
asg17
S'N'
sS'.thisRepN'
p2114
I18
sg19
S'Y'
sg32
g33
sS'.thisTrialN'
p2115
I0
sS'.thisN'
p2116
I270
sS'.thisIndex'
p2117
I14
sg15
(lp2118
S'k'
asg30
g31
sg16
S'N'
sg14
I6
sg18
Nsg94
I14
sa(dp2119
g20
(lp2120
S'd'
asg17
S'Y'
sS'.thisRepN'
p2121
I18
sg19
S'N'
sg32
g33
sS'.thisTrialN'
p2122
I1
sS'.thisN'
p2123
I271
sS'.thisIndex'
p2124
I2
sg15
(lp2125
S'k'
asg30
g31
sg16
S'N'
sg14
I6
sg18
Nsg94
I2
sa(dp2126
g20
(lp2127
S'd'
asg17
S'N'
sS'.thisRepN'
p2128
I18
sg19
S'Y'
sg32
g33
sS'.thisTrialN'
p2129
I2
sS'.thisN'
p2130
I272
sS'.thisIndex'
p2131
I8
sg15
(lp2132
S'k'
asg30
g31
sg16
S'N'
sg14
I6
sg18
Nsg94
I8
sa(dp2133
g20
(lp2134
S'k'
asg17
S'Y'
sS'.thisRepN'
p2135
I18
sg19
S'Y'
sg32
g33
sS'.thisTrialN'
p2136
I3
sS'.thisN'
p2137
I273
sS'.thisIndex'
p2138
I6
sg15
(lp2139
S'k'
asg30
g31
sg16
S'Y'
sg14
I6
sg18
(lp2140
S'space'
p2141
asg94
I6
sa(dp2142
g20
(lp2143
S'k'
asg17
S'Y'
sS'.thisRepN'
p2144
I18
sg19
S'Y'
sg32
g33
sS'.thisTrialN'
p2145
I4
sS'.thisN'
p2146
I274
sS'.thisIndex'
p2147
I3
sg15
(lp2148
S'k'
asg30
g31
sg16
S'Y'
sg14
I6
sg18
(lp2149
S'space'
p2150
asg94
I3
sa(dp2151
g20
(lp2152
S'k'
asg17
S'Y'
sS'.thisRepN'
p2153
I18
sg19
S'Y'
sg32
g33
sS'.thisTrialN'
p2154
I5
sS'.thisN'
p2155
I275
sS'.thisIndex'
p2156
I8
sg15
(lp2157
S'k'
asg30
g31
sg16
S'Y'
sg14
I6
sg18
(lp2158
S'space'
p2159
asg94
I8
sa(dp2160
g20
(lp2161
S'k'
asg17
S'N'
sS'.thisRepN'
p2162
I18
sg19
S'Y'
sg32
g33
sS'.thisTrialN'
p2163
I6
sS'.thisN'
p2164
I276
sS'.thisIndex'
p2165
I14
sg15
(lp2166
S'k'
asg30
g31
sg16
S'Y'
sg14
I6
sg18
Nsg94
I14
sa(dp2167
g20
(lp2168
S'k'
asg17
S'Y'
sS'.thisRepN'
p2169
I18
sg19
S'Y'
sg32
g33
sS'.thisTrialN'
p2170
I7
sS'.thisN'
p2171
I277
sS'.thisIndex'
p2172
I10
sg15
(lp2173
S'd'
asg30
g31
sg16
S'N'
sg14
I6
sg18
(lp2174
S'space'
p2175
asg94
I10
sa(dp2176
g20
(lp2177
S'd'
asg17
S'Y'
sS'.thisRepN'
p2178
I18
sg19
S'N'
sg32
g33
sS'.thisTrialN'
p2179
I8
sS'.thisN'
p2180
I278
sS'.thisIndex'
p2181
I14
sg15
(lp2182
S'd'
asg30
g31
sg16
S'Y'
sg14
I6
sg18
Nsg94
I14
sa(dp2183
g20
(lp2184
S'k'
asg17
S'N'
sS'.thisRepN'
p2185
I18
sg19
S'Y'
sg32
g33
sS'.thisTrialN'
p2186
I9
sS'.thisN'
p2187
I279
sS'.thisIndex'
p2188
I10
sg15
(lp2189
S'd'
asg30
g31
sg16
S'N'
sg14
I6
sg18
Nsg94
I10
sa(dp2190
g20
(lp2191
S'd'
asg17
S'N'
sS'.thisRepN'
p2192
I18
sg19
S'Y'
sg32
g33
sS'.thisTrialN'
p2193
I10
sS'.thisN'
p2194
I280
sS'.thisIndex'
p2195
I14
sg15
(lp2196
S'd'
asg30
g31
sg16
S'Y'
sg14
I6
sg18
Nsg94
I14
sa(dp2197
g20
(lp2198
S'd'
asg17
S'N'
sS'.thisRepN'
p2199
I18
sg19
S'Y'
sg32
g33
sS'.thisTrialN'
p2200
I11
sS'.thisN'
p2201
I281
sS'.thisIndex'
p2202
I0
sg15
(lp2203
S'k'
asg30
g31
sg16
S'N'
sg14
I6
sg18
Nsg94
I0
sa(dp2204
g20
(lp2205
S'k'
asg17
S'Y'
sS'.thisRepN'
p2206
I18
sg19
S'N'
sg32
g33
sS'.thisTrialN'
p2207
I12
sS'.thisN'
p2208
I282
sS'.thisIndex'
p2209
I6
sg15
(lp2210
S'd'
asg30
g31
sg16
S'N'
sg14
I6
sg18
Nsg94
I6
sa(dp2211
g20
(lp2212
S'k'
asg17
S'Y'
sS'.thisRepN'
p2213
I18
sg19
S'Y'
sg32
g33
sS'.thisTrialN'
p2214
I13
sS'.thisN'
p2215
I283
sS'.thisIndex'
p2216
I1
sg15
(lp2217
S'k'
asg30
g31
sg16
S'Y'
sg14
I6
sg18
(lp2218
S'space'
p2219
asg94
I1
sa(dp2220
g20
(lp2221
S'd'
asg17
S'N'
sS'.thisRepN'
p2222
I18
sg19
S'Y'
sg32
g33
sS'.thisTrialN'
p2223
I14
sS'.thisN'
p2224
I284
sS'.thisIndex'
p2225
I5
sg15
(lp2226
S'k'
asg30
g31
sg16
S'N'
sg14
I6
sg18
Nsg94
I5
sa(dp2227
g20
(lp2228
S'k'
asg17
S'N'
sS'.thisRepN'
p2229
I19
sg19
S'Y'
sg32
g33
sS'.thisTrialN'
p2230
I0
sS'.thisN'
p2231
I285
sS'.thisIndex'
p2232
I14
sg15
(lp2233
S'k'
asg30
g31
sg16
S'Y'
sg14
I6
sg18
Nsg94
I14
sa(dp2234
g20
(lp2235
S'd'
asg17
S'Y'
sS'.thisRepN'
p2236
I19
sg19
S'N'
sg32
g33
sS'.thisTrialN'
p2237
I1
sS'.thisN'
p2238
I286
sS'.thisIndex'
p2239
I13
sg15
(lp2240
S'd'
asg30
g31
sg16
S'Y'
sg14
I6
sg18
Nsg94
I13
sa(dp2241
g20
(lp2242
S'd'
asg17
S'N'
sS'.thisRepN'
p2243
I19
sg19
S'Y'
sg32
g33
sS'.thisTrialN'
p2244
I2
sS'.thisN'
p2245
I287
sS'.thisIndex'
p2246
I6
sg15
(lp2247
S'k'
asg30
g31
sg16
S'N'
sg14
I6
sg18
Nsg94
I6
sa(dp2248
g17
S'N'
sS'.thisRepN'
p2249
I19
sg19
S'Y'
sg32
g33
sS'.thisTrialN'
p2250
I3
sS'.thisN'
p2251
I288
sS'.thisIndex'
p2252
I2
sg15
Nsg30
g31
sg16
g99
sg14
I6
sg18
Nsg94
I2
sa(dp2253
g20
(lp2254
S'k'
asg17
S'Y'
sS'.thisRepN'
p2255
I19
sg19
S'N'
sg32
g33
sS'.thisTrialN'
p2256
I4
sS'.thisN'
p2257
I289
sS'.thisIndex'
p2258
I2
sg15
(lp2259
S'd'
asg30
g31
sg16
S'N'
sg14
I6
sg18
Nsg94
I2
sa(dp2260
g20
(lp2261
S'k'
asg17
S'Y'
sS'.thisRepN'
p2262
I19
sg19
S'N'
sg32
g33
sS'.thisTrialN'
p2263
I5
sS'.thisN'
p2264
I290
sS'.thisIndex'
p2265
I11
sg15
(lp2266
S'd'
asg30
g31
sg16
S'N'
sg14
I6
sg18
Nsg94
I11
sa(dp2267
g20
(lp2268
S'k'
asg17
S'N'
sS'.thisRepN'
p2269
I19
sg19
S'Y'
sg32
g33
sS'.thisTrialN'
p2270
I6
sS'.thisN'
p2271
I291
sS'.thisIndex'
p2272
I13
sg15
(lp2273
S'd'
asg30
g31
sg16
S'N'
sg14
I6
sg18
Nsg94
I13
sa(dp2274
g20
(lp2275
S'k'
asg17
S'N'
sS'.thisRepN'
p2276
I19
sg19
S'Y'
sg32
g33
sS'.thisTrialN'
p2277
I7
sS'.thisN'
p2278
I292
sS'.thisIndex'
p2279
I0
sg15
(lp2280
S'k'
asg30
g31
sg16
S'Y'
sg14
I6
sg18
Nsg94
I0
sa(dp2281
g20
(lp2282
S'd'
asg17
S'N'
sS'.thisRepN'
p2283
I19
sg19
S'Y'
sg32
g33
sS'.thisTrialN'
p2284
I8
sS'.thisN'
p2285
I293
sS'.thisIndex'
p2286
I8
sg15
(lp2287
S'd'
asg30
g31
sg16
S'Y'
sg14
I6
sg18
Nsg94
I8
sa(dp2288
g20
(lp2289
S'k'
asg17
S'Y'
sS'.thisRepN'
p2290
I19
sg19
S'N'
sg32
g33
sS'.thisTrialN'
p2291
I9
sS'.thisN'
p2292
I294
sS'.thisIndex'
p2293
I0
sg15
(lp2294
S'd'
asg30
g31
sg16
S'N'
sg14
I6
sg18
Nsg94
I0
sa(dp2295
g20
(lp2296
S'k'
asg17
S'Y'
sS'.thisRepN'
p2297
I19
sg19
S'Y'
sg32
g33
sS'.thisTrialN'
p2298
I10
sS'.thisN'
p2299
I295
sS'.thisIndex'
p2300
I6
sg15
(lp2301
S'd'
asg30
g31
sg16
S'N'
sg14
I6
sg18
(lp2302
S'space'
p2303
asg94
I6
sa(dp2304
g20
(lp2305
S'd'
asg17
S'N'
sS'.thisRepN'
p2306
I19
sg19
S'Y'
sg32
g33
sS'.thisTrialN'
p2307
I11
sS'.thisN'
p2308
I296
sS'.thisIndex'
p2309
I7
sg15
(lp2310
S'd'
asg30
g31
sg16
S'Y'
sg14
I6
sg18
Nsg94
I7
sa(dp2311
g20
(lp2312
S'd'
asg17
S'Y'
sS'.thisRepN'
p2313
I19
sg19
S'Y'
sg32
g33
sS'.thisTrialN'
p2314
I12
sS'.thisN'
p2315
I297
sS'.thisIndex'
p2316
I1
sg15
(lp2317
S'k'
asg30
g31
sg16
S'N'
sg14
I6
sg18
(lp2318
S'space'
p2319
asg94
I1
sa(dp2320
g20
(lp2321
S'd'
asg17
S'N'
sS'.thisRepN'
p2322
I19
sg19
S'Y'
sg32
g33
sS'.thisTrialN'
p2323
I13
sS'.thisN'
p2324
I298
sS'.thisIndex'
p2325
I5
sg15
(lp2326
S'k'
asg30
g31
sg16
S'N'
sg14
I6
sg18
Nsg94
I5
sa(dp2327
g20
(lp2328
S'k'
asg17
S'N'
sg22
I36
sS'.thisN'
p2329
I299
sg19
S'Y'
sg32
g33
sS'.thisTrialN'
p2330
I14
sS'.thisRepN'
p2331
I19
sg21
I20
sS'.thisIndex'
p2332
I0
sg23
I25
sg15
(lp2333
S'd'
asg30
g31
sg16
S'N'
sg14
I6
sg18
Nsg94
I0
sa(dp2334
g20
(lp2335
S'k'
asg94
I1
sS'.thisRepN'
p2336
I20
sg30
g31
sg32
g33
sS'.thisTrialN'
p2337
I0
sS'.thisN'
p2338
I300
sS'.thisIndex'
p2339
I1
sg15
(lp2340
S'k'
asg16
S'Y'
sg14
I7
sa(dp2341
g20
(lp2342
S'k'
asg94
I3
sS'.thisRepN'
p2343
I20
sg30
g31
sg32
g33
sS'.thisTrialN'
p2344
I1
sS'.thisN'
p2345
I301
sS'.thisIndex'
p2346
I3
sg15
(lp2347
S'd'
asg16
S'N'
sg14
I7
sa(dp2348
g20
(lp2349
S'k'
asg17
S'N'
sS'.thisRepN'
p2350
I20
sg19
S'Y'
sg32
g33
sS'.thisTrialN'
p2351
I2
sS'.thisN'
p2352
I302
sS'.thisIndex'
p2353
I6
sg15
(lp2354
S'd'
asg30
g31
sg16
S'N'
sg14
I7
sg18
Nsg94
I6
sa(dp2355
g20
(lp2356
S'd'
asg17
S'Y'
sS'.thisRepN'
p2357
I20
sg19
S'Y'
sg32
g33
sS'.thisTrialN'
p2358
I3
sS'.thisN'
p2359
I303
sS'.thisIndex'
p2360
I11
sg15
(lp2361
S'k'
asg30
g31
sg16
S'N'
sg14
I7
sg18
(lp2362
S'space'
p2363
asg94
I11
sa(dp2364
g20
(lp2365
S'k'
asg17
S'Y'
sS'.thisRepN'
p2366
I20
sg19
S'Y'
sg32
g33
sS'.thisTrialN'
p2367
I4
sS'.thisN'
p2368
I304
sS'.thisIndex'
p2369
I0
sg15
(lp2370
S'k'
asg30
g31
sg16
S'Y'
sg14
I7
sg18
(lp2371
S'space'
p2372
asg94
I0
sa(dp2373
g20
(lp2374
S'd'
asg17
S'N'
sS'.thisRepN'
p2375
I20
sg19
S'Y'
sg32
g33
sS'.thisTrialN'
p2376
I5
sS'.thisN'
p2377
I305
sS'.thisIndex'
p2378
I1
sg15
(lp2379
S'k'
asg30
g31
sg16
S'N'
sg14
I7
sg18
Nsg94
I1
sa(dp2380
g20
(lp2381
S'k'
asg17
S'N'
sS'.thisRepN'
p2382
I20
sg19
S'Y'
sg32
g33
sS'.thisTrialN'
p2383
I6
sS'.thisN'
p2384
I306
sS'.thisIndex'
p2385
I1
sg15
(lp2386
S'k'
asg30
g31
sg16
S'Y'
sg14
I7
sg18
Nsg94
I1
sa(dp2387
g20
(lp2388
S'k'
asg17
S'Y'
sS'.thisRepN'
p2389
I20
sg19
S'Y'
sg32
g33
sS'.thisTrialN'
p2390
I7
sS'.thisN'
p2391
I307
sS'.thisIndex'
p2392
I11
sg15
(lp2393
S'd'
asg30
g31
sg16
S'N'
sg14
I7
sg18
(lp2394
S'space'
p2395
asg94
I11
sa(dp2396
g20
(lp2397
S'k'
asg17
S'N'
sS'.thisRepN'
p2398
I20
sg19
S'Y'
sg32
g33
sS'.thisTrialN'
p2399
I8
sS'.thisN'
p2400
I308
sS'.thisIndex'
p2401
I7
sg15
(lp2402
S'd'
asg30
g31
sg16
S'N'
sg14
I7
sg18
Nsg94
I7
sa(dp2403
g20
(lp2404
S'd'
asg17
S'N'
sS'.thisRepN'
p2405
I20
sg19
S'Y'
sg32
g33
sS'.thisTrialN'
p2406
I9
sS'.thisN'
p2407
I309
sS'.thisIndex'
p2408
I1
sg15
(lp2409
S'k'
asg30
g31
sg16
S'N'
sg14
I7
sg18
Nsg94
I1
sa(dp2410
g20
(lp2411
S'k'
asg17
S'N'
sS'.thisRepN'
p2412
I20
sg19
S'Y'
sg32
g33
sS'.thisTrialN'
p2413
I10
sS'.thisN'
p2414
I310
sS'.thisIndex'
p2415
I5
sg15
(lp2416
S'k'
asg30
g31
sg16
S'Y'
sg14
I7
sg18
Nsg94
I5
sa(dp2417
g17
S'Y'
sS'.thisRepN'
p2418
I20
sg19
S'Y'
sg32
g33
sS'.thisTrialN'
p2419
I11
sS'.thisN'
p2420
I311
sS'.thisIndex'
p2421
I11
sg15
Nsg30
g31
sg16
g99
sg14
I7
sg18
(lp2422
S'space'
p2423
asg94
I11
sa(dp2424
g20
(lp2425
S'k'
asg17
S'N'
sS'.thisRepN'
p2426
I20
sg19
S'Y'
sg32
g33
sS'.thisTrialN'
p2427
I12
sS'.thisN'
p2428
I312
sS'.thisIndex'
p2429
I7
sg15
(lp2430
S'd'
asg30
g31
sg16
S'N'
sg14
I7
sg18
Nsg94
I7
sa(dp2431
g20
(lp2432
S'd'
asg17
S'Y'
sS'.thisRepN'
p2433
I20
sg19
S'Y'
sg32
g33
sS'.thisTrialN'
p2434
I13
sS'.thisN'
p2435
I313
sS'.thisIndex'
p2436
I3
sg15
(lp2437
S'k'
asg30
g31
sg16
S'N'
sg14
I7
sg18
(lp2438
S'space'
p2439
asg94
I3
sa(dp2440
g20
(lp2441
S'k'
asg17
S'N'
sS'.thisRepN'
p2442
I20
sg19
S'Y'
sg32
g33
sS'.thisTrialN'
p2443
I14
sS'.thisN'
p2444
I314
sS'.thisIndex'
p2445
I12
sg15
(lp2446
S'd'
asg30
g31
sg16
S'N'
sg14
I7
sg18
Nsg94
I12
sa(dp2447
g20
(lp2448
S'd'
asg17
S'Y'
sS'.thisRepN'
p2449
I21
sg19
S'Y'
sg32
g33
sS'.thisTrialN'
p2450
I0
sS'.thisN'
p2451
I315
sS'.thisIndex'
p2452
I2
sg15
(lp2453
S'd'
asg30
g31
sg16
S'Y'
sg14
I7
sg18
(lp2454
S'space'
p2455
asg94
I2
sa(dp2456
g20
(lp2457
S'k'
asg17
S'N'
sS'.thisRepN'
p2458
I21
sg19
S'Y'
sg32
g33
sS'.thisTrialN'
p2459
I1
sS'.thisN'
p2460
I316
sS'.thisIndex'
p2461
I13
sg15
(lp2462
S'd'
asg30
g31
sg16
S'N'
sg14
I7
sg18
Nsg94
I13
sa(dp2463
g20
(lp2464
S'k'
asg17
S'Y'
sS'.thisRepN'
p2465
I21
sg19
S'Y'
sg32
g33
sS'.thisTrialN'
p2466
I2
sS'.thisN'
p2467
I317
sS'.thisIndex'
p2468
I0
sg15
(lp2469
S'k'
asg30
g31
sg16
S'Y'
sg14
I7
sg18
(lp2470
S'space'
p2471
asg94
I0
sa(dp2472
g20
(lp2473
S'd'
asg17
S'Y'
sS'.thisRepN'
p2474
I21
sg19
S'Y'
sg32
g33
sS'.thisTrialN'
p2475
I3
sS'.thisN'
p2476
I318
sS'.thisIndex'
p2477
I1
sg15
(lp2478
S'k'
asg30
g31
sg16
S'N'
sg14
I7
sg18
(lp2479
S'space'
p2480
asg94
I1
sa(dp2481
g20
(lp2482
S'd'
asg17
S'N'
sS'.thisRepN'
p2483
I21
sg19
S'Y'
sg32
g33
sS'.thisTrialN'
p2484
I4
sS'.thisN'
p2485
I319
sS'.thisIndex'
p2486
I3
sg15
(lp2487
S'k'
asg30
g31
sg16
S'N'
sg14
I7
sg18
Nsg94
I3
sa(dp2488
g20
(lp2489
S'k'
asg17
S'N'
sS'.thisRepN'
p2490
I21
sg19
S'Y'
sg32
g33
sS'.thisTrialN'
p2491
I5
sS'.thisN'
p2492
I320
sS'.thisIndex'
p2493
I8
sg15
(lp2494
S'k'
asg30
g31
sg16
S'Y'
sg14
I7
sg18
Nsg94
I8
sa(dp2495
g20
(lp2496
S'k'
asg17
S'Y'
sS'.thisRepN'
p2497
I21
sg19
S'Y'
sg32
g33
sS'.thisTrialN'
p2498
I6
sS'.thisN'
p2499
I321
sS'.thisIndex'
p2500
I1
sg15
(lp2501
S'd'
asg30
g31
sg16
S'N'
sg14
I7
sg18
(lp2502
S'space'
p2503
asg94
I1
sa(dp2504
g20
(lp2505
S'd'
asg17
S'Y'
sS'.thisRepN'
p2506
I21
sg19
S'Y'
sg32
g33
sS'.thisTrialN'
p2507
I7
sS'.thisN'
p2508
I322
sS'.thisIndex'
p2509
I13
sg15
(lp2510
S'd'
asg30
g31
sg16
S'Y'
sg14
I7
sg18
(lp2511
S'space'
p2512
asg94
I13
sa(dp2513
g20
(lp2514
S'd'
asg17
S'N'
sS'.thisRepN'
p2515
I21
sg19
S'Y'
sg32
g33
sS'.thisTrialN'
p2516
I8
sS'.thisN'
p2517
I323
sS'.thisIndex'
p2518
I12
sg15
(lp2519
S'k'
asg30
g31
sg16
S'N'
sg14
I7
sg18
Nsg94
I12
sa(dp2520
g20
(lp2521
S'd'
asg17
S'Y'
sS'.thisRepN'
p2522
I21
sg19
S'N'
sg32
g33
sS'.thisTrialN'
p2523
I9
sS'.thisN'
p2524
I324
sS'.thisIndex'
p2525
I6
sg15
(lp2526
S'd'
asg30
g31
sg16
S'Y'
sg14
I7
sg18
Nsg94
I6
sa(dp2527
g20
(lp2528
S'k'
asg17
S'Y'
sS'.thisRepN'
p2529
I21
sg19
S'N'
sg32
g33
sS'.thisTrialN'
p2530
I10
sS'.thisN'
p2531
I325
sS'.thisIndex'
p2532
I7
sg15
(lp2533
S'd'
asg30
g31
sg16
S'N'
sg14
I7
sg18
Nsg94
I7
sa(dp2534
g20
(lp2535
S'k'
asg17
S'Y'
sS'.thisRepN'
p2536
I21
sg19
S'Y'
sg32
g33
sS'.thisTrialN'
p2537
I11
sS'.thisN'
p2538
I326
sS'.thisIndex'
p2539
I4
sg15
(lp2540
S'k'
asg30
g31
sg16
S'Y'
sg14
I7
sg18
(lp2541
S'space'
p2542
asg94
I4
sa(dp2543
g20
(lp2544
S'd'
asg17
S'N'
sS'.thisRepN'
p2545
I21
sg19
S'Y'
sg32
g33
sS'.thisTrialN'
p2546
I12
sS'.thisN'
p2547
I327
sS'.thisIndex'
p2548
I0
sg15
(lp2549
S'k'
asg30
g31
sg16
S'N'
sg14
I7
sg18
Nsg94
I0
sa(dp2550
g20
(lp2551
S'k'
asg17
S'N'
sS'.thisRepN'
p2552
I21
sg19
S'Y'
sg32
g33
sS'.thisTrialN'
p2553
I13
sS'.thisN'
p2554
I328
sS'.thisIndex'
p2555
I6
sg15
(lp2556
S'k'
asg30
g31
sg16
S'Y'
sg14
I7
sg18
Nsg94
I6
sa(dp2557
g20
(lp2558
S'k'
asg17
S'N'
sS'.thisRepN'
p2559
I21
sg19
S'Y'
sg32
g33
sS'.thisTrialN'
p2560
I14
sS'.thisN'
p2561
I329
sS'.thisIndex'
p2562
I8
sg15
(lp2563
S'k'
asg30
g31
sg16
S'Y'
sg14
I7
sg18
Nsg94
I8
sa(dp2564
g17
S'N'
sS'.thisRepN'
p2565
I22
sg19
S'Y'
sg32
g33
sS'.thisTrialN'
p2566
I0
sS'.thisN'
p2567
I330
sS'.thisIndex'
p2568
I5
sg15
Nsg30
g31
sg16
g99
sg14
I7
sg18
Nsg94
I5
sa(dp2569
g20
(lp2570
S'd'
asg17
S'Y'
sS'.thisRepN'
p2571
I22
sg19
S'Y'
sg32
g33
sS'.thisTrialN'
p2572
I1
sS'.thisN'
p2573
I331
sS'.thisIndex'
p2574
I10
sg15
(lp2575
S'd'
asg30
g31
sg16
S'Y'
sg14
I7
sg18
(lp2576
S'space'
p2577
asg94
I10
sa(dp2578
g20
(lp2579
S'd'
asg17
S'N'
sS'.thisRepN'
p2580
I22
sg19
S'Y'
sg32
g33
sS'.thisTrialN'
p2581
I2
sS'.thisN'
p2582
I332
sS'.thisIndex'
p2583
I3
sg15
(lp2584
S'k'
asg30
g31
sg16
S'N'
sg14
I7
sg18
Nsg94
I3
sa(dp2585
g20
(lp2586
S'k'
asg17
S'N'
sS'.thisRepN'
p2587
I22
sg19
S'Y'
sg32
g33
sS'.thisTrialN'
p2588
I3
sS'.thisN'
p2589
I333
sS'.thisIndex'
p2590
I10
sg15
(lp2591
S'k'
asg30
g31
sg16
S'Y'
sg14
I7
sg18
Nsg94
I10
sa(dp2592
g20
(lp2593
S'd'
asg17
S'Y'
sS'.thisRepN'
p2594
I22
sg19
S'Y'
sg32
g33
sS'.thisTrialN'
p2595
I4
sS'.thisN'
p2596
I334
sS'.thisIndex'
p2597
I8
sg15
(lp2598
S'k'
asg30
g31
sg16
S'N'
sg14
I7
sg18
(lp2599
S'space'
p2600
asg94
I8
sa(dp2601
g20
(lp2602
S'd'
asg17
S'N'
sS'.thisRepN'
p2603
I22
sg19
S'Y'
sg32
g33
sS'.thisTrialN'
p2604
I5
sS'.thisN'
p2605
I335
sS'.thisIndex'
p2606
I13
sg15
(lp2607
S'k'
asg30
g31
sg16
S'N'
sg14
I7
sg18
Nsg94
I13
sa(dp2608
g20
(lp2609
S'd'
asg17
S'N'
sS'.thisRepN'
p2610
I22
sg19
S'Y'
sg32
g33
sS'.thisTrialN'
p2611
I6
sS'.thisN'
p2612
I336
sS'.thisIndex'
p2613
I3
sg15
(lp2614
S'k'
asg30
g31
sg16
S'N'
sg14
I7
sg18
Nsg94
I3
sa(dp2615
g20
(lp2616
S'k'
asg17
S'Y'
sS'.thisRepN'
p2617
I22
sg19
S'N'
sg32
g33
sS'.thisTrialN'
p2618
I7
sS'.thisN'
p2619
I337
sS'.thisIndex'
p2620
I9
sg15
(lp2621
S'd'
asg30
g31
sg16
S'N'
sg14
I7
sg18
Nsg94
I9
sa(dp2622
g20
(lp2623
S'k'
asg17
S'N'
sS'.thisRepN'
p2624
I22
sg19
S'Y'
sg32
g33
sS'.thisTrialN'
p2625
I8
sS'.thisN'
p2626
I338
sS'.thisIndex'
p2627
I4
sg15
(lp2628
S'k'
asg30
g31
sg16
S'Y'
sg14
I7
sg18
Nsg94
I4
sa(dp2629
g20
(lp2630
S'd'
asg17
S'Y'
sS'.thisRepN'
p2631
I22
sg19
S'Y'
sg32
g33
sS'.thisTrialN'
p2632
I9
sS'.thisN'
p2633
I339
sS'.thisIndex'
p2634
I5
sg15
(lp2635
S'd'
asg30
g31
sg16
S'Y'
sg14
I7
sg18
(lp2636
S'space'
p2637
asg94
I5
sa(dp2638
g20
(lp2639
S'k'
asg17
S'N'
sS'.thisRepN'
p2640
I22
sg19
S'Y'
sg32
g33
sS'.thisTrialN'
p2641
I10
sS'.thisN'
p2642
I340
sS'.thisIndex'
p2643
I0
sg15
(lp2644
S'd'
asg30
g31
sg16
S'N'
sg14
I7
sg18
Nsg94
I0
sa(dp2645
g20
(lp2646
S'k'
asg17
S'Y'
sS'.thisRepN'
p2647
I22
sg19
S'N'
sg32
g33
sS'.thisTrialN'
p2648
I11
sS'.thisN'
p2649
I341
sS'.thisIndex'
p2650
I2
sg15
(lp2651
S'k'
asg30
g31
sg16
S'Y'
sg14
I7
sg18
Nsg94
I2
sa(dp2652
g20
(lp2653
S'd'
asg17
S'N'
sS'.thisRepN'
p2654
I22
sg19
S'Y'
sg32
g33
sS'.thisTrialN'
p2655
I12
sS'.thisN'
p2656
I342
sS'.thisIndex'
p2657
I12
sg15
(lp2658
S'd'
asg30
g31
sg16
S'Y'
sg14
I7
sg18
Nsg94
I12
sa(dp2659
g20
(lp2660
S'k'
asg17
S'N'
sS'.thisRepN'
p2661
I22
sg19
S'Y'
sg32
g33
sS'.thisTrialN'
p2662
I13
sS'.thisN'
p2663
I343
sS'.thisIndex'
p2664
I13
sg15
(lp2665
S'k'
asg30
g31
sg16
S'Y'
sg14
I7
sg18
Nsg94
I13
sa(dp2666
g20
(lp2667
S'k'
asg17
S'N'
sS'.thisRepN'
p2668
I22
sg19
S'Y'
sg32
g33
sS'.thisTrialN'
p2669
I14
sS'.thisN'
p2670
I344
sS'.thisIndex'
p2671
I13
sg15
(lp2672
S'k'
asg30
g31
sg16
S'Y'
sg14
I7
sg18
Nsg94
I13
sa(dp2673
g20
(lp2674
S'k'
asg17
S'Y'
sS'.thisRepN'
p2675
I23
sg19
S'Y'
sg32
g33
sS'.thisTrialN'
p2676
I0
sS'.thisN'
p2677
I345
sS'.thisIndex'
p2678
I0
sg15
(lp2679
S'k'
asg30
g31
sg16
S'Y'
sg14
I7
sg18
(lp2680
S'space'
p2681
asg94
I0
sa(dp2682
g20
(lp2683
S'k'
asg17
S'N'
sS'.thisRepN'
p2684
I23
sg19
S'Y'
sg32
g33
sS'.thisTrialN'
p2685
I1
sS'.thisN'
p2686
I346
sS'.thisIndex'
p2687
I11
sg15
(lp2688
S'k'
asg30
g31
sg16
S'Y'
sg14
I7
sg18
Nsg94
I11
sa(dp2689
g20
(lp2690
S'd'
asg17
S'N'
sS'.thisRepN'
p2691
I23
sg19
S'Y'
sg32
g33
sS'.thisTrialN'
p2692
I2
sS'.thisN'
p2693
I347
sS'.thisIndex'
p2694
I4
sg15
(lp2695
S'd'
asg30
g31
sg16
S'Y'
sg14
I7
sg18
Nsg94
I4
sa(dp2696
g20
(lp2697
S'd'
asg17
S'N'
sS'.thisRepN'
p2698
I23
sg19
S'Y'
sg32
g33
sS'.thisTrialN'
p2699
I3
sS'.thisN'
p2700
I348
sS'.thisIndex'
p2701
I10
sg15
(lp2702
S'k'
asg30
g31
sg16
S'N'
sg14
I7
sg18
Nsg94
I10
sa(dp2703
g20
(lp2704
S'd'
asg17
S'N'
sg22
I44
sS'.thisN'
p2705
I349
sg19
S'Y'
sg32
g33
sS'.thisTrialN'
p2706
I4
sS'.thisRepN'
p2707
I23
sg21
I23
sS'.thisIndex'
p2708
I0
sg23
I19
sg15
(lp2709
S'k'
asg30
g31
sg16
S'N'
sg14
I7
sg18
Nsg94
I0
sa(dp2710
g20
(lp2711
S'd'
asg94
I7
sS'.thisRepN'
p2712
I23
sg30
g31
sg32
g33
sS'.thisTrialN'
p2713
I5
sS'.thisN'
p2714
I350
sS'.thisIndex'
p2715
I7
sg15
(lp2716
S'k'
asg16
S'N'
sg14
I8
sa(dp2717
g20
(lp2718
S'd'
asg94
I7
sS'.thisRepN'
p2719
I23
sg30
g31
sg32
g33
sS'.thisTrialN'
p2720
I6
sS'.thisN'
p2721
I351
sS'.thisIndex'
p2722
I7
sg15
(lp2723
S'd'
asg16
S'Y'
sg14
I8
sa(dp2724
g20
(lp2725
S'd'
asg17
S'N'
sS'.thisRepN'
p2726
I23
sg19
S'Y'
sg32
g33
sS'.thisTrialN'
p2727
I7
sS'.thisN'
p2728
I352
sS'.thisIndex'
p2729
I14
sg15
(lp2730
S'd'
asg30
g31
sg16
S'Y'
sg14
I8
sg18
Nsg94
I14
sa(dp2731
g20
(lp2732
S'd'
asg17
S'N'
sS'.thisRepN'
p2733
I23
sg19
S'Y'
sg32
g33
sS'.thisTrialN'
p2734
I8
sS'.thisN'
p2735
I353
sS'.thisIndex'
p2736
I8
sg15
(lp2737
S'd'
asg30
g31
sg16
S'Y'
sg14
I8
sg18
Nsg94
I8
sa(dp2738
g20
(lp2739
S'k'
asg17
S'N'
sS'.thisRepN'
p2740
I23
sg19
S'Y'
sg32
g33
sS'.thisTrialN'
p2741
I9
sS'.thisN'
p2742
I354
sS'.thisIndex'
p2743
I11
sg15
(lp2744
S'k'
asg30
g31
sg16
S'Y'
sg14
I8
sg18
Nsg94
I11
sa(dp2745
g20
(lp2746
S'd'
asg17
S'N'
sS'.thisRepN'
p2747
I23
sg19
S'Y'
sg32
g33
sS'.thisTrialN'
p2748
I10
sS'.thisN'
p2749
I355
sS'.thisIndex'
p2750
I13
sg15
(lp2751
S'd'
asg30
g31
sg16
S'Y'
sg14
I8
sg18
Nsg94
I13
sa(dp2752
g20
(lp2753
S'k'
asg17
S'N'
sS'.thisRepN'
p2754
I23
sg19
S'Y'
sg32
g33
sS'.thisTrialN'
p2755
I11
sS'.thisN'
p2756
I356
sS'.thisIndex'
p2757
I7
sg15
(lp2758
S'd'
asg30
g31
sg16
S'N'
sg14
I8
sg18
Nsg94
I7
sa(dp2759
g20
(lp2760
S'd'
asg17
S'Y'
sS'.thisRepN'
p2761
I23
sg19
S'Y'
sg32
g33
sS'.thisTrialN'
p2762
I12
sS'.thisN'
p2763
I357
sS'.thisIndex'
p2764
I3
sg15
(lp2765
S'd'
asg30
g31
sg16
S'Y'
sg14
I8
sg18
(lp2766
S'space'
p2767
asg94
I3
sa(dp2768
g20
(lp2769
S'd'
asg17
S'N'
sS'.thisRepN'
p2770
I23
sg19
S'Y'
sg32
g33
sS'.thisTrialN'
p2771
I13
sS'.thisN'
p2772
I358
sS'.thisIndex'
p2773
I12
sg15
(lp2774
S'k'
asg30
g31
sg16
S'N'
sg14
I8
sg18
Nsg94
I12
sa(dp2775
g20
(lp2776
S'k'
asg17
S'N'
sS'.thisRepN'
p2777
I23
sg19
S'Y'
sg32
g33
sS'.thisTrialN'
p2778
I14
sS'.thisN'
p2779
I359
sS'.thisIndex'
p2780
I13
sg15
(lp2781
S'k'
asg30
g31
sg16
S'Y'
sg14
I8
sg18
Nsg94
I13
sa(dp2782
g20
(lp2783
S'd'
asg17
S'N'
sS'.thisRepN'
p2784
I24
sg19
S'Y'
sg32
g33
sS'.thisTrialN'
p2785
I0
sS'.thisN'
p2786
I360
sS'.thisIndex'
p2787
I5
sg15
(lp2788
S'd'
asg30
g31
sg16
S'Y'
sg14
I8
sg18
Nsg94
I5
sa(dp2789
g20
(lp2790
S'd'
asg17
S'N'
sS'.thisRepN'
p2791
I24
sg19
S'Y'
sg32
g33
sS'.thisTrialN'
p2792
I1
sS'.thisN'
p2793
I361
sS'.thisIndex'
p2794
I1
sg15
(lp2795
S'd'
asg30
g31
sg16
S'Y'
sg14
I8
sg18
Nsg94
I1
sa(dp2796
g20
(lp2797
S'd'
asg17
S'N'
sS'.thisRepN'
p2798
I24
sg19
S'Y'
sg32
g33
sS'.thisTrialN'
p2799
I2
sS'.thisN'
p2800
I362
sS'.thisIndex'
p2801
I2
sg15
(lp2802
S'd'
asg30
g31
sg16
S'Y'
sg14
I8
sg18
Nsg94
I2
sa(dp2803
g20
(lp2804
S'k'
asg17
S'N'
sS'.thisRepN'
p2805
I24
sg19
S'Y'
sg32
g33
sS'.thisTrialN'
p2806
I3
sS'.thisN'
p2807
I363
sS'.thisIndex'
p2808
I0
sg15
(lp2809
S'k'
asg30
g31
sg16
S'Y'
sg14
I8
sg18
Nsg94
I0
sa(dp2810
g20
(lp2811
S'k'
asg17
S'Y'
sS'.thisRepN'
p2812
I24
sg19
S'Y'
sg32
g33
sS'.thisTrialN'
p2813
I4
sS'.thisN'
p2814
I364
sS'.thisIndex'
p2815
I11
sg15
(lp2816
S'd'
asg30
g31
sg16
S'N'
sg14
I8
sg18
(lp2817
S'space'
p2818
asg94
I11
sa(dp2819
g20
(lp2820
S'k'
asg17
S'Y'
sS'.thisRepN'
p2821
I24
sg19
S'Y'
sg32
g33
sS'.thisTrialN'
p2822
I5
sS'.thisN'
p2823
I365
sS'.thisIndex'
p2824
I12
sg15
(lp2825
S'k'
asg30
g31
sg16
S'Y'
sg14
I8
sg18
(lp2826
S'space'
p2827
asg94
I12
sa(dp2828
g20
(lp2829
S'k'
asg17
S'Y'
sS'.thisRepN'
p2830
I24
sg19
S'N'
sg32
g33
sS'.thisTrialN'
p2831
I6
sS'.thisN'
p2832
I366
sS'.thisIndex'
p2833
I5
sg15
(lp2834
S'k'
asg30
g31
sg16
S'Y'
sg14
I8
sg18
Nsg94
I5
sa(dp2835
g20
(lp2836
S'd'
asg17
S'N'
sS'.thisRepN'
p2837
I24
sg19
S'Y'
sg32
g33
sS'.thisTrialN'
p2838
I7
sS'.thisN'
p2839
I367
sS'.thisIndex'
p2840
I11
sg15
(lp2841
S'd'
asg30
g31
sg16
S'Y'
sg14
I8
sg18
Nsg94
I11
sa(dp2842
g20
(lp2843
S'k'
asg17
S'Y'
sS'.thisRepN'
p2844
I24
sg19
S'Y'
sg32
g33
sS'.thisTrialN'
p2845
I8
sS'.thisN'
p2846
I368
sS'.thisIndex'
p2847
I11
sg15
(lp2848
S'k'
asg30
g31
sg16
S'Y'
sg14
I8
sg18
(lp2849
S'space'
p2850
asg94
I11
sa(dp2851
g20
(lp2852
S'k'
asg17
S'Y'
sS'.thisRepN'
p2853
I24
sg19
S'Y'
sg32
g33
sS'.thisTrialN'
p2854
I9
sS'.thisN'
p2855
I369
sS'.thisIndex'
p2856
I10
sg15
(lp2857
S'd'
asg30
g31
sg16
S'N'
sg14
I8
sg18
(lp2858
S'space'
p2859
asg94
I10
sa(dp2860
g20
(lp2861
S'k'
asg17
S'Y'
sS'.thisRepN'
p2862
I24
sg19
S'Y'
sg32
g33
sS'.thisTrialN'
p2863
I10
sS'.thisN'
p2864
I370
sS'.thisIndex'
p2865
I5
sg15
(lp2866
S'k'
asg30
g31
sg16
S'Y'
sg14
I8
sg18
(lp2867
S'space'
p2868
asg94
I5
sa(dp2869
g20
(lp2870
S'd'
asg17
S'Y'
sS'.thisRepN'
p2871
I24
sg19
S'Y'
sg32
g33
sS'.thisTrialN'
p2872
I11
sS'.thisN'
p2873
I371
sS'.thisIndex'
p2874
I1
sg15
(lp2875
S'd'
asg30
g31
sg16
S'Y'
sg14
I8
sg18
(lp2876
S'space'
p2877
asg94
I1
sa(dp2878
g20
(lp2879
S'd'
asg17
S'Y'
sS'.thisRepN'
p2880
I24
sg19
S'N'
sg32
g33
sS'.thisTrialN'
p2881
I12
sS'.thisN'
p2882
I372
sS'.thisIndex'
p2883
I7
sg15
(lp2884
S'k'
asg30
g31
sg16
S'N'
sg14
I8
sg18
Nsg94
I7
sa(dp2885
g20
(lp2886
S'd'
asg17
S'Y'
sS'.thisRepN'
p2887
I24
sg19
S'Y'
sg32
g33
sS'.thisTrialN'
p2888
I13
sS'.thisN'
p2889
I373
sS'.thisIndex'
p2890
I9
sg15
(lp2891
S'd'
asg30
g31
sg16
S'Y'
sg14
I8
sg18
(lp2892
S'space'
p2893
asg94
I9
sa(dp2894
g20
(lp2895
S'k'
asg17
S'N'
sS'.thisRepN'
p2896
I24
sg19
S'Y'
sg32
g33
sS'.thisTrialN'
p2897
I14
sS'.thisN'
p2898
I374
sS'.thisIndex'
p2899
I1
sg15
(lp2900
S'd'
asg30
g31
sg16
S'N'
sg14
I8
sg18
Nsg94
I1
sa(dp2901
g20
(lp2902
S'd'
asg17
S'N'
sS'.thisRepN'
p2903
I25
sg19
S'Y'
sg32
g33
sS'.thisTrialN'
p2904
I0
sS'.thisN'
p2905
I375
sS'.thisIndex'
p2906
I12
sg15
(lp2907
S'd'
asg30
g31
sg16
S'Y'
sg14
I8
sg18
Nsg94
I12
sa(dp2908
g20
(lp2909
S'd'
asg17
S'Y'
sS'.thisRepN'
p2910
I25
sg19
S'Y'
sg32
g33
sS'.thisTrialN'
p2911
I1
sS'.thisN'
p2912
I376
sS'.thisIndex'
p2913
I12
sg15
(lp2914
S'd'
asg30
g31
sg16
S'Y'
sg14
I8
sg18
(lp2915
S'space'
p2916
asg94
I12
sa(dp2917
g20
(lp2918
S'd'
asg17
S'N'
sS'.thisRepN'
p2919
I25
sg19
S'Y'
sg32
g33
sS'.thisTrialN'
p2920
I2
sS'.thisN'
p2921
I377
sS'.thisIndex'
p2922
I0
sg15
(lp2923
S'k'
asg30
g31
sg16
S'N'
sg14
I8
sg18
Nsg94
I0
sa(dp2924
g20
(lp2925
S'k'
asg17
S'Y'
sS'.thisRepN'
p2926
I25
sg19
S'Y'
sg32
g33
sS'.thisTrialN'
p2927
I3
sS'.thisN'
p2928
I378
sS'.thisIndex'
p2929
I5
sg15
(lp2930
S'd'
asg30
g31
sg16
S'N'
sg14
I8
sg18
(lp2931
S'space'
p2932
asg94
I5
sa(dp2933
g20
(lp2934
S'd'
asg17
S'N'
sS'.thisRepN'
p2935
I25
sg19
S'Y'
sg32
g33
sS'.thisTrialN'
p2936
I4
sS'.thisN'
p2937
I379
sS'.thisIndex'
p2938
I3
sg15
(lp2939
S'd'
asg30
g31
sg16
S'Y'
sg14
I8
sg18
Nsg94
I3
sa(dp2940
g20
(lp2941
S'k'
asg17
S'N'
sS'.thisRepN'
p2942
I25
sg19
S'Y'
sg32
g33
sS'.thisTrialN'
p2943
I5
sS'.thisN'
p2944
I380
sS'.thisIndex'
p2945
I9
sg15
(lp2946
S'k'
asg30
g31
sg16
S'Y'
sg14
I8
sg18
Nsg94
I9
sa(dp2947
g20
(lp2948
S'd'
asg17
S'Y'
sS'.thisRepN'
p2949
I25
sg19
S'Y'
sg32
g33
sS'.thisTrialN'
p2950
I6
sS'.thisN'
p2951
I381
sS'.thisIndex'
p2952
I8
sg15
(lp2953
S'k'
asg30
g31
sg16
S'N'
sg14
I8
sg18
(lp2954
S'space'
p2955
asg94
I8
sa(dp2956
g20
(lp2957
S'd'
asg17
S'N'
sS'.thisRepN'
p2958
I25
sg19
S'Y'
sg32
g33
sS'.thisTrialN'
p2959
I7
sS'.thisN'
p2960
I382
sS'.thisIndex'
p2961
I8
sg15
(lp2962
S'd'
asg30
g31
sg16
S'Y'
sg14
I8
sg18
Nsg94
I8
sa(dp2963
g20
(lp2964
S'd'
asg17
S'Y'
sS'.thisRepN'
p2965
I25
sg19
S'Y'
sg32
g33
sS'.thisTrialN'
p2966
I8
sS'.thisN'
p2967
I383
sS'.thisIndex'
p2968
I6
sg15
(lp2969
S'k'
asg30
g31
sg16
S'N'
sg14
I8
sg18
(lp2970
S'space'
p2971
asg94
I6
sa(dp2972
g20
(lp2973
S'k'
asg17
S'Y'
sS'.thisRepN'
p2974
I25
sg19
S'Y'
sg32
g33
sS'.thisTrialN'
p2975
I9
sS'.thisN'
p2976
I384
sS'.thisIndex'
p2977
I4
sg15
(lp2978
S'k'
asg30
g31
sg16
S'Y'
sg14
I8
sg18
(lp2979
S'space'
p2980
asg94
I4
sa(dp2981
g20
(lp2982
S'k'
asg17
S'N'
sS'.thisRepN'
p2983
I25
sg19
S'Y'
sg32
g33
sS'.thisTrialN'
p2984
I10
sS'.thisN'
p2985
I385
sS'.thisIndex'
p2986
I2
sg15
(lp2987
S'd'
asg30
g31
sg16
S'N'
sg14
I8
sg18
Nsg94
I2
sa(dp2988
g20
(lp2989
S'k'
asg17
S'Y'
sS'.thisRepN'
p2990
I25
sg19
S'Y'
sg32
g33
sS'.thisTrialN'
p2991
I11
sS'.thisN'
p2992
I386
sS'.thisIndex'
p2993
I10
sg15
(lp2994
S'k'
asg30
g31
sg16
S'Y'
sg14
I8
sg18
(lp2995
S'space'
p2996
asg94
I10
sa(dp2997
g20
(lp2998
S'd'
asg17
S'N'
sS'.thisRepN'
p2999
I25
sg19
S'Y'
sg32
g33
sS'.thisTrialN'
p3000
I12
sS'.thisN'
p3001
I387
sS'.thisIndex'
p3002
I14
sg15
(lp3003
S'd'
asg30
g31
sg16
S'Y'
sg14
I8
sg18
Nsg94
I14
sa(dp3004
g20
(lp3005
S'd'
asg17
S'N'
sS'.thisRepN'
p3006
I25
sg19
S'Y'
sg32
g33
sS'.thisTrialN'
p3007
I13
sS'.thisN'
p3008
I388
sS'.thisIndex'
p3009
I14
sg15
(lp3010
S'd'
asg30
g31
sg16
S'Y'
sg14
I8
sg18
Nsg94
I14
sa(dp3011
g20
(lp3012
S'd'
asg17
S'N'
sS'.thisRepN'
p3013
I25
sg19
S'Y'
sg32
g33
sS'.thisTrialN'
p3014
I14
sS'.thisN'
p3015
I389
sS'.thisIndex'
p3016
I14
sg15
(lp3017
S'd'
asg30
g31
sg16
S'Y'
sg14
I8
sg18
Nsg94
I14
sa(dp3018
g20
(lp3019
S'k'
asg17
S'Y'
sS'.thisRepN'
p3020
I26
sg19
S'Y'
sg32
g33
sS'.thisTrialN'
p3021
I0
sS'.thisN'
p3022
I390
sS'.thisIndex'
p3023
I7
sg15
(lp3024
S'k'
asg30
g31
sg16
S'Y'
sg14
I8
sg18
(lp3025
S'space'
p3026
asg94
I7
sa(dp3027
g20
(lp3028
S'd'
asg17
S'Y'
sS'.thisRepN'
p3029
I26
sg19
S'N'
sg32
g33
sS'.thisTrialN'
p3030
I1
sS'.thisN'
p3031
I391
sS'.thisIndex'
p3032
I3
sg15
(lp3033
S'd'
asg30
g31
sg16
S'Y'
sg14
I8
sg18
Nsg94
I3
sa(dp3034
g20
(lp3035
S'd'
asg17
S'N'
sS'.thisRepN'
p3036
I26
sg19
S'Y'
sg32
g33
sS'.thisTrialN'
p3037
I2
sS'.thisN'
p3038
I392
sS'.thisIndex'
p3039
I0
sg15
(lp3040
S'd'
asg30
g31
sg16
S'Y'
sg14
I8
sg18
Nsg94
I0
sa(dp3041
g20
(lp3042
S'd'
asg17
S'N'
sS'.thisRepN'
p3043
I26
sg19
S'Y'
sg32
g33
sS'.thisTrialN'
p3044
I3
sS'.thisN'
p3045
I393
sS'.thisIndex'
p3046
I3
sg15
(lp3047
S'd'
asg30
g31
sg16
S'Y'
sg14
I8
sg18
Nsg94
I3
sa(dp3048
g20
(lp3049
S'd'
asg17
S'N'
sS'.thisRepN'
p3050
I26
sg19
S'Y'
sg32
g33
sS'.thisTrialN'
p3051
I4
sS'.thisN'
p3052
I394
sS'.thisIndex'
p3053
I10
sg15
(lp3054
S'k'
asg30
g31
sg16
S'N'
sg14
I8
sg18
Nsg94
I10
sa(dp3055
g20
(lp3056
S'd'
asg17
S'Y'
sS'.thisRepN'
p3057
I26
sg19
S'Y'
sg32
g33
sS'.thisTrialN'
p3058
I5
sS'.thisN'
p3059
I395
sS'.thisIndex'
p3060
I10
sg15
(lp3061
S'd'
asg30
g31
sg16
S'Y'
sg14
I8
sg18
(lp3062
S'space'
p3063
asg94
I10
sa(dp3064
g20
(lp3065
S'k'
asg17
S'N'
sS'.thisRepN'
p3066
I26
sg19
S'Y'
sg32
g33
sS'.thisTrialN'
p3067
I6
sS'.thisN'
p3068
I396
sS'.thisIndex'
p3069
I13
sg15
(lp3070
S'd'
asg30
g31
sg16
S'N'
sg14
I8
sg18
Nsg94
I13
sa(dp3071
g20
(lp3072
S'k'
asg17
S'N'
sS'.thisRepN'
p3073
I26
sg19
S'Y'
sg32
g33
sS'.thisTrialN'
p3074
I7
sS'.thisN'
p3075
I397
sS'.thisIndex'
p3076
I13
sg15
(lp3077
S'd'
asg30
g31
sg16
S'N'
sg14
I8
sg18
Nsg94
I13
sa(dp3078
g20
(lp3079
S'd'
asg17
S'Y'
sS'.thisRepN'
p3080
I26
sg19
S'Y'
sg32
g33
sS'.thisTrialN'
p3081
I8
sS'.thisN'
p3082
I398
sS'.thisIndex'
p3083
I0
sg15
(lp3084
S'k'
asg30
g31
sg16
S'N'
sg14
I8
sg18
(lp3085
S'space'
p3086
asg94
I0
sa(dp3087
g20
(lp3088
S'k'
asg17
S'N'
sg22
I45
sS'.thisN'
p3089
I399
sg19
S'Y'
sg32
g33
sS'.thisTrialN'
p3090
I9
sS'.thisRepN'
p3091
I26
sg21
I33
sS'.thisIndex'
p3092
I8
sg23
I20
sg15
(lp3093
S'd'
asg30
g31
sg16
S'N'
sg14
I8
sg18
Nsg94
I8
sa(dp3094
g20
(lp3095
S'd'
asg94
I5
sS'.thisRepN'
p3096
I26
sg30
g31
sg32
g33
sS'.thisTrialN'
p3097
I10
sS'.thisN'
p3098
I400
sS'.thisIndex'
p3099
I5
sg15
(lp3100
S'd'
asg16
S'Y'
sg14
I9
sa(dp3101
g20
(lp3102
S'k'
asg94
I4
sS'.thisRepN'
p3103
I26
sg30
g31
sg32
g33
sS'.thisTrialN'
p3104
I11
sS'.thisN'
p3105
I401
sS'.thisIndex'
p3106
I4
sg15
(lp3107
S'd'
asg16
S'N'
sg14
I9
sa(dp3108
g20
(lp3109
S'k'
asg17
S'Y'
sS'.thisRepN'
p3110
I26
sg19
S'Y'
sg32
g33
sS'.thisTrialN'
p3111
I12
sS'.thisN'
p3112
I402
sS'.thisIndex'
p3113
I1
sg15
(lp3114
S'd'
asg30
g31
sg16
S'N'
sg14
I9
sg18
(lp3115
S'space'
p3116
asg94
I1
sa(dp3117
g20
(lp3118
S'd'
asg17
S'Y'
sS'.thisRepN'
p3119
I26
sg19
S'Y'
sg32
g33
sS'.thisTrialN'
p3120
I13
sS'.thisN'
p3121
I403
sS'.thisIndex'
p3122
I0
sg15
(lp3123
S'd'
asg30
g31
sg16
S'Y'
sg14
I9
sg18
(lp3124
S'space'
p3125
asg94
I0
sa(dp3126
g20
(lp3127
S'k'
asg17
S'Y'
sS'.thisRepN'
p3128
I26
sg19
S'Y'
sg32
g33
sS'.thisTrialN'
p3129
I14
sS'.thisN'
p3130
I404
sS'.thisIndex'
p3131
I13
sg15
(lp3132
S'k'
asg30
g31
sg16
S'Y'
sg14
I9
sg18
(lp3133
S'space'
p3134
asg94
I13
sa(dp3135
g20
(lp3136
S'k'
asg17
S'N'
sS'.thisRepN'
p3137
I27
sg19
S'Y'
sg32
g33
sS'.thisTrialN'
p3138
I0
sS'.thisN'
p3139
I405
sS'.thisIndex'
p3140
I3
sg15
(lp3141
S'd'
asg30
g31
sg16
S'N'
sg14
I9
sg18
Nsg94
I3
sa(dp3142
g20
(lp3143
S'd'
asg17
S'Y'
sS'.thisRepN'
p3144
I27
sg19
S'Y'
sg32
g33
sS'.thisTrialN'
p3145
I1
sS'.thisN'
p3146
I406
sS'.thisIndex'
p3147
I7
sg15
(lp3148
S'k'
asg30
g31
sg16
S'N'
sg14
I9
sg18
(lp3149
S'space'
p3150
asg94
I7
sa(dp3151
g20
(lp3152
S'k'
asg17
S'Y'
sS'.thisRepN'
p3153
I27
sg19
S'Y'
sg32
g33
sS'.thisTrialN'
p3154
I2
sS'.thisN'
p3155
I407
sS'.thisIndex'
p3156
I5
sg15
(lp3157
S'd'
asg30
g31
sg16
S'N'
sg14
I9
sg18
(lp3158
S'space'
p3159
asg94
I5
sa(dp3160
g20
(lp3161
S'k'
asg17
S'Y'
sS'.thisRepN'
p3162
I27
sg19
S'Y'
sg32
g33
sS'.thisTrialN'
p3163
I3
sS'.thisN'
p3164
I408
sS'.thisIndex'
p3165
I1
sg15
(lp3166
S'k'
asg30
g31
sg16
S'Y'
sg14
I9
sg18
(lp3167
S'space'
p3168
asg94
I1
sa(dp3169
g20
(lp3170
S'k'
asg17
S'Y'
sS'.thisRepN'
p3171
I27
sg19
S'Y'
sg32
g33
sS'.thisTrialN'
p3172
I4
sS'.thisN'
p3173
I409
sS'.thisIndex'
p3174
I10
sg15
(lp3175
S'k'
asg30
g31
sg16
S'Y'
sg14
I9
sg18
(lp3176
S'space'
p3177
asg94
I10
sa(dp3178
g20
(lp3179
S'k'
asg17
S'Y'
sS'.thisRepN'
p3180
I27
sg19
S'Y'
sg32
g33
sS'.thisTrialN'
p3181
I5
sS'.thisN'
p3182
I410
sS'.thisIndex'
p3183
I14
sg15
(lp3184
S'k'
asg30
g31
sg16
S'Y'
sg14
I9
sg18
(lp3185
S'space'
p3186
asg94
I14
sa(dp3187
g20
(lp3188
S'k'
asg17
S'N'
sS'.thisRepN'
p3189
I27
sg19
S'Y'
sg32
g33
sS'.thisTrialN'
p3190
I6
sS'.thisN'
p3191
I411
sS'.thisIndex'
p3192
I13
sg15
(lp3193
S'd'
asg30
g31
sg16
S'N'
sg14
I9
sg18
Nsg94
I13
sa(dp3194
g20
(lp3195
S'd'
asg17
S'Y'
sS'.thisRepN'
p3196
I27
sg19
S'Y'
sg32
g33
sS'.thisTrialN'
p3197
I7
sS'.thisN'
p3198
I412
sS'.thisIndex'
p3199
I3
sg15
(lp3200
S'd'
asg30
g31
sg16
S'Y'
sg14
I9
sg18
(lp3201
S'space'
p3202
asg94
I3
sa(dp3203
g20
(lp3204
S'd'
asg17
S'N'
sS'.thisRepN'
p3205
I27
sg19
S'Y'
sg32
g33
sS'.thisTrialN'
p3206
I8
sS'.thisN'
p3207
I413
sS'.thisIndex'
p3208
I14
sg15
(lp3209
S'k'
asg30
g31
sg16
S'N'
sg14
I9
sg18
Nsg94
I14
sa(dp3210
g20
(lp3211
S'k'
asg17
S'N'
sS'.thisRepN'
p3212
I27
sg19
S'Y'
sg32
g33
sS'.thisTrialN'
p3213
I9
sS'.thisN'
p3214
I414
sS'.thisIndex'
p3215
I3
sg15
(lp3216
S'k'
asg30
g31
sg16
S'Y'
sg14
I9
sg18
Nsg94
I3
sa(dp3217
g20
(lp3218
S'k'
asg17
S'Y'
sS'.thisRepN'
p3219
I27
sg19
S'Y'
sg32
g33
sS'.thisTrialN'
p3220
I10
sS'.thisN'
p3221
I415
sS'.thisIndex'
p3222
I12
sg15
(lp3223
S'd'
asg30
g31
sg16
S'N'
sg14
I9
sg18
(lp3224
S'space'
p3225
asg94
I12
sa(dp3226
g20
(lp3227
S'k'
asg17
S'Y'
sS'.thisRepN'
p3228
I27
sg19
S'Y'
sg32
g33
sS'.thisTrialN'
p3229
I11
sS'.thisN'
p3230
I416
sS'.thisIndex'
p3231
I5
sg15
(lp3232
S'k'
asg30
g31
sg16
S'Y'
sg14
I9
sg18
(lp3233
S'space'
p3234
asg94
I5
sa(dp3235
g20
(lp3236
S'k'
asg17
S'Y'
sS'.thisRepN'
p3237
I27
sg19
S'Y'
sg32
g33
sS'.thisTrialN'
p3238
I12
sS'.thisN'
p3239
I417
sS'.thisIndex'
p3240
I11
sg15
(lp3241
S'k'
asg30
g31
sg16
S'Y'
sg14
I9
sg18
(lp3242
S'space'
p3243
asg94
I11
sa(dp3244
g20
(lp3245
S'k'
asg17
S'N'
sS'.thisRepN'
p3246
I27
sg19
S'Y'
sg32
g33
sS'.thisTrialN'
p3247
I13
sS'.thisN'
p3248
I418
sS'.thisIndex'
p3249
I5
sg15
(lp3250
S'd'
asg30
g31
sg16
S'N'
sg14
I9
sg18
Nsg94
I5
sa(dp3251
g20
(lp3252
S'd'
asg17
S'N'
sS'.thisRepN'
p3253
I27
sg19
S'Y'
sg32
g33
sS'.thisTrialN'
p3254
I14
sS'.thisN'
p3255
I419
sS'.thisIndex'
p3256
I12
sg15
(lp3257
S'd'
asg30
g31
sg16
S'Y'
sg14
I9
sg18
Nsg94
I12
sa(dp3258
g20
(lp3259
S'd'
asg17
S'N'
sS'.thisRepN'
p3260
I28
sg19
S'Y'
sg32
g33
sS'.thisTrialN'
p3261
I0
sS'.thisN'
p3262
I420
sS'.thisIndex'
p3263
I2
sg15
(lp3264
S'k'
asg30
g31
sg16
S'N'
sg14
I9
sg18
Nsg94
I2
sa(dp3265
g20
(lp3266
S'd'
asg17
S'N'
sS'.thisRepN'
p3267
I28
sg19
S'Y'
sg32
g33
sS'.thisTrialN'
p3268
I1
sS'.thisN'
p3269
I421
sS'.thisIndex'
p3270
I9
sg15
(lp3271
S'd'
asg30
g31
sg16
S'Y'
sg14
I9
sg18
Nsg94
I9
sa(dp3272
g20
(lp3273
S'd'
asg17
S'Y'
sS'.thisRepN'
p3274
I28
sg19
S'Y'
sg32
g33
sS'.thisTrialN'
p3275
I2
sS'.thisN'
p3276
I422
sS'.thisIndex'
p3277
I11
sg15
(lp3278
S'd'
asg30
g31
sg16
S'Y'
sg14
I9
sg18
(lp3279
S'space'
p3280
asg94
I11
sa(dp3281
g20
(lp3282
S'k'
asg17
S'N'
sS'.thisRepN'
p3283
I28
sg19
S'Y'
sg32
g33
sS'.thisTrialN'
p3284
I3
sS'.thisN'
p3285
I423
sS'.thisIndex'
p3286
I13
sg15
(lp3287
S'd'
asg30
g31
sg16
S'N'
sg14
I9
sg18
Nsg94
I13
sa(dp3288
g20
(lp3289
S'd'
asg17
S'Y'
sS'.thisRepN'
p3290
I28
sg19
S'Y'
sg32
g33
sS'.thisTrialN'
p3291
I4
sS'.thisN'
p3292
I424
sS'.thisIndex'
p3293
I8
sg15
(lp3294
S'k'
asg30
g31
sg16
S'N'
sg14
I9
sg18
(lp3295
S'space'
p3296
asg94
I8
sa(dp3297
g20
(lp3298
S'd'
asg17
S'Y'
sS'.thisRepN'
p3299
I28
sg19
S'Y'
sg32
g33
sS'.thisTrialN'
p3300
I5
sS'.thisN'
p3301
I425
sS'.thisIndex'
p3302
I6
sg15
(lp3303
S'd'
asg30
g31
sg16
S'Y'
sg14
I9
sg18
(lp3304
S'space'
p3305
asg94
I6
sa(dp3306
g20
(lp3307
S'd'
asg17
S'N'
sS'.thisRepN'
p3308
I28
sg19
S'Y'
sg32
g33
sS'.thisTrialN'
p3309
I6
sS'.thisN'
p3310
I426
sS'.thisIndex'
p3311
I7
sg15
(lp3312
S'd'
asg30
g31
sg16
S'Y'
sg14
I9
sg18
Nsg94
I7
sa(dp3313
g20
(lp3314
S'd'
asg17
S'Y'
sS'.thisRepN'
p3315
I28
sg19
S'Y'
sg32
g33
sS'.thisTrialN'
p3316
I7
sS'.thisN'
p3317
I427
sS'.thisIndex'
p3318
I10
sg15
(lp3319
S'k'
asg30
g31
sg16
S'N'
sg14
I9
sg18
(lp3320
S'space'
p3321
asg94
I10
sa(dp3322
g20
(lp3323
S'd'
asg17
S'N'
sS'.thisRepN'
p3324
I28
sg19
S'Y'
sg32
g33
sS'.thisTrialN'
p3325
I8
sS'.thisN'
p3326
I428
sS'.thisIndex'
p3327
I1
sg15
(lp3328
S'd'
asg30
g31
sg16
S'Y'
sg14
I9
sg18
Nsg94
I1
sa(dp3329
g20
(lp3330
S'd'
asg17
S'N'
sS'.thisRepN'
p3331
I28
sg19
S'Y'
sg32
g33
sS'.thisTrialN'
p3332
I9
sS'.thisN'
p3333
I429
sS'.thisIndex'
p3334
I6
sg15
(lp3335
S'd'
asg30
g31
sg16
S'Y'
sg14
I9
sg18
Nsg94
I6
sa(dp3336
g20
(lp3337
S'k'
asg17
S'N'
sS'.thisRepN'
p3338
I28
sg19
S'Y'
sg32
g33
sS'.thisTrialN'
p3339
I10
sS'.thisN'
p3340
I430
sS'.thisIndex'
p3341
I1
sg15
(lp3342
S'd'
asg30
g31
sg16
S'N'
sg14
I9
sg18
Nsg94
I1
sa(dp3343
g20
(lp3344
S'k'
asg17
S'N'
sS'.thisRepN'
p3345
I28
sg19
S'Y'
sg32
g33
sS'.thisTrialN'
p3346
I11
sS'.thisN'
p3347
I431
sS'.thisIndex'
p3348
I13
sg15
(lp3349
S'k'
asg30
g31
sg16
S'Y'
sg14
I9
sg18
Nsg94
I13
sa(dp3350
g20
(lp3351
S'k'
asg17
S'Y'
sS'.thisRepN'
p3352
I28
sg19
S'Y'
sg32
g33
sS'.thisTrialN'
p3353
I12
sS'.thisN'
p3354
I432
sS'.thisIndex'
p3355
I3
sg15
(lp3356
S'd'
asg30
g31
sg16
S'N'
sg14
I9
sg18
(lp3357
S'space'
p3358
asg94
I3
sa(dp3359
g20
(lp3360
S'k'
asg17
S'Y'
sS'.thisRepN'
p3361
I28
sg19
S'N'
sg32
g33
sS'.thisTrialN'
p3362
I13
sS'.thisN'
p3363
I433
sS'.thisIndex'
p3364
I1
sg15
(lp3365
S'd'
asg30
g31
sg16
S'N'
sg14
I9
sg18
Nsg94
I1
sa(dp3366
g20
(lp3367
S'd'
asg17
S'Y'
sS'.thisRepN'
p3368
I28
sg19
S'Y'
sg32
g33
sS'.thisTrialN'
p3369
I14
sS'.thisN'
p3370
I434
sS'.thisIndex'
p3371
I13
sg15
(lp3372
S'd'
asg30
g31
sg16
S'Y'
sg14
I9
sg18
(lp3373
S'space'
p3374
asg94
I13
sa(dp3375
g20
(lp3376
S'k'
asg17
S'N'
sS'.thisRepN'
p3377
I29
sg19
S'Y'
sg32
g33
sS'.thisTrialN'
p3378
I0
sS'.thisN'
p3379
I435
sS'.thisIndex'
p3380
I9
sg15
(lp3381
S'd'
asg30
g31
sg16
S'N'
sg14
I9
sg18
Nsg94
I9
sa(dp3382
g20
(lp3383
S'k'
asg17
S'Y'
sS'.thisRepN'
p3384
I29
sg19
S'Y'
sg32
g33
sS'.thisTrialN'
p3385
I1
sS'.thisN'
p3386
I436
sS'.thisIndex'
p3387
I10
sg15
(lp3388
S'd'
asg30
g31
sg16
S'N'
sg14
I9
sg18
(lp3389
S'space'
p3390
asg94
I10
sa(dp3391
g20
(lp3392
S'k'
asg17
S'N'
sS'.thisRepN'
p3393
I29
sg19
S'Y'
sg32
g33
sS'.thisTrialN'
p3394
I2
sS'.thisN'
p3395
I437
sS'.thisIndex'
p3396
I2
sg15
(lp3397
S'd'
asg30
g31
sg16
S'N'
sg14
I9
sg18
Nsg94
I2
sa(dp3398
g20
(lp3399
S'k'
asg17
S'N'
sS'.thisRepN'
p3400
I29
sg19
S'Y'
sg32
g33
sS'.thisTrialN'
p3401
I3
sS'.thisN'
p3402
I438
sS'.thisIndex'
p3403
I4
sg15
(lp3404
S'k'
asg30
g31
sg16
S'Y'
sg14
I9
sg18
Nsg94
I4
sa(dp3405
g20
(lp3406
S'd'
asg17
S'Y'
sS'.thisRepN'
p3407
I29
sg19
S'Y'
sg32
g33
sS'.thisTrialN'
p3408
I4
sS'.thisN'
p3409
I439
sS'.thisIndex'
p3410
I12
sg15
(lp3411
S'd'
asg30
g31
sg16
S'Y'
sg14
I9
sg18
(lp3412
S'space'
p3413
asg94
I12
sa(dp3414
g20
(lp3415
S'd'
asg17
S'N'
sS'.thisRepN'
p3416
I29
sg19
S'Y'
sg32
g33
sS'.thisTrialN'
p3417
I5
sS'.thisN'
p3418
I440
sS'.thisIndex'
p3419
I6
sg15
(lp3420
S'k'
asg30
g31
sg16
S'N'
sg14
I9
sg18
Nsg94
I6
sa(dp3421
g20
(lp3422
S'd'
asg17
S'Y'
sS'.thisRepN'
p3423
I29
sg19
S'Y'
sg32
g33
sS'.thisTrialN'
p3424
I6
sS'.thisN'
p3425
I441
sS'.thisIndex'
p3426
I5
sg15
(lp3427
S'k'
asg30
g31
sg16
S'N'
sg14
I9
sg18
(lp3428
S'space'
p3429
asg94
I5
sa(dp3430
g20
(lp3431
S'k'
asg17
S'N'
sS'.thisRepN'
p3432
I29
sg19
S'Y'
sg32
g33
sS'.thisTrialN'
p3433
I7
sS'.thisN'
p3434
I442
sS'.thisIndex'
p3435
I11
sg15
(lp3436
S'd'
asg30
g31
sg16
S'N'
sg14
I9
sg18
Nsg94
I11
sa(dp3437
g20
(lp3438
S'd'
asg17
S'N'
sS'.thisRepN'
p3439
I29
sg19
S'Y'
sg32
g33
sS'.thisTrialN'
p3440
I8
sS'.thisN'
p3441
I443
sS'.thisIndex'
p3442
I9
sg15
(lp3443
S'd'
asg30
g31
sg16
S'Y'
sg14
I9
sg18
Nsg94
I9
sa(dp3444
g20
(lp3445
S'k'
asg17
S'Y'
sS'.thisRepN'
p3446
I29
sg19
S'Y'
sg32
g33
sS'.thisTrialN'
p3447
I9
sS'.thisN'
p3448
I444
sS'.thisIndex'
p3449
I0
sg15
(lp3450
S'd'
asg30
g31
sg16
S'N'
sg14
I9
sg18
(lp3451
S'space'
p3452
asg94
I0
sa(dp3453
g20
(lp3454
S'd'
asg17
S'Y'
sS'.thisRepN'
p3455
I29
sg19
S'Y'
sg32
g33
sS'.thisTrialN'
p3456
I10
sS'.thisN'
p3457
I445
sS'.thisIndex'
p3458
I5
sg15
(lp3459
S'd'
asg30
g31
sg16
S'Y'
sg14
I9
sg18
(lp3460
S'space'
p3461
asg94
I5
sa(dp3462
g20
(lp3463
S'd'
asg17
S'Y'
sS'.thisRepN'
p3464
I29
sg19
S'Y'
sg32
g33
sS'.thisTrialN'
p3465
I11
sS'.thisN'
p3466
I446
sS'.thisIndex'
p3467
I5
sg15
(lp3468
S'd'
asg30
g31
sg16
S'Y'
sg14
I9
sg18
(lp3469
S'space'
p3470
asg94
I5
sa(dp3471
g20
(lp3472
S'k'
asg17
S'N'
sS'.thisRepN'
p3473
I29
sg19
S'Y'
sg32
g33
sS'.thisTrialN'
p3474
I12
sS'.thisN'
p3475
I447
sS'.thisIndex'
p3476
I9
sg15
(lp3477
S'k'
asg30
g31
sg16
S'Y'
sg14
I9
sg18
Nsg94
I9
sa(dp3478
g20
(lp3479
S'k'
asg17
S'N'
sS'.thisRepN'
p3480
I29
sg19
S'Y'
sg32
g33
sS'.thisTrialN'
p3481
I13
sS'.thisN'
p3482
I448
sS'.thisIndex'
p3483
I14
sg15
(lp3484
S'k'
asg30
g31
sg16
S'Y'
sg14
I9
sg18
Nsg94
I14
sa(dp3485
g20
(lp3486
S'd'
asg17
S'N'
sg22
I47
sS'.thisN'
p3487
I449
sg19
S'Y'
sg32
g33
sS'.thisTrialN'
p3488
I14
sS'.thisRepN'
p3489
I29
sg21
I27
sS'.thisIndex'
p3490
I5
sg23
I25
sg15
(lp3491
S'd'
asg30
g31
sg16
S'Y'
sg14
I9
sg18
Nsg94
I5
sa(dp3492
g20
(lp3493
S'd'
asg94
I12
sS'.thisRepN'
p3494
I30
sg30
g31
sg32
g33
sS'.thisTrialN'
p3495
I0
sS'.thisN'
p3496
I450
sS'.thisIndex'
p3497
I12
sg15
(lp3498
S'd'
asg16
S'Y'
sg14
I10
sa(dp3499
g20
(lp3500
S'k'
asg94
I9
sS'.thisRepN'
p3501
I30
sg30
g31
sg32
g33
sS'.thisTrialN'
p3502
I1
sS'.thisN'
p3503
I451
sS'.thisIndex'
p3504
I9
sg15
(lp3505
S'k'
asg16
S'Y'
sg14
I10
sa(dp3506
g20
(lp3507
S'd'
asg17
S'N'
sS'.thisRepN'
p3508
I30
sg19
S'Y'
sg32
g33
sS'.thisTrialN'
p3509
I2
sS'.thisN'
p3510
I452
sS'.thisIndex'
p3511
I2
sg15
(lp3512
S'd'
asg30
g31
sg16
S'Y'
sg14
I10
sg18
Nsg94
I2
sa(dp3513
g20
(lp3514
S'k'
asg17
S'Y'
sS'.thisRepN'
p3515
I30
sg19
S'Y'
sg32
g33
sS'.thisTrialN'
p3516
I3
sS'.thisN'
p3517
I453
sS'.thisIndex'
p3518
I6
sg15
(lp3519
S'k'
asg30
g31
sg16
S'Y'
sg14
I10
sg18
(lp3520
S'space'
p3521
asg94
I6
sa(dp3522
g20
(lp3523
S'd'
asg17
S'N'
sS'.thisRepN'
p3524
I30
sg19
S'Y'
sg32
g33
sS'.thisTrialN'
p3525
I4
sS'.thisN'
p3526
I454
sS'.thisIndex'
p3527
I3
sg15
(lp3528
S'd'
asg30
g31
sg16
S'Y'
sg14
I10
sg18
Nsg94
I3
sa(dp3529
g20
(lp3530
S'd'
asg17
S'N'
sS'.thisRepN'
p3531
I30
sg19
S'Y'
sg32
g33
sS'.thisTrialN'
p3532
I5
sS'.thisN'
p3533
I455
sS'.thisIndex'
p3534
I8
sg15
(lp3535
S'k'
asg30
g31
sg16
S'N'
sg14
I10
sg18
Nsg94
I8
sa(dp3536
g20
(lp3537
S'd'
asg17
S'N'
sS'.thisRepN'
p3538
I30
sg19
S'Y'
sg32
g33
sS'.thisTrialN'
p3539
I6
sS'.thisN'
p3540
I456
sS'.thisIndex'
p3541
I14
sg15
(lp3542
S'd'
asg30
g31
sg16
S'Y'
sg14
I10
sg18
Nsg94
I14
sa(dp3543
g20
(lp3544
S'k'
asg17
S'N'
sS'.thisRepN'
p3545
I30
sg19
S'Y'
sg32
g33
sS'.thisTrialN'
p3546
I7
sS'.thisN'
p3547
I457
sS'.thisIndex'
p3548
I9
sg15
(lp3549
S'd'
asg30
g31
sg16
S'N'
sg14
I10
sg18
Nsg94
I9
sa(dp3550
g20
(lp3551
S'd'
asg17
S'N'
sS'.thisRepN'
p3552
I30
sg19
S'N'
sg32
g33
sS'.thisTrialN'
p3553
I8
sS'.thisN'
p3554
I458
sS'.thisIndex'
p3555
I10
sg15
(lp3556
S'k'
asg30
g31
sg16
S'N'
sg14
I10
sg18
(lp3557
S'space'
p3558
asg94
I10
sa(dp3559
g20
(lp3560
S'd'
asg17
S'Y'
sS'.thisRepN'
p3561
I30
sg19
S'N'
sg32
g33
sS'.thisTrialN'
p3562
I9
sS'.thisN'
p3563
I459
sS'.thisIndex'
p3564
I14
sg15
(lp3565
S'd'
asg30
g31
sg16
S'Y'
sg14
I10
sg18
Nsg94
I14
sa(dp3566
g20
(lp3567
S'd'
asg17
S'Y'
sS'.thisRepN'
p3568
I30
sg19
S'Y'
sg32
g33
sS'.thisTrialN'
p3569
I10
sS'.thisN'
p3570
I460
sS'.thisIndex'
p3571
I4
sg15
(lp3572
S'k'
asg30
g31
sg16
S'N'
sg14
I10
sg18
(lp3573
S'space'
p3574
asg94
I4
sa(dp3575
g20
(lp3576
S'd'
asg17
S'N'
sS'.thisRepN'
p3577
I30
sg19
S'Y'
sg32
g33
sS'.thisTrialN'
p3578
I11
sS'.thisN'
p3579
I461
sS'.thisIndex'
p3580
I1
sg15
(lp3581
S'd'
asg30
g31
sg16
S'Y'
sg14
I10
sg18
Nsg94
I1
sa(dp3582
g20
(lp3583
S'k'
asg17
S'Y'
sS'.thisRepN'
p3584
I30
sg19
S'N'
sg32
g33
sS'.thisTrialN'
p3585
I12
sS'.thisN'
p3586
I462
sS'.thisIndex'
p3587
I4
sg15
(lp3588
S'k'
asg30
g31
sg16
S'Y'
sg14
I10
sg18
Nsg94
I4
sa(dp3589
g20
(lp3590
S'd'
asg17
S'Y'
sS'.thisRepN'
p3591
I30
sg19
S'Y'
sg32
g33
sS'.thisTrialN'
p3592
I13
sS'.thisN'
p3593
I463
sS'.thisIndex'
p3594
I7
sg15
(lp3595
S'k'
asg30
g31
sg16
S'N'
sg14
I10
sg18
(lp3596
S'space'
p3597
asg94
I7
sa(dp3598
g20
(lp3599
S'k'
asg17
S'N'
sS'.thisRepN'
p3600
I30
sg19
S'Y'
sg32
g33
sS'.thisTrialN'
p3601
I14
sS'.thisN'
p3602
I464
sS'.thisIndex'
p3603
I2
sg15
(lp3604
S'd'
asg30
g31
sg16
S'N'
sg14
I10
sg18
Nsg94
I2
sa(dp3605
g20
(lp3606
S'k'
asg17
S'N'
sS'.thisRepN'
p3607
I31
sg19
S'Y'
sg32
g33
sS'.thisTrialN'
p3608
I0
sS'.thisN'
p3609
I465
sS'.thisIndex'
p3610
I0
sg15
(lp3611
S'd'
asg30
g31
sg16
S'N'
sg14
I10
sg18
Nsg94
I0
sa(dp3612
g20
(lp3613
S'k'
asg17
S'N'
sS'.thisRepN'
p3614
I31
sg19
S'Y'
sg32
g33
sS'.thisTrialN'
p3615
I1
sS'.thisN'
p3616
I466
sS'.thisIndex'
p3617
I9
sg15
(lp3618
S'k'
asg30
g31
sg16
S'Y'
sg14
I10
sg18
Nsg94
I9
sa(dp3619
g20
(lp3620
S'k'
asg17
S'Y'
sS'.thisRepN'
p3621
I31
sg19
S'Y'
sg32
g33
sS'.thisTrialN'
p3622
I2
sS'.thisN'
p3623
I467
sS'.thisIndex'
p3624
I11
sg15
(lp3625
S'k'
asg30
g31
sg16
S'Y'
sg14
I10
sg18
(lp3626
S'space'
p3627
asg94
I11
sa(dp3628
g20
(lp3629
S'k'
asg17
S'N'
sS'.thisRepN'
p3630
I31
sg19
S'Y'
sg32
g33
sS'.thisTrialN'
p3631
I3
sS'.thisN'
p3632
I468
sS'.thisIndex'
p3633
I5
sg15
(lp3634
S'd'
asg30
g31
sg16
S'N'
sg14
I10
sg18
Nsg94
I5
sa(dp3635
g20
(lp3636
S'k'
asg17
S'Y'
sS'.thisRepN'
p3637
I31
sg19
S'Y'
sg32
g33
sS'.thisTrialN'
p3638
I4
sS'.thisN'
p3639
I469
sS'.thisIndex'
p3640
I4
sg15
(lp3641
S'k'
asg30
g31
sg16
S'Y'
sg14
I10
sg18
(lp3642
S'space'
p3643
asg94
I4
sa(dp3644
g20
(lp3645
S'k'
asg17
S'N'
sS'.thisRepN'
p3646
I31
sg19
S'Y'
sg32
g33
sS'.thisTrialN'
p3647
I5
sS'.thisN'
p3648
I470
sS'.thisIndex'
p3649
I3
sg15
(lp3650
S'k'
asg30
g31
sg16
S'Y'
sg14
I10
sg18
Nsg94
I3
sa(dp3651
g20
(lp3652
S'd'
asg17
S'N'
sS'.thisRepN'
p3653
I31
sg19
S'Y'
sg32
g33
sS'.thisTrialN'
p3654
I6
sS'.thisN'
p3655
I471
sS'.thisIndex'
p3656
I6
sg15
(lp3657
S'd'
asg30
g31
sg16
S'Y'
sg14
I10
sg18
Nsg94
I6
sa(dp3658
g20
(lp3659
S'k'
asg17
S'N'
sS'.thisRepN'
p3660
I31
sg19
S'Y'
sg32
g33
sS'.thisTrialN'
p3661
I7
sS'.thisN'
p3662
I472
sS'.thisIndex'
p3663
I2
sg15
(lp3664
S'd'
asg30
g31
sg16
S'N'
sg14
I10
sg18
Nsg94
I2
sa(dp3665
g20
(lp3666
S'k'
asg17
S'N'
sS'.thisRepN'
p3667
I31
sg19
S'Y'
sg32
g33
sS'.thisTrialN'
p3668
I8
sS'.thisN'
p3669
I473
sS'.thisIndex'
p3670
I6
sg15
(lp3671
S'k'
asg30
g31
sg16
S'Y'
sg14
I10
sg18
Nsg94
I6
sa(dp3672
g20
(lp3673
S'd'
asg17
S'Y'
sS'.thisRepN'
p3674
I31
sg19
S'Y'
sg32
g33
sS'.thisTrialN'
p3675
I9
sS'.thisN'
p3676
I474
sS'.thisIndex'
p3677
I3
sg15
(lp3678
S'd'
asg30
g31
sg16
S'Y'
sg14
I10
sg18
(lp3679
S'space'
p3680
asg94
I3
sa(dp3681
g20
(lp3682
S'd'
asg17
S'Y'
sS'.thisRepN'
p3683
I31
sg19
S'Y'
sg32
g33
sS'.thisTrialN'
p3684
I10
sS'.thisN'
p3685
I475
sS'.thisIndex'
p3686
I10
sg15
(lp3687
S'k'
asg30
g31
sg16
S'N'
sg14
I10
sg18
(lp3688
S'space'
p3689
asg94
I10
sa(dp3690
g20
(lp3691
S'd'
asg17
S'Y'
sS'.thisRepN'
p3692
I31
sg19
S'Y'
sg32
g33
sS'.thisTrialN'
p3693
I11
sS'.thisN'
p3694
I476
sS'.thisIndex'
p3695
I10
sg15
(lp3696
S'k'
asg30
g31
sg16
S'N'
sg14
I10
sg18
(lp3697
S'space'
p3698
asg94
I10
sa(dp3699
g20
(lp3700
S'k'
asg17
S'N'
sS'.thisRepN'
p3701
I31
sg19
S'Y'
sg32
g33
sS'.thisTrialN'
p3702
I12
sS'.thisN'
p3703
I477
sS'.thisIndex'
p3704
I14
sg15
(lp3705
S'k'
asg30
g31
sg16
S'Y'
sg14
I10
sg18
Nsg94
I14
sa(dp3706
g20
(lp3707
S'k'
asg17
S'N'
sS'.thisRepN'
p3708
I31
sg19
S'Y'
sg32
g33
sS'.thisTrialN'
p3709
I13
sS'.thisN'
p3710
I478
sS'.thisIndex'
p3711
I2
sg15
(lp3712
S'd'
asg30
g31
sg16
S'N'
sg14
I10
sg18
Nsg94
I2
sa(dp3713
g20
(lp3714
S'd'
asg17
S'N'
sS'.thisRepN'
p3715
I31
sg19
S'N'
sg32
g33
sS'.thisTrialN'
p3716
I14
sS'.thisN'
p3717
I479
sS'.thisIndex'
p3718
I3
sg15
(lp3719
S'd'
asg30
g31
sg16
S'Y'
sg14
I10
sg18
(lp3720
S'space'
p3721
asg94
I3
sa(dp3722
g20
(lp3723
S'd'
asg17
S'Y'
sS'.thisRepN'
p3724
I32
sg19
S'Y'
sg32
g33
sS'.thisTrialN'
p3725
I0
sS'.thisN'
p3726
I480
sS'.thisIndex'
p3727
I3
sg15
(lp3728
S'd'
asg30
g31
sg16
S'Y'
sg14
I10
sg18
(lp3729
S'space'
p3730
asg94
I3
sa(dp3731
g20
(lp3732
S'd'
asg17
S'Y'
sS'.thisRepN'
p3733
I32
sg19
S'Y'
sg32
g33
sS'.thisTrialN'
p3734
I1
sS'.thisN'
p3735
I481
sS'.thisIndex'
p3736
I5
sg15
(lp3737
S'd'
asg30
g31
sg16
S'Y'
sg14
I10
sg18
(lp3738
S'space'
p3739
asg94
I5
sa(dp3740
g20
(lp3741
S'k'
asg17
S'Y'
sS'.thisRepN'
p3742
I32
sg19
S'Y'
sg32
g33
sS'.thisTrialN'
p3743
I2
sS'.thisN'
p3744
I482
sS'.thisIndex'
p3745
I7
sg15
(lp3746
S'd'
asg30
g31
sg16
S'N'
sg14
I10
sg18
(lp3747
S'space'
p3748
asg94
I7
sa(dp3749
g20
(lp3750
S'd'
asg17
S'Y'
sS'.thisRepN'
p3751
I32
sg19
S'Y'
sg32
g33
sS'.thisTrialN'
p3752
I3
sS'.thisN'
p3753
I483
sS'.thisIndex'
p3754
I9
sg15
(lp3755
S'k'
asg30
g31
sg16
S'N'
sg14
I10
sg18
(lp3756
S'space'
p3757
asg94
I9
sa(dp3758
g20
(lp3759
S'd'
asg17
S'N'
sS'.thisRepN'
p3760
I32
sg19
S'Y'
sg32
g33
sS'.thisTrialN'
p3761
I4
sS'.thisN'
p3762
I484
sS'.thisIndex'
p3763
I8
sg15
(lp3764
S'k'
asg30
g31
sg16
S'N'
sg14
I10
sg18
Nsg94
I8
sa(dp3765
g20
(lp3766
S'k'
asg17
S'Y'
sS'.thisRepN'
p3767
I32
sg19
S'Y'
sg32
g33
sS'.thisTrialN'
p3768
I5
sS'.thisN'
p3769
I485
sS'.thisIndex'
p3770
I12
sg15
(lp3771
S'k'
asg30
g31
sg16
S'Y'
sg14
I10
sg18
(lp3772
S'space'
p3773
asg94
I12
sa(dp3774
g20
(lp3775
S'd'
asg17
S'N'
sS'.thisRepN'
p3776
I32
sg19
S'Y'
sg32
g33
sS'.thisTrialN'
p3777
I6
sS'.thisN'
p3778
I486
sS'.thisIndex'
p3779
I0
sg15
(lp3780
S'd'
asg30
g31
sg16
S'Y'
sg14
I10
sg18
Nsg94
I0
sa(dp3781
g20
(lp3782
S'd'
asg17
S'N'
sS'.thisRepN'
p3783
I32
sg19
S'Y'
sg32
g33
sS'.thisTrialN'
p3784
I7
sS'.thisN'
p3785
I487
sS'.thisIndex'
p3786
I14
sg15
(lp3787
S'k'
asg30
g31
sg16
S'N'
sg14
I10
sg18
Nsg94
I14
sa(dp3788
g20
(lp3789
S'k'
asg17
S'Y'
sS'.thisRepN'
p3790
I32
sg19
S'Y'
sg32
g33
sS'.thisTrialN'
p3791
I8
sS'.thisN'
p3792
I488
sS'.thisIndex'
p3793
I5
sg15
(lp3794
S'd'
asg30
g31
sg16
S'N'
sg14
I10
sg18
(lp3795
S'space'
p3796
asg94
I5
sa(dp3797
g20
(lp3798
S'k'
asg17
S'N'
sS'.thisRepN'
p3799
I32
sg19
S'Y'
sg32
g33
sS'.thisTrialN'
p3800
I9
sS'.thisN'
p3801
I489
sS'.thisIndex'
p3802
I14
sg15
(lp3803
S'k'
asg30
g31
sg16
S'Y'
sg14
I10
sg18
Nsg94
I14
sa(dp3804
g20
(lp3805
S'k'
asg17
S'Y'
sS'.thisRepN'
p3806
I32
sg19
S'Y'
sg32
g33
sS'.thisTrialN'
p3807
I10
sS'.thisN'
p3808
I490
sS'.thisIndex'
p3809
I8
sg15
(lp3810
S'k'
asg30
g31
sg16
S'Y'
sg14
I10
sg18
(lp3811
S'space'
p3812
asg94
I8
sa(dp3813
g20
(lp3814
S'k'
asg17
S'Y'
sS'.thisRepN'
p3815
I32
sg19
S'Y'
sg32
g33
sS'.thisTrialN'
p3816
I11
sS'.thisN'
p3817
I491
sS'.thisIndex'
p3818
I7
sg15
(lp3819
S'd'
asg30
g31
sg16
S'N'
sg14
I10
sg18
(lp3820
S'space'
p3821
asg94
I7
sa(dp3822
g20
(lp3823
S'k'
asg17
S'N'
sS'.thisRepN'
p3824
I32
sg19
S'Y'
sg32
g33
sS'.thisTrialN'
p3825
I12
sS'.thisN'
p3826
I492
sS'.thisIndex'
p3827
I12
sg15
(lp3828
S'k'
asg30
g31
sg16
S'Y'
sg14
I10
sg18
Nsg94
I12
sa(dp3829
g20
(lp3830
S'k'
asg17
S'Y'
sS'.thisRepN'
p3831
I32
sg19
S'Y'
sg32
g33
sS'.thisTrialN'
p3832
I13
sS'.thisN'
p3833
I493
sS'.thisIndex'
p3834
I4
sg15
(lp3835
S'd'
asg30
g31
sg16
S'N'
sg14
I10
sg18
(lp3836
S'space'
p3837
asg94
I4
sa(dp3838
g20
(lp3839
S'd'
asg17
S'Y'
sS'.thisRepN'
p3840
I32
sg19
S'Y'
sg32
g33
sS'.thisTrialN'
p3841
I14
sS'.thisN'
p3842
I494
sS'.thisIndex'
p3843
I3
sg15
(lp3844
S'd'
asg30
g31
sg16
S'Y'
sg14
I10
sg18
(lp3845
S'space'
p3846
asg94
I3
sa(dp3847
g20
(lp3848
S'k'
asg17
S'Y'
sS'.thisRepN'
p3849
I33
sg19
S'Y'
sg32
g33
sS'.thisTrialN'
p3850
I0
sS'.thisN'
p3851
I495
sS'.thisIndex'
p3852
I14
sg15
(lp3853
S'k'
asg30
g31
sg16
S'Y'
sg14
I10
sg18
(lp3854
S'space'
p3855
asg94
I14
sa(dp3856
g20
(lp3857
S'd'
asg17
S'N'
sS'.thisRepN'
p3858
I33
sg19
S'Y'
sg32
g33
sS'.thisTrialN'
p3859
I1
sS'.thisN'
p3860
I496
sS'.thisIndex'
p3861
I11
sg15
(lp3862
S'k'
asg30
g31
sg16
S'N'
sg14
I10
sg18
Nsg94
I11
sa(dp3863
g20
(lp3864
S'd'
asg17
S'Y'
sS'.thisRepN'
p3865
I33
sg19
S'Y'
sg32
g33
sS'.thisTrialN'
p3866
I2
sS'.thisN'
p3867
I497
sS'.thisIndex'
p3868
I10
sg15
(lp3869
S'k'
asg30
g31
sg16
S'N'
sg14
I10
sg18
(lp3870
S'space'
p3871
asg94
I10
sa(dp3872
g20
(lp3873
S'k'
asg17
S'Y'
sS'.thisRepN'
p3874
I33
sg19
S'Y'
sg32
g33
sS'.thisTrialN'
p3875
I3
sS'.thisN'
p3876
I498
sS'.thisIndex'
p3877
I2
sg15
(lp3878
S'k'
asg30
g31
sg16
S'Y'
sg14
I10
sg18
(lp3879
S'space'
p3880
asg94
I2
sa(dp3881
g20
(lp3882
S'd'
asg17
S'N'
sg22
I44
sS'.thisN'
p3883
I499
sg19
S'Y'
sg32
g33
sS'.thisTrialN'
p3884
I4
sS'.thisRepN'
p3885
I33
sg21
I29
sS'.thisIndex'
p3886
I8
sg23
I23
sg15
(lp3887
S'd'
asg30
g31
sg16
S'Y'
sg14
I10
sg18
Nsg94
I8
sa(dp3888
g20
(lp3889
S'd'
asS'.thisIndex'
p3890
I3
sS'.thisRepN'
p3891
I33
sg26
S'Y'
sg30
g31
sg32
g33
sS'.thisTrialN'
p3892
I5
sS'.thisN'
p3893
I500
sg25
S'Y'
sg24
S'Y'
sg15
(lp3894
S'k'
asg16
S'Y'
sg14
I11
sg94
I3
sa(dp3895
g20
(lp3896
S'k'
asS'.thisIndex'
p3897
I0
sS'.thisRepN'
p3898
I33
sg26
S'Y'
sg30
g31
sg32
g33
sS'.thisTrialN'
p3899
I6
sS'.thisN'
p3900
I501
sg25
S'Y'
sg15
(lp3901
S'k'
asg16
S'N'
sg14
I11
sg94
I0
sa(dp3902
g20
(lp3903
S'k'
asg17
S'Y'
sS'.thisRepN'
p3904
I33
sg26
S'Y'
sg19
S'Y'
sg32
g33
sS'.thisTrialN'
p3905
I7
sS'.thisN'
p3906
I502
sg25
S'Y'
sg15
(lp3907
S'd'
asg30
g31
sg16
S'Y'
sg14
I11
sg18
(lp3908
S'space'
p3909
asg94
I12
sS'.thisIndex'
p3910
I12
sa(dp3911
g20
(lp3912
S'd'
asg17
S'N'
sS'.thisRepN'
p3913
I33
sg26
S'Y'
sg19
S'Y'
sg32
g33
sS'.thisTrialN'
p3914
I8
sS'.thisN'
p3915
I503
sg25
S'Y'
sg15
(lp3916
S'k'
asg30
g31
sg16
S'Y'
sg14
I11
sg18
Nsg94
I8
sS'.thisIndex'
p3917
I8
sa(dp3918
g20
(lp3919
S'k'
asg17
S'N'
sS'.thisRepN'
p3920
I33
sg26
S'Y'
sg19
S'Y'
sg32
g33
sS'.thisTrialN'
p3921
I9
sS'.thisN'
p3922
I504
sg25
S'Y'
sg15
(lp3923
S'k'
asg30
g31
sg16
S'N'
sg14
I11
sg18
Nsg94
I9
sS'.thisIndex'
p3924
I9
sa(dp3925
g20
(lp3926
S'd'
asg17
S'N'
sS'.thisRepN'
p3927
I33
sg26
S'Y'
sg19
S'Y'
sg32
g33
sS'.thisTrialN'
p3928
I10
sS'.thisN'
p3929
I505
sg25
S'Y'
sg15
(lp3930
S'k'
asg30
g31
sg16
S'Y'
sg14
I11
sg18
Nsg94
I5
sS'.thisIndex'
p3931
I5
sa(dp3932
g20
(lp3933
S'd'
asg17
S'Y'
sS'.thisRepN'
p3934
I33
sg26
S'Y'
sg19
S'Y'
sg32
g33
sS'.thisTrialN'
p3935
I11
sS'.thisN'
p3936
I506
sg25
S'Y'
sg15
(lp3937
S'k'
asg30
g31
sg16
S'Y'
sg14
I11
sg18
(lp3938
S'space'
p3939
asg94
I8
sS'.thisIndex'
p3940
I8
sa(dp3941
g20
(lp3942
S'd'
asg17
S'N'
sS'.thisRepN'
p3943
I33
sg26
S'Y'
sg19
S'Y'
sg32
g33
sS'.thisTrialN'
p3944
I12
sS'.thisN'
p3945
I507
sg25
S'Y'
sg15
(lp3946
S'd'
asg30
g31
sg16
S'N'
sg14
I11
sg18
Nsg94
I7
sS'.thisIndex'
p3947
I7
sa(dp3948
g20
(lp3949
S'k'
asg17
S'N'
sS'.thisRepN'
p3950
I33
sg26
S'Y'
sg19
S'Y'
sg32
g33
sS'.thisTrialN'
p3951
I13
sS'.thisN'
p3952
I508
sg25
S'Y'
sg15
(lp3953
S'k'
asg30
g31
sg16
S'N'
sg14
I11
sg18
Nsg94
I13
sS'.thisIndex'
p3954
I13
sa(dp3955
g20
(lp3956
S'k'
asg17
S'N'
sS'.thisRepN'
p3957
I33
sg26
S'Y'
sg19
S'Y'
sg32
g33
sS'.thisTrialN'
p3958
I14
sS'.thisN'
p3959
I509
sg25
S'Y'
sg15
(lp3960
S'k'
asg30
g31
sg16
S'N'
sg14
I11
sg18
Nsg94
I2
sS'.thisIndex'
p3961
I2
sa(dp3962
g20
(lp3963
S'k'
asg17
S'N'
sS'.thisRepN'
p3964
I34
sg26
S'Y'
sg19
S'Y'
sg32
g33
sS'.thisTrialN'
p3965
I0
sS'.thisN'
p3966
I510
sg25
S'Y'
sg15
(lp3967
S'd'
asg30
g31
sg16
S'Y'
sg14
I11
sg18
Nsg94
I6
sS'.thisIndex'
p3968
I6
sa(dp3969
g20
(lp3970
S'd'
asg17
S'N'
sS'.thisRepN'
p3971
I34
sg26
S'Y'
sg19
S'Y'
sg32
g33
sS'.thisTrialN'
p3972
I1
sS'.thisN'
p3973
I511
sg25
S'Y'
sg15
(lp3974
S'd'
asg30
g31
sg16
S'N'
sg14
I11
sg18
Nsg94
I4
sS'.thisIndex'
p3975
I4
sa(dp3976
g20
(lp3977
S'k'
asg17
S'N'
sS'.thisRepN'
p3978
I34
sg26
S'Y'
sg19
S'Y'
sg32
g33
sS'.thisTrialN'
p3979
I2
sS'.thisN'
p3980
I512
sg25
S'Y'
sg15
(lp3981
S'k'
asg30
g31
sg16
S'N'
sg14
I11
sg18
Nsg94
I0
sS'.thisIndex'
p3982
I0
sa(dp3983
g20
(lp3984
S'd'
asg17
S'Y'
sS'.thisRepN'
p3985
I34
sg26
S'Y'
sg19
S'Y'
sg32
g33
sS'.thisTrialN'
p3986
I3
sS'.thisN'
p3987
I513
sg25
S'Y'
sg15
(lp3988
S'k'
asg30
g31
sg16
S'Y'
sg14
I11
sg18
(lp3989
S'space'
p3990
asg94
I14
sS'.thisIndex'
p3991
I14
sa(dp3992
g20
(lp3993
S'd'
asg17
S'N'
sS'.thisRepN'
p3994
I34
sg26
S'Y'
sg19
S'Y'
sg32
g33
sS'.thisTrialN'
p3995
I4
sS'.thisN'
p3996
I514
sg25
S'Y'
sg15
(lp3997
S'd'
asg30
g31
sg16
S'N'
sg14
I11
sg18
Nsg94
I5
sS'.thisIndex'
p3998
I5
sa(dp3999
g20
(lp4000
S'k'
asg17
S'Y'
sS'.thisRepN'
p4001
I34
sg26
S'Y'
sg19
S'Y'
sg32
g33
sS'.thisTrialN'
p4002
I5
sS'.thisN'
p4003
I515
sg25
S'Y'
sg15
(lp4004
S'k'
asg30
g31
sg16
S'N'
sg14
I11
sg18
(lp4005
S'space'
p4006
asg94
I4
sS'.thisIndex'
p4007
I4
sa(dp4008
g20
(lp4009
S'k'
asg17
S'N'
sS'.thisRepN'
p4010
I34
sg26
S'Y'
sg19
S'Y'
sg32
g33
sS'.thisTrialN'
p4011
I6
sS'.thisN'
p4012
I516
sg25
S'Y'
sg15
(lp4013
S'd'
asg30
g31
sg16
S'Y'
sg14
I11
sg18
Nsg94
I7
sS'.thisIndex'
p4014
I7
sa(dp4015
g20
(lp4016
S'k'
asg17
S'N'
sS'.thisRepN'
p4017
I34
sg26
S'Y'
sg19
S'Y'
sg32
g33
sS'.thisTrialN'
p4018
I7
sS'.thisN'
p4019
I517
sg25
S'Y'
sg15
(lp4020
S'd'
asg30
g31
sg16
S'Y'
sg14
I11
sg18
Nsg94
I3
sS'.thisIndex'
p4021
I3
sa(dp4022
g20
(lp4023
S'd'
asg17
S'N'
sS'.thisRepN'
p4024
I34
sg26
S'Y'
sg19
S'Y'
sg32
g33
sS'.thisTrialN'
p4025
I8
sS'.thisN'
p4026
I518
sg25
S'Y'
sg15
(lp4027
S'k'
asg30
g31
sg16
S'Y'
sg14
I11
sg18
Nsg94
I3
sS'.thisIndex'
p4028
I3
sa(dp4029
g20
(lp4030
S'k'
asg17
S'Y'
sS'.thisRepN'
p4031
I34
sg26
S'Y'
sg19
S'Y'
sg32
g33
sS'.thisTrialN'
p4032
I9
sS'.thisN'
p4033
I519
sg25
S'Y'
sg15
(lp4034
S'd'
asg30
g31
sg16
S'Y'
sg14
I11
sg18
(lp4035
S'space'
p4036
asg94
I10
sS'.thisIndex'
p4037
I10
sa(dp4038
g20
(lp4039
S'k'
asg17
S'N'
sS'.thisRepN'
p4040
I34
sg26
S'Y'
sg19
S'Y'
sg32
g33
sS'.thisTrialN'
p4041
I10
sS'.thisN'
p4042
I520
sg25
S'Y'
sg15
(lp4043
S'k'
asg30
g31
sg16
S'N'
sg14
I11
sg18
Nsg94
I3
sS'.thisIndex'
p4044
I3
sa(dp4045
g20
(lp4046
S'd'
asg17
S'N'
sS'.thisRepN'
p4047
I34
sg26
S'Y'
sg19
S'Y'
sg32
g33
sS'.thisTrialN'
p4048
I11
sS'.thisN'
p4049
I521
sg25
S'Y'
sg15
(lp4050
S'k'
asg30
g31
sg16
S'Y'
sg14
I11
sg18
Nsg94
I1
sS'.thisIndex'
p4051
I1
sa(dp4052
g20
(lp4053
S'd'
asg17
S'N'
sS'.thisRepN'
p4054
I34
sg26
S'Y'
sg19
S'Y'
sg32
g33
sS'.thisTrialN'
p4055
I12
sS'.thisN'
p4056
I522
sg25
S'Y'
sg15
(lp4057
S'k'
asg30
g31
sg16
S'Y'
sg14
I11
sg18
Nsg94
I8
sS'.thisIndex'
p4058
I8
sa(dp4059
g20
(lp4060
S'k'
asg17
S'Y'
sS'.thisRepN'
p4061
I34
sg26
S'Y'
sg19
S'Y'
sg32
g33
sS'.thisTrialN'
p4062
I13
sS'.thisN'
p4063
I523
sg25
S'Y'
sg15
(lp4064
S'd'
asg30
g31
sg16
S'Y'
sg14
I11
sg18
(lp4065
S'space'
p4066
asg94
I6
sS'.thisIndex'
p4067
I6
sa(dp4068
g20
(lp4069
S'k'
asg17
S'Y'
sS'.thisRepN'
p4070
I34
sg26
S'Y'
sg19
S'Y'
sg32
g33
sS'.thisTrialN'
p4071
I14
sS'.thisN'
p4072
I524
sg25
S'Y'
sg15
(lp4073
S'k'
asg30
g31
sg16
S'N'
sg14
I11
sg18
(lp4074
S'space'
p4075
asg94
I9
sS'.thisIndex'
p4076
I9
sa(dp4077
g20
(lp4078
S'k'
asg17
S'N'
sS'.thisRepN'
p4079
I35
sg26
S'Y'
sg19
S'Y'
sg32
g33
sS'.thisTrialN'
p4080
I0
sS'.thisN'
p4081
I525
sg25
S'Y'
sg15
(lp4082
S'k'
asg30
g31
sg16
S'N'
sg14
I11
sg18
Nsg94
I5
sS'.thisIndex'
p4083
I5
sa(dp4084
g20
(lp4085
S'k'
asg17
S'Y'
sS'.thisRepN'
p4086
I35
sg26
S'Y'
sg19
S'Y'
sg32
g33
sS'.thisTrialN'
p4087
I1
sS'.thisN'
p4088
I526
sg25
S'Y'
sg15
(lp4089
S'd'
asg30
g31
sg16
S'Y'
sg14
I11
sg18
(lp4090
S'space'
p4091
asg94
I7
sS'.thisIndex'
p4092
I7
sa(dp4093
g20
(lp4094
S'k'
asg17
S'N'
sS'.thisRepN'
p4095
I35
sg26
S'Y'
sg19
S'Y'
sg32
g33
sS'.thisTrialN'
p4096
I2
sS'.thisN'
p4097
I527
sg25
S'Y'
sg15
(lp4098
S'k'
asg30
g31
sg16
S'N'
sg14
I11
sg18
Nsg94
I1
sS'.thisIndex'
p4099
I1
sa(dp4100
g20
(lp4101
S'd'
asg17
S'N'
sS'.thisRepN'
p4102
I35
sg26
S'Y'
sg19
S'Y'
sg32
g33
sS'.thisTrialN'
p4103
I3
sS'.thisN'
p4104
I528
sg25
S'Y'
sg15
(lp4105
S'd'
asg30
g31
sg16
S'N'
sg14
I11
sg18
Nsg94
I13
sS'.thisIndex'
p4106
I13
sa(dp4107
g20
(lp4108
S'd'
asg17
S'Y'
sS'.thisRepN'
p4109
I35
sg26
S'Y'
sg19
S'Y'
sg32
g33
sS'.thisTrialN'
p4110
I4
sS'.thisN'
p4111
I529
sg25
S'Y'
sg15
(lp4112
S'k'
asg30
g31
sg16
S'Y'
sg14
I11
sg18
(lp4113
S'space'
p4114
asg94
I2
sS'.thisIndex'
p4115
I2
sa(dp4116
g20
(lp4117
S'k'
asg17
S'N'
sS'.thisRepN'
p4118
I35
sg26
S'Y'
sg19
S'Y'
sg32
g33
sS'.thisTrialN'
p4119
I5
sS'.thisN'
p4120
I530
sg25
S'Y'
sg15
(lp4121
S'd'
asg30
g31
sg16
S'Y'
sg14
I11
sg18
Nsg94
I10
sS'.thisIndex'
p4122
I10
sa(dp4123
g20
(lp4124
S'd'
asg17
S'Y'
sS'.thisRepN'
p4125
I35
sg26
S'Y'
sg19
S'Y'
sg32
g33
sS'.thisTrialN'
p4126
I6
sS'.thisN'
p4127
I531
sg25
S'Y'
sg15
(lp4128
S'd'
asg30
g31
sg16
S'N'
sg14
I11
sg18
(lp4129
S'space'
p4130
asg94
I2
sS'.thisIndex'
p4131
I2
sa(dp4132
g20
(lp4133
S'd'
asg17
S'N'
sS'.thisRepN'
p4134
I35
sg26
S'Y'
sg19
S'Y'
sg32
g33
sS'.thisTrialN'
p4135
I7
sS'.thisN'
p4136
I532
sg25
S'Y'
sg15
(lp4137
S'd'
asg30
g31
sg16
S'N'
sg14
I11
sg18
Nsg94
I11
sS'.thisIndex'
p4138
I11
sa(dp4139
g20
(lp4140
S'k'
asg17
S'Y'
sS'.thisRepN'
p4141
I35
sg26
S'Y'
sg19
S'Y'
sg32
g33
sS'.thisTrialN'
p4142
I8
sS'.thisN'
p4143
I533
sg25
S'Y'
sg15
(lp4144
S'k'
asg30
g31
sg16
S'N'
sg14
I11
sg18
(lp4145
S'space'
p4146
asg94
I12
sS'.thisIndex'
p4147
I12
sa(dp4148
g20
(lp4149
S'd'
asg17
S'Y'
sS'.thisRepN'
p4150
I35
sg26
S'Y'
sg19
S'Y'
sg32
g33
sS'.thisTrialN'
p4151
I9
sS'.thisN'
p4152
I534
sg25
S'Y'
sg15
(lp4153
S'd'
asg30
g31
sg16
S'N'
sg14
I11
sg18
(lp4154
S'space'
p4155
asg94
I2
sS'.thisIndex'
p4156
I2
sa(dp4157
g20
(lp4158
S'k'
asg17
S'N'
sS'.thisRepN'
p4159
I35
sg26
S'Y'
sg19
S'Y'
sg32
g33
sS'.thisTrialN'
p4160
I10
sS'.thisN'
p4161
I535
sg25
S'Y'
sg15
(lp4162
S'k'
asg30
g31
sg16
S'N'
sg14
I11
sg18
Nsg94
I9
sS'.thisIndex'
p4163
I9
sa(dp4164
g20
(lp4165
S'k'
asg17
S'N'
sS'.thisRepN'
p4166
I35
sg26
S'Y'
sg19
S'Y'
sg32
g33
sS'.thisTrialN'
p4167
I11
sS'.thisN'
p4168
I536
sg25
S'Y'
sg15
(lp4169
S'd'
asg30
g31
sg16
S'Y'
sg14
I11
sg18
Nsg94
I14
sS'.thisIndex'
p4170
I14
sa(dp4171
g20
(lp4172
S'd'
asg17
S'Y'
sS'.thisRepN'
p4173
I35
sg26
S'Y'
sg19
S'Y'
sg32
g33
sS'.thisTrialN'
p4174
I12
sS'.thisN'
p4175
I537
sg25
S'Y'
sg15
(lp4176
S'd'
asg30
g31
sg16
S'N'
sg14
I11
sg18
(lp4177
S'space'
p4178
asg94
I2
sS'.thisIndex'
p4179
I2
sa(dp4180
g20
(lp4181
S'd'
asg17
S'Y'
sS'.thisRepN'
p4182
I35
sg26
S'Y'
sg19
S'Y'
sg32
g33
sS'.thisTrialN'
p4183
I13
sS'.thisN'
p4184
I538
sg25
S'Y'
sg15
(lp4185
S'd'
asg30
g31
sg16
S'N'
sg14
I11
sg18
(lp4186
S'space'
p4187
asg94
I10
sS'.thisIndex'
p4188
I10
sa(dp4189
g20
(lp4190
S'd'
asg17
S'Y'
sS'.thisRepN'
p4191
I35
sg26
S'Y'
sg19
S'Y'
sg32
g33
sS'.thisTrialN'
p4192
I14
sS'.thisN'
p4193
I539
sg25
S'Y'
sg15
(lp4194
S'k'
asg30
g31
sg16
S'Y'
sg14
I11
sg18
(lp4195
S'space'
p4196
asg94
I14
sS'.thisIndex'
p4197
I14
sa(dp4198
g20
(lp4199
S'k'
asg17
S'Y'
sS'.thisRepN'
p4200
I36
sg26
S'Y'
sg19
S'Y'
sg32
g33
sS'.thisTrialN'
p4201
I0
sS'.thisN'
p4202
I540
sg25
S'Y'
sg15
(lp4203
S'k'
asg30
g31
sg16
S'N'
sg14
I11
sg18
(lp4204
S'space'
p4205
asg94
I8
sS'.thisIndex'
p4206
I8
sa(dp4207
g20
(lp4208
S'd'
asg17
S'Y'
sS'.thisRepN'
p4209
I36
sg26
S'Y'
sg19
S'Y'
sg32
g33
sS'.thisTrialN'
p4210
I1
sS'.thisN'
p4211
I541
sg25
S'Y'
sg15
(lp4212
S'k'
asg30
g31
sg16
S'Y'
sg14
I11
sg18
(lp4213
S'space'
p4214
asg94
I0
sS'.thisIndex'
p4215
I0
sa(dp4216
g20
(lp4217
S'd'
asg17
S'N'
sS'.thisRepN'
p4218
I36
sg26
S'Y'
sg19
S'Y'
sg32
g33
sS'.thisTrialN'
p4219
I2
sS'.thisN'
p4220
I542
sg25
S'Y'
sg15
(lp4221
S'k'
asg30
g31
sg16
S'Y'
sg14
I11
sg18
Nsg94
I14
sS'.thisIndex'
p4222
I14
sa(dp4223
g20
(lp4224
S'k'
asg17
S'Y'
sS'.thisRepN'
p4225
I36
sg26
S'Y'
sg19
S'Y'
sg32
g33
sS'.thisTrialN'
p4226
I3
sS'.thisN'
p4227
I543
sg25
S'Y'
sg15
(lp4228
S'd'
asg30
g31
sg16
S'Y'
sg14
I11
sg18
(lp4229
S'space'
p4230
asg94
I0
sS'.thisIndex'
p4231
I0
sa(dp4232
g20
(lp4233
S'd'
asg17
S'N'
sS'.thisRepN'
p4234
I36
sg26
S'Y'
sg19
S'Y'
sg32
g33
sS'.thisTrialN'
p4235
I4
sS'.thisN'
p4236
I544
sg25
S'Y'
sg15
(lp4237
S'k'
asg30
g31
sg16
S'Y'
sg14
I11
sg18
Nsg94
I9
sS'.thisIndex'
p4238
I9
sa(dp4239
g20
(lp4240
S'd'
asg17
S'N'
sS'.thisRepN'
p4241
I36
sg26
S'Y'
sg19
S'Y'
sg32
g33
sS'.thisTrialN'
p4242
I5
sS'.thisN'
p4243
I545
sg25
S'Y'
sg15
(lp4244
S'd'
asg30
g31
sg16
S'N'
sg14
I11
sg18
Nsg94
I6
sS'.thisIndex'
p4245
I6
sa(dp4246
g20
(lp4247
S'k'
asg17
S'Y'
sS'.thisRepN'
p4248
I36
sg26
S'Y'
sg19
S'Y'
sg32
g33
sS'.thisTrialN'
p4249
I6
sS'.thisN'
p4250
I546
sg25
S'Y'
sg15
(lp4251
S'd'
asg30
g31
sg16
S'Y'
sg14
I11
sg18
(lp4252
S'space'
p4253
asg94
I10
sS'.thisIndex'
p4254
I10
sa(dp4255
g20
(lp4256
S'k'
asg17
S'N'
sS'.thisRepN'
p4257
I36
sg26
S'Y'
sg19
S'Y'
sg32
g33
sS'.thisTrialN'
p4258
I7
sS'.thisN'
p4259
I547
sg25
S'Y'
sg15
(lp4260
S'd'
asg30
g31
sg16
S'Y'
sg14
I11
sg18
Nsg94
I5
sS'.thisIndex'
p4261
I5
sa(dp4262
g20
(lp4263
S'k'
asg17
S'N'
sS'.thisRepN'
p4264
I36
sg26
S'Y'
sg19
S'Y'
sg32
g33
sS'.thisTrialN'
p4265
I8
sS'.thisN'
p4266
I548
sg25
S'Y'
sg15
(lp4267
S'd'
asg30
g31
sg16
S'Y'
sg14
I11
sg18
Nsg94
I11
sS'.thisIndex'
p4268
I11
sa(dp4269
g20
(lp4270
S'k'
asg17
S'N'
sg22
I48
sg26
S'Y'
sS'.thisN'
p4271
I549
sg19
S'Y'
sg32
g33
sS'.thisTrialN'
p4272
I9
sS'.thisRepN'
p4273
I36
sg21
I26
sg25
S'Y'
sg23
I19
sg15
(lp4274
S'k'
asg30
g31
sg16
S'N'
sg14
I11
sg18
Nsg94
I2
sS'.thisIndex'
p4275
I2
sa(dp4276
g20
(lp4277
S'd'
asS'.thisIndex'
p4278
I1
sS'.thisRepN'
p4279
I36
sg26
S'Y'
sg30
g31
sg32
g33
sS'.thisTrialN'
p4280
I10
sS'.thisN'
p4281
I550
sg25
S'Y'
sg15
(lp4282
S'd'
asg16
S'N'
sg14
I12
sg94
I1
sa(dp4283
g20
(lp4284
S'k'
asS'.thisIndex'
p4285
I10
sS'.thisRepN'
p4286
I36
sg26
S'Y'
sg30
g31
sg32
g33
sS'.thisTrialN'
p4287
I11
sS'.thisN'
p4288
I551
sg25
S'Y'
sg15
(lp4289
S'k'
asg16
S'N'
sg14
I12
sg94
I10
sa(dp4290
g20
(lp4291
S'd'
asg17
S'N'
sS'.thisRepN'
p4292
I36
sg26
S'Y'
sg19
S'Y'
sg32
g33
sS'.thisTrialN'
p4293
I12
sS'.thisN'
p4294
I552
sg25
S'Y'
sg15
(lp4295
S'k'
asg30
g31
sg16
S'Y'
sg14
I12
sg18
Nsg94
I0
sS'.thisIndex'
p4296
I0
sa(dp4297
g20
(lp4298
S'k'
asg17
S'Y'
sS'.thisRepN'
p4299
I36
sg26
S'Y'
sg19
S'Y'
sg32
g33
sS'.thisTrialN'
p4300
I13
sS'.thisN'
p4301
I553
sg25
S'Y'
sg15
(lp4302
S'd'
asg30
g31
sg16
S'Y'
sg14
I12
sg18
(lp4303
S'space'
p4304
asg94
I4
sS'.thisIndex'
p4305
I4
sa(dp4306
g17
S'Y'
sS'.thisRepN'
p4307
I36
sg26
S'Y'
sg19
S'Y'
sg32
g33
sS'.thisTrialN'
p4308
I14
sS'.thisN'
p4309
I554
sg25
S'Y'
sg15
Nsg30
g31
sg16
g99
sg14
I12
sg18
(lp4310
S'space'
p4311
asg94
I4
sS'.thisIndex'
p4312
I4
sa(dp4313
g20
(lp4314
S'd'
asg17
S'N'
sS'.thisRepN'
p4315
I37
sg26
S'Y'
sg19
S'Y'
sg32
g33
sS'.thisTrialN'
p4316
I0
sS'.thisN'
p4317
I555
sg25
S'Y'
sg15
(lp4318
S'k'
asg30
g31
sg16
S'Y'
sg14
I12
sg18
Nsg94
I13
sS'.thisIndex'
p4319
I13
sa(dp4320
g20
(lp4321
S'd'
asg17
S'Y'
sS'.thisRepN'
p4322
I37
sg26
S'Y'
sg19
S'Y'
sg32
g33
sS'.thisTrialN'
p4323
I1
sS'.thisN'
p4324
I556
sg25
S'Y'
sg15
(lp4325
S'd'
asg30
g31
sg16
S'N'
sg14
I12
sg18
(lp4326
S'space'
p4327
asg94
I1
sS'.thisIndex'
p4328
I1
sa(dp4329
g20
(lp4330
S'k'
asg17
S'N'
sS'.thisRepN'
p4331
I37
sg26
S'Y'
sg19
S'Y'
sg32
g33
sS'.thisTrialN'
p4332
I2
sS'.thisN'
p4333
I557
sg25
S'Y'
sg15
(lp4334
S'k'
asg30
g31
sg16
S'N'
sg14
I12
sg18
Nsg94
I2
sS'.thisIndex'
p4335
I2
sa(dp4336
g20
(lp4337
S'k'
asg17
S'N'
sS'.thisRepN'
p4338
I37
sg26
S'Y'
sg19
S'Y'
sg32
g33
sS'.thisTrialN'
p4339
I3
sS'.thisN'
p4340
I558
sg25
S'Y'
sg15
(lp4341
S'd'
asg30
g31
sg16
S'Y'
sg14
I12
sg18
Nsg94
I0
sS'.thisIndex'
p4342
I0
sa(dp4343
g20
(lp4344
S'd'
asg17
S'Y'
sS'.thisRepN'
p4345
I37
sg26
S'Y'
sg19
S'Y'
sg32
g33
sS'.thisTrialN'
p4346
I4
sS'.thisN'
p4347
I559
sg25
S'Y'
sg15
(lp4348
S'd'
asg30
g31
sg16
S'N'
sg14
I12
sg18
(lp4349
S'space'
p4350
asg94
I0
sS'.thisIndex'
p4351
I0
sa(dp4352
g20
(lp4353
S'k'
asg17
S'Y'
sS'.thisRepN'
p4354
I37
sg26
S'Y'
sg19
S'Y'
sg32
g33
sS'.thisTrialN'
p4355
I5
sS'.thisN'
p4356
I560
sg25
S'Y'
sg15
(lp4357
S'k'
asg30
g31
sg16
S'N'
sg14
I12
sg18
(lp4358
S'space'
p4359
asg94
I12
sS'.thisIndex'
p4360
I12
sa(dp4361
g20
(lp4362
S'k'
asg17
S'N'
sS'.thisRepN'
p4363
I37
sg26
S'Y'
sg19
S'Y'
sg32
g33
sS'.thisTrialN'
p4364
I6
sS'.thisN'
p4365
I561
sg25
S'Y'
sg15
(lp4366
S'k'
asg30
g31
sg16
S'N'
sg14
I12
sg18
Nsg94
I6
sS'.thisIndex'
p4367
I6
sa(dp4368
g20
(lp4369
S'k'
asg17
S'Y'
sS'.thisRepN'
p4370
I37
sg26
S'Y'
sg19
S'Y'
sg32
g33
sS'.thisTrialN'
p4371
I7
sS'.thisN'
p4372
I562
sg25
S'Y'
sg15
(lp4373
S'd'
asg30
g31
sg16
S'Y'
sg14
I12
sg18
(lp4374
S'space'
p4375
asg94
I12
sS'.thisIndex'
p4376
I12
sa(dp4377
g20
(lp4378
S'k'
asg17
S'Y'
sS'.thisRepN'
p4379
I37
sg26
S'Y'
sg19
S'Y'
sg32
g33
sS'.thisTrialN'
p4380
I8
sS'.thisN'
p4381
I563
sg25
S'Y'
sg15
(lp4382
S'd'
asg30
g31
sg16
S'Y'
sg14
I12
sg18
(lp4383
S'space'
p4384
asg94
I10
sS'.thisIndex'
p4385
I10
sa(dp4386
g20
(lp4387
S'k'
asg17
S'Y'
sS'.thisRepN'
p4388
I37
sg26
S'Y'
sg19
S'Y'
sg32
g33
sS'.thisTrialN'
p4389
I9
sS'.thisN'
p4390
I564
sg25
S'Y'
sg15
(lp4391
S'd'
asg30
g31
sg16
S'Y'
sg14
I12
sg18
(lp4392
S'space'
p4393
asg94
I9
sS'.thisIndex'
p4394
I9
sa(dp4395
g17
S'N'
sS'.thisRepN'
p4396
I37
sg26
S'Y'
sg19
S'Y'
sg32
g33
sS'.thisTrialN'
p4397
I10
sS'.thisN'
p4398
I565
sg25
S'Y'
sg15
Nsg30
g31
sg16
g99
sg14
I12
sg18
Nsg94
I13
sS'.thisIndex'
p4399
I13
sa(dp4400
g20
(lp4401
S'd'
asg17
S'Y'
sS'.thisRepN'
p4402
I37
sg26
S'Y'
sg19
S'Y'
sg32
g33
sS'.thisTrialN'
p4403
I11
sS'.thisN'
p4404
I566
sg25
S'Y'
sg15
(lp4405
S'd'
asg30
g31
sg16
S'N'
sg14
I12
sg18
(lp4406
S'space'
p4407
asg94
I12
sS'.thisIndex'
p4408
I12
sa(dp4409
g20
(lp4410
S'd'
asg17
S'Y'
sS'.thisRepN'
p4411
I37
sg26
S'Y'
sg19
S'Y'
sg32
g33
sS'.thisTrialN'
p4412
I12
sS'.thisN'
p4413
I567
sg25
S'Y'
sg15
(lp4414
S'd'
asg30
g31
sg16
S'N'
sg14
I12
sg18
(lp4415
S'space'
p4416
asg94
I4
sS'.thisIndex'
p4417
I4
sa(dp4418
g20
(lp4419
S'k'
asg17
S'Y'
sS'.thisRepN'
p4420
I37
sg26
S'Y'
sg19
S'N'
sg32
g33
sS'.thisTrialN'
p4421
I13
sS'.thisN'
p4422
I568
sg25
S'Y'
sg15
(lp4423
S'k'
asg30
g31
sg16
S'N'
sg14
I12
sg18
Nsg94
I13
sS'.thisIndex'
p4424
I13
sa(dp4425
g20
(lp4426
S'd'
asg17
S'N'
sS'.thisRepN'
p4427
I37
sg26
S'Y'
sg19
S'Y'
sg32
g33
sS'.thisTrialN'
p4428
I14
sS'.thisN'
p4429
I569
sg25
S'Y'
sg15
(lp4430
S'k'
asg30
g31
sg16
S'Y'
sg14
I12
sg18
Nsg94
I8
sS'.thisIndex'
p4431
I8
sa(dp4432
g20
(lp4433
S'k'
asg17
S'N'
sS'.thisRepN'
p4434
I38
sg26
S'Y'
sg19
S'Y'
sg32
g33
sS'.thisTrialN'
p4435
I0
sS'.thisN'
p4436
I570
sg25
S'Y'
sg15
(lp4437
S'd'
asg30
g31
sg16
S'Y'
sg14
I12
sg18
Nsg94
I1
sS'.thisIndex'
p4438
I1
sa(dp4439
g20
(lp4440
S'k'
asg17
S'Y'
sS'.thisRepN'
p4441
I38
sg26
S'Y'
sg19
S'Y'
sg32
g33
sS'.thisTrialN'
p4442
I1
sS'.thisN'
p4443
I571
sg25
S'Y'
sg15
(lp4444
S'd'
asg30
g31
sg16
S'Y'
sg14
I12
sg18
(lp4445
S'space'
p4446
asg94
I13
sS'.thisIndex'
p4447
I13
sa(dp4448
g17
S'Y'
sS'.thisRepN'
p4449
I38
sg26
S'Y'
sg19
S'Y'
sg32
g33
sS'.thisTrialN'
p4450
I2
sS'.thisN'
p4451
I572
sg25
S'Y'
sg15
Nsg30
g31
sg16
g99
sg14
I12
sg18
(lp4452
S'space'
p4453
asg94
I9
sS'.thisIndex'
p4454
I9
sa(dp4455
g20
(lp4456
S'd'
asg17
S'Y'
sS'.thisRepN'
p4457
I38
sg26
S'Y'
sg19
S'Y'
sg32
g33
sS'.thisTrialN'
p4458
I3
sS'.thisN'
p4459
I573
sg25
S'Y'
sg15
(lp4460
S'k'
asg30
g31
sg16
S'Y'
sg14
I12
sg18
(lp4461
S'space'
p4462
asg94
I10
sS'.thisIndex'
p4463
I10
sa(dp4464
g20
(lp4465
S'd'
asg17
S'Y'
sS'.thisRepN'
p4466
I38
sg26
S'Y'
sg19
S'Y'
sg32
g33
sS'.thisTrialN'
p4467
I4
sS'.thisN'
p4468
I574
sg25
S'Y'
sg15
(lp4469
S'd'
asg30
g31
sg16
S'N'
sg14
I12
sg18
(lp4470
S'space'
p4471
asg94
I9
sS'.thisIndex'
p4472
I9
sa(dp4473
g20
(lp4474
S'd'
asg17
S'N'
sS'.thisRepN'
p4475
I38
sg26
S'Y'
sg19
S'Y'
sg32
g33
sS'.thisTrialN'
p4476
I5
sS'.thisN'
p4477
I575
sg25
S'Y'
sg15
(lp4478
S'k'
asg30
g31
sg16
S'Y'
sg14
I12
sg18
Nsg94
I9
sS'.thisIndex'
p4479
I9
sa(dp4480
g20
(lp4481
S'd'
asg17
S'Y'
sS'.thisRepN'
p4482
I38
sg26
S'Y'
sg19
S'Y'
sg32
g33
sS'.thisTrialN'
p4483
I6
sS'.thisN'
p4484
I576
sg25
S'Y'
sg15
(lp4485
S'k'
asg30
g31
sg16
S'Y'
sg14
I12
sg18
(lp4486
S'space'
p4487
asg94
I14
sS'.thisIndex'
p4488
I14
sa(dp4489
g20
(lp4490
S'k'
asg17
S'N'
sS'.thisRepN'
p4491
I38
sg26
S'Y'
sg19
S'Y'
sg32
g33
sS'.thisTrialN'
p4492
I7
sS'.thisN'
p4493
I577
sg25
S'Y'
sg15
(lp4494
S'k'
asg30
g31
sg16
S'N'
sg14
I12
sg18
Nsg94
I6
sS'.thisIndex'
p4495
I6
sa(dp4496
g20
(lp4497
S'k'
asg17
S'Y'
sS'.thisRepN'
p4498
I38
sg26
S'Y'
sg19
S'Y'
sg32
g33
sS'.thisTrialN'
p4499
I8
sS'.thisN'
p4500
I578
sg25
S'Y'
sg15
(lp4501
S'd'
asg30
g31
sg16
S'Y'
sg14
I12
sg18
(lp4502
S'space'
p4503
asg94
I13
sS'.thisIndex'
p4504
I13
sa(dp4505
g20
(lp4506
S'd'
asg17
S'N'
sS'.thisRepN'
p4507
I38
sg26
S'Y'
sg19
S'Y'
sg32
g33
sS'.thisTrialN'
p4508
I9
sS'.thisN'
p4509
I579
sg25
S'Y'
sg15
(lp4510
S'd'
asg30
g31
sg16
S'N'
sg14
I12
sg18
Nsg94
I8
sS'.thisIndex'
p4511
I8
sa(dp4512
g20
(lp4513
S'd'
asg17
S'N'
sS'.thisRepN'
p4514
I38
sg26
S'Y'
sg19
S'Y'
sg32
g33
sS'.thisTrialN'
p4515
I10
sS'.thisN'
p4516
I580
sg25
S'Y'
sg15
(lp4517
S'k'
asg30
g31
sg16
S'Y'
sg14
I12
sg18
Nsg94
I13
sS'.thisIndex'
p4518
I13
sa(dp4519
g20
(lp4520
S'd'
asg17
S'N'
sS'.thisRepN'
p4521
I38
sg26
S'Y'
sg19
S'Y'
sg32
g33
sS'.thisTrialN'
p4522
I11
sS'.thisN'
p4523
I581
sg25
S'Y'
sg15
(lp4524
S'd'
asg30
g31
sg16
S'N'
sg14
I12
sg18
Nsg94
I8
sS'.thisIndex'
p4525
I8
sa(dp4526
g20
(lp4527
S'k'
asg17
S'N'
sS'.thisRepN'
p4528
I38
sg26
S'Y'
sg19
S'Y'
sg32
g33
sS'.thisTrialN'
p4529
I12
sS'.thisN'
p4530
I582
sg25
S'Y'
sg15
(lp4531
S'k'
asg30
g31
sg16
S'N'
sg14
I12
sg18
Nsg94
I6
sS'.thisIndex'
p4532
I6
sa(dp4533
g20
(lp4534
S'd'
asg17
S'N'
sS'.thisRepN'
p4535
I38
sg26
S'Y'
sg19
S'Y'
sg32
g33
sS'.thisTrialN'
p4536
I13
sS'.thisN'
p4537
I583
sg25
S'Y'
sg15
(lp4538
S'k'
asg30
g31
sg16
S'Y'
sg14
I12
sg18
Nsg94
I2
sS'.thisIndex'
p4539
I2
sa(dp4540
g20
(lp4541
S'd'
asg17
S'Y'
sS'.thisRepN'
p4542
I38
sg26
S'Y'
sg19
S'Y'
sg32
g33
sS'.thisTrialN'
p4543
I14
sS'.thisN'
p4544
I584
sg25
S'Y'
sg15
(lp4545
S'd'
asg30
g31
sg16
S'N'
sg14
I12
sg18
(lp4546
S'space'
p4547
asg94
I12
sS'.thisIndex'
p4548
I12
sa(dp4549
g20
(lp4550
S'd'
asg17
S'N'
sS'.thisRepN'
p4551
I39
sg26
S'Y'
sg19
S'Y'
sg32
g33
sS'.thisTrialN'
p4552
I0
sS'.thisN'
p4553
I585
sg25
S'Y'
sg15
(lp4554
S'k'
asg30
g31
sg16
S'Y'
sg14
I12
sg18
Nsg94
I9
sS'.thisIndex'
p4555
I9
sa(dp4556
g20
(lp4557
S'd'
asg17
S'N'
sS'.thisRepN'
p4558
I39
sg26
S'Y'
sg19
S'Y'
sg32
g33
sS'.thisTrialN'
p4559
I1
sS'.thisN'
p4560
I586
sg25
S'Y'
sg15
(lp4561
S'd'
asg30
g31
sg16
S'N'
sg14
I12
sg18
Nsg94
I1
sS'.thisIndex'
p4562
I1
sa(dp4563
g20
(lp4564
S'k'
asg17
S'N'
sS'.thisRepN'
p4565
I39
sg26
S'Y'
sg19
S'Y'
sg32
g33
sS'.thisTrialN'
p4566
I2
sS'.thisN'
p4567
I587
sg25
S'Y'
sg15
(lp4568
S'k'
asg30
g31
sg16
S'N'
sg14
I12
sg18
Nsg94
I6
sS'.thisIndex'
p4569
I6
sa(dp4570
g20
(lp4571
S'k'
asg17
S'N'
sS'.thisRepN'
p4572
I39
sg26
S'Y'
sg19
S'Y'
sg32
g33
sS'.thisTrialN'
p4573
I3
sS'.thisN'
p4574
I588
sg25
S'Y'
sg15
(lp4575
S'k'
asg30
g31
sg16
S'N'
sg14
I12
sg18
Nsg94
I13
sS'.thisIndex'
p4576
I13
sa(dp4577
g20
(lp4578
S'd'
asg17
S'N'
sS'.thisRepN'
p4579
I39
sg26
S'Y'
sg19
S'Y'
sg32
g33
sS'.thisTrialN'
p4580
I4
sS'.thisN'
p4581
I589
sg25
S'Y'
sg15
(lp4582
S'd'
asg30
g31
sg16
S'N'
sg14
I12
sg18
Nsg94
I9
sS'.thisIndex'
p4583
I9
sa(dp4584
g20
(lp4585
S'k'
asg17
S'N'
sS'.thisRepN'
p4586
I39
sg26
S'Y'
sg19
S'Y'
sg32
g33
sS'.thisTrialN'
p4587
I5
sS'.thisN'
p4588
I590
sg25
S'Y'
sg15
(lp4589
S'k'
asg30
g31
sg16
S'N'
sg14
I12
sg18
Nsg94
I6
sS'.thisIndex'
p4590
I6
sa(dp4591
g20
(lp4592
S'd'
asg17
S'N'
sS'.thisRepN'
p4593
I39
sg26
S'Y'
sg19
S'Y'
sg32
g33
sS'.thisTrialN'
p4594
I6
sS'.thisN'
p4595
I591
sg25
S'Y'
sg15
(lp4596
S'd'
asg30
g31
sg16
S'N'
sg14
I12
sg18
Nsg94
I8
sS'.thisIndex'
p4597
I8
sa(dp4598
g20
(lp4599
S'd'
asg17
S'N'
sS'.thisRepN'
p4600
I39
sg26
S'Y'
sg19
S'Y'
sg32
g33
sS'.thisTrialN'
p4601
I7
sS'.thisN'
p4602
I592
sg25
S'Y'
sg15
(lp4603
S'k'
asg30
g31
sg16
S'Y'
sg14
I12
sg18
Nsg94
I14
sS'.thisIndex'
p4604
I14
sa(dp4605
g20
(lp4606
S'k'
asg17
S'Y'
sS'.thisRepN'
p4607
I39
sg26
S'Y'
sg19
S'Y'
sg32
g33
sS'.thisTrialN'
p4608
I8
sS'.thisN'
p4609
I593
sg25
S'Y'
sg15
(lp4610
S'd'
asg30
g31
sg16
S'Y'
sg14
I12
sg18
(lp4611
S'space'
p4612
asg94
I0
sS'.thisIndex'
p4613
I0
sa(dp4614
g20
(lp4615
S'k'
asg17
S'Y'
sS'.thisRepN'
p4616
I39
sg26
S'Y'
sg19
S'Y'
sg32
g33
sS'.thisTrialN'
p4617
I9
sS'.thisN'
p4618
I594
sg25
S'Y'
sg15
(lp4619
S'k'
asg30
g31
sg16
S'N'
sg14
I12
sg18
(lp4620
S'space'
p4621
asg94
I4
sS'.thisIndex'
p4622
I4
sa(dp4623
g20
(lp4624
S'k'
asg17
S'Y'
sS'.thisRepN'
p4625
I39
sg26
S'Y'
sg19
S'Y'
sg32
g33
sS'.thisTrialN'
p4626
I10
sS'.thisN'
p4627
I595
sg25
S'Y'
sg15
(lp4628
S'd'
asg30
g31
sg16
S'Y'
sg14
I12
sg18
(lp4629
S'space'
p4630
asg94
I11
sS'.thisIndex'
p4631
I11
sa(dp4632
g20
(lp4633
S'k'
asg17
S'Y'
sS'.thisRepN'
p4634
I39
sg26
S'Y'
sg19
S'Y'
sg32
g33
sS'.thisTrialN'
p4635
I11
sS'.thisN'
p4636
I596
sg25
S'Y'
sg15
(lp4637
S'k'
asg30
g31
sg16
S'N'
sg14
I12
sg18
(lp4638
S'space'
p4639
asg94
I11
sS'.thisIndex'
p4640
I11
sa(dp4641
g20
(lp4642
S'k'
asg17
S'N'
sS'.thisRepN'
p4643
I39
sg26
S'Y'
sg19
S'Y'
sg32
g33
sS'.thisTrialN'
p4644
I12
sS'.thisN'
p4645
I597
sg25
S'Y'
sg15
(lp4646
S'k'
asg30
g31
sg16
S'N'
sg14
I12
sg18
Nsg94
I14
sS'.thisIndex'
p4647
I14
sa(dp4648
g20
(lp4649
S'k'
asg17
S'N'
sS'.thisRepN'
p4650
I39
sg26
S'Y'
sg19
S'Y'
sg32
g33
sS'.thisTrialN'
p4651
I13
sS'.thisN'
p4652
I598
sg25
S'Y'
sg15
(lp4653
S'k'
asg30
g31
sg16
S'N'
sg14
I12
sg18
Nsg94
I6
sS'.thisIndex'
p4654
I6
sa(dp4655
g20
(lp4656
S'k'
asg17
S'Y'
sg22
I46
sg26
S'Y'
sS'.thisN'
p4657
I599
sg19
S'N'
sg32
g33
sS'.thisTrialN'
p4658
I14
sS'.thisRepN'
p4659
I39
sg21
I21
sg25
S'Y'
sg23
I23
sg15
(lp4660
S'd'
asg30
g31
sg16
S'Y'
sg14
I12
sg18
Nsg94
I9
sS'.thisIndex'
p4661
I9
sasS'loops'
p4662
(lp4663
g1
(g36
g3
NtRp4664
(dp4665
g39
Nsg40
(lp4666
sg41
I80307184
sg10
S''
sg6
g42
sg43
I1
sg27
I01
sg28
Nsg44
g1
(g45
g46
(dp4667
g48
g49
(g50
g51
g52
S'b'
tRp4668
(I1
(I600
I1
tg55
I00
S'\x00\x00\x80?\x00\x00\x80?\x00\x00\x80?\x00\x00\x80?\x00\x00\x80?\x00\x00\x80?\x00\x00\x80?\x00\x00\x80?\x00\x00\x80?\x00\x00\x80?\x00\x00\x80?\x00\x00\x80?\x00\x00\x80?\x00\x00\x80?\x00\x00\x80?\x00\x00\x80?\x00\x00\x80?\x00\x00\x80?\x00\x00\x80?\x00\x00\x80?\x00\x00\x80?\x00\x00\x80?\x00\x00\x80?\x00\x00\x80?\x00\x00\x80?\x00\x00\x80?\x00\x00\x80?\x00\x00\x80?\x00\x00\x80?\x00\x00\x80?\x00\x00\x80?\x00\x00\x80?\x00\x00\x80?\x00\x00\x80?\x00\x00\x80?\x00\x00\x80?\x00\x00\x80?\x00\x00\x80?\x00\x00\x80?\x00\x00\x80?\x00\x00\x80?\x00\x00\x80?\x00\x00\x80?\x00\x00\x80?\x00\x00\x80?\x00\x00\x80?\x00\x00\x80?\x00\x00\x80?\x00\x00\x80?\x00\x00\x80?\x00\x00\x80?\x00\x00\x80?\x00\x00\x80?\x00\x00\x80?\x00\x00\x80?\x00\x00\x80?\x00\x00\x80?\x00\x00\x80?\x00\x00\x80?\x00\x00\x80?\x00\x00\x80?\x00\x00\x80?\x00\x00\x80?\x00\x00\x80?\x00\x00\x80?\x00\x00\x80?\x00\x00\x80?\x00\x00\x80?\x00\x00\x80?\x00\x00\x80?\x00\x00\x80?\x00\x00\x80?\x00\x00\x80?\x00\x00\x80?\x00\x00\x80?\x00\x00\x80?\x00\x00\x80?\x00\x00\x80?\x00\x00\x80?\x00\x00\x80?\x00\x00\x80?\x00\x00\x80?\x00\x00\x80?\x00\x00\x80?\x00\x00\x80?\x00\x00\x80?\x00\x00\x80?\x00\x00\x80?\x00\x00\x80?\x00\x00\x80?\x00\x00\x80?\x00\x00\x80?\x00\x00\x80?\x00\x00\x80?\x00\x00\x80?\x00\x00\x80?\x00\x00\x80?\x00\x00\x80?\x00\x00\x80?\x00\x00\x80?\x00\x00\x80?\x00\x00\x80?\x00\x00\x80?\x00\x00\x80?\x00\x00\x80?\x00\x00\x80?\x00\x00\x80?\x00\x00\x80?\x00\x00\x80?\x00\x00\x80?\x00\x00\x80?\x00\x00\x80?\x00\x00\x80?\x00\x00\x80?\x00\x00\x80?\x00\x00\x80?\x00\x00\x80?\x00\x00\x80?\x00\x00\x80?\x00\x00\x80?\x00\x00\x80?\x00\x00\x80?\x00\x00\x80?\x00\x00\x80?\x00\x00\x80?\x00\x00\x80?\x00\x00\x80?\x00\x00\x80?\x00\x00\x80?\x00\x00\x80?\x00\x00\x80?\x00\x00\x80?\x00\x00\x80?\x00\x00\x80?\x00\x00\x80?\x00\x00\x80?\x00\x00\x80?\x00\x00\x80?\x00\x00\x80?\x00\x00\x80?\x00\x00\x80?\x00\x00\x80?\x00\x00\x80?\x00\x00\x80?\x00\x00\x80?\x00\x00\x80?\x00\x00\x80?\x00\x00\x80?\x00\x00\x80?\x00\x00\x80?\x00\x00\x80?\x00\x00\x80?\x00\x00\x80?\x00\x00\x80?\x00\x00\x80?\x00\x00\x80?\x00\x00\x80?\x00\x00\x80?\x00\x00\x80?\x00\x00\x80?\x00\x00\x80?\x00\x00\x80?\x00\x00\x80?\x00\x00\x80?\x00\x00\x80?\x00\x00\x80?\x00\x00\x80?\x00\x00\x80?\x00\x00\x80?\x00\x00\x80?\x00\x00\x80?\x00\x00\x80?\x00\x00\x80?\x00\x00\x80?\x00\x00\x80?\x00\x00\x80?\x00\x00\x80?\x00\x00\x80?\x00\x00\x80?\x00\x00\x80?\x00\x00\x80?\x00\x00\x80?\x00\x00\x80?\x00\x00\x80?\x00\x00\x80?\x00\x00\x80?\x00\x00\x80?\x00\x00\x80?\x00\x00\x80?\x00\x00\x80?\x00\x00\x80?\x00\x00\x80?\x00\x00\x80?\x00\x00\x80?\x00\x00\x80?\x00\x00\x80?\x00\x00\x80?\x00\x00\x80?\x00\x00\x80?\x00\x00\x80?\x00\x00\x80?\x00\x00\x80?\x00\x00\x80?\x00\x00\x80?\x00\x00\x80?\x00\x00\x80?\x00\x00\x80?\x00\x00\x80?\x00\x00\x80?\x00\x00\x80?\x00\x00\x80?\x00\x00\x80?\x00\x00\x80?\x00\x00\x80?\x00\x00\x80?\x00\x00\x80?\x00\x00\x80?\x00\x00\x80?\x00\x00\x80?\x00\x00\x80?\x00\x00\x80?\x00\x00\x80?\x00\x00\x80?\x00\x00\x80?\x00\x00\x80?\x00\x00\x80?\x00\x00\x80?\x00\x00\x80?\x00\x00\x80?\x00\x00\x80?\x00\x00\x80?\x00\x00\x80?\x00\x00\x80?\x00\x00\x80?\x00\x00\x80?\x00\x00\x80?\x00\x00\x80?\x00\x00\x80?\x00\x00\x80?\x00\x00\x80?\x00\x00\x80?\x00\x00\x80?\x00\x00\x80?\x00\x00\x80?\x00\x00\x80?\x00\x00\x80?\x00\x00\x80?\x00\x00\x80?\x00\x00\x80?\x00\x00\x80?\x00\x00\x80?\x00\x00\x80?\x00\x00\x80?\x00\x00\x80?\x00\x00\x80?\x00\x00\x80?\x00\x00\x80?\x00\x00\x80?\x00\x00\x80?\x00\x00\x80?\x00\x00\x80?\x00\x00\x80?\x00\x00\x80?\x00\x00\x80?\x00\x00\x80?\x00\x00\x80?\x00\x00\x80?\x00\x00\x80?\x00\x00\x80?\x00\x00\x80?\x00\x00\x80?\x00\x00\x80?\x00\x00\x80?\x00\x00\x80?\x00\x00\x80?\x00\x00\x80?\x00\x00\x80?\x00\x00\x80?\x00\x00\x80?\x00\x00\x80?\x00\x00\x80?\x00\x00\x80?\x00\x00\x80?\x00\x00\x80?\x00\x00\x80?\x00\x00\x80?\x00\x00\x80?\x00\x00\x80?\x00\x00\x80?\x00\x00\x80?\x00\x00\x80?\x00\x00\x80?\x00\x00\x80?\x00\x00\x80?\x00\x00\x80?\x00\x00\x80?\x00\x00\x80?\x00\x00\x80?\x00\x00\x80?\x00\x00\x80?\x00\x00\x80?\x00\x00\x80?\x00\x00\x80?\x00\x00\x80?\x00\x00\x80?\x00\x00\x80?\x00\x00\x80?\x00\x00\x80?\x00\x00\x80?\x00\x00\x80?\x00\x00\x80?\x00\x00\x80?\x00\x00\x80?\x00\x00\x80?\x00\x00\x80?\x00\x00\x80?\x00\x00\x80?\x00\x00\x80?\x00\x00\x80?\x00\x00\x80?\x00\x00\x80?\x00\x00\x80?\x00\x00\x80?\x00\x00\x80?\x00\x00\x80?\x00\x00\x80?\x00\x00\x80?\x00\x00\x80?\x00\x00\x80?\x00\x00\x80?\x00\x00\x80?\x00\x00\x80?\x00\x00\x80?\x00\x00\x80?\x00\x00\x80?\x00\x00\x80?\x00\x00\x80?\x00\x00\x80?\x00\x00\x80?\x00\x00\x80?\x00\x00\x80?\x00\x00\x80?\x00\x00\x80?\x00\x00\x80?\x00\x00\x80?\x00\x00\x80?\x00\x00\x80?\x00\x00\x80?\x00\x00\x80?\x00\x00\x80?\x00\x00\x80?\x00\x00\x80?\x00\x00\x80?\x00\x00\x80?\x00\x00\x80?\x00\x00\x80?\x00\x00\x80?\x00\x00\x80?\x00\x00\x80?\x00\x00\x80?\x00\x00\x80?\x00\x00\x80?\x00\x00\x80?\x00\x00\x80?\x00\x00\x80?\x00\x00\x80?\x00\x00\x80?\x00\x00\x80?\x00\x00\x80?\x00\x00\x80?\x00\x00\x80?\x00\x00\x80?\x00\x00\x80?\x00\x00\x80?\x00\x00\x80?\x00\x00\x80?\x00\x00\x80?\x00\x00\x80?\x00\x00\x80?\x00\x00\x80?\x00\x00\x80?\x00\x00\x80?\x00\x00\x80?\x00\x00\x80?\x00\x00\x80?\x00\x00\x80?\x00\x00\x80?\x00\x00\x80?\x00\x00\x80?\x00\x00\x80?\x00\x00\x80?\x00\x00\x80?\x00\x00\x80?\x00\x00\x80?\x00\x00\x80?\x00\x00\x80?\x00\x00\x80?\x00\x00\x80?\x00\x00\x80?\x00\x00\x80?\x00\x00\x80?\x00\x00\x80?\x00\x00\x80?\x00\x00\x80?\x00\x00\x80?\x00\x00\x80?\x00\x00\x80?\x00\x00\x80?\x00\x00\x80?\x00\x00\x80?\x00\x00\x80?\x00\x00\x80?\x00\x00\x80?\x00\x00\x80?\x00\x00\x80?\x00\x00\x80?\x00\x00\x80?\x00\x00\x80?\x00\x00\x80?\x00\x00\x80?\x00\x00\x80?\x00\x00\x80?\x00\x00\x80?\x00\x00\x80?\x00\x00\x80?\x00\x00\x80?\x00\x00\x80?\x00\x00\x80?\x00\x00\x80?\x00\x00\x80?\x00\x00\x80?\x00\x00\x80?\x00\x00\x80?\x00\x00\x80?\x00\x00\x80?\x00\x00\x80?\x00\x00\x80?\x00\x00\x80?\x00\x00\x80?\x00\x00\x80?\x00\x00\x80?\x00\x00\x80?\x00\x00\x80?\x00\x00\x80?\x00\x00\x80?\x00\x00\x80?\x00\x00\x80?\x00\x00\x80?\x00\x00\x80?\x00\x00\x80?\x00\x00\x80?\x00\x00\x80?\x00\x00\x80?\x00\x00\x80?\x00\x00\x80?\x00\x00\x80?\x00\x00\x80?\x00\x00\x80?\x00\x00\x80?\x00\x00\x80?\x00\x00\x80?\x00\x00\x80?\x00\x00\x80?\x00\x00\x80?\x00\x00\x80?\x00\x00\x80?\x00\x00\x80?\x00\x00\x80?\x00\x00\x80?\x00\x00\x80?\x00\x00\x80?\x00\x00\x80?\x00\x00\x80?\x00\x00\x80?\x00\x00\x80?\x00\x00\x80?\x00\x00\x80?\x00\x00\x80?\x00\x00\x80?\x00\x00\x80?\x00\x00\x80?\x00\x00\x80?\x00\x00\x80?\x00\x00\x80?\x00\x00\x80?\x00\x00\x80?\x00\x00\x80?\x00\x00\x80?\x00\x00\x80?\x00\x00\x80?\x00\x00\x80?\x00\x00\x80?\x00\x00\x80?\x00\x00\x80?\x00\x00\x80?\x00\x00\x80?\x00\x00\x80?\x00\x00\x80?\x00\x00\x80?\x00\x00\x80?\x00\x00\x80?\x00\x00\x80?\x00\x00\x80?\x00\x00\x80?\x00\x00\x80?\x00\x00\x80?\x00\x00\x80?\x00\x00\x80?\x00\x00\x80?\x00\x00\x80?\x00\x00\x80?\x00\x00\x80?\x00\x00\x80?\x00\x00\x80?\x00\x00\x80?\x00\x00\x80?\x00\x00\x80?\x00\x00\x80?\x00\x00\x80?\x00\x00\x80?\x00\x00\x80?\x00\x00\x80?\x00\x00\x80?\x00\x00\x80?\x00\x00\x80?\x00\x00\x80?\x00\x00\x80?\x00\x00\x80?\x00\x00\x80?\x00\x00\x80?\x00\x00\x80?\x00\x00\x80?\x00\x00\x80?\x00\x00\x80?\x00\x00\x80?\x00\x00\x80?\x00\x00\x80?\x00\x00\x80?\x00\x00\x80?\x00\x00\x80?\x00\x00\x80?\x00\x00\x80?\x00\x00\x80?\x00\x00\x80?\x00\x00\x80?\x00\x00\x80?\x00\x00\x80?\x00\x00\x80?\x00\x00\x80?\x00\x00\x80?\x00\x00\x80?\x00\x00\x80?\x00\x00\x80?\x00\x00\x80?\x00\x00\x80?\x00\x00\x80?\x00\x00\x80?\x00\x00\x80?\x00\x00\x80?\x00\x00\x80?\x00\x00\x80?\x00\x00\x80?\x00\x00\x80?\x00\x00\x80?\x00\x00\x80?\x00\x00\x80?\x00\x00\x80?\x00\x00\x80?\x00\x00\x80?\x00\x00\x80?\x00\x00\x80?\x00\x00\x80?\x00\x00\x80?\x00\x00\x80?\x00\x00\x80?\x00\x00\x80?\x00\x00\x80?\x00\x00\x80?\x00\x00\x80?\x00\x00\x80?\x00\x00\x80?\x00\x00\x80?\x00\x00\x80?\x00\x00\x80?\x00\x00\x80?\x00\x00\x80?\x00\x00\x80?\x00\x00\x80?\x00\x00\x80?\x00\x00\x80?\x00\x00\x80?\x00\x00\x80?\x00\x00\x80?\x00\x00\x80?\x00\x00\x80?\x00\x00\x80?\x00\x00\x80?\x00\x00\x80?\x00\x00\x80?\x00\x00\x80?'
S'\x00\x00\x00\x00\x00\x00\x00\x00\x00\x00\x00\x00\x00\x00\x00\x00\x00\x00\x00\x00\x00\x00\x00\x00\x00\x00\x00\x00\x00\x00\x00\x00\x00\x00\x00\x00\x00\x00\x00\x00\x00\x00\x00\x00\x00\x00\x00\x00\x00\x00\x00\x00\x00\x00\x00\x00\x00\x00\x00\x00\x00\x00\x00\x00\x00\x00\x00\x00\x00\x00\x00\x00\x00\x00\x00\x00\x00\x00\x00\x00\x00\x00\x00\x00\x00\x00\x00\x00\x00\x00\x00\x00\x00\x00\x00\x00\x00\x00\x00\x00\x00\x00\x00\x00\x00\x00\x00\x00\x00\x00\x00\x00\x00\x00\x00\x00\x00\x00\x00\x00\x00\x00\x00\x00\x00\x00\x00\x00\x00\x00\x00\x00\x00\x00\x00\x00\x00\x00\x00\x00\x00\x00\x00\x00\x00\x00\x00\x00\x00\x00\x00\x00\x00\x00\x00\x00\x00\x00\x00\x00\x00\x00\x00\x00\x00\x00\x00\x00\x00\x00\x00\x00\x00\x00\x00\x00\x00\x00\x00\x00\x00\x00\x00\x00\x00\x00\x00\x00\x00\x00\x00\x00\x00\x00\x00\x00\x00\x00\x00\x00\x00\x00\x00\x00\x00\x00\x00\x00\x00\x00\x00\x00\x00\x00\x00\x00\x00\x00\x00\x00\x00\x00\x00\x00\x00\x00\x00\x00\x00\x00\x00\x00\x00\x00\x00\x00\x00\x00\x00\x00\x00\x00\x00\x00\x00\x00\x00\x00\x00\x00\x00\x00\x00\x00\x00\x00\x00\x00\x00\x00\x00\x00\x00\x00\x00\x00\x00\x00\x00\x00\x00\x00\x00\x00\x00\x00\x00\x00\x00\x00\x00\x00\x00\x00\x00\x00\x00\x00\x00\x00\x00\x00\x00\x00\x00\x00\x00\x00\x00\x00\x00\x00\x00\x00\x00\x00\x00\x00\x00\x00\x00\x00\x00\x00\x00\x00\x00\x00\x00\x00\x00\x00\x00\x00\x00\x00\x00\x00\x00\x00\x00\x00\x00\x00\x00\x00\x00\x00\x00\x00\x00\x00\x00\x00\x00\x00\x00\x00\x00\x00\x00\x00\x00\x00\x00\x00\x00\x00\x00\x00\x00\x00\x00\x00\x00\x00\x00\x00\x00\x00\x00\x00\x00\x00\x00\x00\x00\x00\x00\x00\x00\x00\x00\x00\x00\x00\x00\x00\x00\x00\x00\x00\x00\x00\x00\x00\x00\x00\x00\x00\x00\x00\x00\x00\x00\x00\x00\x00\x00\x00\x00\x00\x00\x00\x00\x00\x00\x00\x00\x00\x00\x00\x00\x00\x00\x00\x00\x00\x00\x00\x00\x00\x00\x00\x00\x00\x00\x00\x00\x00\x00\x00\x00\x00\x00\x00\x00\x00\x00\x00\x00\x00\x00\x00\x00\x00\x00\x00\x00\x00\x00\x00\x00\x00\x00\x00\x00\x00\x00\x00\x00\x00\x00\x00\x00\x00\x00\x00\x00\x00\x00\x00\x00\x00\x00\x00\x00\x00\x00\x00\x00\x00\x00\x00\x00\x00\x00\x00\x00\x00\x00\x00\x00\x00\x00\x00\x00\x00\x00\x00\x00\x00\x00\x00\x00\x00\x00\x00\x00\x00\x00\x00\x00\x00\x00\x00\x00\x00\x00\x00\x00\x00\x00\x00\x00\x00\x00\x00\x00\x00\x00\x00\x00\x00\x00\x00\x00\x00\x00\x00\x00\x00\x00\x00\x00\x00\x00\x00\x00\x00\x00\x00\x00\x00\x00\x00\x00\x00\x00\x00\x00\x00\x00\x00\x00\x00\x00\x00\x00\x00\x00\x00\x00\x00\x00\x00\x00\x00\x00\x00\x00\x00\x00\x00\x00\x00\x00\x00\x00\x00'
Ntbsg56
g49
(g50
g51
g52
S'b'
tRp4669
(I1
(I600
I1
tg55
I00
S'\x00\x00\xbfC\x00\x00\x10A\x00\x00\xf0C\x00\x00\tC\x00\x80\xa3C\x00\x80\x12D\x00\x00\nD\x00\x00\x1bC\x00\x00\xbcC\x00\x00\xfaB\x00\x00pC\x00\x80\x94C\x00\x00(B\x00\x80\xb7C\x00@\x11D\x00\x80\xddC\x00\x80\xbeC\x00\x80\xdcC\x00\x80\xb4C\x00\x00\xeeC\x00\x00aC\x00\x00\xdcC\x00@\rD\x00\x00nC\x00\x80\xafC\x00\x00\xf8C\x00\x00HC\x00\x00\xc5C\x00\x00\x8bC\x00\x00\x94C\x00\x80\x86C\x00\x00\x80C\x00\x80\xa9C\x00\x00\x00\x00\x00\x80\xa7C\x00\x00\xfeB\x00\x003C\x00\x80\xfcC\x00\x00\x88C\x00\x00\x92B\x00\x00\x1eC\x00\x00\xfaC\x00\x80\xd1C\x00\x00\x08B\x00\x00\xb5C\x00\xc0\x04D\x00\x00\x1dC\x00\x80\xf0C\x00\x00\xd6B\x00\x80\xbcC\x00\x00\x04B\x00\x00tC\x00\x80\xdbC\x00\x80\xefC\x00\x00\x1cB\x00\x80\xf3C\x00\x80\xadC\x00\x00\x0bC\x00\x80\x05D\x00\x00BC\x00\x00XC\x00\x80\x92C\x00\x00\x0cC\x00\x80\x01D\x00\x80\xe0C\x00\x00\xe2C\x00\x00\x05C\x00\x00\x88A\x00\x00\xc2B\x00\x80\xbfC\x00\x00\x1cC\x00\x00,B\x00\x00\xaeC\x00@\x02D\x00\x80\x84C\x00\x00\xb0C\x00\x00\xbaC\x00\x007C\x00\x00\xcbC\x00\x00 C\x00@\x00D\x00\x00\xa2C\x00\x00\xe1C\x00\x00tB\x00\x00\xc8C\x00\xc0\x10D\x00\x00\xf7C\x00\x00\xe3C\x00\x00\xe2B\x00\x00eC\x00\x00\xccB\x00\x00\x98A\x00\xc0\rD\x00\x00,C\x00\x80\x8fC\x00\x00\xb6B\x00@\x13D\x00\x80\x82C\x00\xc0\nD\x00\x00\x10D\x00\x00mC\x00\x00\x08D\x00\x00\x8eC\x00\x80\x02D\x00\x00\xe4B\x00\x00\x96B\x00\x00;C\x00\x008B\x00\x00\xacB\x00\x80\xc1C\x00\x00\xceC\x00\x00[C\x00\x00\x8fC\x00\x00\x86B\x00\x00\xa7C\x00\x00\xf2C\x00\x80\x87C\x00\x00*C\x00\x80\xa1C\x00\x80\x98C\x00\x00\xb3C\x00\x80\xf9C\x00\x00\x9eB\x00\x00zC\x00\x00\xf0B\x00\x00\x81C\x00\x00UC\x00\x80\xc3C\x00\x00gC\x00\x80\xb1C\x00@\x07D\x00\x80\x9dC\x00\x80\x80C\x00\x00\x12C\x00\x00RC\x00\x80\x9cC\x00\x80\xd2C\x00\x80\xebC\x00\x80\xe7C\x00@\x04D\x00\x008C\x00\x00\xe0@\x00\x00\xfdC\x00\x00)C\x00\x00\xa6C\x00\x004B\x00\x80\xb9C\x00\x00hC\x00\x00PA\x00\x80\xbdC\x00\x00}C\x00\x00\x05D\x00\x00\x08C\x00\x00|C\x00\x00\x9aB\x00\x80\xaeC\x00\x00\xdeB\x00\x80\x8cC\x00\xc0\x06D\x00\x00lB\x00\x00\x14C\x00\x00uC\x00\x00\xc7C\x00\x80\xb2C\x00@\x0eD\x00\x00cC\x00\x00\x85C\x00\xc0\x11D\x00\x00\x95C\x00\x00\xa2B\x00\x00\xf3C\x00\x00\x10B\x00\x00\x9fC\x00\x00\x82C\x00\x80\xd4C\x00@\x08D\x00\x00\xd4C\x00\x80\xc2C\x00\x80\xfbC\x00\x00pA\x00\x006C\x00\x80\x9fC\x00\x00\xf8B\x00\x00\rC\x00\x00\xa8A\x00\x00@B\x00\x80\x9aC\x00\x00`B\x00\x00\x11D\x00\x80\x97C\x00\x00\xf2B\x00\x00\xe5C\x00\x80\xffC\x00\x00 A\x00\x00\xafC\x00\x00\xd2C\x00\x00\x8cB\x00\x00TB\x00\x00YC\x00\x000B\x00\x00\xc0B\x00\x00wC\x00\x80\xb0C\x00\x00\x80?\x00\x00`A\x00\x00\xe4C\x00\x80\x85C\x00\x80\x0fD\x00\x80\xfdC\x00\x00|B\x00\x80\tD\x00\x00\xeaB\x00\x80\xc4C\x00\x00`C\x00@\x12D\x00\x00\x8cC\x00\x00\x87C\x00\x00\x90B\x00\x80\xf8C\x00@\x0fD\x00\x00DB\x00\x00@C\x00\x80\xe5C\x00\x80\xedC\x00\x00\x14D\x00\x00\xf8A\x00@\x06D\x00\x00\xd5C\x00\x00\xa1C\x00\x00\xc8B\x00\x00\x9cB\x00\x00xB\x00\x00\xeeB\x00\xc0\x13D\x00\x00\x94B\x00\x00\x98B\x00\x00\x17C\x00\x80\xd6C\x00\x00FC\x00\x00rC\x00\x00\xd6C\x00\x00\xe6C\x00\x00\x8eB\x00\x80\xe6C\x00\x00\xc2C\x00\x00\\C\x00\x00EC\x00\xc0\x0bD\x00\x00\xdfC\x00\xc0\x0fD\x00\x00\xabC\x00\x00sC\x00\x80\xdeC\x00\x80\xe3C\x00\x80\x00D\x00\x00\xb4C\x00\x80\x07D\x00\x00\x04D\x00\x00\xd8A\x00\x00VC\x00\x00\xd9C\x00\x80\xbaC\x00\x00\x80@\x00\x00\x00C\x00\x00\xc4C\x00\x00\xecB\x00\x00\xc0@\x00\x00LC\x00\x00\xbaB\x00\x80\rD\x00\x80\xc9C\x00\x00<C\x00\x00\'C\x00\x00\x8aB\x00\x80\x83C\x00\x00\xb8B\x00\x00\x80B\x00\x00\x12D\x00\x80\xf1C\x00\x00SC\x00\x80\xd5C\x00\x80\xc5C\x00\x00:C\x00\x80\x06D\x00\x00\xedC\x00\x00\x0bD\x00\x00@@\x00\x00\xa8B\x00\x00\xa8C\x00\x00dC\x00\x00fC\x00\x80\xceC\x00\x00\xe0B\x00\x00\xa5C\x00\x00\xa4B\x00\x00\\B\x00\x80\xbbC\x00\x00\xd3C\x00\x00<B\x00\x80\xa5C\x00\x80\x9bC\x00\x00\xb8C\x00\x80\x9eC\x00\x00\xdeC\x00\x80\xeeC\x00\x80\x0bD\x00\x00\xd0A\x00\x80\x8bC\x00\x00\xa0B\x00\x00\xfeC\x00\x00\xf1C\x00\x00\xf6B\x00\x00\x15D\x00\x00\x92C\x00\x00\x18C\x00\x80\xd3C\x00\x00\xe6B\x00\x00\xcaB\x00\x00\x9eC\x00\x00%C\x00\x002C\x00\x00\x01C\x00\x00oC\x00\x00]C\x00\x00@A\x00\x00\x18B\x00\x00\x0cD\x00\x00\nC\x00\x00\xb4B\x00\x80\xf7C\x00\x00\x82B\x00\x80\xfeC\x00\x00\x13C\x00\xc0\x0cD\x00\x80\x04D\x00\x00(C\x00@\x10D\x00\x00\xb0A\x00\x00\x7fC\x00\x00\x07C\x00\x00\xd8B\x00\x00\xa6B\x00\x00\x90C\x00\x80\xf6C\x00\xc0\x01D\x00\x00\xc4B\x00\x80\x11D\x00\x00$B\x00\x00\xc3C\x00\x00+C\x00\x00\x9dC\x00\x00\xfbC\x00\x00\rD\x00\x00\x00@\x00\x00\xc9C\x00\x80\xfaC\x00\x00\x97C\x00\x00\xd4B\x00\xc0\x08D\x00\x00&C\x00\x80\xc8C\x00\x80\xecC\x00\x00\xddC\x00\x00^C\x00\x00bC\x00\x00DC\x00\x80\x0cD\x00\x00\xc0C\x00@\x0cD\x00\x80\xe8C\x00\x80\xa2C\x00\x80\x88C\x00\x00\x84B\x00\x80\xf4C\x00\x00\xfcC\x00\x00\xdbC\x00\x00\xb6C\x00\x80\xa0C\x00\x00MC\x00\x00\xdaB\x00\x80\xe1C\x00\x00\x89C\x00\x00\xf5C\x00\x000C\x00@\nD\x00\x00!C\x00\x00\x04C\x00\x00\xbeC\x00\x80\xc6C\x00\x80\xb5C\x00\x00\x14B\x00\x80\xb8C\x00\x00\x98C\x00\x80\xa8C\x00\x00#C\x00\x80\xccC\x00\x00=C\x00\x00\xfcB\x00\x00\x19C\x00\x00XB\x00\xc0\x02D\x00\x00TC\x00\x00\xbeB\x00\x00\x03D\x00\x00\xa0@\x00\x00$C\x00\x80\xdaC\x00\x80\x8aC\x00\x00\xe9C\x00\x00\x86C\x00\x80\xb6C\x00\x00\xffC\x00\x00HB\x00\x00\xa0A\x00\x80\xdfC\x00\x00vC\x00\x00\x84C\x00\x80\xd7C\x00\x00PC\x00\x00iC\x00\x00\xccC\x00\x00\xa3C\x00\x80\x10D\x00\x00\x90A\x00\x00\xd7C\x00\x00\xf9C\x00\x80\xd9C\x00\x00\xb2C\x00\x00\x88B\x00\x80\x81C\x00\x80\x15D\x00\xc0\x14D\x00\x00\xdcB\x00\xc0\x12D\x00\x00"C\x00\x00\xcfC\x00\x00\x13D\x00\x80\x14D\x00\x00{C\x00\xc0\tD\x00\x00\xe0C\x00\x009C\x00\xc0\x03D\x00\x00\xb7C\x00\x00\x93C\x00\x00\xe8B\x00\xc0\x05D\x00\x00\x15C\x00\x00JC\x00\x00\xa4C\x00\x80\xe4C\x00\x80\xd0C\x00\x00\xebC\x00\x00QC\x00\x00\xb9C\x00\x00\x1fC\x00\x00\x99C\x00\x00kC\x00\x00\xd0B\x00\x00\xa0C\x00\x00\xc0A\x00\x00\x10C\x00\x00KC\x00@\x15D\x00\x80\xaaC\x00\x80\xb3C\x00\x00>C\x00\xc0\x00D\x00\x00PB\x00\x00\xb2B\x00\x80\xc0C\x00\x80\xc7C\x00\x00\xd0C\x00\x80\xe9C\x00\x00\xacC\x00\x80\x0eD\x00\x00\x91C\x00\x00\xe8A\x00\x00\xd8C\x00\x80\xcfC\x00\x00\xbdC\x00\x00\x02C\x00\x00CC\x00\x80\x95C\x00\x00\x1aC\x00\x00\xc8A\x00\x80\xd8C\x00\x00\x8dC\x00\x00\xc1C\x00\x00\xefC\x00\x00\x0cB\x00\x00\xbcB\x00\x00\xb8A\x00\x00pB\x00\x80\xe2C\x00\x80\x90C\x00@\x01D\x00\x00\x9cC\x00\x00\x11C\x00\x00\xf6C\x00\x00\x0eD\x00\x00\x0eC\x00\x00\x00B\x00\x00.C\x00\x80\x03D\x00\x00\x9bC\x00\x00\xe7C\x00\x00NC\x00\x00\x80A\x00\x00_C\x00\x00\tD\x00\x00\x9aC\x00\x00\xd1C\x00\x00?C\x00\x80\x91C\x00\x80\xf5C\x00\x00\x01D\x00\x80\xeaC\x00\x00\xaaC\x00\x00OC\x00\x00\x16C\x00\x00\x96C\x00\x00\xb1C\x00\x00\xaaB\x00\x00\x06C\x00\x00\x03C\x00\x80\x89C\x00@\x05D\x00\x80\xabC\x00\x00/C\x00\x00\xcaC\x00\x00yC\x00\x00\xceB\x00\x00\xf0A\x00\x00\xc6C\x00\x00\x02D\x00\x00\xaeB\x00\x00\xf4B\x00\x80\x08D\x00\x00~C\x00\x80\xa6C\x00\x00\xeaC\x00\x80\xcaC\x00\x00\xcdC\x00\x00\x0fC\x00\x00\xbbC\x00\x00IC\x00\x80\xf2C\x00@\x03D\x00\x00LB\x00\x00\x83C\x00\x00\xecC\x00\x00\xdaC\x00\x80\x8eC\x00\x00jC\x00\x00WC\x00\x00dB\x00\x80\xcdC\x00\xc0\x0eD\x00\x80\x8dC\x00\x80\x96C\x00\x80\xa4C\x00\x00\x07D\x00@\x14D\x00@\x0bD\x00\x00\x8aC\x00\x00\xf4C\x00\x00\xd2B\x00\xc0\x07D\x00\x00\x00D\x00\xc0\x15D\x00\x000A\x00\x80\x99C\x00\x80\xacC\x00\x80\x13D\x00\x00lC\x00\x00 B\x00\x00\x0fD\x00\x00GC\x00\x00hB\x00\x80\xcbC\x00\x00\x00A\x00\x00-C\x00\x005C\x00\x80\x93C\x00\x00\xc6B\x00\x004C\x00\x00\xadC\x00\x00\xe0A\x00@\tD\x00\x00\x06D\x00\x00\xe8C\x00\x001C\x00\x00\xa9C\x00\x00qC\x00\x00xC\x00\x80\nD\x00\x00ZC\x00\x00\xb0B\x00\x00AC'
S'\x00\x00\x00\x00\x00\x00\x00\x00\x00\x00\x00\x00\x00\x00\x00\x00\x00\x00\x00\x00\x00\x00\x00\x00\x00\x00\x00\x00\x00\x00\x00\x00\x00\x00\x00\x00\x00\x00\x00\x00\x00\x00\x00\x00\x00\x00\x00\x00\x00\x00\x00\x00\x00\x00\x00\x00\x00\x00\x00\x00\x00\x00\x00\x00\x00\x00\x00\x00\x00\x00\x00\x00\x00\x00\x00\x00\x00\x00\x00\x00\x00\x00\x00\x00\x00\x00\x00\x00\x00\x00\x00\x00\x00\x00\x00\x00\x00\x00\x00\x00\x00\x00\x00\x00\x00\x00\x00\x00\x00\x00\x00\x00\x00\x00\x00\x00\x00\x00\x00\x00\x00\x00\x00\x00\x00\x00\x00\x00\x00\x00\x00\x00\x00\x00\x00\x00\x00\x00\x00\x00\x00\x00\x00\x00\x00\x00\x00\x00\x00\x00\x00\x00\x00\x00\x00\x00\x00\x00\x00\x00\x00\x00\x00\x00\x00\x00\x00\x00\x00\x00\x00\x00\x00\x00\x00\x00\x00\x00\x00\x00\x00\x00\x00\x00\x00\x00\x00\x00\x00\x00\x00\x00\x00\x00\x00\x00\x00\x00\x00\x00\x00\x00\x00\x00\x00\x00\x00\x00\x00\x00\x00\x00\x00\x00\x00\x00\x00\x00\x00\x00\x00\x00\x00\x00\x00\x00\x00\x00\x00\x00\x00\x00\x00\x00\x00\x00\x00\x00\x00\x00\x00\x00\x00\x00\x00\x00\x00\x00\x00\x00\x00\x00\x00\x00\x00\x00\x00\x00\x00\x00\x00\x00\x00\x00\x00\x00\x00\x00\x00\x00\x00\x00\x00\x00\x00\x00\x00\x00\x00\x00\x00\x00\x00\x00\x00\x00\x00\x00\x00\x00\x00\x00\x00\x00\x00\x00\x00\x00\x00\x00\x00\x00\x00\x00\x00\x00\x00\x00\x00\x00\x00\x00\x00\x00\x00\x00\x00\x00\x00\x00\x00\x00\x00\x00\x00\x00\x00\x00\x00\x00\x00\x00\x00\x00\x00\x00\x00\x00\x00\x00\x00\x00\x00\x00\x00\x00\x00\x00\x00\x00\x00\x00\x00\x00\x00\x00\x00\x00\x00\x00\x00\x00\x00\x00\x00\x00\x00\x00\x00\x00\x00\x00\x00\x00\x00\x00\x00\x00\x00\x00\x00\x00\x00\x00\x00\x00\x00\x00\x00\x00\x00\x00\x00\x00\x00\x00\x00\x00\x00\x00\x00\x00\x00\x00\x00\x00\x00\x00\x00\x00\x00\x00\x00\x00\x00\x00\x00\x00\x00\x00\x00\x00\x00\x00\x00\x00\x00\x00\x00\x00\x00\x00\x00\x00\x00\x00\x00\x00\x00\x00\x00\x00\x00\x00\x00\x00\x00\x00\x00\x00\x00\x00\x00\x00\x00\x00\x00\x00\x00\x00\x00\x00\x00\x00\x00\x00\x00\x00\x00\x00\x00\x00\x00\x00\x00\x00\x00\x00\x00\x00\x00\x00\x00\x00\x00\x00\x00\x00\x00\x00\x00\x00\x00\x00\x00\x00\x00\x00\x00\x00\x00\x00\x00\x00\x00\x00\x00\x00\x00\x00\x00\x00\x00\x00\x00\x00\x00\x00\x00\x00\x00\x00\x00\x00\x00\x00\x00\x00\x00\x00\x00\x00\x00\x00\x00\x00\x00\x00\x00\x00\x00\x00\x00\x00\x00\x00\x00\x00\x00\x00\x00\x00\x00\x00\x00\x00\x00\x00\x00\x00\x00\x00\x00\x00\x00\x00\x00\x00\x00\x00\x00\x00\x00\x00\x00\x00\x00\x00\x00\x00\x00\x00\x00\x00\x00\x00\x00\x00\x00\x00\x00\x00\x00\x00\x00\x00\x00\x00\x00\x00'
NtbstRp4670
(dp4671
g60
(dp4672
g48
I01
sg56
I01
ssg62
g4664
sg63
(lp4673
g48
ag56
asg65
(lp4674
I600
aI1
asbsg67
S'random'
p4675
sg69
g70
(g51
(I0
tS'b'
tRp4676
(I1
(I600
I1
tg54
(S'i4'
I0
I1
tRp4677
(I3
S'<'
NNNI-1
I-1
I0
tbI01
S'!\x00\x00\x00\xcb\x00\x00\x00a\x01\x00\x00\x1e\x01\x00\x00\x06\x01\x00\x00\x94\x01\x00\x00\n\x01\x00\x00\x8d\x00\x00\x00E\x02\x00\x00\x01\x00\x00\x00\xc1\x00\x00\x00;\x02\x00\x00D\x01\x00\x00\x94\x00\x00\x00\xcc\x00\x00\x00\xb3\x00\x00\x00\xfc\x01\x00\x00C\x00\x00\x00\xa7\x01\x00\x00[\x00\x00\x00\x9d\x01\x00\x00\xb8\x00\x00\x00Q\x01\x00\x00\xec\x01\x00\x00\xcc\x01\x00\x00\xe5\x01\x00\x002\x01\x00\x00\x02\x01\x00\x00L\x02\x00\x00\xdd\x01\x00\x00\x15\x02\x00\x00\xe1\x00\x00\x00\xf6\x01\x00\x002\x00\x00\x00+\x00\x00\x00\xea\x01\x00\x00\xab\x00\x00\x00\x86\x01\x00\x00E\x01\x00\x006\x00\x00\x00@\x02\x00\x00[\x01\x00\x00\x0c\x00\x00\x00G\x00\x00\x00\xc7\x00\x00\x00\x91\x00\x00\x00k\x00\x00\x00*\x01\x00\x00\xb9\x00\x00\x00\xdc\x00\x00\x00\x9c\x01\x00\x00%\x02\x00\x00\xd4\x01\x00\x00\xc5\x00\x00\x00\x8f\x01\x00\x00\'\x01\x00\x00\xbb\x00\x00\x00,\x02\x00\x00C\x02\x00\x00\x9f\x00\x00\x00\xed\x01\x00\x00S\x00\x00\x00\xe7\x00\x00\x00\xd1\x00\x00\x00\x14\x01\x00\x00J\x01\x00\x00t\x01\x00\x00q\x00\x00\x00\xac\x01\x00\x00\x11\x01\x00\x00\xc4\x00\x00\x00\xf2\x00\x00\x00\xd9\x00\x00\x00\'\x00\x00\x00\xea\x00\x00\x00i\x00\x00\x00\xeb\x00\x00\x00\x9a\x00\x00\x00\xe6\x00\x00\x00z\x00\x00\x004\x01\x00\x00\xa9\x00\x00\x00&\x01\x00\x00U\x01\x00\x00\x1f\x01\x00\x00\x0b\x02\x00\x00l\x00\x00\x00\x18\x02\x00\x00V\x02\x00\x00\xd5\x01\x00\x00H\x01\x00\x00_\x00\x00\x00\x13\x01\x00\x00\x0c\x01\x00\x00\xeb\x01\x00\x00\x92\x01\x00\x00\xc8\x00\x00\x00D\x00\x00\x00Y\x01\x00\x00I\x02\x00\x00\xe5\x00\x00\x00=\x01\x00\x00Z\x00\x00\x00\x14\x02\x00\x00\xca\x01\x00\x007\x02\x00\x00e\x01\x00\x000\x00\x00\x00T\x01\x00\x00{\x01\x00\x00\xb0\x01\x00\x00\x9c\x00\x00\x00$\x01\x00\x00X\x00\x00\x00h\x00\x00\x00<\x01\x00\x00\xbd\x01\x00\x00\xd3\x00\x00\x00\t\x01\x00\x00\xe8\x00\x00\x00|\x00\x00\x00\xbe\x00\x00\x00\x19\x02\x00\x007\x01\x00\x00\xb6\x00\x00\x00\t\x00\x00\x00\x8d\x01\x00\x00#\x00\x00\x00\x07\x01\x00\x00A\x01\x00\x00\xe1\x01\x00\x00\r\x02\x00\x00\x82\x01\x00\x00B\x00\x00\x00\x0c\x02\x00\x00S\x01\x00\x00\x98\x00\x00\x00\x03\x00\x00\x00G\x01\x00\x009\x00\x00\x00>\x00\x00\x00\xb7\x00\x00\x00\xf5\x01\x00\x00 \x02\x00\x00\xcd\x01\x00\x00\xf2\x01\x00\x00\x85\x00\x00\x00L\x01\x00\x00\xa0\x00\x00\x00\xbf\x01\x00\x00\x08\x02\x00\x00\xec\x00\x00\x00:\x01\x00\x00\x8e\x01\x00\x00\xe4\x01\x00\x00\x07\x00\x00\x00F\x00\x00\x00.\x00\x00\x00(\x00\x00\x00\xc7\x01\x00\x00O\x00\x00\x00\x81\x01\x00\x00\xb2\x01\x00\x00\x8a\x01\x00\x00\x95\x01\x00\x00?\x01\x00\x00g\x01\x00\x00\x10\x01\x00\x00O\x01\x00\x00\x8f\x00\x00\x00u\x00\x00\x00]\x01\x00\x00]\x00\x00\x00F\x02\x00\x00\xf7\x01\x00\x00\x11\x02\x00\x00\x7f\x01\x00\x00P\x02\x00\x00@\x01\x00\x00$\x00\x00\x00J\x02\x00\x00G\x02\x00\x00\xb4\x00\x00\x00M\x00\x00\x00\x8c\x00\x00\x00\xb9\x01\x00\x00\x1a\x01\x00\x00j\x00\x00\x00\x0f\x01\x00\x00\x8c\x01\x00\x00\xd2\x01\x00\x00\x01\x02\x00\x00\xdd\x00\x00\x00W\x02\x00\x00;\x00\x00\x00\xe2\x01\x00\x00m\x01\x00\x00\xf6\x00\x00\x00\xee\x00\x00\x00B\x02\x00\x00\x1a\x00\x00\x00"\x02\x00\x00\xc0\x01\x00\x00\xce\x01\x00\x00\x0b\x01\x00\x00z\x01\x00\x00\xfb\x01\x00\x00\x07\x02\x00\x00\xa2\x01\x00\x00\xc5\x01\x00\x00\x86\x00\x00\x00\x17\x01\x00\x00\x91\x01\x00\x00~\x00\x00\x00\x03\x01\x00\x00+\x02\x00\x00<\x00\x00\x00\xc6\x00\x00\x00U\x02\x00\x00o\x00\x00\x00\xf5\x00\x00\x00C\x01\x00\x00k\x01\x00\x00\xfd\x01\x00\x00\xd5\x00\x00\x00\x14\x00\x00\x00l\x01\x00\x00\xa5\x00\x00\x00!\x01\x00\x00Y\x00\x00\x00"\x01\x00\x00\x80\x00\x00\x00\x93\x00\x00\x00\xa3\x01\x00\x00*\x02\x00\x00\xc9\x01\x00\x00?\x02\x00\x00d\x00\x00\x00\x17\x00\x00\x00B\x01\x00\x00\n\x00\x00\x00R\x02\x00\x00\xef\x00\x00\x00\xfb\x00\x00\x003\x00\x00\x00\xa1\x00\x00\x00\x9f\x01\x00\x00\xc9\x00\x00\x00S\x02\x00\x00\x13\x02\x00\x00{\x00\x00\x00\xb6\x01\x00\x00\x99\x00\x00\x00\x96\x00\x00\x00\x1b\x02\x00\x00R\x01\x00\x00\x1f\x00\x00\x00\x84\x00\x00\x00}\x00\x00\x00\xad\x01\x00\x00\xad\x00\x00\x00a\x00\x00\x00&\x02\x00\x00\x12\x01\x00\x00\xa0\x01\x00\x00J\x00\x00\x00\xa6\x00\x00\x00\xce\x00\x00\x00\x99\x01\x00\x00\x1e\x00\x00\x00\xd8\x00\x00\x00t\x00\x00\x00&\x00\x00\x00s\x01\x00\x00}\x01\x00\x00\x0e\x02\x00\x005\x02\x00\x00\x97\x01\x00\x00\x1c\x00\x00\x003\x01\x00\x00\xd7\x00\x00\x00\x9d\x00\x00\x00\xe7\x01\x00\x00/\x02\x00\x00f\x00\x00\x00)\x02\x00\x00p\x00\x00\x00^\x00\x00\x00V\x01\x00\x00\xef\x01\x00\x00\xdc\x01\x00\x00\x02\x02\x00\x009\x01\x00\x00=\x00\x00\x00\xbc\x01\x00\x00H\x02\x00\x00\x1d\x00\x00\x00\x0b\x00\x00\x00\xa8\x00\x00\x00\xe3\x01\x00\x00\t\x02\x00\x000\x02\x00\x00d\x01\x00\x00\xbd\x00\x00\x00\x88\x01\x00\x00w\x00\x00\x00\xc8\x01\x00\x00<\x02\x00\x00\xff\x01\x00\x00\xba\x00\x00\x00\xf9\x01\x00\x00,\x01\x00\x00\xf1\x01\x00\x00\x87\x00\x00\x00^\x01\x00\x00\x83\x00\x00\x00>\x01\x00\x00.\x01\x00\x00\xac\x00\x00\x00\xb5\x00\x00\x00\xcb\x01\x00\x00y\x01\x00\x00\xe4\x00\x00\x00v\x00\x00\x00Q\x00\x00\x00r\x01\x00\x00\xa5\x01\x00\x00\x04\x00\x00\x00\xc1\x01\x00\x001\x02\x00\x00%\x01\x00\x00+\x01\x00\x00\x90\x00\x00\x00\x1c\x02\x00\x00r\x00\x00\x00"\x00\x00\x00 \x01\x00\x00\x89\x01\x00\x00Q\x02\x00\x00 \x00\x00\x00\x06\x02\x00\x00\xd0\x01\x00\x00\xfa\x00\x00\x00\x10\x02\x00\x00\xda\x01\x00\x00=\x02\x00\x00K\x02\x00\x008\x00\x00\x00H\x00\x00\x00\x9b\x00\x00\x00\xc2\x00\x00\x00\x18\x00\x00\x00K\x00\x00\x00\xca\x00\x00\x00\n\x02\x00\x00\x81\x00\x00\x00\xab\x01\x00\x00\xa3\x00\x00\x00x\x00\x00\x00\xd1\x01\x00\x00\xff\x00\x00\x00\x12\x00\x00\x00,\x00\x00\x00\x85\x01\x00\x00x\x01\x00\x00\x9a\x01\x00\x00\xbb\x01\x00\x00\r\x00\x00\x00-\x01\x00\x00\x87\x01\x00\x00\xc6\x01\x00\x00\x92\x00\x00\x00L\x00\x00\x00\x05\x01\x00\x00!\x02\x00\x00(\x01\x00\x00\x08\x00\x00\x001\x00\x00\x00\xe0\x01\x00\x00\x95\x00\x00\x00\x83\x01\x00\x00\x10\x00\x00\x00\x00\x00\x00\x00E\x00\x00\x00o\x01\x00\x00\xd6\x01\x00\x00\xe8\x01\x00\x00m\x00\x00\x00\xf4\x00\x00\x00\xb1\x00\x00\x00\\\x01\x00\x00\x7f\x00\x00\x00\x08\x01\x00\x00\xd4\x00\x00\x00\x1b\x00\x00\x00\x19\x01\x00\x00\x16\x02\x00\x00\x84\x01\x00\x00\xa2\x00\x00\x00\xd7\x01\x00\x00T\x00\x00\x00h\x01\x00\x00b\x01\x00\x00\x0e\x01\x00\x00\x12\x02\x00\x00\x1e\x02\x00\x00N\x00\x00\x00D\x02\x00\x00\xa4\x01\x00\x00\x8b\x01\x00\x00\x1f\x02\x00\x00-\x02\x00\x00n\x00\x00\x00#\x01\x00\x00\xb3\x01\x00\x00\xdf\x01\x00\x00\xd8\x01\x00\x00\xc3\x01\x00\x00\x00\x02\x00\x00*\x00\x00\x00\xc3\x00\x00\x00\x88\x00\x00\x00)\x01\x00\x00;\x01\x00\x00\xb0\x00\x00\x00\xae\x00\x00\x00\xe3\x00\x00\x00\x18\x01\x00\x00\xf0\x00\x00\x00\xed\x00\x00\x00\xa8\x01\x00\x00\xa1\x01\x00\x00\xde\x01\x00\x00\xe6\x01\x00\x00\x04\x01\x00\x00\xaa\x01\x00\x00(\x02\x00\x00\x96\x01\x00\x00w\x01\x00\x004\x00\x00\x00\x15\x00\x00\x00\x11\x00\x00\x00j\x01\x00\x00\x0f\x00\x00\x00/\x01\x00\x00\xfc\x00\x00\x00\xf8\x00\x00\x00\x9e\x01\x00\x00\xb8\x01\x00\x00@\x00\x00\x00R\x00\x00\x00|\x01\x00\x00A\x00\x00\x00\xee\x01\x00\x00W\x00\x00\x00\xfd\x00\x00\x00\xcd\x00\x00\x00\xc2\x01\x00\x00\xbf\x00\x00\x00\xde\x00\x00\x00\xf1\x00\x00\x00\xf3\x00\x00\x00\xfa\x01\x00\x00\x8a\x00\x00\x00O\x02\x00\x00q\x01\x00\x00\x98\x01\x00\x00\xd9\x01\x00\x00\x1d\x02\x00\x00\x05\x02\x00\x00\xc4\x01\x00\x00\x89\x00\x00\x00\'\x02\x00\x00i\x01\x00\x00\x1c\x01\x00\x00\xdf\x00\x00\x00\x13\x00\x00\x000\x01\x00\x00\xe9\x01\x00\x005\x00\x00\x00\x02\x00\x00\x00/\x00\x00\x006\x01\x00\x00\x16\x01\x00\x00s\x00\x00\x00#\x02\x00\x00\xaa\x00\x00\x007\x00\x00\x006\x02\x00\x00u\x01\x00\x00~\x01\x00\x00\x03\x02\x00\x00\xf3\x01\x00\x00W\x01\x00\x00V\x00\x00\x00I\x01\x00\x00\x19\x00\x00\x00\xda\x00\x00\x00\xa9\x01\x00\x00y\x00\x00\x00)\x00\x00\x00c\x01\x00\x00_\x01\x00\x00\xb2\x00\x00\x00v\x01\x00\x00%\x00\x00\x00\x8e\x00\x00\x00\xd0\x00\x00\x005\x01\x00\x00K\x01\x00\x00\x9b\x01\x00\x00\xc0\x00\x00\x009\x02\x00\x00P\x00\x00\x00\xfe\x00\x00\x00\xd3\x01\x00\x00\x04\x02\x00\x00\xf0\x01\x00\x00?\x00\x00\x00X\x01\x00\x00\x17\x02\x00\x00I\x00\x00\x00g\x00\x00\x00\x90\x01\x00\x00\x93\x01\x00\x00$\x02\x00\x00\xf8\x01\x00\x00\xba\x01\x00\x00\x01\x01\x00\x00\x8b\x00\x00\x00N\x01\x00\x00-\x00\x00\x00\x97\x00\x00\x00\x0f\x02\x00\x00:\x00\x00\x00\xbe\x01\x00\x00N\x02\x00\x00\xe2\x00\x00\x00\x1b\x01\x00\x00\x9e\x00\x00\x002\x02\x00\x00\x82\x00\x00\x00\x00\x01\x00\x008\x02\x00\x00e\x00\x00\x00\xaf\x00\x00\x00\x1a\x02\x00\x00f\x01\x00\x00\xfe\x01\x00\x00M\x02\x00\x00\xd2\x00\x00\x00\xb7\x01\x00\x00\x06\x00\x00\x00\x80\x01\x00\x00T\x02\x00\x00b\x00\x00\x00\x1d\x01\x00\x004\x02\x00\x001\x01\x00\x00\xf7\x00\x00\x00F\x01\x00\x00p\x01\x00\x00n\x01\x00\x00M\x01\x00\x00`\x01\x00\x00\x16\x00\x00\x00\r\x01\x00\x00\\\x00\x00\x00\xf4\x01\x00\x00\xa4\x00\x00\x00\xdb\x01\x00\x00.\x02\x00\x00A\x02\x00\x00\xdb\x00\x00\x00\xcf\x00\x00\x00\xf9\x00\x00\x00c\x00\x00\x00P\x01\x00\x00\xa6\x01\x00\x00U\x00\x00\x00\xbc\x00\x00\x00\x0e\x00\x00\x00Z\x01\x00\x00\xa7\x00\x00\x00\x15\x01\x00\x00\xd6\x00\x00\x00\x05\x00\x00\x00\xb1\x01\x00\x00\xb4\x01\x00\x00`\x00\x00\x00>\x02\x00\x00\xe9\x00\x00\x00\xe0\x00\x00\x003\x02\x00\x00\xb5\x01\x00\x00\xaf\x01\x00\x008\x01\x00\x00\xcf\x01\x00\x00\xae\x01\x00\x00:\x02\x00\x00'
tbsg74
I01
sg75
I1
sg76
I-1
sg77
(lp4678
I0
aI1
aI2
aI3
aI4
aI5
aI6
aI7
aI8
aI9
aI10
aI11
aI12
aI13
aI14
aI15
aI16
aI17
aI18
aI19
aI20
aI21
aI22
aI23
aI24
aI25
aI26
aI27
aI28
aI29
aI30
aI31
aI32
aI33
aI34
aI35
aI36
aI37
aI38
aI39
aI40
aI41
aI42
aI43
aI44
aI45
aI46
aI47
aI48
aI49
aI50
aI51
aI52
aI53
aI54
aI55
aI56
aI57
aI58
aI59
aI60
aI61
aI62
aI63
aI64
aI65
aI66
aI67
aI68
aI69
aI70
aI71
aI72
aI73
aI74
aI75
aI76
aI77
aI78
aI79
aI80
aI81
aI82
aI83
aI84
aI85
aI86
aI87
aI88
aI89
aI90
aI91
aI92
aI93
aI94
aI95
aI96
aI97
aI98
aI99
aI100
aI101
aI102
aI103
aI104
aI105
aI106
aI107
aI108
aI109
aI110
aI111
aI112
aI113
aI114
aI115
aI116
aI117
aI118
aI119
aI120
aI121
aI122
aI123
aI124
aI125
aI126
aI127
aI128
aI129
aI130
aI131
aI132
aI133
aI134
aI135
aI136
aI137
aI138
aI139
aI140
aI141
aI142
aI143
aI144
aI145
aI146
aI147
aI148
aI149
aI150
aI151
aI152
aI153
aI154
aI155
aI156
aI157
aI158
aI159
aI160
aI161
aI162
aI163
aI164
aI165
aI166
aI167
aI168
aI169
aI170
aI171
aI172
aI173
aI174
aI175
aI176
aI177
aI178
aI179
aI180
aI181
aI182
aI183
aI184
aI185
aI186
aI187
aI188
aI189
aI190
aI191
aI192
aI193
aI194
aI195
aI196
aI197
aI198
aI199
aI200
aI201
aI202
aI203
aI204
aI205
aI206
aI207
aI208
aI209
aI210
aI211
aI212
aI213
aI214
aI215
aI216
aI217
aI218
aI219
aI220
aI221
aI222
aI223
aI224
aI225
aI226
aI227
aI228
aI229
aI230
aI231
aI232
aI233
aI234
aI235
aI236
aI237
aI238
aI239
aI240
aI241
aI242
aI243
aI244
aI245
aI246
aI247
aI248
aI249
aI250
aI251
aI252
aI253
aI254
aI255
aI256
aI257
aI258
aI259
aI260
aI261
aI262
aI263
aI264
aI265
aI266
aI267
aI268
aI269
aI270
aI271
aI272
aI273
aI274
aI275
aI276
aI277
aI278
aI279
aI280
aI281
aI282
aI283
aI284
aI285
aI286
aI287
aI288
aI289
aI290
aI291
aI292
aI293
aI294
aI295
aI296
aI297
aI298
aI299
aI300
aI301
aI302
aI303
aI304
aI305
aI306
aI307
aI308
aI309
aI310
aI311
aI312
aI313
aI314
aI315
aI316
aI317
aI318
aI319
aI320
aI321
aI322
aI323
aI324
aI325
aI326
aI327
aI328
aI329
aI330
aI331
aI332
aI333
aI334
aI335
aI336
aI337
aI338
aI339
aI340
aI341
aI342
aI343
aI344
aI345
aI346
aI347
aI348
aI349
aI350
aI351
aI352
aI353
aI354
aI355
aI356
aI357
aI358
aI359
aI360
aI361
aI362
aI363
aI364
aI365
aI366
aI367
aI368
aI369
aI370
aI371
aI372
aI373
aI374
aI375
aI376
aI377
aI378
aI379
aI380
aI381
aI382
aI383
aI384
aI385
aI386
aI387
aI388
aI389
aI390
aI391
aI392
aI393
aI394
aI395
aI396
aI397
aI398
aI399
aI400
aI401
aI402
aI403
aI404
aI405
aI406
aI407
aI408
aI409
aI410
aI411
aI412
aI413
aI414
aI415
aI416
aI417
aI418
aI419
aI420
aI421
aI422
aI423
aI424
aI425
aI426
aI427
aI428
aI429
aI430
aI431
aI432
aI433
aI434
aI435
aI436
aI437
aI438
aI439
aI440
aI441
aI442
aI443
aI444
aI445
aI446
aI447
aI448
aI449
aI450
aI451
aI452
aI453
aI454
aI455
aI456
aI457
aI458
aI459
aI460
aI461
aI462
aI463
aI464
aI465
aI466
aI467
aI468
aI469
aI470
aI471
aI472
aI473
aI474
aI475
aI476
aI477
aI478
aI479
aI480
aI481
aI482
aI483
aI484
aI485
aI486
aI487
aI488
aI489
aI490
aI491
aI492
aI493
aI494
aI495
aI496
aI497
aI498
aI499
aI500
aI501
aI502
aI503
aI504
aI505
aI506
aI507
aI508
aI509
aI510
aI511
aI512
aI513
aI514
aI515
aI516
aI517
aI518
aI519
aI520
aI521
aI522
aI523
aI524
aI525
aI526
aI527
aI528
aI529
aI530
aI531
aI532
aI533
aI534
aI535
aI536
aI537
aI538
aI539
aI540
aI541
aI542
aI543
aI544
aI545
aI546
aI547
aI548
aI549
aI550
aI551
aI552
aI553
aI554
aI555
aI556
aI557
aI558
aI559
aI560
aI561
aI562
aI563
aI564
aI565
aI566
aI567
aI568
aI569
aI570
aI571
aI572
aI573
aI574
aI575
aI576
aI577
aI578
aI579
aI580
aI581
aI582
aI583
aI584
aI585
aI586
aI587
aI588
aI589
aI590
aI591
aI592
aI593
aI594
aI595
aI596
aI597
aI598
aI599
asg79
Nsg80
cnumpy.core.multiarray
scalar
p4679
(g4677
S':\x02\x00\x00'
tRp4680
sg81
I600
sg82
I0
sg83
I600
sg84
I01
sbag37
asS'savePickle'
p4681
I00
sb.