ccopy_reg
_reconstructor
p1
(cpsychopy.data
ExperimentHandler
p2
c__builtin__
object
p3
NtRp4
(dp5
S'originPath'
p6
NsS'dataFileName'
p7
Vsubject638
p8
sS'runtimeInfo'
p9
NsS'name'
p10
VVERBALRBsubject 638
p11
sS'dataNames'
p12
(lp13
S'Block Number'
p14
aS'Key pressed'
p15
aS'Category'
p16
aS'Correct?'
p17
aS'Int Match?'
p18
aS'Int Response'
p19
aS'Int Correct?'
p20
aS'Line Accuracy'
p21
aS'Interference Accuracy'
p22
aS'Matching Interferences'
p23
aS'New instruction shown?'
p24
aS'Buttons switched?'
p25
aS'Fast?'
p26
asS'autoLog'
p27
I01
sS'extraInfo'
p28
(dp29
S'gender'
p30
VF
sS'age'
p31
V20
p32
ssS'loopsUnfinished'
p33
(lp34
g1
(cpsychopy.data
TrialHandler
p35
g3
NtRp36
(dp37
S'origin'
p38
NsS'thisTrial'
p39
I1
sS'_exp'
p40
I79975408
sg10
S''
sg6
S'C:\\Users\\Mike\\Desktop\\Dual2\\NEWSpatialRB.py'
p41
sS'thisRepN'
p42
I39
sg27
I01
sg28
NsS'data'
p43
g1
(cpsychopy.data
DataHandler
p44
c__builtin__
dict
p45
(dp46
S'ran'
p47
cnumpy.ma.core
_mareconstruct
p48
(cnumpy.ma.core
MaskedArray
p49
cnumpy
ndarray
p50
(I0
tp51
S'b'
tRp52
(I1
(I15
I40
tcnumpy
dtype
p53
(S'f4'
I0
I1
tRp54
(I3
S'<'
NNNI-1
I-1
I0
tbI00
S'\x00\x00\x80?\x00\x00\x80?\x00\x00\x80?\x00\x00\x80?\x00\x00\x80?\x00\x00\x80?\x00\x00\x80?\x00\x00\x80?\x00\x00\x80?\x00\x00\x80?\x00\x00\x80?\x00\x00\x80?\x00\x00\x80?\x00\x00\x80?\x00\x00\x80?\x00\x00\x80?\x00\x00\x80?\x00\x00\x80?\x00\x00\x80?\x00\x00\x80?\x00\x00\x80?\x00\x00\x80?\x00\x00\x80?\x00\x00\x80?\x00\x00\x80?\x00\x00\x80?\x00\x00\x80?\x00\x00\x80?\x00\x00\x80?\x00\x00\x80?\x00\x00\x80?\x00\x00\x80?\x00\x00\x80?\x00\x00\x80?\x00\x00\x80?\x00\x00\x80?\x00\x00\x80?\x00\x00\x80?\x00\x00\x80?\x00\x00\x80?\x00\x00\x80?\x00\x00\x80?\x00\x00\x80?\x00\x00\x80?\x00\x00\x80?\x00\x00\x80?\x00\x00\x80?\x00\x00\x80?\x00\x00\x80?\x00\x00\x80?\x00\x00\x80?\x00\x00\x80?\x00\x00\x80?\x00\x00\x80?\x00\x00\x80?\x00\x00\x80?\x00\x00\x80?\x00\x00\x80?\x00\x00\x80?\x00\x00\x80?\x00\x00\x80?\x00\x00\x80?\x00\x00\x80?\x00\x00\x80?\x00\x00\x80?\x00\x00\x80?\x00\x00\x80?\x00\x00\x80?\x00\x00\x80?\x00\x00\x80?\x00\x00\x80?\x00\x00\x80?\x00\x00\x80?\x00\x00\x80?\x00\x00\x80?\x00\x00\x80?\x00\x00\x80?\x00\x00\x80?\x00\x00\x80?\x00\x00\x80?\x00\x00\x80?\x00\x00\x80?\x00\x00\x80?\x00\x00\x80?\x00\x00\x80?\x00\x00\x80?\x00\x00\x80?\x00\x00\x80?\x00\x00\x80?\x00\x00\x80?\x00\x00\x80?\x00\x00\x80?\x00\x00\x80?\x00\x00\x80?\x00\x00\x80?\x00\x00\x80?\x00\x00\x80?\x00\x00\x80?\x00\x00\x80?\x00\x00\x80?\x00\x00\x80?\x00\x00\x80?\x00\x00\x80?\x00\x00\x80?\x00\x00\x80?\x00\x00\x80?\x00\x00\x80?\x00\x00\x80?\x00\x00\x80?\x00\x00\x80?\x00\x00\x80?\x00\x00\x80?\x00\x00\x80?\x00\x00\x80?\x00\x00\x80?\x00\x00\x80?\x00\x00\x80?\x00\x00\x80?\x00\x00\x80?\x00\x00\x80?\x00\x00\x80?\x00\x00\x80?\x00\x00\x80?\x00\x00\x80?\x00\x00\x80?\x00\x00\x80?\x00\x00\x80?\x00\x00\x80?\x00\x00\x80?\x00\x00\x80?\x00\x00\x80?\x00\x00\x80?\x00\x00\x80?\x00\x00\x80?\x00\x00\x80?\x00\x00\x80?\x00\x00\x80?\x00\x00\x80?\x00\x00\x80?\x00\x00\x80?\x00\x00\x80?\x00\x00\x80?\x00\x00\x80?\x00\x00\x80?\x00\x00\x80?\x00\x00\x80?\x00\x00\x80?\x00\x00\x80?\x00\x00\x80?\x00\x00\x80?\x00\x00\x80?\x00\x00\x80?\x00\x00\x80?\x00\x00\x80?\x00\x00\x80?\x00\x00\x80?\x00\x00\x80?\x00\x00\x80?\x00\x00\x80?\x00\x00\x80?\x00\x00\x80?\x00\x00\x80?\x00\x00\x80?\x00\x00\x80?\x00\x00\x80?\x00\x00\x80?\x00\x00\x80?\x00\x00\x80?\x00\x00\x80?\x00\x00\x80?\x00\x00\x80?\x00\x00\x80?\x00\x00\x80?\x00\x00\x80?\x00\x00\x80?\x00\x00\x80?\x00\x00\x80?\x00\x00\x80?\x00\x00\x80?\x00\x00\x80?\x00\x00\x80?\x00\x00\x80?\x00\x00\x80?\x00\x00\x80?\x00\x00\x80?\x00\x00\x80?\x00\x00\x80?\x00\x00\x80?\x00\x00\x80?\x00\x00\x80?\x00\x00\x80?\x00\x00\x80?\x00\x00\x80?\x00\x00\x80?\x00\x00\x80?\x00\x00\x80?\x00\x00\x80?\x00\x00\x80?\x00\x00\x80?\x00\x00\x80?\x00\x00\x80?\x00\x00\x80?\x00\x00\x80?\x00\x00\x80?\x00\x00\x80?\x00\x00\x80?\x00\x00\x80?\x00\x00\x80?\x00\x00\x80?\x00\x00\x80?\x00\x00\x80?\x00\x00\x80?\x00\x00\x80?\x00\x00\x80?\x00\x00\x80?\x00\x00\x80?\x00\x00\x80?\x00\x00\x80?\x00\x00\x80?\x00\x00\x80?\x00\x00\x80?\x00\x00\x80?\x00\x00\x80?\x00\x00\x80?\x00\x00\x80?\x00\x00\x80?\x00\x00\x80?\x00\x00\x80?\x00\x00\x80?\x00\x00\x80?\x00\x00\x80?\x00\x00\x80?\x00\x00\x80?\x00\x00\x80?\x00\x00\x80?\x00\x00\x80?\x00\x00\x80?\x00\x00\x80?\x00\x00\x80?\x00\x00\x80?\x00\x00\x80?\x00\x00\x80?\x00\x00\x80?\x00\x00\x80?\x00\x00\x80?\x00\x00\x80?\x00\x00\x80?\x00\x00\x80?\x00\x00\x80?\x00\x00\x80?\x00\x00\x80?\x00\x00\x80?\x00\x00\x80?\x00\x00\x80?\x00\x00\x80?\x00\x00\x80?\x00\x00\x80?\x00\x00\x80?\x00\x00\x80?\x00\x00\x80?\x00\x00\x80?\x00\x00\x80?\x00\x00\x80?\x00\x00\x80?\x00\x00\x80?\x00\x00\x80?\x00\x00\x80?\x00\x00\x80?\x00\x00\x80?\x00\x00\x80?\x00\x00\x80?\x00\x00\x80?\x00\x00\x80?\x00\x00\x80?\x00\x00\x80?\x00\x00\x80?\x00\x00\x80?\x00\x00\x80?\x00\x00\x80?\x00\x00\x80?\x00\x00\x80?\x00\x00\x80?\x00\x00\x80?\x00\x00\x80?\x00\x00\x80?\x00\x00\x80?\x00\x00\x80?\x00\x00\x80?\x00\x00\x80?\x00\x00\x80?\x00\x00\x80?\x00\x00\x80?\x00\x00\x80?\x00\x00\x80?\x00\x00\x80?\x00\x00\x80?\x00\x00\x80?\x00\x00\x80?\x00\x00\x80?\x00\x00\x80?\x00\x00\x80?\x00\x00\x80?\x00\x00\x80?\x00\x00\x80?\x00\x00\x80?\x00\x00\x80?\x00\x00\x80?\x00\x00\x80?\x00\x00\x80?\x00\x00\x80?\x00\x00\x80?\x00\x00\x80?\x00\x00\x80?\x00\x00\x80?\x00\x00\x80?\x00\x00\x80?\x00\x00\x80?\x00\x00\x80?\x00\x00\x80?\x00\x00\x80?\x00\x00\x80?\x00\x00\x80?\x00\x00\x80?\x00\x00\x80?\x00\x00\x80?\x00\x00\x80?\x00\x00\x80?\x00\x00\x80?\x00\x00\x80?\x00\x00\x80?\x00\x00\x80?\x00\x00\x80?\x00\x00\x80?\x00\x00\x80?\x00\x00\x80?\x00\x00\x80?\x00\x00\x80?\x00\x00\x80?\x00\x00\x80?\x00\x00\x80?\x00\x00\x80?\x00\x00\x80?\x00\x00\x80?\x00\x00\x80?\x00\x00\x80?\x00\x00\x80?\x00\x00\x80?\x00\x00\x80?\x00\x00\x80?\x00\x00\x80?\x00\x00\x80?\x00\x00\x80?\x00\x00\x80?\x00\x00\x80?\x00\x00\x80?\x00\x00\x80?\x00\x00\x80?\x00\x00\x80?\x00\x00\x80?\x00\x00\x80?\x00\x00\x80?\x00\x00\x80?\x00\x00\x80?\x00\x00\x80?\x00\x00\x80?\x00\x00\x80?\x00\x00\x80?\x00\x00\x80?\x00\x00\x80?\x00\x00\x80?\x00\x00\x80?\x00\x00\x80?\x00\x00\x80?\x00\x00\x80?\x00\x00\x80?\x00\x00\x80?\x00\x00\x80?\x00\x00\x80?\x00\x00\x80?\x00\x00\x80?\x00\x00\x80?\x00\x00\x80?\x00\x00\x80?\x00\x00\x80?\x00\x00\x80?\x00\x00\x80?\x00\x00\x80?\x00\x00\x80?\x00\x00\x80?\x00\x00\x80?\x00\x00\x80?\x00\x00\x80?\x00\x00\x80?\x00\x00\x80?\x00\x00\x80?\x00\x00\x80?\x00\x00\x80?\x00\x00\x80?\x00\x00\x80?\x00\x00\x80?\x00\x00\x80?\x00\x00\x80?\x00\x00\x80?\x00\x00\x80?\x00\x00\x80?\x00\x00\x80?\x00\x00\x80?\x00\x00\x80?\x00\x00\x80?\x00\x00\x80?\x00\x00\x80?\x00\x00\x80?\x00\x00\x80?\x00\x00\x80?\x00\x00\x80?\x00\x00\x80?\x00\x00\x80?\x00\x00\x80?\x00\x00\x80?\x00\x00\x80?\x00\x00\x80?\x00\x00\x80?\x00\x00\x80?\x00\x00\x80?\x00\x00\x80?\x00\x00\x80?\x00\x00\x80?\x00\x00\x80?\x00\x00\x80?\x00\x00\x80?\x00\x00\x80?\x00\x00\x80?\x00\x00\x80?\x00\x00\x80?\x00\x00\x80?\x00\x00\x80?\x00\x00\x80?\x00\x00\x80?\x00\x00\x80?\x00\x00\x80?\x00\x00\x80?\x00\x00\x80?\x00\x00\x80?\x00\x00\x80?\x00\x00\x80?\x00\x00\x80?\x00\x00\x80?\x00\x00\x80?\x00\x00\x80?\x00\x00\x80?\x00\x00\x80?\x00\x00\x80?\x00\x00\x80?\x00\x00\x80?\x00\x00\x80?\x00\x00\x80?\x00\x00\x80?\x00\x00\x80?\x00\x00\x80?\x00\x00\x80?\x00\x00\x80?\x00\x00\x80?\x00\x00\x80?\x00\x00\x80?\x00\x00\x80?\x00\x00\x80?\x00\x00\x80?\x00\x00\x80?\x00\x00\x80?\x00\x00\x80?\x00\x00\x80?\x00\x00\x80?\x00\x00\x80?\x00\x00\x80?\x00\x00\x80?\x00\x00\x80?\x00\x00\x80?\x00\x00\x80?\x00\x00\x80?\x00\x00\x80?\x00\x00\x80?\x00\x00\x80?\x00\x00\x80?\x00\x00\x80?\x00\x00\x80?\x00\x00\x80?\x00\x00\x80?\x00\x00\x80?\x00\x00\x80?\x00\x00\x80?\x00\x00\x80?\x00\x00\x80?\x00\x00\x80?\x00\x00\x80?\x00\x00\x80?\x00\x00\x80?\x00\x00\x80?\x00\x00\x80?\x00\x00\x80?\x00\x00\x80?\x00\x00\x80?\x00\x00\x80?\x00\x00\x80?\x00\x00\x80?\x00\x00\x80?\x00\x00\x80?\x00\x00\x80?\x00\x00\x80?\x00\x00\x80?\x00\x00\x80?\x00\x00\x80?\x00\x00\x80?\x00\x00\x80?\x00\x00\x80?\x00\x00\x80?\x00\x00\x80?\x00\x00\x80?\x00\x00\x80?\x00\x00\x80?\x00\x00\x80?\x00\x00\x80?\x00\x00\x80?\x00\x00\x80?\x00\x00\x80?\x00\x00\x80?\x00\x00\x80?\x00\x00\x80?\x00\x00\x80?\x00\x00\x80?\x00\x00\x80?\x00\x00\x80?\x00\x00\x80?\x00\x00\x80?\x00\x00\x80?\x00\x00\x80?\x00\x00\x80?\x00\x00\x80?\x00\x00\x80?\x00\x00\x80?\x00\x00\x80?\x00\x00\x80?\x00\x00\x80?\x00\x00\x80?\x00\x00\x80?\x00\x00\x80?\x00\x00\x80?\x00\x00\x80?\x00\x00\x80?\x00\x00\x80?\x00\x00\x80?\x00\x00\x80?\x00\x00\x80?\x00\x00\x80?\x00\x00\x80?\x00\x00\x80?\x00\x00\x80?\x00\x00\x80?\x00\x00\x80?\x00\x00\x80?\x00\x00\x80?\x00\x00\x80?\x00\x00\x80?\x00\x00\x80?\x00\x00\x80?\x00\x00\x80?\x00\x00\x80?\x00\x00\x80?\x00\x00\x80?\x00\x00\x80?\x00\x00\x80?\x00\x00\x80?\x00\x00\x80?\x00\x00\x80?\x00\x00\x80?\x00\x00\x80?\x00\x00\x80?\x00\x00\x80?\x00\x00\x80?\x00\x00\x80?\x00\x00\x80?\x00\x00\x80?\x00\x00\x80?\x00\x00\x80?\x00\x00\x80?\x00\x00\x80?\x00\x00\x80?\x00\x00\x80?\x00\x00\x80?\x00\x00\x80?\x00\x00\x80?\x00\x00\x80?\x00\x00\x80?\x00\x00\x80?\x00\x00\x80?\x00\x00\x80?\x00\x00\x80?\x00\x00\x80?\x00\x00\x80?\x00\x00\x80?\x00\x00\x80?'
S'\x00\x00\x00\x00\x00\x00\x00\x00\x00\x00\x00\x00\x00\x00\x00\x00\x00\x00\x00\x00\x00\x00\x00\x00\x00\x00\x00\x00\x00\x00\x00\x00\x00\x00\x00\x00\x00\x00\x00\x00\x00\x00\x00\x00\x00\x00\x00\x00\x00\x00\x00\x00\x00\x00\x00\x00\x00\x00\x00\x00\x00\x00\x00\x00\x00\x00\x00\x00\x00\x00\x00\x00\x00\x00\x00\x00\x00\x00\x00\x00\x00\x00\x00\x00\x00\x00\x00\x00\x00\x00\x00\x00\x00\x00\x00\x00\x00\x00\x00\x00\x00\x00\x00\x00\x00\x00\x00\x00\x00\x00\x00\x00\x00\x00\x00\x00\x00\x00\x00\x00\x00\x00\x00\x00\x00\x00\x00\x00\x00\x00\x00\x00\x00\x00\x00\x00\x00\x00\x00\x00\x00\x00\x00\x00\x00\x00\x00\x00\x00\x00\x00\x00\x00\x00\x00\x00\x00\x00\x00\x00\x00\x00\x00\x00\x00\x00\x00\x00\x00\x00\x00\x00\x00\x00\x00\x00\x00\x00\x00\x00\x00\x00\x00\x00\x00\x00\x00\x00\x00\x00\x00\x00\x00\x00\x00\x00\x00\x00\x00\x00\x00\x00\x00\x00\x00\x00\x00\x00\x00\x00\x00\x00\x00\x00\x00\x00\x00\x00\x00\x00\x00\x00\x00\x00\x00\x00\x00\x00\x00\x00\x00\x00\x00\x00\x00\x00\x00\x00\x00\x00\x00\x00\x00\x00\x00\x00\x00\x00\x00\x00\x00\x00\x00\x00\x00\x00\x00\x00\x00\x00\x00\x00\x00\x00\x00\x00\x00\x00\x00\x00\x00\x00\x00\x00\x00\x00\x00\x00\x00\x00\x00\x00\x00\x00\x00\x00\x00\x00\x00\x00\x00\x00\x00\x00\x00\x00\x00\x00\x00\x00\x00\x00\x00\x00\x00\x00\x00\x00\x00\x00\x00\x00\x00\x00\x00\x00\x00\x00\x00\x00\x00\x00\x00\x00\x00\x00\x00\x00\x00\x00\x00\x00\x00\x00\x00\x00\x00\x00\x00\x00\x00\x00\x00\x00\x00\x00\x00\x00\x00\x00\x00\x00\x00\x00\x00\x00\x00\x00\x00\x00\x00\x00\x00\x00\x00\x00\x00\x00\x00\x00\x00\x00\x00\x00\x00\x00\x00\x00\x00\x00\x00\x00\x00\x00\x00\x00\x00\x00\x00\x00\x00\x00\x00\x00\x00\x00\x00\x00\x00\x00\x00\x00\x00\x00\x00\x00\x00\x00\x00\x00\x00\x00\x00\x00\x00\x00\x00\x00\x00\x00\x00\x00\x00\x00\x00\x00\x00\x00\x00\x00\x00\x00\x00\x00\x00\x00\x00\x00\x00\x00\x00\x00\x00\x00\x00\x00\x00\x00\x00\x00\x00\x00\x00\x00\x00\x00\x00\x00\x00\x00\x00\x00\x00\x00\x00\x00\x00\x00\x00\x00\x00\x00\x00\x00\x00\x00\x00\x00\x00\x00\x00\x00\x00\x00\x00\x00\x00\x00\x00\x00\x00\x00\x00\x00\x00\x00\x00\x00\x00\x00\x00\x00\x00\x00\x00\x00\x00\x00\x00\x00\x00\x00\x00\x00\x00\x00\x00\x00\x00\x00\x00\x00\x00\x00\x00\x00\x00\x00\x00\x00\x00\x00\x00\x00\x00\x00\x00\x00\x00\x00\x00\x00\x00\x00\x00\x00\x00\x00\x00\x00\x00\x00\x00\x00\x00\x00\x00\x00\x00\x00\x00\x00\x00\x00\x00\x00\x00\x00\x00\x00\x00\x00\x00\x00\x00\x00\x00\x00\x00\x00\x00\x00\x00\x00\x00\x00\x00\x00\x00\x00\x00\x00\x00\x00\x00\x00\x00\x00\x00\x00'
NtbsS'order'
p55
g48
(g49
g50
g51
S'b'
tRp56
(I1
(I15
I40
tg54
I00
S'\x00\x000B\x00\x00\xaaB\x00\x00\xf6B\x00\x00\nC\x00\x00\x16C\x00\x00\x1fC\x00\x00DC\x00\x00LC\x00\x00`C\x00\x80\x83C\x00\x80\x8bC\x00\x00\x8eC\x00\x80\x9bC\x00\x00\xa4C\x00\x00\xa8C\x00\x80\xaeC\x00\x80\xb4C\x00\x00\xb5C\x00\x80\xbaC\x00\x00\xbbC\x00\x80\xbbC\x00\x00\xbcC\x00\x00\xcbC\x00\x00\xd1C\x00\x00\xd5C\x00\x80\xe5C\x00\x00\xe7C\x00\x00\xebC\x00\x00\xf0C\x00\x80\xf4C\x00\x80\xf6C\x00\x80\x01D\x00@\x02D\x00\xc0\x03D\x00\x80\x05D\x00\x00\x06D\x00\x80\x0fD\x00\x80\x10D\x00\x00\x15D\x00\x80\x15D\x00\x00\xc0@\x00\x00\xb8A\x00\x00HB\x00\x00LB\x00\x00\x80B\x00\x00\xccB\x00\x00\x19C\x00\x00\x1aC\x00\x00\x1eC\x00\x00,C\x00\x00/C\x00\x00UC\x00\x00WC\x00\x00YC\x00\x00]C\x00\x00aC\x00\x00zC\x00\x00\x93C\x00\x00\x94C\x00\x80\x97C\x00\x80\x99C\x00\x00\x9eC\x00\x00\x9fC\x00\x00\xa7C\x00\x00\xb0C\x00\x80\xb7C\x00\x00\xc7C\x00\x80\xcdC\x00\x80\xd4C\x00\x80\xdbC\x00\x00\xddC\x00\x80\xe6C\x00\x00\xedC\x00\x80\xf1C\x00\x00\xffC\x00\xc0\x05D\x00\xc0\tD\x00\x80\x0eD\x00\x80\x13D\x00\xc0\x15D\x00\x00\x00\x00\x00\x00`A\x00\x00\xf8A\x00\x00\x9aB\x00\x00\xbaB\x00\x00\xdeB\x00\x00\xf8B\x00\x00\x04C\x00\x00\x07C\x00\x00\x0bC\x00\x00\rC\x00\x00\x14C\x00\x006C\x00\x00?C\x00\x00AC\x00\x00OC\x00\x00PC\x00\x00_C\x00\x00pC\x00\x80\x82C\x00\x80\x8cC\x00\x00\x92C\x00\x00\x99C\x00\x80\x9aC\x00\x00\x9bC\x00\x80\x9dC\x00\x80\x9eC\x00\x00\xaaC\x00\x00\xafC\x00\x00\xbeC\x00\x00\xdbC\x00\x80\xddC\x00\x00\xdfC\x00\x00\xe3C\x00\x00\xecC\x00\x00\xf8C\x00\x80\xfdC\x00\xc0\x01D\x00\x00\x11D\x00@\x12D\x00\x00@A\x00\x00 B\x00\x00TB\x00\x00\x92B\x00\x00\xa0B\x00\x00\xe4B\x00\x00\xeaB\x00\x00\xf2B\x00\x00\x06C\x00\x00\x10C\x00\x00%C\x00\x00&C\x00\x000C\x00\x00JC\x00\x00[C\x00\x00\x80C\x00\x80\x81C\x00\x80\x8aC\x00\x00\x91C\x00\x00\x96C\x00\x00\x9dC\x00\x80\xa1C\x00\x00\xa5C\x00\x00\xacC\x00\x00\xb7C\x00\x80\xbcC\x00\x80\xc8C\x00\x00\xd2C\x00\x00\xd7C\x00\x80\xd9C\x00\x80\xe2C\x00\x00\xe9C\x00\x80\xf2C\x00\x00\xf5C\x00\x80\xf7C\x00\x00\xf9C\x00\x00\xfdC\x00\x80\x07D\x00\x80\rD\x00\x80\x11D\x00\x00\xa0@\x00\x00\xf0A\x00\x00\x08B\x00\x004B\x00\x00pB\x00\x00tB\x00\x00\x9eB\x00\x00\xa2B\x00\x00\xb8B\x00\x00\xc4B\x00\x00\xd4B\x00\x00\x0eC\x00\x00\x11C\x00\x00\'C\x00\x001C\x00\x00MC\x00\x00QC\x00\x00hC\x00\x00~C\x00\x00\x86C\x00\x00\x8dC\x00\x80\x90C\x00\x80\xa3C\x00\x00\xaeC\x00\x00\xb3C\x00\x00\xc0C\x00\x00\xc5C\x00\x00\xcfC\x00\x80\xd2C\x00\x80\xd8C\x00\x00\xd9C\x00\x00\xdaC\x00\x00\xdcC\x00\x80\xe9C\x00\x80\xf3C\x00\x00\xfcC\x00\xc0\x06D\x00\x00\tD\x00@\tD\x00@\x15D\x00\x00\xe0@\x00\x00\x10A\x00\x00\x0cB\x00\x00\x10B\x00\x00\x8cB\x00\x00\xaeB\x00\x00\xd2B\x00\x00\xecB\x00\x00\x1cC\x00\x00"C\x00\x003C\x00\x004C\x00\x007C\x00\x008C\x00\x00>C\x00\x00FC\x00\x00lC\x00\x00\x84C\x00\x80\x86C\x00\x80\x98C\x00\x80\xb1C\x00\x00\xb2C\x00\x80\xc3C\x00\x80\xc9C\x00\x80\xcaC\x00\x00\xccC\x00\x80\xe0C\x00\x80\xe1C\x00\x80\xefC\x00\x80\xfbC\x00@\x01D\x00\xc0\x02D\x00\x80\x04D\x00\x80\tD\x00@\rD\x00\x00\x0eD\x00\xc0\x10D\x00\x00\x12D\x00\x00\x13D\x00\xc0\x14D\x00\x00\x80A\x00\x00\xd8A\x00\x00\x14B\x00\x00$B\x00\x00PB\x00\x00xB\x00\x00\x84B\x00\x00\x88B\x00\x00\xacB\x00\x00\xc2B\x00\x00\xceB\x00\x00\xd6B\x00\x00\xe6B\x00\x00\x03C\x00\x00\x17C\x00\x00\x1dC\x00\x005C\x00\x00=C\x00\x00NC\x00\x00SC\x00\x00kC\x00\x00rC\x00\x00|C\x00\x80\x96C\x00\x80\x9fC\x00\x00\xa3C\x00\x80\xa7C\x00\x80\xb0C\x00\x80\xb3C\x00\x80\xb8C\x00\x00\xe4C\x00\x80\xfaC\x00\x00\xfeC\x00\x80\xfeC\x00@\x00D\x00@\x08D\x00@\nD\x00\x80\nD\x00@\x13D\x00\xc0\x13D\x00\x000A\x00\x00\x18B\x00\x008B\x00\x00\x82B\x00\x00\x96B\x00\x00\x98B\x00\x00\xb2B\x00\x00\xbeB\x00\x00\xc0B\x00\x00\xc8B\x00\x00\xdcB\x00\x00\xfeB\x00\x00\x05C\x00\x00$C\x00\x00@C\x00\x00GC\x00\x00XC\x00\x00\\C\x00\x00dC\x00\x00xC\x00\x80\x85C\x00\x80\x9cC\x00\x80\xa4C\x00\x00\xb8C\x00\x00\xc1C\x00\x00\xc9C\x00\x00\xd0C\x00\x80\xd6C\x00\x00\xdeC\x00\x00\xe1C\x00\x80\xe3C\x00\x80\xe4C\x00\x00\xeeC\x00\x80\xeeC\x00\x80\x00D\x00\x80\x02D\x00\xc0\x08D\x00\x00\x0bD\x00\x00\rD\x00\x00\x14D\x00\x00\x00A\x00\x00pA\x00\x00\x90A\x00\x00\xe8A\x00\x00\x00B\x00\x00hB\x00\x00\x90B\x00\x00\x9cB\x00\x00\xa6B\x00\x00\xbcB\x00\x00\x08C\x00\x00!C\x00\x00#C\x00\x00+C\x00\x00HC\x00\x00IC\x00\x00RC\x00\x00VC\x00\x00qC\x00\x00tC\x00\x80\x80C\x00\x00\x85C\x00\x00\x87C\x00\x00\x88C\x00\x00\xa2C\x00\x80\xabC\x00\x00\xc6C\x00\x00\xc8C\x00\x80\xcbC\x00\x00\xceC\x00\x00\xd6C\x00\x80\xe8C\x00\x00\xf1C\x00\x00\xf2C\x00\x80\xf9C\x00\x80\xfcC\x00\x80\xffC\x00\x80\x08D\x00\x00\x0cD\x00\x80\x0cD\x00\x00\x88A\x00\x00(B\x00\x00@B\x00\x00\xc6B\x00\x00\xd8B\x00\x00\xe2B\x00\x00\x0fC\x00\x00(C\x00\x00EC\x00\x00^C\x00\x00vC\x00\x00\x81C\x00\x80\x87C\x00\x80\x91C\x00\x80\x92C\x00\x00\xa1C\x00\x80\xa5C\x00\x00\xadC\x00\x00\xb1C\x00\x80\xbdC\x00\x00\xc2C\x00\x00\xc3C\x00\x80\xceC\x00\x80\xd0C\x00\x00\xd4C\x00\x80\xd5C\x00\x80\xdcC\x00\x80\xdeC\x00\x00\xe0C\x00\x80\xe7C\x00\x00\xf3C\x00\x80\x03D\x00\x00\x04D\x00\x00\x05D\x00@\x06D\x00\x80\x06D\x00\x80\x0bD\x00\xc0\x0cD\x00@\x11D\x00\xc0\x11D\x00\x00\x00@\x00\x00\x80@\x00\x00\x98A\x00\x00\xb0A\x00\x00\xc0A\x00\x00\x1cB\x00\x00DB\x00\x00XB\x00\x00`B\x00\x00\x86B\x00\x00\xb0B\x00\x00\xe0B\x00\x00\xfcB\x00\x00\x01C\x00\x00\x02C\x00\x00*C\x00\x00<C\x00\x00BC\x00\x00gC\x00\x00nC\x00\x00\x8bC\x00\x00\x97C\x00\x00\x98C\x00\x80\xa2C\x00\x00\xa6C\x00\x80\xb2C\x00\x80\xc1C\x00\x80\xd3C\x00\x00\xd8C\x00\x80\xdaC\x00\x00\xeaC\x00\x80\xedC\x00\x00\xf6C\x00\x00\xf7C\x00@\x04D\x00\xc0\x07D\x00\x00\nD\x00\xc0\rD\x00\xc0\x0fD\x00\x80\x12D\x00\x00PA\x00\x00\xa0A\x00\x00\xc8A\x00\x00\x94B\x00\x00\xb6B\x00\x00\xcaB\x00\x00\xf0B\x00\x00\tC\x00\x00\x13C\x00\x00\x1bC\x00\x00.C\x00\x002C\x00\x00CC\x00\x00bC\x00\x80\x8dC\x00\x80\x8eC\x00\x80\x93C\x00\x80\x94C\x00\x00\x9aC\x00\x00\xa0C\x00\x00\xa9C\x00\x80\xaaC\x00\x00\xabC\x00\x80\xb5C\x00\x00\xb9C\x00\x80\xbeC\x00\x00\xbfC\x00\x00\xcdC\x00\x80\xd1C\x00\x00\xd3C\x00\x00\xe8C\x00\x80\xeaC\x00\x80\xecC\x00\x00\xfaC\x00\x00\x02D\x00\x00\x07D\x00@\x0bD\x00\xc0\x0bD\x00@\x0cD\x00\xc0\x12D\x00\x00\x80?\x00\x00 A\x00\x00\xe0A\x00\x00\x04B\x00\x00\xf4B\x00\x00\x00C\x00\x00\x15C\x00\x00\x18C\x00\x00 C\x00\x00KC\x00\x00cC\x00\x00jC\x00\x00mC\x00\x00}C\x00\x80\x84C\x00\x00\x89C\x00\x00\x8fC\x00\x80\x95C\x00\x00\x9cC\x00\x80\xa6C\x00\x80\xacC\x00\x80\xadC\x00\x00\xb4C\x00\x00\xbaC\x00\x80\xbfC\x00\x80\xc2C\x00\x80\xc4C\x00\x80\xc6C\x00\x80\xc7C\x00\x00\xcaC\x00\x80\xdfC\x00\x00\xe5C\x00\x80\xebC\x00\x80\xf0C\x00\x00\x00D\x00\xc0\x00D\x00@\x05D\x00@\x07D\x00@\x0fD\x00\x00\x10D\x00\x00\\B\x00\x00dB\x00\x00lB\x00\x00|B\x00\x00\x8aB\x00\x00\xa4B\x00\x00\xa8B\x00\x00\xb4B\x00\x00\xd0B\x00\x00\xfaB\x00\x00\x0cC\x00\x00)C\x00\x009C\x00\x00:C\x00\x00;C\x00\x00eC\x00\x00iC\x00\x00wC\x00\x00yC\x00\x00{C\x00\x00\x82C\x00\x80\x88C\x00\x80\x89C\x00\x80\x8fC\x00\x00\x90C\x00\x80\xa0C\x00\x80\xa8C\x00\x80\xb6C\x00\x80\xb9C\x00\x00\xbdC\x00\x00\xc4C\x00\x00\xefC\x00\x00\xf4C\x00\x80\xf5C\x00\x00\x01D\x00\x00\x03D\x00\xc0\nD\x00\x00\x0fD\x00@\x14D\x00\x80\x14D\x00\x00@@\x00\x00\xa8A\x00\x00\xd0A\x00\x00,B\x00\x00<B\x00\x00\x8eB\x00\x00\xdaB\x00\x00\xe8B\x00\x00\xeeB\x00\x00\x12C\x00\x00-C\x00\x00TC\x00\x00ZC\x00\x00fC\x00\x00oC\x00\x00sC\x00\x00uC\x00\x00\x7fC\x00\x00\x83C\x00\x00\x8aC\x00\x00\x8cC\x00\x00\x95C\x00\x80\xa9C\x00\x80\xafC\x00\x00\xb6C\x00\x80\xc0C\x00\x80\xc5C\x00\x80\xccC\x00\x80\xcfC\x00\x80\xd7C\x00\x00\xe2C\x00\x00\xe6C\x00\x80\xf8C\x00\x00\xfbC\x00@\x03D\x00\xc0\x04D\x00\x00\x08D\x00@\x0eD\x00\xc0\x0eD\x00@\x10D'
S'\x00\x00\x00\x00\x00\x00\x00\x00\x00\x00\x00\x00\x00\x00\x00\x00\x00\x00\x00\x00\x00\x00\x00\x00\x00\x00\x00\x00\x00\x00\x00\x00\x00\x00\x00\x00\x00\x00\x00\x00\x00\x00\x00\x00\x00\x00\x00\x00\x00\x00\x00\x00\x00\x00\x00\x00\x00\x00\x00\x00\x00\x00\x00\x00\x00\x00\x00\x00\x00\x00\x00\x00\x00\x00\x00\x00\x00\x00\x00\x00\x00\x00\x00\x00\x00\x00\x00\x00\x00\x00\x00\x00\x00\x00\x00\x00\x00\x00\x00\x00\x00\x00\x00\x00\x00\x00\x00\x00\x00\x00\x00\x00\x00\x00\x00\x00\x00\x00\x00\x00\x00\x00\x00\x00\x00\x00\x00\x00\x00\x00\x00\x00\x00\x00\x00\x00\x00\x00\x00\x00\x00\x00\x00\x00\x00\x00\x00\x00\x00\x00\x00\x00\x00\x00\x00\x00\x00\x00\x00\x00\x00\x00\x00\x00\x00\x00\x00\x00\x00\x00\x00\x00\x00\x00\x00\x00\x00\x00\x00\x00\x00\x00\x00\x00\x00\x00\x00\x00\x00\x00\x00\x00\x00\x00\x00\x00\x00\x00\x00\x00\x00\x00\x00\x00\x00\x00\x00\x00\x00\x00\x00\x00\x00\x00\x00\x00\x00\x00\x00\x00\x00\x00\x00\x00\x00\x00\x00\x00\x00\x00\x00\x00\x00\x00\x00\x00\x00\x00\x00\x00\x00\x00\x00\x00\x00\x00\x00\x00\x00\x00\x00\x00\x00\x00\x00\x00\x00\x00\x00\x00\x00\x00\x00\x00\x00\x00\x00\x00\x00\x00\x00\x00\x00\x00\x00\x00\x00\x00\x00\x00\x00\x00\x00\x00\x00\x00\x00\x00\x00\x00\x00\x00\x00\x00\x00\x00\x00\x00\x00\x00\x00\x00\x00\x00\x00\x00\x00\x00\x00\x00\x00\x00\x00\x00\x00\x00\x00\x00\x00\x00\x00\x00\x00\x00\x00\x00\x00\x00\x00\x00\x00\x00\x00\x00\x00\x00\x00\x00\x00\x00\x00\x00\x00\x00\x00\x00\x00\x00\x00\x00\x00\x00\x00\x00\x00\x00\x00\x00\x00\x00\x00\x00\x00\x00\x00\x00\x00\x00\x00\x00\x00\x00\x00\x00\x00\x00\x00\x00\x00\x00\x00\x00\x00\x00\x00\x00\x00\x00\x00\x00\x00\x00\x00\x00\x00\x00\x00\x00\x00\x00\x00\x00\x00\x00\x00\x00\x00\x00\x00\x00\x00\x00\x00\x00\x00\x00\x00\x00\x00\x00\x00\x00\x00\x00\x00\x00\x00\x00\x00\x00\x00\x00\x00\x00\x00\x00\x00\x00\x00\x00\x00\x00\x00\x00\x00\x00\x00\x00\x00\x00\x00\x00\x00\x00\x00\x00\x00\x00\x00\x00\x00\x00\x00\x00\x00\x00\x00\x00\x00\x00\x00\x00\x00\x00\x00\x00\x00\x00\x00\x00\x00\x00\x00\x00\x00\x00\x00\x00\x00\x00\x00\x00\x00\x00\x00\x00\x00\x00\x00\x00\x00\x00\x00\x00\x00\x00\x00\x00\x00\x00\x00\x00\x00\x00\x00\x00\x00\x00\x00\x00\x00\x00\x00\x00\x00\x00\x00\x00\x00\x00\x00\x00\x00\x00\x00\x00\x00\x00\x00\x00\x00\x00\x00\x00\x00\x00\x00\x00\x00\x00\x00\x00\x00\x00\x00\x00\x00\x00\x00\x00\x00\x00\x00\x00\x00\x00\x00\x00\x00\x00\x00\x00\x00\x00\x00\x00\x00\x00\x00\x00\x00\x00\x00\x00\x00\x00\x00\x00\x00\x00\x00\x00\x00\x00\x00\x00\x00\x00\x00\x00'
NtbstRp57
(dp58
S'isNumeric'
p59
(dp60
g47
I01
sg55
I01
ssS'trials'
p61
g36
sS'dataTypes'
p62
(lp63
g47
ag55
asS'dataShape'
p64
(lp65
I15
aI40
asbsS'method'
p66
S'fullRandom'
p67
sS'sequenceIndices'
p68
cnumpy.core.multiarray
_reconstruct
p69
(g50
(I0
tS'b'
tRp70
(I1
(I15
I40
tg53
(S'O4'
I0
I1
tRp71
(I3
S'|'
NNNI-1
I-1
I63
tbI00
(lp72
I2
aI8
aI4
aI4
aI4
aI7
aI13
aI5
aI11
aI2
aI0
aI3
aI5
aI11
aI8
aI1
aI2
aI14
aI8
aI11
aI3
aI2
aI3
aI12
aI12
aI0
aI9
aI5
aI3
aI3
aI7
aI8
aI0
aI3
aI1
aI14
aI11
aI13
aI1
aI2
aI12
aI6
aI2
aI7
aI4
aI7
aI11
aI4
aI3
aI8
aI6
aI3
aI6
aI0
aI6
aI11
aI8
aI3
aI9
aI12
aI6
aI1
aI9
aI9
aI0
aI0
aI5
aI0
aI4
aI4
aI5
aI3
aI12
aI2
aI8
aI9
aI12
aI7
aI14
aI10
aI10
aI9
aI8
aI14
aI6
aI2
aI4
aI6
aI12
aI11
aI12
aI4
aI2
aI9
aI14
aI12
aI6
aI8
aI8
aI13
aI10
aI2
aI10
aI12
aI0
aI3
aI13
aI8
aI11
aI10
aI14
aI4
aI8
aI14
aI12
aI0
aI3
aI11
aI13
aI11
aI14
aI8
aI12
aI9
aI13
aI8
aI2
aI9
aI0
aI0
aI1
aI9
aI5
aI5
aI1
aI7
aI14
aI9
aI13
aI13
aI1
aI1
aI12
aI4
aI11
aI13
aI12
aI5
aI10
aI2
aI3
aI10
aI1
aI3
aI6
aI9
aI10
aI9
aI12
aI5
aI10
aI10
aI4
aI10
aI1
aI4
aI8
aI14
aI2
aI2
aI1
aI13
aI5
aI7
aI8
aI13
aI8
aI3
aI12
aI4
aI10
aI6
aI1
aI0
aI14
aI9
aI4
aI14
aI9
aI1
aI2
aI11
aI8
aI8
aI7
aI10
aI14
aI11
aI0
aI6
aI4
aI11
aI5
aI1
aI7
aI3
aI7
aI7
aI13
aI13
aI11
aI10
aI13
aI8
aI1
aI14
aI14
aI13
aI13
aI3
aI5
aI11
aI6
aI2
aI13
aI2
aI14
aI11
aI1
aI4
aI7
aI0
aI3
aI11
aI12
aI5
aI6
aI8
aI10
aI1
aI1
aI14
aI5
aI1
aI6
aI4
aI7
aI2
aI10
aI2
aI5
aI8
aI13
aI8
aI7
aI10
aI9
aI2
aI14
aI9
aI2
aI13
aI0
aI14
aI3
aI11
aI8
aI1
aI0
aI9
aI6
aI12
aI9
aI6
aI13
aI14
aI8
aI11
aI12
aI6
aI5
aI10
aI6
aI6
aI10
aI13
aI6
aI10
aI7
aI4
aI6
aI1
aI13
aI3
aI1
aI4
aI13
aI14
aI3
aI2
aI1
aI9
aI13
aI1
aI1
aI11
aI12
aI8
aI9
aI1
aI7
aI2
aI4
aI14
aI5
aI9
aI7
aI8
aI14
aI7
aI8
aI1
aI7
aI3
aI6
aI8
aI4
aI9
aI12
aI9
aI1
aI14
aI10
aI12
aI14
aI13
aI7
aI0
aI10
aI9
aI11
aI3
aI11
aI6
aI7
aI12
aI1
aI9
aI8
aI2
aI12
aI11
aI13
aI5
aI0
aI12
aI4
aI9
aI0
aI13
aI5
aI10
aI10
aI10
aI13
aI13
aI9
aI3
aI10
aI3
aI0
aI11
aI6
aI0
aI3
aI12
aI13
aI5
aI0
aI1
aI2
aI8
aI14
aI9
aI6
aI4
aI12
aI4
aI7
aI7
aI0
aI1
aI0
aI4
aI2
aI0
aI4
aI7
aI5
aI13
aI12
aI11
aI3
aI13
aI5
aI0
aI7
aI6
aI10
aI4
aI12
aI1
aI5
aI4
aI7
aI6
aI1
aI12
aI14
aI11
aI2
aI10
aI2
aI5
aI11
aI14
aI8
aI14
aI3
aI9
aI14
aI10
aI3
aI8
aI11
aI1
aI5
aI5
aI2
aI5
aI7
aI14
aI6
aI10
aI14
aI6
aI11
aI14
aI6
aI14
aI8
aI3
aI2
aI6
aI1
aI5
aI13
aI8
aI2
aI1
aI0
aI6
aI11
aI5
aI13
aI7
aI3
aI7
aI14
aI2
aI1
aI7
aI13
aI3
aI0
aI0
aI1
aI3
aI9
aI0
aI3
aI6
aI9
aI13
aI8
aI5
aI1
aI3
aI2
aI11
aI5
aI4
aI7
aI2
aI9
aI12
aI6
aI7
aI4
aI11
aI12
aI4
aI11
aI10
aI12
aI10
aI7
aI9
aI10
aI12
aI0
aI7
aI10
aI2
aI7
aI9
aI10
aI10
aI3
aI4
aI11
aI12
aI14
aI8
aI3
aI10
aI6
aI5
aI7
aI2
aI8
aI11
aI2
aI2
aI2
aI10
aI12
aI4
aI11
aI14
aI7
aI0
aI8
aI4
aI0
aI9
aI5
aI0
aI4
aI9
aI9
aI13
aI0
aI6
aI5
aI9
aI6
aI5
aI9
aI0
aI2
aI8
aI0
aI13
aI11
aI7
aI13
aI14
aI3
aI12
aI7
aI5
aI10
aI4
aI0
aI14
aI4
aI5
aI0
aI12
aI3
aI7
aI3
aI6
aI0
aI12
aI12
aI11
aI4
aI5
aI11
aI5
aI10
aI6
aI13
aI4
aI6
aI14
aI5
aI1
atbsS'finished'
p73
I00
sS'nReps'
p74
I40
sS'nRemaining'
p75
I0
sS'trialList'
p76
(lp77
I0
aI1
aI2
aI3
aI4
aI5
aI6
aI7
aI8
aI9
aI10
aI11
aI12
aI13
aI14
asS'seed'
p78
NsS'thisIndex'
p79
I1
sS'thisN'
p80
I599
sS'thisTrialN'
p81
I14
sS'nTotal'
p82
I600
sS'_warnUseOfNext'
p83
I01
sbasS'saveWideText'
p84
I00
sS'thisEntry'
p85
(dp86
sS'version'
p87
S''
sS'_paramNamesSoFar'
p88
(lp89
sS'entries'
p90
(lp91
(dp92
g16
(lp93
S'd'
asS'.thisTrial'
p94
I2
sS'.thisRepN'
p95
I0
sg30
VF
sg31
g32
sS'.thisTrialN'
p96
I0
sS'.thisN'
p97
I0
sS'.thisIndex'
p98
I2
sg15
(lp99
S'k'
asg17
S'N'
sg14
I1
sa(dp100
g16
(lp101
S'k'
asg94
I12
sS'.thisRepN'
p102
I0
sg30
VF
sg31
g32
sS'.thisTrialN'
p103
I1
sS'.thisN'
p104
I1
sS'.thisIndex'
p105
I12
sg15
(lp106
S'd'
asg17
S'N'
sg14
I1
sa(dp107
g16
(lp108
S'k'
asg18
S'Y'
sS'.thisRepN'
p109
I0
sg20
S'Y'
sg31
g32
sS'.thisTrialN'
p110
I2
sS'.thisN'
p111
I2
sS'.thisIndex'
p112
I10
sg15
(lp113
S'k'
asg30
VF
sg17
S'Y'
sg14
I1
sg19
(lp114
S'space'
p115
asg94
I10
sa(dp116
g16
(lp117
S'k'
asg18
S'Y'
sS'.thisRepN'
p118
I0
sg20
S'N'
sg31
g32
sS'.thisTrialN'
p119
I3
sS'.thisN'
p120
I3
sS'.thisIndex'
p121
I14
sg15
(lp122
S'd'
asg30
VF
sg17
S'N'
sg14
I1
sg19
Nsg94
I14
sa(dp123
g16
(lp124
S'k'
asg18
S'Y'
sS'.thisRepN'
p125
I0
sg20
S'N'
sg31
g32
sS'.thisTrialN'
p126
I4
sS'.thisN'
p127
I4
sS'.thisIndex'
p128
I10
sg15
(lp129
S'd'
asg30
VF
sg17
S'N'
sg14
I1
sg19
Nsg94
I10
sa(dp130
g16
(lp131
S'd'
asg18
S'N'
sS'.thisRepN'
p132
I0
sg20
S'N'
sg31
g32
sS'.thisTrialN'
p133
I5
sS'.thisN'
p134
I5
sS'.thisIndex'
p135
I4
sg15
(lp136
S'k'
asg30
VF
sg17
S'N'
sg14
I1
sg19
(lp137
S'k'
asg94
I4
sa(dp138
g16
(lp139
S'd'
asg18
S'N'
sS'.thisRepN'
p140
I0
sg20
S'Y'
sg31
g32
sS'.thisTrialN'
p141
I6
sS'.thisN'
p142
I6
sS'.thisIndex'
p143
I1
sg15
(lp144
S'd'
asg30
VF
sg17
S'Y'
sg14
I1
sg19
Nsg94
I1
sa(dp145
g16
(lp146
S'k'
asg18
S'N'
sS'.thisRepN'
p147
I0
sg20
S'Y'
sg31
g32
sS'.thisTrialN'
p148
I7
sS'.thisN'
p149
I7
sS'.thisIndex'
p150
I5
sg15
(lp151
S'd'
asg30
VF
sg17
S'N'
sg14
I1
sg19
Nsg94
I5
sa(dp152
g16
(lp153
S'k'
asg18
S'Y'
sS'.thisRepN'
p154
I0
sg20
S'N'
sg31
g32
sS'.thisTrialN'
p155
I8
sS'.thisN'
p156
I8
sS'.thisIndex'
p157
I8
sg15
(lp158
S'k'
asg30
VF
sg17
S'Y'
sg14
I1
sg19
Nsg94
I8
sa(dp159
g16
(lp160
S'd'
asg18
S'N'
sS'.thisRepN'
p161
I0
sg20
S'Y'
sg31
g32
sS'.thisTrialN'
p162
I9
sS'.thisN'
p163
I9
sS'.thisIndex'
p164
I5
sg15
(lp165
S'd'
asg30
VF
sg17
S'Y'
sg14
I1
sg19
Nsg94
I5
sa(dp166
g16
(lp167
S'd'
asg18
S'Y'
sS'.thisRepN'
p168
I0
sg20
S'N'
sg31
g32
sS'.thisTrialN'
p169
I10
sS'.thisN'
p170
I10
sS'.thisIndex'
p171
I12
sg15
(lp172
S'k'
asg30
VF
sg17
S'N'
sg14
I1
sg19
Nsg94
I12
sa(dp173
g16
(lp174
S'd'
asg18
S'Y'
sS'.thisRepN'
p175
I0
sg20
S'Y'
sg31
g32
sS'.thisTrialN'
p176
I11
sS'.thisN'
p177
I11
sS'.thisIndex'
p178
I7
sg15
(lp179
S'd'
asg30
VF
sg17
S'Y'
sg14
I1
sg19
(lp180
S'space'
p181
asg94
I7
sa(dp182
g16
(lp183
S'd'
asg18
S'Y'
sS'.thisRepN'
p184
I0
sg20
S'Y'
sg31
g32
sS'.thisTrialN'
p185
I12
sS'.thisN'
p186
I12
sS'.thisIndex'
p187
I3
sg15
(lp188
S'd'
asg30
VF
sg17
S'Y'
sg14
I1
sg19
(lp189
S'space'
p190
asg94
I3
sa(dp191
g16
(lp192
S'k'
asg18
S'N'
sS'.thisRepN'
p193
I0
sg20
S'N'
sg31
g32
sS'.thisTrialN'
p194
I13
sS'.thisN'
p195
I13
sS'.thisIndex'
p196
I11
sg15
(lp197
S'k'
asg30
VF
sg17
S'Y'
sg14
I1
sg19
(lp198
S'space'
p199
asg94
I11
sa(dp200
g16
(lp201
S'd'
asg18
S'Y'
sS'.thisRepN'
p202
I0
sg20
S'Y'
sg31
g32
sS'.thisTrialN'
p203
I14
sS'.thisN'
p204
I14
sS'.thisIndex'
p205
I2
sg15
(lp206
S'k'
asg30
VF
sg17
S'N'
sg14
I1
sg19
(lp207
S'space'
p208
asg94
I2
sa(dp209
g16
(lp210
S'd'
asg18
S'N'
sS'.thisRepN'
p211
I1
sg20
S'N'
sg31
g32
sS'.thisTrialN'
p212
I0
sS'.thisN'
p213
I15
sS'.thisIndex'
p214
I8
sg15
(lp215
S'd'
asg30
VF
sg17
S'Y'
sg14
I1
sg19
(lp216
S'space'
p217
asg94
I8
sa(dp218
g16
(lp219
S'd'
asg18
S'Y'
sS'.thisRepN'
p220
I1
sg20
S'N'
sg31
g32
sS'.thisTrialN'
p221
I1
sS'.thisN'
p222
I16
sS'.thisIndex'
p223
I6
sg15
(lp224
S'k'
asg30
VF
sg17
S'N'
sg14
I1
sg19
Nsg94
I6
sa(dp225
g16
(lp226
S'k'
asg18
S'Y'
sS'.thisRepN'
p227
I1
sg20
S'Y'
sg31
g32
sS'.thisTrialN'
p228
I2
sS'.thisN'
p229
I17
sS'.thisIndex'
p230
I9
sg15
(lp231
S'd'
asg30
VF
sg17
S'N'
sg14
I1
sg19
(lp232
S'space'
p233
asg94
I9
sa(dp234
g16
(lp235
S'd'
asg18
S'Y'
sS'.thisRepN'
p236
I1
sg20
S'Y'
sg31
g32
sS'.thisTrialN'
p237
I3
sS'.thisN'
p238
I18
sS'.thisIndex'
p239
I8
sg15
(lp240
S'k'
asg30
VF
sg17
S'N'
sg14
I1
sg19
(lp241
S'space'
p242
asg94
I8
sa(dp243
g16
(lp244
S'd'
asg18
S'N'
sS'.thisRepN'
p245
I1
sg20
S'N'
sg31
g32
sS'.thisTrialN'
p246
I4
sS'.thisN'
p247
I19
sS'.thisIndex'
p248
I10
sg15
(lp249
S'd'
asg30
VF
sg17
S'Y'
sg14
I1
sg19
(lp250
S'space'
p251
asg94
I10
sa(dp252
g16
(lp253
S'd'
asg18
S'Y'
sS'.thisRepN'
p254
I1
sg20
S'Y'
sg31
g32
sS'.thisTrialN'
p255
I5
sS'.thisN'
p256
I20
sS'.thisIndex'
p257
I11
sg15
(lp258
S'd'
asg30
VF
sg17
S'Y'
sg14
I1
sg19
(lp259
S'space'
p260
asg94
I11
sa(dp261
g16
(lp262
S'k'
asg18
S'Y'
sS'.thisRepN'
p263
I1
sg20
S'Y'
sg31
g32
sS'.thisTrialN'
p264
I6
sS'.thisN'
p265
I21
sS'.thisIndex'
p266
I14
sg15
(lp267
S'k'
asg30
VF
sg17
S'Y'
sg14
I1
sg19
(lp268
S'space'
p269
asg94
I14
sa(dp270
g16
(lp271
S'k'
asg18
S'N'
sS'.thisRepN'
p272
I1
sg20
S'N'
sg31
g32
sS'.thisTrialN'
p273
I7
sS'.thisN'
p274
I22
sS'.thisIndex'
p275
I10
sg15
(lp276
S'k'
asg30
VF
sg17
S'Y'
sg14
I1
sg19
(lp277
S'space'
p278
asg94
I10
sa(dp279
g16
(lp280
S'd'
asg18
S'Y'
sS'.thisRepN'
p281
I1
sg20
S'Y'
sg31
g32
sS'.thisTrialN'
p282
I8
sS'.thisN'
p283
I23
sS'.thisIndex'
p284
I1
sg15
(lp285
S'd'
asg30
VF
sg17
S'Y'
sg14
I1
sg19
(lp286
S'space'
p287
asg94
I1
sa(dp288
g16
(lp289
S'k'
asg18
S'N'
sS'.thisRepN'
p290
I1
sg20
S'Y'
sg31
g32
sS'.thisTrialN'
p291
I9
sS'.thisN'
p292
I24
sS'.thisIndex'
p293
I10
sg15
(lp294
S'k'
asg30
VF
sg17
S'Y'
sg14
I1
sg19
Nsg94
I10
sa(dp295
g16
(lp296
S'd'
asg18
S'N'
sS'.thisRepN'
p297
I1
sg20
S'Y'
sg31
g32
sS'.thisTrialN'
p298
I10
sS'.thisN'
p299
I25
sS'.thisIndex'
p300
I11
sg15
(lp301
S'k'
asg30
VF
sg17
S'N'
sg14
I1
sg19
Nsg94
I11
sa(dp302
g16
(lp303
S'd'
asg18
S'N'
sS'.thisRepN'
p304
I1
sg20
S'N'
sg31
g32
sS'.thisTrialN'
p305
I11
sS'.thisN'
p306
I26
sS'.thisIndex'
p307
I14
sg15
(lp308
S'k'
asg30
VF
sg17
S'N'
sg14
I1
sg19
(lp309
S'k'
asg94
I14
sa(dp310
g16
(lp311
S'd'
asg18
S'N'
sS'.thisRepN'
p312
I1
sg20
S'N'
sg31
g32
sS'.thisTrialN'
p313
I12
sS'.thisN'
p314
I27
sS'.thisIndex'
p315
I6
sg15
(lp316
S'k'
asg30
VF
sg17
S'N'
sg14
I1
sg19
(lp317
S'space'
p318
asg94
I6
sa(dp319
g16
(lp320
S'k'
asg18
S'Y'
sS'.thisRepN'
p321
I1
sg20
S'Y'
sg31
g32
sS'.thisTrialN'
p322
I13
sS'.thisN'
p323
I28
sS'.thisIndex'
p324
I12
sg15
(lp325
S'd'
asg30
VF
sg17
S'N'
sg14
I1
sg19
(lp326
S'space'
p327
asg94
I12
sa(dp328
g16
(lp329
S'k'
asg18
S'Y'
sS'.thisRepN'
p330
I1
sg20
S'Y'
sg31
g32
sS'.thisTrialN'
p331
I14
sS'.thisN'
p332
I29
sS'.thisIndex'
p333
I8
sg15
(lp334
S'd'
asg30
VF
sg17
S'N'
sg14
I1
sg19
(lp335
S'space'
p336
asg94
I8
sa(dp337
g16
(lp338
S'k'
asg18
S'N'
sS'.thisRepN'
p339
I2
sg20
S'N'
sg31
g32
sS'.thisTrialN'
p340
I0
sS'.thisN'
p341
I30
sS'.thisIndex'
p342
I4
sg15
(lp343
S'd'
asg30
VF
sg17
S'N'
sg14
I1
sg19
(lp344
S'space'
p345
asg94
I4
sa(dp346
g16
(lp347
S'k'
asg18
S'N'
sS'.thisRepN'
p348
I2
sg20
S'N'
sg31
g32
sS'.thisTrialN'
p349
I1
sS'.thisN'
p350
I31
sS'.thisIndex'
p351
I2
sg15
(lp352
S'k'
asg30
VF
sg17
S'Y'
sg14
I1
sg19
(lp353
S'space'
p354
asg94
I2
sa(dp355
g16
(lp356
S'd'
asg18
S'Y'
sS'.thisRepN'
p357
I2
sg20
S'Y'
sg31
g32
sS'.thisTrialN'
p358
I2
sS'.thisN'
p359
I32
sS'.thisIndex'
p360
I8
sg15
(lp361
S'k'
asg30
VF
sg17
S'N'
sg14
I1
sg19
(lp362
S'space'
p363
asg94
I8
sa(dp364
g16
(lp365
S'd'
asg18
S'N'
sS'.thisRepN'
p366
I2
sg20
S'N'
sg31
g32
sS'.thisTrialN'
p367
I3
sS'.thisN'
p368
I33
sS'.thisIndex'
p369
I12
sg15
(lp370
S'd'
asg30
VF
sg17
S'Y'
sg14
I1
sg19
(lp371
S'space'
p372
asg94
I12
sa(dp373
g16
(lp374
S'k'
asg18
S'Y'
sS'.thisRepN'
p375
I2
sg20
S'Y'
sg31
g32
sS'.thisTrialN'
p376
I4
sS'.thisN'
p377
I34
sS'.thisIndex'
p378
I4
sg15
(lp379
S'd'
asg30
VF
sg17
S'N'
sg14
I1
sg19
(lp380
S'space'
p381
asg94
I4
sa(dp382
g16
(lp383
S'd'
asg18
S'N'
sS'.thisRepN'
p384
I2
sg20
S'N'
sg31
g32
sS'.thisTrialN'
p385
I5
sS'.thisN'
p386
I35
sS'.thisIndex'
p387
I5
sg15
(lp388
S'k'
asg30
VF
sg17
S'N'
sg14
I1
sg19
(lp389
S'space'
p390
asg94
I5
sa(dp391
g16
(lp392
S'k'
asg18
S'N'
sS'.thisRepN'
p393
I2
sg20
S'N'
sg31
g32
sS'.thisTrialN'
p394
I6
sS'.thisN'
p395
I36
sS'.thisIndex'
p396
I5
sg15
(lp397
S'd'
asg30
VF
sg17
S'N'
sg14
I1
sg19
(lp398
S'space'
p399
asg94
I5
sa(dp400
g16
(lp401
S'd'
asg18
S'Y'
sS'.thisRepN'
p402
I2
sg20
S'N'
sg31
g32
sS'.thisTrialN'
p403
I7
sS'.thisN'
p404
I37
sS'.thisIndex'
p405
I6
sg15
(lp406
S'k'
asg30
VF
sg17
S'N'
sg14
I1
sg19
Nsg94
I6
sa(dp407
g16
(lp408
S'k'
asg18
S'Y'
sS'.thisRepN'
p409
I2
sg20
S'Y'
sg31
g32
sS'.thisTrialN'
p410
I8
sS'.thisN'
p411
I38
sS'.thisIndex'
p412
I7
sg15
(lp413
S'k'
asg30
VF
sg17
S'Y'
sg14
I1
sg19
(lp414
S'space'
p415
asg94
I7
sa(dp416
g16
(lp417
S'd'
asg18
S'Y'
sS'.thisRepN'
p418
I2
sg20
S'Y'
sg31
g32
sS'.thisTrialN'
p419
I9
sS'.thisN'
p420
I39
sS'.thisIndex'
p421
I10
sg15
(lp422
S'd'
asg30
VF
sg17
S'Y'
sg14
I1
sg19
(lp423
S'space'
p424
asg94
I10
sa(dp425
g16
(lp426
S'k'
asg18
S'N'
sS'.thisRepN'
p427
I2
sg20
S'N'
sg31
g32
sS'.thisTrialN'
p428
I10
sS'.thisN'
p429
I40
sS'.thisIndex'
p430
I3
sg15
(lp431
S'k'
asg30
VF
sg17
S'Y'
sg14
I1
sg19
(lp432
S'space'
p433
asg94
I3
sa(dp434
g16
(lp435
S'k'
asg18
S'Y'
sS'.thisRepN'
p436
I2
sg20
S'Y'
sg31
g32
sS'.thisTrialN'
p437
I11
sS'.thisN'
p438
I41
sS'.thisIndex'
p439
I6
sg15
(lp440
S'k'
asg30
VF
sg17
S'Y'
sg14
I1
sg19
(lp441
S'space'
p442
asg94
I6
sa(dp443
g16
(lp444
S'k'
asg18
S'N'
sS'.thisRepN'
p445
I2
sg20
S'N'
sg31
g32
sS'.thisTrialN'
p446
I12
sS'.thisN'
p447
I42
sS'.thisIndex'
p448
I9
sg15
(lp449
S'd'
asg30
VF
sg17
S'N'
sg14
I1
sg19
(lp450
S'space'
p451
asg94
I9
sa(dp452
g16
(lp453
S'k'
asg18
S'Y'
sS'.thisRepN'
p454
I2
sg20
S'N'
sg31
g32
sS'.thisTrialN'
p455
I13
sS'.thisN'
p456
I43
sS'.thisIndex'
p457
I14
sg15
(lp458
S'k'
asg30
VF
sg17
S'Y'
sg14
I1
sg19
Nsg94
I14
sa(dp459
g16
(lp460
S'k'
asg18
S'N'
sS'.thisRepN'
p461
I2
sg20
S'Y'
sg31
g32
sS'.thisTrialN'
p462
I14
sS'.thisN'
p463
I44
sS'.thisIndex'
p464
I0
sg15
(lp465
S'd'
asg30
VF
sg17
S'N'
sg14
I1
sg19
Nsg94
I0
sa(dp466
g16
(lp467
S'k'
asg18
S'Y'
sS'.thisRepN'
p468
I3
sg20
S'N'
sg31
g32
sS'.thisTrialN'
p469
I0
sS'.thisN'
p470
I45
sS'.thisIndex'
p471
I4
sg15
(lp472
S'd'
asg30
VF
sg17
S'N'
sg14
I1
sg19
Nsg94
I4
sa(dp473
g16
(lp474
S'k'
asg18
S'Y'
sS'.thisRepN'
p475
I3
sg20
S'Y'
sg31
g32
sS'.thisTrialN'
p476
I1
sS'.thisN'
p477
I46
sS'.thisIndex'
p478
I7
sg15
(lp479
S'k'
asg30
VF
sg17
S'Y'
sg14
I1
sg19
(lp480
S'space'
p481
asg94
I7
sa(dp482
g16
(lp483
S'k'
asg18
S'N'
sS'.thisRepN'
p484
I3
sg20
S'N'
sg31
g32
sS'.thisTrialN'
p485
I2
sS'.thisN'
p486
I47
sS'.thisIndex'
p487
I14
sg15
(lp488
S'k'
asg30
VF
sg17
S'Y'
sg14
I1
sg19
(lp489
S'space'
p490
asg94
I14
sa(dp491
g16
(lp492
S'k'
asg18
S'N'
sS'.thisRepN'
p493
I3
sg20
S'Y'
sg31
g32
sS'.thisTrialN'
p494
I3
sS'.thisN'
p495
I48
sS'.thisIndex'
p496
I9
sg15
(lp497
S'd'
asg30
VF
sg17
S'N'
sg14
I1
sg19
Nsg94
I9
sa(dp498
g16
(lp499
S'd'
asg18
S'N'
sg22
I24
sS'.thisN'
p500
I49
sg20
S'N'
sg31
g32
sS'.thisTrialN'
p501
I4
sS'.thisRepN'
p502
I3
sg21
I23
sS'.thisIndex'
p503
I10
sg23
I25
sg15
(lp504
S'k'
asg30
VF
sg17
S'N'
sg14
I1
sg19
(lp505
S'space'
p506
asg94
I10
sa(dp507
g16
(lp508
S'd'
asg94
I1
sS'.thisRepN'
p509
I3
sg30
VF
sg31
g32
sS'.thisTrialN'
p510
I5
sS'.thisN'
p511
I50
sS'.thisIndex'
p512
I1
sg15
(lp513
S'd'
asg17
S'Y'
sg14
I2
sa(dp514
g16
(lp515
S'd'
asg94
I1
sS'.thisRepN'
p516
I3
sg30
VF
sg31
g32
sS'.thisTrialN'
p517
I6
sS'.thisN'
p518
I51
sS'.thisIndex'
p519
I1
sg15
(lp520
S'k'
asg17
S'N'
sg14
I2
sa(dp521
g16
(lp522
S'k'
asg18
S'Y'
sS'.thisRepN'
p523
I3
sg20
S'Y'
sg31
g32
sS'.thisTrialN'
p524
I7
sS'.thisN'
p525
I52
sS'.thisIndex'
p526
I6
sg15
(lp527
S'd'
asg30
VF
sg17
S'N'
sg14
I2
sg19
(lp528
S'space'
p529
asg94
I6
sa(dp530
g16
(lp531
S'k'
asg18
S'N'
sS'.thisRepN'
p532
I3
sg20
S'N'
sg31
g32
sS'.thisTrialN'
p533
I8
sS'.thisN'
p534
I53
sS'.thisIndex'
p535
I3
sg15
(lp536
S'k'
asg30
VF
sg17
S'Y'
sg14
I2
sg19
(lp537
S'space'
p538
asg94
I3
sa(dp539
g16
(lp540
S'k'
asg18
S'Y'
sS'.thisRepN'
p541
I3
sg20
S'Y'
sg31
g32
sS'.thisTrialN'
p542
I9
sS'.thisN'
p543
I54
sS'.thisIndex'
p544
I10
sg15
(lp545
S'k'
asg30
VF
sg17
S'Y'
sg14
I2
sg19
(lp546
S'space'
p547
asg94
I10
sa(dp548
g16
(lp549
S'k'
asg18
S'N'
sS'.thisRepN'
p550
I3
sg20
S'Y'
sg31
g32
sS'.thisTrialN'
p551
I10
sS'.thisN'
p552
I55
sS'.thisIndex'
p553
I13
sg15
(lp554
S'd'
asg30
VF
sg17
S'N'
sg14
I2
sg19
Nsg94
I13
sa(dp555
g16
(lp556
S'k'
asg18
S'Y'
sS'.thisRepN'
p557
I3
sg20
S'Y'
sg31
g32
sS'.thisTrialN'
p558
I11
sS'.thisN'
p559
I56
sS'.thisIndex'
p560
I10
sg15
(lp561
S'k'
asg30
VF
sg17
S'Y'
sg14
I2
sg19
(lp562
S'space'
p563
asg94
I10
sa(dp564
g16
(lp565
S'k'
asg18
S'N'
sS'.thisRepN'
p566
I3
sg20
S'Y'
sg31
g32
sS'.thisTrialN'
p567
I12
sS'.thisN'
p568
I57
sS'.thisIndex'
p569
I13
sg15
(lp570
S'k'
asg30
VF
sg17
S'Y'
sg14
I2
sg19
Nsg94
I13
sa(dp571
g16
(lp572
S'd'
asg18
S'N'
sS'.thisRepN'
p573
I3
sg20
S'Y'
sg31
g32
sS'.thisTrialN'
p574
I13
sS'.thisN'
p575
I58
sS'.thisIndex'
p576
I8
sg15
(lp577
S'd'
asg30
VF
sg17
S'Y'
sg14
I2
sg19
Nsg94
I8
sa(dp578
g16
(lp579
S'k'
asg18
S'Y'
sS'.thisRepN'
p580
I3
sg20
S'Y'
sg31
g32
sS'.thisTrialN'
p581
I14
sS'.thisN'
p582
I59
sS'.thisIndex'
p583
I13
sg15
(lp584
S'k'
asg30
VF
sg17
S'Y'
sg14
I2
sg19
(lp585
S'space'
p586
asg94
I13
sa(dp587
g16
(lp588
S'd'
asg18
S'Y'
sS'.thisRepN'
p589
I4
sg20
S'Y'
sg31
g32
sS'.thisTrialN'
p590
I0
sS'.thisN'
p591
I60
sS'.thisIndex'
p592
I4
sg15
(lp593
S'k'
asg30
VF
sg17
S'N'
sg14
I2
sg19
(lp594
S'space'
p595
asg94
I4
sa(dp596
g16
(lp597
S'd'
asg18
S'N'
sS'.thisRepN'
p598
I4
sg20
S'N'
sg31
g32
sS'.thisTrialN'
p599
I1
sS'.thisN'
p600
I61
sS'.thisIndex'
p601
I4
sg15
(lp602
S'd'
asg30
VF
sg17
S'Y'
sg14
I2
sg19
(lp603
S'space'
p604
asg94
I4
sa(dp605
g16
(lp606
S'd'
asg18
S'N'
sS'.thisRepN'
p607
I4
sg20
S'Y'
sg31
g32
sS'.thisTrialN'
p608
I2
sS'.thisN'
p609
I62
sS'.thisIndex'
p610
I6
sg15
(lp611
S'k'
asg30
VF
sg17
S'N'
sg14
I2
sg19
Nsg94
I6
sa(dp612
g16
(lp613
S'k'
asg18
S'N'
sS'.thisRepN'
p614
I4
sg20
S'Y'
sg31
g32
sS'.thisTrialN'
p615
I3
sS'.thisN'
p616
I63
sS'.thisIndex'
p617
I13
sg15
(lp618
S'd'
asg30
VF
sg17
S'N'
sg14
I2
sg19
Nsg94
I13
sa(dp619
g16
(lp620
S'd'
asg18
S'Y'
sS'.thisRepN'
p621
I4
sg20
S'Y'
sg31
g32
sS'.thisTrialN'
p622
I4
sS'.thisN'
p623
I64
sS'.thisIndex'
p624
I1
sg15
(lp625
S'd'
asg30
VF
sg17
S'Y'
sg14
I2
sg19
(lp626
S'space'
p627
asg94
I1
sa(dp628
g16
(lp629
S'k'
asg18
S'Y'
sS'.thisRepN'
p630
I4
sg20
S'Y'
sg31
g32
sS'.thisTrialN'
p631
I5
sS'.thisN'
p632
I65
sS'.thisIndex'
p633
I7
sg15
(lp634
S'd'
asg30
VF
sg17
S'N'
sg14
I2
sg19
(lp635
S'space'
p636
asg94
I7
sa(dp637
g16
(lp638
S'd'
asg18
S'Y'
sS'.thisRepN'
p639
I4
sg20
S'Y'
sg31
g32
sS'.thisTrialN'
p640
I6
sS'.thisN'
p641
I66
sS'.thisIndex'
p642
I6
sg15
(lp643
S'k'
asg30
VF
sg17
S'N'
sg14
I2
sg19
(lp644
S'space'
p645
asg94
I6
sa(dp646
g16
(lp647
S'k'
asg18
S'Y'
sS'.thisRepN'
p648
I4
sg20
S'Y'
sg31
g32
sS'.thisTrialN'
p649
I7
sS'.thisN'
p650
I67
sS'.thisIndex'
p651
I10
sg15
(lp652
S'k'
asg30
VF
sg17
S'Y'
sg14
I2
sg19
(lp653
S'space'
p654
asg94
I10
sa(dp655
g16
(lp656
S'd'
asg18
S'Y'
sS'.thisRepN'
p657
I4
sg20
S'Y'
sg31
g32
sS'.thisTrialN'
p658
I8
sS'.thisN'
p659
I68
sS'.thisIndex'
p660
I6
sg15
(lp661
S'k'
asg30
VF
sg17
S'N'
sg14
I2
sg19
(lp662
S'space'
p663
asg94
I6
sa(dp664
g16
(lp665
S'k'
asg18
S'N'
sS'.thisRepN'
p666
I4
sg20
S'N'
sg31
g32
sS'.thisTrialN'
p667
I9
sS'.thisN'
p668
I69
sS'.thisIndex'
p669
I13
sg15
(lp670
S'd'
asg30
VF
sg17
S'N'
sg14
I2
sg19
(lp671
S'space'
p672
asg94
I13
sa(dp673
g16
(lp674
S'k'
asg18
S'N'
sS'.thisRepN'
p675
I4
sg20
S'N'
sg31
g32
sS'.thisTrialN'
p676
I10
sS'.thisN'
p677
I70
sS'.thisIndex'
p678
I5
sg15
(lp679
S'd'
asg30
VF
sg17
S'N'
sg14
I2
sg19
(lp680
S'space'
p681
asg94
I5
sa(dp682
g16
(lp683
S'k'
asg18
S'N'
sS'.thisRepN'
p684
I4
sg20
S'N'
sg31
g32
sS'.thisTrialN'
p685
I11
sS'.thisN'
p686
I71
sS'.thisIndex'
p687
I14
sg15
(lp688
S'd'
asg30
VF
sg17
S'N'
sg14
I2
sg19
(lp689
S'space'
p690
asg94
I14
sa(dp691
g16
(lp692
S'k'
asg18
S'Y'
sS'.thisRepN'
p693
I4
sg20
S'Y'
sg31
g32
sS'.thisTrialN'
p694
I12
sS'.thisN'
p695
I72
sS'.thisIndex'
p696
I8
sg15
(lp697
S'k'
asg30
VF
sg17
S'Y'
sg14
I2
sg19
(lp698
S'space'
p699
asg94
I8
sa(dp700
g16
(lp701
S'k'
asg18
S'N'
sS'.thisRepN'
p702
I4
sg20
S'N'
sg31
g32
sS'.thisTrialN'
p703
I13
sS'.thisN'
p704
I73
sS'.thisIndex'
p705
I3
sg15
(lp706
S'k'
asg30
VF
sg17
S'Y'
sg14
I2
sg19
(lp707
S'space'
p708
asg94
I3
sa(dp709
g16
(lp710
S'd'
asg18
S'Y'
sS'.thisRepN'
p711
I4
sg20
S'Y'
sg31
g32
sS'.thisTrialN'
p712
I14
sS'.thisN'
p713
I74
sS'.thisIndex'
p714
I11
sg15
(lp715
S'k'
asg30
VF
sg17
S'N'
sg14
I2
sg19
(lp716
S'space'
p717
asg94
I11
sa(dp718
g16
(lp719
S'd'
asg18
S'Y'
sS'.thisRepN'
p720
I5
sg20
S'Y'
sg31
g32
sS'.thisTrialN'
p721
I0
sS'.thisN'
p722
I75
sS'.thisIndex'
p723
I7
sg15
(lp724
S'd'
asg30
VF
sg17
S'Y'
sg14
I2
sg19
(lp725
S'space'
p726
asg94
I7
sa(dp727
g16
(lp728
S'd'
asg18
S'Y'
sS'.thisRepN'
p729
I5
sg20
S'Y'
sg31
g32
sS'.thisTrialN'
p730
I1
sS'.thisN'
p731
I76
sS'.thisIndex'
p732
I7
sg15
(lp733
S'k'
asg30
VF
sg17
S'N'
sg14
I2
sg19
(lp734
S'space'
p735
asg94
I7
sa(dp736
g16
(lp737
S'd'
asg18
S'N'
sS'.thisRepN'
p738
I5
sg20
S'N'
sg31
g32
sS'.thisTrialN'
p739
I2
sS'.thisN'
p740
I77
sS'.thisIndex'
p741
I2
sg15
(lp742
S'd'
asg30
VF
sg17
S'Y'
sg14
I2
sg19
(lp743
S'space'
p744
asg94
I2
sa(dp745
g16
(lp746
S'k'
asg18
S'Y'
sS'.thisRepN'
p747
I5
sg20
S'Y'
sg31
g32
sS'.thisTrialN'
p748
I3
sS'.thisN'
p749
I78
sS'.thisIndex'
p750
I8
sg15
(lp751
S'd'
asg30
VF
sg17
S'N'
sg14
I2
sg19
(lp752
S'space'
p753
asg94
I8
sa(dp754
g16
(lp755
S'k'
asg18
S'Y'
sS'.thisRepN'
p756
I5
sg20
S'Y'
sg31
g32
sS'.thisTrialN'
p757
I4
sS'.thisN'
p758
I79
sS'.thisIndex'
p759
I4
sg15
(lp760
S'k'
asg30
VF
sg17
S'Y'
sg14
I2
sg19
(lp761
S'space'
p762
asg94
I4
sa(dp763
g16
(lp764
S'd'
asg18
S'N'
sS'.thisRepN'
p765
I5
sg20
S'N'
sg31
g32
sS'.thisTrialN'
p766
I5
sS'.thisN'
p767
I80
sS'.thisIndex'
p768
I3
sg15
(lp769
S'd'
asg30
VF
sg17
S'Y'
sg14
I2
sg19
(lp770
S'space'
p771
asg94
I3
sa(dp772
g16
(lp773
S'k'
asg18
S'N'
sS'.thisRepN'
p774
I5
sg20
S'N'
sg31
g32
sS'.thisTrialN'
p775
I6
sS'.thisN'
p776
I81
sS'.thisIndex'
p777
I4
sg15
(lp778
S'k'
asg30
VF
sg17
S'Y'
sg14
I2
sg19
(lp779
S'space'
p780
asg94
I4
sa(dp781
g16
(lp782
S'k'
asg18
S'Y'
sS'.thisRepN'
p783
I5
sg20
S'Y'
sg31
g32
sS'.thisTrialN'
p784
I7
sS'.thisN'
p785
I82
sS'.thisIndex'
p786
I13
sg15
(lp787
S'd'
asg30
VF
sg17
S'N'
sg14
I2
sg19
(lp788
S'space'
p789
asg94
I13
sa(dp790
g16
(lp791
S'd'
asg18
S'N'
sS'.thisRepN'
p792
I5
sg20
S'N'
sg31
g32
sS'.thisTrialN'
p793
I8
sS'.thisN'
p794
I83
sS'.thisIndex'
p795
I8
sg15
(lp796
S'k'
asg30
VF
sg17
S'N'
sg14
I2
sg19
(lp797
S'space'
p798
asg94
I8
sa(dp799
g16
(lp800
S'd'
asg18
S'Y'
sS'.thisRepN'
p801
I5
sg20
S'N'
sg31
g32
sS'.thisTrialN'
p802
I9
sS'.thisN'
p803
I84
sS'.thisIndex'
p804
I13
sg15
(lp805
S'd'
asg30
VF
sg17
S'Y'
sg14
I2
sg19
Nsg94
I13
sa(dp806
g16
(lp807
S'd'
asg18
S'N'
sS'.thisRepN'
p808
I5
sg20
S'N'
sg31
g32
sS'.thisTrialN'
p809
I10
sS'.thisN'
p810
I85
sS'.thisIndex'
p811
I0
sg15
(lp812
S'k'
asg30
VF
sg17
S'N'
sg14
I2
sg19
(lp813
S'k'
asg94
I0
sa(dp814
g16
(lp815
S'd'
asg18
S'N'
sS'.thisRepN'
p816
I5
sg20
S'Y'
sg31
g32
sS'.thisTrialN'
p817
I11
sS'.thisN'
p818
I86
sS'.thisIndex'
p819
I6
sg15
(lp820
S'd'
asg30
VF
sg17
S'Y'
sg14
I2
sg19
Nsg94
I6
sa(dp821
g16
(lp822
S'd'
asg18
S'Y'
sS'.thisRepN'
p823
I5
sg20
S'N'
sg31
g32
sS'.thisTrialN'
p824
I12
sS'.thisN'
p825
I87
sS'.thisIndex'
p826
I5
sg15
(lp827
S'k'
asg30
VF
sg17
S'N'
sg14
I2
sg19
Nsg94
I5
sa(dp828
g16
(lp829
S'd'
asg18
S'Y'
sS'.thisRepN'
p830
I5
sg20
S'Y'
sg31
g32
sS'.thisTrialN'
p831
I13
sS'.thisN'
p832
I88
sS'.thisIndex'
p833
I10
sg15
(lp834
S'd'
asg30
VF
sg17
S'Y'
sg14
I2
sg19
(lp835
S'space'
p836
asg94
I10
sa(dp837
g16
(lp838
S'k'
asg18
S'N'
sS'.thisRepN'
p839
I5
sg20
S'Y'
sg31
g32
sS'.thisTrialN'
p840
I14
sS'.thisN'
p841
I89
sS'.thisIndex'
p842
I7
sg15
(lp843
S'd'
asg30
VF
sg17
S'N'
sg14
I2
sg19
Nsg94
I7
sa(dp844
g16
(lp845
S'k'
asg18
S'N'
sS'.thisRepN'
p846
I6
sg20
S'Y'
sg31
g32
sS'.thisTrialN'
p847
I0
sS'.thisN'
p848
I90
sS'.thisIndex'
p849
I13
sg15
(lp850
S'k'
asg30
VF
sg17
S'Y'
sg14
I2
sg19
Nsg94
I13
sa(dp851
g16
(lp852
S'k'
asg18
S'Y'
sS'.thisRepN'
p853
I6
sg20
S'N'
sg31
g32
sS'.thisTrialN'
p854
I1
sS'.thisN'
p855
I91
sS'.thisIndex'
p856
I11
sg15
(lp857
S'd'
asg30
VF
sg17
S'N'
sg14
I2
sg19
Nsg94
I11
sa(dp858
g16
(lp859
S'd'
asg18
S'Y'
sS'.thisRepN'
p860
I6
sg20
S'Y'
sg31
g32
sS'.thisTrialN'
p861
I2
sS'.thisN'
p862
I92
sS'.thisIndex'
p863
I4
sg15
(lp864
S'k'
asg30
VF
sg17
S'N'
sg14
I2
sg19
(lp865
S'space'
p866
asg94
I4
sa(dp867
g16
(lp868
S'd'
asg18
S'N'
sS'.thisRepN'
p869
I6
sg20
S'N'
sg31
g32
sS'.thisTrialN'
p870
I3
sS'.thisN'
p871
I93
sS'.thisIndex'
p872
I2
sg15
(lp873
S'd'
asg30
VF
sg17
S'Y'
sg14
I2
sg19
(lp874
S'space'
p875
asg94
I2
sa(dp876
g16
(lp877
S'k'
asg18
S'N'
sS'.thisRepN'
p878
I6
sg20
S'N'
sg31
g32
sS'.thisTrialN'
p879
I4
sS'.thisN'
p880
I94
sS'.thisIndex'
p881
I8
sg15
(lp882
S'd'
asg30
VF
sg17
S'N'
sg14
I2
sg19
(lp883
S'space'
p884
asg94
I8
sa(dp885
g16
(lp886
S'd'
asg18
S'N'
sS'.thisRepN'
p887
I6
sg20
S'Y'
sg31
g32
sS'.thisTrialN'
p888
I5
sS'.thisN'
p889
I95
sS'.thisIndex'
p890
I7
sg15
(lp891
S'k'
asg30
VF
sg17
S'N'
sg14
I2
sg19
Nsg94
I7
sa(dp892
g16
(lp893
S'k'
asg18
S'N'
sS'.thisRepN'
p894
I6
sg20
S'N'
sg31
g32
sS'.thisTrialN'
p895
I6
sS'.thisN'
p896
I96
sS'.thisIndex'
p897
I7
sg15
(lp898
S'd'
asg30
VF
sg17
S'N'
sg14
I2
sg19
(lp899
S'd'
asg94
I7
sa(dp900
g16
(lp901
S'k'
asg18
S'N'
sS'.thisRepN'
p902
I6
sg20
S'N'
sg31
g32
sS'.thisTrialN'
p903
I7
sS'.thisN'
p904
I97
sS'.thisIndex'
p905
I6
sg15
(lp906
S'k'
asg30
VF
sg17
S'Y'
sg14
I2
sg19
(lp907
S'space'
p908
asg94
I6
sa(dp909
g16
(lp910
S'd'
asg18
S'N'
sS'.thisRepN'
p911
I6
sg20
S'N'
sg31
g32
sS'.thisTrialN'
p912
I8
sS'.thisN'
p913
I98
sS'.thisIndex'
p914
I4
sg15
(lp915
S'd'
asg30
VF
sg17
S'Y'
sg14
I2
sg19
(lp916
S'space'
p917
asg94
I4
sa(dp918
g16
(lp919
S'k'
asg18
S'Y'
sg22
I29
sS'.thisN'
p920
I99
sg20
S'Y'
sg31
g32
sS'.thisTrialN'
p921
I9
sS'.thisRepN'
p922
I6
sg21
I24
sS'.thisIndex'
p923
I9
sg23
I23
sg15
(lp924
S'd'
asg30
VF
sg17
S'N'
sg14
I2
sg19
(lp925
S'space'
p926
asg94
I9
sa(dp927
g16
(lp928
S'd'
asg94
I7
sS'.thisRepN'
p929
I6
sg30
VF
sg31
g32
sS'.thisTrialN'
p930
I10
sS'.thisN'
p931
I100
sS'.thisIndex'
p932
I7
sg15
(lp933
S'k'
asg17
S'N'
sg14
I3
sa(dp934
g16
(lp935
S'k'
asg94
I11
sS'.thisRepN'
p936
I6
sg30
VF
sg31
g32
sS'.thisTrialN'
p937
I11
sS'.thisN'
p938
I101
sS'.thisIndex'
p939
I11
sg15
(lp940
S'd'
asg17
S'N'
sg14
I3
sa(dp941
g16
(lp942
S'k'
asg18
S'N'
sS'.thisRepN'
p943
I6
sg20
S'Y'
sg31
g32
sS'.thisTrialN'
p944
I12
sS'.thisN'
p945
I102
sS'.thisIndex'
p946
I1
sg15
(lp947
S'k'
asg30
VF
sg17
S'Y'
sg14
I3
sg19
Nsg94
I1
sa(dp948
g16
(lp949
S'k'
asg18
S'N'
sS'.thisRepN'
p950
I6
sg20
S'Y'
sg31
g32
sS'.thisTrialN'
p951
I13
sS'.thisN'
p952
I103
sS'.thisIndex'
p953
I6
sg15
(lp954
S'k'
asg30
VF
sg17
S'Y'
sg14
I3
sg19
Nsg94
I6
sa(dp955
g16
(lp956
S'd'
asg18
S'N'
sS'.thisRepN'
p957
I6
sg20
S'Y'
sg31
g32
sS'.thisTrialN'
p958
I14
sS'.thisN'
p959
I104
sS'.thisIndex'
p960
I13
sg15
(lp961
S'd'
asg30
VF
sg17
S'Y'
sg14
I3
sg19
Nsg94
I13
sa(dp962
g16
(lp963
S'd'
asg18
S'N'
sS'.thisRepN'
p964
I7
sg20
S'N'
sg31
g32
sS'.thisTrialN'
p965
I0
sS'.thisN'
p966
I105
sS'.thisIndex'
p967
I5
sg15
(lp968
S'k'
asg30
VF
sg17
S'N'
sg14
I3
sg19
(lp969
S'space'
p970
asg94
I5
sa(dp971
g16
(lp972
S'k'
asg18
S'N'
sS'.thisRepN'
p973
I7
sg20
S'N'
sg31
g32
sS'.thisTrialN'
p974
I1
sS'.thisN'
p975
I106
sS'.thisIndex'
p976
I4
sg15
(lp977
S'd'
asg30
VF
sg17
S'N'
sg14
I3
sg19
(lp978
S'space'
p979
asg94
I4
sa(dp980
g16
(lp981
S'k'
asg18
S'N'
sS'.thisRepN'
p982
I7
sg20
S'N'
sg31
g32
sS'.thisTrialN'
p983
I2
sS'.thisN'
p984
I107
sS'.thisIndex'
p985
I6
sg15
(lp986
S'k'
asg30
VF
sg17
S'Y'
sg14
I3
sg19
(lp987
S'space'
p988
asg94
I6
sa(dp989
g16
(lp990
S'k'
asg18
S'N'
sS'.thisRepN'
p991
I7
sg20
S'N'
sg31
g32
sS'.thisTrialN'
p992
I3
sS'.thisN'
p993
I108
sS'.thisIndex'
p994
I9
sg15
(lp995
S'k'
asg30
VF
sg17
S'Y'
sg14
I3
sg19
(lp996
S'space'
p997
asg94
I9
sa(dp998
g16
(lp999
S'd'
asg18
S'Y'
sS'.thisRepN'
p1000
I7
sg20
S'Y'
sg31
g32
sS'.thisTrialN'
p1001
I4
sS'.thisN'
p1002
I109
sS'.thisIndex'
p1003
I14
sg15
(lp1004
S'k'
asg30
VF
sg17
S'N'
sg14
I3
sg19
(lp1005
S'space'
p1006
asg94
I14
sa(dp1007
g16
(lp1008
S'k'
asg18
S'N'
sS'.thisRepN'
p1009
I7
sg20
S'N'
sg31
g32
sS'.thisTrialN'
p1010
I5
sS'.thisN'
p1011
I110
sS'.thisIndex'
p1012
I7
sg15
(lp1013
S'd'
asg30
VF
sg17
S'N'
sg14
I3
sg19
(lp1014
S'space'
p1015
asg94
I7
sa(dp1016
g16
(lp1017
S'd'
asg18
S'Y'
sS'.thisRepN'
p1018
I7
sg20
S'Y'
sg31
g32
sS'.thisTrialN'
p1019
I6
sS'.thisN'
p1020
I111
sS'.thisIndex'
p1021
I2
sg15
(lp1022
S'k'
asg30
VF
sg17
S'N'
sg14
I3
sg19
(lp1023
S'space'
p1024
asg94
I2
sa(dp1025
g16
(lp1026
S'k'
asg18
S'Y'
sS'.thisRepN'
p1027
I7
sg20
S'Y'
sg31
g32
sS'.thisTrialN'
p1028
I7
sS'.thisN'
p1029
I112
sS'.thisIndex'
p1030
I10
sg15
(lp1031
S'd'
asg30
VF
sg17
S'N'
sg14
I3
sg19
(lp1032
S'space'
p1033
asg94
I10
sa(dp1034
g16
(lp1035
S'd'
asg18
S'Y'
sS'.thisRepN'
p1036
I7
sg20
S'Y'
sg31
g32
sS'.thisTrialN'
p1037
I8
sS'.thisN'
p1038
I113
sS'.thisIndex'
p1039
I9
sg15
(lp1040
S'k'
asg30
VF
sg17
S'N'
sg14
I3
sg19
(lp1041
S'space'
p1042
asg94
I9
sa(dp1043
g16
(lp1044
S'k'
asg18
S'N'
sS'.thisRepN'
p1045
I7
sg20
S'N'
sg31
g32
sS'.thisTrialN'
p1046
I9
sS'.thisN'
p1047
I114
sS'.thisIndex'
p1048
I3
sg15
(lp1049
S'd'
asg30
VF
sg17
S'N'
sg14
I3
sg19
(lp1050
S'space'
p1051
asg94
I3
sa(dp1052
g16
(lp1053
S'd'
asg18
S'N'
sS'.thisRepN'
p1054
I7
sg20
S'N'
sg31
g32
sS'.thisTrialN'
p1055
I10
sS'.thisN'
p1056
I115
sS'.thisIndex'
p1057
I6
sg15
(lp1058
S'k'
asg30
VF
sg17
S'N'
sg14
I3
sg19
(lp1059
S'space'
p1060
asg94
I6
sa(dp1061
g16
(lp1062
S'k'
asg18
S'N'
sS'.thisRepN'
p1063
I7
sg20
S'N'
sg31
g32
sS'.thisTrialN'
p1064
I11
sS'.thisN'
p1065
I116
sS'.thisIndex'
p1066
I14
sg15
(lp1067
S'k'
asg30
VF
sg17
S'Y'
sg14
I3
sg19
(lp1068
S'space'
p1069
asg94
I14
sa(dp1070
g16
(lp1071
S'd'
asg18
S'Y'
sS'.thisRepN'
p1072
I7
sg20
S'Y'
sg31
g32
sS'.thisTrialN'
p1073
I12
sS'.thisN'
p1074
I117
sS'.thisIndex'
p1075
I3
sg15
(lp1076
S'k'
asg30
VF
sg17
S'N'
sg14
I3
sg19
(lp1077
S'space'
p1078
asg94
I3
sa(dp1079
g16
(lp1080
S'd'
asg18
S'N'
sS'.thisRepN'
p1081
I7
sg20
S'N'
sg31
g32
sS'.thisTrialN'
p1082
I13
sS'.thisN'
p1083
I118
sS'.thisIndex'
p1084
I5
sg15
(lp1085
S'k'
asg30
VF
sg17
S'N'
sg14
I3
sg19
(lp1086
S'space'
p1087
asg94
I5
sa(dp1088
g16
(lp1089
S'd'
asg18
S'Y'
sS'.thisRepN'
p1090
I7
sg20
S'Y'
sg31
g32
sS'.thisTrialN'
p1091
I14
sS'.thisN'
p1092
I119
sS'.thisIndex'
p1093
I14
sg15
(lp1094
S'k'
asg30
VF
sg17
S'N'
sg14
I3
sg19
(lp1095
S'space'
p1096
asg94
I14
sa(dp1097
g16
(lp1098
S'k'
asg18
S'N'
sS'.thisRepN'
p1099
I8
sg20
S'N'
sg31
g32
sS'.thisTrialN'
p1100
I0
sS'.thisN'
p1101
I120
sS'.thisIndex'
p1102
I11
sg15
(lp1103
S'k'
asg30
VF
sg17
S'Y'
sg14
I3
sg19
(lp1104
S'space'
p1105
asg94
I11
sa(dp1106
g16
(lp1107
S'd'
asg18
S'Y'
sS'.thisRepN'
p1108
I8
sg20
S'Y'
sg31
g32
sS'.thisTrialN'
p1109
I1
sS'.thisN'
p1110
I121
sS'.thisIndex'
p1111
I3
sg15
(lp1112
S'k'
asg30
VF
sg17
S'N'
sg14
I3
sg19
(lp1113
S'space'
p1114
asg94
I3
sa(dp1115
g16
(lp1116
S'd'
asg18
S'Y'
sS'.thisRepN'
p1117
I8
sg20
S'N'
sg31
g32
sS'.thisTrialN'
p1118
I2
sS'.thisN'
p1119
I122
sS'.thisIndex'
p1120
I12
sg15
(lp1121
S'd'
asg30
VF
sg17
S'Y'
sg14
I3
sg19
Nsg94
I12
sa(dp1122
g16
(lp1123
S'd'
asg18
S'Y'
sS'.thisRepN'
p1124
I8
sg20
S'Y'
sg31
g32
sS'.thisTrialN'
p1125
I3
sS'.thisN'
p1126
I123
sS'.thisIndex'
p1127
I0
sg15
(lp1128
S'd'
asg30
VF
sg17
S'Y'
sg14
I3
sg19
(lp1129
S'space'
p1130
asg94
I0
sa(dp1131
g16
(lp1132
S'k'
asg18
S'N'
sS'.thisRepN'
p1133
I8
sg20
S'N'
sg31
g32
sS'.thisTrialN'
p1134
I4
sS'.thisN'
p1135
I124
sS'.thisIndex'
p1136
I2
sg15
(lp1137
S'd'
asg30
VF
sg17
S'N'
sg14
I3
sg19
(lp1138
S'space'
p1139
asg94
I2
sa(dp1140
g16
(lp1141
S'k'
asg18
S'Y'
sS'.thisRepN'
p1142
I8
sg20
S'Y'
sg31
g32
sS'.thisTrialN'
p1143
I5
sS'.thisN'
p1144
I125
sS'.thisIndex'
p1145
I13
sg15
(lp1146
S'k'
asg30
VF
sg17
S'Y'
sg14
I3
sg19
(lp1147
S'space'
p1148
asg94
I13
sa(dp1149
g16
(lp1150
S'k'
asg18
S'N'
sS'.thisRepN'
p1151
I8
sg20
S'N'
sg31
g32
sS'.thisTrialN'
p1152
I6
sS'.thisN'
p1153
I126
sS'.thisIndex'
p1154
I10
sg15
(lp1155
S'd'
asg30
VF
sg17
S'N'
sg14
I3
sg19
(lp1156
S'd'
asg94
I10
sa(dp1157
g16
(lp1158
S'd'
asg18
S'Y'
sS'.thisRepN'
p1159
I8
sg20
S'N'
sg31
g32
sS'.thisTrialN'
p1160
I7
sS'.thisN'
p1161
I127
sS'.thisIndex'
p1162
I7
sg15
(lp1163
S'k'
asg30
VF
sg17
S'N'
sg14
I3
sg19
Nsg94
I7
sa(dp1164
g16
(lp1165
S'd'
asg18
S'Y'
sS'.thisRepN'
p1166
I8
sg20
S'Y'
sg31
g32
sS'.thisTrialN'
p1167
I8
sS'.thisN'
p1168
I128
sS'.thisIndex'
p1169
I12
sg15
(lp1170
S'd'
asg30
VF
sg17
S'Y'
sg14
I3
sg19
(lp1171
S'space'
p1172
asg94
I12
sa(dp1173
g16
(lp1174
S'd'
asg18
S'Y'
sS'.thisRepN'
p1175
I8
sg20
S'Y'
sg31
g32
sS'.thisTrialN'
p1176
I9
sS'.thisN'
p1177
I129
sS'.thisIndex'
p1178
I10
sg15
(lp1179
S'k'
asg30
VF
sg17
S'N'
sg14
I3
sg19
(lp1180
S'space'
p1181
asg94
I10
sa(dp1182
g16
(lp1183
S'k'
asg18
S'N'
sS'.thisRepN'
p1184
I8
sg20
S'N'
sg31
g32
sS'.thisTrialN'
p1185
I10
sS'.thisN'
p1186
I130
sS'.thisIndex'
p1187
I10
sg15
(lp1188
S'd'
asg30
VF
sg17
S'N'
sg14
I3
sg19
(lp1189
S'space'
p1190
asg94
I10
sa(dp1191
g16
(lp1192
S'd'
asg18
S'Y'
sS'.thisRepN'
p1193
I8
sg20
S'Y'
sg31
g32
sS'.thisTrialN'
p1194
I11
sS'.thisN'
p1195
I131
sS'.thisIndex'
p1196
I6
sg15
(lp1197
S'k'
asg30
VF
sg17
S'N'
sg14
I3
sg19
(lp1198
S'space'
p1199
asg94
I6
sa(dp1200
g16
(lp1201
S'k'
asg18
S'N'
sS'.thisRepN'
p1202
I8
sg20
S'N'
sg31
g32
sS'.thisTrialN'
p1203
I12
sS'.thisN'
p1204
I132
sS'.thisIndex'
p1205
I2
sg15
(lp1206
S'd'
asg30
VF
sg17
S'N'
sg14
I3
sg19
(lp1207
S'space'
p1208
asg94
I2
sa(dp1209
g16
(lp1210
S'd'
asg18
S'Y'
sS'.thisRepN'
p1211
I8
sg20
S'Y'
sg31
g32
sS'.thisTrialN'
p1212
I13
sS'.thisN'
p1213
I133
sS'.thisIndex'
p1214
I7
sg15
(lp1215
S'k'
asg30
VF
sg17
S'N'
sg14
I3
sg19
(lp1216
S'space'
p1217
asg94
I7
sa(dp1218
g16
(lp1219
S'k'
asg18
S'Y'
sS'.thisRepN'
p1220
I8
sg20
S'Y'
sg31
g32
sS'.thisTrialN'
p1221
I14
sS'.thisN'
p1222
I134
sS'.thisIndex'
p1223
I3
sg15
(lp1224
S'k'
asg30
VF
sg17
S'Y'
sg14
I3
sg19
(lp1225
S'space'
p1226
asg94
I3
sa(dp1227
g16
(lp1228
S'k'
asg18
S'N'
sS'.thisRepN'
p1229
I9
sg20
S'N'
sg31
g32
sS'.thisTrialN'
p1230
I0
sS'.thisN'
p1231
I135
sS'.thisIndex'
p1232
I2
sg15
(lp1233
S'k'
asg30
VF
sg17
S'Y'
sg14
I3
sg19
(lp1234
S'space'
p1235
asg94
I2
sa(dp1236
g16
(lp1237
S'k'
asg18
S'N'
sS'.thisRepN'
p1238
I9
sg20
S'N'
sg31
g32
sS'.thisTrialN'
p1239
I1
sS'.thisN'
p1240
I136
sS'.thisIndex'
p1241
I8
sg15
(lp1242
S'd'
asg30
VF
sg17
S'N'
sg14
I3
sg19
(lp1243
S'space'
p1244
asg94
I8
sa(dp1245
g16
(lp1246
S'k'
asg18
S'Y'
sS'.thisRepN'
p1247
I9
sg20
S'Y'
sg31
g32
sS'.thisTrialN'
p1248
I2
sS'.thisN'
p1249
I137
sS'.thisIndex'
p1250
I11
sg15
(lp1251
S'k'
asg30
VF
sg17
S'Y'
sg14
I3
sg19
(lp1252
S'space'
p1253
asg94
I11
sa(dp1254
g16
(lp1255
S'k'
asg18
S'Y'
sS'.thisRepN'
p1256
I9
sg20
S'Y'
sg31
g32
sS'.thisTrialN'
p1257
I3
sS'.thisN'
p1258
I138
sS'.thisIndex'
p1259
I0
sg15
(lp1260
S'k'
asg30
VF
sg17
S'Y'
sg14
I3
sg19
(lp1261
S'space'
p1262
asg94
I0
sa(dp1263
g16
(lp1264
S'd'
asg18
S'Y'
sS'.thisRepN'
p1265
I9
sg20
S'Y'
sg31
g32
sS'.thisTrialN'
p1266
I4
sS'.thisN'
p1267
I139
sS'.thisIndex'
p1268
I2
sg15
(lp1269
S'k'
asg30
VF
sg17
S'N'
sg14
I3
sg19
(lp1270
S'space'
p1271
asg94
I2
sa(dp1272
g16
(lp1273
S'k'
asg18
S'N'
sS'.thisRepN'
p1274
I9
sg20
S'N'
sg31
g32
sS'.thisTrialN'
p1275
I5
sS'.thisN'
p1276
I140
sS'.thisIndex'
p1277
I13
sg15
(lp1278
S'd'
asg30
VF
sg17
S'N'
sg14
I3
sg19
(lp1279
S'space'
p1280
asg94
I13
sa(dp1281
g16
(lp1282
S'd'
asg18
S'N'
sS'.thisRepN'
p1283
I9
sg20
S'N'
sg31
g32
sS'.thisTrialN'
p1284
I6
sS'.thisN'
p1285
I141
sS'.thisIndex'
p1286
I2
sg15
(lp1287
S'k'
asg30
VF
sg17
S'N'
sg14
I3
sg19
(lp1288
S'space'
p1289
asg94
I2
sa(dp1290
g16
(lp1291
S'k'
asg18
S'N'
sS'.thisRepN'
p1292
I9
sg20
S'N'
sg31
g32
sS'.thisTrialN'
p1293
I7
sS'.thisN'
p1294
I142
sS'.thisIndex'
p1295
I4
sg15
(lp1296
S'd'
asg30
VF
sg17
S'N'
sg14
I3
sg19
(lp1297
S'space'
p1298
asg94
I4
sa(dp1299
g16
(lp1300
S'k'
asg18
S'Y'
sS'.thisRepN'
p1301
I9
sg20
S'Y'
sg31
g32
sS'.thisTrialN'
p1302
I8
sS'.thisN'
p1303
I143
sS'.thisIndex'
p1304
I9
sg15
(lp1305
S'd'
asg30
VF
sg17
S'N'
sg14
I3
sg19
(lp1306
S'space'
p1307
asg94
I9
sa(dp1308
g16
(lp1309
S'k'
asg18
S'N'
sS'.thisRepN'
p1310
I9
sg20
S'N'
sg31
g32
sS'.thisTrialN'
p1311
I9
sS'.thisN'
p1312
I144
sS'.thisIndex'
p1313
I3
sg15
(lp1314
S'k'
asg30
VF
sg17
S'Y'
sg14
I3
sg19
(lp1315
S'space'
p1316
asg94
I3
sa(dp1317
g16
(lp1318
S'd'
asg18
S'N'
sS'.thisRepN'
p1319
I9
sg20
S'N'
sg31
g32
sS'.thisTrialN'
p1320
I10
sS'.thisN'
p1321
I145
sS'.thisIndex'
p1322
I4
sg15
(lp1323
S'k'
asg30
VF
sg17
S'N'
sg14
I3
sg19
(lp1324
S'space'
p1325
asg94
I4
sa(dp1326
g16
(lp1327
S'd'
asg18
S'Y'
sS'.thisRepN'
p1328
I9
sg20
S'Y'
sg31
g32
sS'.thisTrialN'
p1329
I11
sS'.thisN'
p1330
I146
sS'.thisIndex'
p1331
I14
sg15
(lp1332
S'd'
asg30
VF
sg17
S'Y'
sg14
I3
sg19
(lp1333
S'space'
p1334
asg94
I14
sa(dp1335
g16
(lp1336
S'k'
asg18
S'Y'
sS'.thisRepN'
p1337
I9
sg20
S'Y'
sg31
g32
sS'.thisTrialN'
p1338
I12
sS'.thisN'
p1339
I147
sS'.thisIndex'
p1340
I11
sg15
(lp1341
S'd'
asg30
VF
sg17
S'N'
sg14
I3
sg19
(lp1342
S'space'
p1343
asg94
I11
sa(dp1344
g16
(lp1345
S'd'
asg18
S'Y'
sS'.thisRepN'
p1346
I9
sg20
S'Y'
sg31
g32
sS'.thisTrialN'
p1347
I13
sS'.thisN'
p1348
I148
sS'.thisIndex'
p1349
I2
sg15
(lp1350
S'd'
asg30
VF
sg17
S'Y'
sg14
I3
sg19
(lp1351
S'space'
p1352
asg94
I2
sa(dp1353
g16
(lp1354
S'k'
asg18
S'Y'
sg22
I25
sS'.thisN'
p1355
I149
sg20
S'Y'
sg31
g32
sS'.thisTrialN'
p1356
I14
sS'.thisRepN'
p1357
I9
sg21
I19
sS'.thisIndex'
p1358
I12
sg23
I24
sg15
(lp1359
S'k'
asg30
VF
sg17
S'Y'
sg14
I3
sg19
(lp1360
S'space'
p1361
asg94
I12
sa(dp1362
g16
(lp1363
S'd'
asg94
I0
sS'.thisRepN'
p1364
I10
sg30
VF
sg31
g32
sS'.thisTrialN'
p1365
I0
sS'.thisN'
p1366
I150
sS'.thisIndex'
p1367
I0
sg15
(lp1368
S'd'
asg17
S'Y'
sg14
I4
sa(dp1369
g16
(lp1370
S'k'
asg94
I6
sS'.thisRepN'
p1371
I10
sg30
VF
sg31
g32
sS'.thisTrialN'
p1372
I1
sS'.thisN'
p1373
I151
sS'.thisIndex'
p1374
I6
sg15
(lp1375
S'd'
asg17
S'N'
sg14
I4
sa(dp1376
g16
(lp1377
S'k'
asg18
S'Y'
sS'.thisRepN'
p1378
I10
sg20
S'N'
sg31
g32
sS'.thisTrialN'
p1379
I2
sS'.thisN'
p1380
I152
sS'.thisIndex'
p1381
I12
sg15
(lp1382
S'k'
asg30
VF
sg17
S'Y'
sg14
I4
sg19
(lp1383
S'k'
asg94
I12
sa(dp1384
g16
(lp1385
S'd'
asg18
S'N'
sS'.thisRepN'
p1386
I10
sg20
S'Y'
sg31
g32
sS'.thisTrialN'
p1387
I3
sS'.thisN'
p1388
I153
sS'.thisIndex'
p1389
I1
sg15
(lp1390
S'k'
asg30
VF
sg17
S'N'
sg14
I4
sg19
Nsg94
I1
sa(dp1391
g16
(lp1392
S'k'
asg18
S'Y'
sS'.thisRepN'
p1393
I10
sg20
S'N'
sg31
g32
sS'.thisTrialN'
p1394
I4
sS'.thisN'
p1395
I154
sS'.thisIndex'
p1396
I1
sg15
(lp1397
S'k'
asg30
VF
sg17
S'Y'
sg14
I4
sg19
Nsg94
I1
sa(dp1398
g16
(lp1399
S'k'
asg18
S'Y'
sS'.thisRepN'
p1400
I10
sg20
S'N'
sg31
g32
sS'.thisTrialN'
p1401
I5
sS'.thisN'
p1402
I155
sS'.thisIndex'
p1403
I11
sg15
(lp1404
S'd'
asg30
VF
sg17
S'N'
sg14
I4
sg19
Nsg94
I11
sa(dp1405
g16
(lp1406
S'k'
asg18
S'Y'
sS'.thisRepN'
p1407
I10
sg20
S'Y'
sg31
g32
sS'.thisTrialN'
p1408
I6
sS'.thisN'
p1409
I156
sS'.thisIndex'
p1410
I5
sg15
(lp1411
S'k'
asg30
VF
sg17
S'Y'
sg14
I4
sg19
(lp1412
S'space'
p1413
asg94
I5
sa(dp1414
g16
(lp1415
S'k'
asg18
S'N'
sS'.thisRepN'
p1416
I10
sg20
S'N'
sg31
g32
sS'.thisTrialN'
p1417
I7
sS'.thisN'
p1418
I157
sS'.thisIndex'
p1419
I6
sg15
(lp1420
S'k'
asg30
VF
sg17
S'Y'
sg14
I4
sg19
(lp1421
S'space'
p1422
asg94
I6
sa(dp1423
g16
(lp1424
S'k'
asg18
S'Y'
sS'.thisRepN'
p1425
I10
sg20
S'Y'
sg31
g32
sS'.thisTrialN'
p1426
I8
sS'.thisN'
p1427
I158
sS'.thisIndex'
p1428
I1
sg15
(lp1429
S'k'
asg30
VF
sg17
S'Y'
sg14
I4
sg19
(lp1430
S'space'
p1431
asg94
I1
sa(dp1432
g16
(lp1433
S'k'
asg18
S'N'
sS'.thisRepN'
p1434
I10
sg20
S'N'
sg31
g32
sS'.thisTrialN'
p1435
I9
sS'.thisN'
p1436
I159
sS'.thisIndex'
p1437
I0
sg15
(lp1438
S'k'
asg30
VF
sg17
S'Y'
sg14
I4
sg19
(lp1439
S'space'
p1440
asg94
I0
sa(dp1441
g16
(lp1442
S'k'
asg18
S'N'
sS'.thisRepN'
p1443
I10
sg20
S'N'
sg31
g32
sS'.thisTrialN'
p1444
I10
sS'.thisN'
p1445
I160
sS'.thisIndex'
p1446
I12
sg15
(lp1447
S'd'
asg30
VF
sg17
S'N'
sg14
I4
sg19
(lp1448
S'space'
p1449
asg94
I12
sa(dp1450
g16
(lp1451
S'd'
asg18
S'N'
sS'.thisRepN'
p1452
I10
sg20
S'N'
sg31
g32
sS'.thisTrialN'
p1453
I11
sS'.thisN'
p1454
I161
sS'.thisIndex'
p1455
I8
sg15
(lp1456
S'k'
asg30
VF
sg17
S'N'
sg14
I4
sg19
(lp1457
S'space'
p1458
asg94
I8
sa(dp1459
g16
(lp1460
S'd'
asg18
S'N'
sS'.thisRepN'
p1461
I10
sg20
S'Y'
sg31
g32
sS'.thisTrialN'
p1462
I12
sS'.thisN'
p1463
I162
sS'.thisIndex'
p1464
I5
sg15
(lp1465
S'd'
asg30
VF
sg17
S'Y'
sg14
I4
sg19
Nsg94
I5
sa(dp1466
g16
(lp1467
S'd'
asg18
S'Y'
sS'.thisRepN'
p1468
I10
sg20
S'Y'
sg31
g32
sS'.thisTrialN'
p1469
I13
sS'.thisN'
p1470
I163
sS'.thisIndex'
p1471
I8
sg15
(lp1472
S'd'
asg30
VF
sg17
S'Y'
sg14
I4
sg19
(lp1473
S'space'
p1474
asg94
I8
sa(dp1475
g16
(lp1476
S'k'
asg18
S'N'
sS'.thisRepN'
p1477
I10
sg20
S'N'
sg31
g32
sS'.thisTrialN'
p1478
I14
sS'.thisN'
p1479
I164
sS'.thisIndex'
p1480
I7
sg15
(lp1481
S'k'
asg30
VF
sg17
S'Y'
sg14
I4
sg19
(lp1482
S'space'
p1483
asg94
I7
sa(dp1484
g16
(lp1485
S'd'
asg18
S'N'
sS'.thisRepN'
p1486
I11
sg20
S'N'
sg31
g32
sS'.thisTrialN'
p1487
I0
sS'.thisN'
p1488
I165
sS'.thisIndex'
p1489
I3
sg15
(lp1490
S'd'
asg30
VF
sg17
S'Y'
sg14
I4
sg19
(lp1491
S'space'
p1492
asg94
I3
sa(dp1493
g16
(lp1494
S'd'
asg18
S'Y'
sS'.thisRepN'
p1495
I11
sg20
S'N'
sg31
g32
sS'.thisTrialN'
p1496
I1
sS'.thisN'
p1497
I166
sS'.thisIndex'
p1498
I3
sg15
(lp1499
S'k'
asg30
VF
sg17
S'N'
sg14
I4
sg19
(lp1500
S'k'
asg94
I3
sa(dp1501
g16
(lp1502
S'k'
asg18
S'N'
sS'.thisRepN'
p1503
I11
sg20
S'N'
sg31
g32
sS'.thisTrialN'
p1504
I2
sS'.thisN'
p1505
I167
sS'.thisIndex'
p1506
I4
sg15
(lp1507
S'd'
asg30
VF
sg17
S'N'
sg14
I4
sg19
(lp1508
S'space'
p1509
asg94
I4
sa(dp1510
g16
(lp1511
S'd'
asg18
S'N'
sS'.thisRepN'
p1512
I11
sg20
S'N'
sg31
g32
sS'.thisTrialN'
p1513
I3
sS'.thisN'
p1514
I168
sS'.thisIndex'
p1515
I9
sg15
(lp1516
S'k'
asg30
VF
sg17
S'N'
sg14
I4
sg19
(lp1517
S'space'
p1518
asg94
I9
sa(dp1519
g16
(lp1520
S'k'
asg18
S'N'
sS'.thisRepN'
p1521
I11
sg20
S'N'
sg31
g32
sS'.thisTrialN'
p1522
I4
sS'.thisN'
p1523
I169
sS'.thisIndex'
p1524
I13
sg15
(lp1525
S'd'
asg30
VF
sg17
S'N'
sg14
I4
sg19
(lp1526
S'space'
p1527
asg94
I13
sa(dp1528
g16
(lp1529
S'd'
asg18
S'Y'
sS'.thisRepN'
p1530
I11
sg20
S'Y'
sg31
g32
sS'.thisTrialN'
p1531
I5
sS'.thisN'
p1532
I170
sS'.thisIndex'
p1533
I10
sg15
(lp1534
S'k'
asg30
VF
sg17
S'N'
sg14
I4
sg19
(lp1535
S'space'
p1536
asg94
I10
sa(dp1537
g16
(lp1538
S'k'
asg18
S'N'
sS'.thisRepN'
p1539
I11
sg20
S'N'
sg31
g32
sS'.thisTrialN'
p1540
I6
sS'.thisN'
p1541
I171
sS'.thisIndex'
p1542
I8
sg15
(lp1543
S'd'
asg30
VF
sg17
S'N'
sg14
I4
sg19
(lp1544
S'space'
p1545
asg94
I8
sa(dp1546
g16
(lp1547
S'd'
asg18
S'N'
sS'.thisRepN'
p1548
I11
sg20
S'N'
sg31
g32
sS'.thisTrialN'
p1549
I7
sS'.thisN'
p1550
I172
sS'.thisIndex'
p1551
I1
sg15
(lp1552
S'd'
asg30
VF
sg17
S'Y'
sg14
I4
sg19
(lp1553
S'space'
p1554
asg94
I1
sa(dp1555
g16
(lp1556
S'k'
asg18
S'N'
sS'.thisRepN'
p1557
I11
sg20
S'Y'
sg31
g32
sS'.thisTrialN'
p1558
I8
sS'.thisN'
p1559
I173
sS'.thisIndex'
p1560
I14
sg15
(lp1561
S'd'
asg30
VF
sg17
S'N'
sg14
I4
sg19
Nsg94
I14
sa(dp1562
g16
(lp1563
S'k'
asg18
S'N'
sS'.thisRepN'
p1564
I11
sg20
S'N'
sg31
g32
sS'.thisTrialN'
p1565
I9
sS'.thisN'
p1566
I174
sS'.thisIndex'
p1567
I11
sg15
(lp1568
S'k'
asg30
VF
sg17
S'Y'
sg14
I4
sg19
(lp1569
S'space'
p1570
asg94
I11
sa(dp1571
g16
(lp1572
S'd'
asg18
S'N'
sS'.thisRepN'
p1573
I11
sg20
S'N'
sg31
g32
sS'.thisTrialN'
p1574
I10
sS'.thisN'
p1575
I175
sS'.thisIndex'
p1576
I1
sg15
(lp1577
S'k'
asg30
VF
sg17
S'N'
sg14
I4
sg19
(lp1578
S'space'
p1579
asg94
I1
sa(dp1580
g16
(lp1581
S'k'
asg18
S'Y'
sS'.thisRepN'
p1582
I11
sg20
S'Y'
sg31
g32
sS'.thisTrialN'
p1583
I11
sS'.thisN'
p1584
I176
sS'.thisIndex'
p1585
I3
sg15
(lp1586
S'd'
asg30
VF
sg17
S'N'
sg14
I4
sg19
(lp1587
S'space'
p1588
asg94
I3
sa(dp1589
g16
(lp1590
S'k'
asg18
S'Y'
sS'.thisRepN'
p1591
I11
sg20
S'Y'
sg31
g32
sS'.thisTrialN'
p1592
I12
sS'.thisN'
p1593
I177
sS'.thisIndex'
p1594
I4
sg15
(lp1595
S'k'
asg30
VF
sg17
S'Y'
sg14
I4
sg19
(lp1596
S'space'
p1597
asg94
I4
sa(dp1598
g16
(lp1599
S'k'
asg18
S'N'
sS'.thisRepN'
p1600
I11
sg20
S'N'
sg31
g32
sS'.thisTrialN'
p1601
I13
sS'.thisN'
p1602
I178
sS'.thisIndex'
p1603
I11
sg15
(lp1604
S'k'
asg30
VF
sg17
S'Y'
sg14
I4
sg19
(lp1605
S'space'
p1606
asg94
I11
sa(dp1607
g16
(lp1608
S'd'
asg18
S'Y'
sS'.thisRepN'
p1609
I11
sg20
S'Y'
sg31
g32
sS'.thisTrialN'
p1610
I14
sS'.thisN'
p1611
I179
sS'.thisIndex'
p1612
I5
sg15
(lp1613
S'd'
asg30
VF
sg17
S'Y'
sg14
I4
sg19
(lp1614
S'space'
p1615
asg94
I5
sa(dp1616
g16
(lp1617
S'd'
asg18
S'N'
sS'.thisRepN'
p1618
I12
sg20
S'N'
sg31
g32
sS'.thisTrialN'
p1619
I0
sS'.thisN'
p1620
I180
sS'.thisIndex'
p1621
I5
sg15
(lp1622
S'k'
asg30
VF
sg17
S'N'
sg14
I4
sg19
(lp1623
S'space'
p1624
asg94
I5
sa(dp1625
g16
(lp1626
S'k'
asg18
S'Y'
sS'.thisRepN'
p1627
I12
sg20
S'Y'
sg31
g32
sS'.thisTrialN'
p1628
I1
sS'.thisN'
p1629
I181
sS'.thisIndex'
p1630
I6
sg15
(lp1631
S'd'
asg30
VF
sg17
S'N'
sg14
I4
sg19
(lp1632
S'space'
p1633
asg94
I6
sa(dp1634
g16
(lp1635
S'd'
asg18
S'N'
sS'.thisRepN'
p1636
I12
sg20
S'N'
sg31
g32
sS'.thisTrialN'
p1637
I2
sS'.thisN'
p1638
I182
sS'.thisIndex'
p1639
I2
sg15
(lp1640
S'k'
asg30
VF
sg17
S'N'
sg14
I4
sg19
(lp1641
S'space'
p1642
asg94
I2
sa(dp1643
g16
(lp1644
S'k'
asg18
S'N'
sS'.thisRepN'
p1645
I12
sg20
S'Y'
sg31
g32
sS'.thisTrialN'
p1646
I3
sS'.thisN'
p1647
I183
sS'.thisIndex'
p1648
I5
sg15
(lp1649
S'd'
asg30
VF
sg17
S'N'
sg14
I4
sg19
Nsg94
I5
sa(dp1650
g16
(lp1651
S'k'
asg18
S'Y'
sS'.thisRepN'
p1652
I12
sg20
S'Y'
sg31
g32
sS'.thisTrialN'
p1653
I4
sS'.thisN'
p1654
I184
sS'.thisIndex'
p1655
I5
sg15
(lp1656
S'k'
asg30
VF
sg17
S'Y'
sg14
I4
sg19
(lp1657
S'space'
p1658
asg94
I5
sa(dp1659
g16
(lp1660
S'd'
asg18
S'Y'
sS'.thisRepN'
p1661
I12
sg20
S'N'
sg31
g32
sS'.thisTrialN'
p1662
I5
sS'.thisN'
p1663
I185
sS'.thisIndex'
p1664
I13
sg15
(lp1665
S'd'
asg30
VF
sg17
S'Y'
sg14
I4
sg19
Nsg94
I13
sa(dp1666
g16
(lp1667
S'k'
asg18
S'Y'
sS'.thisRepN'
p1668
I12
sg20
S'Y'
sg31
g32
sS'.thisTrialN'
p1669
I6
sS'.thisN'
p1670
I186
sS'.thisIndex'
p1671
I13
sg15
(lp1672
S'k'
asg30
VF
sg17
S'Y'
sg14
I4
sg19
(lp1673
S'space'
p1674
asg94
I13
sa(dp1675
g16
(lp1676
S'k'
asg18
S'Y'
sS'.thisRepN'
p1677
I12
sg20
S'Y'
sg31
g32
sS'.thisTrialN'
p1678
I7
sS'.thisN'
p1679
I187
sS'.thisIndex'
p1680
I13
sg15
(lp1681
S'k'
asg30
VF
sg17
S'Y'
sg14
I4
sg19
(lp1682
S'space'
p1683
asg94
I13
sa(dp1684
g16
(lp1685
S'k'
asg18
S'Y'
sS'.thisRepN'
p1686
I12
sg20
S'Y'
sg31
g32
sS'.thisTrialN'
p1687
I8
sS'.thisN'
p1688
I188
sS'.thisIndex'
p1689
I10
sg15
(lp1690
S'k'
asg30
VF
sg17
S'Y'
sg14
I4
sg19
(lp1691
S'space'
p1692
asg94
I10
sa(dp1693
g16
(lp1694
S'k'
asg18
S'N'
sS'.thisRepN'
p1695
I12
sg20
S'N'
sg31
g32
sS'.thisTrialN'
p1696
I9
sS'.thisN'
p1697
I189
sS'.thisIndex'
p1698
I6
sg15
(lp1699
S'd'
asg30
VF
sg17
S'N'
sg14
I4
sg19
(lp1700
S'space'
p1701
asg94
I6
sa(dp1702
g16
(lp1703
S'k'
asg18
S'Y'
sS'.thisRepN'
p1704
I12
sg20
S'Y'
sg31
g32
sS'.thisTrialN'
p1705
I10
sS'.thisN'
p1706
I190
sS'.thisIndex'
p1707
I5
sg15
(lp1708
S'k'
asg30
VF
sg17
S'Y'
sg14
I4
sg19
(lp1709
S'space'
p1710
asg94
I5
sa(dp1711
g16
(lp1712
S'd'
asg18
S'N'
sS'.thisRepN'
p1713
I12
sg20
S'N'
sg31
g32
sS'.thisTrialN'
p1714
I11
sS'.thisN'
p1715
I191
sS'.thisIndex'
p1716
I2
sg15
(lp1717
S'k'
asg30
VF
sg17
S'N'
sg14
I4
sg19
(lp1718
S'space'
p1719
asg94
I2
sa(dp1720
g16
(lp1721
S'd'
asg18
S'N'
sS'.thisRepN'
p1722
I12
sg20
S'N'
sg31
g32
sS'.thisTrialN'
p1723
I12
sS'.thisN'
p1724
I192
sS'.thisIndex'
p1725
I7
sg15
(lp1726
S'd'
asg30
VF
sg17
S'Y'
sg14
I4
sg19
(lp1727
S'space'
p1728
asg94
I7
sa(dp1729
g16
(lp1730
S'd'
asg18
S'N'
sS'.thisRepN'
p1731
I12
sg20
S'N'
sg31
g32
sS'.thisTrialN'
p1732
I13
sS'.thisN'
p1733
I193
sS'.thisIndex'
p1734
I2
sg15
(lp1735
S'd'
asg30
VF
sg17
S'Y'
sg14
I4
sg19
(lp1736
S'space'
p1737
asg94
I2
sa(dp1738
g16
(lp1739
S'd'
asg18
S'Y'
sS'.thisRepN'
p1740
I12
sg20
S'Y'
sg31
g32
sS'.thisTrialN'
p1741
I14
sS'.thisN'
p1742
I194
sS'.thisIndex'
p1743
I10
sg15
(lp1744
S'd'
asg30
VF
sg17
S'Y'
sg14
I4
sg19
(lp1745
S'space'
p1746
asg94
I10
sa(dp1747
g16
(lp1748
S'd'
asg18
S'N'
sS'.thisRepN'
p1749
I13
sg20
S'N'
sg31
g32
sS'.thisTrialN'
p1750
I0
sS'.thisN'
p1751
I195
sS'.thisIndex'
p1752
I11
sg15
(lp1753
S'k'
asg30
VF
sg17
S'N'
sg14
I4
sg19
(lp1754
S'space'
p1755
asg94
I11
sa(dp1756
g16
(lp1757
S'k'
asg18
S'Y'
sS'.thisRepN'
p1758
I13
sg20
S'Y'
sg31
g32
sS'.thisTrialN'
p1759
I1
sS'.thisN'
p1760
I196
sS'.thisIndex'
p1761
I0
sg15
(lp1762
S'd'
asg30
VF
sg17
S'N'
sg14
I4
sg19
(lp1763
S'space'
p1764
asg94
I0
sa(dp1765
g16
(lp1766
S'd'
asg18
S'Y'
sS'.thisRepN'
p1767
I13
sg20
S'Y'
sg31
g32
sS'.thisTrialN'
p1768
I2
sS'.thisN'
p1769
I197
sS'.thisIndex'
p1770
I9
sg15
(lp1771
S'd'
asg30
VF
sg17
S'Y'
sg14
I4
sg19
(lp1772
S'space'
p1773
asg94
I9
sa(dp1774
g16
(lp1775
S'd'
asg18
S'N'
sS'.thisRepN'
p1776
I13
sg20
S'Y'
sg31
g32
sS'.thisTrialN'
p1777
I3
sS'.thisN'
p1778
I198
sS'.thisIndex'
p1779
I5
sg15
(lp1780
S'k'
asg30
VF
sg17
S'N'
sg14
I4
sg19
Nsg94
I5
sa(dp1781
g16
(lp1782
S'd'
asg18
S'Y'
sg22
I22
sS'.thisN'
p1783
I199
sg20
S'Y'
sg31
g32
sS'.thisTrialN'
p1784
I4
sS'.thisRepN'
p1785
I13
sg21
I27
sS'.thisIndex'
p1786
I7
sg23
I22
sg15
(lp1787
S'd'
asg30
VF
sg17
S'Y'
sg14
I4
sg19
(lp1788
S'space'
p1789
asg94
I7
sa(dp1790
g16
(lp1791
S'd'
asg94
I8
sS'.thisRepN'
p1792
I13
sg30
VF
sg31
g32
sS'.thisTrialN'
p1793
I5
sS'.thisN'
p1794
I200
sS'.thisIndex'
p1795
I8
sg15
(lp1796
S'k'
asg17
S'N'
sg14
I5
sa(dp1797
g16
(lp1798
S'd'
asg94
I8
sS'.thisRepN'
p1799
I13
sg30
VF
sg31
g32
sS'.thisTrialN'
p1800
I6
sS'.thisN'
p1801
I201
sS'.thisIndex'
p1802
I8
sg15
(lp1803
S'k'
asg17
S'N'
sg14
I5
sa(dp1804
g16
(lp1805
S'd'
asg18
S'N'
sS'.thisRepN'
p1806
I13
sg20
S'Y'
sg31
g32
sS'.thisTrialN'
p1807
I7
sS'.thisN'
p1808
I202
sS'.thisIndex'
p1809
I3
sg15
(lp1810
S'd'
asg30
VF
sg17
S'Y'
sg14
I5
sg19
Nsg94
I3
sa(dp1811
g16
(lp1812
S'd'
asg18
S'N'
sS'.thisRepN'
p1813
I13
sg20
S'N'
sg31
g32
sS'.thisTrialN'
p1814
I8
sS'.thisN'
p1815
I203
sS'.thisIndex'
p1816
I12
sg15
(lp1817
S'k'
asg30
VF
sg17
S'N'
sg14
I5
sg19
(lp1818
S'k'
asg94
I12
sa(dp1819
g16
(lp1820
S'k'
asg18
S'N'
sS'.thisRepN'
p1821
I13
sg20
S'Y'
sg31
g32
sS'.thisTrialN'
p1822
I9
sS'.thisN'
p1823
I204
sS'.thisIndex'
p1824
I0
sg15
(lp1825
S'd'
asg30
VF
sg17
S'N'
sg14
I5
sg19
Nsg94
I0
sa(dp1826
g16
(lp1827
S'k'
asg18
S'N'
sS'.thisRepN'
p1828
I13
sg20
S'N'
sg31
g32
sS'.thisTrialN'
p1829
I10
sS'.thisN'
p1830
I205
sS'.thisIndex'
p1831
I4
sg15
(lp1832
S'k'
asg30
VF
sg17
S'Y'
sg14
I5
sg19
(lp1833
S'k'
asg94
I4
sa(dp1834
g16
(lp1835
S'k'
asg18
S'N'
sS'.thisRepN'
p1836
I13
sg20
S'N'
sg31
g32
sS'.thisTrialN'
p1837
I11
sS'.thisN'
p1838
I206
sS'.thisIndex'
p1839
I6
sg15
(lp1840
S'd'
asg30
VF
sg17
S'N'
sg14
I5
sg19
(lp1841
S'space'
p1842
asg94
I6
sa(dp1843
g16
(lp1844
S'k'
asg18
S'N'
sS'.thisRepN'
p1845
I13
sg20
S'N'
sg31
g32
sS'.thisTrialN'
p1846
I12
sS'.thisN'
p1847
I207
sS'.thisIndex'
p1848
I2
sg15
(lp1849
S'k'
asg30
VF
sg17
S'Y'
sg14
I5
sg19
(lp1850
S'space'
p1851
asg94
I2
sa(dp1852
g16
(lp1853
S'd'
asg18
S'Y'
sS'.thisRepN'
p1854
I13
sg20
S'Y'
sg31
g32
sS'.thisTrialN'
p1855
I13
sS'.thisN'
p1856
I208
sS'.thisIndex'
p1857
I2
sg15
(lp1858
S'k'
asg30
VF
sg17
S'N'
sg14
I5
sg19
(lp1859
S'space'
p1860
asg94
I2
sa(dp1861
g16
(lp1862
S'k'
asg18
S'N'
sS'.thisRepN'
p1863
I13
sg20
S'N'
sg31
g32
sS'.thisTrialN'
p1864
I14
sS'.thisN'
p1865
I209
sS'.thisIndex'
p1866
I4
sg15
(lp1867
S'd'
asg30
VF
sg17
S'N'
sg14
I5
sg19
(lp1868
S'space'
p1869
asg94
I4
sa(dp1870
g16
(lp1871
S'k'
asg18
S'Y'
sS'.thisRepN'
p1872
I14
sg20
S'Y'
sg31
g32
sS'.thisTrialN'
p1873
I0
sS'.thisN'
p1874
I210
sS'.thisIndex'
p1875
I8
sg15
(lp1876
S'k'
asg30
VF
sg17
S'Y'
sg14
I5
sg19
(lp1877
S'space'
p1878
asg94
I8
sa(dp1879
g16
(lp1880
S'd'
asg18
S'N'
sS'.thisRepN'
p1881
I14
sg20
S'N'
sg31
g32
sS'.thisTrialN'
p1882
I1
sS'.thisN'
p1883
I211
sS'.thisIndex'
p1884
I6
sg15
(lp1885
S'k'
asg30
VF
sg17
S'N'
sg14
I5
sg19
(lp1886
S'space'
p1887
asg94
I6
sa(dp1888
g16
(lp1889
S'k'
asg18
S'N'
sS'.thisRepN'
p1890
I14
sg20
S'N'
sg31
g32
sS'.thisTrialN'
p1891
I2
sS'.thisN'
p1892
I212
sS'.thisIndex'
p1893
I14
sg15
(lp1894
S'd'
asg30
VF
sg17
S'N'
sg14
I5
sg19
(lp1895
S'd'
asg94
I14
sa(dp1896
g16
(lp1897
S'k'
asg18
S'Y'
sS'.thisRepN'
p1898
I14
sg20
S'Y'
sg31
g32
sS'.thisTrialN'
p1899
I3
sS'.thisN'
p1900
I213
sS'.thisIndex'
p1901
I1
sg15
(lp1902
S'k'
asg30
VF
sg17
S'Y'
sg14
I5
sg19
(lp1903
S'space'
p1904
asg94
I1
sa(dp1905
g16
(lp1906
S'k'
asg18
S'N'
sS'.thisRepN'
p1907
I14
sg20
S'N'
sg31
g32
sS'.thisTrialN'
p1908
I4
sS'.thisN'
p1909
I214
sS'.thisIndex'
p1910
I8
sg15
(lp1911
S'd'
asg30
VF
sg17
S'N'
sg14
I5
sg19
(lp1912
S'space'
p1913
asg94
I8
sa(dp1914
g16
(lp1915
S'k'
asg18
S'N'
sS'.thisRepN'
p1916
I14
sg20
S'N'
sg31
g32
sS'.thisTrialN'
p1917
I5
sS'.thisN'
p1918
I215
sS'.thisIndex'
p1919
I1
sg15
(lp1920
S'k'
asg30
VF
sg17
S'Y'
sg14
I5
sg19
(lp1921
S'space'
p1922
asg94
I1
sa(dp1923
g16
(lp1924
S'k'
asg18
S'N'
sS'.thisRepN'
p1925
I14
sg20
S'N'
sg31
g32
sS'.thisTrialN'
p1926
I6
sS'.thisN'
p1927
I216
sS'.thisIndex'
p1928
I7
sg15
(lp1929
S'k'
asg30
VF
sg17
S'Y'
sg14
I5
sg19
(lp1930
S'space'
p1931
asg94
I7
sa(dp1932
g16
(lp1933
S'd'
asg18
S'Y'
sS'.thisRepN'
p1934
I14
sg20
S'Y'
sg31
g32
sS'.thisTrialN'
p1935
I7
sS'.thisN'
p1936
I217
sS'.thisIndex'
p1937
I1
sg15
(lp1938
S'd'
asg30
VF
sg17
S'Y'
sg14
I5
sg19
(lp1939
S'space'
p1940
asg94
I1
sa(dp1941
g16
(lp1942
S'k'
asg18
S'Y'
sS'.thisRepN'
p1943
I14
sg20
S'Y'
sg31
g32
sS'.thisTrialN'
p1944
I8
sS'.thisN'
p1945
I218
sS'.thisIndex'
p1946
I14
sg15
(lp1947
S'k'
asg30
VF
sg17
S'Y'
sg14
I5
sg19
(lp1948
S'space'
p1949
asg94
I14
sa(dp1950
g16
(lp1951
S'k'
asg18
S'N'
sS'.thisRepN'
p1952
I14
sg20
S'N'
sg31
g32
sS'.thisTrialN'
p1953
I9
sS'.thisN'
p1954
I219
sS'.thisIndex'
p1955
I3
sg15
(lp1956
S'd'
asg30
VF
sg17
S'N'
sg14
I5
sg19
(lp1957
S'space'
p1958
asg94
I3
sa(dp1959
g16
(lp1960
S'k'
asg18
S'Y'
sS'.thisRepN'
p1961
I14
sg20
S'Y'
sg31
g32
sS'.thisTrialN'
p1962
I10
sS'.thisN'
p1963
I220
sS'.thisIndex'
p1964
I7
sg15
(lp1965
S'k'
asg30
VF
sg17
S'Y'
sg14
I5
sg19
(lp1966
S'space'
p1967
asg94
I7
sa(dp1968
g16
(lp1969
S'k'
asg18
S'N'
sS'.thisRepN'
p1970
I14
sg20
S'N'
sg31
g32
sS'.thisTrialN'
p1971
I11
sS'.thisN'
p1972
I221
sS'.thisIndex'
p1973
I1
sg15
(lp1974
S'k'
asg30
VF
sg17
S'Y'
sg14
I5
sg19
(lp1975
S'space'
p1976
asg94
I1
sa(dp1977
g16
(lp1978
S'd'
asg18
S'Y'
sS'.thisRepN'
p1979
I14
sg20
S'Y'
sg31
g32
sS'.thisTrialN'
p1980
I12
sS'.thisN'
p1981
I222
sS'.thisIndex'
p1982
I9
sg15
(lp1983
S'd'
asg30
VF
sg17
S'Y'
sg14
I5
sg19
(lp1984
S'space'
p1985
asg94
I9
sa(dp1986
g16
(lp1987
S'd'
asg18
S'N'
sS'.thisRepN'
p1988
I14
sg20
S'N'
sg31
g32
sS'.thisTrialN'
p1989
I13
sS'.thisN'
p1990
I223
sS'.thisIndex'
p1991
I2
sg15
(lp1992
S'k'
asg30
VF
sg17
S'N'
sg14
I5
sg19
(lp1993
S'space'
p1994
asg94
I2
sa(dp1995
g16
(lp1996
S'd'
asg18
S'Y'
sS'.thisRepN'
p1997
I14
sg20
S'Y'
sg31
g32
sS'.thisTrialN'
p1998
I14
sS'.thisN'
p1999
I224
sS'.thisIndex'
p2000
I0
sg15
(lp2001
S'd'
asg30
VF
sg17
S'Y'
sg14
I5
sg19
(lp2002
S'space'
p2003
asg94
I0
sa(dp2004
g16
(lp2005
S'd'
asg18
S'N'
sS'.thisRepN'
p2006
I15
sg20
S'N'
sg31
g32
sS'.thisTrialN'
p2007
I0
sS'.thisN'
p2008
I225
sS'.thisIndex'
p2009
I1
sg15
(lp2010
S'd'
asg30
VF
sg17
S'Y'
sg14
I5
sg19
(lp2011
S'space'
p2012
asg94
I1
sa(dp2013
g16
(lp2014
S'd'
asg18
S'Y'
sS'.thisRepN'
p2015
I15
sg20
S'Y'
sg31
g32
sS'.thisTrialN'
p2016
I1
sS'.thisN'
p2017
I226
sS'.thisIndex'
p2018
I11
sg15
(lp2019
S'd'
asg30
VF
sg17
S'Y'
sg14
I5
sg19
(lp2020
S'space'
p2021
asg94
I11
sa(dp2022
g16
(lp2023
S'k'
asg18
S'N'
sS'.thisRepN'
p2024
I15
sg20
S'N'
sg31
g32
sS'.thisTrialN'
p2025
I2
sS'.thisN'
p2026
I227
sS'.thisIndex'
p2027
I12
sg15
(lp2028
S'k'
asg30
VF
sg17
S'Y'
sg14
I5
sg19
(lp2029
S'space'
p2030
asg94
I12
sa(dp2031
g16
(lp2032
S'd'
asg18
S'N'
sS'.thisRepN'
p2033
I15
sg20
S'N'
sg31
g32
sS'.thisTrialN'
p2034
I3
sS'.thisN'
p2035
I228
sS'.thisIndex'
p2036
I7
sg15
(lp2037
S'k'
asg30
VF
sg17
S'N'
sg14
I5
sg19
(lp2038
S'space'
p2039
asg94
I7
sa(dp2040
g16
(lp2041
S'd'
asg18
S'N'
sS'.thisRepN'
p2042
I15
sg20
S'N'
sg31
g32
sS'.thisTrialN'
p2043
I4
sS'.thisN'
p2044
I229
sS'.thisIndex'
p2045
I13
sg15
(lp2046
S'd'
asg30
VF
sg17
S'Y'
sg14
I5
sg19
(lp2047
S'space'
p2048
asg94
I13
sa(dp2049
g16
(lp2050
S'd'
asg18
S'N'
sS'.thisRepN'
p2051
I15
sg20
S'N'
sg31
g32
sS'.thisTrialN'
p2052
I5
sS'.thisN'
p2053
I230
sS'.thisIndex'
p2054
I14
sg15
(lp2055
S'k'
asg30
VF
sg17
S'N'
sg14
I5
sg19
(lp2056
S'space'
p2057
asg94
I14
sa(dp2058
g16
(lp2059
S'd'
asg18
S'N'
sS'.thisRepN'
p2060
I15
sg20
S'N'
sg31
g32
sS'.thisTrialN'
p2061
I6
sS'.thisN'
p2062
I231
sS'.thisIndex'
p2063
I10
sg15
(lp2064
S'd'
asg30
VF
sg17
S'Y'
sg14
I5
sg19
(lp2065
S'space'
p2066
asg94
I10
sa(dp2067
g16
(lp2068
S'd'
asg18
S'Y'
sS'.thisRepN'
p2069
I15
sg20
S'Y'
sg31
g32
sS'.thisTrialN'
p2070
I7
sS'.thisN'
p2071
I232
sS'.thisIndex'
p2072
I4
sg15
(lp2073
S'd'
asg30
VF
sg17
S'Y'
sg14
I5
sg19
(lp2074
S'space'
p2075
asg94
I4
sa(dp2076
g16
(lp2077
S'k'
asg18
S'N'
sS'.thisRepN'
p2078
I15
sg20
S'N'
sg31
g32
sS'.thisTrialN'
p2079
I8
sS'.thisN'
p2080
I233
sS'.thisIndex'
p2081
I13
sg15
(lp2082
S'd'
asg30
VF
sg17
S'N'
sg14
I5
sg19
(lp2083
S'space'
p2084
asg94
I13
sa(dp2085
g16
(lp2086
S'd'
asg18
S'Y'
sS'.thisRepN'
p2087
I15
sg20
S'Y'
sg31
g32
sS'.thisTrialN'
p2088
I9
sS'.thisN'
p2089
I234
sS'.thisIndex'
p2090
I12
sg15
(lp2091
S'k'
asg30
VF
sg17
S'N'
sg14
I5
sg19
(lp2092
S'space'
p2093
asg94
I12
sa(dp2094
g16
(lp2095
S'k'
asg18
S'N'
sS'.thisRepN'
p2096
I15
sg20
S'N'
sg31
g32
sS'.thisTrialN'
p2097
I10
sS'.thisN'
p2098
I235
sS'.thisIndex'
p2099
I6
sg15
(lp2100
S'd'
asg30
VF
sg17
S'N'
sg14
I5
sg19
(lp2101
S'space'
p2102
asg94
I6
sa(dp2103
g16
(lp2104
S'k'
asg18
S'Y'
sS'.thisRepN'
p2105
I15
sg20
S'Y'
sg31
g32
sS'.thisTrialN'
p2106
I11
sS'.thisN'
p2107
I236
sS'.thisIndex'
p2108
I5
sg15
(lp2109
S'd'
asg30
VF
sg17
S'N'
sg14
I5
sg19
(lp2110
S'space'
p2111
asg94
I5
sa(dp2112
g16
(lp2113
S'k'
asg18
S'N'
sS'.thisRepN'
p2114
I15
sg20
S'N'
sg31
g32
sS'.thisTrialN'
p2115
I12
sS'.thisN'
p2116
I237
sS'.thisIndex'
p2117
I12
sg15
(lp2118
S'd'
asg30
VF
sg17
S'N'
sg14
I5
sg19
(lp2119
S'space'
p2120
asg94
I12
sa(dp2121
g16
(lp2122
S'd'
asg18
S'N'
sS'.thisRepN'
p2123
I15
sg20
S'N'
sg31
g32
sS'.thisTrialN'
p2124
I13
sS'.thisN'
p2125
I238
sS'.thisIndex'
p2126
I10
sg15
(lp2127
S'k'
asg30
VF
sg17
S'N'
sg14
I5
sg19
(lp2128
S'space'
p2129
asg94
I10
sa(dp2130
g16
(lp2131
S'd'
asg18
S'Y'
sS'.thisRepN'
p2132
I15
sg20
S'Y'
sg31
g32
sS'.thisTrialN'
p2133
I14
sS'.thisN'
p2134
I239
sS'.thisIndex'
p2135
I14
sg15
(lp2136
S'd'
asg30
VF
sg17
S'Y'
sg14
I5
sg19
(lp2137
S'space'
p2138
asg94
I14
sa(dp2139
g16
(lp2140
S'd'
asg18
S'Y'
sS'.thisRepN'
p2141
I16
sg20
S'Y'
sg31
g32
sS'.thisTrialN'
p2142
I0
sS'.thisN'
p2143
I240
sS'.thisIndex'
p2144
I2
sg15
(lp2145
S'd'
asg30
VF
sg17
S'Y'
sg14
I5
sg19
(lp2146
S'space'
p2147
asg94
I2
sa(dp2148
g16
(lp2149
S'k'
asg18
S'Y'
sS'.thisRepN'
p2150
I16
sg20
S'Y'
sg31
g32
sS'.thisTrialN'
p2151
I1
sS'.thisN'
p2152
I241
sS'.thisIndex'
p2153
I8
sg15
(lp2154
S'k'
asg30
VF
sg17
S'Y'
sg14
I5
sg19
(lp2155
S'space'
p2156
asg94
I8
sa(dp2157
g16
(lp2158
S'k'
asg18
S'Y'
sS'.thisRepN'
p2159
I16
sg20
S'Y'
sg31
g32
sS'.thisTrialN'
p2160
I2
sS'.thisN'
p2161
I242
sS'.thisIndex'
p2162
I6
sg15
(lp2163
S'd'
asg30
VF
sg17
S'N'
sg14
I5
sg19
(lp2164
S'space'
p2165
asg94
I6
sa(dp2166
g16
(lp2167
S'k'
asg18
S'N'
sS'.thisRepN'
p2168
I16
sg20
S'N'
sg31
g32
sS'.thisTrialN'
p2169
I3
sS'.thisN'
p2170
I243
sS'.thisIndex'
p2171
I14
sg15
(lp2172
S'k'
asg30
VF
sg17
S'Y'
sg14
I5
sg19
(lp2173
S'k'
asg94
I14
sa(dp2174
g16
(lp2175
S'k'
asg18
S'Y'
sS'.thisRepN'
p2176
I16
sg20
S'Y'
sg31
g32
sS'.thisTrialN'
p2177
I4
sS'.thisN'
p2178
I244
sS'.thisIndex'
p2179
I8
sg15
(lp2180
S'd'
asg30
VF
sg17
S'N'
sg14
I5
sg19
(lp2181
S'space'
p2182
asg94
I8
sa(dp2183
g16
(lp2184
S'k'
asg18
S'Y'
sS'.thisRepN'
p2185
I16
sg20
S'N'
sg31
g32
sS'.thisTrialN'
p2186
I5
sS'.thisN'
p2187
I245
sS'.thisIndex'
p2188
I14
sg15
(lp2189
S'k'
asg30
VF
sg17
S'Y'
sg14
I5
sg19
Nsg94
I14
sa(dp2190
g16
(lp2191
S'k'
asg18
S'N'
sS'.thisRepN'
p2192
I16
sg20
S'Y'
sg31
g32
sS'.thisTrialN'
p2193
I6
sS'.thisN'
p2194
I246
sS'.thisIndex'
p2195
I9
sg15
(lp2196
S'k'
asg30
VF
sg17
S'Y'
sg14
I5
sg19
Nsg94
I9
sa(dp2197
g16
(lp2198
S'k'
asg18
S'N'
sS'.thisRepN'
p2199
I16
sg20
S'N'
sg31
g32
sS'.thisTrialN'
p2200
I7
sS'.thisN'
p2201
I247
sS'.thisIndex'
p2202
I13
sg15
(lp2203
S'k'
asg30
VF
sg17
S'Y'
sg14
I5
sg19
(lp2204
S'k'
asg94
I13
sa(dp2205
g16
(lp2206
S'k'
asg18
S'N'
sS'.thisRepN'
p2207
I16
sg20
S'Y'
sg31
g32
sS'.thisTrialN'
p2208
I8
sS'.thisN'
p2209
I248
sS'.thisIndex'
p2210
I7
sg15
(lp2211
S'd'
asg30
VF
sg17
S'N'
sg14
I5
sg19
Nsg94
I7
sa(dp2212
g16
(lp2213
S'd'
asg18
S'Y'
sg22
I21
sS'.thisN'
p2214
I249
sg20
S'N'
sg31
g32
sS'.thisTrialN'
p2215
I9
sS'.thisRepN'
p2216
I16
sg21
I26
sS'.thisIndex'
p2217
I13
sg23
I19
sg15
(lp2218
S'k'
asg30
VF
sg17
S'N'
sg14
I5
sg19
(lp2219
S'k'
asg94
I13
sa(dp2220
g16
(lp2221
S'd'
asg94
I1
sS'.thisRepN'
p2222
I16
sg30
VF
sg31
g32
sS'.thisTrialN'
p2223
I10
sS'.thisN'
p2224
I250
sS'.thisIndex'
p2225
I1
sg15
(lp2226
S'd'
asg17
S'Y'
sg14
I6
sa(dp2227
g16
(lp2228
S'k'
asg94
I13
sS'.thisRepN'
p2229
I16
sg30
VF
sg31
g32
sS'.thisTrialN'
p2230
I11
sS'.thisN'
p2231
I251
sS'.thisIndex'
p2232
I13
sg15
(lp2233
S'k'
asg17
S'Y'
sg14
I6
sa(dp2234
g16
(lp2235
S'k'
asg18
S'N'
sS'.thisRepN'
p2236
I16
sg20
S'Y'
sg31
g32
sS'.thisTrialN'
p2237
I12
sS'.thisN'
p2238
I252
sS'.thisIndex'
p2239
I6
sg15
(lp2240
S'd'
asg30
VF
sg17
S'N'
sg14
I6
sg19
Nsg94
I6
sa(dp2241
g16
(lp2242
S'k'
asg18
S'N'
sS'.thisRepN'
p2243
I16
sg20
S'Y'
sg31
g32
sS'.thisTrialN'
p2244
I13
sS'.thisN'
p2245
I253
sS'.thisIndex'
p2246
I12
sg15
(lp2247
S'k'
asg30
VF
sg17
S'Y'
sg14
I6
sg19
Nsg94
I12
sa(dp2248
g16
(lp2249
S'k'
asg18
S'N'
sS'.thisRepN'
p2250
I16
sg20
S'Y'
sg31
g32
sS'.thisTrialN'
p2251
I14
sS'.thisN'
p2252
I254
sS'.thisIndex'
p2253
I4
sg15
(lp2254
S'k'
asg30
VF
sg17
S'Y'
sg14
I6
sg19
Nsg94
I4
sa(dp2255
g16
(lp2256
S'k'
asg18
S'Y'
sS'.thisRepN'
p2257
I17
sg20
S'N'
sg31
g32
sS'.thisTrialN'
p2258
I0
sS'.thisN'
p2259
I255
sS'.thisIndex'
p2260
I14
sg15
(lp2261
S'd'
asg30
VF
sg17
S'N'
sg14
I6
sg19
Nsg94
I14
sa(dp2262
g16
(lp2263
S'd'
asg18
S'N'
sS'.thisRepN'
p2264
I17
sg20
S'N'
sg31
g32
sS'.thisTrialN'
p2265
I1
sS'.thisN'
p2266
I256
sS'.thisIndex'
p2267
I3
sg15
(lp2268
S'k'
asg30
VF
sg17
S'N'
sg14
I6
sg19
(lp2269
S'k'
asg94
I3
sa(dp2270
g16
(lp2271
S'd'
asg18
S'Y'
sS'.thisRepN'
p2272
I17
sg20
S'N'
sg31
g32
sS'.thisTrialN'
p2273
I2
sS'.thisN'
p2274
I257
sS'.thisIndex'
p2275
I8
sg15
(lp2276
S'd'
asg30
VF
sg17
S'Y'
sg14
I6
sg19
(lp2277
S'd'
asg94
I8
sa(dp2278
g16
(lp2279
S'k'
asg18
S'N'
sS'.thisRepN'
p2280
I17
sg20
S'N'
sg31
g32
sS'.thisTrialN'
p2281
I3
sS'.thisN'
p2282
I258
sS'.thisIndex'
p2283
I9
sg15
(lp2284
S'k'
asg30
VF
sg17
S'Y'
sg14
I6
sg19
(lp2285
S'space'
p2286
asg94
I9
sa(dp2287
g16
(lp2288
S'd'
asg18
S'N'
sS'.thisRepN'
p2289
I17
sg20
S'N'
sg31
g32
sS'.thisTrialN'
p2290
I4
sS'.thisN'
p2291
I259
sS'.thisIndex'
p2292
I3
sg15
(lp2293
S'd'
asg30
VF
sg17
S'Y'
sg14
I6
sg19
(lp2294
S'space'
p2295
asg94
I3
sa(dp2296
g16
(lp2297
S'd'
asg18
S'N'
sS'.thisRepN'
p2298
I17
sg20
S'N'
sg31
g32
sS'.thisTrialN'
p2299
I5
sS'.thisN'
p2300
I260
sS'.thisIndex'
p2301
I13
sg15
(lp2302
S'k'
asg30
VF
sg17
S'N'
sg14
I6
sg19
(lp2303
S'space'
p2304
asg94
I13
sa(dp2305
g16
(lp2306
S'd'
asg18
S'Y'
sS'.thisRepN'
p2307
I17
sg20
S'Y'
sg31
g32
sS'.thisTrialN'
p2308
I6
sS'.thisN'
p2309
I261
sS'.thisIndex'
p2310
I2
sg15
(lp2311
S'd'
asg30
VF
sg17
S'Y'
sg14
I6
sg19
(lp2312
S'space'
p2313
asg94
I2
sa(dp2314
g16
(lp2315
S'k'
asg18
S'Y'
sS'.thisRepN'
p2316
I17
sg20
S'Y'
sg31
g32
sS'.thisTrialN'
p2317
I7
sS'.thisN'
p2318
I262
sS'.thisIndex'
p2319
I14
sg15
(lp2320
S'd'
asg30
VF
sg17
S'N'
sg14
I6
sg19
(lp2321
S'space'
p2322
asg94
I14
sa(dp2323
g16
(lp2324
S'k'
asg18
S'N'
sS'.thisRepN'
p2325
I17
sg20
S'N'
sg31
g32
sS'.thisTrialN'
p2326
I8
sS'.thisN'
p2327
I263
sS'.thisIndex'
p2328
I0
sg15
(lp2329
S'k'
asg30
VF
sg17
S'Y'
sg14
I6
sg19
(lp2330
S'space'
p2331
asg94
I0
sa(dp2332
g16
(lp2333
S'd'
asg18
S'N'
sS'.thisRepN'
p2334
I17
sg20
S'N'
sg31
g32
sS'.thisTrialN'
p2335
I9
sS'.thisN'
p2336
I264
sS'.thisIndex'
p2337
I5
sg15
(lp2338
S'd'
asg30
VF
sg17
S'Y'
sg14
I6
sg19
(lp2339
S'd'
asg94
I5
sa(dp2340
g16
(lp2341
S'd'
asg18
S'Y'
sS'.thisRepN'
p2342
I17
sg20
S'Y'
sg31
g32
sS'.thisTrialN'
p2343
I10
sS'.thisN'
p2344
I265
sS'.thisIndex'
p2345
I12
sg15
(lp2346
S'k'
asg30
VF
sg17
S'N'
sg14
I6
sg19
(lp2347
S'space'
p2348
asg94
I12
sa(dp2349
g16
(lp2350
S'k'
asg18
S'N'
sS'.thisRepN'
p2351
I17
sg20
S'N'
sg31
g32
sS'.thisTrialN'
p2352
I11
sS'.thisN'
p2353
I266
sS'.thisIndex'
p2354
I8
sg15
(lp2355
S'k'
asg30
VF
sg17
S'Y'
sg14
I6
sg19
(lp2356
S'space'
p2357
asg94
I8
sa(dp2358
g16
(lp2359
S'd'
asg18
S'Y'
sS'.thisRepN'
p2360
I17
sg20
S'Y'
sg31
g32
sS'.thisTrialN'
p2361
I12
sS'.thisN'
p2362
I267
sS'.thisIndex'
p2363
I7
sg15
(lp2364
S'd'
asg30
VF
sg17
S'Y'
sg14
I6
sg19
(lp2365
S'space'
p2366
asg94
I7
sa(dp2367
g16
(lp2368
S'd'
asg18
S'N'
sS'.thisRepN'
p2369
I17
sg20
S'N'
sg31
g32
sS'.thisTrialN'
p2370
I13
sS'.thisN'
p2371
I268
sS'.thisIndex'
p2372
I4
sg15
(lp2373
S'k'
asg30
VF
sg17
S'N'
sg14
I6
sg19
(lp2374
S'space'
p2375
asg94
I4
sa(dp2376
g16
(lp2377
S'd'
asg18
S'N'
sS'.thisRepN'
p2378
I17
sg20
S'N'
sg31
g32
sS'.thisTrialN'
p2379
I14
sS'.thisN'
p2380
I269
sS'.thisIndex'
p2381
I5
sg15
(lp2382
S'd'
asg30
VF
sg17
S'Y'
sg14
I6
sg19
(lp2383
S'space'
p2384
asg94
I5
sa(dp2385
g16
(lp2386
S'd'
asg18
S'N'
sS'.thisRepN'
p2387
I18
sg20
S'N'
sg31
g32
sS'.thisTrialN'
p2388
I0
sS'.thisN'
p2389
I270
sS'.thisIndex'
p2390
I8
sg15
(lp2391
S'k'
asg30
VF
sg17
S'N'
sg14
I6
sg19
(lp2392
S'space'
p2393
asg94
I8
sa(dp2394
g16
(lp2395
S'd'
asg18
S'N'
sS'.thisRepN'
p2396
I18
sg20
S'N'
sg31
g32
sS'.thisTrialN'
p2397
I1
sS'.thisN'
p2398
I271
sS'.thisIndex'
p2399
I9
sg15
(lp2400
S'd'
asg30
VF
sg17
S'Y'
sg14
I6
sg19
(lp2401
S'space'
p2402
asg94
I9
sa(dp2403
g16
(lp2404
S'k'
asg18
S'Y'
sS'.thisRepN'
p2405
I18
sg20
S'Y'
sg31
g32
sS'.thisTrialN'
p2406
I2
sS'.thisN'
p2407
I272
sS'.thisIndex'
p2408
I8
sg15
(lp2409
S'd'
asg30
VF
sg17
S'N'
sg14
I6
sg19
(lp2410
S'space'
p2411
asg94
I8
sa(dp2412
g16
(lp2413
S'd'
asg18
S'Y'
sS'.thisRepN'
p2414
I18
sg20
S'Y'
sg31
g32
sS'.thisTrialN'
p2415
I3
sS'.thisN'
p2416
I273
sS'.thisIndex'
p2417
I13
sg15
(lp2418
S'k'
asg30
VF
sg17
S'N'
sg14
I6
sg19
(lp2419
S'space'
p2420
asg94
I13
sa(dp2421
g16
(lp2422
S'd'
asg18
S'N'
sS'.thisRepN'
p2423
I18
sg20
S'Y'
sg31
g32
sS'.thisTrialN'
p2424
I4
sS'.thisN'
p2425
I274
sS'.thisIndex'
p2426
I12
sg15
(lp2427
S'd'
asg30
VF
sg17
S'Y'
sg14
I6
sg19
Nsg94
I12
sa(dp2428
g16
(lp2429
S'd'
asg18
S'N'
sS'.thisRepN'
p2430
I18
sg20
S'Y'
sg31
g32
sS'.thisTrialN'
p2431
I5
sS'.thisN'
p2432
I275
sS'.thisIndex'
p2433
I13
sg15
(lp2434
S'd'
asg30
VF
sg17
S'Y'
sg14
I6
sg19
Nsg94
I13
sa(dp2435
g16
(lp2436
S'k'
asg18
S'N'
sS'.thisRepN'
p2437
I18
sg20
S'Y'
sg31
g32
sS'.thisTrialN'
p2438
I6
sS'.thisN'
p2439
I276
sS'.thisIndex'
p2440
I14
sg15
(lp2441
S'k'
asg30
VF
sg17
S'Y'
sg14
I6
sg19
Nsg94
I14
sa(dp2442
g16
(lp2443
S'd'
asg18
S'Y'
sS'.thisRepN'
p2444
I18
sg20
S'N'
sg31
g32
sS'.thisTrialN'
p2445
I7
sS'.thisN'
p2446
I277
sS'.thisIndex'
p2447
I3
sg15
(lp2448
S'd'
asg30
VF
sg17
S'Y'
sg14
I6
sg19
Nsg94
I3
sa(dp2449
g16
(lp2450
S'd'
asg18
S'N'
sS'.thisRepN'
p2451
I18
sg20
S'Y'
sg31
g32
sS'.thisTrialN'
p2452
I8
sS'.thisN'
p2453
I278
sS'.thisIndex'
p2454
I10
sg15
(lp2455
S'k'
asg30
VF
sg17
S'N'
sg14
I6
sg19
Nsg94
I10
sa(dp2456
g16
(lp2457
S'd'
asg18
S'N'
sS'.thisRepN'
p2458
I18
sg20
S'Y'
sg31
g32
sS'.thisTrialN'
p2459
I9
sS'.thisN'
p2460
I279
sS'.thisIndex'
p2461
I0
sg15
(lp2462
S'd'
asg30
VF
sg17
S'Y'
sg14
I6
sg19
Nsg94
I0
sa(dp2463
g16
(lp2464
S'd'
asg18
S'Y'
sS'.thisRepN'
p2465
I18
sg20
S'N'
sg31
g32
sS'.thisTrialN'
p2466
I10
sS'.thisN'
p2467
I280
sS'.thisIndex'
p2468
I14
sg15
(lp2469
S'k'
asg30
VF
sg17
S'N'
sg14
I6
sg19
Nsg94
I14
sa(dp2470
g16
(lp2471
S'd'
asg18
S'N'
sS'.thisRepN'
p2472
I18
sg20
S'Y'
sg31
g32
sS'.thisTrialN'
p2473
I11
sS'.thisN'
p2474
I281
sS'.thisIndex'
p2475
I2
sg15
(lp2476
S'd'
asg30
VF
sg17
S'Y'
sg14
I6
sg19
Nsg94
I2
sa(dp2477
g16
(lp2478
S'd'
asg18
S'N'
sS'.thisRepN'
p2479
I18
sg20
S'Y'
sg31
g32
sS'.thisTrialN'
p2480
I12
sS'.thisN'
p2481
I282
sS'.thisIndex'
p2482
I4
sg15
(lp2483
S'k'
asg30
VF
sg17
S'N'
sg14
I6
sg19
Nsg94
I4
sa(dp2484
g16
(lp2485
S'd'
asg18
S'Y'
sS'.thisRepN'
p2486
I18
sg20
S'N'
sg31
g32
sS'.thisTrialN'
p2487
I13
sS'.thisN'
p2488
I283
sS'.thisIndex'
p2489
I11
sg15
(lp2490
S'd'
asg30
VF
sg17
S'Y'
sg14
I6
sg19
Nsg94
I11
sa(dp2491
g16
(lp2492
S'd'
asg18
S'N'
sS'.thisRepN'
p2493
I18
sg20
S'N'
sg31
g32
sS'.thisTrialN'
p2494
I14
sS'.thisN'
p2495
I284
sS'.thisIndex'
p2496
I0
sg15
(lp2497
S'k'
asg30
VF
sg17
S'N'
sg14
I6
sg19
(lp2498
S'space'
p2499
asg94
I0
sa(dp2500
g16
(lp2501
S'k'
asg18
S'N'
sS'.thisRepN'
p2502
I19
sg20
S'N'
sg31
g32
sS'.thisTrialN'
p2503
I0
sS'.thisN'
p2504
I285
sS'.thisIndex'
p2505
I11
sg15
(lp2506
S'd'
asg30
VF
sg17
S'N'
sg14
I6
sg19
(lp2507
S'space'
p2508
asg94
I11
sa(dp2509
g16
(lp2510
S'd'
asg18
S'N'
sS'.thisRepN'
p2511
I19
sg20
S'N'
sg31
g32
sS'.thisTrialN'
p2512
I1
sS'.thisN'
p2513
I286
sS'.thisIndex'
p2514
I12
sg15
(lp2515
S'k'
asg30
VF
sg17
S'N'
sg14
I6
sg19
(lp2516
S'space'
p2517
asg94
I12
sa(dp2518
g16
(lp2519
S'k'
asg18
S'Y'
sS'.thisRepN'
p2520
I19
sg20
S'Y'
sg31
g32
sS'.thisTrialN'
p2521
I2
sS'.thisN'
p2522
I287
sS'.thisIndex'
p2523
I13
sg15
(lp2524
S'd'
asg30
VF
sg17
S'N'
sg14
I6
sg19
(lp2525
S'space'
p2526
asg94
I13
sa(dp2527
g16
(lp2528
S'k'
asg18
S'Y'
sS'.thisRepN'
p2529
I19
sg20
S'Y'
sg31
g32
sS'.thisTrialN'
p2530
I3
sS'.thisN'
p2531
I288
sS'.thisIndex'
p2532
I13
sg15
(lp2533
S'k'
asg30
VF
sg17
S'Y'
sg14
I6
sg19
(lp2534
S'space'
p2535
asg94
I13
sa(dp2536
g16
(lp2537
S'd'
asg18
S'N'
sS'.thisRepN'
p2538
I19
sg20
S'N'
sg31
g32
sS'.thisTrialN'
p2539
I4
sS'.thisN'
p2540
I289
sS'.thisIndex'
p2541
I4
sg15
(lp2542
S'k'
asg30
VF
sg17
S'N'
sg14
I6
sg19
(lp2543
S'k'
asg94
I4
sa(dp2544
g16
(lp2545
S'd'
asg18
S'Y'
sS'.thisRepN'
p2546
I19
sg20
S'Y'
sg31
g32
sS'.thisTrialN'
p2547
I5
sS'.thisN'
p2548
I290
sS'.thisIndex'
p2549
I3
sg15
(lp2550
S'd'
asg30
VF
sg17
S'Y'
sg14
I6
sg19
(lp2551
S'space'
p2552
asg94
I3
sa(dp2553
g16
(lp2554
S'd'
asg18
S'Y'
sS'.thisRepN'
p2555
I19
sg20
S'Y'
sg31
g32
sS'.thisTrialN'
p2556
I6
sS'.thisN'
p2557
I291
sS'.thisIndex'
p2558
I9
sg15
(lp2559
S'k'
asg30
VF
sg17
S'N'
sg14
I6
sg19
(lp2560
S'space'
p2561
asg94
I9
sa(dp2562
g16
(lp2563
S'd'
asg18
S'N'
sS'.thisRepN'
p2564
I19
sg20
S'N'
sg31
g32
sS'.thisTrialN'
p2565
I7
sS'.thisN'
p2566
I292
sS'.thisIndex'
p2567
I2
sg15
(lp2568
S'd'
asg30
VF
sg17
S'Y'
sg14
I6
sg19
(lp2569
S'space'
p2570
asg94
I2
sa(dp2571
g16
(lp2572
S'd'
asg18
S'Y'
sS'.thisRepN'
p2573
I19
sg20
S'Y'
sg31
g32
sS'.thisTrialN'
p2574
I8
sS'.thisN'
p2575
I293
sS'.thisIndex'
p2576
I9
sg15
(lp2577
S'k'
asg30
VF
sg17
S'N'
sg14
I6
sg19
(lp2578
S'space'
p2579
asg94
I9
sa(dp2580
g16
(lp2581
S'k'
asg18
S'Y'
sS'.thisRepN'
p2582
I19
sg20
S'Y'
sg31
g32
sS'.thisTrialN'
p2583
I9
sS'.thisN'
p2584
I294
sS'.thisIndex'
p2585
I1
sg15
(lp2586
S'd'
asg30
VF
sg17
S'N'
sg14
I6
sg19
(lp2587
S'space'
p2588
asg94
I1
sa(dp2589
g16
(lp2590
S'k'
asg18
S'Y'
sS'.thisRepN'
p2591
I19
sg20
S'Y'
sg31
g32
sS'.thisTrialN'
p2592
I10
sS'.thisN'
p2593
I295
sS'.thisIndex'
p2594
I11
sg15
(lp2595
S'k'
asg30
VF
sg17
S'Y'
sg14
I6
sg19
(lp2596
S'space'
p2597
asg94
I11
sa(dp2598
g16
(lp2599
S'k'
asg18
S'N'
sS'.thisRepN'
p2600
I19
sg20
S'N'
sg31
g32
sS'.thisTrialN'
p2601
I11
sS'.thisN'
p2602
I296
sS'.thisIndex'
p2603
I1
sg15
(lp2604
S'd'
asg30
VF
sg17
S'N'
sg14
I6
sg19
(lp2605
S'space'
p2606
asg94
I1
sa(dp2607
g16
(lp2608
S'k'
asg18
S'N'
sS'.thisRepN'
p2609
I19
sg20
S'N'
sg31
g32
sS'.thisTrialN'
p2610
I12
sS'.thisN'
p2611
I297
sS'.thisIndex'
p2612
I11
sg15
(lp2613
S'k'
asg30
VF
sg17
S'Y'
sg14
I6
sg19
(lp2614
S'space'
p2615
asg94
I11
sa(dp2616
g16
(lp2617
S'd'
asg18
S'N'
sS'.thisRepN'
p2618
I19
sg20
S'N'
sg31
g32
sS'.thisTrialN'
p2619
I13
sS'.thisN'
p2620
I298
sS'.thisIndex'
p2621
I14
sg15
(lp2622
S'k'
asg30
VF
sg17
S'N'
sg14
I6
sg19
(lp2623
S'space'
p2624
asg94
I14
sa(dp2625
g16
(lp2626
S'k'
asg18
S'N'
sg22
I23
sS'.thisN'
p2627
I299
sg20
S'N'
sg31
g32
sS'.thisTrialN'
p2628
I14
sS'.thisRepN'
p2629
I19
sg21
I26
sS'.thisIndex'
p2630
I12
sg23
I18
sg15
(lp2631
S'd'
asg30
VF
sg17
S'N'
sg14
I6
sg19
(lp2632
S'space'
p2633
asg94
I12
sa(dp2634
g16
(lp2635
S'd'
asg94
I3
sS'.thisRepN'
p2636
I20
sg30
VF
sg31
g32
sS'.thisTrialN'
p2637
I0
sS'.thisN'
p2638
I300
sS'.thisIndex'
p2639
I3
sg15
(lp2640
S'k'
asg17
S'N'
sg14
I7
sa(dp2641
g16
(lp2642
S'k'
asg94
I6
sS'.thisRepN'
p2643
I20
sg30
VF
sg31
g32
sS'.thisTrialN'
p2644
I1
sS'.thisN'
p2645
I301
sS'.thisIndex'
p2646
I6
sg15
(lp2647
S'k'
asg17
S'Y'
sg14
I7
sa(dp2648
g16
(lp2649
S'd'
asg18
S'N'
sS'.thisRepN'
p2650
I20
sg20
S'Y'
sg31
g32
sS'.thisTrialN'
p2651
I2
sS'.thisN'
p2652
I302
sS'.thisIndex'
p2653
I10
sg15
(lp2654
S'd'
asg30
VF
sg17
S'Y'
sg14
I7
sg19
Nsg94
I10
sa(dp2655
g16
(lp2656
S'd'
asg18
S'Y'
sS'.thisRepN'
p2657
I20
sg20
S'Y'
sg31
g32
sS'.thisTrialN'
p2658
I3
sS'.thisN'
p2659
I303
sS'.thisIndex'
p2660
I1
sg15
(lp2661
S'k'
asg30
VF
sg17
S'N'
sg14
I7
sg19
(lp2662
S'space'
p2663
asg94
I1
sa(dp2664
g16
(lp2665
S'k'
asg18
S'Y'
sS'.thisRepN'
p2666
I20
sg20
S'Y'
sg31
g32
sS'.thisTrialN'
p2667
I4
sS'.thisN'
p2668
I304
sS'.thisIndex'
p2669
I10
sg15
(lp2670
S'd'
asg30
VF
sg17
S'N'
sg14
I7
sg19
(lp2671
S'space'
p2672
asg94
I10
sa(dp2673
g16
(lp2674
S'd'
asg18
S'N'
sS'.thisRepN'
p2675
I20
sg20
S'Y'
sg31
g32
sS'.thisTrialN'
p2676
I5
sS'.thisN'
p2677
I305
sS'.thisIndex'
p2678
I5
sg15
(lp2679
S'k'
asg30
VF
sg17
S'N'
sg14
I7
sg19
Nsg94
I5
sa(dp2680
g16
(lp2681
S'k'
asg18
S'Y'
sS'.thisRepN'
p2682
I20
sg20
S'Y'
sg31
g32
sS'.thisTrialN'
p2683
I6
sS'.thisN'
p2684
I306
sS'.thisIndex'
p2685
I2
sg15
(lp2686
S'd'
asg30
VF
sg17
S'N'
sg14
I7
sg19
(lp2687
S'space'
p2688
asg94
I2
sa(dp2689
g16
(lp2690
S'd'
asg18
S'N'
sS'.thisRepN'
p2691
I20
sg20
S'N'
sg31
g32
sS'.thisTrialN'
p2692
I7
sS'.thisN'
p2693
I307
sS'.thisIndex'
p2694
I1
sg15
(lp2695
S'k'
asg30
VF
sg17
S'N'
sg14
I7
sg19
(lp2696
S'space'
p2697
asg94
I1
sa(dp2698
g16
(lp2699
S'k'
asg18
S'Y'
sS'.thisRepN'
p2700
I20
sg20
S'Y'
sg31
g32
sS'.thisTrialN'
p2701
I8
sS'.thisN'
p2702
I308
sS'.thisIndex'
p2703
I11
sg15
(lp2704
S'd'
asg30
VF
sg17
S'N'
sg14
I7
sg19
(lp2705
S'space'
p2706
asg94
I11
sa(dp2707
g16
(lp2708
S'd'
asg18
S'Y'
sS'.thisRepN'
p2709
I20
sg20
S'Y'
sg31
g32
sS'.thisTrialN'
p2710
I9
sS'.thisN'
p2711
I309
sS'.thisIndex'
p2712
I2
sg15
(lp2713
S'd'
asg30
VF
sg17
S'Y'
sg14
I7
sg19
(lp2714
S'space'
p2715
asg94
I2
sa(dp2716
g16
(lp2717
S'k'
asg18
S'Y'
sS'.thisRepN'
p2718
I20
sg20
S'Y'
sg31
g32
sS'.thisTrialN'
p2719
I10
sS'.thisN'
p2720
I310
sS'.thisIndex'
p2721
I2
sg15
(lp2722
S'd'
asg30
VF
sg17
S'N'
sg14
I7
sg19
(lp2723
S'space'
p2724
asg94
I2
sa(dp2725
g16
(lp2726
S'd'
asg18
S'N'
sS'.thisRepN'
p2727
I20
sg20
S'N'
sg31
g32
sS'.thisTrialN'
p2728
I11
sS'.thisN'
p2729
I311
sS'.thisIndex'
p2730
I0
sg15
(lp2731
S'k'
asg30
VF
sg17
S'N'
sg14
I7
sg19
(lp2732
S'space'
p2733
asg94
I0
sa(dp2734
g16
(lp2735
S'k'
asg18
S'N'
sS'.thisRepN'
p2736
I20
sg20
S'N'
sg31
g32
sS'.thisTrialN'
p2737
I12
sS'.thisN'
p2738
I312
sS'.thisIndex'
p2739
I12
sg15
(lp2740
S'd'
asg30
VF
sg17
S'N'
sg14
I7
sg19
(lp2741
S'space'
p2742
asg94
I12
sa(dp2743
g16
(lp2744
S'k'
asg18
S'N'
sS'.thisRepN'
p2745
I20
sg20
S'N'
sg31
g32
sS'.thisTrialN'
p2746
I13
sS'.thisN'
p2747
I313
sS'.thisIndex'
p2748
I7
sg15
(lp2749
S'k'
asg30
VF
sg17
S'Y'
sg14
I7
sg19
(lp2750
S'space'
p2751
asg94
I7
sa(dp2752
g16
(lp2753
S'd'
asg18
S'Y'
sS'.thisRepN'
p2754
I20
sg20
S'N'
sg31
g32
sS'.thisTrialN'
p2755
I14
sS'.thisN'
p2756
I314
sS'.thisIndex'
p2757
I3
sg15
(lp2758
S'k'
asg30
VF
sg17
S'N'
sg14
I7
sg19
(lp2759
S'k'
asg94
I3
sa(dp2760
g16
(lp2761
S'd'
asg18
S'N'
sS'.thisRepN'
p2762
I21
sg20
S'Y'
sg31
g32
sS'.thisTrialN'
p2763
I0
sS'.thisN'
p2764
I315
sS'.thisIndex'
p2765
I2
sg15
(lp2766
S'd'
asg30
VF
sg17
S'Y'
sg14
I7
sg19
Nsg94
I2
sa(dp2767
g16
(lp2768
S'k'
asg18
S'Y'
sS'.thisRepN'
p2769
I21
sg20
S'Y'
sg31
g32
sS'.thisTrialN'
p2770
I1
sS'.thisN'
p2771
I316
sS'.thisIndex'
p2772
I1
sg15
(lp2773
S'd'
asg30
VF
sg17
S'N'
sg14
I7
sg19
(lp2774
S'space'
p2775
asg94
I1
sa(dp2776
g16
(lp2777
S'k'
asg18
S'N'
sS'.thisRepN'
p2778
I21
sg20
S'Y'
sg31
g32
sS'.thisTrialN'
p2779
I2
sS'.thisN'
p2780
I317
sS'.thisIndex'
p2781
I2
sg15
(lp2782
S'k'
asg30
VF
sg17
S'Y'
sg14
I7
sg19
Nsg94
I2
sa(dp2783
g16
(lp2784
S'd'
asg18
S'Y'
sS'.thisRepN'
p2785
I21
sg20
S'Y'
sg31
g32
sS'.thisTrialN'
p2786
I3
sS'.thisN'
p2787
I318
sS'.thisIndex'
p2788
I1
sg15
(lp2789
S'd'
asg30
VF
sg17
S'Y'
sg14
I7
sg19
(lp2790
S'space'
p2791
asg94
I1
sa(dp2792
g16
(lp2793
S'k'
asg18
S'Y'
sS'.thisRepN'
p2794
I21
sg20
S'Y'
sg31
g32
sS'.thisTrialN'
p2795
I4
sS'.thisN'
p2796
I319
sS'.thisIndex'
p2797
I6
sg15
(lp2798
S'k'
asg30
VF
sg17
S'Y'
sg14
I7
sg19
(lp2799
S'space'
p2800
asg94
I6
sa(dp2801
g16
(lp2802
S'k'
asg18
S'Y'
sS'.thisRepN'
p2803
I21
sg20
S'Y'
sg31
g32
sS'.thisTrialN'
p2804
I5
sS'.thisN'
p2805
I320
sS'.thisIndex'
p2806
I11
sg15
(lp2807
S'd'
asg30
VF
sg17
S'N'
sg14
I7
sg19
(lp2808
S'space'
p2809
asg94
I11
sa(dp2810
g16
(lp2811
S'k'
asg18
S'N'
sS'.thisRepN'
p2812
I21
sg20
S'N'
sg31
g32
sS'.thisTrialN'
p2813
I6
sS'.thisN'
p2814
I321
sS'.thisIndex'
p2815
I13
sg15
(lp2816
S'k'
asg30
VF
sg17
S'Y'
sg14
I7
sg19
(lp2817
S'space'
p2818
asg94
I13
sa(dp2819
g16
(lp2820
S'k'
asg18
S'N'
sS'.thisRepN'
p2821
I21
sg20
S'N'
sg31
g32
sS'.thisTrialN'
p2822
I7
sS'.thisN'
p2823
I322
sS'.thisIndex'
p2824
I9
sg15
(lp2825
S'd'
asg30
VF
sg17
S'N'
sg14
I7
sg19
(lp2826
S'space'
p2827
asg94
I9
sa(dp2828
g16
(lp2829
S'd'
asg18
S'N'
sS'.thisRepN'
p2830
I21
sg20
S'Y'
sg31
g32
sS'.thisTrialN'
p2831
I8
sS'.thisN'
p2832
I323
sS'.thisIndex'
p2833
I3
sg15
(lp2834
S'k'
asg30
VF
sg17
S'N'
sg14
I7
sg19
Nsg94
I3
sa(dp2835
g16
(lp2836
S'k'
asg18
S'N'
sS'.thisRepN'
p2837
I21
sg20
S'Y'
sg31
g32
sS'.thisTrialN'
p2838
I9
sS'.thisN'
p2839
I324
sS'.thisIndex'
p2840
I8
sg15
(lp2841
S'd'
asg30
VF
sg17
S'N'
sg14
I7
sg19
Nsg94
I8
sa(dp2842
g16
(lp2843
S'd'
asg18
S'N'
sS'.thisRepN'
p2844
I21
sg20
S'N'
sg31
g32
sS'.thisTrialN'
p2845
I10
sS'.thisN'
p2846
I325
sS'.thisIndex'
p2847
I10
sg15
(lp2848
S'k'
asg30
VF
sg17
S'N'
sg14
I7
sg19
(lp2849
S'space'
p2850
asg94
I10
sa(dp2851
g16
(lp2852
S'k'
asg18
S'N'
sS'.thisRepN'
p2853
I21
sg20
S'N'
sg31
g32
sS'.thisTrialN'
p2854
I11
sS'.thisN'
p2855
I326
sS'.thisIndex'
p2856
I6
sg15
(lp2857
S'd'
asg30
VF
sg17
S'N'
sg14
I7
sg19
(lp2858
S'space'
p2859
asg94
I6
sa(dp2860
g16
(lp2861
S'k'
asg18
S'Y'
sS'.thisRepN'
p2862
I21
sg20
S'Y'
sg31
g32
sS'.thisTrialN'
p2863
I12
sS'.thisN'
p2864
I327
sS'.thisIndex'
p2865
I4
sg15
(lp2866
S'k'
asg30
VF
sg17
S'Y'
sg14
I7
sg19
(lp2867
S'space'
p2868
asg94
I4
sa(dp2869
g16
(lp2870
S'k'
asg18
S'N'
sS'.thisRepN'
p2871
I21
sg20
S'N'
sg31
g32
sS'.thisTrialN'
p2872
I13
sS'.thisN'
p2873
I328
sS'.thisIndex'
p2874
I0
sg15
(lp2875
S'k'
asg30
VF
sg17
S'Y'
sg14
I7
sg19
(lp2876
S'space'
p2877
asg94
I0
sa(dp2878
g16
(lp2879
S'd'
asg18
S'N'
sS'.thisRepN'
p2880
I21
sg20
S'N'
sg31
g32
sS'.thisTrialN'
p2881
I14
sS'.thisN'
p2882
I329
sS'.thisIndex'
p2883
I7
sg15
(lp2884
S'k'
asg30
VF
sg17
S'N'
sg14
I7
sg19
(lp2885
S'space'
p2886
asg94
I7
sa(dp2887
g16
(lp2888
S'k'
asg18
S'N'
sS'.thisRepN'
p2889
I22
sg20
S'N'
sg31
g32
sS'.thisTrialN'
p2890
I0
sS'.thisN'
p2891
I330
sS'.thisIndex'
p2892
I3
sg15
(lp2893
S'd'
asg30
VF
sg17
S'N'
sg14
I7
sg19
(lp2894
S'space'
p2895
asg94
I3
sa(dp2896
g16
(lp2897
S'k'
asg18
S'N'
sS'.thisRepN'
p2898
I22
sg20
S'N'
sg31
g32
sS'.thisTrialN'
p2899
I1
sS'.thisN'
p2900
I331
sS'.thisIndex'
p2901
I9
sg15
(lp2902
S'k'
asg30
VF
sg17
S'Y'
sg14
I7
sg19
(lp2903
S'space'
p2904
asg94
I9
sa(dp2905
g16
(lp2906
S'd'
asg18
S'Y'
sS'.thisRepN'
p2907
I22
sg20
S'Y'
sg31
g32
sS'.thisTrialN'
p2908
I2
sS'.thisN'
p2909
I332
sS'.thisIndex'
p2910
I10
sg15
(lp2911
S'd'
asg30
VF
sg17
S'Y'
sg14
I7
sg19
(lp2912
S'space'
p2913
asg94
I10
sa(dp2914
g16
(lp2915
S'd'
asg18
S'Y'
sS'.thisRepN'
p2916
I22
sg20
S'Y'
sg31
g32
sS'.thisTrialN'
p2917
I3
sS'.thisN'
p2918
I333
sS'.thisIndex'
p2919
I12
sg15
(lp2920
S'k'
asg30
VF
sg17
S'N'
sg14
I7
sg19
(lp2921
S'space'
p2922
asg94
I12
sa(dp2923
g16
(lp2924
S'd'
asg18
S'N'
sS'.thisRepN'
p2925
I22
sg20
S'N'
sg31
g32
sS'.thisTrialN'
p2926
I4
sS'.thisN'
p2927
I334
sS'.thisIndex'
p2928
I1
sg15
(lp2929
S'd'
asg30
VF
sg17
S'Y'
sg14
I7
sg19
(lp2930
S'space'
p2931
asg94
I1
sa(dp2932
g16
(lp2933
S'd'
asg18
S'N'
sS'.thisRepN'
p2934
I22
sg20
S'N'
sg31
g32
sS'.thisTrialN'
p2935
I5
sS'.thisN'
p2936
I335
sS'.thisIndex'
p2937
I6
sg15
(lp2938
S'd'
asg30
VF
sg17
S'Y'
sg14
I7
sg19
(lp2939
S'space'
p2940
asg94
I6
sa(dp2941
g16
(lp2942
S'd'
asg18
S'N'
sS'.thisRepN'
p2943
I22
sg20
S'N'
sg31
g32
sS'.thisTrialN'
p2944
I6
sS'.thisN'
p2945
I336
sS'.thisIndex'
p2946
I0
sg15
(lp2947
S'k'
asg30
VF
sg17
S'N'
sg14
I7
sg19
(lp2948
S'space'
p2949
asg94
I0
sa(dp2950
g16
(lp2951
S'd'
asg18
S'N'
sS'.thisRepN'
p2952
I22
sg20
S'N'
sg31
g32
sS'.thisTrialN'
p2953
I7
sS'.thisN'
p2954
I337
sS'.thisIndex'
p2955
I13
sg15
(lp2956
S'd'
asg30
VF
sg17
S'Y'
sg14
I7
sg19
(lp2957
S'space'
p2958
asg94
I13
sa(dp2959
g16
(lp2960
S'd'
asg18
S'Y'
sS'.thisRepN'
p2961
I22
sg20
S'Y'
sg31
g32
sS'.thisTrialN'
p2962
I8
sS'.thisN'
p2963
I338
sS'.thisIndex'
p2964
I11
sg15
(lp2965
S'k'
asg30
VF
sg17
S'N'
sg14
I7
sg19
(lp2966
S'space'
p2967
asg94
I11
sa(dp2968
g16
(lp2969
S'k'
asg18
S'N'
sS'.thisRepN'
p2970
I22
sg20
S'N'
sg31
g32
sS'.thisTrialN'
p2971
I9
sS'.thisN'
p2972
I339
sS'.thisIndex'
p2973
I14
sg15
(lp2974
S'd'
asg30
VF
sg17
S'N'
sg14
I7
sg19
(lp2975
S'space'
p2976
asg94
I14
sa(dp2977
g16
(lp2978
S'd'
asg18
S'N'
sS'.thisRepN'
p2979
I22
sg20
S'N'
sg31
g32
sS'.thisTrialN'
p2980
I10
sS'.thisN'
p2981
I340
sS'.thisIndex'
p2982
I2
sg15
(lp2983
S'k'
asg30
VF
sg17
S'N'
sg14
I7
sg19
(lp2984
S'space'
p2985
asg94
I2
sa(dp2986
g16
(lp2987
S'k'
asg18
S'N'
sS'.thisRepN'
p2988
I22
sg20
S'N'
sg31
g32
sS'.thisTrialN'
p2989
I11
sS'.thisN'
p2990
I341
sS'.thisIndex'
p2991
I11
sg15
(lp2992
S'd'
asg30
VF
sg17
S'N'
sg14
I7
sg19
(lp2993
S'space'
p2994
asg94
I11
sa(dp2995
g16
(lp2996
S'd'
asg18
S'N'
sS'.thisRepN'
p2997
I22
sg20
S'N'
sg31
g32
sS'.thisTrialN'
p2998
I12
sS'.thisN'
p2999
I342
sS'.thisIndex'
p3000
I11
sg15
(lp3001
S'd'
asg30
VF
sg17
S'Y'
sg14
I7
sg19
(lp3002
S'space'
p3003
asg94
I11
sa(dp3004
g16
(lp3005
S'd'
asg18
S'Y'
sS'.thisRepN'
p3006
I22
sg20
S'Y'
sg31
g32
sS'.thisTrialN'
p3007
I13
sS'.thisN'
p3008
I343
sS'.thisIndex'
p3009
I8
sg15
(lp3010
S'd'
asg30
VF
sg17
S'Y'
sg14
I7
sg19
(lp3011
S'space'
p3012
asg94
I8
sa(dp3013
g16
(lp3014
S'k'
asg18
S'Y'
sS'.thisRepN'
p3015
I22
sg20
S'Y'
sg31
g32
sS'.thisTrialN'
p3016
I14
sS'.thisN'
p3017
I344
sS'.thisIndex'
p3018
I3
sg15
(lp3019
S'd'
asg30
VF
sg17
S'N'
sg14
I7
sg19
(lp3020
S'space'
p3021
asg94
I3
sa(dp3022
g16
(lp3023
S'k'
asg18
S'Y'
sS'.thisRepN'
p3024
I23
sg20
S'Y'
sg31
g32
sS'.thisTrialN'
p3025
I0
sS'.thisN'
p3026
I345
sS'.thisIndex'
p3027
I12
sg15
(lp3028
S'k'
asg30
VF
sg17
S'Y'
sg14
I7
sg19
(lp3029
S'space'
p3030
asg94
I12
sa(dp3031
g16
(lp3032
S'k'
asg18
S'Y'
sS'.thisRepN'
p3033
I23
sg20
S'Y'
sg31
g32
sS'.thisTrialN'
p3034
I1
sS'.thisN'
p3035
I346
sS'.thisIndex'
p3036
I9
sg15
(lp3037
S'k'
asg30
VF
sg17
S'Y'
sg14
I7
sg19
(lp3038
S'space'
p3039
asg94
I9
sa(dp3040
g16
(lp3041
S'k'
asg18
S'Y'
sS'.thisRepN'
p3042
I23
sg20
S'Y'
sg31
g32
sS'.thisTrialN'
p3043
I2
sS'.thisN'
p3044
I347
sS'.thisIndex'
p3045
I12
sg15
(lp3046
S'd'
asg30
VF
sg17
S'N'
sg14
I7
sg19
(lp3047
S'space'
p3048
asg94
I12
sa(dp3049
g16
(lp3050
S'd'
asg18
S'N'
sS'.thisRepN'
p3051
I23
sg20
S'Y'
sg31
g32
sS'.thisTrialN'
p3052
I3
sS'.thisN'
p3053
I348
sS'.thisIndex'
p3054
I4
sg15
(lp3055
S'k'
asg30
VF
sg17
S'N'
sg14
I7
sg19
Nsg94
I4
sa(dp3056
g16
(lp3057
S'd'
asg18
S'Y'
sg22
I26
sS'.thisN'
p3058
I349
sg20
S'N'
sg31
g32
sS'.thisTrialN'
p3059
I4
sS'.thisRepN'
p3060
I23
sg21
I21
sS'.thisIndex'
p3061
I0
sg23
I21
sg15
(lp3062
S'd'
asg30
VF
sg17
S'Y'
sg14
I7
sg19
Nsg94
I0
sa(dp3063
g16
(lp3064
S'd'
asg94
I2
sS'.thisRepN'
p3065
I23
sg30
VF
sg31
g32
sS'.thisTrialN'
p3066
I5
sS'.thisN'
p3067
I350
sS'.thisIndex'
p3068
I2
sg15
(lp3069
S'd'
asg17
S'Y'
sg14
I8
sa(dp3070
g16
(lp3071
S'k'
asg94
I14
sS'.thisRepN'
p3072
I23
sg30
VF
sg31
g32
sS'.thisTrialN'
p3073
I6
sS'.thisN'
p3074
I351
sS'.thisIndex'
p3075
I14
sg15
(lp3076
S'k'
asg17
S'Y'
sg14
I8
sa(dp3077
g16
(lp3078
S'k'
asg18
S'Y'
sS'.thisRepN'
p3079
I23
sg20
S'Y'
sg31
g32
sS'.thisTrialN'
p3080
I7
sS'.thisN'
p3081
I352
sS'.thisIndex'
p3082
I1
sg15
(lp3083
S'd'
asg30
VF
sg17
S'N'
sg14
I8
sg19
(lp3084
S'space'
p3085
asg94
I1
sa(dp3086
g16
(lp3087
S'd'
asg18
S'N'
sS'.thisRepN'
p3088
I23
sg20
S'Y'
sg31
g32
sS'.thisTrialN'
p3089
I8
sS'.thisN'
p3090
I353
sS'.thisIndex'
p3091
I6
sg15
(lp3092
S'k'
asg30
VF
sg17
S'N'
sg14
I8
sg19
Nsg94
I6
sa(dp3093
g16
(lp3094
S'd'
asg18
S'N'
sS'.thisRepN'
p3095
I23
sg20
S'Y'
sg31
g32
sS'.thisTrialN'
p3096
I9
sS'.thisN'
p3097
I354
sS'.thisIndex'
p3098
I9
sg15
(lp3099
S'd'
asg30
VF
sg17
S'Y'
sg14
I8
sg19
Nsg94
I9
sa(dp3100
g16
(lp3101
S'd'
asg18
S'Y'
sS'.thisRepN'
p3102
I23
sg20
S'Y'
sg31
g32
sS'.thisTrialN'
p3103
I10
sS'.thisN'
p3104
I355
sS'.thisIndex'
p3105
I5
sg15
(lp3106
S'd'
asg30
VF
sg17
S'Y'
sg14
I8
sg19
(lp3107
S'space'
p3108
asg94
I5
sa(dp3109
g16
(lp3110
S'd'
asg18
S'N'
sS'.thisRepN'
p3111
I23
sg20
S'Y'
sg31
g32
sS'.thisTrialN'
p3112
I11
sS'.thisN'
p3113
I356
sS'.thisIndex'
p3114
I5
sg15
(lp3115
S'k'
asg30
VF
sg17
S'N'
sg14
I8
sg19
Nsg94
I5
sa(dp3116
g16
(lp3117
S'd'
asg18
S'Y'
sS'.thisRepN'
p3118
I23
sg20
S'Y'
sg31
g32
sS'.thisTrialN'
p3119
I12
sS'.thisN'
p3120
I357
sS'.thisIndex'
p3121
I10
sg15
(lp3122
S'd'
asg30
VF
sg17
S'Y'
sg14
I8
sg19
(lp3123
S'space'
p3124
asg94
I10
sa(dp3125
g16
(lp3126
S'k'
asg18
S'N'
sS'.thisRepN'
p3127
I23
sg20
S'N'
sg31
g32
sS'.thisTrialN'
p3128
I13
sS'.thisN'
p3129
I358
sS'.thisIndex'
p3130
I4
sg15
(lp3131
S'd'
asg30
VF
sg17
S'N'
sg14
I8
sg19
(lp3132
S'space'
p3133
asg94
I4
sa(dp3134
g16
(lp3135
S'd'
asg18
S'N'
sS'.thisRepN'
p3136
I23
sg20
S'N'
sg31
g32
sS'.thisTrialN'
p3137
I14
sS'.thisN'
p3138
I359
sS'.thisIndex'
p3139
I6
sg15
(lp3140
S'k'
asg30
VF
sg17
S'N'
sg14
I8
sg19
(lp3141
S'space'
p3142
asg94
I6
sa(dp3143
g16
(lp3144
S'd'
asg18
S'N'
sS'.thisRepN'
p3145
I24
sg20
S'N'
sg31
g32
sS'.thisTrialN'
p3146
I0
sS'.thisN'
p3147
I360
sS'.thisIndex'
p3148
I12
sg15
(lp3149
S'd'
asg30
VF
sg17
S'Y'
sg14
I8
sg19
(lp3150
S'space'
p3151
asg94
I12
sa(dp3152
g16
(lp3153
S'k'
asg18
S'Y'
sS'.thisRepN'
p3154
I24
sg20
S'Y'
sg31
g32
sS'.thisTrialN'
p3155
I1
sS'.thisN'
p3156
I361
sS'.thisIndex'
p3157
I0
sg15
(lp3158
S'k'
asg30
VF
sg17
S'Y'
sg14
I8
sg19
(lp3159
S'space'
p3160
asg94
I0
sa(dp3161
g16
(lp3162
S'd'
asg18
S'Y'
sS'.thisRepN'
p3163
I24
sg20
S'N'
sg31
g32
sS'.thisTrialN'
p3164
I2
sS'.thisN'
p3165
I362
sS'.thisIndex'
p3166
I0
sg15
(lp3167
S'd'
asg30
VF
sg17
S'Y'
sg14
I8
sg19
(lp3168
S'k'
asg94
I0
sa(dp3169
g16
(lp3170
S'k'
asg18
S'Y'
sS'.thisRepN'
p3171
I24
sg20
S'Y'
sg31
g32
sS'.thisTrialN'
p3172
I3
sS'.thisN'
p3173
I363
sS'.thisIndex'
p3174
I11
sg15
(lp3175
S'd'
asg30
VF
sg17
S'N'
sg14
I8
sg19
(lp3176
S'space'
p3177
asg94
I11
sa(dp3178
g16
(lp3179
S'k'
asg18
S'Y'
sS'.thisRepN'
p3180
I24
sg20
S'Y'
sg31
g32
sS'.thisTrialN'
p3181
I4
sS'.thisN'
p3182
I364
sS'.thisIndex'
p3183
I14
sg15
(lp3184
S'k'
asg30
VF
sg17
S'Y'
sg14
I8
sg19
(lp3185
S'space'
p3186
asg94
I14
sa(dp3187
g16
(lp3188
S'k'
asg18
S'N'
sS'.thisRepN'
p3189
I24
sg20
S'N'
sg31
g32
sS'.thisTrialN'
p3190
I5
sS'.thisN'
p3191
I365
sS'.thisIndex'
p3192
I13
sg15
(lp3193
S'd'
asg30
VF
sg17
S'N'
sg14
I8
sg19
(lp3194
S'space'
p3195
asg94
I13
sa(dp3196
g16
(lp3197
S'd'
asg18
S'Y'
sS'.thisRepN'
p3198
I24
sg20
S'N'
sg31
g32
sS'.thisTrialN'
p3199
I6
sS'.thisN'
p3200
I366
sS'.thisIndex'
p3201
I3
sg15
(lp3202
S'k'
asg30
VF
sg17
S'N'
sg14
I8
sg19
Nsg94
I3
sa(dp3203
g16
(lp3204
S'd'
asg18
S'N'
sS'.thisRepN'
p3205
I24
sg20
S'N'
sg31
g32
sS'.thisTrialN'
p3206
I7
sS'.thisN'
p3207
I367
sS'.thisIndex'
p3208
I1
sg15
(lp3209
S'd'
asg30
VF
sg17
S'Y'
sg14
I8
sg19
(lp3210
S'space'
p3211
asg94
I1
sa(dp3212
g16
(lp3213
S'd'
asg18
S'N'
sS'.thisRepN'
p3214
I24
sg20
S'N'
sg31
g32
sS'.thisTrialN'
p3215
I8
sS'.thisN'
p3216
I368
sS'.thisIndex'
p3217
I7
sg15
(lp3218
S'k'
asg30
VF
sg17
S'N'
sg14
I8
sg19
(lp3219
S'space'
p3220
asg94
I7
sa(dp3221
g16
(lp3222
S'k'
asg18
S'Y'
sS'.thisRepN'
p3223
I24
sg20
S'Y'
sg31
g32
sS'.thisTrialN'
p3224
I9
sS'.thisN'
p3225
I369
sS'.thisIndex'
p3226
I6
sg15
(lp3227
S'd'
asg30
VF
sg17
S'N'
sg14
I8
sg19
(lp3228
S'space'
p3229
asg94
I6
sa(dp3230
g16
(lp3231
S'd'
asg18
S'Y'
sS'.thisRepN'
p3232
I24
sg20
S'N'
sg31
g32
sS'.thisTrialN'
p3233
I10
sS'.thisN'
p3234
I370
sS'.thisIndex'
p3235
I11
sg15
(lp3236
S'k'
asg30
VF
sg17
S'N'
sg14
I8
sg19
(lp3237
S'k'
asg94
I11
sa(dp3238
g16
(lp3239
S'd'
asg18
S'Y'
sS'.thisRepN'
p3240
I24
sg20
S'Y'
sg31
g32
sS'.thisTrialN'
p3241
I11
sS'.thisN'
p3242
I371
sS'.thisIndex'
p3243
I13
sg15
(lp3244
S'd'
asg30
VF
sg17
S'Y'
sg14
I8
sg19
(lp3245
S'space'
p3246
asg94
I13
sa(dp3247
g16
(lp3248
S'd'
asg18
S'Y'
sS'.thisRepN'
p3249
I24
sg20
S'Y'
sg31
g32
sS'.thisTrialN'
p3250
I12
sS'.thisN'
p3251
I372
sS'.thisIndex'
p3252
I12
sg15
(lp3253
S'd'
asg30
VF
sg17
S'Y'
sg14
I8
sg19
(lp3254
S'space'
p3255
asg94
I12
sa(dp3256
g16
(lp3257
S'k'
asg18
S'N'
sS'.thisRepN'
p3258
I24
sg20
S'N'
sg31
g32
sS'.thisTrialN'
p3259
I13
sS'.thisN'
p3260
I373
sS'.thisIndex'
p3261
I0
sg15
(lp3262
S'k'
asg30
VF
sg17
S'Y'
sg14
I8
sg19
(lp3263
S'space'
p3264
asg94
I0
sa(dp3265
g16
(lp3266
S'k'
asg18
S'Y'
sS'.thisRepN'
p3267
I24
sg20
S'Y'
sg31
g32
sS'.thisTrialN'
p3268
I14
sS'.thisN'
p3269
I374
sS'.thisIndex'
p3270
I0
sg15
(lp3271
S'd'
asg30
VF
sg17
S'N'
sg14
I8
sg19
(lp3272
S'space'
p3273
asg94
I0
sa(dp3274
g16
(lp3275
S'k'
asg18
S'Y'
sS'.thisRepN'
p3276
I25
sg20
S'Y'
sg31
g32
sS'.thisTrialN'
p3277
I0
sS'.thisN'
p3278
I375
sS'.thisIndex'
p3279
I0
sg15
(lp3280
S'k'
asg30
VF
sg17
S'Y'
sg14
I8
sg19
(lp3281
S'space'
p3282
asg94
I0
sa(dp3283
g16
(lp3284
S'd'
asg18
S'Y'
sS'.thisRepN'
p3285
I25
sg20
S'Y'
sg31
g32
sS'.thisTrialN'
p3286
I1
sS'.thisN'
p3287
I376
sS'.thisIndex'
p3288
I0
sg15
(lp3289
S'd'
asg30
VF
sg17
S'Y'
sg14
I8
sg19
(lp3290
S'space'
p3291
asg94
I0
sa(dp3292
g16
(lp3293
S'd'
asg18
S'N'
sS'.thisRepN'
p3294
I25
sg20
S'N'
sg31
g32
sS'.thisTrialN'
p3295
I2
sS'.thisN'
p3296
I377
sS'.thisIndex'
p3297
I3
sg15
(lp3298
S'k'
asg30
VF
sg17
S'N'
sg14
I8
sg19
(lp3299
S'space'
p3300
asg94
I3
sa(dp3301
g16
(lp3302
S'd'
asg18
S'Y'
sS'.thisRepN'
p3303
I25
sg20
S'Y'
sg31
g32
sS'.thisTrialN'
p3304
I3
sS'.thisN'
p3305
I378
sS'.thisIndex'
p3306
I13
sg15
(lp3307
S'd'
asg30
VF
sg17
S'Y'
sg14
I8
sg19
(lp3308
S'space'
p3309
asg94
I13
sa(dp3310
g16
(lp3311
S'd'
asg18
S'Y'
sS'.thisRepN'
p3312
I25
sg20
S'Y'
sg31
g32
sS'.thisTrialN'
p3313
I4
sS'.thisN'
p3314
I379
sS'.thisIndex'
p3315
I9
sg15
(lp3316
S'd'
asg30
VF
sg17
S'Y'
sg14
I8
sg19
(lp3317
S'space'
p3318
asg94
I9
sa(dp3319
g16
(lp3320
S'k'
asg18
S'Y'
sS'.thisRepN'
p3321
I25
sg20
S'Y'
sg31
g32
sS'.thisTrialN'
p3322
I5
sS'.thisN'
p3323
I380
sS'.thisIndex'
p3324
I2
sg15
(lp3325
S'k'
asg30
VF
sg17
S'Y'
sg14
I8
sg19
(lp3326
S'space'
p3327
asg94
I2
sa(dp3328
g16
(lp3329
S'd'
asg18
S'Y'
sS'.thisRepN'
p3330
I25
sg20
S'Y'
sg31
g32
sS'.thisTrialN'
p3331
I6
sS'.thisN'
p3332
I381
sS'.thisIndex'
p3333
I11
sg15
(lp3334
S'k'
asg30
VF
sg17
S'N'
sg14
I8
sg19
(lp3335
S'space'
p3336
asg94
I11
sa(dp3337
g16
(lp3338
S'd'
asg18
S'Y'
sS'.thisRepN'
p3339
I25
sg20
S'Y'
sg31
g32
sS'.thisTrialN'
p3340
I7
sS'.thisN'
p3341
I382
sS'.thisIndex'
p3342
I11
sg15
(lp3343
S'd'
asg30
VF
sg17
S'Y'
sg14
I8
sg19
(lp3344
S'space'
p3345
asg94
I11
sa(dp3346
g16
(lp3347
S'k'
asg18
S'Y'
sS'.thisRepN'
p3348
I25
sg20
S'Y'
sg31
g32
sS'.thisTrialN'
p3349
I8
sS'.thisN'
p3350
I383
sS'.thisIndex'
p3351
I12
sg15
(lp3352
S'k'
asg30
VF
sg17
S'Y'
sg14
I8
sg19
(lp3353
S'space'
p3354
asg94
I12
sa(dp3355
g16
(lp3356
S'k'
asg18
S'N'
sS'.thisRepN'
p3357
I25
sg20
S'N'
sg31
g32
sS'.thisTrialN'
p3358
I9
sS'.thisN'
p3359
I384
sS'.thisIndex'
p3360
I4
sg15
(lp3361
S'd'
asg30
VF
sg17
S'N'
sg14
I8
sg19
(lp3362
S'k'
asg94
I4
sa(dp3363
g16
(lp3364
S'k'
asg18
S'N'
sS'.thisRepN'
p3365
I25
sg20
S'N'
sg31
g32
sS'.thisTrialN'
p3366
I10
sS'.thisN'
p3367
I385
sS'.thisIndex'
p3368
I14
sg15
(lp3369
S'k'
asg30
VF
sg17
S'Y'
sg14
I8
sg19
(lp3370
S'space'
p3371
asg94
I14
sa(dp3372
g16
(lp3373
S'k'
asg18
S'Y'
sS'.thisRepN'
p3374
I25
sg20
S'Y'
sg31
g32
sS'.thisTrialN'
p3375
I11
sS'.thisN'
p3376
I386
sS'.thisIndex'
p3377
I7
sg15
(lp3378
S'd'
asg30
VF
sg17
S'N'
sg14
I8
sg19
(lp3379
S'space'
p3380
asg94
I7
sa(dp3381
g16
(lp3382
S'k'
asg18
S'Y'
sS'.thisRepN'
p3383
I25
sg20
S'Y'
sg31
g32
sS'.thisTrialN'
p3384
I12
sS'.thisN'
p3385
I387
sS'.thisIndex'
p3386
I10
sg15
(lp3387
S'k'
asg30
VF
sg17
S'Y'
sg14
I8
sg19
(lp3388
S'space'
p3389
asg94
I10
sa(dp3390
g16
(lp3391
S'd'
asg18
S'N'
sS'.thisRepN'
p3392
I25
sg20
S'Y'
sg31
g32
sS'.thisTrialN'
p3393
I13
sS'.thisN'
p3394
I388
sS'.thisIndex'
p3395
I9
sg15
(lp3396
S'd'
asg30
VF
sg17
S'Y'
sg14
I8
sg19
Nsg94
I9
sa(dp3397
g16
(lp3398
S'd'
asg18
S'Y'
sS'.thisRepN'
p3399
I25
sg20
S'N'
sg31
g32
sS'.thisTrialN'
p3400
I14
sS'.thisN'
p3401
I389
sS'.thisIndex'
p3402
I12
sg15
(lp3403
S'k'
asg30
VF
sg17
S'N'
sg14
I8
sg19
Nsg94
I12
sa(dp3404
g16
(lp3405
S'k'
asg18
S'Y'
sS'.thisRepN'
p3406
I26
sg20
S'Y'
sg31
g32
sS'.thisTrialN'
p3407
I0
sS'.thisN'
p3408
I390
sS'.thisIndex'
p3409
I9
sg15
(lp3410
S'd'
asg30
VF
sg17
S'N'
sg14
I8
sg19
(lp3411
S'space'
p3412
asg94
I9
sa(dp3413
g16
(lp3414
S'd'
asg18
S'N'
sS'.thisRepN'
p3415
I26
sg20
S'N'
sg31
g32
sS'.thisTrialN'
p3416
I1
sS'.thisN'
p3417
I391
sS'.thisIndex'
p3418
I5
sg15
(lp3419
S'k'
asg30
VF
sg17
S'N'
sg14
I8
sg19
(lp3420
S'space'
p3421
asg94
I5
sa(dp3422
g16
(lp3423
S'd'
asg18
S'N'
sS'.thisRepN'
p3424
I26
sg20
S'N'
sg31
g32
sS'.thisTrialN'
p3425
I2
sS'.thisN'
p3426
I392
sS'.thisIndex'
p3427
I13
sg15
(lp3428
S'd'
asg30
VF
sg17
S'Y'
sg14
I8
sg19
(lp3429
S'd'
asg94
I13
sa(dp3430
g16
(lp3431
S'd'
asg18
S'N'
sS'.thisRepN'
p3432
I26
sg20
S'N'
sg31
g32
sS'.thisTrialN'
p3433
I3
sS'.thisN'
p3434
I393
sS'.thisIndex'
p3435
I12
sg15
(lp3436
S'd'
asg30
VF
sg17
S'Y'
sg14
I8
sg19
(lp3437
S'space'
p3438
asg94
I12
sa(dp3439
g16
(lp3440
S'd'
asg18
S'N'
sS'.thisRepN'
p3441
I26
sg20
S'N'
sg31
g32
sS'.thisTrialN'
p3442
I4
sS'.thisN'
p3443
I394
sS'.thisIndex'
p3444
I4
sg15
(lp3445
S'k'
asg30
VF
sg17
S'N'
sg14
I8
sg19
(lp3446
S'space'
p3447
asg94
I4
sa(dp3448
g16
(lp3449
S'k'
asg18
S'N'
sS'.thisRepN'
p3450
I26
sg20
S'N'
sg31
g32
sS'.thisTrialN'
p3451
I5
sS'.thisN'
p3452
I395
sS'.thisIndex'
p3453
I14
sg15
(lp3454
S'd'
asg30
VF
sg17
S'N'
sg14
I8
sg19
(lp3455
S'space'
p3456
asg94
I14
sa(dp3457
g16
(lp3458
S'k'
asg18
S'N'
sS'.thisRepN'
p3459
I26
sg20
S'N'
sg31
g32
sS'.thisTrialN'
p3460
I6
sS'.thisN'
p3461
I396
sS'.thisIndex'
p3462
I8
sg15
(lp3463
S'd'
asg30
VF
sg17
S'N'
sg14
I8
sg19
(lp3464
S'k'
asg94
I8
sa(dp3465
g16
(lp3466
S'd'
asg18
S'N'
sS'.thisRepN'
p3467
I26
sg20
S'N'
sg31
g32
sS'.thisTrialN'
p3468
I7
sS'.thisN'
p3469
I397
sS'.thisIndex'
p3470
I12
sg15
(lp3471
S'k'
asg30
VF
sg17
S'N'
sg14
I8
sg19
(lp3472
S'k'
asg94
I12
sa(dp3473
g16
(lp3474
S'd'
asg18
S'N'
sS'.thisRepN'
p3475
I26
sg20
S'N'
sg31
g32
sS'.thisTrialN'
p3476
I8
sS'.thisN'
p3477
I398
sS'.thisIndex'
p3478
I1
sg15
(lp3479
S'k'
asg30
VF
sg17
S'N'
sg14
I8
sg19
(lp3480
S'space'
p3481
asg94
I1
sa(dp3482
g16
(lp3483
S'd'
asg18
S'N'
sg22
I25
sS'.thisN'
p3484
I399
sg20
S'N'
sg31
g32
sS'.thisTrialN'
p3485
I9
sS'.thisRepN'
p3486
I26
sg21
I25
sS'.thisIndex'
p3487
I12
sg23
I25
sg15
(lp3488
S'k'
asg30
VF
sg17
S'N'
sg14
I8
sg19
(lp3489
S'space'
p3490
asg94
I12
sa(dp3491
g16
(lp3492
S'k'
asg94
I8
sS'.thisRepN'
p3493
I26
sg30
VF
sg31
g32
sS'.thisTrialN'
p3494
I10
sS'.thisN'
p3495
I400
sS'.thisIndex'
p3496
I8
sg15
(lp3497
S'd'
asg17
S'N'
sg14
I9
sa(dp3498
g16
(lp3499
S'k'
asg94
I3
sS'.thisRepN'
p3500
I26
sg30
VF
sg31
g32
sS'.thisTrialN'
p3501
I11
sS'.thisN'
p3502
I401
sS'.thisIndex'
p3503
I3
sg15
(lp3504
S'd'
asg17
S'N'
sg14
I9
sa(dp3505
g16
(lp3506
S'k'
asg18
S'Y'
sS'.thisRepN'
p3507
I26
sg20
S'N'
sg31
g32
sS'.thisTrialN'
p3508
I12
sS'.thisN'
p3509
I402
sS'.thisIndex'
p3510
I7
sg15
(lp3511
S'k'
asg30
VF
sg17
S'Y'
sg14
I9
sg19
(lp3512
S'k'
asg94
I7
sa(dp3513
g16
(lp3514
S'k'
asg18
S'Y'
sS'.thisRepN'
p3515
I26
sg20
S'N'
sg31
g32
sS'.thisTrialN'
p3516
I13
sS'.thisN'
p3517
I403
sS'.thisIndex'
p3518
I5
sg15
(lp3519
S'k'
asg30
VF
sg17
S'Y'
sg14
I9
sg19
Nsg94
I5
sa(dp3520
g16
(lp3521
S'k'
asg18
S'N'
sS'.thisRepN'
p3522
I26
sg20
S'N'
sg31
g32
sS'.thisTrialN'
p3523
I14
sS'.thisN'
p3524
I404
sS'.thisIndex'
p3525
I12
sg15
(lp3526
S'd'
asg30
VF
sg17
S'N'
sg14
I9
sg19
(lp3527
S'k'
asg94
I12
sa(dp3528
g16
(lp3529
S'd'
asg18
S'Y'
sS'.thisRepN'
p3530
I27
sg20
S'N'
sg31
g32
sS'.thisTrialN'
p3531
I0
sS'.thisN'
p3532
I405
sS'.thisIndex'
p3533
I5
sg15
(lp3534
S'd'
asg30
VF
sg17
S'Y'
sg14
I9
sg19
(lp3535
S'k'
asg94
I5
sa(dp3536
g16
(lp3537
S'k'
asg18
S'N'
sS'.thisRepN'
p3538
I27
sg20
S'N'
sg31
g32
sS'.thisTrialN'
p3539
I1
sS'.thisN'
p3540
I406
sS'.thisIndex'
p3541
I0
sg15
(lp3542
S'k'
asg30
VF
sg17
S'Y'
sg14
I9
sg19
(lp3543
S'space'
p3544
asg94
I0
sa(dp3545
g16
(lp3546
S'k'
asg18
S'Y'
sS'.thisRepN'
p3547
I27
sg20
S'Y'
sg31
g32
sS'.thisTrialN'
p3548
I2
sS'.thisN'
p3549
I407
sS'.thisIndex'
p3550
I8
sg15
(lp3551
S'd'
asg30
VF
sg17
S'N'
sg14
I9
sg19
(lp3552
S'space'
p3553
asg94
I8
sa(dp3554
g16
(lp3555
S'k'
asg18
S'N'
sS'.thisRepN'
p3556
I27
sg20
S'Y'
sg31
g32
sS'.thisTrialN'
p3557
I3
sS'.thisN'
p3558
I408
sS'.thisIndex'
p3559
I5
sg15
(lp3560
S'k'
asg30
VF
sg17
S'Y'
sg14
I9
sg19
Nsg94
I5
sa(dp3561
g16
(lp3562
S'k'
asg18
S'N'
sS'.thisRepN'
p3563
I27
sg20
S'N'
sg31
g32
sS'.thisTrialN'
p3564
I4
sS'.thisN'
p3565
I409
sS'.thisIndex'
p3566
I14
sg15
(lp3567
S'd'
asg30
VF
sg17
S'N'
sg14
I9
sg19
(lp3568
S'space'
p3569
asg94
I14
sa(dp3570
g16
(lp3571
S'k'
asg18
S'N'
sS'.thisRepN'
p3572
I27
sg20
S'N'
sg31
g32
sS'.thisTrialN'
p3573
I5
sS'.thisN'
p3574
I410
sS'.thisIndex'
p3575
I11
sg15
(lp3576
S'k'
asg30
VF
sg17
S'Y'
sg14
I9
sg19
(lp3577
S'space'
p3578
asg94
I11
sa(dp3579
g16
(lp3580
S'd'
asg18
S'Y'
sS'.thisRepN'
p3581
I27
sg20
S'Y'
sg31
g32
sS'.thisTrialN'
p3582
I6
sS'.thisN'
p3583
I411
sS'.thisIndex'
p3584
I1
sg15
(lp3585
S'd'
asg30
VF
sg17
S'Y'
sg14
I9
sg19
(lp3586
S'space'
p3587
asg94
I1
sa(dp3588
g16
(lp3589
S'k'
asg18
S'N'
sS'.thisRepN'
p3590
I27
sg20
S'N'
sg31
g32
sS'.thisTrialN'
p3591
I7
sS'.thisN'
p3592
I412
sS'.thisIndex'
p3593
I8
sg15
(lp3594
S'k'
asg30
VF
sg17
S'Y'
sg14
I9
sg19
(lp3595
S'k'
asg94
I8
sa(dp3596
g16
(lp3597
S'd'
asg18
S'N'
sS'.thisRepN'
p3598
I27
sg20
S'N'
sg31
g32
sS'.thisTrialN'
p3599
I8
sS'.thisN'
p3600
I413
sS'.thisIndex'
p3601
I9
sg15
(lp3602
S'd'
asg30
VF
sg17
S'Y'
sg14
I9
sg19
(lp3603
S'k'
asg94
I9
sa(dp3604
g16
(lp3605
S'k'
asg18
S'N'
sS'.thisRepN'
p3606
I27
sg20
S'N'
sg31
g32
sS'.thisTrialN'
p3607
I9
sS'.thisN'
p3608
I414
sS'.thisIndex'
p3609
I4
sg15
(lp3610
S'k'
asg30
VF
sg17
S'Y'
sg14
I9
sg19
(lp3611
S'space'
p3612
asg94
I4
sa(dp3613
g16
(lp3614
S'k'
asg18
S'N'
sS'.thisRepN'
p3615
I27
sg20
S'N'
sg31
g32
sS'.thisTrialN'
p3616
I10
sS'.thisN'
p3617
I415
sS'.thisIndex'
p3618
I14
sg15
(lp3619
S'k'
asg30
VF
sg17
S'Y'
sg14
I9
sg19
(lp3620
S'space'
p3621
asg94
I14
sa(dp3622
g16
(lp3623
S'd'
asg18
S'Y'
sS'.thisRepN'
p3624
I27
sg20
S'Y'
sg31
g32
sS'.thisTrialN'
p3625
I11
sS'.thisN'
p3626
I416
sS'.thisIndex'
p3627
I7
sg15
(lp3628
S'k'
asg30
VF
sg17
S'N'
sg14
I9
sg19
(lp3629
S'space'
p3630
asg94
I7
sa(dp3631
g16
(lp3632
S'd'
asg18
S'N'
sS'.thisRepN'
p3633
I27
sg20
S'N'
sg31
g32
sS'.thisTrialN'
p3634
I12
sS'.thisN'
p3635
I417
sS'.thisIndex'
p3636
I9
sg15
(lp3637
S'd'
asg30
VF
sg17
S'Y'
sg14
I9
sg19
(lp3638
S'space'
p3639
asg94
I9
sa(dp3640
g16
(lp3641
S'd'
asg18
S'Y'
sS'.thisRepN'
p3642
I27
sg20
S'Y'
sg31
g32
sS'.thisTrialN'
p3643
I13
sS'.thisN'
p3644
I418
sS'.thisIndex'
p3645
I0
sg15
(lp3646
S'd'
asg30
VF
sg17
S'Y'
sg14
I9
sg19
(lp3647
S'space'
p3648
asg94
I0
sa(dp3649
g16
(lp3650
S'k'
asg18
S'Y'
sS'.thisRepN'
p3651
I27
sg20
S'Y'
sg31
g32
sS'.thisTrialN'
p3652
I14
sS'.thisN'
p3653
I419
sS'.thisIndex'
p3654
I11
sg15
(lp3655
S'k'
asg30
VF
sg17
S'Y'
sg14
I9
sg19
(lp3656
S'space'
p3657
asg94
I11
sa(dp3658
g16
(lp3659
S'd'
asg18
S'Y'
sS'.thisRepN'
p3660
I28
sg20
S'N'
sg31
g32
sS'.thisTrialN'
p3661
I0
sS'.thisN'
p3662
I420
sS'.thisIndex'
p3663
I3
sg15
(lp3664
S'k'
asg30
VF
sg17
S'N'
sg14
I9
sg19
(lp3665
S'd'
asg94
I3
sa(dp3666
g16
(lp3667
S'k'
asg18
S'Y'
sS'.thisRepN'
p3668
I28
sg20
S'Y'
sg31
g32
sS'.thisTrialN'
p3669
I1
sS'.thisN'
p3670
I421
sS'.thisIndex'
p3671
I4
sg15
(lp3672
S'd'
asg30
VF
sg17
S'N'
sg14
I9
sg19
(lp3673
S'space'
p3674
asg94
I4
sa(dp3675
g16
(lp3676
S'k'
asg18
S'Y'
sS'.thisRepN'
p3677
I28
sg20
S'N'
sg31
g32
sS'.thisTrialN'
p3678
I2
sS'.thisN'
p3679
I422
sS'.thisIndex'
p3680
I11
sg15
(lp3681
S'k'
asg30
VF
sg17
S'Y'
sg14
I9
sg19
(lp3682
S'k'
asg94
I11
sa(dp3683
g16
(lp3684
S'd'
asg18
S'Y'
sS'.thisRepN'
p3685
I28
sg20
S'Y'
sg31
g32
sS'.thisTrialN'
p3686
I3
sS'.thisN'
p3687
I423
sS'.thisIndex'
p3688
I10
sg15
(lp3689
S'd'
asg30
VF
sg17
S'Y'
sg14
I9
sg19
(lp3690
S'space'
p3691
asg94
I10
sa(dp3692
g16
(lp3693
S'd'
asg18
S'Y'
sS'.thisRepN'
p3694
I28
sg20
S'Y'
sg31
g32
sS'.thisTrialN'
p3695
I4
sS'.thisN'
p3696
I424
sS'.thisIndex'
p3697
I9
sg15
(lp3698
S'd'
asg30
VF
sg17
S'Y'
sg14
I9
sg19
(lp3699
S'space'
p3700
asg94
I9
sa(dp3701
g16
(lp3702
S'k'
asg18
S'Y'
sS'.thisRepN'
p3703
I28
sg20
S'Y'
sg31
g32
sS'.thisTrialN'
p3704
I5
sS'.thisN'
p3705
I425
sS'.thisIndex'
p3706
I1
sg15
(lp3707
S'k'
asg30
VF
sg17
S'Y'
sg14
I9
sg19
(lp3708
S'space'
p3709
asg94
I1
sa(dp3710
g16
(lp3711
S'k'
asg18
S'N'
sS'.thisRepN'
p3712
I28
sg20
S'N'
sg31
g32
sS'.thisTrialN'
p3713
I6
sS'.thisN'
p3714
I426
sS'.thisIndex'
p3715
I0
sg15
(lp3716
S'd'
asg30
VF
sg17
S'N'
sg14
I9
sg19
(lp3717
S'space'
p3718
asg94
I0
sa(dp3719
g16
(lp3720
S'k'
asg18
S'Y'
sS'.thisRepN'
p3721
I28
sg20
S'Y'
sg31
g32
sS'.thisTrialN'
p3722
I7
sS'.thisN'
p3723
I427
sS'.thisIndex'
p3724
I9
sg15
(lp3725
S'k'
asg30
VF
sg17
S'Y'
sg14
I9
sg19
(lp3726
S'space'
p3727
asg94
I9
sa(dp3728
g16
(lp3729
S'k'
asg18
S'Y'
sS'.thisRepN'
p3730
I28
sg20
S'Y'
sg31
g32
sS'.thisTrialN'
p3731
I8
sS'.thisN'
p3732
I428
sS'.thisIndex'
p3733
I8
sg15
(lp3734
S'd'
asg30
VF
sg17
S'N'
sg14
I9
sg19
(lp3735
S'space'
p3736
asg94
I8
sa(dp3737
g16
(lp3738
S'k'
asg18
S'N'
sS'.thisRepN'
p3739
I28
sg20
S'N'
sg31
g32
sS'.thisTrialN'
p3740
I9
sS'.thisN'
p3741
I429
sS'.thisIndex'
p3742
I7
sg15
(lp3743
S'k'
asg30
VF
sg17
S'Y'
sg14
I9
sg19
(lp3744
S'space'
p3745
asg94
I7
sa(dp3746
g16
(lp3747
S'd'
asg18
S'Y'
sS'.thisRepN'
p3748
I28
sg20
S'Y'
sg31
g32
sS'.thisTrialN'
p3749
I10
sS'.thisN'
p3750
I430
sS'.thisIndex'
p3751
I3
sg15
(lp3752
S'k'
asg30
VF
sg17
S'N'
sg14
I9
sg19
(lp3753
S'space'
p3754
asg94
I3
sa(dp3755
g16
(lp3756
S'k'
asg18
S'Y'
sS'.thisRepN'
p3757
I28
sg20
S'Y'
sg31
g32
sS'.thisTrialN'
p3758
I11
sS'.thisN'
p3759
I431
sS'.thisIndex'
p3760
I14
sg15
(lp3761
S'd'
asg30
VF
sg17
S'N'
sg14
I9
sg19
(lp3762
S'space'
p3763
asg94
I14
sa(dp3764
g16
(lp3765
S'k'
asg18
S'Y'
sS'.thisRepN'
p3766
I28
sg20
S'Y'
sg31
g32
sS'.thisTrialN'
p3767
I12
sS'.thisN'
p3768
I432
sS'.thisIndex'
p3769
I10
sg15
(lp3770
S'k'
asg30
VF
sg17
S'Y'
sg14
I9
sg19
(lp3771
S'space'
p3772
asg94
I10
sa(dp3773
g16
(lp3774
S'd'
asg18
S'N'
sS'.thisRepN'
p3775
I28
sg20
S'N'
sg31
g32
sS'.thisTrialN'
p3776
I13
sS'.thisN'
p3777
I433
sS'.thisIndex'
p3778
I4
sg15
(lp3779
S'd'
asg30
VF
sg17
S'Y'
sg14
I9
sg19
(lp3780
S'space'
p3781
asg94
I4
sa(dp3782
g16
(lp3783
S'd'
asg18
S'N'
sS'.thisRepN'
p3784
I28
sg20
S'N'
sg31
g32
sS'.thisTrialN'
p3785
I14
sS'.thisN'
p3786
I434
sS'.thisIndex'
p3787
I4
sg15
(lp3788
S'k'
asg30
VF
sg17
S'N'
sg14
I9
sg19
(lp3789
S'space'
p3790
asg94
I4
sa(dp3791
g16
(lp3792
S'k'
asg18
S'Y'
sS'.thisRepN'
p3793
I29
sg20
S'Y'
sg31
g32
sS'.thisTrialN'
p3794
I0
sS'.thisN'
p3795
I435
sS'.thisIndex'
p3796
I3
sg15
(lp3797
S'd'
asg30
VF
sg17
S'N'
sg14
I9
sg19
(lp3798
S'space'
p3799
asg94
I3
sa(dp3800
g16
(lp3801
S'k'
asg18
S'Y'
sS'.thisRepN'
p3802
I29
sg20
S'Y'
sg31
g32
sS'.thisTrialN'
p3803
I1
sS'.thisN'
p3804
I436
sS'.thisIndex'
p3805
I4
sg15
(lp3806
S'd'
asg30
VF
sg17
S'N'
sg14
I9
sg19
(lp3807
S'space'
p3808
asg94
I4
sa(dp3809
g16
(lp3810
S'd'
asg18
S'N'
sS'.thisRepN'
p3811
I29
sg20
S'N'
sg31
g32
sS'.thisTrialN'
p3812
I2
sS'.thisN'
p3813
I437
sS'.thisIndex'
p3814
I10
sg15
(lp3815
S'k'
asg30
VF
sg17
S'N'
sg14
I9
sg19
(lp3816
S'space'
p3817
asg94
I10
sa(dp3818
g16
(lp3819
S'k'
asg18
S'Y'
sS'.thisRepN'
p3820
I29
sg20
S'N'
sg31
g32
sS'.thisTrialN'
p3821
I3
sS'.thisN'
p3822
I438
sS'.thisIndex'
p3823
I2
sg15
(lp3824
S'd'
asg30
VF
sg17
S'N'
sg14
I9
sg19
Nsg94
I2
sa(dp3825
g16
(lp3826
S'd'
asg18
S'N'
sS'.thisRepN'
p3827
I29
sg20
S'N'
sg31
g32
sS'.thisTrialN'
p3828
I4
sS'.thisN'
p3829
I439
sS'.thisIndex'
p3830
I1
sg15
(lp3831
S'd'
asg30
VF
sg17
S'Y'
sg14
I9
sg19
(lp3832
S'space'
p3833
asg94
I1
sa(dp3834
g16
(lp3835
S'd'
asg18
S'Y'
sS'.thisRepN'
p3836
I29
sg20
S'Y'
sg31
g32
sS'.thisTrialN'
p3837
I5
sS'.thisN'
p3838
I440
sS'.thisIndex'
p3839
I4
sg15
(lp3840
S'd'
asg30
VF
sg17
S'Y'
sg14
I9
sg19
(lp3841
S'space'
p3842
asg94
I4
sa(dp3843
g16
(lp3844
S'k'
asg18
S'N'
sS'.thisRepN'
p3845
I29
sg20
S'N'
sg31
g32
sS'.thisTrialN'
p3846
I6
sS'.thisN'
p3847
I441
sS'.thisIndex'
p3848
I9
sg15
(lp3849
S'd'
asg30
VF
sg17
S'N'
sg14
I9
sg19
(lp3850
S'space'
p3851
asg94
I9
sa(dp3852
g16
(lp3853
S'k'
asg18
S'Y'
sS'.thisRepN'
p3854
I29
sg20
S'Y'
sg31
g32
sS'.thisTrialN'
p3855
I7
sS'.thisN'
p3856
I442
sS'.thisIndex'
p3857
I1
sg15
(lp3858
S'k'
asg30
VF
sg17
S'Y'
sg14
I9
sg19
(lp3859
S'space'
p3860
asg94
I1
sa(dp3861
g16
(lp3862
S'k'
asg18
S'Y'
sS'.thisRepN'
p3863
I29
sg20
S'Y'
sg31
g32
sS'.thisTrialN'
p3864
I8
sS'.thisN'
p3865
I443
sS'.thisIndex'
p3866
I2
sg15
(lp3867
S'k'
asg30
VF
sg17
S'Y'
sg14
I9
sg19
(lp3868
S'space'
p3869
asg94
I2
sa(dp3870
g16
(lp3871
S'd'
asg18
S'N'
sS'.thisRepN'
p3872
I29
sg20
S'N'
sg31
g32
sS'.thisTrialN'
p3873
I9
sS'.thisN'
p3874
I444
sS'.thisIndex'
p3875
I7
sg15
(lp3876
S'd'
asg30
VF
sg17
S'Y'
sg14
I9
sg19
(lp3877
S'space'
p3878
asg94
I7
sa(dp3879
g16
(lp3880
S'k'
asg18
S'N'
sS'.thisRepN'
p3881
I29
sg20
S'N'
sg31
g32
sS'.thisTrialN'
p3882
I10
sS'.thisN'
p3883
I445
sS'.thisIndex'
p3884
I9
sg15
(lp3885
S'k'
asg30
VF
sg17
S'Y'
sg14
I9
sg19
(lp3886
S'space'
p3887
asg94
I9
sa(dp3888
g16
(lp3889
S'k'
asg18
S'N'
sS'.thisRepN'
p3890
I29
sg20
S'N'
sg31
g32
sS'.thisTrialN'
p3891
I11
sS'.thisN'
p3892
I446
sS'.thisIndex'
p3893
I2
sg15
(lp3894
S'd'
asg30
VF
sg17
S'N'
sg14
I9
sg19
(lp3895
S'space'
p3896
asg94
I2
sa(dp3897
g16
(lp3898
S'k'
asg18
S'N'
sS'.thisRepN'
p3899
I29
sg20
S'N'
sg31
g32
sS'.thisTrialN'
p3900
I12
sS'.thisN'
p3901
I447
sS'.thisIndex'
p3902
I12
sg15
(lp3903
S'k'
asg30
VF
sg17
S'Y'
sg14
I9
sg19
(lp3904
S'space'
p3905
asg94
I12
sa(dp3906
g16
(lp3907
S'd'
asg18
S'N'
sS'.thisRepN'
p3908
I29
sg20
S'N'
sg31
g32
sS'.thisTrialN'
p3909
I13
sS'.thisN'
p3910
I448
sS'.thisIndex'
p3911
I9
sg15
(lp3912
S'd'
asg30
VF
sg17
S'Y'
sg14
I9
sg19
(lp3913
S'space'
p3914
asg94
I9
sa(dp3915
g16
(lp3916
S'd'
asg18
S'N'
sg22
I20
sS'.thisN'
p3917
I449
sg20
S'N'
sg31
g32
sS'.thisTrialN'
p3918
I14
sS'.thisRepN'
p3919
I29
sg21
I30
sS'.thisIndex'
p3920
I5
sg23
I25
sg15
(lp3921
S'k'
asg30
VF
sg17
S'N'
sg14
I9
sg19
(lp3922
S'k'
asg94
I5
sa(dp3923
g16
(lp3924
S'd'
asg94
I7
sS'.thisRepN'
p3925
I30
sg30
VF
sg31
g32
sS'.thisTrialN'
p3926
I0
sS'.thisN'
p3927
I450
sS'.thisIndex'
p3928
I7
sg15
(lp3929
S'd'
asg17
S'Y'
sg14
I10
sa(dp3930
g16
(lp3931
S'd'
asg94
I5
sS'.thisRepN'
p3932
I30
sg30
VF
sg31
g32
sS'.thisTrialN'
p3933
I1
sS'.thisN'
p3934
I451
sS'.thisIndex'
p3935
I5
sg15
(lp3936
S'k'
asg17
S'N'
sg14
I10
sa(dp3937
g16
(lp3938
S'd'
asg18
S'N'
sS'.thisRepN'
p3939
I30
sg20
S'N'
sg31
g32
sS'.thisTrialN'
p3940
I2
sS'.thisN'
p3941
I452
sS'.thisIndex'
p3942
I14
sg15
(lp3943
S'k'
asg30
VF
sg17
S'N'
sg14
I10
sg19
(lp3944
S'd'
asg94
I14
sa(dp3945
g16
(lp3946
S'k'
asg18
S'N'
sS'.thisRepN'
p3947
I30
sg20
S'N'
sg31
g32
sS'.thisTrialN'
p3948
I3
sS'.thisN'
p3949
I453
sS'.thisIndex'
p3950
I3
sg15
(lp3951
S'd'
asg30
VF
sg17
S'N'
sg14
I10
sg19
(lp3952
S'd'
asg94
I3
sa(dp3953
g16
(lp3954
S'd'
asg18
S'Y'
sS'.thisRepN'
p3955
I30
sg20
S'N'
sg31
g32
sS'.thisTrialN'
p3956
I4
sS'.thisN'
p3957
I454
sS'.thisIndex'
p3958
I2
sg15
(lp3959
S'k'
asg30
VF
sg17
S'N'
sg14
I10
sg19
Nsg94
I2
sa(dp3960
g16
(lp3961
S'd'
asg18
S'Y'
sS'.thisRepN'
p3962
I30
sg20
S'N'
sg31
g32
sS'.thisTrialN'
p3963
I5
sS'.thisN'
p3964
I455
sS'.thisIndex'
p3965
I7
sg15
(lp3966
S'd'
asg30
VF
sg17
S'Y'
sg14
I10
sg19
Nsg94
I7
sa(dp3967
g16
(lp3968
S'd'
asg18
S'N'
sS'.thisRepN'
p3969
I30
sg20
S'Y'
sg31
g32
sS'.thisTrialN'
p3970
I6
sS'.thisN'
p3971
I456
sS'.thisIndex'
p3972
I6
sg15
(lp3973
S'd'
asg30
VF
sg17
S'Y'
sg14
I10
sg19
Nsg94
I6
sa(dp3974
g16
(lp3975
S'k'
asg18
S'Y'
sS'.thisRepN'
p3976
I30
sg20
S'N'
sg31
g32
sS'.thisTrialN'
p3977
I7
sS'.thisN'
p3978
I457
sS'.thisIndex'
p3979
I7
sg15
(lp3980
S'd'
asg30
VF
sg17
S'N'
sg14
I10
sg19
Nsg94
I7
sa(dp3981
g16
(lp3982
S'd'
asg18
S'N'
sS'.thisRepN'
p3983
I30
sg20
S'N'
sg31
g32
sS'.thisTrialN'
p3984
I8
sS'.thisN'
p3985
I458
sS'.thisIndex'
p3986
I12
sg15
(lp3987
S'd'
asg30
VF
sg17
S'Y'
sg14
I10
sg19
(lp3988
S'k'
asg94
I12
sa(dp3989
g16
(lp3990
S'k'
asg18
S'N'
sS'.thisRepN'
p3991
I30
sg20
S'N'
sg31
g32
sS'.thisTrialN'
p3992
I9
sS'.thisN'
p3993
I459
sS'.thisIndex'
p3994
I0
sg15
(lp3995
S'k'
asg30
VF
sg17
S'Y'
sg14
I10
sg19
(lp3996
S'space'
p3997
asg94
I0
sa(dp3998
g16
(lp3999
S'k'
asg18
S'Y'
sS'.thisRepN'
p4000
I30
sg20
S'Y'
sg31
g32
sS'.thisTrialN'
p4001
I10
sS'.thisN'
p4002
I460
sS'.thisIndex'
p4003
I14
sg15
(lp4004
S'd'
asg30
VF
sg17
S'N'
sg14
I10
sg19
(lp4005
S'space'
p4006
asg94
I14
sa(dp4007
g16
(lp4008
S'd'
asg18
S'N'
sS'.thisRepN'
p4009
I30
sg20
S'N'
sg31
g32
sS'.thisTrialN'
p4010
I11
sS'.thisN'
p4011
I461
sS'.thisIndex'
p4012
I1
sg15
(lp4013
S'k'
asg30
VF
sg17
S'N'
sg14
I10
sg19
(lp4014
S'space'
p4015
asg94
I1
sa(dp4016
g16
(lp4017
S'd'
asg18
S'Y'
sS'.thisRepN'
p4018
I30
sg20
S'Y'
sg31
g32
sS'.thisTrialN'
p4019
I12
sS'.thisN'
p4020
I462
sS'.thisIndex'
p4021
I0
sg15
(lp4022
S'd'
asg30
VF
sg17
S'Y'
sg14
I10
sg19
(lp4023
S'space'
p4024
asg94
I0
sa(dp4025
g16
(lp4026
S'k'
asg18
S'Y'
sS'.thisRepN'
p4027
I30
sg20
S'Y'
sg31
g32
sS'.thisTrialN'
p4028
I13
sS'.thisN'
p4029
I463
sS'.thisIndex'
p4030
I9
sg15
(lp4031
S'd'
asg30
VF
sg17
S'N'
sg14
I10
sg19
(lp4032
S'space'
p4033
asg94
I9
sa(dp4034
g16
(lp4035
S'd'
asg18
S'N'
sS'.thisRepN'
p4036
I30
sg20
S'N'
sg31
g32
sS'.thisTrialN'
p4037
I14
sS'.thisN'
p4038
I464
sS'.thisIndex'
p4039
I11
sg15
(lp4040
S'k'
asg30
VF
sg17
S'N'
sg14
I10
sg19
(lp4041
S'space'
p4042
asg94
I11
sa(dp4043
g16
(lp4044
S'k'
asg18
S'N'
sS'.thisRepN'
p4045
I31
sg20
S'Y'
sg31
g32
sS'.thisTrialN'
p4046
I0
sS'.thisN'
p4047
I465
sS'.thisIndex'
p4048
I8
sg15
(lp4049
S'd'
asg30
VF
sg17
S'N'
sg14
I10
sg19
Nsg94
I8
sa(dp4050
g16
(lp4051
S'd'
asg18
S'N'
sS'.thisRepN'
p4052
I31
sg20
S'Y'
sg31
g32
sS'.thisTrialN'
p4053
I1
sS'.thisN'
p4054
I466
sS'.thisIndex'
p4055
I3
sg15
(lp4056
S'k'
asg30
VF
sg17
S'N'
sg14
I10
sg19
Nsg94
I3
sa(dp4057
g16
(lp4058
S'k'
asg18
S'N'
sS'.thisRepN'
p4059
I31
sg20
S'Y'
sg31
g32
sS'.thisTrialN'
p4060
I2
sS'.thisN'
p4061
I467
sS'.thisIndex'
p4062
I4
sg15
(lp4063
S'd'
asg30
VF
sg17
S'N'
sg14
I10
sg19
Nsg94
I4
sa(dp4064
g16
(lp4065
S'k'
asg18
S'N'
sS'.thisRepN'
p4066
I31
sg20
S'Y'
sg31
g32
sS'.thisTrialN'
p4067
I3
sS'.thisN'
p4068
I468
sS'.thisIndex'
p4069
I10
sg15
(lp4070
S'd'
asg30
VF
sg17
S'N'
sg14
I10
sg19
Nsg94
I10
sa(dp4071
g16
(lp4072
S'd'
asg18
S'Y'
sS'.thisRepN'
p4073
I31
sg20
S'Y'
sg31
g32
sS'.thisTrialN'
p4074
I4
sS'.thisN'
p4075
I469
sS'.thisIndex'
p4076
I11
sg15
(lp4077
S'd'
asg30
VF
sg17
S'Y'
sg14
I10
sg19
(lp4078
S'space'
p4079
asg94
I11
sa(dp4080
g16
(lp4081
S'd'
asg18
S'Y'
sS'.thisRepN'
p4082
I31
sg20
S'Y'
sg31
g32
sS'.thisTrialN'
p4083
I5
sS'.thisN'
p4084
I470
sS'.thisIndex'
p4085
I0
sg15
(lp4086
S'd'
asg30
VF
sg17
S'Y'
sg14
I10
sg19
(lp4087
S'space'
p4088
asg94
I0
sa(dp4089
g16
(lp4090
S'd'
asg18
S'N'
sS'.thisRepN'
p4091
I31
sg20
S'N'
sg31
g32
sS'.thisTrialN'
p4092
I6
sS'.thisN'
p4093
I471
sS'.thisIndex'
p4094
I12
sg15
(lp4095
S'd'
asg30
VF
sg17
S'Y'
sg14
I10
sg19
(lp4096
S'space'
p4097
asg94
I12
sa(dp4098
g16
(lp4099
S'k'
asg18
S'N'
sS'.thisRepN'
p4100
I31
sg20
S'N'
sg31
g32
sS'.thisTrialN'
p4101
I7
sS'.thisN'
p4102
I472
sS'.thisIndex'
p4103
I2
sg15
(lp4104
S'k'
asg30
VF
sg17
S'Y'
sg14
I10
sg19
(lp4105
S'space'
p4106
asg94
I2
sa(dp4107
g16
(lp4108
S'd'
asg18
S'Y'
sS'.thisRepN'
p4109
I31
sg20
S'Y'
sg31
g32
sS'.thisTrialN'
p4110
I8
sS'.thisN'
p4111
I473
sS'.thisIndex'
p4112
I11
sg15
(lp4113
S'k'
asg30
VF
sg17
S'N'
sg14
I10
sg19
(lp4114
S'space'
p4115
asg94
I11
sa(dp4116
g16
(lp4117
S'd'
asg18
S'N'
sS'.thisRepN'
p4118
I31
sg20
S'N'
sg31
g32
sS'.thisTrialN'
p4119
I9
sS'.thisN'
p4120
I474
sS'.thisIndex'
p4121
I1
sg15
(lp4122
S'd'
asg30
VF
sg17
S'Y'
sg14
I10
sg19
(lp4123
S'space'
p4124
asg94
I1
sa(dp4125
g16
(lp4126
S'd'
asg18
S'Y'
sS'.thisRepN'
p4127
I31
sg20
S'Y'
sg31
g32
sS'.thisTrialN'
p4128
I10
sS'.thisN'
p4129
I475
sS'.thisIndex'
p4130
I10
sg15
(lp4131
S'd'
asg30
VF
sg17
S'Y'
sg14
I10
sg19
(lp4132
S'space'
p4133
asg94
I10
sa(dp4134
g16
(lp4135
S'k'
asg18
S'Y'
sS'.thisRepN'
p4136
I31
sg20
S'Y'
sg31
g32
sS'.thisTrialN'
p4137
I11
sS'.thisN'
p4138
I476
sS'.thisIndex'
p4139
I7
sg15
(lp4140
S'd'
asg30
VF
sg17
S'N'
sg14
I10
sg19
(lp4141
S'space'
p4142
asg94
I7
sa(dp4143
g16
(lp4144
S'd'
asg18
S'Y'
sS'.thisRepN'
p4145
I31
sg20
S'Y'
sg31
g32
sS'.thisTrialN'
p4146
I12
sS'.thisN'
p4147
I477
sS'.thisIndex'
p4148
I7
sg15
(lp4149
S'k'
asg30
VF
sg17
S'N'
sg14
I10
sg19
(lp4150
S'space'
p4151
asg94
I7
sa(dp4152
g16
(lp4153
S'd'
asg18
S'N'
sS'.thisRepN'
p4154
I31
sg20
S'N'
sg31
g32
sS'.thisTrialN'
p4155
I13
sS'.thisN'
p4156
I478
sS'.thisIndex'
p4157
I13
sg15
(lp4158
S'd'
asg30
VF
sg17
S'Y'
sg14
I10
sg19
(lp4159
S'space'
p4160
asg94
I13
sa(dp4161
g16
(lp4162
S'd'
asg18
S'Y'
sS'.thisRepN'
p4163
I31
sg20
S'Y'
sg31
g32
sS'.thisTrialN'
p4164
I14
sS'.thisN'
p4165
I479
sS'.thisIndex'
p4166
I5
sg15
(lp4167
S'k'
asg30
VF
sg17
S'N'
sg14
I10
sg19
(lp4168
S'space'
p4169
asg94
I5
sa(dp4170
g16
(lp4171
S'd'
asg18
S'Y'
sS'.thisRepN'
p4172
I32
sg20
S'Y'
sg31
g32
sS'.thisTrialN'
p4173
I0
sS'.thisN'
p4174
I480
sS'.thisIndex'
p4175
I0
sg15
(lp4176
S'd'
asg30
VF
sg17
S'Y'
sg14
I10
sg19
(lp4177
S'space'
p4178
asg94
I0
sa(dp4179
g16
(lp4180
S'd'
asg18
S'N'
sS'.thisRepN'
p4181
I32
sg20
S'N'
sg31
g32
sS'.thisTrialN'
p4182
I1
sS'.thisN'
p4183
I481
sS'.thisIndex'
p4184
I12
sg15
(lp4185
S'k'
asg30
VF
sg17
S'N'
sg14
I10
sg19
(lp4186
S'space'
p4187
asg94
I12
sa(dp4188
g16
(lp4189
S'k'
asg18
S'N'
sS'.thisRepN'
p4190
I32
sg20
S'N'
sg31
g32
sS'.thisTrialN'
p4191
I2
sS'.thisN'
p4192
I482
sS'.thisIndex'
p4193
I8
sg15
(lp4194
S'd'
asg30
VF
sg17
S'N'
sg14
I10
sg19
(lp4195
S'space'
p4196
asg94
I8
sa(dp4197
g16
(lp4198
S'k'
asg18
S'Y'
sS'.thisRepN'
p4199
I32
sg20
S'N'
sg31
g32
sS'.thisTrialN'
p4200
I3
sS'.thisN'
p4201
I483
sS'.thisIndex'
p4202
I1
sg15
(lp4203
S'k'
asg30
VF
sg17
S'Y'
sg14
I10
sg19
Nsg94
I1
sa(dp4204
g16
(lp4205
S'd'
asg18
S'N'
sS'.thisRepN'
p4206
I32
sg20
S'N'
sg31
g32
sS'.thisTrialN'
p4207
I4
sS'.thisN'
p4208
I484
sS'.thisIndex'
p4209
I8
sg15
(lp4210
S'd'
asg30
VF
sg17
S'Y'
sg14
I10
sg19
(lp4211
S'space'
p4212
asg94
I8
sa(dp4213
g16
(lp4214
S'k'
asg18
S'N'
sS'.thisRepN'
p4215
I32
sg20
S'N'
sg31
g32
sS'.thisTrialN'
p4216
I5
sS'.thisN'
p4217
I485
sS'.thisIndex'
p4218
I3
sg15
(lp4219
S'd'
asg30
VF
sg17
S'N'
sg14
I10
sg19
(lp4220
S'space'
p4221
asg94
I3
sa(dp4222
g16
(lp4223
S'd'
asg18
S'N'
sS'.thisRepN'
p4224
I32
sg20
S'N'
sg31
g32
sS'.thisTrialN'
p4225
I6
sS'.thisN'
p4226
I486
sS'.thisIndex'
p4227
I9
sg15
(lp4228
S'k'
asg30
VF
sg17
S'N'
sg14
I10
sg19
(lp4229
S'space'
p4230
asg94
I9
sa(dp4231
g16
(lp4232
S'd'
asg18
S'Y'
sS'.thisRepN'
p4233
I32
sg20
S'N'
sg31
g32
sS'.thisTrialN'
p4234
I7
sS'.thisN'
p4235
I487
sS'.thisIndex'
p4236
I4
sg15
(lp4237
S'd'
asg30
VF
sg17
S'Y'
sg14
I10
sg19
(lp4238
S'd'
asg94
I4
sa(dp4239
g16
(lp4240
S'd'
asg18
S'Y'
sS'.thisRepN'
p4241
I32
sg20
S'Y'
sg31
g32
sS'.thisTrialN'
p4242
I8
sS'.thisN'
p4243
I488
sS'.thisIndex'
p4244
I13
sg15
(lp4245
S'k'
asg30
VF
sg17
S'N'
sg14
I10
sg19
(lp4246
S'space'
p4247
asg94
I13
sa(dp4248
g16
(lp4249
S'k'
asg18
S'N'
sS'.thisRepN'
p4250
I32
sg20
S'N'
sg31
g32
sS'.thisTrialN'
p4251
I9
sS'.thisN'
p4252
I489
sS'.thisIndex'
p4253
I0
sg15
(lp4254
S'k'
asg30
VF
sg17
S'Y'
sg14
I10
sg19
(lp4255
S'space'
p4256
asg94
I0
sa(dp4257
g16
(lp4258
S'd'
asg18
S'N'
sS'.thisRepN'
p4259
I32
sg20
S'N'
sg31
g32
sS'.thisTrialN'
p4260
I10
sS'.thisN'
p4261
I490
sS'.thisIndex'
p4262
I3
sg15
(lp4263
S'd'
asg30
VF
sg17
S'Y'
sg14
I10
sg19
(lp4264
S'space'
p4265
asg94
I3
sa(dp4266
g16
(lp4267
S'k'
asg18
S'N'
sS'.thisRepN'
p4268
I32
sg20
S'N'
sg31
g32
sS'.thisTrialN'
p4269
I11
sS'.thisN'
p4270
I491
sS'.thisIndex'
p4271
I13
sg15
(lp4272
S'd'
asg30
VF
sg17
S'N'
sg14
I10
sg19
(lp4273
S'space'
p4274
asg94
I13
sa(dp4275
g16
(lp4276
S'k'
asg18
S'N'
sS'.thisRepN'
p4277
I32
sg20
S'N'
sg31
g32
sS'.thisTrialN'
p4278
I12
sS'.thisN'
p4279
I492
sS'.thisIndex'
p4280
I10
sg15
(lp4281
S'k'
asg30
VF
sg17
S'Y'
sg14
I10
sg19
(lp4282
S'space'
p4283
asg94
I10
sa(dp4284
g16
(lp4285
S'd'
asg18
S'Y'
sS'.thisRepN'
p4286
I32
sg20
S'Y'
sg31
g32
sS'.thisTrialN'
p4287
I13
sS'.thisN'
p4288
I493
sS'.thisIndex'
p4289
I0
sg15
(lp4290
S'd'
asg30
VF
sg17
S'Y'
sg14
I10
sg19
(lp4291
S'space'
p4292
asg94
I0
sa(dp4293
g16
(lp4294
S'd'
asg18
S'N'
sS'.thisRepN'
p4295
I32
sg20
S'N'
sg31
g32
sS'.thisTrialN'
p4296
I14
sS'.thisN'
p4297
I494
sS'.thisIndex'
p4298
I10
sg15
(lp4299
S'd'
asg30
VF
sg17
S'Y'
sg14
I10
sg19
(lp4300
S'space'
p4301
asg94
I10
sa(dp4302
g16
(lp4303
S'k'
asg18
S'N'
sS'.thisRepN'
p4304
I33
sg20
S'N'
sg31
g32
sS'.thisTrialN'
p4305
I0
sS'.thisN'
p4306
I495
sS'.thisIndex'
p4307
I3
sg15
(lp4308
S'k'
asg30
VF
sg17
S'Y'
sg14
I10
sg19
(lp4309
S'space'
p4310
asg94
I3
sa(dp4311
g16
(lp4312
S'k'
asg18
S'N'
sS'.thisRepN'
p4313
I33
sg20
S'N'
sg31
g32
sS'.thisTrialN'
p4314
I1
sS'.thisN'
p4315
I496
sS'.thisIndex'
p4316
I2
sg15
(lp4317
S'd'
asg30
VF
sg17
S'N'
sg14
I10
sg19
(lp4318
S'space'
p4319
asg94
I2
sa(dp4320
g16
(lp4321
S'k'
asg18
S'N'
sS'.thisRepN'
p4322
I33
sg20
S'N'
sg31
g32
sS'.thisTrialN'
p4323
I2
sS'.thisN'
p4324
I497
sS'.thisIndex'
p4325
I14
sg15
(lp4326
S'k'
asg30
VF
sg17
S'Y'
sg14
I10
sg19
(lp4327
S'space'
p4328
asg94
I14
sa(dp4329
g16
(lp4330
S'd'
asg18
S'Y'
sS'.thisRepN'
p4331
I33
sg20
S'Y'
sg31
g32
sS'.thisTrialN'
p4332
I3
sS'.thisN'
p4333
I498
sS'.thisIndex'
p4334
I3
sg15
(lp4335
S'k'
asg30
VF
sg17
S'N'
sg14
I10
sg19
(lp4336
S'space'
p4337
asg94
I3
sa(dp4338
g16
(lp4339
S'd'
asg18
S'Y'
sg22
I20
sS'.thisN'
p4340
I499
sg20
S'Y'
sg31
g32
sS'.thisTrialN'
p4341
I4
sS'.thisRepN'
p4342
I33
sg21
I25
sS'.thisIndex'
p4343
I8
sg23
I20
sg15
(lp4344
S'd'
asg30
VF
sg17
S'Y'
sg14
I10
sg19
(lp4345
S'space'
p4346
asg94
I8
sa(dp4347
g16
(lp4348
S'd'
asS'.thisIndex'
p4349
I11
sS'.thisRepN'
p4350
I33
sg26
S'Y'
sg30
VF
sg31
g32
sS'.thisTrialN'
p4351
I5
sS'.thisN'
p4352
I500
sg25
S'Y'
sg24
S'Y'
sg15
(lp4353
S'k'
asg17
S'Y'
sg14
I11
sg94
I11
sa(dp4354
g16
(lp4355
S'd'
asS'.thisIndex'
p4356
I6
sS'.thisRepN'
p4357
I33
sg26
S'Y'
sg30
VF
sg31
g32
sS'.thisTrialN'
p4358
I6
sS'.thisN'
p4359
I501
sg25
S'Y'
sg15
(lp4360
S'd'
asg17
S'N'
sg14
I11
sg94
I6
sa(dp4361
g16
(lp4362
S'k'
asg18
S'N'
sS'.thisRepN'
p4363
I33
sg26
S'Y'
sg20
S'N'
sg31
g32
sS'.thisTrialN'
p4364
I7
sS'.thisN'
p4365
I502
sg25
S'Y'
sg15
(lp4366
S'k'
asg30
VF
sg17
S'N'
sg14
I11
sg19
(lp4367
S'space'
p4368
asg94
I14
sS'.thisIndex'
p4369
I14
sa(dp4370
g16
(lp4371
S'd'
asg18
S'Y'
sS'.thisRepN'
p4372
I33
sg26
S'Y'
sg20
S'Y'
sg31
g32
sS'.thisTrialN'
p4373
I8
sS'.thisN'
p4374
I503
sg25
S'Y'
sg15
(lp4375
S'd'
asg30
VF
sg17
S'N'
sg14
I11
sg19
(lp4376
S'space'
p4377
asg94
I5
sS'.thisIndex'
p4378
I5
sa(dp4379
g16
(lp4380
S'd'
asg18
S'Y'
sS'.thisRepN'
p4381
I33
sg26
S'Y'
sg20
S'Y'
sg31
g32
sS'.thisTrialN'
p4382
I9
sS'.thisN'
p4383
I504
sg25
S'Y'
sg15
(lp4384
S'd'
asg30
VF
sg17
S'N'
sg14
I11
sg19
(lp4385
S'space'
p4386
asg94
I4
sS'.thisIndex'
p4387
I4
sa(dp4388
g16
(lp4389
S'd'
asg18
S'N'
sS'.thisRepN'
p4390
I33
sg26
S'Y'
sg20
S'Y'
sg31
g32
sS'.thisTrialN'
p4391
I10
sS'.thisN'
p4392
I505
sg25
S'Y'
sg15
(lp4393
S'k'
asg30
VF
sg17
S'Y'
sg14
I11
sg19
Nsg94
I8
sS'.thisIndex'
p4394
I8
sa(dp4395
g16
(lp4396
S'd'
asg18
S'Y'
sS'.thisRepN'
p4397
I33
sg26
S'Y'
sg20
S'N'
sg31
g32
sS'.thisTrialN'
p4398
I11
sS'.thisN'
p4399
I506
sg25
S'Y'
sg15
(lp4400
S'd'
asg30
VF
sg17
S'N'
sg14
I11
sg19
Nsg94
I3
sS'.thisIndex'
p4401
I3
sa(dp4402
g16
(lp4403
S'k'
asg18
S'N'
sS'.thisRepN'
p4404
I33
sg26
S'Y'
sg20
S'N'
sg31
g32
sS'.thisTrialN'
p4405
I12
sS'.thisN'
p4406
I507
sg25
S'Y'
sg15
(lp4407
S'k'
asg30
VF
sg17
S'N'
sg14
I11
sg19
(lp4408
S'space'
p4409
asg94
I2
sS'.thisIndex'
p4410
I2
sa(dp4411
g16
(lp4412
S'k'
asg18
S'Y'
sS'.thisRepN'
p4413
I33
sg26
S'Y'
sg20
S'N'
sg31
g32
sS'.thisTrialN'
p4414
I13
sS'.thisN'
p4415
I508
sg25
S'Y'
sg15
(lp4416
S'd'
asg30
VF
sg17
S'Y'
sg14
I11
sg19
Nsg94
I6
sS'.thisIndex'
p4417
I6
sa(dp4418
g16
(lp4419
S'k'
asg18
S'N'
sS'.thisRepN'
p4420
I33
sg26
S'Y'
sg20
S'Y'
sg31
g32
sS'.thisTrialN'
p4421
I14
sS'.thisN'
p4422
I509
sg25
S'Y'
sg15
(lp4423
S'k'
asg30
VF
sg17
S'N'
sg14
I11
sg19
Nsg94
I6
sS'.thisIndex'
p4424
I6
sa(dp4425
g16
(lp4426
S'd'
asg18
S'Y'
sS'.thisRepN'
p4427
I34
sg26
S'Y'
sg20
S'N'
sg31
g32
sS'.thisTrialN'
p4428
I0
sS'.thisN'
p4429
I510
sg25
S'Y'
sg15
(lp4430
S'd'
asg30
VF
sg17
S'N'
sg14
I11
sg19
Nsg94
I1
sS'.thisIndex'
p4431
I1
sa(dp4432
g16
(lp4433
S'd'
asg18
S'N'
sS'.thisRepN'
p4434
I34
sg26
S'Y'
sg20
S'N'
sg31
g32
sS'.thisTrialN'
p4435
I1
sS'.thisN'
p4436
I511
sg25
S'Y'
sg15
(lp4437
S'k'
asg30
VF
sg17
S'Y'
sg14
I11
sg19
(lp4438
S'space'
p4439
asg94
I8
sS'.thisIndex'
p4440
I8
sa(dp4441
g16
(lp4442
S'd'
asg18
S'N'
sS'.thisRepN'
p4443
I34
sg26
S'Y'
sg20
S'N'
sg31
g32
sS'.thisTrialN'
p4444
I2
sS'.thisN'
p4445
I512
sg25
S'Y'
sg15
(lp4446
S'k'
asg30
VF
sg17
S'Y'
sg14
I11
sg19
(lp4447
S'space'
p4448
asg94
I12
sS'.thisIndex'
p4449
I12
sa(dp4450
g16
(lp4451
S'd'
asg18
S'N'
sS'.thisRepN'
p4452
I34
sg26
S'Y'
sg20
S'N'
sg31
g32
sS'.thisTrialN'
p4453
I3
sS'.thisN'
p4454
I513
sg25
S'Y'
sg15
(lp4455
S'd'
asg30
VF
sg17
S'N'
sg14
I11
sg19
(lp4456
S'space'
p4457
asg94
I6
sS'.thisIndex'
p4458
I6
sa(dp4459
g16
(lp4460
S'k'
asg18
S'N'
sS'.thisRepN'
p4461
I34
sg26
S'Y'
sg20
S'N'
sg31
g32
sS'.thisTrialN'
p4462
I4
sS'.thisN'
p4463
I514
sg25
S'Y'
sg15
(lp4464
S'k'
asg30
VF
sg17
S'N'
sg14
I11
sg19
(lp4465
S'space'
p4466
asg94
I7
sS'.thisIndex'
p4467
I7
sa(dp4468
g16
(lp4469
S'd'
asg18
S'N'
sS'.thisRepN'
p4470
I34
sg26
S'Y'
sg20
S'N'
sg31
g32
sS'.thisTrialN'
p4471
I5
sS'.thisN'
p4472
I515
sg25
S'Y'
sg15
(lp4473
S'd'
asg30
VF
sg17
S'N'
sg14
I11
sg19
(lp4474
S'space'
p4475
asg94
I12
sS'.thisIndex'
p4476
I12
sa(dp4477
g16
(lp4478
S'k'
asg18
S'Y'
sS'.thisRepN'
p4479
I34
sg26
S'Y'
sg20
S'Y'
sg31
g32
sS'.thisTrialN'
p4480
I6
sS'.thisN'
p4481
I516
sg25
S'Y'
sg15
(lp4482
S'd'
asg30
VF
sg17
S'Y'
sg14
I11
sg19
(lp4483
S'space'
p4484
asg94
I13
sS'.thisIndex'
p4485
I13
sa(dp4486
g16
(lp4487
S'k'
asg18
S'Y'
sS'.thisRepN'
p4488
I34
sg26
S'Y'
sg20
S'Y'
sg31
g32
sS'.thisTrialN'
p4489
I7
sS'.thisN'
p4490
I517
sg25
S'Y'
sg15
(lp4491
S'k'
asg30
VF
sg17
S'N'
sg14
I11
sg19
(lp4492
S'space'
p4493
asg94
I5
sS'.thisIndex'
p4494
I5
sa(dp4495
g16
(lp4496
S'd'
asg18
S'N'
sS'.thisRepN'
p4497
I34
sg26
S'Y'
sg20
S'N'
sg31
g32
sS'.thisTrialN'
p4498
I8
sS'.thisN'
p4499
I518
sg25
S'Y'
sg15
(lp4500
S'd'
asg30
VF
sg17
S'N'
sg14
I11
sg19
(lp4501
S'space'
p4502
asg94
I0
sS'.thisIndex'
p4503
I0
sa(dp4504
g16
(lp4505
S'k'
asg18
S'N'
sS'.thisRepN'
p4506
I34
sg26
S'Y'
sg20
S'N'
sg31
g32
sS'.thisTrialN'
p4507
I9
sS'.thisN'
p4508
I519
sg25
S'Y'
sg15
(lp4509
S'k'
asg30
VF
sg17
S'N'
sg14
I11
sg19
(lp4510
S'space'
p4511
asg94
I2
sS'.thisIndex'
p4512
I2
sa(dp4513
g16
(lp4514
S'd'
asg18
S'N'
sS'.thisRepN'
p4515
I34
sg26
S'Y'
sg20
S'N'
sg31
g32
sS'.thisTrialN'
p4516
I10
sS'.thisN'
p4517
I520
sg25
S'Y'
sg15
(lp4518
S'k'
asg30
VF
sg17
S'Y'
sg14
I11
sg19
(lp4519
S'space'
p4520
asg94
I11
sS'.thisIndex'
p4521
I11
sa(dp4522
g16
(lp4523
S'd'
asg18
S'N'
sS'.thisRepN'
p4524
I34
sg26
S'Y'
sg20
S'N'
sg31
g32
sS'.thisTrialN'
p4525
I11
sS'.thisN'
p4526
I521
sg25
S'Y'
sg15
(lp4527
S'k'
asg30
VF
sg17
S'Y'
sg14
I11
sg19
(lp4528
S'space'
p4529
asg94
I0
sS'.thisIndex'
p4530
I0
sa(dp4531
g16
(lp4532
S'k'
asg18
S'N'
sS'.thisRepN'
p4533
I34
sg26
S'Y'
sg20
S'N'
sg31
g32
sS'.thisTrialN'
p4534
I12
sS'.thisN'
p4535
I522
sg25
S'Y'
sg15
(lp4536
S'd'
asg30
VF
sg17
S'Y'
sg14
I11
sg19
(lp4537
S'space'
p4538
asg94
I7
sS'.thisIndex'
p4539
I7
sa(dp4540
g16
(lp4541
S'k'
asg18
S'Y'
sS'.thisRepN'
p4542
I34
sg26
S'Y'
sg20
S'Y'
sg31
g32
sS'.thisTrialN'
p4543
I13
sS'.thisN'
p4544
I523
sg25
S'Y'
sg15
(lp4545
S'k'
asg30
VF
sg17
S'N'
sg14
I11
sg19
(lp4546
S'space'
p4547
asg94
I5
sS'.thisIndex'
p4548
I5
sa(dp4549
g16
(lp4550
S'd'
asg18
S'N'
sS'.thisRepN'
p4551
I34
sg26
S'Y'
sg20
S'N'
sg31
g32
sS'.thisTrialN'
p4552
I14
sS'.thisN'
p4553
I524
sg25
S'Y'
sg15
(lp4554
S'd'
asg30
VF
sg17
S'N'
sg14
I11
sg19
(lp4555
S'space'
p4556
asg94
I13
sS'.thisIndex'
p4557
I13
sa(dp4558
g16
(lp4559
S'd'
asg18
S'Y'
sS'.thisRepN'
p4560
I35
sg26
S'Y'
sg20
S'Y'
sg31
g32
sS'.thisTrialN'
p4561
I0
sS'.thisN'
p4562
I525
sg25
S'Y'
sg15
(lp4563
S'k'
asg30
VF
sg17
S'Y'
sg14
I11
sg19
(lp4564
S'space'
p4565
asg94
I14
sS'.thisIndex'
p4566
I14
sa(dp4567
g16
(lp4568
S'd'
asg18
S'Y'
sS'.thisRepN'
p4569
I35
sg26
S'Y'
sg20
S'Y'
sg31
g32
sS'.thisTrialN'
p4570
I1
sS'.thisN'
p4571
I526
sg25
S'Y'
sg15
(lp4572
S'k'
asg30
VF
sg17
S'Y'
sg14
I11
sg19
(lp4573
S'space'
p4574
asg94
I9
sS'.thisIndex'
p4575
I9
sa(dp4576
g16
(lp4577
S'd'
asg18
S'N'
sS'.thisRepN'
p4578
I35
sg26
S'Y'
sg20
S'N'
sg31
g32
sS'.thisTrialN'
p4579
I2
sS'.thisN'
p4580
I527
sg25
S'Y'
sg15
(lp4581
S'd'
asg30
VF
sg17
S'N'
sg14
I11
sg19
(lp4582
S'space'
p4583
asg94
I0
sS'.thisIndex'
p4584
I0
sa(dp4585
g16
(lp4586
S'd'
asg18
S'N'
sS'.thisRepN'
p4587
I35
sg26
S'Y'
sg20
S'N'
sg31
g32
sS'.thisTrialN'
p4588
I3
sS'.thisN'
p4589
I528
sg25
S'Y'
sg15
(lp4590
S'k'
asg30
VF
sg17
S'Y'
sg14
I11
sg19
(lp4591
S'space'
p4592
asg94
I9
sS'.thisIndex'
p4593
I9
sa(dp4594
g16
(lp4595
S'd'
asg18
S'N'
sS'.thisRepN'
p4596
I35
sg26
S'Y'
sg20
S'N'
sg31
g32
sS'.thisTrialN'
p4597
I4
sS'.thisN'
p4598
I529
sg25
S'Y'
sg15
(lp4599
S'd'
asg30
VF
sg17
S'N'
sg14
I11
sg19
(lp4600
S'space'
p4601
asg94
I10
sS'.thisIndex'
p4602
I10
sa(dp4603
g16
(lp4604
S'd'
asg18
S'N'
sS'.thisRepN'
p4605
I35
sg26
S'Y'
sg20
S'N'
sg31
g32
sS'.thisTrialN'
p4606
I5
sS'.thisN'
p4607
I530
sg25
S'Y'
sg15
(lp4608
S'k'
asg30
VF
sg17
S'Y'
sg14
I11
sg19
(lp4609
S'space'
p4610
asg94
I5
sS'.thisIndex'
p4611
I5
sa(dp4612
g16
(lp4613
S'd'
asg18
S'Y'
sS'.thisRepN'
p4614
I35
sg26
S'Y'
sg20
S'Y'
sg31
g32
sS'.thisTrialN'
p4615
I6
sS'.thisN'
p4616
I531
sg25
S'Y'
sg15
(lp4617
S'd'
asg30
VF
sg17
S'N'
sg14
I11
sg19
(lp4618
S'space'
p4619
asg94
I14
sS'.thisIndex'
p4620
I14
sa(dp4621
g16
(lp4622
S'k'
asg18
S'N'
sS'.thisRepN'
p4623
I35
sg26
S'Y'
sg20
S'N'
sg31
g32
sS'.thisTrialN'
p4624
I7
sS'.thisN'
p4625
I532
sg25
S'Y'
sg15
(lp4626
S'k'
asg30
VF
sg17
S'N'
sg14
I11
sg19
(lp4627
S'space'
p4628
asg94
I9
sS'.thisIndex'
p4629
I9
sa(dp4630
g16
(lp4631
S'k'
asg18
S'N'
sS'.thisRepN'
p4632
I35
sg26
S'Y'
sg20
S'Y'
sg31
g32
sS'.thisTrialN'
p4633
I8
sS'.thisN'
p4634
I533
sg25
S'Y'
sg15
(lp4635
S'd'
asg30
VF
sg17
S'Y'
sg14
I11
sg19
Nsg94
I12
sS'.thisIndex'
p4636
I12
sa(dp4637
g16
(lp4638
S'd'
asg18
S'Y'
sS'.thisRepN'
p4639
I35
sg26
S'Y'
sg20
S'Y'
sg31
g32
sS'.thisTrialN'
p4640
I9
sS'.thisN'
p4641
I534
sg25
S'Y'
sg15
(lp4642
S'd'
asg30
VF
sg17
S'N'
sg14
I11
sg19
(lp4643
S'space'
p4644
asg94
I0
sS'.thisIndex'
p4645
I0
sa(dp4646
g16
(lp4647
S'k'
asg18
S'Y'
sS'.thisRepN'
p4648
I35
sg26
S'Y'
sg20
S'Y'
sg31
g32
sS'.thisTrialN'
p4649
I10
sS'.thisN'
p4650
I535
sg25
S'Y'
sg15
(lp4651
S'k'
asg30
VF
sg17
S'N'
sg14
I11
sg19
(lp4652
S'space'
p4653
asg94
I1
sS'.thisIndex'
p4654
I1
sa(dp4655
g16
(lp4656
S'k'
asg18
S'Y'
sS'.thisRepN'
p4657
I35
sg26
S'Y'
sg20
S'Y'
sg31
g32
sS'.thisTrialN'
p4658
I11
sS'.thisN'
p4659
I536
sg25
S'Y'
sg15
(lp4660
S'k'
asg30
VF
sg17
S'N'
sg14
I11
sg19
(lp4661
S'space'
p4662
asg94
I0
sS'.thisIndex'
p4663
I0
sa(dp4664
g16
(lp4665
S'k'
asg18
S'Y'
sS'.thisRepN'
p4666
I35
sg26
S'Y'
sg20
S'Y'
sg31
g32
sS'.thisTrialN'
p4667
I12
sS'.thisN'
p4668
I537
sg25
S'Y'
sg15
(lp4669
S'd'
asg30
VF
sg17
S'Y'
sg14
I11
sg19
(lp4670
S'space'
p4671
asg94
I9
sS'.thisIndex'
p4672
I9
sa(dp4673
g16
(lp4674
S'k'
asg18
S'Y'
sS'.thisRepN'
p4675
I35
sg26
S'Y'
sg20
S'Y'
sg31
g32
sS'.thisTrialN'
p4676
I13
sS'.thisN'
p4677
I538
sg25
S'Y'
sg15
(lp4678
S'd'
asg30
VF
sg17
S'Y'
sg14
I11
sg19
(lp4679
S'space'
p4680
asg94
I9
sS'.thisIndex'
p4681
I9
sa(dp4682
g16
(lp4683
S'd'
asg18
S'Y'
sS'.thisRepN'
p4684
I35
sg26
S'Y'
sg20
S'Y'
sg31
g32
sS'.thisTrialN'
p4685
I14
sS'.thisN'
p4686
I539
sg25
S'Y'
sg15
(lp4687
S'k'
asg30
VF
sg17
S'Y'
sg14
I11
sg19
(lp4688
S'space'
p4689
asg94
I4
sS'.thisIndex'
p4690
I4
sa(dp4691
g16
(lp4692
S'd'
asg18
S'N'
sS'.thisRepN'
p4693
I36
sg26
S'Y'
sg20
S'N'
sg31
g32
sS'.thisTrialN'
p4694
I0
sS'.thisN'
p4695
I540
sg25
S'Y'
sg15
(lp4696
S'd'
asg30
VF
sg17
S'N'
sg14
I11
sg19
(lp4697
S'd'
asg94
I11
sS'.thisIndex'
p4698
I11
sa(dp4699
g16
(lp4700
S'k'
asg18
S'N'
sS'.thisRepN'
p4701
I36
sg26
S'Y'
sg20
S'N'
sg31
g32
sS'.thisTrialN'
p4702
I1
sS'.thisN'
p4703
I541
sg25
S'Y'
sg15
(lp4704
S'k'
asg30
VF
sg17
S'N'
sg14
I11
sg19
(lp4705
S'space'
p4706
asg94
I12
sS'.thisIndex'
p4707
I12
sa(dp4708
g16
(lp4709
S'k'
asg18
S'N'
sS'.thisRepN'
p4710
I36
sg26
S'Y'
sg20
S'N'
sg31
g32
sS'.thisTrialN'
p4711
I2
sS'.thisN'
p4712
I542
sg25
S'Y'
sg15
(lp4713
S'd'
asg30
VF
sg17
S'Y'
sg14
I11
sg19
(lp4714
S'space'
p4715
asg94
I3
sS'.thisIndex'
p4716
I3
sa(dp4717
g16
(lp4718
S'd'
asg18
S'N'
sS'.thisRepN'
p4719
I36
sg26
S'Y'
sg20
S'N'
sg31
g32
sS'.thisTrialN'
p4720
I3
sS'.thisN'
p4721
I543
sg25
S'Y'
sg15
(lp4722
S'k'
asg30
VF
sg17
S'Y'
sg14
I11
sg19
(lp4723
S'space'
p4724
asg94
I10
sS'.thisIndex'
p4725
I10
sa(dp4726
g16
(lp4727
S'k'
asg18
S'Y'
sS'.thisRepN'
p4728
I36
sg26
S'Y'
sg20
S'N'
sg31
g32
sS'.thisTrialN'
p4729
I4
sS'.thisN'
p4730
I544
sg25
S'Y'
sg15
(lp4731
S'k'
asg30
VF
sg17
S'N'
sg14
I11
sg19
(lp4732
S'd'
asg94
I14
sS'.thisIndex'
p4733
I14
sa(dp4734
g16
(lp4735
S'k'
asg18
S'Y'
sS'.thisRepN'
p4736
I36
sg26
S'Y'
sg20
S'Y'
sg31
g32
sS'.thisTrialN'
p4737
I5
sS'.thisN'
p4738
I545
sg25
S'Y'
sg15
(lp4739
S'd'
asg30
VF
sg17
S'Y'
sg14
I11
sg19
(lp4740
S'space'
p4741
asg94
I6
sS'.thisIndex'
p4742
I6
sa(dp4743
g16
(lp4744
S'k'
asg18
S'N'
sS'.thisRepN'
p4745
I36
sg26
S'Y'
sg20
S'N'
sg31
g32
sS'.thisTrialN'
p4746
I6
sS'.thisN'
p4747
I546
sg25
S'Y'
sg15
(lp4748
S'k'
asg30
VF
sg17
S'N'
sg14
I11
sg19
(lp4749
S'space'
p4750
asg94
I8
sS'.thisIndex'
p4751
I8
sa(dp4752
g16
(lp4753
S'd'
asg18
S'N'
sS'.thisRepN'
p4754
I36
sg26
S'Y'
sg20
S'N'
sg31
g32
sS'.thisTrialN'
p4755
I7
sS'.thisN'
p4756
I547
sg25
S'Y'
sg15
(lp4757
S'k'
asg30
VF
sg17
S'Y'
sg14
I11
sg19
(lp4758
S'space'
p4759
asg94
I7
sS'.thisIndex'
p4760
I7
sa(dp4761
g16
(lp4762
S'k'
asg18
S'Y'
sS'.thisRepN'
p4763
I36
sg26
S'Y'
sg20
S'Y'
sg31
g32
sS'.thisTrialN'
p4764
I8
sS'.thisN'
p4765
I548
sg25
S'Y'
sg15
(lp4766
S'k'
asg30
VF
sg17
S'N'
sg14
I11
sg19
(lp4767
S'space'
p4768
asg94
I4
sS'.thisIndex'
p4769
I4
sa(dp4770
g16
(lp4771
S'k'
asg18
S'Y'
sg22
I20
sg26
S'Y'
sS'.thisN'
p4772
I549
sg20
S'Y'
sg31
g32
sS'.thisTrialN'
p4773
I9
sS'.thisRepN'
p4774
I36
sg21
I22
sg25
S'Y'
sg23
I21
sg15
(lp4775
S'd'
asg30
VF
sg17
S'Y'
sg14
I11
sg19
(lp4776
S'space'
p4777
asg94
I4
sS'.thisIndex'
p4778
I4
sa(dp4779
g16
(lp4780
S'k'
asS'.thisIndex'
p4781
I5
sS'.thisRepN'
p4782
I36
sg26
S'Y'
sg30
VF
sg31
g32
sS'.thisTrialN'
p4783
I10
sS'.thisN'
p4784
I550
sg25
S'Y'
sg15
(lp4785
S'k'
asg17
S'N'
sg14
I12
sg94
I5
sa(dp4786
g16
(lp4787
S'd'
asS'.thisIndex'
p4788
I1
sS'.thisRepN'
p4789
I36
sg26
S'Y'
sg30
VF
sg31
g32
sS'.thisTrialN'
p4790
I11
sS'.thisN'
p4791
I551
sg25
S'Y'
sg15
(lp4792
S'd'
asg17
S'N'
sg14
I12
sg94
I1
sa(dp4793
g16
(lp4794
S'd'
asg18
S'Y'
sS'.thisRepN'
p4795
I36
sg26
S'Y'
sg20
S'N'
sg31
g32
sS'.thisTrialN'
p4796
I12
sS'.thisN'
p4797
I552
sg25
S'Y'
sg15
(lp4798
S'k'
asg30
VF
sg17
S'Y'
sg14
I12
sg19
Nsg94
I10
sS'.thisIndex'
p4799
I10
sa(dp4800
g16
(lp4801
S'd'
asg18
S'N'
sS'.thisRepN'
p4802
I36
sg26
S'Y'
sg20
S'Y'
sg31
g32
sS'.thisTrialN'
p4803
I13
sS'.thisN'
p4804
I553
sg25
S'Y'
sg15
(lp4805
S'k'
asg30
VF
sg17
S'Y'
sg14
I12
sg19
Nsg94
I6
sS'.thisIndex'
p4806
I6
sa(dp4807
g16
(lp4808
S'd'
asg18
S'N'
sS'.thisRepN'
p4809
I36
sg26
S'Y'
sg20
S'N'
sg31
g32
sS'.thisTrialN'
p4810
I14
sS'.thisN'
p4811
I554
sg25
S'Y'
sg15
(lp4812
S'k'
asg30
VF
sg17
S'Y'
sg14
I12
sg19
(lp4813
S'space'
p4814
asg94
I6
sS'.thisIndex'
p4815
I6
sa(dp4816
g16
(lp4817
S'd'
asg18
S'Y'
sS'.thisRepN'
p4818
I37
sg26
S'Y'
sg20
S'Y'
sg31
g32
sS'.thisTrialN'
p4819
I0
sS'.thisN'
p4820
I555
sg25
S'Y'
sg15
(lp4821
S'k'
asg30
VF
sg17
S'Y'
sg14
I12
sg19
(lp4822
S'space'
p4823
asg94
I13
sS'.thisIndex'
p4824
I13
sa(dp4825
g16
(lp4826
S'k'
asg18
S'Y'
sS'.thisRepN'
p4827
I37
sg26
S'Y'
sg20
S'Y'
sg31
g32
sS'.thisTrialN'
p4828
I1
sS'.thisN'
p4829
I556
sg25
S'Y'
sg15
(lp4830
S'd'
asg30
VF
sg17
S'Y'
sg14
I12
sg19
(lp4831
S'space'
p4832
asg94
I7
sS'.thisIndex'
p4833
I7
sa(dp4834
g16
(lp4835
S'd'
asg18
S'Y'
sS'.thisRepN'
p4836
I37
sg26
S'Y'
sg20
S'Y'
sg31
g32
sS'.thisTrialN'
p4837
I2
sS'.thisN'
p4838
I557
sg25
S'Y'
sg15
(lp4839
S'd'
asg30
VF
sg17
S'N'
sg14
I12
sg19
(lp4840
S'space'
p4841
asg94
I11
sS'.thisIndex'
p4842
I11
sa(dp4843
g16
(lp4844
S'd'
asg18
S'N'
sS'.thisRepN'
p4845
I37
sg26
S'Y'
sg20
S'N'
sg31
g32
sS'.thisTrialN'
p4846
I3
sS'.thisN'
p4847
I558
sg25
S'Y'
sg15
(lp4848
S'k'
asg30
VF
sg17
S'Y'
sg14
I12
sg19
(lp4849
S'space'
p4850
asg94
I9
sS'.thisIndex'
p4851
I9
sa(dp4852
g16
(lp4853
S'd'
asg18
S'Y'
sS'.thisRepN'
p4854
I37
sg26
S'Y'
sg20
S'Y'
sg31
g32
sS'.thisTrialN'
p4855
I4
sS'.thisN'
p4856
I559
sg25
S'Y'
sg15
(lp4857
S'k'
asg30
VF
sg17
S'Y'
sg14
I12
sg19
(lp4858
S'space'
p4859
asg94
I11
sS'.thisIndex'
p4860
I11
sa(dp4861
g16
(lp4862
S'k'
asg18
S'Y'
sS'.thisRepN'
p4863
I37
sg26
S'Y'
sg20
S'Y'
sg31
g32
sS'.thisTrialN'
p4864
I5
sS'.thisN'
p4865
I560
sg25
S'Y'
sg15
(lp4866
S'k'
asg30
VF
sg17
S'N'
sg14
I12
sg19
(lp4867
S'space'
p4868
asg94
I8
sS'.thisIndex'
p4869
I8
sa(dp4870
g16
(lp4871
S'k'
asg18
S'Y'
sS'.thisRepN'
p4872
I37
sg26
S'Y'
sg20
S'Y'
sg31
g32
sS'.thisTrialN'
p4873
I6
sS'.thisN'
p4874
I561
sg25
S'Y'
sg15
(lp4875
S'd'
asg30
VF
sg17
S'Y'
sg14
I12
sg19
(lp4876
S'space'
p4877
asg94
I11
sS'.thisIndex'
p4878
I11
sa(dp4879
g16
(lp4880
S'k'
asg18
S'Y'
sS'.thisRepN'
p4881
I37
sg26
S'Y'
sg20
S'Y'
sg31
g32
sS'.thisTrialN'
p4882
I7
sS'.thisN'
p4883
I562
sg25
S'Y'
sg15
(lp4884
S'd'
asg30
VF
sg17
S'Y'
sg14
I12
sg19
(lp4885
S'space'
p4886
asg94
I8
sS'.thisIndex'
p4887
I8
sa(dp4888
g16
(lp4889
S'k'
asg18
S'N'
sS'.thisRepN'
p4890
I37
sg26
S'Y'
sg20
S'N'
sg31
g32
sS'.thisTrialN'
p4891
I8
sS'.thisN'
p4892
I563
sg25
S'Y'
sg15
(lp4893
S'd'
asg30
VF
sg17
S'Y'
sg14
I12
sg19
(lp4894
S'space'
p4895
asg94
I9
sS'.thisIndex'
p4896
I9
sa(dp4897
g16
(lp4898
S'd'
asg18
S'N'
sS'.thisRepN'
p4899
I37
sg26
S'Y'
sg20
S'N'
sg31
g32
sS'.thisTrialN'
p4900
I9
sS'.thisN'
p4901
I564
sg25
S'Y'
sg15
(lp4902
S'k'
asg30
VF
sg17
S'Y'
sg14
I12
sg19
(lp4903
S'space'
p4904
asg94
I7
sS'.thisIndex'
p4905
I7
sa(dp4906
g16
(lp4907
S'k'
asg18
S'N'
sS'.thisRepN'
p4908
I37
sg26
S'Y'
sg20
S'Y'
sg31
g32
sS'.thisTrialN'
p4909
I10
sS'.thisN'
p4910
I565
sg25
S'Y'
sg15
(lp4911
S'd'
asg30
VF
sg17
S'Y'
sg14
I12
sg19
Nsg94
I5
sS'.thisIndex'
p4912
I5
sa(dp4913
g16
(lp4914
S'k'
asg18
S'N'
sS'.thisRepN'
p4915
I37
sg26
S'Y'
sg20
S'Y'
sg31
g32
sS'.thisTrialN'
p4916
I11
sS'.thisN'
p4917
I566
sg25
S'Y'
sg15
(lp4918
S'd'
asg30
VF
sg17
S'Y'
sg14
I12
sg19
Nsg94
I3
sS'.thisIndex'
p4919
I3
sa(dp4920
g16
(lp4921
S'd'
asg18
S'Y'
sS'.thisRepN'
p4922
I37
sg26
S'Y'
sg20
S'N'
sg31
g32
sS'.thisTrialN'
p4923
I12
sS'.thisN'
p4924
I567
sg25
S'Y'
sg15
(lp4925
S'k'
asg30
VF
sg17
S'Y'
sg14
I12
sg19
(lp4926
S'k'
asg94
I10
sS'.thisIndex'
p4927
I10
sa(dp4928
g16
(lp4929
S'd'
asg18
S'Y'
sS'.thisRepN'
p4930
I37
sg26
S'Y'
sg20
S'N'
sg31
g32
sS'.thisTrialN'
p4931
I13
sS'.thisN'
p4932
I568
sg25
S'Y'
sg15
(lp4933
S'd'
asg30
VF
sg17
S'N'
sg14
I12
sg19
Nsg94
I5
sS'.thisIndex'
p4934
I5
sa(dp4935
g16
(lp4936
S'k'
asg18
S'Y'
sS'.thisRepN'
p4937
I37
sg26
S'Y'
sg20
S'N'
sg31
g32
sS'.thisTrialN'
p4938
I14
sS'.thisN'
p4939
I569
sg25
S'Y'
sg15
(lp4940
S'k'
asg30
VF
sg17
S'N'
sg14
I12
sg19
Nsg94
I14
sS'.thisIndex'
p4941
I14
sa(dp4942
g16
(lp4943
S'k'
asg18
S'N'
sS'.thisRepN'
p4944
I38
sg26
S'Y'
sg20
S'N'
sg31
g32
sS'.thisTrialN'
p4945
I0
sS'.thisN'
p4946
I570
sg25
S'Y'
sg15
(lp4947
S'd'
asg30
VF
sg17
S'Y'
sg14
I12
sg19
(lp4948
S'space'
p4949
asg94
I1
sS'.thisIndex'
p4950
I1
sa(dp4951
g16
(lp4952
S'k'
asg18
S'N'
sS'.thisRepN'
p4953
I38
sg26
S'Y'
sg20
S'N'
sg31
g32
sS'.thisTrialN'
p4954
I1
sS'.thisN'
p4955
I571
sg25
S'Y'
sg15
(lp4956
S'k'
asg30
VF
sg17
S'N'
sg14
I12
sg19
(lp4957
S'space'
p4958
asg94
I14
sS'.thisIndex'
p4959
I14
sa(dp4960
g16
(lp4961
S'k'
asg18
S'N'
sS'.thisRepN'
p4962
I38
sg26
S'Y'
sg20
S'N'
sg31
g32
sS'.thisTrialN'
p4963
I2
sS'.thisN'
p4964
I572
sg25
S'Y'
sg15
(lp4965
S'd'
asg30
VF
sg17
S'Y'
sg14
I12
sg19
(lp4966
S'space'
p4967
asg94
I13
sS'.thisIndex'
p4968
I13
sa(dp4969
g16
(lp4970
S'd'
asg18
S'Y'
sS'.thisRepN'
p4971
I38
sg26
S'Y'
sg20
S'N'
sg31
g32
sS'.thisTrialN'
p4972
I3
sS'.thisN'
p4973
I573
sg25
S'Y'
sg15
(lp4974
S'k'
asg30
VF
sg17
S'Y'
sg14
I12
sg19
Nsg94
I12
sS'.thisIndex'
p4975
I12
sa(dp4976
g16
(lp4977
S'k'
asg18
S'Y'
sS'.thisRepN'
p4978
I38
sg26
S'Y'
sg20
S'N'
sg31
g32
sS'.thisTrialN'
p4979
I4
sS'.thisN'
p4980
I574
sg25
S'Y'
sg15
(lp4981
S'd'
asg30
VF
sg17
S'Y'
sg14
I12
sg19
(lp4982
S'd'
asg94
I0
sS'.thisIndex'
p4983
I0
sa(dp4984
g16
(lp4985
S'd'
asg18
S'N'
sS'.thisRepN'
p4986
I38
sg26
S'Y'
sg20
S'Y'
sg31
g32
sS'.thisTrialN'
p4987
I5
sS'.thisN'
p4988
I575
sg25
S'Y'
sg15
(lp4989
S'k'
asg30
VF
sg17
S'Y'
sg14
I12
sg19
Nsg94
I10
sS'.thisIndex'
p4990
I10
sa(dp4991
g16
(lp4992
S'k'
asg18
S'Y'
sS'.thisRepN'
p4993
I38
sg26
S'Y'
sg20
S'N'
sg31
g32
sS'.thisTrialN'
p4994
I6
sS'.thisN'
p4995
I576
sg25
S'Y'
sg15
(lp4996
S'd'
asg30
VF
sg17
S'Y'
sg14
I12
sg19
Nsg94
I12
sS'.thisIndex'
p4997
I12
sa(dp4998
g16
(lp4999
S'd'
asg18
S'N'
sS'.thisRepN'
p5000
I38
sg26
S'Y'
sg20
S'Y'
sg31
g32
sS'.thisTrialN'
p5001
I7
sS'.thisN'
p5002
I577
sg25
S'Y'
sg15
(lp5003
S'k'
asg30
VF
sg17
S'Y'
sg14
I12
sg19
Nsg94
I14
sS'.thisIndex'
p5004
I14
sa(dp5005
g16
(lp5006
S'd'
asg18
S'Y'
sS'.thisRepN'
p5007
I38
sg26
S'Y'
sg20
S'N'
sg31
g32
sS'.thisTrialN'
p5008
I8
sS'.thisN'
p5009
I578
sg25
S'Y'
sg15
(lp5010
S'd'
asg30
VF
sg17
S'N'
sg14
I12
sg19
Nsg94
I0
sS'.thisIndex'
p5011
I0
sa(dp5012
g16
(lp5013
S'k'
asg18
S'Y'
sS'.thisRepN'
p5014
I38
sg26
S'Y'
sg20
S'N'
sg31
g32
sS'.thisTrialN'
p5015
I9
sS'.thisN'
p5016
I579
sg25
S'Y'
sg15
(lp5017
S'k'
asg30
VF
sg17
S'N'
sg14
I12
sg19
(lp5018
S'k'
asg94
I5
sS'.thisIndex'
p5019
I5
sa(dp5020
g18
S'N'
sS'.thisRepN'
p5021
I38
sg26
S'Y'
sg20
S'Y'
sg31
g32
sS'.thisTrialN'
p5022
I10
sS'.thisN'
p5023
I580
sg25
S'Y'
sg15
Nsg30
VF
sg17
S'Timed out'
p5024
sg14
I12
sg19
Nsg94
I2
sS'.thisIndex'
p5025
I2
sa(dp5026
g18
S'Y'
sS'.thisRepN'
p5027
I38
sg26
S'Y'
sg20
S'N'
sg31
g32
sS'.thisTrialN'
p5028
I11
sS'.thisN'
p5029
I581
sg25
S'Y'
sg15
Nsg30
VF
sg17
g5024
sg14
I12
sg19
(lp5030
S'd'
asg94
I9
sS'.thisIndex'
p5031
I9
sa(dp5032
g16
(lp5033
S'd'
asg18
S'Y'
sS'.thisRepN'
p5034
I38
sg26
S'Y'
sg20
S'Y'
sg31
g32
sS'.thisTrialN'
p5035
I12
sS'.thisN'
p5036
I582
sg25
S'Y'
sg15
(lp5037
S'k'
asg30
VF
sg17
S'Y'
sg14
I12
sg19
(lp5038
S'space'
p5039
asg94
I3
sS'.thisIndex'
p5040
I3
sa(dp5041
g16
(lp5042
S'k'
asg18
S'N'
sS'.thisRepN'
p5043
I38
sg26
S'Y'
sg20
S'N'
sg31
g32
sS'.thisTrialN'
p5044
I13
sS'.thisN'
p5045
I583
sg25
S'Y'
sg15
(lp5046
S'd'
asg30
VF
sg17
S'Y'
sg14
I12
sg19
(lp5047
S'space'
p5048
asg94
I9
sS'.thisIndex'
p5049
I9
sa(dp5050
g16
(lp5051
S'k'
asg18
S'N'
sS'.thisRepN'
p5052
I38
sg26
S'Y'
sg20
S'Y'
sg31
g32
sS'.thisTrialN'
p5053
I14
sS'.thisN'
p5054
I584
sg25
S'Y'
sg15
(lp5055
S'k'
asg30
VF
sg17
S'N'
sg14
I12
sg19
Nsg94
I5
sS'.thisIndex'
p5056
I5
sa(dp5057
g16
(lp5058
S'k'
asg18
S'N'
sS'.thisRepN'
p5059
I39
sg26
S'Y'
sg20
S'Y'
sg31
g32
sS'.thisTrialN'
p5060
I0
sS'.thisN'
p5061
I585
sg25
S'Y'
sg15
(lp5062
S'k'
asg30
VF
sg17
S'N'
sg14
I12
sg19
Nsg94
I2
sS'.thisIndex'
p5063
I2
sa(dp5064
g16
(lp5065
S'k'
asg18
S'Y'
sS'.thisRepN'
p5066
I39
sg26
S'Y'
sg20
S'Y'
sg31
g32
sS'.thisTrialN'
p5067
I1
sS'.thisN'
p5068
I586
sg25
S'Y'
sg15
(lp5069
S'd'
asg30
VF
sg17
S'Y'
sg14
I12
sg19
(lp5070
S'space'
p5071
asg94
I10
sS'.thisIndex'
p5072
I10
sa(dp5073
g16
(lp5074
S'd'
asg18
S'N'
sS'.thisRepN'
p5075
I39
sg26
S'Y'
sg20
S'N'
sg31
g32
sS'.thisTrialN'
p5076
I2
sS'.thisN'
p5077
I587
sg25
S'Y'
sg15
(lp5078
S'd'
asg30
VF
sg17
S'N'
sg14
I12
sg19
(lp5079
S'space'
p5080
asg94
I11
sS'.thisIndex'
p5081
I11
sa(dp5082
g16
(lp5083
S'k'
asg18
S'N'
sS'.thisRepN'
p5084
I39
sg26
S'Y'
sg20
S'N'
sg31
g32
sS'.thisTrialN'
p5085
I3
sS'.thisN'
p5086
I588
sg25
S'Y'
sg15
(lp5087
S'k'
asg30
VF
sg17
S'N'
sg14
I12
sg19
(lp5088
S'space'
p5089
asg94
I5
sS'.thisIndex'
p5090
I5
sa(dp5091
g16
(lp5092
S'd'
asg18
S'Y'
sS'.thisRepN'
p5093
I39
sg26
S'Y'
sg20
S'Y'
sg31
g32
sS'.thisTrialN'
p5094
I4
sS'.thisN'
p5095
I589
sg25
S'Y'
sg15
(lp5096
S'k'
asg30
VF
sg17
S'Y'
sg14
I12
sg19
(lp5097
S'space'
p5098
asg94
I6
sS'.thisIndex'
p5099
I6
sa(dp5100
g16
(lp5101
S'd'
asg18
S'Y'
sS'.thisRepN'
p5102
I39
sg26
S'Y'
sg20
S'Y'
sg31
g32
sS'.thisTrialN'
p5103
I5
sS'.thisN'
p5104
I590
sg25
S'Y'
sg15
(lp5105
S'd'
asg30
VF
sg17
S'N'
sg14
I12
sg19
(lp5106
S'space'
p5107
asg94
I1
sS'.thisIndex'
p5108
I1
sa(dp5109
g16
(lp5110
S'k'
asg18
S'N'
sS'.thisRepN'
p5111
I39
sg26
S'Y'
sg20
S'N'
sg31
g32
sS'.thisTrialN'
p5112
I6
sS'.thisN'
p5113
I591
sg25
S'Y'
sg15
(lp5114
S'k'
asg30
VF
sg17
S'N'
sg14
I12
sg19
(lp5115
S'space'
p5116
asg94
I6
sS'.thisIndex'
p5117
I6
sa(dp5118
g16
(lp5119
S'k'
asg18
S'N'
sS'.thisRepN'
p5120
I39
sg26
S'Y'
sg20
S'N'
sg31
g32
sS'.thisTrialN'
p5121
I7
sS'.thisN'
p5122
I592
sg25
S'Y'
sg15
(lp5123
S'd'
asg30
VF
sg17
S'Y'
sg14
I12
sg19
(lp5124
S'space'
p5125
asg94
I7
sS'.thisIndex'
p5126
I7
sa(dp5127
g16
(lp5128
S'd'
asg18
S'Y'
sS'.thisRepN'
p5129
I39
sg26
S'Y'
sg20
S'Y'
sg31
g32
sS'.thisTrialN'
p5130
I8
sS'.thisN'
p5131
I593
sg25
S'Y'
sg15
(lp5132
S'd'
asg30
VF
sg17
S'N'
sg14
I12
sg19
(lp5133
S'space'
p5134
asg94
I13
sS'.thisIndex'
p5135
I13
sa(dp5136
g16
(lp5137
S'k'
asg18
S'Y'
sS'.thisRepN'
p5138
I39
sg26
S'Y'
sg20
S'Y'
sg31
g32
sS'.thisTrialN'
p5139
I9
sS'.thisN'
p5140
I594
sg25
S'Y'
sg15
(lp5141
S'k'
asg30
VF
sg17
S'N'
sg14
I12
sg19
(lp5142
S'space'
p5143
asg94
I13
sS'.thisIndex'
p5144
I13
sa(dp5145
g16
(lp5146
S'k'
asg18
S'N'
sS'.thisRepN'
p5147
I39
sg26
S'Y'
sg20
S'N'
sg31
g32
sS'.thisTrialN'
p5148
I10
sS'.thisN'
p5149
I595
sg25
S'Y'
sg15
(lp5150
S'd'
asg30
VF
sg17
S'Y'
sg14
I12
sg19
(lp5151
S'space'
p5152
asg94
I5
sS'.thisIndex'
p5153
I5
sa(dp5154
g16
(lp5155
S'k'
asg18
S'Y'
sS'.thisRepN'
p5156
I39
sg26
S'Y'
sg20
S'Y'
sg31
g32
sS'.thisTrialN'
p5157
I11
sS'.thisN'
p5158
I596
sg25
S'Y'
sg15
(lp5159
S'd'
asg30
VF
sg17
S'Y'
sg14
I12
sg19
(lp5160
S'space'
p5161
asg94
I0
sS'.thisIndex'
p5162
I0
sa(dp5163
g16
(lp5164
S'd'
asg18
S'N'
sS'.thisRepN'
p5165
I39
sg26
S'Y'
sg20
S'N'
sg31
g32
sS'.thisTrialN'
p5166
I12
sS'.thisN'
p5167
I597
sg25
S'Y'
sg15
(lp5168
S'd'
asg30
VF
sg17
S'N'
sg14
I12
sg19
(lp5169
S'space'
p5170
asg94
I4
sS'.thisIndex'
p5171
I4
sa(dp5172
g16
(lp5173
S'k'
asg18
S'Y'
sS'.thisRepN'
p5174
I39
sg26
S'Y'
sg20
S'Y'
sg31
g32
sS'.thisTrialN'
p5175
I13
sS'.thisN'
p5176
I598
sg25
S'Y'
sg15
(lp5177
S'k'
asg30
VF
sg17
S'N'
sg14
I12
sg19
(lp5178
S'space'
p5179
asg94
I0
sS'.thisIndex'
p5180
I0
sa(dp5181
g16
(lp5182
S'd'
asg18
S'N'
sg22
I24
sg26
S'Y'
sS'.thisN'
p5183
I599
sg20
S'Y'
sg31
g32
sS'.thisTrialN'
p5184
I14
sS'.thisRepN'
p5185
I39
sg21
I28
sg25
S'Y'
sg23
I25
sg15
(lp5186
S'd'
asg30
VF
sg17
S'N'
sg14
I12
sg19
Nsg94
I1
sS'.thisIndex'
p5187
I1
sasS'loops'
p5188
(lp5189
g1
(g35
g3
NtRp5190
(dp5191
g38
Nsg39
(lp5192
sg40
I79975408
sg10
S''
sg6
g41
sg42
I1
sg27
I01
sg28
Nsg43
g1
(g44
g45
(dp5193
g47
g48
(g49
g50
g51
S'b'
tRp5194
(I1
(I600
I1
tg54
I00
S'\x00\x00\x80?\x00\x00\x80?\x00\x00\x80?\x00\x00\x80?\x00\x00\x80?\x00\x00\x80?\x00\x00\x80?\x00\x00\x80?\x00\x00\x80?\x00\x00\x80?\x00\x00\x80?\x00\x00\x80?\x00\x00\x80?\x00\x00\x80?\x00\x00\x80?\x00\x00\x80?\x00\x00\x80?\x00\x00\x80?\x00\x00\x80?\x00\x00\x80?\x00\x00\x80?\x00\x00\x80?\x00\x00\x80?\x00\x00\x80?\x00\x00\x80?\x00\x00\x80?\x00\x00\x80?\x00\x00\x80?\x00\x00\x80?\x00\x00\x80?\x00\x00\x80?\x00\x00\x80?\x00\x00\x80?\x00\x00\x80?\x00\x00\x80?\x00\x00\x80?\x00\x00\x80?\x00\x00\x80?\x00\x00\x80?\x00\x00\x80?\x00\x00\x80?\x00\x00\x80?\x00\x00\x80?\x00\x00\x80?\x00\x00\x80?\x00\x00\x80?\x00\x00\x80?\x00\x00\x80?\x00\x00\x80?\x00\x00\x80?\x00\x00\x80?\x00\x00\x80?\x00\x00\x80?\x00\x00\x80?\x00\x00\x80?\x00\x00\x80?\x00\x00\x80?\x00\x00\x80?\x00\x00\x80?\x00\x00\x80?\x00\x00\x80?\x00\x00\x80?\x00\x00\x80?\x00\x00\x80?\x00\x00\x80?\x00\x00\x80?\x00\x00\x80?\x00\x00\x80?\x00\x00\x80?\x00\x00\x80?\x00\x00\x80?\x00\x00\x80?\x00\x00\x80?\x00\x00\x80?\x00\x00\x80?\x00\x00\x80?\x00\x00\x80?\x00\x00\x80?\x00\x00\x80?\x00\x00\x80?\x00\x00\x80?\x00\x00\x80?\x00\x00\x80?\x00\x00\x80?\x00\x00\x80?\x00\x00\x80?\x00\x00\x80?\x00\x00\x80?\x00\x00\x80?\x00\x00\x80?\x00\x00\x80?\x00\x00\x80?\x00\x00\x80?\x00\x00\x80?\x00\x00\x80?\x00\x00\x80?\x00\x00\x80?\x00\x00\x80?\x00\x00\x80?\x00\x00\x80?\x00\x00\x80?\x00\x00\x80?\x00\x00\x80?\x00\x00\x80?\x00\x00\x80?\x00\x00\x80?\x00\x00\x80?\x00\x00\x80?\x00\x00\x80?\x00\x00\x80?\x00\x00\x80?\x00\x00\x80?\x00\x00\x80?\x00\x00\x80?\x00\x00\x80?\x00\x00\x80?\x00\x00\x80?\x00\x00\x80?\x00\x00\x80?\x00\x00\x80?\x00\x00\x80?\x00\x00\x80?\x00\x00\x80?\x00\x00\x80?\x00\x00\x80?\x00\x00\x80?\x00\x00\x80?\x00\x00\x80?\x00\x00\x80?\x00\x00\x80?\x00\x00\x80?\x00\x00\x80?\x00\x00\x80?\x00\x00\x80?\x00\x00\x80?\x00\x00\x80?\x00\x00\x80?\x00\x00\x80?\x00\x00\x80?\x00\x00\x80?\x00\x00\x80?\x00\x00\x80?\x00\x00\x80?\x00\x00\x80?\x00\x00\x80?\x00\x00\x80?\x00\x00\x80?\x00\x00\x80?\x00\x00\x80?\x00\x00\x80?\x00\x00\x80?\x00\x00\x80?\x00\x00\x80?\x00\x00\x80?\x00\x00\x80?\x00\x00\x80?\x00\x00\x80?\x00\x00\x80?\x00\x00\x80?\x00\x00\x80?\x00\x00\x80?\x00\x00\x80?\x00\x00\x80?\x00\x00\x80?\x00\x00\x80?\x00\x00\x80?\x00\x00\x80?\x00\x00\x80?\x00\x00\x80?\x00\x00\x80?\x00\x00\x80?\x00\x00\x80?\x00\x00\x80?\x00\x00\x80?\x00\x00\x80?\x00\x00\x80?\x00\x00\x80?\x00\x00\x80?\x00\x00\x80?\x00\x00\x80?\x00\x00\x80?\x00\x00\x80?\x00\x00\x80?\x00\x00\x80?\x00\x00\x80?\x00\x00\x80?\x00\x00\x80?\x00\x00\x80?\x00\x00\x80?\x00\x00\x80?\x00\x00\x80?\x00\x00\x80?\x00\x00\x80?\x00\x00\x80?\x00\x00\x80?\x00\x00\x80?\x00\x00\x80?\x00\x00\x80?\x00\x00\x80?\x00\x00\x80?\x00\x00\x80?\x00\x00\x80?\x00\x00\x80?\x00\x00\x80?\x00\x00\x80?\x00\x00\x80?\x00\x00\x80?\x00\x00\x80?\x00\x00\x80?\x00\x00\x80?\x00\x00\x80?\x00\x00\x80?\x00\x00\x80?\x00\x00\x80?\x00\x00\x80?\x00\x00\x80?\x00\x00\x80?\x00\x00\x80?\x00\x00\x80?\x00\x00\x80?\x00\x00\x80?\x00\x00\x80?\x00\x00\x80?\x00\x00\x80?\x00\x00\x80?\x00\x00\x80?\x00\x00\x80?\x00\x00\x80?\x00\x00\x80?\x00\x00\x80?\x00\x00\x80?\x00\x00\x80?\x00\x00\x80?\x00\x00\x80?\x00\x00\x80?\x00\x00\x80?\x00\x00\x80?\x00\x00\x80?\x00\x00\x80?\x00\x00\x80?\x00\x00\x80?\x00\x00\x80?\x00\x00\x80?\x00\x00\x80?\x00\x00\x80?\x00\x00\x80?\x00\x00\x80?\x00\x00\x80?\x00\x00\x80?\x00\x00\x80?\x00\x00\x80?\x00\x00\x80?\x00\x00\x80?\x00\x00\x80?\x00\x00\x80?\x00\x00\x80?\x00\x00\x80?\x00\x00\x80?\x00\x00\x80?\x00\x00\x80?\x00\x00\x80?\x00\x00\x80?\x00\x00\x80?\x00\x00\x80?\x00\x00\x80?\x00\x00\x80?\x00\x00\x80?\x00\x00\x80?\x00\x00\x80?\x00\x00\x80?\x00\x00\x80?\x00\x00\x80?\x00\x00\x80?\x00\x00\x80?\x00\x00\x80?\x00\x00\x80?\x00\x00\x80?\x00\x00\x80?\x00\x00\x80?\x00\x00\x80?\x00\x00\x80?\x00\x00\x80?\x00\x00\x80?\x00\x00\x80?\x00\x00\x80?\x00\x00\x80?\x00\x00\x80?\x00\x00\x80?\x00\x00\x80?\x00\x00\x80?\x00\x00\x80?\x00\x00\x80?\x00\x00\x80?\x00\x00\x80?\x00\x00\x80?\x00\x00\x80?\x00\x00\x80?\x00\x00\x80?\x00\x00\x80?\x00\x00\x80?\x00\x00\x80?\x00\x00\x80?\x00\x00\x80?\x00\x00\x80?\x00\x00\x80?\x00\x00\x80?\x00\x00\x80?\x00\x00\x80?\x00\x00\x80?\x00\x00\x80?\x00\x00\x80?\x00\x00\x80?\x00\x00\x80?\x00\x00\x80?\x00\x00\x80?\x00\x00\x80?\x00\x00\x80?\x00\x00\x80?\x00\x00\x80?\x00\x00\x80?\x00\x00\x80?\x00\x00\x80?\x00\x00\x80?\x00\x00\x80?\x00\x00\x80?\x00\x00\x80?\x00\x00\x80?\x00\x00\x80?\x00\x00\x80?\x00\x00\x80?\x00\x00\x80?\x00\x00\x80?\x00\x00\x80?\x00\x00\x80?\x00\x00\x80?\x00\x00\x80?\x00\x00\x80?\x00\x00\x80?\x00\x00\x80?\x00\x00\x80?\x00\x00\x80?\x00\x00\x80?\x00\x00\x80?\x00\x00\x80?\x00\x00\x80?\x00\x00\x80?\x00\x00\x80?\x00\x00\x80?\x00\x00\x80?\x00\x00\x80?\x00\x00\x80?\x00\x00\x80?\x00\x00\x80?\x00\x00\x80?\x00\x00\x80?\x00\x00\x80?\x00\x00\x80?\x00\x00\x80?\x00\x00\x80?\x00\x00\x80?\x00\x00\x80?\x00\x00\x80?\x00\x00\x80?\x00\x00\x80?\x00\x00\x80?\x00\x00\x80?\x00\x00\x80?\x00\x00\x80?\x00\x00\x80?\x00\x00\x80?\x00\x00\x80?\x00\x00\x80?\x00\x00\x80?\x00\x00\x80?\x00\x00\x80?\x00\x00\x80?\x00\x00\x80?\x00\x00\x80?\x00\x00\x80?\x00\x00\x80?\x00\x00\x80?\x00\x00\x80?\x00\x00\x80?\x00\x00\x80?\x00\x00\x80?\x00\x00\x80?\x00\x00\x80?\x00\x00\x80?\x00\x00\x80?\x00\x00\x80?\x00\x00\x80?\x00\x00\x80?\x00\x00\x80?\x00\x00\x80?\x00\x00\x80?\x00\x00\x80?\x00\x00\x80?\x00\x00\x80?\x00\x00\x80?\x00\x00\x80?\x00\x00\x80?\x00\x00\x80?\x00\x00\x80?\x00\x00\x80?\x00\x00\x80?\x00\x00\x80?\x00\x00\x80?\x00\x00\x80?\x00\x00\x80?\x00\x00\x80?\x00\x00\x80?\x00\x00\x80?\x00\x00\x80?\x00\x00\x80?\x00\x00\x80?\x00\x00\x80?\x00\x00\x80?\x00\x00\x80?\x00\x00\x80?\x00\x00\x80?\x00\x00\x80?\x00\x00\x80?\x00\x00\x80?\x00\x00\x80?\x00\x00\x80?\x00\x00\x80?\x00\x00\x80?\x00\x00\x80?\x00\x00\x80?\x00\x00\x80?\x00\x00\x80?\x00\x00\x80?\x00\x00\x80?\x00\x00\x80?\x00\x00\x80?\x00\x00\x80?\x00\x00\x80?\x00\x00\x80?\x00\x00\x80?\x00\x00\x80?\x00\x00\x80?\x00\x00\x80?\x00\x00\x80?\x00\x00\x80?\x00\x00\x80?\x00\x00\x80?\x00\x00\x80?\x00\x00\x80?\x00\x00\x80?\x00\x00\x80?\x00\x00\x80?\x00\x00\x80?\x00\x00\x80?\x00\x00\x80?\x00\x00\x80?\x00\x00\x80?\x00\x00\x80?\x00\x00\x80?\x00\x00\x80?\x00\x00\x80?\x00\x00\x80?\x00\x00\x80?\x00\x00\x80?\x00\x00\x80?\x00\x00\x80?\x00\x00\x80?\x00\x00\x80?\x00\x00\x80?\x00\x00\x80?\x00\x00\x80?\x00\x00\x80?\x00\x00\x80?\x00\x00\x80?\x00\x00\x80?\x00\x00\x80?\x00\x00\x80?\x00\x00\x80?\x00\x00\x80?\x00\x00\x80?\x00\x00\x80?\x00\x00\x80?\x00\x00\x80?\x00\x00\x80?\x00\x00\x80?\x00\x00\x80?\x00\x00\x80?\x00\x00\x80?\x00\x00\x80?\x00\x00\x80?\x00\x00\x80?\x00\x00\x80?\x00\x00\x80?\x00\x00\x80?\x00\x00\x80?\x00\x00\x80?\x00\x00\x80?\x00\x00\x80?\x00\x00\x80?\x00\x00\x80?\x00\x00\x80?\x00\x00\x80?\x00\x00\x80?\x00\x00\x80?\x00\x00\x80?\x00\x00\x80?\x00\x00\x80?\x00\x00\x80?\x00\x00\x80?\x00\x00\x80?\x00\x00\x80?\x00\x00\x80?\x00\x00\x80?\x00\x00\x80?\x00\x00\x80?\x00\x00\x80?\x00\x00\x80?\x00\x00\x80?\x00\x00\x80?\x00\x00\x80?\x00\x00\x80?\x00\x00\x80?\x00\x00\x80?\x00\x00\x80?\x00\x00\x80?\x00\x00\x80?\x00\x00\x80?\x00\x00\x80?\x00\x00\x80?\x00\x00\x80?\x00\x00\x80?\x00\x00\x80?\x00\x00\x80?\x00\x00\x80?\x00\x00\x80?\x00\x00\x80?\x00\x00\x80?\x00\x00\x80?\x00\x00\x80?\x00\x00\x80?\x00\x00\x80?\x00\x00\x80?\x00\x00\x80?\x00\x00\x80?\x00\x00\x80?\x00\x00\x80?\x00\x00\x80?\x00\x00\x80?\x00\x00\x80?\x00\x00\x80?\x00\x00\x80?\x00\x00\x80?\x00\x00\x80?\x00\x00\x80?\x00\x00\x80?\x00\x00\x80?\x00\x00\x80?\x00\x00\x80?\x00\x00\x80?\x00\x00\x80?\x00\x00\x80?\x00\x00\x80?\x00\x00\x80?\x00\x00\x80?\x00\x00\x80?\x00\x00\x80?\x00\x00\x80?\x00\x00\x80?\x00\x00\x80?\x00\x00\x80?\x00\x00\x80?\x00\x00\x80?\x00\x00\x80?\x00\x00\x80?\x00\x00\x80?\x00\x00\x80?\x00\x00\x80?\x00\x00\x80?\x00\x00\x80?\x00\x00\x80?\x00\x00\x80?\x00\x00\x80?\x00\x00\x80?\x00\x00\x80?\x00\x00\x80?\x00\x00\x80?\x00\x00\x80?\x00\x00\x80?\x00\x00\x80?\x00\x00\x80?\x00\x00\x80?\x00\x00\x80?\x00\x00\x80?\x00\x00\x80?\x00\x00\x80?\x00\x00\x80?\x00\x00\x80?\x00\x00\x80?\x00\x00\x80?\x00\x00\x80?\x00\x00\x80?'
S'\x00\x00\x00\x00\x00\x00\x00\x00\x00\x00\x00\x00\x00\x00\x00\x00\x00\x00\x00\x00\x00\x00\x00\x00\x00\x00\x00\x00\x00\x00\x00\x00\x00\x00\x00\x00\x00\x00\x00\x00\x00\x00\x00\x00\x00\x00\x00\x00\x00\x00\x00\x00\x00\x00\x00\x00\x00\x00\x00\x00\x00\x00\x00\x00\x00\x00\x00\x00\x00\x00\x00\x00\x00\x00\x00\x00\x00\x00\x00\x00\x00\x00\x00\x00\x00\x00\x00\x00\x00\x00\x00\x00\x00\x00\x00\x00\x00\x00\x00\x00\x00\x00\x00\x00\x00\x00\x00\x00\x00\x00\x00\x00\x00\x00\x00\x00\x00\x00\x00\x00\x00\x00\x00\x00\x00\x00\x00\x00\x00\x00\x00\x00\x00\x00\x00\x00\x00\x00\x00\x00\x00\x00\x00\x00\x00\x00\x00\x00\x00\x00\x00\x00\x00\x00\x00\x00\x00\x00\x00\x00\x00\x00\x00\x00\x00\x00\x00\x00\x00\x00\x00\x00\x00\x00\x00\x00\x00\x00\x00\x00\x00\x00\x00\x00\x00\x00\x00\x00\x00\x00\x00\x00\x00\x00\x00\x00\x00\x00\x00\x00\x00\x00\x00\x00\x00\x00\x00\x00\x00\x00\x00\x00\x00\x00\x00\x00\x00\x00\x00\x00\x00\x00\x00\x00\x00\x00\x00\x00\x00\x00\x00\x00\x00\x00\x00\x00\x00\x00\x00\x00\x00\x00\x00\x00\x00\x00\x00\x00\x00\x00\x00\x00\x00\x00\x00\x00\x00\x00\x00\x00\x00\x00\x00\x00\x00\x00\x00\x00\x00\x00\x00\x00\x00\x00\x00\x00\x00\x00\x00\x00\x00\x00\x00\x00\x00\x00\x00\x00\x00\x00\x00\x00\x00\x00\x00\x00\x00\x00\x00\x00\x00\x00\x00\x00\x00\x00\x00\x00\x00\x00\x00\x00\x00\x00\x00\x00\x00\x00\x00\x00\x00\x00\x00\x00\x00\x00\x00\x00\x00\x00\x00\x00\x00\x00\x00\x00\x00\x00\x00\x00\x00\x00\x00\x00\x00\x00\x00\x00\x00\x00\x00\x00\x00\x00\x00\x00\x00\x00\x00\x00\x00\x00\x00\x00\x00\x00\x00\x00\x00\x00\x00\x00\x00\x00\x00\x00\x00\x00\x00\x00\x00\x00\x00\x00\x00\x00\x00\x00\x00\x00\x00\x00\x00\x00\x00\x00\x00\x00\x00\x00\x00\x00\x00\x00\x00\x00\x00\x00\x00\x00\x00\x00\x00\x00\x00\x00\x00\x00\x00\x00\x00\x00\x00\x00\x00\x00\x00\x00\x00\x00\x00\x00\x00\x00\x00\x00\x00\x00\x00\x00\x00\x00\x00\x00\x00\x00\x00\x00\x00\x00\x00\x00\x00\x00\x00\x00\x00\x00\x00\x00\x00\x00\x00\x00\x00\x00\x00\x00\x00\x00\x00\x00\x00\x00\x00\x00\x00\x00\x00\x00\x00\x00\x00\x00\x00\x00\x00\x00\x00\x00\x00\x00\x00\x00\x00\x00\x00\x00\x00\x00\x00\x00\x00\x00\x00\x00\x00\x00\x00\x00\x00\x00\x00\x00\x00\x00\x00\x00\x00\x00\x00\x00\x00\x00\x00\x00\x00\x00\x00\x00\x00\x00\x00\x00\x00\x00\x00\x00\x00\x00\x00\x00\x00\x00\x00\x00\x00\x00\x00\x00\x00\x00\x00\x00\x00\x00\x00\x00\x00\x00\x00\x00\x00\x00\x00\x00\x00\x00\x00\x00\x00\x00\x00\x00\x00\x00\x00\x00\x00\x00\x00\x00\x00\x00\x00\x00\x00\x00\x00\x00\x00\x00\x00\x00\x00\x00\x00\x00\x00\x00'
Ntbsg55
g48
(g49
g50
g51
S'b'
tRp5195
(I1
(I600
I1
tg54
I00
S'\x00\x00\xe8C\x00\x00KC\x00\x80\xb1C\x00\x00%C\x00\x00\xfeB\x00\x00\x16C\x00\x00\x00C\x00\x00\xbcC\x00\x00\x04D\x00\x00GC\x00\x00JC\x00\x80\xcaC\x00\x00\xc4C\x00\x80\xb3C\x00\x00\xd2C\x00\xc0\x0fD\x00\x00\x95C\x00\x00IC\x00\x00HB\x00\x00\xb1C\x00\x004C\x00\x00\xe9C\x00\x00\x96C\x00\x80\x0bD\x00\xc0\x0bD\x00\x00\xf7C\x00\x80\xb7C\x00\x80\x05D\x00\x00^C\x00\x80\xedC\x00\x00\xb4C\x00\x00#C\x00\x00\xb9C\x00\x00\xc5C\x00\x00\x14C\x00\x00\x97C\x00\x00 A\x00\xc0\x06D\x00\x80\xbcC\x00\x80\x85C\x00\x00\x94B\x00\x80\x01D\x00\x00\xb8C\x00\x80\xd8C\x00\x80\x13D\x00\x00\xa9C\x00\x00bC\x00\x00\xf4C\x00\x009C\x00\x00\xb2C\x00\x80\xf9C\x00\x00_C\x00@\x15D\x00\x00HC\x00\x00\xa0A\x00\x80\xdbC\x00\x00\xa8C\x00\xc0\x03D\x00\x00\x96B\x00\x00\x80C\x00\x00\x04B\x00\x00\xbfC\x00\x80\xc7C\x00\xc0\x07D\x00\x80\xe1C\x00\x00\xedC\x00\x00\xdaB\x00@\nD\x00\x80\x04D\x00\x00\xbdC\x00\x80\x9aC\x00\x80\xe3C\x00\x00\xafC\x00\x80\x8cC\x00\x80\xa1C\x00\x00yC\x00\x80\xaeC\x00\x00@A\x00\x00\xe5C\x00\x80\x92C\x00\x00\xbaB\x00\x80\xb0C\x00\x80\xa2C\x00\x00pA\x00\x80\xc3C\x00\xc0\rD\x00\x00\xefC\x00\x00\xd0A\x00\x00@C\x00@\x04D\x00\x00\xa6C\x00\x80\xffC\x00\x80\x97C\x00\x00\x0cB\x00\x00\xc8B\x00\x80\xe0C\x00\x80\xc4C\x00\x00\x88B\x00\x00\xa8B\x00\xc0\x15D\x00\x00\x05C\x00\x00FC\x00\x00zC\x00\x00\xb0B\x00\x00\xe7C\x00\x80\x03D\x00\x00fC\x00\x80\xa4C\x00\x00\xa6B\x00\x80\xa7C\x00\x00\xe4C\x00\x00`A\x00\x00pC\x00\x00\xd1C\x00\x00dC\x00\x80\xf0C\x00\x00\nD\x00\x00`C\x00\x00YC\x00\x00\xffC\x00\x80\xefC\x00\x00aC\x00\x00\x10A\x00\x00\xf9C\x00\x00\xabC\x00\x00\xaaB\x00\x006C\x00@\x10D\x00\x80\xecC\x00\x80\xc6C\x00\x00\xe3C\x00\x00\x1cB\x00\x00\x9dC\x00\x00\xd4C\x00\x00\x80A\x00\x00\x8fC\x00\x00/C\x00\x00\x03C\x00\x00\xa0@\x00@\x13D\x00\x00EC\x00\x00\x11D\x00\x00\x12C\x00\xc0\nD\x00\xc0\x08D\x00\x80\xa8C\x00\x80\x88C\x00\x00\x11C\x00\x80\x8bC\x00\x80\xbdC\x00\x80\xceC\x00\x00AC\x00\x00\x82C\x00\x80\xbeC\x00\x00(C\x00\x80\x9bC\x00\x00\xeaB\x00\x00\x02D\x00\x80\xc2C\x00\x00\x07D\x00\x80\x80C\x00\x00\xaeC\x00\x00\x00\x00\x00\x00\rD\x00\x00hC\x00\x80\xabC\x00@\x00D\x00\x80\xd3C\x00\x00DB\x00\x00\xb8B\x00\x00\x00B\x00\x80\x10D\x00\x80\x98C\x00\x00\x98B\x00\x00\xfdC\x00\x00\xe1C\x00\x00\xacB\x00\x00\x00D\x00\x00\x90A\x00\x00\xe2B\x00\x00\xc7C\x00\x00\xbaC\x00\x00\x01C\x00\x00\x8eC\x00\x00\x80B\x00\x00\x0bC\x00\x00\xf2B\x00\x80\xd0C\x00\x00\xd0B\x00\x00\xb5C\x00\x80\x82C\x00\x000A\x00\xc0\x12D\x00\x00\x91C\x00\x80\x99C\x00\x80\xdaC\x00\x00\xfaC\x00\x00\x0eD\x00\x00tB\x00\x00\xebC\x00\x00\x98A\x00\x00\xd0C\x00\x00\xbeB\x00\x00\xf0C\x00\x00\x92C\x00\x00\xd9C\x00\x00\xfcC\x00\x00*C\x00\x00PC\x00\x00?C\x00\x80\x89C\x00\x00\rC\x00\x00\xf5C\x00\x00\xc2C\x00\x00BC\x00\x80\xb2C\x00\x00\xdcC\x00\xc0\x00D\x00\x80\xebC\x00\x00\xf6B\x00\x80\x91C\x00\x00\x03D\x00\x00"C\x00\x00\x8dC\x00\x80\x90C\x00\x00CC\x00\x80\xa6C\x00\x80\x86C\x00\x80\xfcC\x00\x00pB\x00@\x0fD\x00\x00\xf4B\x00\x80\x8aC\x00\x00\xb7C\x00\x00\xf3C\x00@\x0bD\x00\x80\xfaC\x00\x00\xa0B\x00\x00hB\x00\x00nC\x00\x00\x8bC\x00\x00gC\x00\x80\xeeC\x00\x80\x87C\x00\x00\x8cC\x00\x80\x84C\x00\x80\x8dC\x00\x00\xf2C\x00\x00\xaaC\x00@\x02D\x00\x00\x19C\x00@\x14D\x00@\x03D\x00\x00\xe2C\x00\x00\xd2B\x00\x80\xf3C\x00\x00\x14B\x00\x00\xc4B\x00\x80\xb9C\x00\x00,C\x00\x00\xe6B\x00\x00\xdeB\x00\x80\nD\x00\x80\xf6C\x00\xc0\x04D\x00\x00\xeeB\x00\x00\xc0@\x00\x00\xecB\x00\x80\x9dC\x00\x00\x9fC\x00\x00oC\x00\x00\xa7C\x00\x80\xeaC\x00\x00xB\x00\x80\x81C\x00\x80\xfbC\x00\x00\xd7C\x00\x80\xe6C\x00\x00SC\x00\x00jC\x00\x00\x9aB\x00\x003C\x00\x00\xaeB\x00\x00\xd8A\x00\x00&C\x00\x00\x84C\x00\x00\x89C\x00\x80\x11D\x00\x00\xb8A\x00\x00\x87C\x00\x00\x86C\x00\x00eC\x00\x00\xe0C\x00\x00LB\x00\x00!C\x00\x00\xdeC\x00\xc0\tD\x00\x00\xc8A\x00\x80\xcdC\x00\x00\x84B\x00\x00 B\x00\x80\x0cD\x00\x00\xd6C\x00\x00\x1fC\x00\x00\x14D\x00\x80\xadC\x00\x00\x1cC\x00\x80\xa9C\x00\x00\xecC\x00\x00]C\x00\x00\x13D\x00\x00\x0fD\x00\x00\x01D\x00\x80\xa5C\x00\x00\xb4B\x00\x80\x14D\x00\xc0\x05D\x00\x00\xd3C\x00\x00:C\x00\x80\xacC\x00\x008B\x00\x00\x1bC\x00\x80\xf1C\x00\x00\xf8B\x00\x00\xeeC\x00\x00\xccB\x00\x00\x1eC\x00\x80\xd9C\x00\x80\xbfC\x00\x00\xe0B\x00\x80\xfeC\x00\x008C\x00\x00\xa8A\x00\x80\xe2C\x00\x00\xa0C\x00\x00\x7fC\x00\x80\tD\x00\x00\x15D\x00\x80\xcfC\x00\x00dB\x00\x00\xcdC\x00\x00\x05D\x00\x00\x08C\x00\x00xC\x00\x00\x98C\x00\x00sC\x00\x00\xa3C\x00\x80\xa3C\x00\x80\xc8C\x00\x80\xddC\x00\x80\x00D\x00\x00\x0eC\x00\x00)C\x00\x00\x9cB\x00\x80\xa0C\x00\x80\x0eD\x00\x00[C\x00\xc0\x14D\x00\x00\xc0C\x00\x00@B\x00\x00{C\x00\x80\xd5C\x00\x00`B\x00\x00\x10B\x00\x00\xa5C\x00\x00\xa4B\x00\x00\x0cC\x00\x80\x08D\x00\x80\xd1C\x00\x00\x81C\x00\x00\x8cB\x00\x00wC\x00\x80\x07D\x00\x00\x18B\x00\x00\x8eB\x00\x80\xdcC\x00\x00\xcbC\x00\x80\x96C\x00\x80\xc9C\x00\x80\xd4C\x00\x80\x9cC\x00\x00\x08B\x00\x00@@\x00\x00VC\x00\x00PA\x00\xc0\x01D\x00\x80\xcbC\x00\x00\xc3C\x00@\x07D\x00\x80\xe8C\x00\x00\x90C\x00\xc0\x10D\x00\x80\x95C\x00\x80\x94C\x00\x00\xdcB\x00@\x01D\x00\x80\xccC\x00\x00~C\x00\x00\xd8B\x00\x00\xfeC\x00\x00MC\x00@\x05D\x00\x00$B\x00\x00\xa4C\x00\x005C\x00\x00}C\x00\x00\xb0C\x00\x00\x9bC\x00\x00\x04C\x00\x00LC\x00\x00\x90B\x00\x80\x12D\x00\x80\xf5C\x00\x00\xddC\x00\x00RC\x00\x00\x00@\x00\x00\xadC\x00\x00cC\x00\x00QC\x00\x00\xeaC\x00\x80\xf7C\x00\xc0\x11D\x00\x00\xdaC\x00\x00\x80?\x00\x00rC\x00\x00\x8aC\x00\x80\xb5C\x00\x00\x10C\x00\x00\x02C\x00\x80\xaaC\x00\x80\x83C\x00\x00DC\x00\x002C\x00\x80\x9eC\x00\x00ZC\x00\x00|B\x00\x00-C\x00\x00PB\x00\x80\xe9C\x00\x00\'C\x00\x000B\x00@\x06D\x00\x00(B\x00\x00\x92B\x00\x00WC\x00\x80\xc5C\x00\x00UC\x00\x000C\x00\x00\x15C\x00\x80\xf8C\x00\x80\x0fD\x00\x00\xceB\x00\x00\xb2B\x00\x80\x8fC\x00\x00\xceC\x00\x00\x08D\x00\x00\xcaB\x00\x80\xe5C\x00\x00mC\x00\x00XB\x00@\x0cD\x00\x00<B\x00@\x0eD\x00\x001C\x00\x80\x02D\x00\x00\x07C\x00\x00\xc6B\x00\x00\x12D\x00\x00\x13C\x00\x00\xe0@\x00\x00\xf6C\x00\x00\xc0B\x00\x00\xb3C\x00\x00\xc6C\x00\x00 C\x00\x80\xb6C\x00\x00\xf8C\x00\x00\x1dC\x00@\x11D\x00\x00OC\x00\x00\x9aC\x00\x00\x88A\x00@\x08D\x00\x00\x93C\x00\x00\x0cD\x00\x00\xb0A\x00\x00\x9eC\x00\x00\x18C\x00\x00\xd6B\x00\x80\xf2C\x00\x00\x9eB\x00\x80\xbaC\x00\x00\xc8C\x00\x00|C\x00\x00\xacC\x00\x00<C\x00\x00\xc2B\x00\x80\xd2C\x00\x00\nC\x00\x80\xbbC\x00\x00\xf0B\x00\x00\xc0A\x00\x00\xbcB\x00\x00\xbbC\x00\x00\xe8A\x00@\tD\x00\x80\x06D\x00\x00\xa2C\x00\x00>C\x00\x00\xccC\x00\x00\xd5C\x00\x00\x80@\x00\x80\xf4C\x00\xc0\x0eD\x00\x80\rD\x00\x00\x85C\x00\x00\xc9C\x00\x80\xc0C\x00\xc0\x02D\x00\x80\xd7C\x00\x00\xb6B\x00\x00\x17C\x00\x00$C\x00\x00\xe4B\x00\x80\x93C\x00\x00NC\x00\x00qC\x00\x00\xe6C\x00\x00\x83C\x00\x00\xcaC\x00\x00\x06C\x00\x00uC\x00\x00\xfbC\x00\x00\xc1C\x00\x80\xdfC\x00\x00\xf1C\x00\x00\xb6C\x00\x00;C\x00\x80\x15D\x00\x80\xafC\x00\x00\x9cC\x00\x80\xb8C\x00\x00XC\x00\x80\xe7C\x00\x00\xe0A\x00\x00vC\x00\x00lB\x00\x00\xe8B\x00\x00\xd4B\x00\x80\xc1C\x00\x80\xe4C\x00\x00\tC\x00\x00\x0bD\x00\x00tC\x00\x00\xf0A\x00\x00\xcfC\x00\x00iC\x00\x00\x10D\x00\x00\xd8C\x00\x00\x06D\x00\x80\xb4C\x00\x00,B\x00\x00\xa2B\x00\x00+C\x00\x00TB\x00\x80\xfdC\x00\x00TC\x00\x00\x94C\x00\x00\x1aC\x00\x00\\B\x00\x00\tD\x00\x00\xdbC\x00\x00\xbeC\x00\x00\x86B\x00\x00\x88C\x00\xc0\x13D\x00\x00lC\x00\x00kC\x00\x80\xd6C\x00\x80\xdeC\x00\x00\xa1C\x00@\x12D\x00\x00\x82B\x00\x80\x9fC\x00\x00\xf8A\x00\x00\xfcB\x00\x00\x99C\x00@\rD\x00\x00\x0fC\x00\x80\x8eC\x00\x00=C\x00\x00\xfaB\x00\x00\x8aB\x00\x00.C\x00\x004B\x00\xc0\x0cD\x00\x00\xdfC\x00\x00\\C\x00\x007C\x00\x00\x00A'
S'\x00\x00\x00\x00\x00\x00\x00\x00\x00\x00\x00\x00\x00\x00\x00\x00\x00\x00\x00\x00\x00\x00\x00\x00\x00\x00\x00\x00\x00\x00\x00\x00\x00\x00\x00\x00\x00\x00\x00\x00\x00\x00\x00\x00\x00\x00\x00\x00\x00\x00\x00\x00\x00\x00\x00\x00\x00\x00\x00\x00\x00\x00\x00\x00\x00\x00\x00\x00\x00\x00\x00\x00\x00\x00\x00\x00\x00\x00\x00\x00\x00\x00\x00\x00\x00\x00\x00\x00\x00\x00\x00\x00\x00\x00\x00\x00\x00\x00\x00\x00\x00\x00\x00\x00\x00\x00\x00\x00\x00\x00\x00\x00\x00\x00\x00\x00\x00\x00\x00\x00\x00\x00\x00\x00\x00\x00\x00\x00\x00\x00\x00\x00\x00\x00\x00\x00\x00\x00\x00\x00\x00\x00\x00\x00\x00\x00\x00\x00\x00\x00\x00\x00\x00\x00\x00\x00\x00\x00\x00\x00\x00\x00\x00\x00\x00\x00\x00\x00\x00\x00\x00\x00\x00\x00\x00\x00\x00\x00\x00\x00\x00\x00\x00\x00\x00\x00\x00\x00\x00\x00\x00\x00\x00\x00\x00\x00\x00\x00\x00\x00\x00\x00\x00\x00\x00\x00\x00\x00\x00\x00\x00\x00\x00\x00\x00\x00\x00\x00\x00\x00\x00\x00\x00\x00\x00\x00\x00\x00\x00\x00\x00\x00\x00\x00\x00\x00\x00\x00\x00\x00\x00\x00\x00\x00\x00\x00\x00\x00\x00\x00\x00\x00\x00\x00\x00\x00\x00\x00\x00\x00\x00\x00\x00\x00\x00\x00\x00\x00\x00\x00\x00\x00\x00\x00\x00\x00\x00\x00\x00\x00\x00\x00\x00\x00\x00\x00\x00\x00\x00\x00\x00\x00\x00\x00\x00\x00\x00\x00\x00\x00\x00\x00\x00\x00\x00\x00\x00\x00\x00\x00\x00\x00\x00\x00\x00\x00\x00\x00\x00\x00\x00\x00\x00\x00\x00\x00\x00\x00\x00\x00\x00\x00\x00\x00\x00\x00\x00\x00\x00\x00\x00\x00\x00\x00\x00\x00\x00\x00\x00\x00\x00\x00\x00\x00\x00\x00\x00\x00\x00\x00\x00\x00\x00\x00\x00\x00\x00\x00\x00\x00\x00\x00\x00\x00\x00\x00\x00\x00\x00\x00\x00\x00\x00\x00\x00\x00\x00\x00\x00\x00\x00\x00\x00\x00\x00\x00\x00\x00\x00\x00\x00\x00\x00\x00\x00\x00\x00\x00\x00\x00\x00\x00\x00\x00\x00\x00\x00\x00\x00\x00\x00\x00\x00\x00\x00\x00\x00\x00\x00\x00\x00\x00\x00\x00\x00\x00\x00\x00\x00\x00\x00\x00\x00\x00\x00\x00\x00\x00\x00\x00\x00\x00\x00\x00\x00\x00\x00\x00\x00\x00\x00\x00\x00\x00\x00\x00\x00\x00\x00\x00\x00\x00\x00\x00\x00\x00\x00\x00\x00\x00\x00\x00\x00\x00\x00\x00\x00\x00\x00\x00\x00\x00\x00\x00\x00\x00\x00\x00\x00\x00\x00\x00\x00\x00\x00\x00\x00\x00\x00\x00\x00\x00\x00\x00\x00\x00\x00\x00\x00\x00\x00\x00\x00\x00\x00\x00\x00\x00\x00\x00\x00\x00\x00\x00\x00\x00\x00\x00\x00\x00\x00\x00\x00\x00\x00\x00\x00\x00\x00\x00\x00\x00\x00\x00\x00\x00\x00\x00\x00\x00\x00\x00\x00\x00\x00\x00\x00\x00\x00\x00\x00\x00\x00\x00\x00\x00\x00\x00\x00\x00\x00\x00\x00\x00\x00\x00\x00\x00\x00\x00\x00\x00\x00\x00\x00\x00\x00\x00\x00\x00'
NtbstRp5196
(dp5197
g59
(dp5198
g47
I01
sg55
I01
ssg61
g5190
sg62
(lp5199
g47
ag55
asg64
(lp5200
I600
aI1
asbsg66
S'random'
p5201
sg68
g69
(g50
(I0
tS'b'
tRp5202
(I1
(I600
I1
tg53
(S'i4'
I0
I1
tRp5203
(I3
S'<'
NNNI-1
I-1
I0
tbI01
S'\xa2\x00\x00\x00\xa7\x01\x00\x00\x9f\x01\x00\x00~\x01\x00\x00\xff\x01\x00\x00\x8a\x00\x00\x00\n\x01\x00\x00\xd5\x01\x00\x00W\x02\x00\x00z\x00\x00\x00$\x00\x00\x00\xbf\x00\x00\x00M\x00\x00\x00\x80\x01\x00\x00o\x00\x00\x00S\x00\x00\x00\x86\x00\x00\x00\xe1\x01\x00\x00\xb2\x00\x00\x00\xc8\x00\x00\x006\x00\x00\x00L\x01\x00\x00\xe5\x01\x00\x00 \x01\x00\x00\xf5\x01\x00\x00)\x01\x00\x00W\x00\x00\x00\x1b\x01\x00\x00 \x02\x00\x00\xf8\x01\x00\x00*\x02\x00\x00H\x02\x00\x00\xaa\x00\x00\x00<\x00\x00\x00}\x01\x00\x00]\x00\x00\x00k\x01\x00\x00\x00\x01\x00\x00u\x01\x00\x00\x83\x00\x00\x00,\x01\x00\x00\x92\x01\x00\x00\xba\x01\x00\x001\x02\x00\x00\xb8\x01\x00\x00R\x02\x00\x00@\x01\x00\x00\xcd\x01\x00\x00g\x01\x00\x00\xa8\x00\x00\x00\x12\x00\x00\x00%\x01\x00\x00\xb5\x01\x00\x004\x02\x00\x00\xcb\x01\x00\x009\x02\x00\x00j\x01\x00\x00S\x01\x00\x00\xee\x00\x00\x00"\x02\x00\x00\xe5\x00\x00\x00\xc6\x00\x00\x00\x11\x01\x00\x00\xb3\x01\x00\x00\xb8\x00\x00\x00F\x02\x00\x00+\x01\x00\x00=\x02\x00\x00a\x00\x00\x00P\x02\x00\x00r\x01\x00\x00v\x01\x00\x00\x9a\x01\x00\x00\xbb\x01\x00\x00(\x00\x00\x00:\x00\x00\x00\xad\x00\x00\x00\x18\x01\x00\x00a\x01\x00\x00\xea\x01\x00\x00\xed\x00\x00\x002\x02\x00\x00m\x01\x00\x00l\x00\x00\x00b\x00\x00\x00}\x00\x00\x00\xb0\x00\x00\x00\x1a\x01\x00\x00g\x00\x00\x00\xc4\x01\x00\x00:\x01\x00\x00\x08\x02\x00\x00\xa9\x00\x00\x00P\x00\x00\x00\xf6\x01\x00\x00\xca\x00\x00\x00\xd7\x01\x00\x00\xf0\x01\x00\x00\x01\x01\x00\x00\xd2\x01\x00\x00^\x00\x00\x00\xc8\x01\x00\x00E\x01\x00\x00\xc3\x01\x00\x00\xbc\x00\x00\x00\xfe\x00\x00\x00$\x02\x00\x00\xe8\x01\x00\x00\x8e\x01\x00\x00B\x00\x00\x00\x8a\x01\x00\x00\x05\x01\x00\x00I\x01\x00\x00\xb3\x00\x00\x00\x0b\x02\x00\x00\x04\x01\x00\x00#\x02\x00\x00\x9c\x00\x00\x00\x0b\x01\x00\x00\t\x01\x00\x00\xf4\x01\x00\x00\xba\x00\x00\x00\xe7\x00\x00\x00\xdb\x00\x00\x00C\x01\x00\x00O\x02\x00\x00I\x02\x00\x00\x04\x00\x00\x00\x06\x00\x00\x00\xb6\x00\x00\x00\xac\x01\x00\x00\x89\x00\x00\x00\x98\x01\x00\x00d\x00\x00\x00\x12\x02\x00\x00\xd1\x01\x00\x00V\x01\x00\x00\'\x02\x00\x00\xf2\x01\x00\x00\xb9\x00\x00\x00n\x01\x00\x00\xd3\x00\x00\x00_\x01\x00\x00L\x02\x00\x00\xab\x01\x00\x00\x93\x00\x00\x00\x8e\x00\x00\x00\xd4\x01\x00\x00"\x00\x00\x00\xc0\x01\x00\x00\x05\x00\x00\x00\t\x02\x00\x00\xe7\x01\x00\x00\xfa\x00\x00\x008\x02\x00\x00A\x01\x00\x002\x01\x00\x00\xdd\x01\x00\x00F\x01\x00\x00/\x01\x00\x00\xda\x01\x00\x00&\x01\x00\x00\xde\x00\x00\x00\x1f\x00\x00\x00\n\x02\x00\x00\x03\x00\x00\x00\x1c\x01\x00\x00\xb7\x01\x00\x00\x9a\x00\x00\x00`\x01\x00\x00\xcf\x00\x00\x003\x02\x00\x00\x03\x01\x00\x00\xb4\x01\x00\x00Q\x02\x00\x00\x88\x00\x00\x00\xbf\x01\x00\x00\xcf\x01\x00\x00\xb0\x01\x00\x00\x19\x01\x00\x00\x14\x00\x00\x00\x94\x01\x00\x00~\x00\x00\x00V\x02\x00\x00K\x01\x00\x000\x00\x00\x00>\x01\x00\x00\x19\x02\x00\x00\xef\x01\x00\x00N\x02\x00\x00\xfc\x01\x00\x00\xd1\x00\x00\x00X\x00\x00\x00\x97\x00\x00\x00\xd6\x00\x00\x00\xe1\x00\x00\x00\xaf\x01\x00\x00\x8c\x00\x00\x00e\x00\x00\x00\t\x00\x00\x005\x00\x00\x00\x11\x00\x00\x00\n\x00\x00\x00\x01\x00\x00\x00\x99\x01\x00\x00\x90\x01\x00\x00\r\x02\x00\x00\xdf\x01\x00\x00\xd0\x00\x00\x00\xa2\x01\x00\x00\x9e\x01\x00\x00\x16\x01\x00\x006\x02\x00\x00\xbe\x01\x00\x00\x7f\x01\x00\x00\xbc\x01\x00\x00\x1e\x02\x00\x00v\x00\x00\x00\xb2\x01\x00\x00d\x01\x00\x00U\x02\x00\x005\x01\x00\x00\x1c\x00\x00\x003\x00\x00\x00u\x00\x00\x00y\x00\x00\x00.\x00\x00\x00\xa1\x01\x00\x00r\x00\x00\x00#\x01\x00\x00j\x00\x00\x00\xf1\x00\x00\x00\xa4\x00\x00\x00,\x02\x00\x00\x17\x01\x00\x00A\x02\x00\x00@\x02\x00\x00\xca\x01\x00\x00\xef\x00\x00\x00\x0e\x01\x00\x00p\x00\x00\x00\x0e\x02\x00\x00\xa8\x01\x00\x00Y\x01\x00\x00)\x02\x00\x00\x13\x02\x00\x00!\x02\x00\x00s\x01\x00\x00W\x01\x00\x00K\x00\x00\x00f\x00\x00\x00h\x01\x00\x00\xed\x01\x00\x00\x95\x01\x00\x00\x8d\x01\x00\x00O\x01\x00\x00;\x00\x00\x00\xa0\x00\x00\x00q\x01\x00\x00\x12\x01\x00\x00\x98\x00\x00\x00\xbe\x00\x00\x00\x10\x02\x00\x00\xae\x01\x00\x00\x1d\x01\x00\x00\xf5\x00\x00\x00\x03\x02\x00\x00\'\x00\x00\x00"\x01\x00\x00\xe3\x00\x00\x00!\x01\x00\x00\xf3\x00\x00\x00>\x02\x00\x00\x92\x00\x00\x00\x1e\x01\x00\x00\xd2\x00\x00\x00\xa9\x01\x00\x00\xe8\x00\x00\x00\xf0\x00\x00\x00\x94\x00\x00\x00\xf4\x00\x00\x00I\x00\x00\x00\xdf\x00\x00\x00\xf6\x00\x00\x00\xb7\x00\x00\x00M\x02\x00\x00\x87\x00\x00\x00\xc5\x01\x00\x00\x86\x01\x00\x00\xe0\x00\x00\x00\xc1\x00\x00\x00\xdc\x00\x00\x00\xcc\x00\x00\x00O\x00\x00\x00\xe3\x01\x00\x00\x0c\x02\x00\x007\x02\x00\x00\x89\x01\x00\x00\x10\x00\x00\x00\x88\x01\x00\x00\x16\x00\x00\x00y\x01\x00\x00#\x00\x00\x00\\\x00\x00\x00X\x01\x00\x00\xac\x00\x00\x00J\x02\x00\x00\xc2\x00\x00\x00\xe0\x01\x00\x00F\x00\x00\x00\x97\x01\x00\x00\x9b\x00\x00\x00\x1c\x02\x00\x00|\x01\x00\x00\x84\x00\x00\x00\x0c\x01\x00\x00\xe6\x01\x00\x00\xb1\x01\x00\x00\r\x01\x00\x00G\x02\x00\x00N\x01\x00\x00b\x01\x00\x00D\x02\x00\x00J\x00\x00\x00\xfb\x01\x00\x00R\x00\x00\x00Z\x01\x00\x00[\x01\x00\x00\x93\x01\x00\x00k\x00\x00\x00l\x01\x00\x009\x01\x00\x00Z\x00\x00\x00\xe2\x00\x00\x00\x0f\x01\x00\x00m\x00\x00\x008\x00\x00\x00\x91\x00\x00\x00-\x00\x00\x003\x01\x00\x00\xf8\x00\x00\x00\xad\x01\x00\x00|\x00\x00\x00\xa5\x00\x00\x00\xee\x01\x00\x00?\x01\x00\x00\xa0\x01\x00\x001\x01\x00\x00\xa1\x00\x00\x00L\x00\x00\x00H\x00\x00\x00\x1b\x02\x00\x00\x96\x01\x00\x00Q\x00\x00\x00\x13\x00\x00\x00\x02\x00\x00\x001\x00\x00\x00\xd7\x00\x00\x00\xd8\x01\x00\x00\r\x00\x00\x00\x1e\x00\x00\x000\x02\x00\x00\xbd\x00\x00\x00\xaa\x01\x00\x00\x18\x02\x00\x00\xdb\x01\x00\x00\xe9\x00\x00\x00\x1a\x00\x00\x00*\x00\x00\x00\x1d\x02\x00\x00 \x00\x00\x00\x02\x01\x00\x00\xb5\x00\x00\x00\xeb\x01\x00\x00\xf7\x01\x00\x00\xf3\x01\x00\x00\x07\x00\x00\x00&\x00\x00\x00E\x00\x00\x00\x95\x00\x00\x00<\x02\x00\x00\x99\x00\x00\x00=\x00\x00\x00H\x01\x00\x00f\x01\x00\x00\x05\x02\x00\x00\x15\x02\x00\x00%\x02\x00\x00\xd5\x00\x00\x00\x9e\x00\x00\x00\x83\x01\x00\x00T\x00\x00\x00\x0c\x00\x00\x00`\x00\x00\x00!\x00\x00\x00\xbd\x01\x00\x00\xd9\x01\x00\x00\x81\x00\x00\x00\xb4\x00\x00\x00>\x00\x00\x00\xec\x01\x00\x00\\\x01\x00\x00\x04\x02\x00\x00z\x01\x00\x00\x11\x02\x00\x00\x0b\x00\x00\x00x\x01\x00\x00\x82\x01\x00\x00\xfd\x01\x00\x00\x8c\x01\x00\x00T\x01\x00\x00*\x01\x00\x00\xc6\x01\x00\x00\x96\x00\x00\x00+\x02\x00\x00R\x01\x00\x00\xc9\x00\x00\x00\xbb\x00\x00\x00q\x00\x00\x00p\x01\x00\x00\x0e\x00\x00\x00\xf1\x01\x00\x00=\x01\x00\x00\xa7\x00\x00\x00\x85\x00\x00\x00{\x01\x00\x00\xfe\x01\x00\x00i\x01\x00\x00.\x01\x00\x00B\x02\x00\x00\x14\x01\x00\x00\x07\x02\x00\x00.\x02\x00\x00+\x00\x00\x00\xcd\x00\x00\x00G\x01\x00\x00\xa6\x01\x00\x00\xc3\x00\x00\x00;\x02\x00\x007\x00\x00\x00\xd8\x00\x00\x00w\x01\x00\x00\x9d\x01\x00\x00]\x01\x00\x00\'\x01\x00\x00C\x02\x00\x00T\x02\x00\x00\x16\x02\x00\x00$\x01\x00\x00_\x00\x00\x00\xaf\x00\x00\x00@\x00\x00\x00\xfd\x00\x00\x00M\x01\x00\x00\x82\x00\x00\x00G\x00\x00\x00n\x00\x00\x00&\x02\x00\x00N\x00\x00\x00\xc9\x01\x00\x00\x0f\x02\x00\x00\x15\x01\x00\x00h\x00\x00\x00\x1f\x02\x00\x00\x00\x00\x00\x00\x85\x01\x00\x00\x15\x00\x00\x00\xb6\x01\x00\x00\xa3\x01\x00\x00\x10\x01\x00\x00\xc7\x00\x00\x00\xda\x00\x00\x004\x01\x00\x00\x80\x00\x00\x00A\x00\x00\x00\x1d\x00\x00\x00D\x01\x00\x00\xf2\x00\x00\x00V\x00\x00\x00x\x00\x00\x00\xcb\x00\x00\x00s\x00\x00\x00\x17\x02\x00\x00B\x01\x00\x00\xf7\x00\x00\x00\xe9\x01\x00\x00\xea\x00\x00\x00\xff\x00\x00\x00/\x00\x00\x00\x00\x02\x00\x00\xd4\x00\x00\x00\x9c\x01\x00\x00\xd6\x01\x00\x00\x07\x01\x00\x00\x19\x00\x00\x00\xa4\x01\x00\x00\xdc\x01\x00\x00\xc1\x01\x00\x00{\x00\x00\x002\x00\x00\x00\xc4\x00\x00\x00\xec\x00\x00\x00\x14\x02\x00\x00\x13\x01\x00\x00\xce\x00\x00\x00\xe4\x00\x00\x00\xae\x00\x00\x005\x02\x00\x00\x8f\x01\x00\x00J\x01\x00\x00w\x00\x00\x00[\x00\x00\x00\xb1\x00\x00\x00\xa6\x00\x00\x00^\x01\x00\x00\xd9\x00\x00\x008\x01\x00\x00\x8b\x01\x00\x00)\x00\x00\x00\x81\x01\x00\x00\x9d\x00\x00\x00\xf9\x00\x00\x00\xd0\x01\x00\x00\x06\x02\x00\x00\xdd\x00\x00\x00\xfc\x00\x00\x00i\x00\x00\x009\x00\x00\x00\x08\x00\x00\x00Y\x00\x00\x00D\x00\x00\x00\x08\x01\x00\x00U\x01\x00\x00\x91\x01\x00\x00\x1b\x00\x00\x00<\x01\x00\x00/\x02\x00\x00\xb9\x01\x00\x00\xfa\x01\x00\x00%\x00\x00\x00\x9f\x00\x00\x00\x84\x01\x00\x00t\x01\x00\x00?\x00\x00\x00\xc7\x01\x00\x00\xe2\x01\x00\x00o\x01\x00\x00\x90\x00\x00\x00:\x02\x00\x00\xf9\x01\x00\x00P\x01\x00\x00(\x01\x00\x00t\x00\x00\x00C\x00\x00\x00\x06\x01\x00\x00\x8f\x00\x00\x00(\x02\x00\x00\xeb\x00\x00\x00\x17\x00\x00\x00\x18\x00\x00\x00\xe4\x01\x00\x00\xcc\x01\x00\x00-\x01\x00\x00S\x02\x00\x00\xa3\x00\x00\x00K\x02\x00\x00\x02\x02\x00\x00U\x00\x00\x00\xc5\x00\x00\x00\xce\x01\x00\x00c\x01\x00\x00\x01\x02\x00\x007\x01\x00\x00\xe6\x00\x00\x00\xc2\x01\x00\x00\x0f\x00\x00\x00-\x02\x00\x00\x7f\x00\x00\x00\xab\x00\x00\x00\x87\x01\x00\x00\x8d\x00\x00\x00\xde\x01\x00\x00\x1f\x01\x00\x00\xa5\x01\x00\x00\xd3\x01\x00\x00E\x02\x00\x00\x9b\x01\x00\x00\xc0\x00\x00\x006\x01\x00\x00\x8b\x00\x00\x00,\x00\x00\x00?\x02\x00\x000\x01\x00\x00\xfb\x00\x00\x00;\x01\x00\x00e\x01\x00\x00Q\x01\x00\x004\x00\x00\x00\x1a\x02\x00\x00c\x00\x00\x00'
tbsg73
I01
sg74
I1
sg75
I-1
sg76
(lp5204
I0
aI1
aI2
aI3
aI4
aI5
aI6
aI7
aI8
aI9
aI10
aI11
aI12
aI13
aI14
aI15
aI16
aI17
aI18
aI19
aI20
aI21
aI22
aI23
aI24
aI25
aI26
aI27
aI28
aI29
aI30
aI31
aI32
aI33
aI34
aI35
aI36
aI37
aI38
aI39
aI40
aI41
aI42
aI43
aI44
aI45
aI46
aI47
aI48
aI49
aI50
aI51
aI52
aI53
aI54
aI55
aI56
aI57
aI58
aI59
aI60
aI61
aI62
aI63
aI64
aI65
aI66
aI67
aI68
aI69
aI70
aI71
aI72
aI73
aI74
aI75
aI76
aI77
aI78
aI79
aI80
aI81
aI82
aI83
aI84
aI85
aI86
aI87
aI88
aI89
aI90
aI91
aI92
aI93
aI94
aI95
aI96
aI97
aI98
aI99
aI100
aI101
aI102
aI103
aI104
aI105
aI106
aI107
aI108
aI109
aI110
aI111
aI112
aI113
aI114
aI115
aI116
aI117
aI118
aI119
aI120
aI121
aI122
aI123
aI124
aI125
aI126
aI127
aI128
aI129
aI130
aI131
aI132
aI133
aI134
aI135
aI136
aI137
aI138
aI139
aI140
aI141
aI142
aI143
aI144
aI145
aI146
aI147
aI148
aI149
aI150
aI151
aI152
aI153
aI154
aI155
aI156
aI157
aI158
aI159
aI160
aI161
aI162
aI163
aI164
aI165
aI166
aI167
aI168
aI169
aI170
aI171
aI172
aI173
aI174
aI175
aI176
aI177
aI178
aI179
aI180
aI181
aI182
aI183
aI184
aI185
aI186
aI187
aI188
aI189
aI190
aI191
aI192
aI193
aI194
aI195
aI196
aI197
aI198
aI199
aI200
aI201
aI202
aI203
aI204
aI205
aI206
aI207
aI208
aI209
aI210
aI211
aI212
aI213
aI214
aI215
aI216
aI217
aI218
aI219
aI220
aI221
aI222
aI223
aI224
aI225
aI226
aI227
aI228
aI229
aI230
aI231
aI232
aI233
aI234
aI235
aI236
aI237
aI238
aI239
aI240
aI241
aI242
aI243
aI244
aI245
aI246
aI247
aI248
aI249
aI250
aI251
aI252
aI253
aI254
aI255
aI256
aI257
aI258
aI259
aI260
aI261
aI262
aI263
aI264
aI265
aI266
aI267
aI268
aI269
aI270
aI271
aI272
aI273
aI274
aI275
aI276
aI277
aI278
aI279
aI280
aI281
aI282
aI283
aI284
aI285
aI286
aI287
aI288
aI289
aI290
aI291
aI292
aI293
aI294
aI295
aI296
aI297
aI298
aI299
aI300
aI301
aI302
aI303
aI304
aI305
aI306
aI307
aI308
aI309
aI310
aI311
aI312
aI313
aI314
aI315
aI316
aI317
aI318
aI319
aI320
aI321
aI322
aI323
aI324
aI325
aI326
aI327
aI328
aI329
aI330
aI331
aI332
aI333
aI334
aI335
aI336
aI337
aI338
aI339
aI340
aI341
aI342
aI343
aI344
aI345
aI346
aI347
aI348
aI349
aI350
aI351
aI352
aI353
aI354
aI355
aI356
aI357
aI358
aI359
aI360
aI361
aI362
aI363
aI364
aI365
aI366
aI367
aI368
aI369
aI370
aI371
aI372
aI373
aI374
aI375
aI376
aI377
aI378
aI379
aI380
aI381
aI382
aI383
aI384
aI385
aI386
aI387
aI388
aI389
aI390
aI391
aI392
aI393
aI394
aI395
aI396
aI397
aI398
aI399
aI400
aI401
aI402
aI403
aI404
aI405
aI406
aI407
aI408
aI409
aI410
aI411
aI412
aI413
aI414
aI415
aI416
aI417
aI418
aI419
aI420
aI421
aI422
aI423
aI424
aI425
aI426
aI427
aI428
aI429
aI430
aI431
aI432
aI433
aI434
aI435
aI436
aI437
aI438
aI439
aI440
aI441
aI442
aI443
aI444
aI445
aI446
aI447
aI448
aI449
aI450
aI451
aI452
aI453
aI454
aI455
aI456
aI457
aI458
aI459
aI460
aI461
aI462
aI463
aI464
aI465
aI466
aI467
aI468
aI469
aI470
aI471
aI472
aI473
aI474
aI475
aI476
aI477
aI478
aI479
aI480
aI481
aI482
aI483
aI484
aI485
aI486
aI487
aI488
aI489
aI490
aI491
aI492
aI493
aI494
aI495
aI496
aI497
aI498
aI499
aI500
aI501
aI502
aI503
aI504
aI505
aI506
aI507
aI508
aI509
aI510
aI511
aI512
aI513
aI514
aI515
aI516
aI517
aI518
aI519
aI520
aI521
aI522
aI523
aI524
aI525
aI526
aI527
aI528
aI529
aI530
aI531
aI532
aI533
aI534
aI535
aI536
aI537
aI538
aI539
aI540
aI541
aI542
aI543
aI544
aI545
aI546
aI547
aI548
aI549
aI550
aI551
aI552
aI553
aI554
aI555
aI556
aI557
aI558
aI559
aI560
aI561
aI562
aI563
aI564
aI565
aI566
aI567
aI568
aI569
aI570
aI571
aI572
aI573
aI574
aI575
aI576
aI577
aI578
aI579
aI580
aI581
aI582
aI583
aI584
aI585
aI586
aI587
aI588
aI589
aI590
aI591
aI592
aI593
aI594
aI595
aI596
aI597
aI598
aI599
asg78
Nsg79
cnumpy.core.multiarray
scalar
p5205
(g5203
S'c\x00\x00\x00'
tRp5206
sg80
I600
sg81
I0
sg82
I600
sg83
I01
sbag36
asS'savePickle'
p5207
I00
sb.