ccopy_reg
_reconstructor
p1
(cpsychopy.data
ExperimentHandler
p2
c__builtin__
object
p3
NtRp4
(dp5
S'originPath'
p6
NsS'dataFileName'
p7
Vsubject630
p8
sS'runtimeInfo'
p9
NsS'name'
p10
VVERBALRBsubject 630
p11
sS'dataNames'
p12
(lp13
S'Block Number'
p14
aS'Key pressed'
p15
aS'Category'
p16
aS'Correct?'
p17
aS'Int Match?'
p18
aS'Int Response'
p19
aS'Int Correct?'
p20
aS'Line Accuracy'
p21
aS'Interference Accuracy'
p22
aS'Matching Interferences'
p23
aS'New instruction shown?'
p24
aS'Buttons switched?'
p25
aS'Fast?'
p26
asS'autoLog'
p27
I01
sS'extraInfo'
p28
(dp29
S'gender'
p30
VF
sS'age'
p31
V20
p32
ssS'loopsUnfinished'
p33
(lp34
g1
(cpsychopy.data
TrialHandler
p35
g3
NtRp36
(dp37
S'origin'
p38
NsS'thisTrial'
p39
I13
sS'_exp'
p40
I79815664
sg10
S''
sg6
S'C:\\Users\\Mike\\Desktop\\Dual2\\NEWSpatialRB.py'
p41
sS'thisRepN'
p42
I39
sg27
I01
sg28
NsS'data'
p43
g1
(cpsychopy.data
DataHandler
p44
c__builtin__
dict
p45
(dp46
S'ran'
p47
cnumpy.ma.core
_mareconstruct
p48
(cnumpy.ma.core
MaskedArray
p49
cnumpy
ndarray
p50
(I0
tp51
S'b'
tRp52
(I1
(I15
I40
tcnumpy
dtype
p53
(S'f4'
I0
I1
tRp54
(I3
S'<'
NNNI-1
I-1
I0
tbI00
S'\x00\x00\x80?\x00\x00\x80?\x00\x00\x80?\x00\x00\x80?\x00\x00\x80?\x00\x00\x80?\x00\x00\x80?\x00\x00\x80?\x00\x00\x80?\x00\x00\x80?\x00\x00\x80?\x00\x00\x80?\x00\x00\x80?\x00\x00\x80?\x00\x00\x80?\x00\x00\x80?\x00\x00\x80?\x00\x00\x80?\x00\x00\x80?\x00\x00\x80?\x00\x00\x80?\x00\x00\x80?\x00\x00\x80?\x00\x00\x80?\x00\x00\x80?\x00\x00\x80?\x00\x00\x80?\x00\x00\x80?\x00\x00\x80?\x00\x00\x80?\x00\x00\x80?\x00\x00\x80?\x00\x00\x80?\x00\x00\x80?\x00\x00\x80?\x00\x00\x80?\x00\x00\x80?\x00\x00\x80?\x00\x00\x80?\x00\x00\x80?\x00\x00\x80?\x00\x00\x80?\x00\x00\x80?\x00\x00\x80?\x00\x00\x80?\x00\x00\x80?\x00\x00\x80?\x00\x00\x80?\x00\x00\x80?\x00\x00\x80?\x00\x00\x80?\x00\x00\x80?\x00\x00\x80?\x00\x00\x80?\x00\x00\x80?\x00\x00\x80?\x00\x00\x80?\x00\x00\x80?\x00\x00\x80?\x00\x00\x80?\x00\x00\x80?\x00\x00\x80?\x00\x00\x80?\x00\x00\x80?\x00\x00\x80?\x00\x00\x80?\x00\x00\x80?\x00\x00\x80?\x00\x00\x80?\x00\x00\x80?\x00\x00\x80?\x00\x00\x80?\x00\x00\x80?\x00\x00\x80?\x00\x00\x80?\x00\x00\x80?\x00\x00\x80?\x00\x00\x80?\x00\x00\x80?\x00\x00\x80?\x00\x00\x80?\x00\x00\x80?\x00\x00\x80?\x00\x00\x80?\x00\x00\x80?\x00\x00\x80?\x00\x00\x80?\x00\x00\x80?\x00\x00\x80?\x00\x00\x80?\x00\x00\x80?\x00\x00\x80?\x00\x00\x80?\x00\x00\x80?\x00\x00\x80?\x00\x00\x80?\x00\x00\x80?\x00\x00\x80?\x00\x00\x80?\x00\x00\x80?\x00\x00\x80?\x00\x00\x80?\x00\x00\x80?\x00\x00\x80?\x00\x00\x80?\x00\x00\x80?\x00\x00\x80?\x00\x00\x80?\x00\x00\x80?\x00\x00\x80?\x00\x00\x80?\x00\x00\x80?\x00\x00\x80?\x00\x00\x80?\x00\x00\x80?\x00\x00\x80?\x00\x00\x80?\x00\x00\x80?\x00\x00\x80?\x00\x00\x80?\x00\x00\x80?\x00\x00\x80?\x00\x00\x80?\x00\x00\x80?\x00\x00\x80?\x00\x00\x80?\x00\x00\x80?\x00\x00\x80?\x00\x00\x80?\x00\x00\x80?\x00\x00\x80?\x00\x00\x80?\x00\x00\x80?\x00\x00\x80?\x00\x00\x80?\x00\x00\x80?\x00\x00\x80?\x00\x00\x80?\x00\x00\x80?\x00\x00\x80?\x00\x00\x80?\x00\x00\x80?\x00\x00\x80?\x00\x00\x80?\x00\x00\x80?\x00\x00\x80?\x00\x00\x80?\x00\x00\x80?\x00\x00\x80?\x00\x00\x80?\x00\x00\x80?\x00\x00\x80?\x00\x00\x80?\x00\x00\x80?\x00\x00\x80?\x00\x00\x80?\x00\x00\x80?\x00\x00\x80?\x00\x00\x80?\x00\x00\x80?\x00\x00\x80?\x00\x00\x80?\x00\x00\x80?\x00\x00\x80?\x00\x00\x80?\x00\x00\x80?\x00\x00\x80?\x00\x00\x80?\x00\x00\x80?\x00\x00\x80?\x00\x00\x80?\x00\x00\x80?\x00\x00\x80?\x00\x00\x80?\x00\x00\x80?\x00\x00\x80?\x00\x00\x80?\x00\x00\x80?\x00\x00\x80?\x00\x00\x80?\x00\x00\x80?\x00\x00\x80?\x00\x00\x80?\x00\x00\x80?\x00\x00\x80?\x00\x00\x80?\x00\x00\x80?\x00\x00\x80?\x00\x00\x80?\x00\x00\x80?\x00\x00\x80?\x00\x00\x80?\x00\x00\x80?\x00\x00\x80?\x00\x00\x80?\x00\x00\x80?\x00\x00\x80?\x00\x00\x80?\x00\x00\x80?\x00\x00\x80?\x00\x00\x80?\x00\x00\x80?\x00\x00\x80?\x00\x00\x80?\x00\x00\x80?\x00\x00\x80?\x00\x00\x80?\x00\x00\x80?\x00\x00\x80?\x00\x00\x80?\x00\x00\x80?\x00\x00\x80?\x00\x00\x80?\x00\x00\x80?\x00\x00\x80?\x00\x00\x80?\x00\x00\x80?\x00\x00\x80?\x00\x00\x80?\x00\x00\x80?\x00\x00\x80?\x00\x00\x80?\x00\x00\x80?\x00\x00\x80?\x00\x00\x80?\x00\x00\x80?\x00\x00\x80?\x00\x00\x80?\x00\x00\x80?\x00\x00\x80?\x00\x00\x80?\x00\x00\x80?\x00\x00\x80?\x00\x00\x80?\x00\x00\x80?\x00\x00\x80?\x00\x00\x80?\x00\x00\x80?\x00\x00\x80?\x00\x00\x80?\x00\x00\x80?\x00\x00\x80?\x00\x00\x80?\x00\x00\x80?\x00\x00\x80?\x00\x00\x80?\x00\x00\x80?\x00\x00\x80?\x00\x00\x80?\x00\x00\x80?\x00\x00\x80?\x00\x00\x80?\x00\x00\x80?\x00\x00\x80?\x00\x00\x80?\x00\x00\x80?\x00\x00\x80?\x00\x00\x80?\x00\x00\x80?\x00\x00\x80?\x00\x00\x80?\x00\x00\x80?\x00\x00\x80?\x00\x00\x80?\x00\x00\x80?\x00\x00\x80?\x00\x00\x80?\x00\x00\x80?\x00\x00\x80?\x00\x00\x80?\x00\x00\x80?\x00\x00\x80?\x00\x00\x80?\x00\x00\x80?\x00\x00\x80?\x00\x00\x80?\x00\x00\x80?\x00\x00\x80?\x00\x00\x80?\x00\x00\x80?\x00\x00\x80?\x00\x00\x80?\x00\x00\x80?\x00\x00\x80?\x00\x00\x80?\x00\x00\x80?\x00\x00\x80?\x00\x00\x80?\x00\x00\x80?\x00\x00\x80?\x00\x00\x80?\x00\x00\x80?\x00\x00\x80?\x00\x00\x80?\x00\x00\x80?\x00\x00\x80?\x00\x00\x80?\x00\x00\x80?\x00\x00\x80?\x00\x00\x80?\x00\x00\x80?\x00\x00\x80?\x00\x00\x80?\x00\x00\x80?\x00\x00\x80?\x00\x00\x80?\x00\x00\x80?\x00\x00\x80?\x00\x00\x80?\x00\x00\x80?\x00\x00\x80?\x00\x00\x80?\x00\x00\x80?\x00\x00\x80?\x00\x00\x80?\x00\x00\x80?\x00\x00\x80?\x00\x00\x80?\x00\x00\x80?\x00\x00\x80?\x00\x00\x80?\x00\x00\x80?\x00\x00\x80?\x00\x00\x80?\x00\x00\x80?\x00\x00\x80?\x00\x00\x80?\x00\x00\x80?\x00\x00\x80?\x00\x00\x80?\x00\x00\x80?\x00\x00\x80?\x00\x00\x80?\x00\x00\x80?\x00\x00\x80?\x00\x00\x80?\x00\x00\x80?\x00\x00\x80?\x00\x00\x80?\x00\x00\x80?\x00\x00\x80?\x00\x00\x80?\x00\x00\x80?\x00\x00\x80?\x00\x00\x80?\x00\x00\x80?\x00\x00\x80?\x00\x00\x80?\x00\x00\x80?\x00\x00\x80?\x00\x00\x80?\x00\x00\x80?\x00\x00\x80?\x00\x00\x80?\x00\x00\x80?\x00\x00\x80?\x00\x00\x80?\x00\x00\x80?\x00\x00\x80?\x00\x00\x80?\x00\x00\x80?\x00\x00\x80?\x00\x00\x80?\x00\x00\x80?\x00\x00\x80?\x00\x00\x80?\x00\x00\x80?\x00\x00\x80?\x00\x00\x80?\x00\x00\x80?\x00\x00\x80?\x00\x00\x80?\x00\x00\x80?\x00\x00\x80?\x00\x00\x80?\x00\x00\x80?\x00\x00\x80?\x00\x00\x80?\x00\x00\x80?\x00\x00\x80?\x00\x00\x80?\x00\x00\x80?\x00\x00\x80?\x00\x00\x80?\x00\x00\x80?\x00\x00\x80?\x00\x00\x80?\x00\x00\x80?\x00\x00\x80?\x00\x00\x80?\x00\x00\x80?\x00\x00\x80?\x00\x00\x80?\x00\x00\x80?\x00\x00\x80?\x00\x00\x80?\x00\x00\x80?\x00\x00\x80?\x00\x00\x80?\x00\x00\x80?\x00\x00\x80?\x00\x00\x80?\x00\x00\x80?\x00\x00\x80?\x00\x00\x80?\x00\x00\x80?\x00\x00\x80?\x00\x00\x80?\x00\x00\x80?\x00\x00\x80?\x00\x00\x80?\x00\x00\x80?\x00\x00\x80?\x00\x00\x80?\x00\x00\x80?\x00\x00\x80?\x00\x00\x80?\x00\x00\x80?\x00\x00\x80?\x00\x00\x80?\x00\x00\x80?\x00\x00\x80?\x00\x00\x80?\x00\x00\x80?\x00\x00\x80?\x00\x00\x80?\x00\x00\x80?\x00\x00\x80?\x00\x00\x80?\x00\x00\x80?\x00\x00\x80?\x00\x00\x80?\x00\x00\x80?\x00\x00\x80?\x00\x00\x80?\x00\x00\x80?\x00\x00\x80?\x00\x00\x80?\x00\x00\x80?\x00\x00\x80?\x00\x00\x80?\x00\x00\x80?\x00\x00\x80?\x00\x00\x80?\x00\x00\x80?\x00\x00\x80?\x00\x00\x80?\x00\x00\x80?\x00\x00\x80?\x00\x00\x80?\x00\x00\x80?\x00\x00\x80?\x00\x00\x80?\x00\x00\x80?\x00\x00\x80?\x00\x00\x80?\x00\x00\x80?\x00\x00\x80?\x00\x00\x80?\x00\x00\x80?\x00\x00\x80?\x00\x00\x80?\x00\x00\x80?\x00\x00\x80?\x00\x00\x80?\x00\x00\x80?\x00\x00\x80?\x00\x00\x80?\x00\x00\x80?\x00\x00\x80?\x00\x00\x80?\x00\x00\x80?\x00\x00\x80?\x00\x00\x80?\x00\x00\x80?\x00\x00\x80?\x00\x00\x80?\x00\x00\x80?\x00\x00\x80?\x00\x00\x80?\x00\x00\x80?\x00\x00\x80?\x00\x00\x80?\x00\x00\x80?\x00\x00\x80?\x00\x00\x80?\x00\x00\x80?\x00\x00\x80?\x00\x00\x80?\x00\x00\x80?\x00\x00\x80?\x00\x00\x80?\x00\x00\x80?\x00\x00\x80?\x00\x00\x80?\x00\x00\x80?\x00\x00\x80?\x00\x00\x80?\x00\x00\x80?\x00\x00\x80?\x00\x00\x80?\x00\x00\x80?\x00\x00\x80?\x00\x00\x80?\x00\x00\x80?\x00\x00\x80?\x00\x00\x80?\x00\x00\x80?\x00\x00\x80?\x00\x00\x80?\x00\x00\x80?\x00\x00\x80?\x00\x00\x80?\x00\x00\x80?\x00\x00\x80?\x00\x00\x80?\x00\x00\x80?\x00\x00\x80?\x00\x00\x80?\x00\x00\x80?\x00\x00\x80?\x00\x00\x80?\x00\x00\x80?\x00\x00\x80?\x00\x00\x80?\x00\x00\x80?\x00\x00\x80?\x00\x00\x80?\x00\x00\x80?\x00\x00\x80?\x00\x00\x80?\x00\x00\x80?\x00\x00\x80?\x00\x00\x80?\x00\x00\x80?\x00\x00\x80?\x00\x00\x80?\x00\x00\x80?\x00\x00\x80?\x00\x00\x80?\x00\x00\x80?\x00\x00\x80?\x00\x00\x80?\x00\x00\x80?\x00\x00\x80?\x00\x00\x80?\x00\x00\x80?\x00\x00\x80?\x00\x00\x80?\x00\x00\x80?\x00\x00\x80?\x00\x00\x80?\x00\x00\x80?\x00\x00\x80?\x00\x00\x80?\x00\x00\x80?\x00\x00\x80?\x00\x00\x80?\x00\x00\x80?\x00\x00\x80?\x00\x00\x80?\x00\x00\x80?\x00\x00\x80?\x00\x00\x80?\x00\x00\x80?\x00\x00\x80?\x00\x00\x80?\x00\x00\x80?\x00\x00\x80?\x00\x00\x80?\x00\x00\x80?\x00\x00\x80?\x00\x00\x80?\x00\x00\x80?\x00\x00\x80?\x00\x00\x80?\x00\x00\x80?\x00\x00\x80?\x00\x00\x80?\x00\x00\x80?\x00\x00\x80?\x00\x00\x80?\x00\x00\x80?\x00\x00\x80?\x00\x00\x80?\x00\x00\x80?\x00\x00\x80?\x00\x00\x80?\x00\x00\x80?\x00\x00\x80?\x00\x00\x80?\x00\x00\x80?\x00\x00\x80?\x00\x00\x80?\x00\x00\x80?\x00\x00\x80?\x00\x00\x80?\x00\x00\x80?\x00\x00\x80?\x00\x00\x80?'
S'\x00\x00\x00\x00\x00\x00\x00\x00\x00\x00\x00\x00\x00\x00\x00\x00\x00\x00\x00\x00\x00\x00\x00\x00\x00\x00\x00\x00\x00\x00\x00\x00\x00\x00\x00\x00\x00\x00\x00\x00\x00\x00\x00\x00\x00\x00\x00\x00\x00\x00\x00\x00\x00\x00\x00\x00\x00\x00\x00\x00\x00\x00\x00\x00\x00\x00\x00\x00\x00\x00\x00\x00\x00\x00\x00\x00\x00\x00\x00\x00\x00\x00\x00\x00\x00\x00\x00\x00\x00\x00\x00\x00\x00\x00\x00\x00\x00\x00\x00\x00\x00\x00\x00\x00\x00\x00\x00\x00\x00\x00\x00\x00\x00\x00\x00\x00\x00\x00\x00\x00\x00\x00\x00\x00\x00\x00\x00\x00\x00\x00\x00\x00\x00\x00\x00\x00\x00\x00\x00\x00\x00\x00\x00\x00\x00\x00\x00\x00\x00\x00\x00\x00\x00\x00\x00\x00\x00\x00\x00\x00\x00\x00\x00\x00\x00\x00\x00\x00\x00\x00\x00\x00\x00\x00\x00\x00\x00\x00\x00\x00\x00\x00\x00\x00\x00\x00\x00\x00\x00\x00\x00\x00\x00\x00\x00\x00\x00\x00\x00\x00\x00\x00\x00\x00\x00\x00\x00\x00\x00\x00\x00\x00\x00\x00\x00\x00\x00\x00\x00\x00\x00\x00\x00\x00\x00\x00\x00\x00\x00\x00\x00\x00\x00\x00\x00\x00\x00\x00\x00\x00\x00\x00\x00\x00\x00\x00\x00\x00\x00\x00\x00\x00\x00\x00\x00\x00\x00\x00\x00\x00\x00\x00\x00\x00\x00\x00\x00\x00\x00\x00\x00\x00\x00\x00\x00\x00\x00\x00\x00\x00\x00\x00\x00\x00\x00\x00\x00\x00\x00\x00\x00\x00\x00\x00\x00\x00\x00\x00\x00\x00\x00\x00\x00\x00\x00\x00\x00\x00\x00\x00\x00\x00\x00\x00\x00\x00\x00\x00\x00\x00\x00\x00\x00\x00\x00\x00\x00\x00\x00\x00\x00\x00\x00\x00\x00\x00\x00\x00\x00\x00\x00\x00\x00\x00\x00\x00\x00\x00\x00\x00\x00\x00\x00\x00\x00\x00\x00\x00\x00\x00\x00\x00\x00\x00\x00\x00\x00\x00\x00\x00\x00\x00\x00\x00\x00\x00\x00\x00\x00\x00\x00\x00\x00\x00\x00\x00\x00\x00\x00\x00\x00\x00\x00\x00\x00\x00\x00\x00\x00\x00\x00\x00\x00\x00\x00\x00\x00\x00\x00\x00\x00\x00\x00\x00\x00\x00\x00\x00\x00\x00\x00\x00\x00\x00\x00\x00\x00\x00\x00\x00\x00\x00\x00\x00\x00\x00\x00\x00\x00\x00\x00\x00\x00\x00\x00\x00\x00\x00\x00\x00\x00\x00\x00\x00\x00\x00\x00\x00\x00\x00\x00\x00\x00\x00\x00\x00\x00\x00\x00\x00\x00\x00\x00\x00\x00\x00\x00\x00\x00\x00\x00\x00\x00\x00\x00\x00\x00\x00\x00\x00\x00\x00\x00\x00\x00\x00\x00\x00\x00\x00\x00\x00\x00\x00\x00\x00\x00\x00\x00\x00\x00\x00\x00\x00\x00\x00\x00\x00\x00\x00\x00\x00\x00\x00\x00\x00\x00\x00\x00\x00\x00\x00\x00\x00\x00\x00\x00\x00\x00\x00\x00\x00\x00\x00\x00\x00\x00\x00\x00\x00\x00\x00\x00\x00\x00\x00\x00\x00\x00\x00\x00\x00\x00\x00\x00\x00\x00\x00\x00\x00\x00\x00\x00\x00\x00\x00\x00\x00\x00\x00\x00\x00\x00\x00\x00\x00\x00\x00\x00\x00\x00\x00\x00\x00\x00\x00\x00\x00\x00\x00'
NtbsS'order'
p55
g48
(g49
g50
g51
S'b'
tRp56
(I1
(I15
I40
tg54
I00
S'\x00\x00\x80@\x00\x00pA\x00\x00\x00B\x00\x00lB\x00\x00\x9aB\x00\x00\xa2B\x00\x00\xaaB\x00\x00\xd4B\x00\x00\xe2B\x00\x00\xf6B\x00\x00\xfaB\x00\x00\xfeB\x00\x00\x1cC\x00\x00<C\x00\x00NC\x00\x00RC\x00\x00WC\x00\x00rC\x00\x00vC\x00\x00\x7fC\x00\x80\x97C\x00\x00\xa2C\x00\x00\xa6C\x00\x00\xbfC\x00\x00\xc3C\x00\x80\xceC\x00\x80\xd3C\x00\x00\xd8C\x00\x00\xdeC\x00\x00\xdfC\x00\x80\xdfC\x00\x80\xe0C\x00\x80\xe9C\x00\x80\xfcC\x00\x80\x01D\x00\xc0\x02D\x00\x80\x05D\x00\xc0\x05D\x00@\x07D\x00@\tD\x00\x00\xa0@\x00\x00\xa0A\x00\x00\x08B\x00\x00@B\x00\x00DB\x00\x00hB\x00\x00\x98B\x00\x00\x9cB\x00\x00\xbcB\x00\x00\xbeB\x00\x00\xe8B\x00\x00\xf2B\x00\x00\x04C\x00\x00\x18C\x00\x00\x19C\x00\x00\x1dC\x00\x00-C\x00\x00VC\x00\x00wC\x00\x00~C\x00\x80\x80C\x00\x00\x81C\x00\x00\x97C\x00\x00\xa5C\x00\x00\xb0C\x00\x80\xbcC\x00\x00\xbeC\x00\x80\xbfC\x00\x80\xc0C\x00\x00\xcbC\x00\x80\xccC\x00\x80\xe1C\x00\x80\xf1C\x00\x80\xf3C\x00\x80\xf8C\x00\xc0\tD\x00\x80\x0bD\x00\x00\x11D\x00@\x15D\x00\x80\x15D\x00\x00@@\x00\x00\x10A\x00\x00`A\x00\x00\x88A\x00\x00<B\x00\x00|B\x00\x00\x88B\x00\x00\x8cB\x00\x00\xaeB\x00\x00\xc6B\x00\x00\xd6B\x00\x00\xdaB\x00\x00\xe4B\x00\x00\xeeB\x00\x00\x03C\x00\x00\x0bC\x00\x00\x11C\x00\x00\x1aC\x00\x00#C\x00\x00(C\x00\x00>C\x00\x00AC\x00\x00aC\x00\x00lC\x00\x80\x8bC\x00\x80\x8eC\x00\x00\x90C\x00\x80\x94C\x00\x80\xaaC\x00\x00\xacC\x00\x00\xceC\x00\x80\xecC\x00\x80\xedC\x00\x80\xeeC\x00\x00\xf5C\x00\x80\xf6C\x00\x00\xf7C\x00\xc0\x07D\x00\x00\x0bD\x00\x80\x0fD\x00\x00\xe0@\x00\x00\x90B\x00\x00\xa4B\x00\x00\xdcB\x00\x00%C\x00\x001C\x00\x00=C\x00\x00@C\x00\x00\\C\x00\x00^C\x00\x00_C\x00\x00eC\x00\x00gC\x00\x00iC\x00\x00jC\x00\x00tC\x00\x80\x87C\x00\x00\x9dC\x00\x80\xa2C\x00\x00\xa4C\x00\x80\xafC\x00\x00\xb6C\x00\x00\xb9C\x00\x80\xc4C\x00\x00\xc6C\x00\x80\xcfC\x00\x80\xd2C\x00\x80\xd9C\x00\x00\xdbC\x00\x80\xe7C\x00\x00\xedC\x00\x00\xeeC\x00\x00\xfcC\x00\x00\x01D\x00\x80\x02D\x00\x00\tD\x00\x80\x11D\x00\x80\x12D\x00\xc0\x13D\x00@\x14D\x00\x00\x80A\x00\x000B\x00\x00\x84B\x00\x00\x8aB\x00\x00\xe6B\x00\x00\xeaB\x00\x00\xf0B\x00\x00\x05C\x00\x00\'C\x00\x00/C\x00\x00:C\x00\x00EC\x00\x00HC\x00\x00|C\x00\x80\x82C\x00\x00\x84C\x00\x80\x84C\x00\x80\x90C\x00\x00\x98C\x00\x80\x9fC\x00\x00\xaaC\x00\x80\xabC\x00\x00\xb4C\x00\x80\xb5C\x00\x00\xb8C\x00\x80\xbdC\x00\x00\xc2C\x00\x80\xcdC\x00\x00\xe8C\x00\x80\xefC\x00\x80\xfdC\x00\x00\xffC\x00\x80\xffC\x00@\x02D\x00@\x03D\x00@\x04D\x00@\nD\x00\xc0\x10D\x00@\x11D\x00\x00\x13D\x00\x00\x90A\x00\x00\xe0A\x00\x00\xe8A\x00\x00\x04B\x00\x00\x14B\x00\x00HB\x00\x00\\B\x00\x00\x92B\x00\x00\x94B\x00\x00\x96B\x00\x00\tC\x00\x00\x10C\x00\x00\x1eC\x00\x00 C\x00\x00?C\x00\x00FC\x00\x00bC\x00\x00cC\x00\x00kC\x00\x00pC\x00\x00yC\x00\x00}C\x00\x80\x81C\x00\x00\x83C\x00\x00\x8dC\x00\x00\xa8C\x00\x00\xa9C\x00\x80\xb7C\x00\x00\xcaC\x00\x80\xd7C\x00\x80\xddC\x00\x80\xe4C\x00\x80\xe5C\x00\x00\xf3C\x00\x80\xf5C\x00\x00\xfdC\x00\xc0\x00D\x00\x80\nD\x00\xc0\x0bD\x00\x00\x10D\x00\x00\xc8A\x00\x00(B\x00\x00\xd8B\x00\x00\x07C\x00\x00\x12C\x00\x00\x1fC\x00\x00"C\x00\x000C\x00\x00KC\x00\x00OC\x00\x00XC\x00\x00YC\x00\x00qC\x00\x00uC\x00\x00\x8aC\x00\x00\x8fC\x00\x80\x95C\x00\x80\x96C\x00\x80\x9dC\x00\x80\xa0C\x00\x00\xa1C\x00\x00\xa7C\x00\x80\xacC\x00\x00\xaeC\x00\x80\xbbC\x00\x80\xc1C\x00\x80\xc6C\x00\x00\xd5C\x00\x80\xd6C\x00\x00\xe2C\x00\x80\xe2C\x00\x00\xe5C\x00\x00\xf4C\x00\x00\xf6C\x00\x00\xf8C\x00\x80\xfaC\x00@\x01D\x00@\x05D\x00\xc0\x06D\x00\xc0\x14D\x00\x00PA\x00\x00\xd8A\x00\x00LB\x00\x00dB\x00\x00pB\x00\x00\x02C\x00\x00\x0fC\x00\x00&C\x00\x00JC\x00\x00LC\x00\x00SC\x00\x00hC\x00\x80\x83C\x00\x00\x8cC\x00\x80\x93C\x00\x00\xa0C\x00\x80\xbaC\x00\x00\xc0C\x00\x80\xc3C\x00\x80\xc7C\x00\x00\xc9C\x00\x80\xcbC\x00\x00\xccC\x00\x00\xcdC\x00\x00\xd6C\x00\x80\xdbC\x00\x00\xe1C\x00\x00\xe9C\x00\x80\xeaC\x00\x00\xecC\x00\x80\xf0C\x00\x00\xfaC\x00\x00\xfbC\x00@\x00D\x00\x00\x02D\x00\x00\x03D\x00\x00\x05D\x00\x80\x08D\x00\x80\x0eD\x00@\x12D\x00\x00\x00@\x00\x00\xf0A\x00\x004B\x00\x00TB\x00\x00xB\x00\x00\x9eB\x00\x00\xa6B\x00\x00\xc0B\x00\x00\xceB\x00\x00\xf4B\x00\x00\x08C\x00\x005C\x00\x00CC\x00\x00]C\x00\x00mC\x00\x00sC\x00\x00\x85C\x00\x80\x85C\x00\x00\x87C\x00\x00\x89C\x00\x80\x8cC\x00\x80\x91C\x00\x80\xa9C\x00\x00\xadC\x00\x00\xb3C\x00\x80\xc8C\x00\x80\xcaC\x00\x00\xcfC\x00\x00\xd4C\x00\x00\xdaC\x00\x80\xe3C\x00\x00\xeaC\x00\x00\xebC\x00\x00\xf1C\x00\x00\x00D\x00\x00\x04D\x00@\x0bD\x00\xc0\x0cD\x00@\x10D\x00\x80\x13D\x00\x000A\x00\x00\xc0A\x00\x00\xd0A\x00\x00tB\x00\x00\x82B\x00\x00\xb4B\x00\x00\xd0B\x00\x00\xe0B\x00\x00\xf8B\x00\x00\x06C\x00\x00\x14C\x00\x00\x1bC\x00\x00MC\x00\x00UC\x00\x00`C\x00\x00xC\x00\x00{C\x00\x80\x8aC\x00\x80\x9aC\x00\x00\x9cC\x00\x80\xa7C\x00\x80\xb2C\x00\x80\xb9C\x00\x00\xbaC\x00\x00\xbbC\x00\x00\xbcC\x00\x80\xc9C\x00\x80\xd0C\x00\x00\xdcC\x00\x00\xddC\x00\x80\xdeC\x00\x00\xe0C\x00\x00\x06D\x00\x00\x08D\x00@\x0cD\x00\x00\rD\x00\xc0\x0eD\x00@\x0fD\x00\x00\x14D\x00\x00\x15D\x00\x00\x80?\x00\x00\x00A\x00\x00@A\x00\x00\xa8A\x00\x00\xb8A\x00\x00\x18B\x00\x00$B\x00\x00PB\x00\x00\x80B\x00\x00\xa8B\x00\x00\xc4B\x00\x00\xfcB\x00\x00\rC\x00\x00\x13C\x00\x00\x16C\x00\x00)C\x00\x00.C\x00\x00dC\x00\x00fC\x00\x80\x86C\x00\x00\x92C\x00\x80\x92C\x00\x00\x99C\x00\x00\x9eC\x00\x80\x9eC\x00\x00\xa3C\x00\x80\xa6C\x00\x80\xb1C\x00\x00\xb7C\x00\x80\xc2C\x00\x80\xd4C\x00\x80\xd8C\x00\x00\xf0C\x00\x80\xf4C\x00\x80\xf7C\x00\x00\xfeC\x00@\x06D\x00@\x08D\x00\xc0\rD\x00\x00\x0fD\x00\x00\x98A\x00\x00\xb0A\x00\x00\xf8A\x00\x00\x0cB\x00\x00`B\x00\x00\x86B\x00\x00\xc2B\x00\x00\xd2B\x00\x00\x00C\x00\x00*C\x00\x002C\x00\x00IC\x00\x00QC\x00\x00\x80C\x00\x00\x82C\x00\x00\x86C\x00\x80\x89C\x00\x00\x8eC\x00\x80\x8fC\x00\x00\x94C\x00\x00\x9fC\x00\x80\xa1C\x00\x80\xa4C\x00\x80\xa8C\x00\x00\xabC\x00\x00\xafC\x00\x80\xb6C\x00\x00\xbdC\x00\x80\xbeC\x00\x00\xc1C\x00\x00\xc5C\x00\x00\xd3C\x00\x00\xd7C\x00\x80\xe8C\x00\x80\xebC\x00\x80\xf9C\x00\x00\nD\x00\x00\x0eD\x00@\x0eD\x00\xc0\x11D\x00\x00\x00\x00\x00\x00\x10B\x00\x00,B\x00\x008B\x00\x00XB\x00\x00\xa0B\x00\x00\xb6B\x00\x00\xbaB\x00\x00\xccB\x00\x00\xdeB\x00\x00\x0eC\x00\x00\x15C\x00\x00+C\x00\x00,C\x00\x004C\x00\x006C\x00\x00;C\x00\x00BC\x00\x00[C\x00\x00nC\x00\x00zC\x00\x00\x88C\x00\x00\x8bC\x00\x00\x9aC\x00\x00\x9bC\x00\x80\x9cC\x00\x00\xb2C\x00\x00\xc4C\x00\x00\xd0C\x00\x80\xd5C\x00\x00\xd9C\x00\x80\xdcC\x00\x00\xe3C\x00\x00\xe6C\x00\x80\xe6C\x00\x80\xfeC\x00\x80\x06D\x00\xc0\x08D\x00\xc0\x0fD\x00\x80\x14D\x00\x00 B\x00\x00\x8eB\x00\x00\xacB\x00\x00\xb0B\x00\x00\xc8B\x00\x00\x17C\x00\x008C\x00\x00DC\x00\x00GC\x00\x00PC\x00\x00TC\x00\x00oC\x00\x80\x88C\x00\x80\x8dC\x00\x00\x96C\x00\x80\x99C\x00\x80\xa3C\x00\x80\xa5C\x00\x80\xaeC\x00\x00\xb1C\x00\x80\xb3C\x00\x80\xb4C\x00\x00\xb5C\x00\x00\xc8C\x00\x80\xd1C\x00\x00\xd2C\x00\x80\xdaC\x00\x00\xe4C\x00\x00\xefC\x00\x00\xf2C\x00\xc0\x03D\x00\x00\x07D\x00\x80\tD\x00@\rD\x00\x80\rD\x00\x80\x10D\x00\x00\x12D\x00\xc0\x12D\x00@\x13D\x00\xc0\x15D\x00\x00\xc0@\x00\x00 A\x00\x00\x1cB\x00\x00\xb2B\x00\x00\xb8B\x00\x00\xcaB\x00\x00\xecB\x00\x00\x01C\x00\x00\nC\x00\x00\x0cC\x00\x00!C\x00\x00$C\x00\x003C\x00\x007C\x00\x009C\x00\x00ZC\x00\x00\x91C\x00\x00\x93C\x00\x00\x95C\x00\x80\x98C\x00\x80\x9bC\x00\x80\xadC\x00\x80\xb0C\x00\x80\xb8C\x00\x80\xc5C\x00\x00\xc7C\x00\x00\xd1C\x00\x00\xe7C\x00\x80\xf2C\x00\x00\xf9C\x00\x80\xfbC\x00\x80\x00D\x00\xc0\x01D\x00\x80\x03D\x00\x80\x04D\x00\xc0\x04D\x00\x80\x07D\x00\xc0\nD\x00\x00\x0cD\x00\x80\x0cD'
S'\x00\x00\x00\x00\x00\x00\x00\x00\x00\x00\x00\x00\x00\x00\x00\x00\x00\x00\x00\x00\x00\x00\x00\x00\x00\x00\x00\x00\x00\x00\x00\x00\x00\x00\x00\x00\x00\x00\x00\x00\x00\x00\x00\x00\x00\x00\x00\x00\x00\x00\x00\x00\x00\x00\x00\x00\x00\x00\x00\x00\x00\x00\x00\x00\x00\x00\x00\x00\x00\x00\x00\x00\x00\x00\x00\x00\x00\x00\x00\x00\x00\x00\x00\x00\x00\x00\x00\x00\x00\x00\x00\x00\x00\x00\x00\x00\x00\x00\x00\x00\x00\x00\x00\x00\x00\x00\x00\x00\x00\x00\x00\x00\x00\x00\x00\x00\x00\x00\x00\x00\x00\x00\x00\x00\x00\x00\x00\x00\x00\x00\x00\x00\x00\x00\x00\x00\x00\x00\x00\x00\x00\x00\x00\x00\x00\x00\x00\x00\x00\x00\x00\x00\x00\x00\x00\x00\x00\x00\x00\x00\x00\x00\x00\x00\x00\x00\x00\x00\x00\x00\x00\x00\x00\x00\x00\x00\x00\x00\x00\x00\x00\x00\x00\x00\x00\x00\x00\x00\x00\x00\x00\x00\x00\x00\x00\x00\x00\x00\x00\x00\x00\x00\x00\x00\x00\x00\x00\x00\x00\x00\x00\x00\x00\x00\x00\x00\x00\x00\x00\x00\x00\x00\x00\x00\x00\x00\x00\x00\x00\x00\x00\x00\x00\x00\x00\x00\x00\x00\x00\x00\x00\x00\x00\x00\x00\x00\x00\x00\x00\x00\x00\x00\x00\x00\x00\x00\x00\x00\x00\x00\x00\x00\x00\x00\x00\x00\x00\x00\x00\x00\x00\x00\x00\x00\x00\x00\x00\x00\x00\x00\x00\x00\x00\x00\x00\x00\x00\x00\x00\x00\x00\x00\x00\x00\x00\x00\x00\x00\x00\x00\x00\x00\x00\x00\x00\x00\x00\x00\x00\x00\x00\x00\x00\x00\x00\x00\x00\x00\x00\x00\x00\x00\x00\x00\x00\x00\x00\x00\x00\x00\x00\x00\x00\x00\x00\x00\x00\x00\x00\x00\x00\x00\x00\x00\x00\x00\x00\x00\x00\x00\x00\x00\x00\x00\x00\x00\x00\x00\x00\x00\x00\x00\x00\x00\x00\x00\x00\x00\x00\x00\x00\x00\x00\x00\x00\x00\x00\x00\x00\x00\x00\x00\x00\x00\x00\x00\x00\x00\x00\x00\x00\x00\x00\x00\x00\x00\x00\x00\x00\x00\x00\x00\x00\x00\x00\x00\x00\x00\x00\x00\x00\x00\x00\x00\x00\x00\x00\x00\x00\x00\x00\x00\x00\x00\x00\x00\x00\x00\x00\x00\x00\x00\x00\x00\x00\x00\x00\x00\x00\x00\x00\x00\x00\x00\x00\x00\x00\x00\x00\x00\x00\x00\x00\x00\x00\x00\x00\x00\x00\x00\x00\x00\x00\x00\x00\x00\x00\x00\x00\x00\x00\x00\x00\x00\x00\x00\x00\x00\x00\x00\x00\x00\x00\x00\x00\x00\x00\x00\x00\x00\x00\x00\x00\x00\x00\x00\x00\x00\x00\x00\x00\x00\x00\x00\x00\x00\x00\x00\x00\x00\x00\x00\x00\x00\x00\x00\x00\x00\x00\x00\x00\x00\x00\x00\x00\x00\x00\x00\x00\x00\x00\x00\x00\x00\x00\x00\x00\x00\x00\x00\x00\x00\x00\x00\x00\x00\x00\x00\x00\x00\x00\x00\x00\x00\x00\x00\x00\x00\x00\x00\x00\x00\x00\x00\x00\x00\x00\x00\x00\x00\x00\x00\x00\x00\x00\x00\x00\x00\x00\x00\x00\x00\x00\x00\x00\x00\x00\x00\x00\x00\x00\x00\x00\x00\x00\x00\x00\x00\x00\x00'
NtbstRp57
(dp58
S'isNumeric'
p59
(dp60
g47
I01
sg55
I01
ssS'trials'
p61
g36
sS'dataTypes'
p62
(lp63
g47
ag55
asS'dataShape'
p64
(lp65
I15
aI40
asbsS'method'
p66
S'fullRandom'
p67
sS'sequenceIndices'
p68
cnumpy.core.multiarray
_reconstruct
p69
(g50
(I0
tS'b'
tRp70
(I1
(I15
I40
tg53
(S'O4'
I0
I1
tRp71
(I3
S'|'
NNNI-1
I-1
I63
tbI00
(lp72
I12
aI0
aI8
aI8
aI7
aI5
aI9
aI11
aI4
aI6
aI10
aI3
aI12
aI8
aI0
aI2
aI5
aI0
aI8
aI2
aI13
aI6
aI1
aI6
aI4
aI6
aI0
aI8
aI13
aI3
aI7
aI11
aI10
aI10
aI4
aI4
aI13
aI14
aI7
aI7
aI10
aI4
aI11
aI12
aI9
aI1
aI12
aI0
aI1
aI8
aI13
aI7
aI8
aI13
aI7
aI5
aI6
aI11
aI3
aI6
aI6
aI10
aI13
aI8
aI13
aI9
aI7
aI1
aI3
aI8
aI1
aI7
aI7
aI6
aI4
aI14
aI0
aI2
aI9
aI3
aI8
aI2
aI0
aI2
aI8
aI0
aI14
aI2
aI8
aI5
aI1
aI4
aI12
aI4
aI13
aI5
aI0
aI1
aI12
aI11
aI1
aI10
aI0
aI14
aI13
aI1
aI12
aI7
aI11
aI13
aI6
aI0
aI8
aI1
aI8
aI13
aI14
aI8
aI10
aI13
aI2
aI5
aI5
aI1
aI2
aI1
aI12
aI6
aI0
aI14
aI1
aI2
aI14
aI5
aI9
aI10
aI8
aI1
aI13
aI2
aI0
aI11
aI10
aI6
aI4
aI11
aI3
aI7
aI0
aI3
aI6
aI8
aI1
aI14
aI7
aI8
aI2
aI1
aI9
aI4
aI0
aI11
aI1
aI1
aI10
aI8
aI1
aI2
aI9
aI2
aI2
aI10
aI13
aI13
aI1
aI3
aI3
aI5
aI8
aI4
aI4
aI4
aI6
aI13
aI3
aI4
aI11
aI1
aI8
aI7
aI12
aI7
aI13
aI11
aI14
aI4
aI9
aI5
aI2
aI13
aI1
aI1
aI11
aI5
aI9
aI12
aI1
aI3
aI0
aI14
aI9
aI11
aI14
aI4
aI0
aI10
aI6
aI11
aI11
aI14
aI14
aI7
aI9
aI11
aI11
aI1
aI14
aI7
aI10
aI9
aI8
aI8
aI14
aI7
aI5
aI14
aI10
aI14
aI12
aI8
aI14
aI10
aI12
aI7
aI4
aI0
aI8
aI12
aI10
aI10
aI0
aI12
aI4
aI11
aI6
aI3
aI0
aI4
aI6
aI8
aI10
aI6
aI5
aI3
aI10
aI11
aI3
aI4
aI6
aI12
aI13
aI11
aI5
aI6
aI3
aI14
aI7
aI9
aI5
aI3
aI3
aI11
aI5
aI10
aI11
aI3
aI11
aI9
aI0
aI12
aI1
aI12
aI12
aI7
aI6
aI7
aI1
aI5
aI9
aI10
aI13
aI6
aI11
aI1
aI5
aI0
aI6
aI2
aI12
aI9
aI5
aI7
aI1
aI7
aI6
aI7
aI12
aI14
aI8
aI9
aI10
aI10
aI10
aI8
aI2
aI8
aI10
aI0
aI11
aI7
aI5
aI1
aI0
aI6
aI14
aI3
aI9
aI7
aI12
aI10
aI12
aI11
aI5
aI14
aI4
aI1
aI14
aI0
aI7
aI5
aI6
aI2
aI6
aI14
aI0
aI6
aI3
aI8
aI13
aI3
aI2
aI9
aI14
aI12
aI4
aI10
aI2
aI2
aI14
aI5
aI6
aI10
aI3
aI7
aI12
aI3
aI5
aI4
aI2
aI14
aI9
aI0
aI8
aI13
aI14
aI7
aI7
aI8
aI6
aI0
aI5
aI3
aI10
aI3
aI14
aI0
aI0
aI9
aI4
aI12
aI14
aI6
aI13
aI5
aI2
aI0
aI13
aI4
aI7
aI2
aI5
aI4
aI2
aI9
aI3
aI5
aI12
aI4
aI7
aI7
aI12
aI3
aI4
aI10
aI3
aI1
aI13
aI3
aI11
aI9
aI12
aI2
aI2
aI0
aI7
aI0
aI13
aI13
aI1
aI6
aI9
aI9
aI10
aI11
aI13
aI13
aI14
aI1
aI2
aI6
aI14
aI6
aI5
aI0
aI8
aI2
aI9
aI8
aI8
aI11
aI14
aI10
aI2
aI12
aI9
aI11
aI8
aI12
aI5
aI0
aI12
aI3
aI5
aI5
aI4
aI9
aI1
aI13
aI4
aI9
aI10
aI7
aI6
aI7
aI3
aI2
aI12
aI4
aI1
aI10
aI6
aI3
aI3
aI6
aI3
aI8
aI4
aI8
aI5
aI2
aI9
aI13
aI11
aI9
aI9
aI6
aI7
aI9
aI0
aI0
aI14
aI2
aI6
aI4
aI3
aI10
aI11
aI10
aI3
aI1
aI7
aI5
aI12
aI1
aI5
aI13
aI8
aI14
aI4
aI9
aI2
aI11
aI2
aI13
aI3
aI12
aI5
aI11
aI13
aI14
aI12
aI3
aI4
aI8
aI7
aI4
aI9
aI14
aI10
aI9
aI3
aI13
aI2
aI10
aI0
aI12
aI4
aI11
aI11
aI1
aI2
aI5
aI4
aI0
aI5
aI14
aI9
aI2
aI9
aI12
aI14
aI14
aI12
aI11
aI9
aI13
aI1
aI10
aI11
aI6
aI3
aI11
aI2
aI13
aI9
aI10
aI5
aI13
aI12
aI0
aI4
aI4
aI2
aI12
aI7
aI6
aI5
aI11
aI13
aI13
atbsS'finished'
p73
I00
sS'nReps'
p74
I40
sS'nRemaining'
p75
I0
sS'trialList'
p76
(lp77
I0
aI1
aI2
aI3
aI4
aI5
aI6
aI7
aI8
aI9
aI10
aI11
aI12
aI13
aI14
asS'seed'
p78
NsS'thisIndex'
p79
I13
sS'thisN'
p80
I599
sS'thisTrialN'
p81
I14
sS'nTotal'
p82
I600
sS'_warnUseOfNext'
p83
I01
sbasS'saveWideText'
p84
I00
sS'thisEntry'
p85
(dp86
sS'version'
p87
S''
sS'_paramNamesSoFar'
p88
(lp89
sS'entries'
p90
(lp91
(dp92
g16
(lp93
S'k'
asS'.thisTrial'
p94
I12
sS'.thisRepN'
p95
I0
sg30
VF
sg31
g32
sS'.thisTrialN'
p96
I0
sS'.thisN'
p97
I0
sS'.thisIndex'
p98
I12
sg15
(lp99
S'k'
asg17
S'Y'
sg14
I1
sa(dp100
g16
(lp101
S'd'
asg94
I10
sS'.thisRepN'
p102
I0
sg30
VF
sg31
g32
sS'.thisTrialN'
p103
I1
sS'.thisN'
p104
I1
sS'.thisIndex'
p105
I10
sg15
(lp106
S'k'
asg17
S'N'
sg14
I1
sa(dp107
g16
(lp108
S'k'
asg18
S'Y'
sS'.thisRepN'
p109
I0
sg20
S'N'
sg31
g32
sS'.thisTrialN'
p110
I2
sS'.thisN'
p111
I2
sS'.thisIndex'
p112
I8
sg15
(lp113
S'k'
asg30
VF
sg17
S'Y'
sg14
I1
sg19
(lp114
S'k'
asg94
I8
sa(dp115
g16
(lp116
S'd'
asg18
S'Y'
sS'.thisRepN'
p117
I0
sg20
S'N'
sg31
g32
sS'.thisTrialN'
p118
I3
sS'.thisN'
p119
I3
sS'.thisIndex'
p120
I2
sg15
(lp121
S'k'
asg30
VF
sg17
S'N'
sg14
I1
sg19
Nsg94
I2
sa(dp122
g16
(lp123
S'k'
asg18
S'Y'
sS'.thisRepN'
p124
I0
sg20
S'N'
sg31
g32
sS'.thisTrialN'
p125
I4
sS'.thisN'
p126
I4
sS'.thisIndex'
p127
I0
sg15
(lp128
S'k'
asg30
VF
sg17
S'Y'
sg14
I1
sg19
(lp129
S'k'
asg94
I0
sa(dp130
g16
(lp131
S'k'
asg18
S'N'
sS'.thisRepN'
p132
I0
sg20
S'Y'
sg31
g32
sS'.thisTrialN'
p133
I5
sS'.thisN'
p134
I5
sS'.thisIndex'
p135
I1
sg15
(lp136
S'd'
asg30
VF
sg17
S'N'
sg14
I1
sg19
Nsg94
I1
sa(dp137
g16
(lp138
S'k'
asg18
S'Y'
sS'.thisRepN'
p139
I0
sg20
S'N'
sg31
g32
sS'.thisTrialN'
p140
I6
sS'.thisN'
p141
I6
sS'.thisIndex'
p142
I14
sg15
(lp143
S'k'
asg30
VF
sg17
S'Y'
sg14
I1
sg19
(lp144
S'k'
asg94
I14
sa(dp145
g16
(lp146
S'k'
asg18
S'N'
sS'.thisRepN'
p147
I0
sg20
S'Y'
sg31
g32
sS'.thisTrialN'
p148
I7
sS'.thisN'
p149
I7
sS'.thisIndex'
p150
I3
sg15
(lp151
S'd'
asg30
VF
sg17
S'N'
sg14
I1
sg19
Nsg94
I3
sa(dp152
g16
(lp153
S'k'
asg18
S'Y'
sS'.thisRepN'
p154
I0
sg20
S'N'
sg31
g32
sS'.thisTrialN'
p155
I8
sS'.thisN'
p156
I8
sS'.thisIndex'
p157
I10
sg15
(lp158
S'd'
asg30
VF
sg17
S'N'
sg14
I1
sg19
Nsg94
I10
sa(dp159
g16
(lp160
S'd'
asg18
S'Y'
sS'.thisRepN'
p161
I0
sg20
S'N'
sg31
g32
sS'.thisTrialN'
p162
I9
sS'.thisN'
p163
I9
sS'.thisIndex'
p164
I2
sg15
(lp165
S'k'
asg30
VF
sg17
S'N'
sg14
I1
sg19
Nsg94
I2
sa(dp166
g16
(lp167
S'd'
asg18
S'Y'
sS'.thisRepN'
p168
I0
sg20
S'N'
sg31
g32
sS'.thisTrialN'
p169
I10
sS'.thisN'
p170
I10
sS'.thisIndex'
p171
I14
sg15
(lp172
S'k'
asg30
VF
sg17
S'N'
sg14
I1
sg19
(lp173
S'k'
asg94
I14
sa(dp174
g16
(lp175
S'k'
asg18
S'N'
sS'.thisRepN'
p176
I0
sg20
S'Y'
sg31
g32
sS'.thisTrialN'
p177
I11
sS'.thisN'
p178
I11
sS'.thisIndex'
p179
I9
sg15
(lp180
S'd'
asg30
VF
sg17
S'N'
sg14
I1
sg19
Nsg94
I9
sa(dp181
g16
(lp182
S'd'
asg18
S'N'
sS'.thisRepN'
p183
I0
sg20
S'Y'
sg31
g32
sS'.thisTrialN'
p184
I12
sS'.thisN'
p185
I12
sS'.thisIndex'
p186
I10
sg15
(lp187
S'k'
asg30
VF
sg17
S'N'
sg14
I1
sg19
Nsg94
I10
sa(dp188
g16
(lp189
S'k'
asg18
S'Y'
sS'.thisRepN'
p190
I0
sg20
S'N'
sg31
g32
sS'.thisTrialN'
p191
I13
sS'.thisN'
p192
I13
sS'.thisIndex'
p193
I7
sg15
(lp194
S'd'
asg30
VF
sg17
S'N'
sg14
I1
sg19
Nsg94
I7
sa(dp195
g16
(lp196
S'k'
asg18
S'Y'
sS'.thisRepN'
p197
I0
sg20
S'Y'
sg31
g32
sS'.thisTrialN'
p198
I14
sS'.thisN'
p199
I14
sS'.thisIndex'
p200
I2
sg15
(lp201
S'k'
asg30
VF
sg17
S'Y'
sg14
I1
sg19
(lp202
S'space'
p203
asg94
I2
sa(dp204
g16
(lp205
S'k'
asg18
S'Y'
sS'.thisRepN'
p206
I1
sg20
S'N'
sg31
g32
sS'.thisTrialN'
p207
I0
sS'.thisN'
p208
I15
sS'.thisIndex'
p209
I0
sg15
(lp210
S'd'
asg30
VF
sg17
S'N'
sg14
I1
sg19
Nsg94
I0
sa(dp211
g16
(lp212
S'k'
asg18
S'Y'
sS'.thisRepN'
p213
I1
sg20
S'N'
sg31
g32
sS'.thisTrialN'
p214
I1
sS'.thisN'
p215
I16
sS'.thisIndex'
p216
I4
sg15
(lp217
S'k'
asg30
VF
sg17
S'Y'
sg14
I1
sg19
Nsg94
I4
sa(dp218
g16
(lp219
S'd'
asg18
S'N'
sS'.thisRepN'
p220
I1
sg20
S'N'
sg31
g32
sS'.thisTrialN'
p221
I2
sS'.thisN'
p222
I17
sS'.thisIndex'
p223
I2
sg15
(lp224
S'k'
asg30
VF
sg17
S'N'
sg14
I1
sg19
(lp225
S'space'
p226
asg94
I2
sa(dp227
g16
(lp228
S'd'
asg18
S'Y'
sS'.thisRepN'
p229
I1
sg20
S'N'
sg31
g32
sS'.thisTrialN'
p230
I3
sS'.thisN'
p231
I18
sS'.thisIndex'
p232
I5
sg15
(lp233
S'k'
asg30
VF
sg17
S'N'
sg14
I1
sg19
Nsg94
I5
sa(dp234
g16
(lp235
S'd'
asg18
S'N'
sS'.thisRepN'
p236
I1
sg20
S'Y'
sg31
g32
sS'.thisTrialN'
p237
I4
sS'.thisN'
p238
I19
sS'.thisIndex'
p239
I11
sg15
(lp240
S'd'
asg30
VF
sg17
S'Y'
sg14
I1
sg19
Nsg94
I11
sa(dp241
g16
(lp242
S'k'
asg18
S'N'
sS'.thisRepN'
p243
I1
sg20
S'Y'
sg31
g32
sS'.thisTrialN'
p244
I5
sS'.thisN'
p245
I20
sS'.thisIndex'
p246
I1
sg15
(lp247
S'd'
asg30
VF
sg17
S'N'
sg14
I1
sg19
Nsg94
I1
sa(dp248
g16
(lp249
S'd'
asg18
S'Y'
sS'.thisRepN'
p250
I1
sg20
S'N'
sg31
g32
sS'.thisTrialN'
p251
I6
sS'.thisN'
p252
I21
sS'.thisIndex'
p253
I10
sg15
(lp254
S'k'
asg30
VF
sg17
S'N'
sg14
I1
sg19
Nsg94
I10
sa(dp255
g16
(lp256
S'k'
asg18
S'Y'
sS'.thisRepN'
p257
I1
sg20
S'Y'
sg31
g32
sS'.thisTrialN'
p258
I7
sS'.thisN'
p259
I22
sS'.thisIndex'
p260
I11
sg15
(lp261
S'd'
asg30
VF
sg17
S'N'
sg14
I1
sg19
(lp262
S'space'
p263
asg94
I11
sa(dp264
g16
(lp265
S'd'
asg18
S'N'
sS'.thisRepN'
p266
I1
sg20
S'Y'
sg31
g32
sS'.thisTrialN'
p267
I8
sS'.thisN'
p268
I23
sS'.thisIndex'
p269
I10
sg15
(lp270
S'k'
asg30
VF
sg17
S'N'
sg14
I1
sg19
Nsg94
I10
sa(dp271
g16
(lp272
S'd'
asg18
S'N'
sS'.thisRepN'
p273
I1
sg20
S'N'
sg31
g32
sS'.thisTrialN'
p274
I9
sS'.thisN'
p275
I24
sS'.thisIndex'
p276
I9
sg15
(lp277
S'k'
asg30
VF
sg17
S'N'
sg14
I1
sg19
(lp278
S'space'
p279
asg94
I9
sa(dp280
g16
(lp281
S'd'
asg18
S'N'
sS'.thisRepN'
p282
I1
sg20
S'Y'
sg31
g32
sS'.thisTrialN'
p283
I10
sS'.thisN'
p284
I25
sS'.thisIndex'
p285
I6
sg15
(lp286
S'd'
asg30
VF
sg17
S'Y'
sg14
I1
sg19
Nsg94
I6
sa(dp287
g16
(lp288
S'd'
asg18
S'Y'
sS'.thisRepN'
p289
I1
sg20
S'Y'
sg31
g32
sS'.thisTrialN'
p290
I11
sS'.thisN'
p291
I26
sS'.thisIndex'
p292
I9
sg15
(lp293
S'k'
asg30
VF
sg17
S'N'
sg14
I1
sg19
(lp294
S'space'
p295
asg94
I9
sa(dp296
g16
(lp297
S'd'
asg18
S'N'
sS'.thisRepN'
p298
I1
sg20
S'Y'
sg31
g32
sS'.thisTrialN'
p299
I12
sS'.thisN'
p300
I27
sS'.thisIndex'
p301
I7
sg15
(lp302
S'k'
asg30
VF
sg17
S'N'
sg14
I1
sg19
Nsg94
I7
sa(dp303
g16
(lp304
S'k'
asg18
S'Y'
sS'.thisRepN'
p305
I1
sg20
S'Y'
sg31
g32
sS'.thisTrialN'
p306
I13
sS'.thisN'
p307
I28
sS'.thisIndex'
p308
I5
sg15
(lp309
S'k'
asg30
VF
sg17
S'Y'
sg14
I1
sg19
(lp310
S'space'
p311
asg94
I5
sa(dp312
g16
(lp313
S'k'
asg18
S'N'
sS'.thisRepN'
p314
I1
sg20
S'Y'
sg31
g32
sS'.thisTrialN'
p315
I14
sS'.thisN'
p316
I29
sS'.thisIndex'
p317
I5
sg15
(lp318
S'd'
asg30
VF
sg17
S'N'
sg14
I1
sg19
Nsg94
I5
sa(dp319
g16
(lp320
S'k'
asg18
S'N'
sS'.thisRepN'
p321
I2
sg20
S'Y'
sg31
g32
sS'.thisTrialN'
p322
I0
sS'.thisN'
p323
I30
sS'.thisIndex'
p324
I8
sg15
(lp325
S'k'
asg30
VF
sg17
S'Y'
sg14
I1
sg19
Nsg94
I8
sa(dp326
g16
(lp327
S'd'
asg18
S'N'
sS'.thisRepN'
p328
I2
sg20
S'N'
sg31
g32
sS'.thisTrialN'
p329
I1
sS'.thisN'
p330
I31
sS'.thisIndex'
p331
I11
sg15
(lp332
S'k'
asg30
VF
sg17
S'N'
sg14
I1
sg19
(lp333
S'space'
p334
asg94
I11
sa(dp335
g16
(lp336
S'k'
asg18
S'Y'
sS'.thisRepN'
p337
I2
sg20
S'N'
sg31
g32
sS'.thisTrialN'
p338
I2
sS'.thisN'
p339
I32
sS'.thisIndex'
p340
I0
sg15
(lp341
S'd'
asg30
VF
sg17
S'N'
sg14
I1
sg19
Nsg94
I0
sa(dp342
g16
(lp343
S'k'
asg18
S'Y'
sS'.thisRepN'
p344
I2
sg20
S'Y'
sg31
g32
sS'.thisTrialN'
p345
I3
sS'.thisN'
p346
I33
sS'.thisIndex'
p347
I5
sg15
(lp348
S'k'
asg30
VF
sg17
S'Y'
sg14
I1
sg19
(lp349
S'space'
p350
asg94
I5
sa(dp351
g16
(lp352
S'k'
asg18
S'Y'
sS'.thisRepN'
p353
I2
sg20
S'N'
sg31
g32
sS'.thisTrialN'
p354
I4
sS'.thisN'
p355
I34
sS'.thisIndex'
p356
I1
sg15
(lp357
S'd'
asg30
VF
sg17
S'N'
sg14
I1
sg19
Nsg94
I1
sa(dp358
g16
(lp359
S'k'
asg18
S'Y'
sS'.thisRepN'
p360
I2
sg20
S'N'
sg31
g32
sS'.thisTrialN'
p361
I5
sS'.thisN'
p362
I35
sS'.thisIndex'
p363
I11
sg15
(lp364
S'k'
asg30
VF
sg17
S'Y'
sg14
I1
sg19
Nsg94
I11
sa(dp365
g16
(lp366
S'k'
asg18
S'Y'
sS'.thisRepN'
p367
I2
sg20
S'Y'
sg31
g32
sS'.thisTrialN'
p368
I6
sS'.thisN'
p369
I36
sS'.thisIndex'
p370
I12
sg15
(lp371
S'k'
asg30
VF
sg17
S'Y'
sg14
I1
sg19
(lp372
S'space'
p373
asg94
I12
sa(dp374
g16
(lp375
S'd'
asg18
S'N'
sS'.thisRepN'
p376
I2
sg20
S'N'
sg31
g32
sS'.thisTrialN'
p377
I7
sS'.thisN'
p378
I37
sS'.thisIndex'
p379
I5
sg15
(lp380
S'd'
asg30
VF
sg17
S'Y'
sg14
I1
sg19
(lp381
S'space'
p382
asg94
I5
sa(dp383
g16
(lp384
S'd'
asg18
S'N'
sS'.thisRepN'
p385
I2
sg20
S'Y'
sg31
g32
sS'.thisTrialN'
p386
I8
sS'.thisN'
p387
I38
sS'.thisIndex'
p388
I10
sg15
(lp389
S'k'
asg30
VF
sg17
S'N'
sg14
I1
sg19
Nsg94
I10
sa(dp390
g16
(lp391
S'k'
asg18
S'N'
sS'.thisRepN'
p392
I2
sg20
S'Y'
sg31
g32
sS'.thisTrialN'
p393
I9
sS'.thisN'
p394
I39
sS'.thisIndex'
p395
I14
sg15
(lp396
S'k'
asg30
VF
sg17
S'Y'
sg14
I1
sg19
Nsg94
I14
sa(dp397
g16
(lp398
S'd'
asg18
S'Y'
sS'.thisRepN'
p399
I2
sg20
S'Y'
sg31
g32
sS'.thisTrialN'
p400
I10
sS'.thisN'
p401
I40
sS'.thisIndex'
p402
I13
sg15
(lp403
S'd'
asg30
VF
sg17
S'Y'
sg14
I1
sg19
(lp404
S'space'
p405
asg94
I13
sa(dp406
g16
(lp407
S'd'
asg18
S'N'
sS'.thisRepN'
p408
I2
sg20
S'N'
sg31
g32
sS'.thisTrialN'
p409
I11
sS'.thisN'
p410
I41
sS'.thisIndex'
p411
I10
sg15
(lp412
S'k'
asg30
VF
sg17
S'N'
sg14
I1
sg19
(lp413
S'space'
p414
asg94
I10
sa(dp415
g16
(lp416
S'd'
asg18
S'Y'
sS'.thisRepN'
p417
I2
sg20
S'Y'
sg31
g32
sS'.thisTrialN'
p418
I12
sS'.thisN'
p419
I42
sS'.thisIndex'
p420
I6
sg15
(lp421
S'k'
asg30
VF
sg17
S'N'
sg14
I1
sg19
(lp422
S'space'
p423
asg94
I6
sa(dp424
g16
(lp425
S'd'
asg18
S'N'
sS'.thisRepN'
p426
I2
sg20
S'Y'
sg31
g32
sS'.thisTrialN'
p427
I13
sS'.thisN'
p428
I43
sS'.thisIndex'
p429
I12
sg15
(lp430
S'k'
asg30
VF
sg17
S'N'
sg14
I1
sg19
Nsg94
I12
sa(dp431
g16
(lp432
S'k'
asg18
S'Y'
sS'.thisRepN'
p433
I2
sg20
S'N'
sg31
g32
sS'.thisTrialN'
p434
I14
sS'.thisN'
p435
I44
sS'.thisIndex'
p436
I4
sg15
(lp437
S'k'
asg30
VF
sg17
S'Y'
sg14
I1
sg19
Nsg94
I4
sa(dp438
g16
(lp439
S'k'
asg18
S'N'
sS'.thisRepN'
p440
I3
sg20
S'Y'
sg31
g32
sS'.thisTrialN'
p441
I0
sS'.thisN'
p442
I45
sS'.thisIndex'
p443
I8
sg15
(lp444
S'k'
asg30
VF
sg17
S'Y'
sg14
I1
sg19
Nsg94
I8
sa(dp445
g16
(lp446
S'd'
asg18
S'N'
sS'.thisRepN'
p447
I3
sg20
S'N'
sg31
g32
sS'.thisTrialN'
p448
I1
sS'.thisN'
p449
I46
sS'.thisIndex'
p450
I12
sg15
(lp451
S'd'
asg30
VF
sg17
S'Y'
sg14
I1
sg19
(lp452
S'space'
p453
asg94
I12
sa(dp454
g16
(lp455
S'd'
asg18
S'Y'
sS'.thisRepN'
p456
I3
sg20
S'Y'
sg31
g32
sS'.thisTrialN'
p457
I2
sS'.thisN'
p458
I47
sS'.thisIndex'
p459
I2
sg15
(lp460
S'd'
asg30
VF
sg17
S'Y'
sg14
I1
sg19
(lp461
S'space'
p462
asg94
I2
sa(dp463
g16
(lp464
S'd'
asg18
S'N'
sS'.thisRepN'
p465
I3
sg20
S'Y'
sg31
g32
sS'.thisTrialN'
p466
I3
sS'.thisN'
p467
I48
sS'.thisIndex'
p468
I1
sg15
(lp469
S'k'
asg30
VF
sg17
S'N'
sg14
I1
sg19
Nsg94
I1
sa(dp470
g16
(lp471
S'd'
asg18
S'N'
sg22
I25
sS'.thisN'
p472
I49
sg20
S'N'
sg31
g32
sS'.thisTrialN'
p473
I4
sS'.thisRepN'
p474
I3
sg21
I20
sS'.thisIndex'
p475
I1
sg23
I25
sg15
(lp476
S'k'
asg30
VF
sg17
S'N'
sg14
I1
sg19
(lp477
S'space'
p478
asg94
I1
sa(dp479
g16
(lp480
S'd'
asg94
I5
sS'.thisRepN'
p481
I3
sg30
VF
sg31
g32
sS'.thisTrialN'
p482
I5
sS'.thisN'
p483
I50
sS'.thisIndex'
p484
I5
sg15
(lp485
S'k'
asg17
S'N'
sg14
I2
sa(dp486
g16
(lp487
S'd'
asg94
I7
sS'.thisRepN'
p488
I3
sg30
VF
sg31
g32
sS'.thisTrialN'
p489
I6
sS'.thisN'
p490
I51
sS'.thisIndex'
p491
I7
sg15
(lp492
S'd'
asg17
S'Y'
sg14
I2
sa(dp493
g16
(lp494
S'd'
asg18
S'N'
sS'.thisRepN'
p495
I3
sg20
S'Y'
sg31
g32
sS'.thisTrialN'
p496
I7
sS'.thisN'
p497
I52
sS'.thisIndex'
p498
I10
sg15
(lp499
S'k'
asg30
VF
sg17
S'N'
sg14
I2
sg19
Nsg94
I10
sa(dp500
g16
(lp501
S'k'
asg18
S'Y'
sS'.thisRepN'
p502
I3
sg20
S'N'
sg31
g32
sS'.thisTrialN'
p503
I8
sS'.thisN'
p504
I53
sS'.thisIndex'
p505
I8
sg15
(lp506
S'd'
asg30
VF
sg17
S'N'
sg14
I2
sg19
Nsg94
I8
sa(dp507
g16
(lp508
S'd'
asg18
S'N'
sS'.thisRepN'
p509
I3
sg20
S'Y'
sg31
g32
sS'.thisTrialN'
p510
I9
sS'.thisN'
p511
I54
sS'.thisIndex'
p512
I12
sg15
(lp513
S'k'
asg30
VF
sg17
S'N'
sg14
I2
sg19
Nsg94
I12
sa(dp514
g16
(lp515
S'k'
asg18
S'Y'
sS'.thisRepN'
p516
I3
sg20
S'Y'
sg31
g32
sS'.thisTrialN'
p517
I10
sS'.thisN'
p518
I55
sS'.thisIndex'
p519
I5
sg15
(lp520
S'd'
asg30
VF
sg17
S'N'
sg14
I2
sg19
(lp521
S'space'
p522
asg94
I5
sa(dp523
g16
(lp524
S'k'
asg18
S'Y'
sS'.thisRepN'
p525
I3
sg20
S'Y'
sg31
g32
sS'.thisTrialN'
p526
I11
sS'.thisN'
p527
I56
sS'.thisIndex'
p528
I11
sg15
(lp529
S'k'
asg30
VF
sg17
S'Y'
sg14
I2
sg19
(lp530
S'space'
p531
asg94
I11
sa(dp532
g16
(lp533
S'k'
asg18
S'N'
sS'.thisRepN'
p534
I3
sg20
S'N'
sg31
g32
sS'.thisTrialN'
p535
I12
sS'.thisN'
p536
I57
sS'.thisIndex'
p537
I7
sg15
(lp538
S'k'
asg30
VF
sg17
S'Y'
sg14
I2
sg19
(lp539
S'space'
p540
asg94
I7
sa(dp541
g16
(lp542
S'k'
asg18
S'N'
sS'.thisRepN'
p543
I3
sg20
S'N'
sg31
g32
sS'.thisTrialN'
p544
I13
sS'.thisN'
p545
I58
sS'.thisIndex'
p546
I1
sg15
(lp547
S'd'
asg30
VF
sg17
S'N'
sg14
I2
sg19
(lp548
S'space'
p549
asg94
I1
sa(dp550
g16
(lp551
S'k'
asg18
S'Y'
sS'.thisRepN'
p552
I3
sg20
S'N'
sg31
g32
sS'.thisTrialN'
p553
I14
sS'.thisN'
p554
I59
sS'.thisIndex'
p555
I0
sg15
(lp556
S'k'
asg30
VF
sg17
S'Y'
sg14
I2
sg19
Nsg94
I0
sa(dp557
g16
(lp558
S'k'
asg18
S'N'
sS'.thisRepN'
p559
I4
sg20
S'N'
sg31
g32
sS'.thisTrialN'
p560
I0
sS'.thisN'
p561
I60
sS'.thisIndex'
p562
I7
sg15
(lp563
S'k'
asg30
VF
sg17
S'Y'
sg14
I2
sg19
(lp564
S'space'
p565
asg94
I7
sa(dp566
g16
(lp567
S'd'
asg18
S'N'
sS'.thisRepN'
p568
I4
sg20
S'Y'
sg31
g32
sS'.thisTrialN'
p569
I1
sS'.thisN'
p570
I61
sS'.thisIndex'
p571
I9
sg15
(lp572
S'd'
asg30
VF
sg17
S'Y'
sg14
I2
sg19
Nsg94
I9
sa(dp573
g16
(lp574
S'd'
asg18
S'Y'
sS'.thisRepN'
p575
I4
sg20
S'Y'
sg31
g32
sS'.thisTrialN'
p576
I2
sS'.thisN'
p577
I62
sS'.thisIndex'
p578
I8
sg15
(lp579
S'k'
asg30
VF
sg17
S'N'
sg14
I2
sg19
(lp580
S'space'
p581
asg94
I8
sa(dp582
g16
(lp583
S'd'
asg18
S'Y'
sS'.thisRepN'
p584
I4
sg20
S'N'
sg31
g32
sS'.thisTrialN'
p585
I3
sS'.thisN'
p586
I63
sS'.thisIndex'
p587
I2
sg15
(lp588
S'd'
asg30
VF
sg17
S'Y'
sg14
I2
sg19
Nsg94
I2
sa(dp589
g16
(lp590
S'k'
asg18
S'Y'
sS'.thisRepN'
p591
I4
sg20
S'N'
sg31
g32
sS'.thisTrialN'
p592
I4
sS'.thisN'
p593
I64
sS'.thisIndex'
p594
I10
sg15
(lp595
S'k'
asg30
VF
sg17
S'Y'
sg14
I2
sg19
Nsg94
I10
sa(dp596
g16
(lp597
S'k'
asg18
S'Y'
sS'.thisRepN'
p598
I4
sg20
S'Y'
sg31
g32
sS'.thisTrialN'
p599
I5
sS'.thisN'
p600
I65
sS'.thisIndex'
p601
I9
sg15
(lp602
S'k'
asg30
VF
sg17
S'Y'
sg14
I2
sg19
(lp603
S'space'
p604
asg94
I9
sa(dp605
g16
(lp606
S'd'
asg18
S'Y'
sS'.thisRepN'
p607
I4
sg20
S'Y'
sg31
g32
sS'.thisTrialN'
p608
I6
sS'.thisN'
p609
I66
sS'.thisIndex'
p610
I4
sg15
(lp611
S'd'
asg30
VF
sg17
S'Y'
sg14
I2
sg19
(lp612
S'space'
p613
asg94
I4
sa(dp614
g16
(lp615
S'k'
asg18
S'Y'
sS'.thisRepN'
p616
I4
sg20
S'N'
sg31
g32
sS'.thisTrialN'
p617
I7
sS'.thisN'
p618
I67
sS'.thisIndex'
p619
I11
sg15
(lp620
S'k'
asg30
VF
sg17
S'Y'
sg14
I2
sg19
Nsg94
I11
sa(dp621
g16
(lp622
S'k'
asg18
S'Y'
sS'.thisRepN'
p623
I4
sg20
S'N'
sg31
g32
sS'.thisTrialN'
p624
I8
sS'.thisN'
p625
I68
sS'.thisIndex'
p626
I2
sg15
(lp627
S'k'
asg30
VF
sg17
S'Y'
sg14
I2
sg19
Nsg94
I2
sa(dp628
g16
(lp629
S'd'
asg18
S'N'
sS'.thisRepN'
p630
I4
sg20
S'Y'
sg31
g32
sS'.thisTrialN'
p631
I9
sS'.thisN'
p632
I69
sS'.thisIndex'
p633
I4
sg15
(lp634
S'k'
asg30
VF
sg17
S'N'
sg14
I2
sg19
Nsg94
I4
sa(dp635
g16
(lp636
S'k'
asg18
S'Y'
sS'.thisRepN'
p637
I4
sg20
S'Y'
sg31
g32
sS'.thisTrialN'
p638
I10
sS'.thisN'
p639
I70
sS'.thisIndex'
p640
I2
sg15
(lp641
S'k'
asg30
VF
sg17
S'Y'
sg14
I2
sg19
(lp642
S'space'
p643
asg94
I2
sa(dp644
g16
(lp645
S'd'
asg18
S'N'
sS'.thisRepN'
p646
I4
sg20
S'N'
sg31
g32
sS'.thisTrialN'
p647
I11
sS'.thisN'
p648
I71
sS'.thisIndex'
p649
I13
sg15
(lp650
S'd'
asg30
VF
sg17
S'Y'
sg14
I2
sg19
(lp651
S'space'
p652
asg94
I13
sa(dp653
g16
(lp654
S'k'
asg18
S'N'
sS'.thisRepN'
p655
I4
sg20
S'Y'
sg31
g32
sS'.thisTrialN'
p656
I12
sS'.thisN'
p657
I72
sS'.thisIndex'
p658
I3
sg15
(lp659
S'k'
asg30
VF
sg17
S'Y'
sg14
I2
sg19
Nsg94
I3
sa(dp660
g16
(lp661
S'k'
asg18
S'N'
sS'.thisRepN'
p662
I4
sg20
S'Y'
sg31
g32
sS'.thisTrialN'
p663
I13
sS'.thisN'
p664
I73
sS'.thisIndex'
p665
I5
sg15
(lp666
S'k'
asg30
VF
sg17
S'Y'
sg14
I2
sg19
Nsg94
I5
sa(dp667
g16
(lp668
S'd'
asg18
S'Y'
sS'.thisRepN'
p669
I4
sg20
S'Y'
sg31
g32
sS'.thisTrialN'
p670
I14
sS'.thisN'
p671
I74
sS'.thisIndex'
p672
I5
sg15
(lp673
S'd'
asg30
VF
sg17
S'Y'
sg14
I2
sg19
(lp674
S'space'
p675
asg94
I5
sa(dp676
g16
(lp677
S'd'
asg18
S'N'
sS'.thisRepN'
p678
I5
sg20
S'N'
sg31
g32
sS'.thisTrialN'
p679
I0
sS'.thisN'
p680
I75
sS'.thisIndex'
p681
I5
sg15
(lp682
S'd'
asg30
VF
sg17
S'Y'
sg14
I2
sg19
(lp683
S'space'
p684
asg94
I5
sa(dp685
g16
(lp686
S'd'
asg18
S'N'
sS'.thisRepN'
p687
I5
sg20
S'N'
sg31
g32
sS'.thisTrialN'
p688
I1
sS'.thisN'
p689
I76
sS'.thisIndex'
p690
I1
sg15
(lp691
S'd'
asg30
VF
sg17
S'Y'
sg14
I2
sg19
(lp692
S'space'
p693
asg94
I1
sa(dp694
g16
(lp695
S'd'
asg18
S'Y'
sS'.thisRepN'
p696
I5
sg20
S'Y'
sg31
g32
sS'.thisTrialN'
p697
I2
sS'.thisN'
p698
I77
sS'.thisIndex'
p699
I0
sg15
(lp700
S'k'
asg30
VF
sg17
S'N'
sg14
I2
sg19
(lp701
S'space'
p702
asg94
I0
sa(dp703
g16
(lp704
S'd'
asg18
S'Y'
sS'.thisRepN'
p705
I5
sg20
S'N'
sg31
g32
sS'.thisTrialN'
p706
I3
sS'.thisN'
p707
I78
sS'.thisIndex'
p708
I1
sg15
(lp709
S'k'
asg30
VF
sg17
S'N'
sg14
I2
sg19
Nsg94
I1
sa(dp710
g16
(lp711
S'k'
asg18
S'N'
sS'.thisRepN'
p712
I5
sg20
S'N'
sg31
g32
sS'.thisTrialN'
p713
I4
sS'.thisN'
p714
I79
sS'.thisIndex'
p715
I8
sg15
(lp716
S'k'
asg30
VF
sg17
S'Y'
sg14
I2
sg19
(lp717
S'space'
p718
asg94
I8
sa(dp719
g16
(lp720
S'd'
asg18
S'Y'
sS'.thisRepN'
p721
I5
sg20
S'Y'
sg31
g32
sS'.thisTrialN'
p722
I5
sS'.thisN'
p723
I80
sS'.thisIndex'
p724
I12
sg15
(lp725
S'd'
asg30
VF
sg17
S'Y'
sg14
I2
sg19
(lp726
S'space'
p727
asg94
I12
sa(dp728
g16
(lp729
S'k'
asg18
S'Y'
sS'.thisRepN'
p730
I5
sg20
S'Y'
sg31
g32
sS'.thisTrialN'
p731
I6
sS'.thisN'
p732
I81
sS'.thisIndex'
p733
I0
sg15
(lp734
S'k'
asg30
VF
sg17
S'Y'
sg14
I2
sg19
(lp735
S'space'
p736
asg94
I0
sa(dp737
g16
(lp738
S'd'
asg18
S'N'
sS'.thisRepN'
p739
I5
sg20
S'N'
sg31
g32
sS'.thisTrialN'
p740
I7
sS'.thisN'
p741
I82
sS'.thisIndex'
p742
I3
sg15
(lp743
S'd'
asg30
VF
sg17
S'Y'
sg14
I2
sg19
(lp744
S'space'
p745
asg94
I3
sa(dp746
g16
(lp747
S'd'
asg18
S'N'
sS'.thisRepN'
p748
I5
sg20
S'Y'
sg31
g32
sS'.thisTrialN'
p749
I8
sS'.thisN'
p750
I83
sS'.thisIndex'
p751
I8
sg15
(lp752
S'd'
asg30
VF
sg17
S'Y'
sg14
I2
sg19
Nsg94
I8
sa(dp753
g16
(lp754
S'd'
asg18
S'N'
sS'.thisRepN'
p755
I5
sg20
S'Y'
sg31
g32
sS'.thisTrialN'
p756
I9
sS'.thisN'
p757
I84
sS'.thisIndex'
p758
I10
sg15
(lp759
S'd'
asg30
VF
sg17
S'Y'
sg14
I2
sg19
Nsg94
I10
sa(dp760
g16
(lp761
S'k'
asg18
S'Y'
sS'.thisRepN'
p762
I5
sg20
S'Y'
sg31
g32
sS'.thisTrialN'
p763
I10
sS'.thisN'
p764
I85
sS'.thisIndex'
p765
I0
sg15
(lp766
S'k'
asg30
VF
sg17
S'Y'
sg14
I2
sg19
(lp767
S'space'
p768
asg94
I0
sa(dp769
g16
(lp770
S'k'
asg18
S'Y'
sS'.thisRepN'
p771
I5
sg20
S'N'
sg31
g32
sS'.thisTrialN'
p772
I11
sS'.thisN'
p773
I86
sS'.thisIndex'
p774
I13
sg15
(lp775
S'k'
asg30
VF
sg17
S'Y'
sg14
I2
sg19
Nsg94
I13
sa(dp776
g16
(lp777
S'd'
asg18
S'Y'
sS'.thisRepN'
p778
I5
sg20
S'Y'
sg31
g32
sS'.thisTrialN'
p779
I12
sS'.thisN'
p780
I87
sS'.thisIndex'
p781
I2
sg15
(lp782
S'd'
asg30
VF
sg17
S'Y'
sg14
I2
sg19
(lp783
S'space'
p784
asg94
I2
sa(dp785
g16
(lp786
S'k'
asg18
S'Y'
sS'.thisRepN'
p787
I5
sg20
S'Y'
sg31
g32
sS'.thisTrialN'
p788
I13
sS'.thisN'
p789
I88
sS'.thisIndex'
p790
I13
sg15
(lp791
S'k'
asg30
VF
sg17
S'Y'
sg14
I2
sg19
(lp792
S'space'
p793
asg94
I13
sa(dp794
g16
(lp795
S'k'
asg18
S'N'
sS'.thisRepN'
p796
I5
sg20
S'Y'
sg31
g32
sS'.thisTrialN'
p797
I14
sS'.thisN'
p798
I89
sS'.thisIndex'
p799
I14
sg15
(lp800
S'k'
asg30
VF
sg17
S'Y'
sg14
I2
sg19
Nsg94
I14
sa(dp801
g16
(lp802
S'd'
asg18
S'N'
sS'.thisRepN'
p803
I6
sg20
S'N'
sg31
g32
sS'.thisTrialN'
p804
I0
sS'.thisN'
p805
I90
sS'.thisIndex'
p806
I9
sg15
(lp807
S'd'
asg30
VF
sg17
S'Y'
sg14
I2
sg19
(lp808
S'space'
p809
asg94
I9
sa(dp810
g16
(lp811
S'k'
asg18
S'N'
sS'.thisRepN'
p812
I6
sg20
S'Y'
sg31
g32
sS'.thisTrialN'
p813
I1
sS'.thisN'
p814
I91
sS'.thisIndex'
p815
I12
sg15
(lp816
S'k'
asg30
VF
sg17
S'Y'
sg14
I2
sg19
Nsg94
I12
sa(dp817
g16
(lp818
S'k'
asg18
S'N'
sS'.thisRepN'
p819
I6
sg20
S'Y'
sg31
g32
sS'.thisTrialN'
p820
I2
sS'.thisN'
p821
I92
sS'.thisIndex'
p822
I14
sg15
(lp823
S'k'
asg30
VF
sg17
S'Y'
sg14
I2
sg19
Nsg94
I14
sa(dp824
g16
(lp825
S'k'
asg18
S'N'
sS'.thisRepN'
p826
I6
sg20
S'Y'
sg31
g32
sS'.thisTrialN'
p827
I3
sS'.thisN'
p828
I93
sS'.thisIndex'
p829
I12
sg15
(lp830
S'k'
asg30
VF
sg17
S'Y'
sg14
I2
sg19
Nsg94
I12
sa(dp831
g16
(lp832
S'k'
asg18
S'N'
sS'.thisRepN'
p833
I6
sg20
S'Y'
sg31
g32
sS'.thisTrialN'
p834
I4
sS'.thisN'
p835
I94
sS'.thisIndex'
p836
I1
sg15
(lp837
S'k'
asg30
VF
sg17
S'Y'
sg14
I2
sg19
Nsg94
I1
sa(dp838
g16
(lp839
S'd'
asg18
S'N'
sS'.thisRepN'
p840
I6
sg20
S'N'
sg31
g32
sS'.thisTrialN'
p841
I5
sS'.thisN'
p842
I95
sS'.thisIndex'
p843
I1
sg15
(lp844
S'd'
asg30
VF
sg17
S'Y'
sg14
I2
sg19
(lp845
S'space'
p846
asg94
I1
sa(dp847
g16
(lp848
S'k'
asg18
S'Y'
sS'.thisRepN'
p849
I6
sg20
S'Y'
sg31
g32
sS'.thisTrialN'
p850
I6
sS'.thisN'
p851
I96
sS'.thisIndex'
p852
I8
sg15
(lp853
S'k'
asg30
VF
sg17
S'Y'
sg14
I2
sg19
(lp854
S'space'
p855
asg94
I8
sa(dp856
g16
(lp857
S'k'
asg18
S'N'
sS'.thisRepN'
p858
I6
sg20
S'Y'
sg31
g32
sS'.thisTrialN'
p859
I7
sS'.thisN'
p860
I97
sS'.thisIndex'
p861
I11
sg15
(lp862
S'k'
asg30
VF
sg17
S'Y'
sg14
I2
sg19
Nsg94
I11
sa(dp863
g16
(lp864
S'k'
asg18
S'Y'
sS'.thisRepN'
p865
I6
sg20
S'Y'
sg31
g32
sS'.thisTrialN'
p866
I8
sS'.thisN'
p867
I98
sS'.thisIndex'
p868
I10
sg15
(lp869
S'k'
asg30
VF
sg17
S'Y'
sg14
I2
sg19
(lp870
S'space'
p871
asg94
I10
sa(dp872
g16
(lp873
S'd'
asg18
S'Y'
sg22
I30
sS'.thisN'
p874
I99
sg20
S'Y'
sg31
g32
sS'.thisTrialN'
p875
I9
sS'.thisRepN'
p876
I6
sg21
I40
sS'.thisIndex'
p877
I2
sg23
I24
sg15
(lp878
S'd'
asg30
VF
sg17
S'Y'
sg14
I2
sg19
(lp879
S'space'
p880
asg94
I2
sa(dp881
g16
(lp882
S'd'
asg94
I13
sS'.thisRepN'
p883
I6
sg30
VF
sg31
g32
sS'.thisTrialN'
p884
I10
sS'.thisN'
p885
I100
sS'.thisIndex'
p886
I13
sg15
(lp887
S'd'
asg17
S'Y'
sg14
I3
sa(dp888
g16
(lp889
S'k'
asg94
I14
sS'.thisRepN'
p890
I6
sg30
VF
sg31
g32
sS'.thisTrialN'
p891
I11
sS'.thisN'
p892
I101
sS'.thisIndex'
p893
I14
sg15
(lp894
S'd'
asg17
S'N'
sg14
I3
sa(dp895
g16
(lp896
S'k'
asg18
S'N'
sS'.thisRepN'
p897
I6
sg20
S'Y'
sg31
g32
sS'.thisTrialN'
p898
I12
sS'.thisN'
p899
I102
sS'.thisIndex'
p900
I12
sg15
(lp901
S'k'
asg30
VF
sg17
S'Y'
sg14
I3
sg19
Nsg94
I12
sa(dp902
g16
(lp903
S'k'
asg18
S'N'
sS'.thisRepN'
p904
I6
sg20
S'Y'
sg31
g32
sS'.thisTrialN'
p905
I13
sS'.thisN'
p906
I103
sS'.thisIndex'
p907
I8
sg15
(lp908
S'k'
asg30
VF
sg17
S'Y'
sg14
I3
sg19
Nsg94
I8
sa(dp909
g16
(lp910
S'k'
asg18
S'Y'
sS'.thisRepN'
p911
I6
sg20
S'Y'
sg31
g32
sS'.thisTrialN'
p912
I14
sS'.thisN'
p913
I104
sS'.thisIndex'
p914
I9
sg15
(lp915
S'k'
asg30
VF
sg17
S'Y'
sg14
I3
sg19
(lp916
S'space'
p917
asg94
I9
sa(dp918
g16
(lp919
S'd'
asg18
S'N'
sS'.thisRepN'
p920
I7
sg20
S'Y'
sg31
g32
sS'.thisTrialN'
p921
I0
sS'.thisN'
p922
I105
sS'.thisIndex'
p923
I11
sg15
(lp924
S'd'
asg30
VF
sg17
S'Y'
sg14
I3
sg19
Nsg94
I11
sa(dp925
g16
(lp926
S'k'
asg18
S'N'
sS'.thisRepN'
p927
I7
sg20
S'N'
sg31
g32
sS'.thisTrialN'
p928
I1
sS'.thisN'
p929
I106
sS'.thisIndex'
p930
I0
sg15
(lp931
S'k'
asg30
VF
sg17
S'Y'
sg14
I3
sg19
(lp932
S'k'
asg94
I0
sa(dp933
g16
(lp934
S'd'
asg18
S'N'
sS'.thisRepN'
p935
I7
sg20
S'Y'
sg31
g32
sS'.thisTrialN'
p936
I2
sS'.thisN'
p937
I107
sS'.thisIndex'
p938
I2
sg15
(lp939
S'k'
asg30
VF
sg17
S'N'
sg14
I3
sg19
Nsg94
I2
sa(dp940
g16
(lp941
S'd'
asg18
S'Y'
sS'.thisRepN'
p942
I7
sg20
S'Y'
sg31
g32
sS'.thisTrialN'
p943
I3
sS'.thisN'
p944
I108
sS'.thisIndex'
p945
I6
sg15
(lp946
S'd'
asg30
VF
sg17
S'Y'
sg14
I3
sg19
(lp947
S'space'
p948
asg94
I6
sa(dp949
g16
(lp950
S'k'
asg18
S'N'
sS'.thisRepN'
p951
I7
sg20
S'Y'
sg31
g32
sS'.thisTrialN'
p952
I4
sS'.thisN'
p953
I109
sS'.thisIndex'
p954
I2
sg15
(lp955
S'k'
asg30
VF
sg17
S'Y'
sg14
I3
sg19
Nsg94
I2
sa(dp956
g16
(lp957
S'd'
asg18
S'Y'
sS'.thisRepN'
p958
I7
sg20
S'Y'
sg31
g32
sS'.thisTrialN'
p959
I5
sS'.thisN'
p960
I110
sS'.thisIndex'
p961
I3
sg15
(lp962
S'd'
asg30
VF
sg17
S'Y'
sg14
I3
sg19
(lp963
S'space'
p964
asg94
I3
sa(dp965
g16
(lp966
S'd'
asg18
S'N'
sS'.thisRepN'
p967
I7
sg20
S'Y'
sg31
g32
sS'.thisTrialN'
p968
I6
sS'.thisN'
p969
I111
sS'.thisIndex'
p970
I12
sg15
(lp971
S'k'
asg30
VF
sg17
S'N'
sg14
I3
sg19
Nsg94
I12
sa(dp972
g16
(lp973
S'k'
asg18
S'N'
sS'.thisRepN'
p974
I7
sg20
S'Y'
sg31
g32
sS'.thisTrialN'
p975
I7
sS'.thisN'
p976
I112
sS'.thisIndex'
p977
I9
sg15
(lp978
S'k'
asg30
VF
sg17
S'Y'
sg14
I3
sg19
Nsg94
I9
sa(dp979
g16
(lp980
S'k'
asg18
S'Y'
sS'.thisRepN'
p981
I7
sg20
S'Y'
sg31
g32
sS'.thisTrialN'
p982
I8
sS'.thisN'
p983
I113
sS'.thisIndex'
p984
I0
sg15
(lp985
S'k'
asg30
VF
sg17
S'Y'
sg14
I3
sg19
(lp986
S'space'
p987
asg94
I0
sa(dp988
g16
(lp989
S'k'
asg18
S'N'
sS'.thisRepN'
p990
I7
sg20
S'Y'
sg31
g32
sS'.thisTrialN'
p991
I9
sS'.thisN'
p992
I114
sS'.thisIndex'
p993
I2
sg15
(lp994
S'k'
asg30
VF
sg17
S'Y'
sg14
I3
sg19
Nsg94
I2
sa(dp995
g16
(lp996
S'k'
asg18
S'N'
sS'.thisRepN'
p997
I7
sg20
S'N'
sg31
g32
sS'.thisTrialN'
p998
I10
sS'.thisN'
p999
I115
sS'.thisIndex'
p1000
I4
sg15
(lp1001
S'k'
asg30
VF
sg17
S'Y'
sg14
I3
sg19
(lp1002
S'space'
p1003
asg94
I4
sa(dp1004
g16
(lp1005
S'd'
asg18
S'N'
sS'.thisRepN'
p1006
I7
sg20
S'Y'
sg31
g32
sS'.thisTrialN'
p1007
I11
sS'.thisN'
p1008
I116
sS'.thisIndex'
p1009
I1
sg15
(lp1010
S'd'
asg30
VF
sg17
S'Y'
sg14
I3
sg19
Nsg94
I1
sa(dp1011
g16
(lp1012
S'd'
asg18
S'Y'
sS'.thisRepN'
p1013
I7
sg20
S'N'
sg31
g32
sS'.thisTrialN'
p1014
I12
sS'.thisN'
p1015
I117
sS'.thisIndex'
p1016
I4
sg15
(lp1017
S'k'
asg30
VF
sg17
S'N'
sg14
I3
sg19
(lp1018
S'k'
asg94
I4
sa(dp1019
g16
(lp1020
S'd'
asg18
S'N'
sS'.thisRepN'
p1021
I7
sg20
S'Y'
sg31
g32
sS'.thisTrialN'
p1022
I13
sS'.thisN'
p1023
I118
sS'.thisIndex'
p1024
I14
sg15
(lp1025
S'd'
asg30
VF
sg17
S'Y'
sg14
I3
sg19
Nsg94
I14
sa(dp1026
g16
(lp1027
S'k'
asg18
S'Y'
sS'.thisRepN'
p1028
I7
sg20
S'Y'
sg31
g32
sS'.thisTrialN'
p1029
I14
sS'.thisN'
p1030
I119
sS'.thisIndex'
p1031
I2
sg15
(lp1032
S'k'
asg30
VF
sg17
S'Y'
sg14
I3
sg19
(lp1033
S'space'
p1034
asg94
I2
sa(dp1035
g16
(lp1036
S'k'
asg18
S'Y'
sS'.thisRepN'
p1037
I8
sg20
S'Y'
sg31
g32
sS'.thisTrialN'
p1038
I0
sS'.thisN'
p1039
I120
sS'.thisIndex'
p1040
I4
sg15
(lp1041
S'k'
asg30
VF
sg17
S'Y'
sg14
I3
sg19
(lp1042
S'space'
p1043
asg94
I4
sa(dp1044
g16
(lp1045
S'd'
asg18
S'N'
sS'.thisRepN'
p1046
I8
sg20
S'Y'
sg31
g32
sS'.thisTrialN'
p1047
I1
sS'.thisN'
p1048
I121
sS'.thisIndex'
p1049
I1
sg15
(lp1050
S'd'
asg30
VF
sg17
S'Y'
sg14
I3
sg19
Nsg94
I1
sa(dp1051
g16
(lp1052
S'k'
asg18
S'Y'
sS'.thisRepN'
p1053
I8
sg20
S'N'
sg31
g32
sS'.thisTrialN'
p1054
I2
sS'.thisN'
p1055
I122
sS'.thisIndex'
p1056
I8
sg15
(lp1057
S'k'
asg30
VF
sg17
S'Y'
sg14
I3
sg19
Nsg94
I8
sa(dp1058
g16
(lp1059
S'd'
asg18
S'N'
sS'.thisRepN'
p1060
I8
sg20
S'Y'
sg31
g32
sS'.thisTrialN'
p1061
I3
sS'.thisN'
p1062
I123
sS'.thisIndex'
p1063
I0
sg15
(lp1064
S'd'
asg30
VF
sg17
S'Y'
sg14
I3
sg19
Nsg94
I0
sa(dp1065
g16
(lp1066
S'd'
asg18
S'N'
sS'.thisRepN'
p1067
I8
sg20
S'Y'
sg31
g32
sS'.thisTrialN'
p1068
I4
sS'.thisN'
p1069
I124
sS'.thisIndex'
p1070
I9
sg15
(lp1071
S'd'
asg30
VF
sg17
S'Y'
sg14
I3
sg19
Nsg94
I9
sa(dp1072
g16
(lp1073
S'k'
asg18
S'Y'
sS'.thisRepN'
p1074
I8
sg20
S'N'
sg31
g32
sS'.thisTrialN'
p1075
I5
sS'.thisN'
p1076
I125
sS'.thisIndex'
p1077
I0
sg15
(lp1078
S'k'
asg30
VF
sg17
S'Y'
sg14
I3
sg19
Nsg94
I0
sa(dp1079
g16
(lp1080
S'k'
asg18
S'N'
sS'.thisRepN'
p1081
I8
sg20
S'Y'
sg31
g32
sS'.thisTrialN'
p1082
I6
sS'.thisN'
p1083
I126
sS'.thisIndex'
p1084
I10
sg15
(lp1085
S'k'
asg30
VF
sg17
S'Y'
sg14
I3
sg19
Nsg94
I10
sa(dp1086
g16
(lp1087
S'd'
asg18
S'N'
sS'.thisRepN'
p1088
I8
sg20
S'Y'
sg31
g32
sS'.thisTrialN'
p1089
I7
sS'.thisN'
p1090
I127
sS'.thisIndex'
p1091
I0
sg15
(lp1092
S'd'
asg30
VF
sg17
S'Y'
sg14
I3
sg19
Nsg94
I0
sa(dp1093
g16
(lp1094
S'd'
asg18
S'N'
sS'.thisRepN'
p1095
I8
sg20
S'Y'
sg31
g32
sS'.thisTrialN'
p1096
I8
sS'.thisN'
p1097
I128
sS'.thisIndex'
p1098
I11
sg15
(lp1099
S'k'
asg30
VF
sg17
S'N'
sg14
I3
sg19
Nsg94
I11
sa(dp1100
g16
(lp1101
S'd'
asg18
S'N'
sS'.thisRepN'
p1102
I8
sg20
S'Y'
sg31
g32
sS'.thisTrialN'
p1103
I9
sS'.thisN'
p1104
I129
sS'.thisIndex'
p1105
I14
sg15
(lp1106
S'd'
asg30
VF
sg17
S'Y'
sg14
I3
sg19
Nsg94
I14
sa(dp1107
g16
(lp1108
S'd'
asg18
S'Y'
sS'.thisRepN'
p1109
I8
sg20
S'N'
sg31
g32
sS'.thisTrialN'
p1110
I10
sS'.thisN'
p1111
I130
sS'.thisIndex'
p1112
I7
sg15
(lp1113
S'd'
asg30
VF
sg17
S'Y'
sg14
I3
sg19
Nsg94
I7
sa(dp1114
g16
(lp1115
S'k'
asg18
S'N'
sS'.thisRepN'
p1116
I8
sg20
S'Y'
sg31
g32
sS'.thisTrialN'
p1117
I11
sS'.thisN'
p1118
I131
sS'.thisIndex'
p1119
I2
sg15
(lp1120
S'k'
asg30
VF
sg17
S'Y'
sg14
I3
sg19
Nsg94
I2
sa(dp1121
g16
(lp1122
S'k'
asg18
S'Y'
sS'.thisRepN'
p1123
I8
sg20
S'N'
sg31
g32
sS'.thisTrialN'
p1124
I12
sS'.thisN'
p1125
I132
sS'.thisIndex'
p1126
I1
sg15
(lp1127
S'k'
asg30
VF
sg17
S'Y'
sg14
I3
sg19
Nsg94
I1
sa(dp1128
g16
(lp1129
S'k'
asg18
S'Y'
sS'.thisRepN'
p1130
I8
sg20
S'Y'
sg31
g32
sS'.thisTrialN'
p1131
I13
sS'.thisN'
p1132
I133
sS'.thisIndex'
p1133
I4
sg15
(lp1134
S'k'
asg30
VF
sg17
S'Y'
sg14
I3
sg19
(lp1135
S'space'
p1136
asg94
I4
sa(dp1137
g16
(lp1138
S'k'
asg18
S'N'
sS'.thisRepN'
p1139
I8
sg20
S'Y'
sg31
g32
sS'.thisTrialN'
p1140
I14
sS'.thisN'
p1141
I134
sS'.thisIndex'
p1142
I9
sg15
(lp1143
S'k'
asg30
VF
sg17
S'Y'
sg14
I3
sg19
Nsg94
I9
sa(dp1144
g16
(lp1145
S'k'
asg18
S'N'
sS'.thisRepN'
p1146
I9
sg20
S'Y'
sg31
g32
sS'.thisTrialN'
p1147
I0
sS'.thisN'
p1148
I135
sS'.thisIndex'
p1149
I6
sg15
(lp1150
S'k'
asg30
VF
sg17
S'Y'
sg14
I3
sg19
Nsg94
I6
sa(dp1151
g16
(lp1152
S'k'
asg18
S'Y'
sS'.thisRepN'
p1153
I9
sg20
S'Y'
sg31
g32
sS'.thisTrialN'
p1154
I1
sS'.thisN'
p1155
I136
sS'.thisIndex'
p1156
I8
sg15
(lp1157
S'k'
asg30
VF
sg17
S'Y'
sg14
I3
sg19
(lp1158
S'space'
p1159
asg94
I8
sa(dp1160
g16
(lp1161
S'k'
asg18
S'N'
sS'.thisRepN'
p1162
I9
sg20
S'Y'
sg31
g32
sS'.thisTrialN'
p1163
I2
sS'.thisN'
p1164
I137
sS'.thisIndex'
p1165
I5
sg15
(lp1166
S'k'
asg30
VF
sg17
S'Y'
sg14
I3
sg19
Nsg94
I5
sa(dp1167
g16
(lp1168
S'd'
asg18
S'Y'
sS'.thisRepN'
p1169
I9
sg20
S'Y'
sg31
g32
sS'.thisTrialN'
p1170
I3
sS'.thisN'
p1171
I138
sS'.thisIndex'
p1172
I14
sg15
(lp1173
S'd'
asg30
VF
sg17
S'Y'
sg14
I3
sg19
(lp1174
S'space'
p1175
asg94
I14
sa(dp1176
g16
(lp1177
S'd'
asg18
S'N'
sS'.thisRepN'
p1178
I9
sg20
S'Y'
sg31
g32
sS'.thisTrialN'
p1179
I4
sS'.thisN'
p1180
I139
sS'.thisIndex'
p1181
I2
sg15
(lp1182
S'd'
asg30
VF
sg17
S'Y'
sg14
I3
sg19
Nsg94
I2
sa(dp1183
g16
(lp1184
S'd'
asg18
S'N'
sS'.thisRepN'
p1185
I9
sg20
S'Y'
sg31
g32
sS'.thisTrialN'
p1186
I5
sS'.thisN'
p1187
I140
sS'.thisIndex'
p1188
I14
sg15
(lp1189
S'd'
asg30
VF
sg17
S'Y'
sg14
I3
sg19
Nsg94
I14
sa(dp1190
g16
(lp1191
S'k'
asg18
S'Y'
sS'.thisRepN'
p1192
I9
sg20
S'Y'
sg31
g32
sS'.thisTrialN'
p1193
I6
sS'.thisN'
p1194
I141
sS'.thisIndex'
p1195
I10
sg15
(lp1196
S'k'
asg30
VF
sg17
S'Y'
sg14
I3
sg19
(lp1197
S'space'
p1198
asg94
I10
sa(dp1199
g16
(lp1200
S'k'
asg18
S'Y'
sS'.thisRepN'
p1201
I9
sg20
S'Y'
sg31
g32
sS'.thisTrialN'
p1202
I7
sS'.thisN'
p1203
I142
sS'.thisIndex'
p1204
I12
sg15
(lp1205
S'k'
asg30
VF
sg17
S'Y'
sg14
I3
sg19
(lp1206
S'space'
p1207
asg94
I12
sa(dp1208
g16
(lp1209
S'd'
asg18
S'Y'
sS'.thisRepN'
p1210
I9
sg20
S'Y'
sg31
g32
sS'.thisTrialN'
p1211
I8
sS'.thisN'
p1212
I143
sS'.thisIndex'
p1213
I7
sg15
(lp1214
S'd'
asg30
VF
sg17
S'Y'
sg14
I3
sg19
(lp1215
S'space'
p1216
asg94
I7
sa(dp1217
g16
(lp1218
S'd'
asg18
S'N'
sS'.thisRepN'
p1219
I9
sg20
S'Y'
sg31
g32
sS'.thisTrialN'
p1220
I9
sS'.thisN'
p1221
I144
sS'.thisIndex'
p1222
I5
sg15
(lp1223
S'd'
asg30
VF
sg17
S'Y'
sg14
I3
sg19
Nsg94
I5
sa(dp1224
g16
(lp1225
S'k'
asg18
S'N'
sS'.thisRepN'
p1226
I9
sg20
S'Y'
sg31
g32
sS'.thisTrialN'
p1227
I10
sS'.thisN'
p1228
I145
sS'.thisIndex'
p1229
I2
sg15
(lp1230
S'k'
asg30
VF
sg17
S'Y'
sg14
I3
sg19
Nsg94
I2
sa(dp1231
g16
(lp1232
S'd'
asg18
S'Y'
sS'.thisRepN'
p1233
I9
sg20
S'Y'
sg31
g32
sS'.thisTrialN'
p1234
I11
sS'.thisN'
p1235
I146
sS'.thisIndex'
p1236
I6
sg15
(lp1237
S'd'
asg30
VF
sg17
S'Y'
sg14
I3
sg19
(lp1238
S'space'
p1239
asg94
I6
sa(dp1240
g16
(lp1241
S'd'
asg18
S'N'
sS'.thisRepN'
p1242
I9
sg20
S'Y'
sg31
g32
sS'.thisTrialN'
p1243
I12
sS'.thisN'
p1244
I147
sS'.thisIndex'
p1245
I10
sg15
(lp1246
S'd'
asg30
VF
sg17
S'Y'
sg14
I3
sg19
Nsg94
I10
sa(dp1247
g16
(lp1248
S'k'
asg18
S'Y'
sS'.thisRepN'
p1249
I9
sg20
S'Y'
sg31
g32
sS'.thisTrialN'
p1250
I13
sS'.thisN'
p1251
I148
sS'.thisIndex'
p1252
I9
sg15
(lp1253
S'k'
asg30
VF
sg17
S'Y'
sg14
I3
sg19
(lp1254
S'space'
p1255
asg94
I9
sa(dp1256
g16
(lp1257
S'd'
asg18
S'Y'
sg22
I40
sS'.thisN'
p1258
I149
sg20
S'N'
sg31
g32
sS'.thisTrialN'
p1259
I14
sS'.thisRepN'
p1260
I9
sg21
I45
sS'.thisIndex'
p1261
I12
sg23
I20
sg15
(lp1262
S'd'
asg30
VF
sg17
S'Y'
sg14
I3
sg19
Nsg94
I12
sa(dp1263
g16
(lp1264
S'd'
asg94
I10
sS'.thisRepN'
p1265
I10
sg30
VF
sg31
g32
sS'.thisTrialN'
p1266
I0
sS'.thisN'
p1267
I150
sS'.thisIndex'
p1268
I10
sg15
(lp1269
S'd'
asg17
S'Y'
sg14
I4
sa(dp1270
g16
(lp1271
S'd'
asg94
I13
sS'.thisRepN'
p1272
I10
sg30
VF
sg31
g32
sS'.thisTrialN'
p1273
I1
sS'.thisN'
p1274
I151
sS'.thisIndex'
p1275
I13
sg15
(lp1276
S'd'
asg17
S'Y'
sg14
I4
sa(dp1277
g16
(lp1278
S'k'
asg18
S'Y'
sS'.thisRepN'
p1279
I10
sg20
S'Y'
sg31
g32
sS'.thisTrialN'
p1280
I2
sS'.thisN'
p1281
I152
sS'.thisIndex'
p1282
I1
sg15
(lp1283
S'k'
asg30
VF
sg17
S'Y'
sg14
I4
sg19
(lp1284
S'space'
p1285
asg94
I1
sa(dp1286
g16
(lp1287
S'd'
asg18
S'Y'
sS'.thisRepN'
p1288
I10
sg20
S'Y'
sg31
g32
sS'.thisTrialN'
p1289
I3
sS'.thisN'
p1290
I153
sS'.thisIndex'
p1291
I1
sg15
(lp1292
S'd'
asg30
VF
sg17
S'Y'
sg14
I4
sg19
(lp1293
S'space'
p1294
asg94
I1
sa(dp1295
g16
(lp1296
S'd'
asg18
S'N'
sS'.thisRepN'
p1297
I10
sg20
S'Y'
sg31
g32
sS'.thisTrialN'
p1298
I4
sS'.thisN'
p1299
I154
sS'.thisIndex'
p1300
I2
sg15
(lp1301
S'k'
asg30
VF
sg17
S'N'
sg14
I4
sg19
Nsg94
I2
sa(dp1302
g16
(lp1303
S'k'
asg18
S'Y'
sS'.thisRepN'
p1304
I10
sg20
S'Y'
sg31
g32
sS'.thisTrialN'
p1305
I5
sS'.thisN'
p1306
I155
sS'.thisIndex'
p1307
I9
sg15
(lp1308
S'k'
asg30
VF
sg17
S'Y'
sg14
I4
sg19
(lp1309
S'space'
p1310
asg94
I9
sa(dp1311
g16
(lp1312
S'd'
asg18
S'Y'
sS'.thisRepN'
p1313
I10
sg20
S'Y'
sg31
g32
sS'.thisTrialN'
p1314
I6
sS'.thisN'
p1315
I156
sS'.thisIndex'
p1316
I0
sg15
(lp1317
S'd'
asg30
VF
sg17
S'Y'
sg14
I4
sg19
(lp1318
S'space'
p1319
asg94
I0
sa(dp1320
g16
(lp1321
S'd'
asg18
S'N'
sS'.thisRepN'
p1322
I10
sg20
S'Y'
sg31
g32
sS'.thisTrialN'
p1323
I7
sS'.thisN'
p1324
I157
sS'.thisIndex'
p1325
I1
sg15
(lp1326
S'd'
asg30
VF
sg17
S'Y'
sg14
I4
sg19
Nsg94
I1
sa(dp1327
g16
(lp1328
S'd'
asg18
S'Y'
sS'.thisRepN'
p1329
I10
sg20
S'Y'
sg31
g32
sS'.thisTrialN'
p1330
I8
sS'.thisN'
p1331
I158
sS'.thisIndex'
p1332
I5
sg15
(lp1333
S'd'
asg30
VF
sg17
S'Y'
sg14
I4
sg19
(lp1334
S'space'
p1335
asg94
I5
sa(dp1336
g16
(lp1337
S'd'
asg18
S'Y'
sS'.thisRepN'
p1338
I10
sg20
S'Y'
sg31
g32
sS'.thisTrialN'
p1339
I9
sS'.thisN'
p1340
I159
sS'.thisIndex'
p1341
I6
sg15
(lp1342
S'd'
asg30
VF
sg17
S'Y'
sg14
I4
sg19
(lp1343
S'space'
p1344
asg94
I6
sa(dp1345
g16
(lp1346
S'd'
asg18
S'N'
sS'.thisRepN'
p1347
I10
sg20
S'Y'
sg31
g32
sS'.thisTrialN'
p1348
I10
sS'.thisN'
p1349
I160
sS'.thisIndex'
p1350
I5
sg15
(lp1351
S'd'
asg30
VF
sg17
S'Y'
sg14
I4
sg19
Nsg94
I5
sa(dp1352
g16
(lp1353
S'k'
asg18
S'Y'
sS'.thisRepN'
p1354
I10
sg20
S'Y'
sg31
g32
sS'.thisTrialN'
p1355
I11
sS'.thisN'
p1356
I161
sS'.thisIndex'
p1357
I14
sg15
(lp1358
S'k'
asg30
VF
sg17
S'Y'
sg14
I4
sg19
(lp1359
S'space'
p1360
asg94
I14
sa(dp1361
g16
(lp1362
S'd'
asg18
S'N'
sS'.thisRepN'
p1363
I10
sg20
S'Y'
sg31
g32
sS'.thisTrialN'
p1364
I12
sS'.thisN'
p1365
I162
sS'.thisIndex'
p1366
I6
sg15
(lp1367
S'd'
asg30
VF
sg17
S'Y'
sg14
I4
sg19
Nsg94
I6
sa(dp1368
g16
(lp1369
S'k'
asg18
S'N'
sS'.thisRepN'
p1370
I10
sg20
S'Y'
sg31
g32
sS'.thisTrialN'
p1371
I13
sS'.thisN'
p1372
I163
sS'.thisIndex'
p1373
I2
sg15
(lp1374
S'k'
asg30
VF
sg17
S'Y'
sg14
I4
sg19
Nsg94
I2
sa(dp1375
g16
(lp1376
S'k'
asg18
S'Y'
sS'.thisRepN'
p1377
I10
sg20
S'Y'
sg31
g32
sS'.thisTrialN'
p1378
I14
sS'.thisN'
p1379
I164
sS'.thisIndex'
p1380
I14
sg15
(lp1381
S'k'
asg30
VF
sg17
S'Y'
sg14
I4
sg19
(lp1382
S'space'
p1383
asg94
I14
sa(dp1384
g16
(lp1385
S'k'
asg18
S'Y'
sS'.thisRepN'
p1386
I11
sg20
S'Y'
sg31
g32
sS'.thisTrialN'
p1387
I0
sS'.thisN'
p1388
I165
sS'.thisIndex'
p1389
I3
sg15
(lp1390
S'k'
asg30
VF
sg17
S'Y'
sg14
I4
sg19
(lp1391
S'space'
p1392
asg94
I3
sa(dp1393
g16
(lp1394
S'd'
asg18
S'Y'
sS'.thisRepN'
p1395
I11
sg20
S'Y'
sg31
g32
sS'.thisTrialN'
p1396
I1
sS'.thisN'
p1397
I166
sS'.thisIndex'
p1398
I7
sg15
(lp1399
S'd'
asg30
VF
sg17
S'Y'
sg14
I4
sg19
(lp1400
S'space'
p1401
asg94
I7
sa(dp1402
g16
(lp1403
S'k'
asg18
S'Y'
sS'.thisRepN'
p1404
I11
sg20
S'Y'
sg31
g32
sS'.thisTrialN'
p1405
I2
sS'.thisN'
p1406
I167
sS'.thisIndex'
p1407
I4
sg15
(lp1408
S'k'
asg30
VF
sg17
S'Y'
sg14
I4
sg19
(lp1409
S'space'
p1410
asg94
I4
sa(dp1411
g16
(lp1412
S'k'
asg18
S'Y'
sS'.thisRepN'
p1413
I11
sg20
S'Y'
sg31
g32
sS'.thisTrialN'
p1414
I3
sS'.thisN'
p1415
I168
sS'.thisIndex'
p1416
I2
sg15
(lp1417
S'k'
asg30
VF
sg17
S'Y'
sg14
I4
sg19
(lp1418
S'space'
p1419
asg94
I2
sa(dp1420
g16
(lp1421
S'd'
asg18
S'Y'
sS'.thisRepN'
p1422
I11
sg20
S'Y'
sg31
g32
sS'.thisTrialN'
p1423
I4
sS'.thisN'
p1424
I169
sS'.thisIndex'
p1425
I10
sg15
(lp1426
S'd'
asg30
VF
sg17
S'Y'
sg14
I4
sg19
(lp1427
S'space'
p1428
asg94
I10
sa(dp1429
g16
(lp1430
S'k'
asg18
S'Y'
sS'.thisRepN'
p1431
I11
sg20
S'Y'
sg31
g32
sS'.thisTrialN'
p1432
I5
sS'.thisN'
p1433
I170
sS'.thisIndex'
p1434
I11
sg15
(lp1435
S'k'
asg30
VF
sg17
S'Y'
sg14
I4
sg19
(lp1436
S'space'
p1437
asg94
I11
sa(dp1438
g16
(lp1439
S'k'
asg18
S'Y'
sS'.thisRepN'
p1440
I11
sg20
S'Y'
sg31
g32
sS'.thisTrialN'
p1441
I6
sS'.thisN'
p1442
I171
sS'.thisIndex'
p1443
I12
sg15
(lp1444
S'k'
asg30
VF
sg17
S'Y'
sg14
I4
sg19
(lp1445
S'space'
p1446
asg94
I12
sa(dp1447
g16
(lp1448
S'k'
asg18
S'N'
sS'.thisRepN'
p1449
I11
sg20
S'Y'
sg31
g32
sS'.thisTrialN'
p1450
I7
sS'.thisN'
p1451
I172
sS'.thisIndex'
p1452
I12
sg15
(lp1453
S'd'
asg30
VF
sg17
S'N'
sg14
I4
sg19
Nsg94
I12
sa(dp1454
g16
(lp1455
S'd'
asg18
S'N'
sS'.thisRepN'
p1456
I11
sg20
S'N'
sg31
g32
sS'.thisTrialN'
p1457
I8
sS'.thisN'
p1458
I173
sS'.thisIndex'
p1459
I1
sg15
(lp1460
S'k'
asg30
VF
sg17
S'N'
sg14
I4
sg19
(lp1461
S'space'
p1462
asg94
I1
sa(dp1463
g16
(lp1464
S'k'
asg18
S'N'
sS'.thisRepN'
p1465
I11
sg20
S'Y'
sg31
g32
sS'.thisTrialN'
p1466
I9
sS'.thisN'
p1467
I174
sS'.thisIndex'
p1468
I10
sg15
(lp1469
S'k'
asg30
VF
sg17
S'Y'
sg14
I4
sg19
Nsg94
I10
sa(dp1470
g16
(lp1471
S'k'
asg18
S'Y'
sS'.thisRepN'
p1472
I11
sg20
S'Y'
sg31
g32
sS'.thisTrialN'
p1473
I10
sS'.thisN'
p1474
I175
sS'.thisIndex'
p1475
I4
sg15
(lp1476
S'k'
asg30
VF
sg17
S'Y'
sg14
I4
sg19
(lp1477
S'space'
p1478
asg94
I4
sa(dp1479
g16
(lp1480
S'k'
asg18
S'N'
sS'.thisRepN'
p1481
I11
sg20
S'Y'
sg31
g32
sS'.thisTrialN'
p1482
I11
sS'.thisN'
p1483
I176
sS'.thisIndex'
p1484
I6
sg15
(lp1485
S'k'
asg30
VF
sg17
S'Y'
sg14
I4
sg19
Nsg94
I6
sa(dp1486
g16
(lp1487
S'k'
asg18
S'Y'
sS'.thisRepN'
p1488
I11
sg20
S'N'
sg31
g32
sS'.thisTrialN'
p1489
I12
sS'.thisN'
p1490
I177
sS'.thisIndex'
p1491
I3
sg15
(lp1492
S'k'
asg30
VF
sg17
S'Y'
sg14
I4
sg19
Nsg94
I3
sa(dp1493
g16
(lp1494
S'k'
asg18
S'Y'
sS'.thisRepN'
p1495
I11
sg20
S'Y'
sg31
g32
sS'.thisTrialN'
p1496
I13
sS'.thisN'
p1497
I178
sS'.thisIndex'
p1498
I11
sg15
(lp1499
S'k'
asg30
VF
sg17
S'Y'
sg14
I4
sg19
(lp1500
S'space'
p1501
asg94
I11
sa(dp1502
g16
(lp1503
S'k'
asg18
S'Y'
sS'.thisRepN'
p1504
I11
sg20
S'Y'
sg31
g32
sS'.thisTrialN'
p1505
I14
sS'.thisN'
p1506
I179
sS'.thisIndex'
p1507
I14
sg15
(lp1508
S'k'
asg30
VF
sg17
S'Y'
sg14
I4
sg19
(lp1509
S'space'
p1510
asg94
I14
sa(dp1511
g16
(lp1512
S'd'
asg18
S'N'
sS'.thisRepN'
p1513
I12
sg20
S'Y'
sg31
g32
sS'.thisTrialN'
p1514
I0
sS'.thisN'
p1515
I180
sS'.thisIndex'
p1516
I12
sg15
(lp1517
S'd'
asg30
VF
sg17
S'Y'
sg14
I4
sg19
Nsg94
I12
sa(dp1518
g16
(lp1519
S'k'
asg18
S'N'
sS'.thisRepN'
p1520
I12
sg20
S'Y'
sg31
g32
sS'.thisTrialN'
p1521
I1
sS'.thisN'
p1522
I181
sS'.thisIndex'
p1523
I8
sg15
(lp1524
S'k'
asg30
VF
sg17
S'Y'
sg14
I4
sg19
Nsg94
I8
sa(dp1525
g16
(lp1526
S'd'
asg18
S'N'
sS'.thisRepN'
p1527
I12
sg20
S'Y'
sg31
g32
sS'.thisTrialN'
p1528
I2
sS'.thisN'
p1529
I182
sS'.thisIndex'
p1530
I12
sg15
(lp1531
S'd'
asg30
VF
sg17
S'Y'
sg14
I4
sg19
Nsg94
I12
sa(dp1532
g16
(lp1533
S'k'
asg18
S'N'
sS'.thisRepN'
p1534
I12
sg20
S'Y'
sg31
g32
sS'.thisTrialN'
p1535
I3
sS'.thisN'
p1536
I183
sS'.thisIndex'
p1537
I14
sg15
(lp1538
S'k'
asg30
VF
sg17
S'Y'
sg14
I4
sg19
Nsg94
I14
sa(dp1539
g16
(lp1540
S'k'
asg18
S'Y'
sS'.thisRepN'
p1541
I12
sg20
S'Y'
sg31
g32
sS'.thisTrialN'
p1542
I4
sS'.thisN'
p1543
I184
sS'.thisIndex'
p1544
I13
sg15
(lp1545
S'k'
asg30
VF
sg17
S'Y'
sg14
I4
sg19
(lp1546
S'space'
p1547
asg94
I13
sa(dp1548
g16
(lp1549
S'k'
asg18
S'N'
sS'.thisRepN'
p1550
I12
sg20
S'Y'
sg31
g32
sS'.thisTrialN'
p1551
I5
sS'.thisN'
p1552
I185
sS'.thisIndex'
p1553
I14
sg15
(lp1554
S'k'
asg30
VF
sg17
S'Y'
sg14
I4
sg19
Nsg94
I14
sa(dp1555
g16
(lp1556
S'd'
asg18
S'N'
sS'.thisRepN'
p1557
I12
sg20
S'Y'
sg31
g32
sS'.thisTrialN'
p1558
I6
sS'.thisN'
p1559
I186
sS'.thisIndex'
p1560
I4
sg15
(lp1561
S'd'
asg30
VF
sg17
S'Y'
sg14
I4
sg19
Nsg94
I4
sa(dp1562
g16
(lp1563
S'k'
asg18
S'N'
sS'.thisRepN'
p1564
I12
sg20
S'Y'
sg31
g32
sS'.thisTrialN'
p1565
I7
sS'.thisN'
p1566
I187
sS'.thisIndex'
p1567
I12
sg15
(lp1568
S'k'
asg30
VF
sg17
S'Y'
sg14
I4
sg19
Nsg94
I12
sa(dp1569
g16
(lp1570
S'd'
asg18
S'Y'
sS'.thisRepN'
p1571
I12
sg20
S'Y'
sg31
g32
sS'.thisTrialN'
p1572
I8
sS'.thisN'
p1573
I188
sS'.thisIndex'
p1574
I0
sg15
(lp1575
S'k'
asg30
VF
sg17
S'N'
sg14
I4
sg19
(lp1576
S'space'
p1577
asg94
I0
sa(dp1578
g16
(lp1579
S'k'
asg18
S'Y'
sS'.thisRepN'
p1580
I12
sg20
S'Y'
sg31
g32
sS'.thisTrialN'
p1581
I9
sS'.thisN'
p1582
I189
sS'.thisIndex'
p1583
I3
sg15
(lp1584
S'k'
asg30
VF
sg17
S'Y'
sg14
I4
sg19
(lp1585
S'space'
p1586
asg94
I3
sa(dp1587
g16
(lp1588
S'd'
asg18
S'Y'
sS'.thisRepN'
p1589
I12
sg20
S'Y'
sg31
g32
sS'.thisTrialN'
p1590
I10
sS'.thisN'
p1591
I190
sS'.thisIndex'
p1592
I2
sg15
(lp1593
S'd'
asg30
VF
sg17
S'Y'
sg14
I4
sg19
(lp1594
S'space'
p1595
asg94
I2
sa(dp1596
g16
(lp1597
S'd'
asg18
S'Y'
sS'.thisRepN'
p1598
I12
sg20
S'Y'
sg31
g32
sS'.thisTrialN'
p1599
I11
sS'.thisN'
p1600
I191
sS'.thisIndex'
p1601
I5
sg15
(lp1602
S'd'
asg30
VF
sg17
S'Y'
sg14
I4
sg19
(lp1603
S'space'
p1604
asg94
I5
sa(dp1605
g16
(lp1606
S'k'
asg18
S'N'
sS'.thisRepN'
p1607
I12
sg20
S'Y'
sg31
g32
sS'.thisTrialN'
p1608
I12
sS'.thisN'
p1609
I192
sS'.thisIndex'
p1610
I3
sg15
(lp1611
S'k'
asg30
VF
sg17
S'Y'
sg14
I4
sg19
Nsg94
I3
sa(dp1612
g16
(lp1613
S'd'
asg18
S'N'
sS'.thisRepN'
p1614
I12
sg20
S'Y'
sg31
g32
sS'.thisTrialN'
p1615
I13
sS'.thisN'
p1616
I193
sS'.thisIndex'
p1617
I2
sg15
(lp1618
S'd'
asg30
VF
sg17
S'Y'
sg14
I4
sg19
Nsg94
I2
sa(dp1619
g16
(lp1620
S'k'
asg18
S'N'
sS'.thisRepN'
p1621
I12
sg20
S'Y'
sg31
g32
sS'.thisTrialN'
p1622
I14
sS'.thisN'
p1623
I194
sS'.thisIndex'
p1624
I12
sg15
(lp1625
S'k'
asg30
VF
sg17
S'Y'
sg14
I4
sg19
Nsg94
I12
sa(dp1626
g16
(lp1627
S'k'
asg18
S'N'
sS'.thisRepN'
p1628
I13
sg20
S'Y'
sg31
g32
sS'.thisTrialN'
p1629
I0
sS'.thisN'
p1630
I195
sS'.thisIndex'
p1631
I8
sg15
(lp1632
S'k'
asg30
VF
sg17
S'Y'
sg14
I4
sg19
Nsg94
I8
sa(dp1633
g16
(lp1634
S'd'
asg18
S'Y'
sS'.thisRepN'
p1635
I13
sg20
S'Y'
sg31
g32
sS'.thisTrialN'
p1636
I1
sS'.thisN'
p1637
I196
sS'.thisIndex'
p1638
I13
sg15
(lp1639
S'd'
asg30
VF
sg17
S'Y'
sg14
I4
sg19
(lp1640
S'space'
p1641
asg94
I13
sa(dp1642
g16
(lp1643
S'k'
asg18
S'N'
sS'.thisRepN'
p1644
I13
sg20
S'Y'
sg31
g32
sS'.thisTrialN'
p1645
I2
sS'.thisN'
p1646
I197
sS'.thisIndex'
p1647
I4
sg15
(lp1648
S'k'
asg30
VF
sg17
S'Y'
sg14
I4
sg19
Nsg94
I4
sa(dp1649
g16
(lp1650
S'd'
asg18
S'N'
sS'.thisRepN'
p1651
I13
sg20
S'Y'
sg31
g32
sS'.thisTrialN'
p1652
I3
sS'.thisN'
p1653
I198
sS'.thisIndex'
p1654
I5
sg15
(lp1655
S'd'
asg30
VF
sg17
S'Y'
sg14
I4
sg19
Nsg94
I5
sa(dp1656
g16
(lp1657
S'd'
asg18
S'N'
sg22
I45
sS'.thisN'
p1658
I199
sg20
S'N'
sg31
g32
sS'.thisTrialN'
p1659
I4
sS'.thisRepN'
p1660
I13
sg21
I46
sS'.thisIndex'
p1661
I13
sg23
I25
sg15
(lp1662
S'd'
asg30
VF
sg17
S'Y'
sg14
I4
sg19
(lp1663
S'space'
p1664
asg94
I13
sa(dp1665
g16
(lp1666
S'd'
asg94
I4
sS'.thisRepN'
p1667
I13
sg30
VF
sg31
g32
sS'.thisTrialN'
p1668
I5
sS'.thisN'
p1669
I200
sS'.thisIndex'
p1670
I4
sg15
(lp1671
S'd'
asg17
S'Y'
sg14
I5
sa(dp1672
g16
(lp1673
S'd'
asg94
I11
sS'.thisRepN'
p1674
I13
sg30
VF
sg31
g32
sS'.thisTrialN'
p1675
I6
sS'.thisN'
p1676
I201
sS'.thisIndex'
p1677
I11
sg15
(lp1678
S'd'
asg17
S'Y'
sg14
I5
sa(dp1679
g16
(lp1680
S'k'
asg18
S'N'
sS'.thisRepN'
p1681
I13
sg20
S'Y'
sg31
g32
sS'.thisTrialN'
p1682
I7
sS'.thisN'
p1683
I202
sS'.thisIndex'
p1684
I7
sg15
(lp1685
S'k'
asg30
VF
sg17
S'Y'
sg14
I5
sg19
Nsg94
I7
sa(dp1686
g16
(lp1687
S'd'
asg18
S'N'
sS'.thisRepN'
p1688
I13
sg20
S'Y'
sg31
g32
sS'.thisTrialN'
p1689
I8
sS'.thisN'
p1690
I203
sS'.thisIndex'
p1691
I6
sg15
(lp1692
S'd'
asg30
VF
sg17
S'Y'
sg14
I5
sg19
Nsg94
I6
sa(dp1693
g16
(lp1694
S'k'
asg18
S'Y'
sS'.thisRepN'
p1695
I13
sg20
S'Y'
sg31
g32
sS'.thisTrialN'
p1696
I9
sS'.thisN'
p1697
I204
sS'.thisIndex'
p1698
I7
sg15
(lp1699
S'k'
asg30
VF
sg17
S'Y'
sg14
I5
sg19
(lp1700
S'space'
p1701
asg94
I7
sa(dp1702
g16
(lp1703
S'k'
asg18
S'Y'
sS'.thisRepN'
p1704
I13
sg20
S'Y'
sg31
g32
sS'.thisTrialN'
p1705
I10
sS'.thisN'
p1706
I205
sS'.thisIndex'
p1707
I9
sg15
(lp1708
S'k'
asg30
VF
sg17
S'Y'
sg14
I5
sg19
(lp1709
S'space'
p1710
asg94
I9
sa(dp1711
g16
(lp1712
S'k'
asg18
S'N'
sS'.thisRepN'
p1713
I13
sg20
S'Y'
sg31
g32
sS'.thisTrialN'
p1714
I11
sS'.thisN'
p1715
I206
sS'.thisIndex'
p1716
I0
sg15
(lp1717
S'k'
asg30
VF
sg17
S'Y'
sg14
I5
sg19
Nsg94
I0
sa(dp1718
g16
(lp1719
S'd'
asg18
S'N'
sS'.thisRepN'
p1720
I13
sg20
S'Y'
sg31
g32
sS'.thisTrialN'
p1721
I12
sS'.thisN'
p1722
I207
sS'.thisIndex'
p1723
I6
sg15
(lp1724
S'd'
asg30
VF
sg17
S'Y'
sg14
I5
sg19
Nsg94
I6
sa(dp1725
g16
(lp1726
S'd'
asg18
S'N'
sS'.thisRepN'
p1727
I13
sg20
S'Y'
sg31
g32
sS'.thisTrialN'
p1728
I13
sS'.thisN'
p1729
I208
sS'.thisIndex'
p1730
I13
sg15
(lp1731
S'd'
asg30
VF
sg17
S'Y'
sg14
I5
sg19
Nsg94
I13
sa(dp1732
g16
(lp1733
S'k'
asg18
S'Y'
sS'.thisRepN'
p1734
I13
sg20
S'Y'
sg31
g32
sS'.thisTrialN'
p1735
I14
sS'.thisN'
p1736
I209
sS'.thisIndex'
p1737
I11
sg15
(lp1738
S'k'
asg30
VF
sg17
S'Y'
sg14
I5
sg19
(lp1739
S'space'
p1740
asg94
I11
sa(dp1741
g16
(lp1742
S'k'
asg18
S'Y'
sS'.thisRepN'
p1743
I14
sg20
S'N'
sg31
g32
sS'.thisTrialN'
p1744
I0
sS'.thisN'
p1745
I210
sS'.thisIndex'
p1746
I0
sg15
(lp1747
S'k'
asg30
VF
sg17
S'Y'
sg14
I5
sg19
Nsg94
I0
sa(dp1748
g16
(lp1749
S'k'
asg18
S'Y'
sS'.thisRepN'
p1750
I14
sg20
S'Y'
sg31
g32
sS'.thisTrialN'
p1751
I1
sS'.thisN'
p1752
I211
sS'.thisIndex'
p1753
I7
sg15
(lp1754
S'k'
asg30
VF
sg17
S'Y'
sg14
I5
sg19
(lp1755
S'space'
p1756
asg94
I7
sa(dp1757
g16
(lp1758
S'd'
asg18
S'Y'
sS'.thisRepN'
p1759
I14
sg20
S'N'
sg31
g32
sS'.thisTrialN'
p1760
I2
sS'.thisN'
p1761
I212
sS'.thisIndex'
p1762
I13
sg15
(lp1763
S'd'
asg30
VF
sg17
S'Y'
sg14
I5
sg19
Nsg94
I13
sa(dp1764
g16
(lp1765
S'd'
asg18
S'Y'
sS'.thisRepN'
p1766
I14
sg20
S'Y'
sg31
g32
sS'.thisTrialN'
p1767
I3
sS'.thisN'
p1768
I213
sS'.thisIndex'
p1769
I9
sg15
(lp1770
S'd'
asg30
VF
sg17
S'Y'
sg14
I5
sg19
(lp1771
S'space'
p1772
asg94
I9
sa(dp1773
g16
(lp1774
S'd'
asg18
S'Y'
sS'.thisRepN'
p1775
I14
sg20
S'Y'
sg31
g32
sS'.thisTrialN'
p1776
I4
sS'.thisN'
p1777
I214
sS'.thisIndex'
p1778
I1
sg15
(lp1779
S'd'
asg30
VF
sg17
S'Y'
sg14
I5
sg19
(lp1780
S'space'
p1781
asg94
I1
sa(dp1782
g16
(lp1783
S'd'
asg18
S'N'
sS'.thisRepN'
p1784
I14
sg20
S'Y'
sg31
g32
sS'.thisTrialN'
p1785
I5
sS'.thisN'
p1786
I215
sS'.thisIndex'
p1787
I0
sg15
(lp1788
S'd'
asg30
VF
sg17
S'Y'
sg14
I5
sg19
Nsg94
I0
sa(dp1789
g16
(lp1790
S'd'
asg18
S'N'
sS'.thisRepN'
p1791
I14
sg20
S'Y'
sg31
g32
sS'.thisTrialN'
p1792
I6
sS'.thisN'
p1793
I216
sS'.thisIndex'
p1794
I6
sg15
(lp1795
S'd'
asg30
VF
sg17
S'Y'
sg14
I5
sg19
Nsg94
I6
sa(dp1796
g16
(lp1797
S'd'
asg18
S'Y'
sS'.thisRepN'
p1798
I14
sg20
S'Y'
sg31
g32
sS'.thisTrialN'
p1799
I7
sS'.thisN'
p1800
I217
sS'.thisIndex'
p1801
I6
sg15
(lp1802
S'd'
asg30
VF
sg17
S'Y'
sg14
I5
sg19
(lp1803
S'space'
p1804
asg94
I6
sa(dp1805
g16
(lp1806
S'd'
asg18
S'N'
sS'.thisRepN'
p1807
I14
sg20
S'Y'
sg31
g32
sS'.thisTrialN'
p1808
I8
sS'.thisN'
p1809
I218
sS'.thisIndex'
p1810
I14
sg15
(lp1811
S'd'
asg30
VF
sg17
S'Y'
sg14
I5
sg19
Nsg94
I14
sa(dp1812
g16
(lp1813
S'd'
asg18
S'Y'
sS'.thisRepN'
p1814
I14
sg20
S'Y'
sg31
g32
sS'.thisTrialN'
p1815
I9
sS'.thisN'
p1816
I219
sS'.thisIndex'
p1817
I12
sg15
(lp1818
S'd'
asg30
VF
sg17
S'Y'
sg14
I5
sg19
(lp1819
S'space'
p1820
asg94
I12
sa(dp1821
g16
(lp1822
S'd'
asg18
S'Y'
sS'.thisRepN'
p1823
I14
sg20
S'N'
sg31
g32
sS'.thisTrialN'
p1824
I10
sS'.thisN'
p1825
I220
sS'.thisIndex'
p1826
I3
sg15
(lp1827
S'd'
asg30
VF
sg17
S'Y'
sg14
I5
sg19
Nsg94
I3
sa(dp1828
g16
(lp1829
S'd'
asg18
S'Y'
sS'.thisRepN'
p1830
I14
sg20
S'Y'
sg31
g32
sS'.thisTrialN'
p1831
I11
sS'.thisN'
p1832
I221
sS'.thisIndex'
p1833
I8
sg15
(lp1834
S'd'
asg30
VF
sg17
S'Y'
sg14
I5
sg19
(lp1835
S'space'
p1836
asg94
I8
sa(dp1837
g16
(lp1838
S'd'
asg18
S'Y'
sS'.thisRepN'
p1839
I14
sg20
S'Y'
sg31
g32
sS'.thisTrialN'
p1840
I12
sS'.thisN'
p1841
I222
sS'.thisIndex'
p1842
I3
sg15
(lp1843
S'd'
asg30
VF
sg17
S'Y'
sg14
I5
sg19
(lp1844
S'space'
p1845
asg94
I3
sa(dp1846
g16
(lp1847
S'k'
asg18
S'Y'
sS'.thisRepN'
p1848
I14
sg20
S'Y'
sg31
g32
sS'.thisTrialN'
p1849
I13
sS'.thisN'
p1850
I223
sS'.thisIndex'
p1851
I3
sg15
(lp1852
S'k'
asg30
VF
sg17
S'Y'
sg14
I5
sg19
(lp1853
S'space'
p1854
asg94
I3
sa(dp1855
g16
(lp1856
S'k'
asg18
S'Y'
sS'.thisRepN'
p1857
I14
sg20
S'Y'
sg31
g32
sS'.thisTrialN'
p1858
I14
sS'.thisN'
p1859
I224
sS'.thisIndex'
p1860
I9
sg15
(lp1861
S'k'
asg30
VF
sg17
S'Y'
sg14
I5
sg19
(lp1862
S'space'
p1863
asg94
I9
sa(dp1864
g16
(lp1865
S'k'
asg18
S'N'
sS'.thisRepN'
p1866
I15
sg20
S'Y'
sg31
g32
sS'.thisTrialN'
p1867
I0
sS'.thisN'
p1868
I225
sS'.thisIndex'
p1869
I2
sg15
(lp1870
S'k'
asg30
VF
sg17
S'Y'
sg14
I5
sg19
Nsg94
I2
sa(dp1871
g16
(lp1872
S'd'
asg18
S'N'
sS'.thisRepN'
p1873
I15
sg20
S'Y'
sg31
g32
sS'.thisTrialN'
p1874
I1
sS'.thisN'
p1875
I226
sS'.thisIndex'
p1876
I5
sg15
(lp1877
S'd'
asg30
VF
sg17
S'Y'
sg14
I5
sg19
Nsg94
I5
sa(dp1878
g16
(lp1879
S'k'
asg18
S'Y'
sS'.thisRepN'
p1880
I15
sg20
S'Y'
sg31
g32
sS'.thisTrialN'
p1881
I2
sS'.thisN'
p1882
I227
sS'.thisIndex'
p1883
I5
sg15
(lp1884
S'k'
asg30
VF
sg17
S'Y'
sg14
I5
sg19
(lp1885
S'space'
p1886
asg94
I5
sa(dp1887
g16
(lp1888
S'd'
asg18
S'Y'
sS'.thisRepN'
p1889
I15
sg20
S'Y'
sg31
g32
sS'.thisTrialN'
p1890
I3
sS'.thisN'
p1891
I228
sS'.thisIndex'
p1892
I10
sg15
(lp1893
S'k'
asg30
VF
sg17
S'N'
sg14
I5
sg19
(lp1894
S'space'
p1895
asg94
I10
sa(dp1896
g16
(lp1897
S'k'
asg18
S'Y'
sS'.thisRepN'
p1898
I15
sg20
S'Y'
sg31
g32
sS'.thisTrialN'
p1899
I4
sS'.thisN'
p1900
I229
sS'.thisIndex'
p1901
I3
sg15
(lp1902
S'k'
asg30
VF
sg17
S'Y'
sg14
I5
sg19
(lp1903
S'space'
p1904
asg94
I3
sa(dp1905
g16
(lp1906
S'd'
asg18
S'Y'
sS'.thisRepN'
p1907
I15
sg20
S'Y'
sg31
g32
sS'.thisTrialN'
p1908
I5
sS'.thisN'
p1909
I230
sS'.thisIndex'
p1910
I10
sg15
(lp1911
S'd'
asg30
VF
sg17
S'Y'
sg14
I5
sg19
(lp1912
S'space'
p1913
asg94
I10
sa(dp1914
g16
(lp1915
S'd'
asg18
S'N'
sS'.thisRepN'
p1916
I15
sg20
S'Y'
sg31
g32
sS'.thisTrialN'
p1917
I6
sS'.thisN'
p1918
I231
sS'.thisIndex'
p1919
I3
sg15
(lp1920
S'd'
asg30
VF
sg17
S'Y'
sg14
I5
sg19
Nsg94
I3
sa(dp1921
g16
(lp1922
S'd'
asg18
S'Y'
sS'.thisRepN'
p1923
I15
sg20
S'Y'
sg31
g32
sS'.thisTrialN'
p1924
I7
sS'.thisN'
p1925
I232
sS'.thisIndex'
p1926
I7
sg15
(lp1927
S'd'
asg30
VF
sg17
S'Y'
sg14
I5
sg19
(lp1928
S'space'
p1929
asg94
I7
sa(dp1930
g16
(lp1931
S'k'
asg18
S'Y'
sS'.thisRepN'
p1932
I15
sg20
S'Y'
sg31
g32
sS'.thisTrialN'
p1933
I8
sS'.thisN'
p1934
I233
sS'.thisIndex'
p1935
I3
sg15
(lp1936
S'k'
asg30
VF
sg17
S'Y'
sg14
I5
sg19
(lp1937
S'space'
p1938
asg94
I3
sa(dp1939
g16
(lp1940
S'd'
asg18
S'N'
sS'.thisRepN'
p1941
I15
sg20
S'Y'
sg31
g32
sS'.thisTrialN'
p1942
I9
sS'.thisN'
p1943
I234
sS'.thisIndex'
p1944
I3
sg15
(lp1945
S'd'
asg30
VF
sg17
S'Y'
sg14
I5
sg19
Nsg94
I3
sa(dp1946
g16
(lp1947
S'd'
asg18
S'N'
sS'.thisRepN'
p1948
I15
sg20
S'Y'
sg31
g32
sS'.thisTrialN'
p1949
I10
sS'.thisN'
p1950
I235
sS'.thisIndex'
p1951
I5
sg15
(lp1952
S'd'
asg30
VF
sg17
S'Y'
sg14
I5
sg19
Nsg94
I5
sa(dp1953
g16
(lp1954
S'd'
asg18
S'N'
sS'.thisRepN'
p1955
I15
sg20
S'Y'
sg31
g32
sS'.thisTrialN'
p1956
I11
sS'.thisN'
p1957
I236
sS'.thisIndex'
p1958
I2
sg15
(lp1959
S'd'
asg30
VF
sg17
S'Y'
sg14
I5
sg19
Nsg94
I2
sa(dp1960
g16
(lp1961
S'k'
asg18
S'N'
sS'.thisRepN'
p1962
I15
sg20
S'Y'
sg31
g32
sS'.thisTrialN'
p1963
I12
sS'.thisN'
p1964
I237
sS'.thisIndex'
p1965
I8
sg15
(lp1966
S'k'
asg30
VF
sg17
S'Y'
sg14
I5
sg19
Nsg94
I8
sa(dp1967
g16
(lp1968
S'k'
asg18
S'N'
sS'.thisRepN'
p1969
I15
sg20
S'Y'
sg31
g32
sS'.thisTrialN'
p1970
I13
sS'.thisN'
p1971
I238
sS'.thisIndex'
p1972
I12
sg15
(lp1973
S'k'
asg30
VF
sg17
S'Y'
sg14
I5
sg19
Nsg94
I12
sa(dp1974
g16
(lp1975
S'd'
asg18
S'Y'
sS'.thisRepN'
p1976
I15
sg20
S'Y'
sg31
g32
sS'.thisTrialN'
p1977
I14
sS'.thisN'
p1978
I239
sS'.thisIndex'
p1979
I13
sg15
(lp1980
S'd'
asg30
VF
sg17
S'Y'
sg14
I5
sg19
(lp1981
S'space'
p1982
asg94
I13
sa(dp1983
g16
(lp1984
S'k'
asg18
S'N'
sS'.thisRepN'
p1985
I16
sg20
S'N'
sg31
g32
sS'.thisTrialN'
p1986
I0
sS'.thisN'
p1987
I240
sS'.thisIndex'
p1988
I5
sg15
(lp1989
S'k'
asg30
VF
sg17
S'Y'
sg14
I5
sg19
(lp1990
S'space'
p1991
asg94
I5
sa(dp1992
g16
(lp1993
S'k'
asg18
S'N'
sS'.thisRepN'
p1994
I16
sg20
S'Y'
sg31
g32
sS'.thisTrialN'
p1995
I1
sS'.thisN'
p1996
I241
sS'.thisIndex'
p1997
I6
sg15
(lp1998
S'k'
asg30
VF
sg17
S'Y'
sg14
I5
sg19
Nsg94
I6
sa(dp1999
g16
(lp2000
S'd'
asg18
S'N'
sS'.thisRepN'
p2001
I16
sg20
S'Y'
sg31
g32
sS'.thisTrialN'
p2002
I2
sS'.thisN'
p2003
I242
sS'.thisIndex'
p2004
I0
sg15
(lp2005
S'd'
asg30
VF
sg17
S'Y'
sg14
I5
sg19
Nsg94
I0
sa(dp2006
g16
(lp2007
S'd'
asg18
S'Y'
sS'.thisRepN'
p2008
I16
sg20
S'Y'
sg31
g32
sS'.thisTrialN'
p2009
I3
sS'.thisN'
p2010
I243
sS'.thisIndex'
p2011
I8
sg15
(lp2012
S'd'
asg30
VF
sg17
S'Y'
sg14
I5
sg19
(lp2013
S'space'
p2014
asg94
I8
sa(dp2015
g16
(lp2016
S'k'
asg18
S'N'
sS'.thisRepN'
p2017
I16
sg20
S'Y'
sg31
g32
sS'.thisTrialN'
p2018
I4
sS'.thisN'
p2019
I244
sS'.thisIndex'
p2020
I3
sg15
(lp2021
S'k'
asg30
VF
sg17
S'Y'
sg14
I5
sg19
Nsg94
I3
sa(dp2022
g16
(lp2023
S'k'
asg18
S'N'
sS'.thisRepN'
p2024
I16
sg20
S'Y'
sg31
g32
sS'.thisTrialN'
p2025
I5
sS'.thisN'
p2026
I245
sS'.thisIndex'
p2027
I6
sg15
(lp2028
S'k'
asg30
VF
sg17
S'Y'
sg14
I5
sg19
Nsg94
I6
sa(dp2029
g16
(lp2030
S'k'
asg18
S'N'
sS'.thisRepN'
p2031
I16
sg20
S'Y'
sg31
g32
sS'.thisTrialN'
p2032
I6
sS'.thisN'
p2033
I246
sS'.thisIndex'
p2034
I0
sg15
(lp2035
S'k'
asg30
VF
sg17
S'Y'
sg14
I5
sg19
Nsg94
I0
sa(dp2036
g16
(lp2037
S'd'
asg18
S'N'
sS'.thisRepN'
p2038
I16
sg20
S'Y'
sg31
g32
sS'.thisTrialN'
p2039
I7
sS'.thisN'
p2040
I247
sS'.thisIndex'
p2041
I1
sg15
(lp2042
S'd'
asg30
VF
sg17
S'Y'
sg14
I5
sg19
Nsg94
I1
sa(dp2043
g16
(lp2044
S'k'
asg18
S'N'
sS'.thisRepN'
p2045
I16
sg20
S'Y'
sg31
g32
sS'.thisTrialN'
p2046
I8
sS'.thisN'
p2047
I248
sS'.thisIndex'
p2048
I9
sg15
(lp2049
S'k'
asg30
VF
sg17
S'Y'
sg14
I5
sg19
Nsg94
I9
sa(dp2050
g16
(lp2051
S'd'
asg18
S'Y'
sg22
I44
sS'.thisN'
p2052
I249
sg20
S'Y'
sg31
g32
sS'.thisTrialN'
p2053
I9
sS'.thisRepN'
p2054
I16
sg21
I49
sS'.thisIndex'
p2055
I5
sg23
I24
sg15
(lp2056
S'd'
asg30
VF
sg17
S'Y'
sg14
I5
sg19
(lp2057
S'space'
p2058
asg94
I5
sa(dp2059
g16
(lp2060
S'd'
asg94
I12
sS'.thisRepN'
p2061
I16
sg30
VF
sg31
g32
sS'.thisTrialN'
p2062
I10
sS'.thisN'
p2063
I250
sS'.thisIndex'
p2064
I12
sg15
(lp2065
S'd'
asg17
S'Y'
sg14
I6
sa(dp2066
g16
(lp2067
S'd'
asg94
I9
sS'.thisRepN'
p2068
I16
sg30
VF
sg31
g32
sS'.thisTrialN'
p2069
I11
sS'.thisN'
p2070
I251
sS'.thisIndex'
p2071
I9
sg15
(lp2072
S'd'
asg17
S'Y'
sg14
I6
sa(dp2073
g16
(lp2074
S'd'
asg18
S'N'
sS'.thisRepN'
p2075
I16
sg20
S'Y'
sg31
g32
sS'.thisTrialN'
p2076
I12
sS'.thisN'
p2077
I252
sS'.thisIndex'
p2078
I4
sg15
(lp2079
S'd'
asg30
VF
sg17
S'Y'
sg14
I6
sg19
Nsg94
I4
sa(dp2080
g16
(lp2081
S'k'
asg18
S'Y'
sS'.thisRepN'
p2082
I16
sg20
S'Y'
sg31
g32
sS'.thisTrialN'
p2083
I13
sS'.thisN'
p2084
I253
sS'.thisIndex'
p2085
I5
sg15
(lp2086
S'k'
asg30
VF
sg17
S'Y'
sg14
I6
sg19
(lp2087
S'space'
p2088
asg94
I5
sa(dp2089
g16
(lp2090
S'k'
asg18
S'Y'
sS'.thisRepN'
p2091
I16
sg20
S'Y'
sg31
g32
sS'.thisTrialN'
p2092
I14
sS'.thisN'
p2093
I254
sS'.thisIndex'
p2094
I1
sg15
(lp2095
S'k'
asg30
VF
sg17
S'Y'
sg14
I6
sg19
(lp2096
S'space'
p2097
asg94
I1
sa(dp2098
g16
(lp2099
S'd'
asg18
S'Y'
sS'.thisRepN'
p2100
I17
sg20
S'Y'
sg31
g32
sS'.thisTrialN'
p2101
I0
sS'.thisN'
p2102
I255
sS'.thisIndex'
p2103
I0
sg15
(lp2104
S'd'
asg30
VF
sg17
S'Y'
sg14
I6
sg19
(lp2105
S'space'
p2106
asg94
I0
sa(dp2107
g16
(lp2108
S'd'
asg18
S'N'
sS'.thisRepN'
p2109
I17
sg20
S'Y'
sg31
g32
sS'.thisTrialN'
p2110
I1
sS'.thisN'
p2111
I256
sS'.thisIndex'
p2112
I11
sg15
(lp2113
S'd'
asg30
VF
sg17
S'Y'
sg14
I6
sg19
Nsg94
I11
sa(dp2114
g16
(lp2115
S'd'
asg18
S'N'
sS'.thisRepN'
p2116
I17
sg20
S'N'
sg31
g32
sS'.thisTrialN'
p2117
I2
sS'.thisN'
p2118
I257
sS'.thisIndex'
p2119
I1
sg15
(lp2120
S'd'
asg30
VF
sg17
S'Y'
sg14
I6
sg19
(lp2121
S'space'
p2122
asg94
I1
sa(dp2123
g16
(lp2124
S'd'
asg18
S'Y'
sS'.thisRepN'
p2125
I17
sg20
S'Y'
sg31
g32
sS'.thisTrialN'
p2126
I3
sS'.thisN'
p2127
I258
sS'.thisIndex'
p2128
I1
sg15
(lp2129
S'd'
asg30
VF
sg17
S'Y'
sg14
I6
sg19
(lp2130
S'space'
p2131
asg94
I1
sa(dp2132
g16
(lp2133
S'd'
asg18
S'Y'
sS'.thisRepN'
p2134
I17
sg20
S'Y'
sg31
g32
sS'.thisTrialN'
p2135
I4
sS'.thisN'
p2136
I259
sS'.thisIndex'
p2137
I5
sg15
(lp2138
S'd'
asg30
VF
sg17
S'Y'
sg14
I6
sg19
(lp2139
S'space'
p2140
asg94
I5
sa(dp2141
g16
(lp2142
S'd'
asg18
S'N'
sS'.thisRepN'
p2143
I17
sg20
S'Y'
sg31
g32
sS'.thisTrialN'
p2144
I5
sS'.thisN'
p2145
I260
sS'.thisIndex'
p2146
I11
sg15
(lp2147
S'd'
asg30
VF
sg17
S'Y'
sg14
I6
sg19
Nsg94
I11
sa(dp2148
g16
(lp2149
S'd'
asg18
S'Y'
sS'.thisRepN'
p2150
I17
sg20
S'Y'
sg31
g32
sS'.thisTrialN'
p2151
I6
sS'.thisN'
p2152
I261
sS'.thisIndex'
p2153
I4
sg15
(lp2154
S'd'
asg30
VF
sg17
S'Y'
sg14
I6
sg19
(lp2155
S'space'
p2156
asg94
I4
sa(dp2157
g16
(lp2158
S'd'
asg18
S'N'
sS'.thisRepN'
p2159
I17
sg20
S'Y'
sg31
g32
sS'.thisTrialN'
p2160
I7
sS'.thisN'
p2161
I262
sS'.thisIndex'
p2162
I5
sg15
(lp2163
S'd'
asg30
VF
sg17
S'Y'
sg14
I6
sg19
Nsg94
I5
sa(dp2164
g16
(lp2165
S'k'
asg18
S'N'
sS'.thisRepN'
p2166
I17
sg20
S'Y'
sg31
g32
sS'.thisTrialN'
p2167
I8
sS'.thisN'
p2168
I263
sS'.thisIndex'
p2169
I7
sg15
(lp2170
S'k'
asg30
VF
sg17
S'Y'
sg14
I6
sg19
Nsg94
I7
sa(dp2171
g16
(lp2172
S'k'
asg18
S'N'
sS'.thisRepN'
p2173
I17
sg20
S'Y'
sg31
g32
sS'.thisTrialN'
p2174
I9
sS'.thisN'
p2175
I264
sS'.thisIndex'
p2176
I4
sg15
(lp2177
S'k'
asg30
VF
sg17
S'Y'
sg14
I6
sg19
Nsg94
I4
sa(dp2178
g16
(lp2179
S'd'
asg18
S'N'
sS'.thisRepN'
p2180
I17
sg20
S'Y'
sg31
g32
sS'.thisTrialN'
p2181
I10
sS'.thisN'
p2182
I265
sS'.thisIndex'
p2183
I4
sg15
(lp2184
S'd'
asg30
VF
sg17
S'Y'
sg14
I6
sg19
Nsg94
I4
sa(dp2185
g16
(lp2186
S'd'
asg18
S'N'
sS'.thisRepN'
p2187
I17
sg20
S'Y'
sg31
g32
sS'.thisTrialN'
p2188
I11
sS'.thisN'
p2189
I266
sS'.thisIndex'
p2190
I8
sg15
(lp2191
S'd'
asg30
VF
sg17
S'Y'
sg14
I6
sg19
Nsg94
I8
sa(dp2192
g16
(lp2193
S'k'
asg18
S'Y'
sS'.thisRepN'
p2194
I17
sg20
S'Y'
sg31
g32
sS'.thisTrialN'
p2195
I12
sS'.thisN'
p2196
I267
sS'.thisIndex'
p2197
I8
sg15
(lp2198
S'k'
asg30
VF
sg17
S'Y'
sg14
I6
sg19
(lp2199
S'space'
p2200
asg94
I8
sa(dp2201
g16
(lp2202
S'd'
asg18
S'N'
sS'.thisRepN'
p2203
I17
sg20
S'Y'
sg31
g32
sS'.thisTrialN'
p2204
I13
sS'.thisN'
p2205
I268
sS'.thisIndex'
p2206
I11
sg15
(lp2207
S'd'
asg30
VF
sg17
S'Y'
sg14
I6
sg19
Nsg94
I11
sa(dp2208
g16
(lp2209
S'd'
asg18
S'N'
sS'.thisRepN'
p2210
I17
sg20
S'Y'
sg31
g32
sS'.thisTrialN'
p2211
I14
sS'.thisN'
p2212
I269
sS'.thisIndex'
p2213
I10
sg15
(lp2214
S'd'
asg30
VF
sg17
S'Y'
sg14
I6
sg19
Nsg94
I10
sa(dp2215
g16
(lp2216
S'k'
asg18
S'N'
sS'.thisRepN'
p2217
I18
sg20
S'N'
sg31
g32
sS'.thisTrialN'
p2218
I0
sS'.thisN'
p2219
I270
sS'.thisIndex'
p2220
I8
sg15
(lp2221
S'k'
asg30
VF
sg17
S'Y'
sg14
I6
sg19
(lp2222
S'space'
p2223
asg94
I8
sa(dp2224
g16
(lp2225
S'k'
asg18
S'N'
sS'.thisRepN'
p2226
I18
sg20
S'Y'
sg31
g32
sS'.thisTrialN'
p2227
I1
sS'.thisN'
p2228
I271
sS'.thisIndex'
p2229
I3
sg15
(lp2230
S'k'
asg30
VF
sg17
S'Y'
sg14
I6
sg19
Nsg94
I3
sa(dp2231
g16
(lp2232
S'd'
asg18
S'N'
sS'.thisRepN'
p2233
I18
sg20
S'Y'
sg31
g32
sS'.thisTrialN'
p2234
I2
sS'.thisN'
p2235
I272
sS'.thisIndex'
p2236
I12
sg15
(lp2237
S'd'
asg30
VF
sg17
S'Y'
sg14
I6
sg19
Nsg94
I12
sa(dp2238
g16
(lp2239
S'k'
asg18
S'N'
sS'.thisRepN'
p2240
I18
sg20
S'Y'
sg31
g32
sS'.thisTrialN'
p2241
I3
sS'.thisN'
p2242
I273
sS'.thisIndex'
p2243
I13
sg15
(lp2244
S'k'
asg30
VF
sg17
S'Y'
sg14
I6
sg19
Nsg94
I13
sa(dp2245
g16
(lp2246
S'd'
asg18
S'Y'
sS'.thisRepN'
p2247
I18
sg20
S'N'
sg31
g32
sS'.thisTrialN'
p2248
I4
sS'.thisN'
p2249
I274
sS'.thisIndex'
p2250
I8
sg15
(lp2251
S'k'
asg30
VF
sg17
S'N'
sg14
I6
sg19
Nsg94
I8
sa(dp2252
g16
(lp2253
S'k'
asg18
S'Y'
sS'.thisRepN'
p2254
I18
sg20
S'N'
sg31
g32
sS'.thisTrialN'
p2255
I5
sS'.thisN'
p2256
I275
sS'.thisIndex'
p2257
I11
sg15
(lp2258
S'k'
asg30
VF
sg17
S'Y'
sg14
I6
sg19
Nsg94
I11
sa(dp2259
g16
(lp2260
S'd'
asg18
S'N'
sS'.thisRepN'
p2261
I18
sg20
S'Y'
sg31
g32
sS'.thisTrialN'
p2262
I6
sS'.thisN'
p2263
I276
sS'.thisIndex'
p2264
I6
sg15
(lp2265
S'k'
asg30
VF
sg17
S'N'
sg14
I6
sg19
Nsg94
I6
sa(dp2266
g16
(lp2267
S'k'
asg18
S'Y'
sS'.thisRepN'
p2268
I18
sg20
S'Y'
sg31
g32
sS'.thisTrialN'
p2269
I7
sS'.thisN'
p2270
I277
sS'.thisIndex'
p2271
I9
sg15
(lp2272
S'k'
asg30
VF
sg17
S'Y'
sg14
I6
sg19
(lp2273
S'space'
p2274
asg94
I9
sa(dp2275
g16
(lp2276
S'd'
asg18
S'N'
sS'.thisRepN'
p2277
I18
sg20
S'Y'
sg31
g32
sS'.thisTrialN'
p2278
I8
sS'.thisN'
p2279
I278
sS'.thisIndex'
p2280
I12
sg15
(lp2281
S'd'
asg30
VF
sg17
S'Y'
sg14
I6
sg19
Nsg94
I12
sa(dp2282
g16
(lp2283
S'd'
asg18
S'Y'
sS'.thisRepN'
p2284
I18
sg20
S'Y'
sg31
g32
sS'.thisTrialN'
p2285
I9
sS'.thisN'
p2286
I279
sS'.thisIndex'
p2287
I2
sg15
(lp2288
S'd'
asg30
VF
sg17
S'Y'
sg14
I6
sg19
(lp2289
S'space'
p2290
asg94
I2
sa(dp2291
g16
(lp2292
S'k'
asg18
S'Y'
sS'.thisRepN'
p2293
I18
sg20
S'Y'
sg31
g32
sS'.thisTrialN'
p2294
I10
sS'.thisN'
p2295
I280
sS'.thisIndex'
p2296
I7
sg15
(lp2297
S'k'
asg30
VF
sg17
S'Y'
sg14
I6
sg19
(lp2298
S'space'
p2299
asg94
I7
sa(dp2300
g16
(lp2301
S'd'
asg18
S'N'
sS'.thisRepN'
p2302
I18
sg20
S'Y'
sg31
g32
sS'.thisTrialN'
p2303
I11
sS'.thisN'
p2304
I281
sS'.thisIndex'
p2305
I8
sg15
(lp2306
S'd'
asg30
VF
sg17
S'Y'
sg14
I6
sg19
Nsg94
I8
sa(dp2307
g16
(lp2308
S'd'
asg18
S'Y'
sS'.thisRepN'
p2309
I18
sg20
S'Y'
sg31
g32
sS'.thisTrialN'
p2310
I12
sS'.thisN'
p2311
I282
sS'.thisIndex'
p2312
I5
sg15
(lp2313
S'd'
asg30
VF
sg17
S'Y'
sg14
I6
sg19
(lp2314
S'space'
p2315
asg94
I5
sa(dp2316
g16
(lp2317
S'k'
asg18
S'Y'
sS'.thisRepN'
p2318
I18
sg20
S'Y'
sg31
g32
sS'.thisTrialN'
p2319
I13
sS'.thisN'
p2320
I283
sS'.thisIndex'
p2321
I13
sg15
(lp2322
S'k'
asg30
VF
sg17
S'Y'
sg14
I6
sg19
(lp2323
S'space'
p2324
asg94
I13
sa(dp2325
g16
(lp2326
S'd'
asg18
S'N'
sS'.thisRepN'
p2327
I18
sg20
S'Y'
sg31
g32
sS'.thisTrialN'
p2328
I14
sS'.thisN'
p2329
I284
sS'.thisIndex'
p2330
I11
sg15
(lp2331
S'd'
asg30
VF
sg17
S'Y'
sg14
I6
sg19
Nsg94
I11
sa(dp2332
g16
(lp2333
S'd'
asg18
S'Y'
sS'.thisRepN'
p2334
I19
sg20
S'Y'
sg31
g32
sS'.thisTrialN'
p2335
I0
sS'.thisN'
p2336
I285
sS'.thisIndex'
p2337
I2
sg15
(lp2338
S'd'
asg30
VF
sg17
S'Y'
sg14
I6
sg19
(lp2339
S'space'
p2340
asg94
I2
sa(dp2341
g16
(lp2342
S'd'
asg18
S'Y'
sS'.thisRepN'
p2343
I19
sg20
S'Y'
sg31
g32
sS'.thisTrialN'
p2344
I1
sS'.thisN'
p2345
I286
sS'.thisIndex'
p2346
I6
sg15
(lp2347
S'd'
asg30
VF
sg17
S'Y'
sg14
I6
sg19
(lp2348
S'space'
p2349
asg94
I6
sa(dp2350
g16
(lp2351
S'k'
asg18
S'N'
sS'.thisRepN'
p2352
I19
sg20
S'N'
sg31
g32
sS'.thisTrialN'
p2353
I2
sS'.thisN'
p2354
I287
sS'.thisIndex'
p2355
I11
sg15
(lp2356
S'k'
asg30
VF
sg17
S'Y'
sg14
I6
sg19
(lp2357
S'space'
p2358
asg94
I11
sa(dp2359
g16
(lp2360
S'd'
asg18
S'N'
sS'.thisRepN'
p2361
I19
sg20
S'Y'
sg31
g32
sS'.thisTrialN'
p2362
I3
sS'.thisN'
p2363
I288
sS'.thisIndex'
p2364
I2
sg15
(lp2365
S'd'
asg30
VF
sg17
S'Y'
sg14
I6
sg19
Nsg94
I2
sa(dp2366
g16
(lp2367
S'd'
asg18
S'N'
sS'.thisRepN'
p2368
I19
sg20
S'Y'
sg31
g32
sS'.thisTrialN'
p2369
I4
sS'.thisN'
p2370
I289
sS'.thisIndex'
p2371
I4
sg15
(lp2372
S'd'
asg30
VF
sg17
S'Y'
sg14
I6
sg19
Nsg94
I4
sa(dp2373
g16
(lp2374
S'd'
asg18
S'Y'
sS'.thisRepN'
p2375
I19
sg20
S'Y'
sg31
g32
sS'.thisTrialN'
p2376
I5
sS'.thisN'
p2377
I290
sS'.thisIndex'
p2378
I14
sg15
(lp2379
S'd'
asg30
VF
sg17
S'Y'
sg14
I6
sg19
(lp2380
S'space'
p2381
asg94
I14
sa(dp2382
g16
(lp2383
S'k'
asg18
S'N'
sS'.thisRepN'
p2384
I19
sg20
S'Y'
sg31
g32
sS'.thisTrialN'
p2385
I6
sS'.thisN'
p2386
I291
sS'.thisIndex'
p2387
I8
sg15
(lp2388
S'k'
asg30
VF
sg17
S'Y'
sg14
I6
sg19
Nsg94
I8
sa(dp2389
g16
(lp2390
S'k'
asg18
S'N'
sS'.thisRepN'
p2391
I19
sg20
S'Y'
sg31
g32
sS'.thisTrialN'
p2392
I7
sS'.thisN'
p2393
I292
sS'.thisIndex'
p2394
I10
sg15
(lp2395
S'k'
asg30
VF
sg17
S'Y'
sg14
I6
sg19
Nsg94
I10
sa(dp2396
g16
(lp2397
S'd'
asg18
S'Y'
sS'.thisRepN'
p2398
I19
sg20
S'Y'
sg31
g32
sS'.thisTrialN'
p2399
I8
sS'.thisN'
p2400
I293
sS'.thisIndex'
p2401
I10
sg15
(lp2402
S'd'
asg30
VF
sg17
S'Y'
sg14
I6
sg19
(lp2403
S'space'
p2404
asg94
I10
sa(dp2405
g16
(lp2406
S'd'
asg18
S'Y'
sS'.thisRepN'
p2407
I19
sg20
S'Y'
sg31
g32
sS'.thisTrialN'
p2408
I9
sS'.thisN'
p2409
I294
sS'.thisIndex'
p2410
I14
sg15
(lp2411
S'd'
asg30
VF
sg17
S'Y'
sg14
I6
sg19
(lp2412
S'space'
p2413
asg94
I14
sa(dp2414
g16
(lp2415
S'k'
asg18
S'N'
sS'.thisRepN'
p2416
I19
sg20
S'Y'
sg31
g32
sS'.thisTrialN'
p2417
I10
sS'.thisN'
p2418
I295
sS'.thisIndex'
p2419
I7
sg15
(lp2420
S'k'
asg30
VF
sg17
S'Y'
sg14
I6
sg19
Nsg94
I7
sa(dp2421
g16
(lp2422
S'k'
asg18
S'N'
sS'.thisRepN'
p2423
I19
sg20
S'Y'
sg31
g32
sS'.thisTrialN'
p2424
I11
sS'.thisN'
p2425
I296
sS'.thisIndex'
p2426
I11
sg15
(lp2427
S'k'
asg30
VF
sg17
S'Y'
sg14
I6
sg19
Nsg94
I11
sa(dp2428
g16
(lp2429
S'k'
asg18
S'Y'
sS'.thisRepN'
p2430
I19
sg20
S'Y'
sg31
g32
sS'.thisTrialN'
p2431
I12
sS'.thisN'
p2432
I297
sS'.thisIndex'
p2433
I2
sg15
(lp2434
S'k'
asg30
VF
sg17
S'Y'
sg14
I6
sg19
(lp2435
S'space'
p2436
asg94
I2
sa(dp2437
g16
(lp2438
S'k'
asg18
S'N'
sS'.thisRepN'
p2439
I19
sg20
S'Y'
sg31
g32
sS'.thisTrialN'
p2440
I13
sS'.thisN'
p2441
I298
sS'.thisIndex'
p2442
I14
sg15
(lp2443
S'k'
asg30
VF
sg17
S'Y'
sg14
I6
sg19
Nsg94
I14
sa(dp2444
g16
(lp2445
S'k'
asg18
S'Y'
sg22
I43
sS'.thisN'
p2446
I299
sg20
S'Y'
sg31
g32
sS'.thisTrialN'
p2447
I14
sS'.thisRepN'
p2448
I19
sg21
I48
sS'.thisIndex'
p2449
I6
sg23
I21
sg15
(lp2450
S'k'
asg30
VF
sg17
S'Y'
sg14
I6
sg19
(lp2451
S'space'
p2452
asg94
I6
sa(dp2453
g16
(lp2454
S'd'
asg94
I13
sS'.thisRepN'
p2455
I20
sg30
VF
sg31
g32
sS'.thisTrialN'
p2456
I0
sS'.thisN'
p2457
I300
sS'.thisIndex'
p2458
I13
sg15
(lp2459
S'd'
asg17
S'Y'
sg14
I7
sa(dp2460
g16
(lp2461
S'd'
asg94
I6
sS'.thisRepN'
p2462
I20
sg30
VF
sg31
g32
sS'.thisTrialN'
p2463
I1
sS'.thisN'
p2464
I301
sS'.thisIndex'
p2465
I6
sg15
(lp2466
S'd'
asg17
S'Y'
sg14
I7
sa(dp2467
g16
(lp2468
S'd'
asg18
S'Y'
sS'.thisRepN'
p2469
I20
sg20
S'Y'
sg31
g32
sS'.thisTrialN'
p2470
I2
sS'.thisN'
p2471
I302
sS'.thisIndex'
p2472
I1
sg15
(lp2473
S'd'
asg30
VF
sg17
S'Y'
sg14
I7
sg19
(lp2474
S'space'
p2475
asg94
I1
sa(dp2476
g16
(lp2477
S'k'
asg18
S'N'
sS'.thisRepN'
p2478
I20
sg20
S'Y'
sg31
g32
sS'.thisTrialN'
p2479
I3
sS'.thisN'
p2480
I303
sS'.thisIndex'
p2481
I0
sg15
(lp2482
S'k'
asg30
VF
sg17
S'Y'
sg14
I7
sg19
Nsg94
I0
sa(dp2483
g16
(lp2484
S'k'
asg18
S'Y'
sS'.thisRepN'
p2485
I20
sg20
S'Y'
sg31
g32
sS'.thisTrialN'
p2486
I4
sS'.thisN'
p2487
I304
sS'.thisIndex'
p2488
I4
sg15
(lp2489
S'k'
asg30
VF
sg17
S'Y'
sg14
I7
sg19
(lp2490
S'space'
p2491
asg94
I4
sa(dp2492
g16
(lp2493
S'k'
asg18
S'N'
sS'.thisRepN'
p2494
I20
sg20
S'Y'
sg31
g32
sS'.thisTrialN'
p2495
I5
sS'.thisN'
p2496
I305
sS'.thisIndex'
p2497
I14
sg15
(lp2498
S'd'
asg30
VF
sg17
S'N'
sg14
I7
sg19
Nsg94
I14
sa(dp2499
g16
(lp2500
S'k'
asg18
S'N'
sS'.thisRepN'
p2501
I20
sg20
S'Y'
sg31
g32
sS'.thisTrialN'
p2502
I6
sS'.thisN'
p2503
I306
sS'.thisIndex'
p2504
I10
sg15
(lp2505
S'k'
asg30
VF
sg17
S'Y'
sg14
I7
sg19
Nsg94
I10
sa(dp2506
g16
(lp2507
S'k'
asg18
S'N'
sS'.thisRepN'
p2508
I20
sg20
S'Y'
sg31
g32
sS'.thisTrialN'
p2509
I7
sS'.thisN'
p2510
I307
sS'.thisIndex'
p2511
I13
sg15
(lp2512
S'k'
asg30
VF
sg17
S'Y'
sg14
I7
sg19
Nsg94
I13
sa(dp2513
g16
(lp2514
S'k'
asg18
S'N'
sS'.thisRepN'
p2515
I20
sg20
S'Y'
sg31
g32
sS'.thisTrialN'
p2516
I8
sS'.thisN'
p2517
I308
sS'.thisIndex'
p2518
I12
sg15
(lp2519
S'k'
asg30
VF
sg17
S'Y'
sg14
I7
sg19
Nsg94
I12
sa(dp2520
g16
(lp2521
S'd'
asg18
S'N'
sS'.thisRepN'
p2522
I20
sg20
S'N'
sg31
g32
sS'.thisTrialN'
p2523
I9
sS'.thisN'
p2524
I309
sS'.thisIndex'
p2525
I9
sg15
(lp2526
S'd'
asg30
VF
sg17
S'Y'
sg14
I7
sg19
(lp2527
S'space'
p2528
asg94
I9
sa(dp2529
g16
(lp2530
S'k'
asg18
S'Y'
sS'.thisRepN'
p2531
I20
sg20
S'Y'
sg31
g32
sS'.thisTrialN'
p2532
I10
sS'.thisN'
p2533
I310
sS'.thisIndex'
p2534
I12
sg15
(lp2535
S'k'
asg30
VF
sg17
S'Y'
sg14
I7
sg19
(lp2536
S'space'
p2537
asg94
I12
sa(dp2538
g16
(lp2539
S'k'
asg18
S'Y'
sS'.thisRepN'
p2540
I20
sg20
S'Y'
sg31
g32
sS'.thisTrialN'
p2541
I11
sS'.thisN'
p2542
I311
sS'.thisIndex'
p2543
I14
sg15
(lp2544
S'k'
asg30
VF
sg17
S'Y'
sg14
I7
sg19
(lp2545
S'space'
p2546
asg94
I14
sa(dp2547
g16
(lp2548
S'k'
asg18
S'N'
sS'.thisRepN'
p2549
I20
sg20
S'N'
sg31
g32
sS'.thisTrialN'
p2550
I12
sS'.thisN'
p2551
I312
sS'.thisIndex'
p2552
I9
sg15
(lp2553
S'k'
asg30
VF
sg17
S'Y'
sg14
I7
sg19
(lp2554
S'space'
p2555
asg94
I9
sa(dp2556
g16
(lp2557
S'd'
asg18
S'N'
sS'.thisRepN'
p2558
I20
sg20
S'N'
sg31
g32
sS'.thisTrialN'
p2559
I13
sS'.thisN'
p2560
I313
sS'.thisIndex'
p2561
I12
sg15
(lp2562
S'd'
asg30
VF
sg17
S'Y'
sg14
I7
sg19
(lp2563
S'space'
p2564
asg94
I12
sa(dp2565
g16
(lp2566
S'k'
asg18
S'Y'
sS'.thisRepN'
p2567
I20
sg20
S'Y'
sg31
g32
sS'.thisTrialN'
p2568
I14
sS'.thisN'
p2569
I314
sS'.thisIndex'
p2570
I3
sg15
(lp2571
S'd'
asg30
VF
sg17
S'N'
sg14
I7
sg19
(lp2572
S'space'
p2573
asg94
I3
sa(dp2574
g16
(lp2575
S'd'
asg18
S'N'
sS'.thisRepN'
p2576
I21
sg20
S'Y'
sg31
g32
sS'.thisTrialN'
p2577
I0
sS'.thisN'
p2578
I315
sS'.thisIndex'
p2579
I6
sg15
(lp2580
S'd'
asg30
VF
sg17
S'Y'
sg14
I7
sg19
Nsg94
I6
sa(dp2581
g16
(lp2582
S'd'
asg18
S'Y'
sS'.thisRepN'
p2583
I21
sg20
S'Y'
sg31
g32
sS'.thisTrialN'
p2584
I1
sS'.thisN'
p2585
I316
sS'.thisIndex'
p2586
I10
sg15
(lp2587
S'd'
asg30
VF
sg17
S'Y'
sg14
I7
sg19
(lp2588
S'space'
p2589
asg94
I10
sa(dp2590
g16
(lp2591
S'd'
asg18
S'Y'
sS'.thisRepN'
p2592
I21
sg20
S'Y'
sg31
g32
sS'.thisTrialN'
p2593
I2
sS'.thisN'
p2594
I317
sS'.thisIndex'
p2595
I10
sg15
(lp2596
S'd'
asg30
VF
sg17
S'Y'
sg14
I7
sg19
(lp2597
S'space'
p2598
asg94
I10
sa(dp2599
g16
(lp2600
S'd'
asg18
S'N'
sS'.thisRepN'
p2601
I21
sg20
S'Y'
sg31
g32
sS'.thisTrialN'
p2602
I3
sS'.thisN'
p2603
I318
sS'.thisIndex'
p2604
I11
sg15
(lp2605
S'd'
asg30
VF
sg17
S'Y'
sg14
I7
sg19
Nsg94
I11
sa(dp2606
g16
(lp2607
S'k'
asg18
S'N'
sS'.thisRepN'
p2608
I21
sg20
S'Y'
sg31
g32
sS'.thisTrialN'
p2609
I4
sS'.thisN'
p2610
I319
sS'.thisIndex'
p2611
I4
sg15
(lp2612
S'k'
asg30
VF
sg17
S'Y'
sg14
I7
sg19
Nsg94
I4
sa(dp2613
g16
(lp2614
S'k'
asg18
S'N'
sS'.thisRepN'
p2615
I21
sg20
S'Y'
sg31
g32
sS'.thisTrialN'
p2616
I5
sS'.thisN'
p2617
I320
sS'.thisIndex'
p2618
I7
sg15
(lp2619
S'k'
asg30
VF
sg17
S'Y'
sg14
I7
sg19
Nsg94
I7
sa(dp2620
g16
(lp2621
S'k'
asg18
S'Y'
sS'.thisRepN'
p2622
I21
sg20
S'Y'
sg31
g32
sS'.thisTrialN'
p2623
I6
sS'.thisN'
p2624
I321
sS'.thisIndex'
p2625
I6
sg15
(lp2626
S'k'
asg30
VF
sg17
S'Y'
sg14
I7
sg19
(lp2627
S'space'
p2628
asg94
I6
sa(dp2629
g16
(lp2630
S'k'
asg18
S'N'
sS'.thisRepN'
p2631
I21
sg20
S'Y'
sg31
g32
sS'.thisTrialN'
p2632
I7
sS'.thisN'
p2633
I322
sS'.thisIndex'
p2634
I6
sg15
(lp2635
S'k'
asg30
VF
sg17
S'Y'
sg14
I7
sg19
Nsg94
I6
sa(dp2636
g16
(lp2637
S'k'
asg18
S'N'
sS'.thisRepN'
p2638
I21
sg20
S'Y'
sg31
g32
sS'.thisTrialN'
p2639
I8
sS'.thisN'
p2640
I323
sS'.thisIndex'
p2641
I11
sg15
(lp2642
S'k'
asg30
VF
sg17
S'Y'
sg14
I7
sg19
Nsg94
I11
sa(dp2643
g16
(lp2644
S'd'
asg18
S'Y'
sS'.thisRepN'
p2645
I21
sg20
S'Y'
sg31
g32
sS'.thisTrialN'
p2646
I9
sS'.thisN'
p2647
I324
sS'.thisIndex'
p2648
I0
sg15
(lp2649
S'd'
asg30
VF
sg17
S'Y'
sg14
I7
sg19
(lp2650
S'space'
p2651
asg94
I0
sa(dp2652
g16
(lp2653
S'k'
asg18
S'N'
sS'.thisRepN'
p2654
I21
sg20
S'Y'
sg31
g32
sS'.thisTrialN'
p2655
I10
sS'.thisN'
p2656
I325
sS'.thisIndex'
p2657
I3
sg15
(lp2658
S'k'
asg30
VF
sg17
S'Y'
sg14
I7
sg19
Nsg94
I3
sa(dp2659
g16
(lp2660
S'd'
asg18
S'Y'
sS'.thisRepN'
p2661
I21
sg20
S'Y'
sg31
g32
sS'.thisTrialN'
p2662
I11
sS'.thisN'
p2663
I326
sS'.thisIndex'
p2664
I10
sg15
(lp2665
S'd'
asg30
VF
sg17
S'Y'
sg14
I7
sg19
(lp2666
S'space'
p2667
asg94
I10
sa(dp2668
g16
(lp2669
S'd'
asg18
S'Y'
sS'.thisRepN'
p2670
I21
sg20
S'Y'
sg31
g32
sS'.thisTrialN'
p2671
I12
sS'.thisN'
p2672
I327
sS'.thisIndex'
p2673
I13
sg15
(lp2674
S'd'
asg30
VF
sg17
S'Y'
sg14
I7
sg19
(lp2675
S'space'
p2676
asg94
I13
sa(dp2677
g16
(lp2678
S'k'
asg18
S'Y'
sS'.thisRepN'
p2679
I21
sg20
S'Y'
sg31
g32
sS'.thisTrialN'
p2680
I13
sS'.thisN'
p2681
I328
sS'.thisIndex'
p2682
I3
sg15
(lp2683
S'k'
asg30
VF
sg17
S'Y'
sg14
I7
sg19
(lp2684
S'space'
p2685
asg94
I3
sa(dp2686
g16
(lp2687
S'd'
asg18
S'N'
sS'.thisRepN'
p2688
I21
sg20
S'Y'
sg31
g32
sS'.thisTrialN'
p2689
I14
sS'.thisN'
p2690
I329
sS'.thisIndex'
p2691
I11
sg15
(lp2692
S'd'
asg30
VF
sg17
S'Y'
sg14
I7
sg19
Nsg94
I11
sa(dp2693
g16
(lp2694
S'd'
asg18
S'N'
sS'.thisRepN'
p2695
I22
sg20
S'Y'
sg31
g32
sS'.thisTrialN'
p2696
I0
sS'.thisN'
p2697
I330
sS'.thisIndex'
p2698
I1
sg15
(lp2699
S'd'
asg30
VF
sg17
S'Y'
sg14
I7
sg19
Nsg94
I1
sa(dp2700
g16
(lp2701
S'd'
asg18
S'Y'
sS'.thisRepN'
p2702
I22
sg20
S'Y'
sg31
g32
sS'.thisTrialN'
p2703
I1
sS'.thisN'
p2704
I331
sS'.thisIndex'
p2705
I13
sg15
(lp2706
S'd'
asg30
VF
sg17
S'Y'
sg14
I7
sg19
(lp2707
S'space'
p2708
asg94
I13
sa(dp2709
g16
(lp2710
S'd'
asg18
S'Y'
sS'.thisRepN'
p2711
I22
sg20
S'Y'
sg31
g32
sS'.thisTrialN'
p2712
I2
sS'.thisN'
p2713
I332
sS'.thisIndex'
p2714
I0
sg15
(lp2715
S'd'
asg30
VF
sg17
S'Y'
sg14
I7
sg19
(lp2716
S'space'
p2717
asg94
I0
sa(dp2718
g16
(lp2719
S'd'
asg18
S'Y'
sS'.thisRepN'
p2720
I22
sg20
S'N'
sg31
g32
sS'.thisTrialN'
p2721
I3
sS'.thisN'
p2722
I333
sS'.thisIndex'
p2723
I10
sg15
(lp2724
S'd'
asg30
VF
sg17
S'Y'
sg14
I7
sg19
Nsg94
I10
sa(dp2725
g16
(lp2726
S'd'
asg18
S'Y'
sS'.thisRepN'
p2727
I22
sg20
S'Y'
sg31
g32
sS'.thisTrialN'
p2728
I4
sS'.thisN'
p2729
I334
sS'.thisIndex'
p2730
I6
sg15
(lp2731
S'd'
asg30
VF
sg17
S'Y'
sg14
I7
sg19
(lp2732
S'space'
p2733
asg94
I6
sa(dp2734
g16
(lp2735
S'k'
asg18
S'N'
sS'.thisRepN'
p2736
I22
sg20
S'Y'
sg31
g32
sS'.thisTrialN'
p2737
I5
sS'.thisN'
p2738
I335
sS'.thisIndex'
p2739
I9
sg15
(lp2740
S'k'
asg30
VF
sg17
S'Y'
sg14
I7
sg19
Nsg94
I9
sa(dp2741
g16
(lp2742
S'k'
asg18
S'Y'
sS'.thisRepN'
p2743
I22
sg20
S'Y'
sg31
g32
sS'.thisTrialN'
p2744
I6
sS'.thisN'
p2745
I336
sS'.thisIndex'
p2746
I5
sg15
(lp2747
S'k'
asg30
VF
sg17
S'Y'
sg14
I7
sg19
(lp2748
S'space'
p2749
asg94
I5
sa(dp2750
g16
(lp2751
S'k'
asg18
S'N'
sS'.thisRepN'
p2752
I22
sg20
S'Y'
sg31
g32
sS'.thisTrialN'
p2753
I7
sS'.thisN'
p2754
I337
sS'.thisIndex'
p2755
I11
sg15
(lp2756
S'k'
asg30
VF
sg17
S'Y'
sg14
I7
sg19
Nsg94
I11
sa(dp2757
g16
(lp2758
S'd'
asg18
S'N'
sS'.thisRepN'
p2759
I22
sg20
S'Y'
sg31
g32
sS'.thisTrialN'
p2760
I8
sS'.thisN'
p2761
I338
sS'.thisIndex'
p2762
I5
sg15
(lp2763
S'd'
asg30
VF
sg17
S'Y'
sg14
I7
sg19
Nsg94
I5
sa(dp2764
g16
(lp2765
S'd'
asg18
S'Y'
sS'.thisRepN'
p2766
I22
sg20
S'Y'
sg31
g32
sS'.thisTrialN'
p2767
I9
sS'.thisN'
p2768
I339
sS'.thisIndex'
p2769
I8
sg15
(lp2770
S'd'
asg30
VF
sg17
S'Y'
sg14
I7
sg19
(lp2771
S'space'
p2772
asg94
I8
sa(dp2773
g16
(lp2774
S'd'
asg18
S'Y'
sS'.thisRepN'
p2775
I22
sg20
S'Y'
sg31
g32
sS'.thisTrialN'
p2776
I10
sS'.thisN'
p2777
I340
sS'.thisIndex'
p2778
I4
sg15
(lp2779
S'd'
asg30
VF
sg17
S'Y'
sg14
I7
sg19
(lp2780
S'space'
p2781
asg94
I4
sa(dp2782
g16
(lp2783
S'd'
asg18
S'N'
sS'.thisRepN'
p2784
I22
sg20
S'Y'
sg31
g32
sS'.thisTrialN'
p2785
I11
sS'.thisN'
p2786
I341
sS'.thisIndex'
p2787
I2
sg15
(lp2788
S'k'
asg30
VF
sg17
S'N'
sg14
I7
sg19
Nsg94
I2
sa(dp2789
g16
(lp2790
S'd'
asg18
S'Y'
sS'.thisRepN'
p2791
I22
sg20
S'Y'
sg31
g32
sS'.thisTrialN'
p2792
I12
sS'.thisN'
p2793
I342
sS'.thisIndex'
p2794
I11
sg15
(lp2795
S'd'
asg30
VF
sg17
S'Y'
sg14
I7
sg19
(lp2796
S'space'
p2797
asg94
I11
sa(dp2798
g16
(lp2799
S'k'
asg18
S'N'
sS'.thisRepN'
p2800
I22
sg20
S'Y'
sg31
g32
sS'.thisTrialN'
p2801
I13
sS'.thisN'
p2802
I343
sS'.thisIndex'
p2803
I4
sg15
(lp2804
S'k'
asg30
VF
sg17
S'Y'
sg14
I7
sg19
Nsg94
I4
sa(dp2805
g16
(lp2806
S'k'
asg18
S'Y'
sS'.thisRepN'
p2807
I22
sg20
S'Y'
sg31
g32
sS'.thisTrialN'
p2808
I14
sS'.thisN'
p2809
I344
sS'.thisIndex'
p2810
I2
sg15
(lp2811
S'k'
asg30
VF
sg17
S'Y'
sg14
I7
sg19
(lp2812
S'space'
p2813
asg94
I2
sa(dp2814
g16
(lp2815
S'd'
asg18
S'Y'
sS'.thisRepN'
p2816
I23
sg20
S'Y'
sg31
g32
sS'.thisTrialN'
p2817
I0
sS'.thisN'
p2818
I345
sS'.thisIndex'
p2819
I6
sg15
(lp2820
S'd'
asg30
VF
sg17
S'Y'
sg14
I7
sg19
(lp2821
S'space'
p2822
asg94
I6
sa(dp2823
g16
(lp2824
S'k'
asg18
S'Y'
sS'.thisRepN'
p2825
I23
sg20
S'Y'
sg31
g32
sS'.thisTrialN'
p2826
I1
sS'.thisN'
p2827
I346
sS'.thisIndex'
p2828
I8
sg15
(lp2829
S'k'
asg30
VF
sg17
S'Y'
sg14
I7
sg19
(lp2830
S'space'
p2831
asg94
I8
sa(dp2832
g16
(lp2833
S'd'
asg18
S'Y'
sS'.thisRepN'
p2834
I23
sg20
S'Y'
sg31
g32
sS'.thisTrialN'
p2835
I2
sS'.thisN'
p2836
I347
sS'.thisIndex'
p2837
I14
sg15
(lp2838
S'd'
asg30
VF
sg17
S'Y'
sg14
I7
sg19
(lp2839
S'space'
p2840
asg94
I14
sa(dp2841
g16
(lp2842
S'd'
asg18
S'N'
sS'.thisRepN'
p2843
I23
sg20
S'Y'
sg31
g32
sS'.thisTrialN'
p2844
I3
sS'.thisN'
p2845
I348
sS'.thisIndex'
p2846
I6
sg15
(lp2847
S'd'
asg30
VF
sg17
S'Y'
sg14
I7
sg19
Nsg94
I6
sa(dp2848
g16
(lp2849
S'd'
asg18
S'Y'
sg22
I44
sS'.thisN'
p2850
I349
sg20
S'Y'
sg31
g32
sS'.thisTrialN'
p2851
I4
sS'.thisRepN'
p2852
I23
sg21
I47
sS'.thisIndex'
p2853
I13
sg23
I25
sg15
(lp2854
S'd'
asg30
VF
sg17
S'Y'
sg14
I7
sg19
(lp2855
S'space'
p2856
asg94
I13
sa(dp2857
g16
(lp2858
S'd'
asg94
I11
sS'.thisRepN'
p2859
I23
sg30
VF
sg31
g32
sS'.thisTrialN'
p2860
I5
sS'.thisN'
p2861
I350
sS'.thisIndex'
p2862
I11
sg15
(lp2863
S'd'
asg17
S'Y'
sg14
I8
sa(dp2864
g16
(lp2865
S'k'
asg94
I3
sS'.thisRepN'
p2866
I23
sg30
VF
sg31
g32
sS'.thisTrialN'
p2867
I6
sS'.thisN'
p2868
I351
sS'.thisIndex'
p2869
I3
sg15
(lp2870
S'k'
asg17
S'Y'
sg14
I8
sa(dp2871
g16
(lp2872
S'k'
asg18
S'Y'
sS'.thisRepN'
p2873
I23
sg20
S'Y'
sg31
g32
sS'.thisTrialN'
p2874
I7
sS'.thisN'
p2875
I352
sS'.thisIndex'
p2876
I1
sg15
(lp2877
S'k'
asg30
VF
sg17
S'Y'
sg14
I8
sg19
(lp2878
S'space'
p2879
asg94
I1
sa(dp2880
g16
(lp2881
S'd'
asg18
S'N'
sS'.thisRepN'
p2882
I23
sg20
S'Y'
sg31
g32
sS'.thisTrialN'
p2883
I8
sS'.thisN'
p2884
I353
sS'.thisIndex'
p2885
I14
sg15
(lp2886
S'd'
asg30
VF
sg17
S'Y'
sg14
I8
sg19
Nsg94
I14
sa(dp2887
g16
(lp2888
S'd'
asg18
S'N'
sS'.thisRepN'
p2889
I23
sg20
S'Y'
sg31
g32
sS'.thisTrialN'
p2890
I9
sS'.thisN'
p2891
I354
sS'.thisIndex'
p2892
I13
sg15
(lp2893
S'd'
asg30
VF
sg17
S'Y'
sg14
I8
sg19
Nsg94
I13
sa(dp2894
g16
(lp2895
S'd'
asg18
S'Y'
sS'.thisRepN'
p2896
I23
sg20
S'Y'
sg31
g32
sS'.thisTrialN'
p2897
I10
sS'.thisN'
p2898
I355
sS'.thisIndex'
p2899
I10
sg15
(lp2900
S'd'
asg30
VF
sg17
S'Y'
sg14
I8
sg19
(lp2901
S'space'
p2902
asg94
I10
sa(dp2903
g16
(lp2904
S'k'
asg18
S'N'
sS'.thisRepN'
p2905
I23
sg20
S'Y'
sg31
g32
sS'.thisTrialN'
p2906
I11
sS'.thisN'
p2907
I356
sS'.thisIndex'
p2908
I12
sg15
(lp2909
S'k'
asg30
VF
sg17
S'Y'
sg14
I8
sg19
Nsg94
I12
sa(dp2910
g16
(lp2911
S'k'
asg18
S'N'
sS'.thisRepN'
p2912
I23
sg20
S'Y'
sg31
g32
sS'.thisTrialN'
p2913
I12
sS'.thisN'
p2914
I357
sS'.thisIndex'
p2915
I9
sg15
(lp2916
S'k'
asg30
VF
sg17
S'Y'
sg14
I8
sg19
Nsg94
I9
sa(dp2917
g16
(lp2918
S'k'
asg18
S'Y'
sS'.thisRepN'
p2919
I23
sg20
S'Y'
sg31
g32
sS'.thisTrialN'
p2920
I13
sS'.thisN'
p2921
I358
sS'.thisIndex'
p2922
I8
sg15
(lp2923
S'd'
asg30
VF
sg17
S'N'
sg14
I8
sg19
(lp2924
S'space'
p2925
asg94
I8
sa(dp2926
g16
(lp2927
S'd'
asg18
S'N'
sS'.thisRepN'
p2928
I23
sg20
S'Y'
sg31
g32
sS'.thisTrialN'
p2929
I14
sS'.thisN'
p2930
I359
sS'.thisIndex'
p2931
I13
sg15
(lp2932
S'd'
asg30
VF
sg17
S'Y'
sg14
I8
sg19
Nsg94
I13
sa(dp2933
g16
(lp2934
S'k'
asg18
S'Y'
sS'.thisRepN'
p2935
I24
sg20
S'Y'
sg31
g32
sS'.thisTrialN'
p2936
I0
sS'.thisN'
p2937
I360
sS'.thisIndex'
p2938
I4
sg15
(lp2939
S'k'
asg30
VF
sg17
S'Y'
sg14
I8
sg19
(lp2940
S'space'
p2941
asg94
I4
sa(dp2942
g16
(lp2943
S'd'
asg18
S'N'
sS'.thisRepN'
p2944
I24
sg20
S'Y'
sg31
g32
sS'.thisTrialN'
p2945
I1
sS'.thisN'
p2946
I361
sS'.thisIndex'
p2947
I13
sg15
(lp2948
S'd'
asg30
VF
sg17
S'Y'
sg14
I8
sg19
Nsg94
I13
sa(dp2949
g16
(lp2950
S'k'
asg18
S'Y'
sS'.thisRepN'
p2951
I24
sg20
S'Y'
sg31
g32
sS'.thisTrialN'
p2952
I2
sS'.thisN'
p2953
I362
sS'.thisIndex'
p2954
I13
sg15
(lp2955
S'k'
asg30
VF
sg17
S'Y'
sg14
I8
sg19
(lp2956
S'space'
p2957
asg94
I13
sa(dp2958
g16
(lp2959
S'd'
asg18
S'Y'
sS'.thisRepN'
p2960
I24
sg20
S'Y'
sg31
g32
sS'.thisTrialN'
p2961
I3
sS'.thisN'
p2962
I363
sS'.thisIndex'
p2963
I4
sg15
(lp2964
S'd'
asg30
VF
sg17
S'Y'
sg14
I8
sg19
(lp2965
S'space'
p2966
asg94
I4
sa(dp2967
g16
(lp2968
S'k'
asg18
S'Y'
sS'.thisRepN'
p2969
I24
sg20
S'Y'
sg31
g32
sS'.thisTrialN'
p2970
I4
sS'.thisN'
p2971
I364
sS'.thisIndex'
p2972
I3
sg15
(lp2973
S'k'
asg30
VF
sg17
S'Y'
sg14
I8
sg19
(lp2974
S'space'
p2975
asg94
I3
sa(dp2976
g16
(lp2977
S'd'
asg18
S'N'
sS'.thisRepN'
p2978
I24
sg20
S'Y'
sg31
g32
sS'.thisTrialN'
p2979
I5
sS'.thisN'
p2980
I365
sS'.thisIndex'
p2981
I11
sg15
(lp2982
S'd'
asg30
VF
sg17
S'Y'
sg14
I8
sg19
Nsg94
I11
sa(dp2983
g16
(lp2984
S'd'
asg18
S'N'
sS'.thisRepN'
p2985
I24
sg20
S'Y'
sg31
g32
sS'.thisTrialN'
p2986
I6
sS'.thisN'
p2987
I366
sS'.thisIndex'
p2988
I10
sg15
(lp2989
S'd'
asg30
VF
sg17
S'Y'
sg14
I8
sg19
Nsg94
I10
sa(dp2990
g16
(lp2991
S'k'
asg18
S'N'
sS'.thisRepN'
p2992
I24
sg20
S'Y'
sg31
g32
sS'.thisTrialN'
p2993
I7
sS'.thisN'
p2994
I367
sS'.thisIndex'
p2995
I5
sg15
(lp2996
S'k'
asg30
VF
sg17
S'Y'
sg14
I8
sg19
Nsg94
I5
sa(dp2997
g16
(lp2998
S'k'
asg18
S'N'
sS'.thisRepN'
p2999
I24
sg20
S'Y'
sg31
g32
sS'.thisTrialN'
p3000
I8
sS'.thisN'
p3001
I368
sS'.thisIndex'
p3002
I4
sg15
(lp3003
S'k'
asg30
VF
sg17
S'Y'
sg14
I8
sg19
Nsg94
I4
sa(dp3004
g16
(lp3005
S'k'
asg18
S'Y'
sS'.thisRepN'
p3006
I24
sg20
S'Y'
sg31
g32
sS'.thisTrialN'
p3007
I9
sS'.thisN'
p3008
I369
sS'.thisIndex'
p3009
I14
sg15
(lp3010
S'k'
asg30
VF
sg17
S'Y'
sg14
I8
sg19
(lp3011
S'space'
p3012
asg94
I14
sa(dp3013
g16
(lp3014
S'd'
asg18
S'Y'
sS'.thisRepN'
p3015
I24
sg20
S'Y'
sg31
g32
sS'.thisTrialN'
p3016
I10
sS'.thisN'
p3017
I370
sS'.thisIndex'
p3018
I3
sg15
(lp3019
S'd'
asg30
VF
sg17
S'Y'
sg14
I8
sg19
(lp3020
S'space'
p3021
asg94
I3
sa(dp3022
g16
(lp3023
S'k'
asg18
S'Y'
sS'.thisRepN'
p3024
I24
sg20
S'Y'
sg31
g32
sS'.thisTrialN'
p3025
I11
sS'.thisN'
p3026
I371
sS'.thisIndex'
p3027
I9
sg15
(lp3028
S'd'
asg30
VF
sg17
S'N'
sg14
I8
sg19
(lp3029
S'space'
p3030
asg94
I9
sa(dp3031
g16
(lp3032
S'd'
asg18
S'Y'
sS'.thisRepN'
p3033
I24
sg20
S'N'
sg31
g32
sS'.thisTrialN'
p3034
I12
sS'.thisN'
p3035
I372
sS'.thisIndex'
p3036
I9
sg15
(lp3037
S'd'
asg30
VF
sg17
S'Y'
sg14
I8
sg19
Nsg94
I9
sa(dp3038
g16
(lp3039
S'k'
asg18
S'Y'
sS'.thisRepN'
p3040
I24
sg20
S'Y'
sg31
g32
sS'.thisTrialN'
p3041
I13
sS'.thisN'
p3042
I373
sS'.thisIndex'
p3043
I7
sg15
(lp3044
S'k'
asg30
VF
sg17
S'Y'
sg14
I8
sg19
(lp3045
S'space'
p3046
asg94
I7
sa(dp3047
g16
(lp3048
S'k'
asg18
S'Y'
sS'.thisRepN'
p3049
I24
sg20
S'Y'
sg31
g32
sS'.thisTrialN'
p3050
I14
sS'.thisN'
p3051
I374
sS'.thisIndex'
p3052
I9
sg15
(lp3053
S'k'
asg30
VF
sg17
S'Y'
sg14
I8
sg19
(lp3054
S'space'
p3055
asg94
I9
sa(dp3056
g16
(lp3057
S'd'
asg18
S'N'
sS'.thisRepN'
p3058
I25
sg20
S'N'
sg31
g32
sS'.thisTrialN'
p3059
I0
sS'.thisN'
p3060
I375
sS'.thisIndex'
p3061
I6
sg15
(lp3062
S'd'
asg30
VF
sg17
S'Y'
sg14
I8
sg19
(lp3063
S'space'
p3064
asg94
I6
sa(dp3065
g16
(lp3066
S'k'
asg18
S'N'
sS'.thisRepN'
p3067
I25
sg20
S'Y'
sg31
g32
sS'.thisTrialN'
p3068
I1
sS'.thisN'
p3069
I376
sS'.thisIndex'
p3070
I9
sg15
(lp3071
S'k'
asg30
VF
sg17
S'Y'
sg14
I8
sg19
Nsg94
I9
sa(dp3072
g16
(lp3073
S'k'
asg18
S'N'
sS'.thisRepN'
p3074
I25
sg20
S'Y'
sg31
g32
sS'.thisTrialN'
p3075
I2
sS'.thisN'
p3076
I377
sS'.thisIndex'
p3077
I1
sg15
(lp3078
S'k'
asg30
VF
sg17
S'Y'
sg14
I8
sg19
Nsg94
I1
sa(dp3079
g16
(lp3080
S'k'
asg18
S'Y'
sS'.thisRepN'
p3081
I25
sg20
S'Y'
sg31
g32
sS'.thisTrialN'
p3082
I3
sS'.thisN'
p3083
I378
sS'.thisIndex'
p3084
I11
sg15
(lp3085
S'k'
asg30
VF
sg17
S'Y'
sg14
I8
sg19
(lp3086
S'space'
p3087
asg94
I11
sa(dp3088
g16
(lp3089
S'k'
asg18
S'N'
sS'.thisRepN'
p3090
I25
sg20
S'Y'
sg31
g32
sS'.thisTrialN'
p3091
I4
sS'.thisN'
p3092
I379
sS'.thisIndex'
p3093
I4
sg15
(lp3094
S'k'
asg30
VF
sg17
S'Y'
sg14
I8
sg19
Nsg94
I4
sa(dp3095
g16
(lp3096
S'd'
asg18
S'Y'
sS'.thisRepN'
p3097
I25
sg20
S'Y'
sg31
g32
sS'.thisTrialN'
p3098
I5
sS'.thisN'
p3099
I380
sS'.thisIndex'
p3100
I1
sg15
(lp3101
S'd'
asg30
VF
sg17
S'Y'
sg14
I8
sg19
(lp3102
S'space'
p3103
asg94
I1
sa(dp3104
g16
(lp3105
S'd'
asg18
S'Y'
sS'.thisRepN'
p3106
I25
sg20
S'Y'
sg31
g32
sS'.thisTrialN'
p3107
I6
sS'.thisN'
p3108
I381
sS'.thisIndex'
p3109
I11
sg15
(lp3110
S'd'
asg30
VF
sg17
S'Y'
sg14
I8
sg19
(lp3111
S'space'
p3112
asg94
I11
sa(dp3113
g16
(lp3114
S'k'
asg18
S'N'
sS'.thisRepN'
p3115
I25
sg20
S'Y'
sg31
g32
sS'.thisTrialN'
p3116
I7
sS'.thisN'
p3117
I382
sS'.thisIndex'
p3118
I0
sg15
(lp3119
S'k'
asg30
VF
sg17
S'Y'
sg14
I8
sg19
Nsg94
I0
sa(dp3120
g16
(lp3121
S'd'
asg18
S'N'
sS'.thisRepN'
p3122
I25
sg20
S'Y'
sg31
g32
sS'.thisTrialN'
p3123
I8
sS'.thisN'
p3124
I383
sS'.thisIndex'
p3125
I1
sg15
(lp3126
S'd'
asg30
VF
sg17
S'Y'
sg14
I8
sg19
Nsg94
I1
sa(dp3127
g16
(lp3128
S'd'
asg18
S'N'
sS'.thisRepN'
p3129
I25
sg20
S'Y'
sg31
g32
sS'.thisTrialN'
p3130
I9
sS'.thisN'
p3131
I384
sS'.thisIndex'
p3132
I7
sg15
(lp3133
S'd'
asg30
VF
sg17
S'Y'
sg14
I8
sg19
Nsg94
I7
sa(dp3134
g16
(lp3135
S'k'
asg18
S'N'
sS'.thisRepN'
p3136
I25
sg20
S'Y'
sg31
g32
sS'.thisTrialN'
p3137
I10
sS'.thisN'
p3138
I385
sS'.thisIndex'
p3139
I1
sg15
(lp3140
S'k'
asg30
VF
sg17
S'Y'
sg14
I8
sg19
Nsg94
I1
sa(dp3141
g16
(lp3142
S'd'
asg18
S'N'
sS'.thisRepN'
p3143
I25
sg20
S'Y'
sg31
g32
sS'.thisTrialN'
p3144
I11
sS'.thisN'
p3145
I386
sS'.thisIndex'
p3146
I11
sg15
(lp3147
S'd'
asg30
VF
sg17
S'Y'
sg14
I8
sg19
Nsg94
I11
sa(dp3148
g16
(lp3149
S'd'
asg18
S'N'
sS'.thisRepN'
p3150
I25
sg20
S'Y'
sg31
g32
sS'.thisTrialN'
p3151
I12
sS'.thisN'
p3152
I387
sS'.thisIndex'
p3153
I6
sg15
(lp3154
S'd'
asg30
VF
sg17
S'Y'
sg14
I8
sg19
Nsg94
I6
sa(dp3155
g16
(lp3156
S'k'
asg18
S'N'
sS'.thisRepN'
p3157
I25
sg20
S'Y'
sg31
g32
sS'.thisTrialN'
p3158
I13
sS'.thisN'
p3159
I388
sS'.thisIndex'
p3160
I4
sg15
(lp3161
S'k'
asg30
VF
sg17
S'Y'
sg14
I8
sg19
Nsg94
I4
sa(dp3162
g16
(lp3163
S'k'
asg18
S'N'
sS'.thisRepN'
p3164
I25
sg20
S'N'
sg31
g32
sS'.thisTrialN'
p3165
I14
sS'.thisN'
p3166
I389
sS'.thisIndex'
p3167
I10
sg15
(lp3168
S'k'
asg30
VF
sg17
S'Y'
sg14
I8
sg19
(lp3169
S'space'
p3170
asg94
I10
sa(dp3171
g16
(lp3172
S'd'
asg18
S'N'
sS'.thisRepN'
p3173
I26
sg20
S'Y'
sg31
g32
sS'.thisTrialN'
p3174
I0
sS'.thisN'
p3175
I390
sS'.thisIndex'
p3176
I0
sg15
(lp3177
S'd'
asg30
VF
sg17
S'Y'
sg14
I8
sg19
Nsg94
I0
sa(dp3178
g16
(lp3179
S'd'
asg18
S'N'
sS'.thisRepN'
p3180
I26
sg20
S'Y'
sg31
g32
sS'.thisTrialN'
p3181
I1
sS'.thisN'
p3182
I391
sS'.thisIndex'
p3183
I7
sg15
(lp3184
S'd'
asg30
VF
sg17
S'Y'
sg14
I8
sg19
Nsg94
I7
sa(dp3185
g16
(lp3186
S'k'
asg18
S'Y'
sS'.thisRepN'
p3187
I26
sg20
S'N'
sg31
g32
sS'.thisTrialN'
p3188
I2
sS'.thisN'
p3189
I392
sS'.thisIndex'
p3190
I12
sg15
(lp3191
S'k'
asg30
VF
sg17
S'Y'
sg14
I8
sg19
Nsg94
I12
sa(dp3192
g16
(lp3193
S'd'
asg18
S'Y'
sS'.thisRepN'
p3194
I26
sg20
S'Y'
sg31
g32
sS'.thisTrialN'
p3195
I3
sS'.thisN'
p3196
I393
sS'.thisIndex'
p3197
I3
sg15
(lp3198
S'd'
asg30
VF
sg17
S'Y'
sg14
I8
sg19
(lp3199
S'space'
p3200
asg94
I3
sa(dp3201
g16
(lp3202
S'd'
asg18
S'N'
sS'.thisRepN'
p3203
I26
sg20
S'Y'
sg31
g32
sS'.thisTrialN'
p3204
I4
sS'.thisN'
p3205
I394
sS'.thisIndex'
p3206
I11
sg15
(lp3207
S'd'
asg30
VF
sg17
S'Y'
sg14
I8
sg19
Nsg94
I11
sa(dp3208
g16
(lp3209
S'k'
asg18
S'Y'
sS'.thisRepN'
p3210
I26
sg20
S'N'
sg31
g32
sS'.thisTrialN'
p3211
I5
sS'.thisN'
p3212
I395
sS'.thisIndex'
p3213
I14
sg15
(lp3214
S'k'
asg30
VF
sg17
S'Y'
sg14
I8
sg19
Nsg94
I14
sa(dp3215
g16
(lp3216
S'd'
asg18
S'N'
sS'.thisRepN'
p3217
I26
sg20
S'N'
sg31
g32
sS'.thisTrialN'
p3218
I6
sS'.thisN'
p3219
I396
sS'.thisIndex'
p3220
I3
sg15
(lp3221
S'd'
asg30
VF
sg17
S'Y'
sg14
I8
sg19
(lp3222
S'space'
p3223
asg94
I3
sa(dp3224
g16
(lp3225
S'd'
asg18
S'N'
sS'.thisRepN'
p3226
I26
sg20
S'Y'
sg31
g32
sS'.thisTrialN'
p3227
I7
sS'.thisN'
p3228
I397
sS'.thisIndex'
p3229
I6
sg15
(lp3230
S'd'
asg30
VF
sg17
S'Y'
sg14
I8
sg19
Nsg94
I6
sa(dp3231
g16
(lp3232
S'd'
asg18
S'Y'
sS'.thisRepN'
p3233
I26
sg20
S'Y'
sg31
g32
sS'.thisTrialN'
p3234
I8
sS'.thisN'
p3235
I398
sS'.thisIndex'
p3236
I14
sg15
(lp3237
S'd'
asg30
VF
sg17
S'Y'
sg14
I8
sg19
(lp3238
S'space'
p3239
asg94
I14
sa(dp3240
g16
(lp3241
S'k'
asg18
S'Y'
sg22
I42
sS'.thisN'
p3242
I399
sg20
S'Y'
sg31
g32
sS'.thisTrialN'
p3243
I9
sS'.thisRepN'
p3244
I26
sg21
I48
sS'.thisIndex'
p3245
I7
sg23
I21
sg15
(lp3246
S'k'
asg30
VF
sg17
S'Y'
sg14
I8
sg19
(lp3247
S'space'
p3248
asg94
I7
sa(dp3249
g16
(lp3250
S'd'
asg94
I13
sS'.thisRepN'
p3251
I26
sg30
VF
sg31
g32
sS'.thisTrialN'
p3252
I10
sS'.thisN'
p3253
I400
sS'.thisIndex'
p3254
I13
sg15
(lp3255
S'd'
asg17
S'Y'
sg14
I9
sa(dp3256
g16
(lp3257
S'd'
asg94
I8
sS'.thisRepN'
p3258
I26
sg30
VF
sg31
g32
sS'.thisTrialN'
p3259
I11
sS'.thisN'
p3260
I401
sS'.thisIndex'
p3261
I8
sg15
(lp3262
S'd'
asg17
S'Y'
sg14
I9
sa(dp3263
g16
(lp3264
S'k'
asg18
S'N'
sS'.thisRepN'
p3265
I26
sg20
S'Y'
sg31
g32
sS'.thisTrialN'
p3266
I12
sS'.thisN'
p3267
I402
sS'.thisIndex'
p3268
I7
sg15
(lp3269
S'k'
asg30
VF
sg17
S'Y'
sg14
I9
sg19
Nsg94
I7
sa(dp3270
g16
(lp3271
S'd'
asg18
S'Y'
sS'.thisRepN'
p3272
I26
sg20
S'Y'
sg31
g32
sS'.thisTrialN'
p3273
I13
sS'.thisN'
p3274
I403
sS'.thisIndex'
p3275
I9
sg15
(lp3276
S'd'
asg30
VF
sg17
S'Y'
sg14
I9
sg19
(lp3277
S'space'
p3278
asg94
I9
sa(dp3279
g16
(lp3280
S'd'
asg18
S'Y'
sS'.thisRepN'
p3281
I26
sg20
S'Y'
sg31
g32
sS'.thisTrialN'
p3282
I14
sS'.thisN'
p3283
I404
sS'.thisIndex'
p3284
I5
sg15
(lp3285
S'd'
asg30
VF
sg17
S'Y'
sg14
I9
sg19
(lp3286
S'space'
p3287
asg94
I5
sa(dp3288
g16
(lp3289
S'd'
asg18
S'N'
sS'.thisRepN'
p3290
I27
sg20
S'Y'
sg31
g32
sS'.thisTrialN'
p3291
I0
sS'.thisN'
p3292
I405
sS'.thisIndex'
p3293
I8
sg15
(lp3294
S'd'
asg30
VF
sg17
S'Y'
sg14
I9
sg19
Nsg94
I8
sa(dp3295
g16
(lp3296
S'k'
asg18
S'N'
sS'.thisRepN'
p3297
I27
sg20
S'Y'
sg31
g32
sS'.thisTrialN'
p3298
I1
sS'.thisN'
p3299
I406
sS'.thisIndex'
p3300
I1
sg15
(lp3301
S'k'
asg30
VF
sg17
S'Y'
sg14
I9
sg19
Nsg94
I1
sa(dp3302
g16
(lp3303
S'd'
asg18
S'Y'
sS'.thisRepN'
p3304
I27
sg20
S'Y'
sg31
g32
sS'.thisTrialN'
p3305
I2
sS'.thisN'
p3306
I407
sS'.thisIndex'
p3307
I7
sg15
(lp3308
S'd'
asg30
VF
sg17
S'Y'
sg14
I9
sg19
(lp3309
S'space'
p3310
asg94
I7
sa(dp3311
g16
(lp3312
S'k'
asg18
S'Y'
sS'.thisRepN'
p3313
I27
sg20
S'Y'
sg31
g32
sS'.thisTrialN'
p3314
I3
sS'.thisN'
p3315
I408
sS'.thisIndex'
p3316
I7
sg15
(lp3317
S'k'
asg30
VF
sg17
S'Y'
sg14
I9
sg19
(lp3318
S'space'
p3319
asg94
I7
sa(dp3320
g16
(lp3321
S'd'
asg18
S'N'
sS'.thisRepN'
p3322
I27
sg20
S'Y'
sg31
g32
sS'.thisTrialN'
p3323
I4
sS'.thisN'
p3324
I409
sS'.thisIndex'
p3325
I1
sg15
(lp3326
S'd'
asg30
VF
sg17
S'Y'
sg14
I9
sg19
Nsg94
I1
sa(dp3327
g16
(lp3328
S'd'
asg18
S'Y'
sS'.thisRepN'
p3329
I27
sg20
S'Y'
sg31
g32
sS'.thisTrialN'
p3330
I5
sS'.thisN'
p3331
I410
sS'.thisIndex'
p3332
I7
sg15
(lp3333
S'd'
asg30
VF
sg17
S'Y'
sg14
I9
sg19
(lp3334
S'space'
p3335
asg94
I7
sa(dp3336
g16
(lp3337
S'k'
asg18
S'Y'
sS'.thisRepN'
p3338
I27
sg20
S'Y'
sg31
g32
sS'.thisTrialN'
p3339
I6
sS'.thisN'
p3340
I411
sS'.thisIndex'
p3341
I4
sg15
(lp3342
S'k'
asg30
VF
sg17
S'Y'
sg14
I9
sg19
(lp3343
S'space'
p3344
asg94
I4
sa(dp3345
g16
(lp3346
S'd'
asg18
S'Y'
sS'.thisRepN'
p3347
I27
sg20
S'Y'
sg31
g32
sS'.thisTrialN'
p3348
I7
sS'.thisN'
p3349
I412
sS'.thisIndex'
p3350
I2
sg15
(lp3351
S'd'
asg30
VF
sg17
S'Y'
sg14
I9
sg19
(lp3352
S'space'
p3353
asg94
I2
sa(dp3354
g16
(lp3355
S'k'
asg18
S'N'
sS'.thisRepN'
p3356
I27
sg20
S'Y'
sg31
g32
sS'.thisTrialN'
p3357
I8
sS'.thisN'
p3358
I413
sS'.thisIndex'
p3359
I0
sg15
(lp3360
S'k'
asg30
VF
sg17
S'Y'
sg14
I9
sg19
Nsg94
I0
sa(dp3361
g16
(lp3362
S'k'
asg18
S'Y'
sS'.thisRepN'
p3363
I27
sg20
S'Y'
sg31
g32
sS'.thisTrialN'
p3364
I9
sS'.thisN'
p3365
I414
sS'.thisIndex'
p3366
I8
sg15
(lp3367
S'k'
asg30
VF
sg17
S'Y'
sg14
I9
sg19
(lp3368
S'space'
p3369
asg94
I8
sa(dp3370
g16
(lp3371
S'k'
asg18
S'N'
sS'.thisRepN'
p3372
I27
sg20
S'Y'
sg31
g32
sS'.thisTrialN'
p3373
I10
sS'.thisN'
p3374
I415
sS'.thisIndex'
p3375
I3
sg15
(lp3376
S'k'
asg30
VF
sg17
S'Y'
sg14
I9
sg19
Nsg94
I3
sa(dp3377
g16
(lp3378
S'k'
asg18
S'Y'
sS'.thisRepN'
p3379
I27
sg20
S'Y'
sg31
g32
sS'.thisTrialN'
p3380
I11
sS'.thisN'
p3381
I416
sS'.thisIndex'
p3382
I12
sg15
(lp3383
S'k'
asg30
VF
sg17
S'Y'
sg14
I9
sg19
(lp3384
S'space'
p3385
asg94
I12
sa(dp3386
g16
(lp3387
S'k'
asg18
S'N'
sS'.thisRepN'
p3388
I27
sg20
S'Y'
sg31
g32
sS'.thisTrialN'
p3389
I12
sS'.thisN'
p3390
I417
sS'.thisIndex'
p3391
I9
sg15
(lp3392
S'k'
asg30
VF
sg17
S'Y'
sg14
I9
sg19
Nsg94
I9
sa(dp3393
g16
(lp3394
S'k'
asg18
S'Y'
sS'.thisRepN'
p3395
I27
sg20
S'Y'
sg31
g32
sS'.thisTrialN'
p3396
I13
sS'.thisN'
p3397
I418
sS'.thisIndex'
p3398
I14
sg15
(lp3399
S'k'
asg30
VF
sg17
S'Y'
sg14
I9
sg19
(lp3400
S'space'
p3401
asg94
I14
sa(dp3402
g16
(lp3403
S'd'
asg18
S'N'
sS'.thisRepN'
p3404
I27
sg20
S'Y'
sg31
g32
sS'.thisTrialN'
p3405
I14
sS'.thisN'
p3406
I419
sS'.thisIndex'
p3407
I13
sg15
(lp3408
S'd'
asg30
VF
sg17
S'Y'
sg14
I9
sg19
Nsg94
I13
sa(dp3409
g16
(lp3410
S'd'
asg18
S'Y'
sS'.thisRepN'
p3411
I28
sg20
S'Y'
sg31
g32
sS'.thisTrialN'
p3412
I0
sS'.thisN'
p3413
I420
sS'.thisIndex'
p3414
I13
sg15
(lp3415
S'd'
asg30
VF
sg17
S'Y'
sg14
I9
sg19
(lp3416
S'space'
p3417
asg94
I13
sa(dp3418
g16
(lp3419
S'k'
asg18
S'N'
sS'.thisRepN'
p3420
I28
sg20
S'Y'
sg31
g32
sS'.thisTrialN'
p3421
I1
sS'.thisN'
p3422
I421
sS'.thisIndex'
p3423
I3
sg15
(lp3424
S'k'
asg30
VF
sg17
S'Y'
sg14
I9
sg19
Nsg94
I3
sa(dp3425
g16
(lp3426
S'k'
asg18
S'N'
sS'.thisRepN'
p3427
I28
sg20
S'Y'
sg31
g32
sS'.thisTrialN'
p3428
I2
sS'.thisN'
p3429
I422
sS'.thisIndex'
p3430
I11
sg15
(lp3431
S'k'
asg30
VF
sg17
S'Y'
sg14
I9
sg19
Nsg94
I11
sa(dp3432
g16
(lp3433
S'd'
asg18
S'N'
sS'.thisRepN'
p3434
I28
sg20
S'N'
sg31
g32
sS'.thisTrialN'
p3435
I3
sS'.thisN'
p3436
I423
sS'.thisIndex'
p3437
I0
sg15
(lp3438
S'd'
asg30
VF
sg17
S'Y'
sg14
I9
sg19
(lp3439
S'space'
p3440
asg94
I0
sa(dp3441
g16
(lp3442
S'd'
asg18
S'N'
sS'.thisRepN'
p3443
I28
sg20
S'Y'
sg31
g32
sS'.thisTrialN'
p3444
I4
sS'.thisN'
p3445
I424
sS'.thisIndex'
p3446
I8
sg15
(lp3447
S'd'
asg30
VF
sg17
S'Y'
sg14
I9
sg19
Nsg94
I8
sa(dp3448
g16
(lp3449
S'k'
asg18
S'N'
sS'.thisRepN'
p3450
I28
sg20
S'Y'
sg31
g32
sS'.thisTrialN'
p3451
I5
sS'.thisN'
p3452
I425
sS'.thisIndex'
p3453
I10
sg15
(lp3454
S'k'
asg30
VF
sg17
S'Y'
sg14
I9
sg19
Nsg94
I10
sa(dp3455
g16
(lp3456
S'd'
asg18
S'Y'
sS'.thisRepN'
p3457
I28
sg20
S'Y'
sg31
g32
sS'.thisTrialN'
p3458
I6
sS'.thisN'
p3459
I426
sS'.thisIndex'
p3460
I6
sg15
(lp3461
S'd'
asg30
VF
sg17
S'Y'
sg14
I9
sg19
(lp3462
S'space'
p3463
asg94
I6
sa(dp3464
g16
(lp3465
S'k'
asg18
S'Y'
sS'.thisRepN'
p3466
I28
sg20
S'Y'
sg31
g32
sS'.thisTrialN'
p3467
I7
sS'.thisN'
p3468
I427
sS'.thisIndex'
p3469
I12
sg15
(lp3470
S'k'
asg30
VF
sg17
S'Y'
sg14
I9
sg19
(lp3471
S'space'
p3472
asg94
I12
sa(dp3473
g16
(lp3474
S'd'
asg18
S'Y'
sS'.thisRepN'
p3475
I28
sg20
S'Y'
sg31
g32
sS'.thisTrialN'
p3476
I8
sS'.thisN'
p3477
I428
sS'.thisIndex'
p3478
I7
sg15
(lp3479
S'd'
asg30
VF
sg17
S'Y'
sg14
I9
sg19
(lp3480
S'space'
p3481
asg94
I7
sa(dp3482
g16
(lp3483
S'k'
asg18
S'N'
sS'.thisRepN'
p3484
I28
sg20
S'Y'
sg31
g32
sS'.thisTrialN'
p3485
I9
sS'.thisN'
p3486
I429
sS'.thisIndex'
p3487
I6
sg15
(lp3488
S'k'
asg30
VF
sg17
S'Y'
sg14
I9
sg19
Nsg94
I6
sa(dp3489
g16
(lp3490
S'd'
asg18
S'Y'
sS'.thisRepN'
p3491
I28
sg20
S'Y'
sg31
g32
sS'.thisTrialN'
p3492
I10
sS'.thisN'
p3493
I430
sS'.thisIndex'
p3494
I11
sg15
(lp3495
S'd'
asg30
VF
sg17
S'Y'
sg14
I9
sg19
(lp3496
S'space'
p3497
asg94
I11
sa(dp3498
g16
(lp3499
S'k'
asg18
S'Y'
sS'.thisRepN'
p3500
I28
sg20
S'Y'
sg31
g32
sS'.thisTrialN'
p3501
I11
sS'.thisN'
p3502
I431
sS'.thisIndex'
p3503
I5
sg15
(lp3504
S'k'
asg30
VF
sg17
S'Y'
sg14
I9
sg19
(lp3505
S'space'
p3506
asg94
I5
sa(dp3507
g16
(lp3508
S'k'
asg18
S'N'
sS'.thisRepN'
p3509
I28
sg20
S'Y'
sg31
g32
sS'.thisTrialN'
p3510
I12
sS'.thisN'
p3511
I432
sS'.thisIndex'
p3512
I0
sg15
(lp3513
S'k'
asg30
VF
sg17
S'Y'
sg14
I9
sg19
Nsg94
I0
sa(dp3514
g16
(lp3515
S'd'
asg18
S'N'
sS'.thisRepN'
p3516
I28
sg20
S'Y'
sg31
g32
sS'.thisTrialN'
p3517
I13
sS'.thisN'
p3518
I433
sS'.thisIndex'
p3519
I10
sg15
(lp3520
S'd'
asg30
VF
sg17
S'Y'
sg14
I9
sg19
Nsg94
I10
sa(dp3521
g16
(lp3522
S'd'
asg18
S'N'
sS'.thisRepN'
p3523
I28
sg20
S'Y'
sg31
g32
sS'.thisTrialN'
p3524
I14
sS'.thisN'
p3525
I434
sS'.thisIndex'
p3526
I12
sg15
(lp3527
S'd'
asg30
VF
sg17
S'Y'
sg14
I9
sg19
Nsg94
I12
sa(dp3528
g16
(lp3529
S'd'
asg18
S'Y'
sS'.thisRepN'
p3530
I29
sg20
S'Y'
sg31
g32
sS'.thisTrialN'
p3531
I0
sS'.thisN'
p3532
I435
sS'.thisIndex'
p3533
I3
sg15
(lp3534
S'd'
asg30
VF
sg17
S'Y'
sg14
I9
sg19
(lp3535
S'space'
p3536
asg94
I3
sa(dp3537
g16
(lp3538
S'd'
asg18
S'N'
sS'.thisRepN'
p3539
I29
sg20
S'N'
sg31
g32
sS'.thisTrialN'
p3540
I1
sS'.thisN'
p3541
I436
sS'.thisIndex'
p3542
I8
sg15
(lp3543
S'd'
asg30
VF
sg17
S'Y'
sg14
I9
sg19
(lp3544
S'space'
p3545
asg94
I8
sa(dp3546
g16
(lp3547
S'd'
asg18
S'Y'
sS'.thisRepN'
p3548
I29
sg20
S'Y'
sg31
g32
sS'.thisTrialN'
p3549
I2
sS'.thisN'
p3550
I437
sS'.thisIndex'
p3551
I13
sg15
(lp3552
S'd'
asg30
VF
sg17
S'Y'
sg14
I9
sg19
(lp3553
S'space'
p3554
asg94
I13
sa(dp3555
g16
(lp3556
S'k'
asg18
S'Y'
sS'.thisRepN'
p3557
I29
sg20
S'Y'
sg31
g32
sS'.thisTrialN'
p3558
I3
sS'.thisN'
p3559
I438
sS'.thisIndex'
p3560
I3
sg15
(lp3561
S'k'
asg30
VF
sg17
S'Y'
sg14
I9
sg19
(lp3562
S'space'
p3563
asg94
I3
sa(dp3564
g16
(lp3565
S'k'
asg18
S'Y'
sS'.thisRepN'
p3566
I29
sg20
S'Y'
sg31
g32
sS'.thisTrialN'
p3567
I4
sS'.thisN'
p3568
I439
sS'.thisIndex'
p3569
I7
sg15
(lp3570
S'd'
asg30
VF
sg17
S'N'
sg14
I9
sg19
(lp3571
S'space'
p3572
asg94
I7
sa(dp3573
g16
(lp3574
S'k'
asg18
S'N'
sS'.thisRepN'
p3575
I29
sg20
S'Y'
sg31
g32
sS'.thisTrialN'
p3576
I5
sS'.thisN'
p3577
I440
sS'.thisIndex'
p3578
I9
sg15
(lp3579
S'k'
asg30
VF
sg17
S'Y'
sg14
I9
sg19
Nsg94
I9
sa(dp3580
g16
(lp3581
S'k'
asg18
S'N'
sS'.thisRepN'
p3582
I29
sg20
S'Y'
sg31
g32
sS'.thisTrialN'
p3583
I6
sS'.thisN'
p3584
I441
sS'.thisIndex'
p3585
I12
sg15
(lp3586
S'k'
asg30
VF
sg17
S'Y'
sg14
I9
sg19
Nsg94
I12
sa(dp3587
g16
(lp3588
S'k'
asg18
S'N'
sS'.thisRepN'
p3589
I29
sg20
S'Y'
sg31
g32
sS'.thisTrialN'
p3590
I7
sS'.thisN'
p3591
I442
sS'.thisIndex'
p3592
I9
sg15
(lp3593
S'k'
asg30
VF
sg17
S'Y'
sg14
I9
sg19
Nsg94
I9
sa(dp3594
g16
(lp3595
S'd'
asg18
S'Y'
sS'.thisRepN'
p3596
I29
sg20
S'Y'
sg31
g32
sS'.thisTrialN'
p3597
I8
sS'.thisN'
p3598
I443
sS'.thisIndex'
p3599
I5
sg15
(lp3600
S'd'
asg30
VF
sg17
S'Y'
sg14
I9
sg19
(lp3601
S'space'
p3602
asg94
I5
sa(dp3603
g16
(lp3604
S'd'
asg18
S'Y'
sS'.thisRepN'
p3605
I29
sg20
S'Y'
sg31
g32
sS'.thisTrialN'
p3606
I9
sS'.thisN'
p3607
I444
sS'.thisIndex'
p3608
I0
sg15
(lp3609
S'k'
asg30
VF
sg17
S'N'
sg14
I9
sg19
(lp3610
S'space'
p3611
asg94
I0
sa(dp3612
g16
(lp3613
S'd'
asg18
S'Y'
sS'.thisRepN'
p3614
I29
sg20
S'Y'
sg31
g32
sS'.thisTrialN'
p3615
I10
sS'.thisN'
p3616
I445
sS'.thisIndex'
p3617
I9
sg15
(lp3618
S'd'
asg30
VF
sg17
S'Y'
sg14
I9
sg19
(lp3619
S'space'
p3620
asg94
I9
sa(dp3621
g16
(lp3622
S'd'
asg18
S'Y'
sS'.thisRepN'
p3623
I29
sg20
S'Y'
sg31
g32
sS'.thisTrialN'
p3624
I11
sS'.thisN'
p3625
I446
sS'.thisIndex'
p3626
I0
sg15
(lp3627
S'd'
asg30
VF
sg17
S'Y'
sg14
I9
sg19
(lp3628
S'space'
p3629
asg94
I0
sa(dp3630
g16
(lp3631
S'k'
asg18
S'Y'
sS'.thisRepN'
p3632
I29
sg20
S'Y'
sg31
g32
sS'.thisTrialN'
p3633
I12
sS'.thisN'
p3634
I447
sS'.thisIndex'
p3635
I0
sg15
(lp3636
S'k'
asg30
VF
sg17
S'Y'
sg14
I9
sg19
(lp3637
S'space'
p3638
asg94
I0
sa(dp3639
g16
(lp3640
S'k'
asg18
S'N'
sS'.thisRepN'
p3641
I29
sg20
S'Y'
sg31
g32
sS'.thisTrialN'
p3642
I13
sS'.thisN'
p3643
I448
sS'.thisIndex'
p3644
I9
sg15
(lp3645
S'd'
asg30
VF
sg17
S'N'
sg14
I9
sg19
Nsg94
I9
sa(dp3646
g16
(lp3647
S'd'
asg18
S'N'
sg22
I45
sS'.thisN'
p3648
I449
sg20
S'N'
sg31
g32
sS'.thisTrialN'
p3649
I14
sS'.thisRepN'
p3650
I29
sg21
I47
sS'.thisIndex'
p3651
I0
sg23
I25
sg15
(lp3652
S'd'
asg30
VF
sg17
S'Y'
sg14
I9
sg19
(lp3653
S'space'
p3654
asg94
I0
sa(dp3655
g16
(lp3656
S'k'
asg94
I7
sS'.thisRepN'
p3657
I30
sg30
VF
sg31
g32
sS'.thisTrialN'
p3658
I0
sS'.thisN'
p3659
I450
sS'.thisIndex'
p3660
I7
sg15
(lp3661
S'k'
asg17
S'Y'
sg14
I10
sa(dp3662
g16
(lp3663
S'k'
asg94
I1
sS'.thisRepN'
p3664
I30
sg30
VF
sg31
g32
sS'.thisTrialN'
p3665
I1
sS'.thisN'
p3666
I451
sS'.thisIndex'
p3667
I1
sg15
(lp3668
S'k'
asg17
S'Y'
sg14
I10
sa(dp3669
g16
(lp3670
S'd'
asg18
S'Y'
sS'.thisRepN'
p3671
I30
sg20
S'Y'
sg31
g32
sS'.thisTrialN'
p3672
I2
sS'.thisN'
p3673
I452
sS'.thisIndex'
p3674
I6
sg15
(lp3675
S'd'
asg30
VF
sg17
S'Y'
sg14
I10
sg19
(lp3676
S'space'
p3677
asg94
I6
sa(dp3678
g16
(lp3679
S'k'
asg18
S'Y'
sS'.thisRepN'
p3680
I30
sg20
S'Y'
sg31
g32
sS'.thisTrialN'
p3681
I3
sS'.thisN'
p3682
I453
sS'.thisIndex'
p3683
I6
sg15
(lp3684
S'k'
asg30
VF
sg17
S'Y'
sg14
I10
sg19
(lp3685
S'space'
p3686
asg94
I6
sa(dp3687
g16
(lp3688
S'd'
asg18
S'N'
sS'.thisRepN'
p3689
I30
sg20
S'Y'
sg31
g32
sS'.thisTrialN'
p3690
I4
sS'.thisN'
p3691
I454
sS'.thisIndex'
p3692
I12
sg15
(lp3693
S'd'
asg30
VF
sg17
S'Y'
sg14
I10
sg19
Nsg94
I12
sa(dp3694
g16
(lp3695
S'd'
asg18
S'Y'
sS'.thisRepN'
p3696
I30
sg20
S'Y'
sg31
g32
sS'.thisTrialN'
p3697
I5
sS'.thisN'
p3698
I455
sS'.thisIndex'
p3699
I8
sg15
(lp3700
S'd'
asg30
VF
sg17
S'Y'
sg14
I10
sg19
(lp3701
S'space'
p3702
asg94
I8
sa(dp3703
g16
(lp3704
S'k'
asg18
S'N'
sS'.thisRepN'
p3705
I30
sg20
S'Y'
sg31
g32
sS'.thisTrialN'
p3706
I6
sS'.thisN'
p3707
I456
sS'.thisIndex'
p3708
I13
sg15
(lp3709
S'd'
asg30
VF
sg17
S'N'
sg14
I10
sg19
Nsg94
I13
sa(dp3710
g16
(lp3711
S'k'
asg18
S'Y'
sS'.thisRepN'
p3712
I30
sg20
S'Y'
sg31
g32
sS'.thisTrialN'
p3713
I7
sS'.thisN'
p3714
I457
sS'.thisIndex'
p3715
I5
sg15
(lp3716
S'k'
asg30
VF
sg17
S'Y'
sg14
I10
sg19
(lp3717
S'space'
p3718
asg94
I5
sa(dp3719
g16
(lp3720
S'k'
asg18
S'Y'
sS'.thisRepN'
p3721
I30
sg20
S'Y'
sg31
g32
sS'.thisTrialN'
p3722
I8
sS'.thisN'
p3723
I458
sS'.thisIndex'
p3724
I6
sg15
(lp3725
S'k'
asg30
VF
sg17
S'Y'
sg14
I10
sg19
(lp3726
S'space'
p3727
asg94
I6
sa(dp3728
g16
(lp3729
S'k'
asg18
S'N'
sS'.thisRepN'
p3730
I30
sg20
S'Y'
sg31
g32
sS'.thisTrialN'
p3731
I9
sS'.thisN'
p3732
I459
sS'.thisIndex'
p3733
I5
sg15
(lp3734
S'k'
asg30
VF
sg17
S'Y'
sg14
I10
sg19
Nsg94
I5
sa(dp3735
g16
(lp3736
S'k'
asg18
S'N'
sS'.thisRepN'
p3737
I30
sg20
S'Y'
sg31
g32
sS'.thisTrialN'
p3738
I10
sS'.thisN'
p3739
I460
sS'.thisIndex'
p3740
I12
sg15
(lp3741
S'k'
asg30
VF
sg17
S'Y'
sg14
I10
sg19
Nsg94
I12
sa(dp3742
g16
(lp3743
S'd'
asg18
S'N'
sS'.thisRepN'
p3744
I30
sg20
S'Y'
sg31
g32
sS'.thisTrialN'
p3745
I11
sS'.thisN'
p3746
I461
sS'.thisIndex'
p3747
I12
sg15
(lp3748
S'd'
asg30
VF
sg17
S'Y'
sg14
I10
sg19
Nsg94
I12
sa(dp3749
g16
(lp3750
S'd'
asg18
S'Y'
sS'.thisRepN'
p3751
I30
sg20
S'N'
sg31
g32
sS'.thisTrialN'
p3752
I12
sS'.thisN'
p3753
I462
sS'.thisIndex'
p3754
I14
sg15
(lp3755
S'd'
asg30
VF
sg17
S'Y'
sg14
I10
sg19
Nsg94
I14
sa(dp3756
g16
(lp3757
S'k'
asg18
S'N'
sS'.thisRepN'
p3758
I30
sg20
S'Y'
sg31
g32
sS'.thisTrialN'
p3759
I13
sS'.thisN'
p3760
I463
sS'.thisIndex'
p3761
I3
sg15
(lp3762
S'k'
asg30
VF
sg17
S'Y'
sg14
I10
sg19
Nsg94
I3
sa(dp3763
g16
(lp3764
S'k'
asg18
S'Y'
sS'.thisRepN'
p3765
I30
sg20
S'Y'
sg31
g32
sS'.thisTrialN'
p3766
I14
sS'.thisN'
p3767
I464
sS'.thisIndex'
p3768
I4
sg15
(lp3769
S'd'
asg30
VF
sg17
S'N'
sg14
I10
sg19
(lp3770
S'space'
p3771
asg94
I4
sa(dp3772
g16
(lp3773
S'd'
asg18
S'N'
sS'.thisRepN'
p3774
I31
sg20
S'Y'
sg31
g32
sS'.thisTrialN'
p3775
I0
sS'.thisN'
p3776
I465
sS'.thisIndex'
p3777
I11
sg15
(lp3778
S'd'
asg30
VF
sg17
S'Y'
sg14
I10
sg19
Nsg94
I11
sa(dp3779
g16
(lp3780
S'd'
asg18
S'Y'
sS'.thisRepN'
p3781
I31
sg20
S'Y'
sg31
g32
sS'.thisTrialN'
p3782
I1
sS'.thisN'
p3783
I466
sS'.thisIndex'
p3784
I7
sg15
(lp3785
S'd'
asg30
VF
sg17
S'Y'
sg14
I10
sg19
(lp3786
S'space'
p3787
asg94
I7
sa(dp3788
g16
(lp3789
S'k'
asg18
S'Y'
sS'.thisRepN'
p3790
I31
sg20
S'Y'
sg31
g32
sS'.thisTrialN'
p3791
I2
sS'.thisN'
p3792
I467
sS'.thisIndex'
p3793
I0
sg15
(lp3794
S'k'
asg30
VF
sg17
S'Y'
sg14
I10
sg19
(lp3795
S'space'
p3796
asg94
I0
sa(dp3797
g16
(lp3798
S'd'
asg18
S'N'
sS'.thisRepN'
p3799
I31
sg20
S'N'
sg31
g32
sS'.thisTrialN'
p3800
I3
sS'.thisN'
p3801
I468
sS'.thisIndex'
p3802
I8
sg15
(lp3803
S'd'
asg30
VF
sg17
S'Y'
sg14
I10
sg19
(lp3804
S'space'
p3805
asg94
I8
sa(dp3806
g16
(lp3807
S'k'
asg18
S'N'
sS'.thisRepN'
p3808
I31
sg20
S'Y'
sg31
g32
sS'.thisTrialN'
p3809
I4
sS'.thisN'
p3810
I469
sS'.thisIndex'
p3811
I7
sg15
(lp3812
S'k'
asg30
VF
sg17
S'Y'
sg14
I10
sg19
Nsg94
I7
sa(dp3813
g16
(lp3814
S'k'
asg18
S'Y'
sS'.thisRepN'
p3815
I31
sg20
S'Y'
sg31
g32
sS'.thisTrialN'
p3816
I5
sS'.thisN'
p3817
I470
sS'.thisIndex'
p3818
I8
sg15
(lp3819
S'k'
asg30
VF
sg17
S'Y'
sg14
I10
sg19
(lp3820
S'space'
p3821
asg94
I8
sa(dp3822
g16
(lp3823
S'k'
asg18
S'N'
sS'.thisRepN'
p3824
I31
sg20
S'Y'
sg31
g32
sS'.thisTrialN'
p3825
I6
sS'.thisN'
p3826
I471
sS'.thisIndex'
p3827
I11
sg15
(lp3828
S'd'
asg30
VF
sg17
S'N'
sg14
I10
sg19
Nsg94
I11
sa(dp3829
g16
(lp3830
S'k'
asg18
S'N'
sS'.thisRepN'
p3831
I31
sg20
S'Y'
sg31
g32
sS'.thisTrialN'
p3832
I7
sS'.thisN'
p3833
I472
sS'.thisIndex'
p3834
I7
sg15
(lp3835
S'k'
asg30
VF
sg17
S'Y'
sg14
I10
sg19
Nsg94
I7
sa(dp3836
g16
(lp3837
S'k'
asg18
S'Y'
sS'.thisRepN'
p3838
I31
sg20
S'Y'
sg31
g32
sS'.thisTrialN'
p3839
I8
sS'.thisN'
p3840
I473
sS'.thisIndex'
p3841
I2
sg15
(lp3842
S'k'
asg30
VF
sg17
S'Y'
sg14
I10
sg19
(lp3843
S'space'
p3844
asg94
I2
sa(dp3845
g16
(lp3846
S'k'
asg18
S'N'
sS'.thisRepN'
p3847
I31
sg20
S'Y'
sg31
g32
sS'.thisTrialN'
p3848
I9
sS'.thisN'
p3849
I474
sS'.thisIndex'
p3850
I3
sg15
(lp3851
S'k'
asg30
VF
sg17
S'Y'
sg14
I10
sg19
Nsg94
I3
sa(dp3852
g16
(lp3853
S'd'
asg18
S'N'
sS'.thisRepN'
p3854
I31
sg20
S'Y'
sg31
g32
sS'.thisTrialN'
p3855
I10
sS'.thisN'
p3856
I475
sS'.thisIndex'
p3857
I2
sg15
(lp3858
S'd'
asg30
VF
sg17
S'Y'
sg14
I10
sg19
Nsg94
I2
sa(dp3859
g16
(lp3860
S'd'
asg18
S'Y'
sS'.thisRepN'
p3861
I31
sg20
S'Y'
sg31
g32
sS'.thisTrialN'
p3862
I11
sS'.thisN'
p3863
I476
sS'.thisIndex'
p3864
I3
sg15
(lp3865
S'd'
asg30
VF
sg17
S'Y'
sg14
I10
sg19
(lp3866
S'space'
p3867
asg94
I3
sa(dp3868
g16
(lp3869
S'd'
asg18
S'N'
sS'.thisRepN'
p3870
I31
sg20
S'Y'
sg31
g32
sS'.thisTrialN'
p3871
I12
sS'.thisN'
p3872
I477
sS'.thisIndex'
p3873
I2
sg15
(lp3874
S'd'
asg30
VF
sg17
S'Y'
sg14
I10
sg19
Nsg94
I2
sa(dp3875
g16
(lp3876
S'd'
asg18
S'Y'
sS'.thisRepN'
p3877
I31
sg20
S'Y'
sg31
g32
sS'.thisTrialN'
p3878
I13
sS'.thisN'
p3879
I478
sS'.thisIndex'
p3880
I13
sg15
(lp3881
S'd'
asg30
VF
sg17
S'Y'
sg14
I10
sg19
(lp3882
S'space'
p3883
asg94
I13
sa(dp3884
g16
(lp3885
S'k'
asg18
S'N'
sS'.thisRepN'
p3886
I31
sg20
S'Y'
sg31
g32
sS'.thisTrialN'
p3887
I14
sS'.thisN'
p3888
I479
sS'.thisIndex'
p3889
I4
sg15
(lp3890
S'k'
asg30
VF
sg17
S'Y'
sg14
I10
sg19
Nsg94
I4
sa(dp3891
g16
(lp3892
S'd'
asg18
S'N'
sS'.thisRepN'
p3893
I32
sg20
S'Y'
sg31
g32
sS'.thisTrialN'
p3894
I0
sS'.thisN'
p3895
I480
sS'.thisIndex'
p3896
I10
sg15
(lp3897
S'k'
asg30
VF
sg17
S'N'
sg14
I10
sg19
Nsg94
I10
sa(dp3898
g16
(lp3899
S'd'
asg18
S'Y'
sS'.thisRepN'
p3900
I32
sg20
S'Y'
sg31
g32
sS'.thisTrialN'
p3901
I1
sS'.thisN'
p3902
I481
sS'.thisIndex'
p3903
I7
sg15
(lp3904
S'd'
asg30
VF
sg17
S'Y'
sg14
I10
sg19
(lp3905
S'space'
p3906
asg94
I7
sa(dp3907
g16
(lp3908
S'k'
asg18
S'N'
sS'.thisRepN'
p3909
I32
sg20
S'Y'
sg31
g32
sS'.thisTrialN'
p3910
I2
sS'.thisN'
p3911
I482
sS'.thisIndex'
p3912
I8
sg15
(lp3913
S'k'
asg30
VF
sg17
S'Y'
sg14
I10
sg19
Nsg94
I8
sa(dp3914
g16
(lp3915
S'k'
asg18
S'Y'
sS'.thisRepN'
p3916
I32
sg20
S'Y'
sg31
g32
sS'.thisTrialN'
p3917
I3
sS'.thisN'
p3918
I483
sS'.thisIndex'
p3919
I1
sg15
(lp3920
S'k'
asg30
VF
sg17
S'Y'
sg14
I10
sg19
(lp3921
S'space'
p3922
asg94
I1
sa(dp3923
g16
(lp3924
S'k'
asg18
S'Y'
sS'.thisRepN'
p3925
I32
sg20
S'Y'
sg31
g32
sS'.thisTrialN'
p3926
I4
sS'.thisN'
p3927
I484
sS'.thisIndex'
p3928
I13
sg15
(lp3929
S'k'
asg30
VF
sg17
S'Y'
sg14
I10
sg19
(lp3930
S'space'
p3931
asg94
I13
sa(dp3932
g16
(lp3933
S'd'
asg18
S'Y'
sS'.thisRepN'
p3934
I32
sg20
S'Y'
sg31
g32
sS'.thisTrialN'
p3935
I5
sS'.thisN'
p3936
I485
sS'.thisIndex'
p3937
I14
sg15
(lp3938
S'd'
asg30
VF
sg17
S'Y'
sg14
I10
sg19
(lp3939
S'space'
p3940
asg94
I14
sa(dp3941
g16
(lp3942
S'k'
asg18
S'N'
sS'.thisRepN'
p3943
I32
sg20
S'Y'
sg31
g32
sS'.thisTrialN'
p3944
I6
sS'.thisN'
p3945
I486
sS'.thisIndex'
p3946
I5
sg15
(lp3947
S'k'
asg30
VF
sg17
S'Y'
sg14
I10
sg19
Nsg94
I5
sa(dp3948
g16
(lp3949
S'k'
asg18
S'Y'
sS'.thisRepN'
p3950
I32
sg20
S'Y'
sg31
g32
sS'.thisTrialN'
p3951
I7
sS'.thisN'
p3952
I487
sS'.thisIndex'
p3953
I1
sg15
(lp3954
S'k'
asg30
VF
sg17
S'Y'
sg14
I10
sg19
(lp3955
S'space'
p3956
asg94
I1
sa(dp3957
g16
(lp3958
S'd'
asg18
S'N'
sS'.thisRepN'
p3959
I32
sg20
S'Y'
sg31
g32
sS'.thisTrialN'
p3960
I8
sS'.thisN'
p3961
I488
sS'.thisIndex'
p3962
I6
sg15
(lp3963
S'd'
asg30
VF
sg17
S'Y'
sg14
I10
sg19
Nsg94
I6
sa(dp3964
g16
(lp3965
S'k'
asg18
S'N'
sS'.thisRepN'
p3966
I32
sg20
S'Y'
sg31
g32
sS'.thisTrialN'
p3967
I9
sS'.thisN'
p3968
I489
sS'.thisIndex'
p3969
I10
sg15
(lp3970
S'k'
asg30
VF
sg17
S'Y'
sg14
I10
sg19
Nsg94
I10
sa(dp3971
g16
(lp3972
S'd'
asg18
S'Y'
sS'.thisRepN'
p3973
I32
sg20
S'N'
sg31
g32
sS'.thisTrialN'
p3974
I10
sS'.thisN'
p3975
I490
sS'.thisIndex'
p3976
I2
sg15
(lp3977
S'd'
asg30
VF
sg17
S'Y'
sg14
I10
sg19
Nsg94
I2
sa(dp3978
g16
(lp3979
S'd'
asg18
S'Y'
sS'.thisRepN'
p3980
I32
sg20
S'Y'
sg31
g32
sS'.thisTrialN'
p3981
I11
sS'.thisN'
p3982
I491
sS'.thisIndex'
p3983
I5
sg15
(lp3984
S'd'
asg30
VF
sg17
S'Y'
sg14
I10
sg19
(lp3985
S'space'
p3986
asg94
I5
sa(dp3987
g16
(lp3988
S'd'
asg18
S'N'
sS'.thisRepN'
p3989
I32
sg20
S'Y'
sg31
g32
sS'.thisTrialN'
p3990
I12
sS'.thisN'
p3991
I492
sS'.thisIndex'
p3992
I6
sg15
(lp3993
S'd'
asg30
VF
sg17
S'Y'
sg14
I10
sg19
Nsg94
I6
sa(dp3994
g16
(lp3995
S'd'
asg18
S'N'
sS'.thisRepN'
p3996
I32
sg20
S'Y'
sg31
g32
sS'.thisTrialN'
p3997
I13
sS'.thisN'
p3998
I493
sS'.thisIndex'
p3999
I2
sg15
(lp4000
S'd'
asg30
VF
sg17
S'Y'
sg14
I10
sg19
Nsg94
I2
sa(dp4001
g16
(lp4002
S'k'
asg18
S'N'
sS'.thisRepN'
p4003
I32
sg20
S'Y'
sg31
g32
sS'.thisTrialN'
p4004
I14
sS'.thisN'
p4005
I494
sS'.thisIndex'
p4006
I2
sg15
(lp4007
S'k'
asg30
VF
sg17
S'Y'
sg14
I10
sg19
Nsg94
I2
sa(dp4008
g16
(lp4009
S'k'
asg18
S'Y'
sS'.thisRepN'
p4010
I33
sg20
S'Y'
sg31
g32
sS'.thisTrialN'
p4011
I0
sS'.thisN'
p4012
I495
sS'.thisIndex'
p4013
I10
sg15
(lp4014
S'k'
asg30
VF
sg17
S'Y'
sg14
I10
sg19
(lp4015
S'space'
p4016
asg94
I10
sa(dp4017
g16
(lp4018
S'k'
asg18
S'Y'
sS'.thisRepN'
p4019
I33
sg20
S'Y'
sg31
g32
sS'.thisTrialN'
p4020
I1
sS'.thisN'
p4021
I496
sS'.thisIndex'
p4022
I6
sg15
(lp4023
S'k'
asg30
VF
sg17
S'Y'
sg14
I10
sg19
(lp4024
S'space'
p4025
asg94
I6
sa(dp4026
g16
(lp4027
S'd'
asg18
S'N'
sS'.thisRepN'
p4028
I33
sg20
S'Y'
sg31
g32
sS'.thisTrialN'
p4029
I2
sS'.thisN'
p4030
I497
sS'.thisIndex'
p4031
I1
sg15
(lp4032
S'd'
asg30
VF
sg17
S'Y'
sg14
I10
sg19
Nsg94
I1
sa(dp4033
g16
(lp4034
S'd'
asg18
S'Y'
sS'.thisRepN'
p4035
I33
sg20
S'Y'
sg31
g32
sS'.thisTrialN'
p4036
I3
sS'.thisN'
p4037
I498
sS'.thisIndex'
p4038
I14
sg15
(lp4039
S'd'
asg30
VF
sg17
S'Y'
sg14
I10
sg19
(lp4040
S'space'
p4041
asg94
I14
sa(dp4042
g16
(lp4043
S'k'
asg18
S'N'
sg22
I45
sS'.thisN'
p4044
I499
sg20
S'Y'
sg31
g32
sS'.thisTrialN'
p4045
I4
sS'.thisRepN'
p4046
I33
sg21
I46
sS'.thisIndex'
p4047
I11
sg23
I23
sg15
(lp4048
S'k'
asg30
VF
sg17
S'Y'
sg14
I10
sg19
Nsg94
I11
sa(dp4049
g16
(lp4050
S'd'
asS'.thisIndex'
p4051
I7
sS'.thisRepN'
p4052
I33
sg26
S'Y'
sg30
VF
sg31
g32
sS'.thisTrialN'
p4053
I5
sS'.thisN'
p4054
I500
sg25
S'Y'
sg24
S'Y'
sg15
(lp4055
S'k'
asg17
S'Y'
sg14
I11
sg94
I7
sa(dp4056
g16
(lp4057
S'd'
asS'.thisIndex'
p4058
I6
sS'.thisRepN'
p4059
I33
sg26
S'Y'
sg30
VF
sg31
g32
sS'.thisTrialN'
p4060
I6
sS'.thisN'
p4061
I501
sg25
S'Y'
sg15
(lp4062
S'k'
asg17
S'Y'
sg14
I11
sg94
I6
sa(dp4063
g16
(lp4064
S'k'
asg18
S'N'
sS'.thisRepN'
p4065
I33
sg26
S'Y'
sg20
S'Y'
sg31
g32
sS'.thisTrialN'
p4066
I7
sS'.thisN'
p4067
I502
sg25
S'Y'
sg15
(lp4068
S'd'
asg30
VF
sg17
S'Y'
sg14
I11
sg19
Nsg94
I7
sS'.thisIndex'
p4069
I7
sa(dp4070
g16
(lp4071
S'k'
asg18
S'Y'
sS'.thisRepN'
p4072
I33
sg26
S'Y'
sg20
S'N'
sg31
g32
sS'.thisTrialN'
p4073
I8
sS'.thisN'
p4074
I503
sg25
S'Y'
sg15
(lp4075
S'k'
asg30
VF
sg17
S'N'
sg14
I11
sg19
(lp4076
S'k'
asg94
I14
sS'.thisIndex'
p4077
I14
sa(dp4078
g16
(lp4079
S'k'
asg18
S'Y'
sS'.thisRepN'
p4080
I33
sg26
S'Y'
sg20
S'Y'
sg31
g32
sS'.thisTrialN'
p4081
I9
sS'.thisN'
p4082
I504
sg25
S'Y'
sg15
(lp4083
S'd'
asg30
VF
sg17
S'Y'
sg14
I11
sg19
(lp4084
S'space'
p4085
asg94
I3
sS'.thisIndex'
p4086
I3
sa(dp4087
g16
(lp4088
S'd'
asg18
S'N'
sS'.thisRepN'
p4089
I33
sg26
S'Y'
sg20
S'N'
sg31
g32
sS'.thisTrialN'
p4090
I10
sS'.thisN'
p4091
I505
sg25
S'Y'
sg15
(lp4092
S'k'
asg30
VF
sg17
S'Y'
sg14
I11
sg19
(lp4093
S'space'
p4094
asg94
I0
sS'.thisIndex'
p4095
I0
sa(dp4096
g16
(lp4097
S'd'
asg18
S'N'
sS'.thisRepN'
p4098
I33
sg26
S'Y'
sg20
S'Y'
sg31
g32
sS'.thisTrialN'
p4099
I11
sS'.thisN'
p4100
I506
sg25
S'Y'
sg15
(lp4101
S'k'
asg30
VF
sg17
S'Y'
sg14
I11
sg19
Nsg94
I5
sS'.thisIndex'
p4102
I5
sa(dp4103
g16
(lp4104
S'k'
asg18
S'N'
sS'.thisRepN'
p4105
I33
sg26
S'Y'
sg20
S'Y'
sg31
g32
sS'.thisTrialN'
p4106
I12
sS'.thisN'
p4107
I507
sg25
S'Y'
sg15
(lp4108
S'd'
asg30
VF
sg17
S'Y'
sg14
I11
sg19
Nsg94
I4
sS'.thisIndex'
p4109
I4
sa(dp4110
g16
(lp4111
S'd'
asg18
S'N'
sS'.thisRepN'
p4112
I33
sg26
S'Y'
sg20
S'Y'
sg31
g32
sS'.thisTrialN'
p4113
I13
sS'.thisN'
p4114
I508
sg25
S'Y'
sg15
(lp4115
S'k'
asg30
VF
sg17
S'Y'
sg14
I11
sg19
Nsg94
I10
sS'.thisIndex'
p4116
I10
sa(dp4117
g16
(lp4118
S'd'
asg18
S'Y'
sS'.thisRepN'
p4119
I33
sg26
S'Y'
sg20
S'Y'
sg31
g32
sS'.thisTrialN'
p4120
I14
sS'.thisN'
p4121
I509
sg25
S'Y'
sg15
(lp4122
S'k'
asg30
VF
sg17
S'Y'
sg14
I11
sg19
(lp4123
S'space'
p4124
asg94
I12
sS'.thisIndex'
p4125
I12
sa(dp4126
g16
(lp4127
S'k'
asg18
S'Y'
sS'.thisRepN'
p4128
I34
sg26
S'Y'
sg20
S'Y'
sg31
g32
sS'.thisTrialN'
p4129
I0
sS'.thisN'
p4130
I510
sg25
S'Y'
sg15
(lp4131
S'd'
asg30
VF
sg17
S'Y'
sg14
I11
sg19
(lp4132
S'space'
p4133
asg94
I4
sS'.thisIndex'
p4134
I4
sa(dp4135
g16
(lp4136
S'd'
asg18
S'Y'
sS'.thisRepN'
p4137
I34
sg26
S'Y'
sg20
S'Y'
sg31
g32
sS'.thisTrialN'
p4138
I1
sS'.thisN'
p4139
I511
sg25
S'Y'
sg15
(lp4140
S'k'
asg30
VF
sg17
S'Y'
sg14
I11
sg19
(lp4141
S'space'
p4142
asg94
I4
sS'.thisIndex'
p4143
I4
sa(dp4144
g16
(lp4145
S'k'
asg18
S'Y'
sS'.thisRepN'
p4146
I34
sg26
S'Y'
sg20
S'Y'
sg31
g32
sS'.thisTrialN'
p4147
I2
sS'.thisN'
p4148
I512
sg25
S'Y'
sg15
(lp4149
S'd'
asg30
VF
sg17
S'Y'
sg14
I11
sg19
(lp4150
S'space'
p4151
asg94
I8
sS'.thisIndex'
p4152
I8
sa(dp4153
g16
(lp4154
S'd'
asg18
S'N'
sS'.thisRepN'
p4155
I34
sg26
S'Y'
sg20
S'Y'
sg31
g32
sS'.thisTrialN'
p4156
I3
sS'.thisN'
p4157
I513
sg25
S'Y'
sg15
(lp4158
S'k'
asg30
VF
sg17
S'Y'
sg14
I11
sg19
Nsg94
I7
sS'.thisIndex'
p4159
I7
sa(dp4160
g16
(lp4161
S'd'
asg18
S'Y'
sS'.thisRepN'
p4162
I34
sg26
S'Y'
sg20
S'Y'
sg31
g32
sS'.thisTrialN'
p4163
I4
sS'.thisN'
p4164
I514
sg25
S'Y'
sg15
(lp4165
S'k'
asg30
VF
sg17
S'Y'
sg14
I11
sg19
(lp4166
S'space'
p4167
asg94
I14
sS'.thisIndex'
p4168
I14
sa(dp4169
g16
(lp4170
S'k'
asg18
S'N'
sS'.thisRepN'
p4171
I34
sg26
S'Y'
sg20
S'Y'
sg31
g32
sS'.thisTrialN'
p4172
I5
sS'.thisN'
p4173
I515
sg25
S'Y'
sg15
(lp4174
S'd'
asg30
VF
sg17
S'Y'
sg14
I11
sg19
Nsg94
I5
sS'.thisIndex'
p4175
I5
sa(dp4176
g16
(lp4177
S'k'
asg18
S'Y'
sS'.thisRepN'
p4178
I34
sg26
S'Y'
sg20
S'Y'
sg31
g32
sS'.thisTrialN'
p4179
I6
sS'.thisN'
p4180
I516
sg25
S'Y'
sg15
(lp4181
S'd'
asg30
VF
sg17
S'Y'
sg14
I11
sg19
(lp4182
S'space'
p4183
asg94
I3
sS'.thisIndex'
p4184
I3
sa(dp4185
g16
(lp4186
S'k'
asg18
S'Y'
sS'.thisRepN'
p4187
I34
sg26
S'Y'
sg20
S'Y'
sg31
g32
sS'.thisTrialN'
p4188
I7
sS'.thisN'
p4189
I517
sg25
S'Y'
sg15
(lp4190
S'd'
asg30
VF
sg17
S'Y'
sg14
I11
sg19
(lp4191
S'space'
p4192
asg94
I6
sS'.thisIndex'
p4193
I6
sa(dp4194
g16
(lp4195
S'k'
asg18
S'N'
sS'.thisRepN'
p4196
I34
sg26
S'Y'
sg20
S'Y'
sg31
g32
sS'.thisTrialN'
p4197
I8
sS'.thisN'
p4198
I518
sg25
S'Y'
sg15
(lp4199
S'd'
asg30
VF
sg17
S'Y'
sg14
I11
sg19
Nsg94
I0
sS'.thisIndex'
p4200
I0
sa(dp4201
g16
(lp4202
S'd'
asg18
S'Y'
sS'.thisRepN'
p4203
I34
sg26
S'Y'
sg20
S'Y'
sg31
g32
sS'.thisTrialN'
p4204
I9
sS'.thisN'
p4205
I519
sg25
S'Y'
sg15
(lp4206
S'k'
asg30
VF
sg17
S'Y'
sg14
I11
sg19
(lp4207
S'space'
p4208
asg94
I14
sS'.thisIndex'
p4209
I14
sa(dp4210
g16
(lp4211
S'd'
asg18
S'N'
sS'.thisRepN'
p4212
I34
sg26
S'Y'
sg20
S'Y'
sg31
g32
sS'.thisTrialN'
p4213
I10
sS'.thisN'
p4214
I520
sg25
S'Y'
sg15
(lp4215
S'k'
asg30
VF
sg17
S'Y'
sg14
I11
sg19
Nsg94
I7
sS'.thisIndex'
p4216
I7
sa(dp4217
g16
(lp4218
S'd'
asg18
S'Y'
sS'.thisRepN'
p4219
I34
sg26
S'Y'
sg20
S'Y'
sg31
g32
sS'.thisTrialN'
p4220
I11
sS'.thisN'
p4221
I521
sg25
S'Y'
sg15
(lp4222
S'k'
asg30
VF
sg17
S'Y'
sg14
I11
sg19
(lp4223
S'space'
p4224
asg94
I4
sS'.thisIndex'
p4225
I4
sa(dp4226
g16
(lp4227
S'd'
asg18
S'N'
sS'.thisRepN'
p4228
I34
sg26
S'Y'
sg20
S'Y'
sg31
g32
sS'.thisTrialN'
p4229
I12
sS'.thisN'
p4230
I522
sg25
S'Y'
sg15
(lp4231
S'k'
asg30
VF
sg17
S'Y'
sg14
I11
sg19
Nsg94
I3
sS'.thisIndex'
p4232
I3
sa(dp4233
g16
(lp4234
S'd'
asg18
S'N'
sS'.thisRepN'
p4235
I34
sg26
S'Y'
sg20
S'N'
sg31
g32
sS'.thisTrialN'
p4236
I13
sS'.thisN'
p4237
I523
sg25
S'Y'
sg15
(lp4238
S'k'
asg30
VF
sg17
S'Y'
sg14
I11
sg19
(lp4239
S'space'
p4240
asg94
I0
sS'.thisIndex'
p4241
I0
sa(dp4242
g16
(lp4243
S'k'
asg18
S'N'
sS'.thisRepN'
p4244
I34
sg26
S'Y'
sg20
S'Y'
sg31
g32
sS'.thisTrialN'
p4245
I14
sS'.thisN'
p4246
I524
sg25
S'Y'
sg15
(lp4247
S'd'
asg30
VF
sg17
S'Y'
sg14
I11
sg19
Nsg94
I7
sS'.thisIndex'
p4248
I7
sa(dp4249
g16
(lp4250
S'd'
asg18
S'Y'
sS'.thisRepN'
p4251
I35
sg26
S'Y'
sg20
S'Y'
sg31
g32
sS'.thisTrialN'
p4252
I0
sS'.thisN'
p4253
I525
sg25
S'Y'
sg15
(lp4254
S'k'
asg30
VF
sg17
S'Y'
sg14
I11
sg19
(lp4255
S'space'
p4256
asg94
I4
sS'.thisIndex'
p4257
I4
sa(dp4258
g16
(lp4259
S'd'
asg18
S'N'
sS'.thisRepN'
p4260
I35
sg26
S'Y'
sg20
S'Y'
sg31
g32
sS'.thisTrialN'
p4261
I1
sS'.thisN'
p4262
I526
sg25
S'Y'
sg15
(lp4263
S'k'
asg30
VF
sg17
S'Y'
sg14
I11
sg19
Nsg94
I14
sS'.thisIndex'
p4264
I14
sa(dp4265
g16
(lp4266
S'k'
asg18
S'N'
sS'.thisRepN'
p4267
I35
sg26
S'Y'
sg20
S'Y'
sg31
g32
sS'.thisTrialN'
p4268
I2
sS'.thisN'
p4269
I527
sg25
S'Y'
sg15
(lp4270
S'd'
asg30
VF
sg17
S'Y'
sg14
I11
sg19
Nsg94
I13
sS'.thisIndex'
p4271
I13
sa(dp4272
g16
(lp4273
S'k'
asg18
S'Y'
sS'.thisRepN'
p4274
I35
sg26
S'Y'
sg20
S'Y'
sg31
g32
sS'.thisTrialN'
p4275
I3
sS'.thisN'
p4276
I528
sg25
S'Y'
sg15
(lp4277
S'd'
asg30
VF
sg17
S'Y'
sg14
I11
sg19
(lp4278
S'space'
p4279
asg94
I8
sS'.thisIndex'
p4280
I8
sa(dp4281
g16
(lp4282
S'k'
asg18
S'Y'
sS'.thisRepN'
p4283
I35
sg26
S'Y'
sg20
S'Y'
sg31
g32
sS'.thisTrialN'
p4284
I4
sS'.thisN'
p4285
I529
sg25
S'Y'
sg15
(lp4286
S'd'
asg30
VF
sg17
S'Y'
sg14
I11
sg19
(lp4287
S'space'
p4288
asg94
I4
sS'.thisIndex'
p4289
I4
sa(dp4290
g16
(lp4291
S'd'
asg18
S'N'
sS'.thisRepN'
p4292
I35
sg26
S'Y'
sg20
S'Y'
sg31
g32
sS'.thisTrialN'
p4293
I5
sS'.thisN'
p4294
I530
sg25
S'Y'
sg15
(lp4295
S'k'
asg30
VF
sg17
S'Y'
sg14
I11
sg19
Nsg94
I14
sS'.thisIndex'
p4296
I14
sa(dp4297
g16
(lp4298
S'k'
asg18
S'N'
sS'.thisRepN'
p4299
I35
sg26
S'Y'
sg20
S'Y'
sg31
g32
sS'.thisTrialN'
p4300
I6
sS'.thisN'
p4301
I531
sg25
S'Y'
sg15
(lp4302
S'd'
asg30
VF
sg17
S'Y'
sg14
I11
sg19
Nsg94
I14
sS'.thisIndex'
p4303
I14
sa(dp4304
g16
(lp4305
S'k'
asg18
S'N'
sS'.thisRepN'
p4306
I35
sg26
S'Y'
sg20
S'Y'
sg31
g32
sS'.thisTrialN'
p4307
I7
sS'.thisN'
p4308
I532
sg25
S'Y'
sg15
(lp4309
S'd'
asg30
VF
sg17
S'Y'
sg14
I11
sg19
Nsg94
I7
sS'.thisIndex'
p4310
I7
sa(dp4311
g16
(lp4312
S'd'
asg18
S'Y'
sS'.thisRepN'
p4313
I35
sg26
S'Y'
sg20
S'Y'
sg31
g32
sS'.thisTrialN'
p4314
I8
sS'.thisN'
p4315
I533
sg25
S'Y'
sg15
(lp4316
S'k'
asg30
VF
sg17
S'Y'
sg14
I11
sg19
(lp4317
S'space'
p4318
asg94
I6
sS'.thisIndex'
p4319
I6
sa(dp4320
g16
(lp4321
S'd'
asg18
S'N'
sS'.thisRepN'
p4322
I35
sg26
S'Y'
sg20
S'Y'
sg31
g32
sS'.thisTrialN'
p4323
I9
sS'.thisN'
p4324
I534
sg25
S'Y'
sg15
(lp4325
S'k'
asg30
VF
sg17
S'Y'
sg14
I11
sg19
Nsg94
I0
sS'.thisIndex'
p4326
I0
sa(dp4327
g16
(lp4328
S'k'
asg18
S'N'
sS'.thisRepN'
p4329
I35
sg26
S'Y'
sg20
S'Y'
sg31
g32
sS'.thisTrialN'
p4330
I10
sS'.thisN'
p4331
I535
sg25
S'Y'
sg15
(lp4332
S'd'
asg30
VF
sg17
S'Y'
sg14
I11
sg19
Nsg94
I0
sS'.thisIndex'
p4333
I0
sa(dp4334
g16
(lp4335
S'k'
asg18
S'N'
sS'.thisRepN'
p4336
I35
sg26
S'Y'
sg20
S'Y'
sg31
g32
sS'.thisTrialN'
p4337
I11
sS'.thisN'
p4338
I536
sg25
S'Y'
sg15
(lp4339
S'd'
asg30
VF
sg17
S'Y'
sg14
I11
sg19
Nsg94
I9
sS'.thisIndex'
p4340
I9
sa(dp4341
g16
(lp4342
S'd'
asg18
S'N'
sS'.thisRepN'
p4343
I35
sg26
S'Y'
sg20
S'Y'
sg31
g32
sS'.thisTrialN'
p4344
I12
sS'.thisN'
p4345
I537
sg25
S'Y'
sg15
(lp4346
S'k'
asg30
VF
sg17
S'Y'
sg14
I11
sg19
Nsg94
I10
sS'.thisIndex'
p4347
I10
sa(dp4348
g16
(lp4349
S'k'
asg18
S'Y'
sS'.thisRepN'
p4350
I35
sg26
S'Y'
sg20
S'Y'
sg31
g32
sS'.thisTrialN'
p4351
I13
sS'.thisN'
p4352
I538
sg25
S'Y'
sg15
(lp4353
S'd'
asg30
VF
sg17
S'Y'
sg14
I11
sg19
(lp4354
S'space'
p4355
asg94
I12
sS'.thisIndex'
p4356
I12
sa(dp4357
g16
(lp4358
S'k'
asg18
S'N'
sS'.thisRepN'
p4359
I35
sg26
S'Y'
sg20
S'Y'
sg31
g32
sS'.thisTrialN'
p4360
I14
sS'.thisN'
p4361
I539
sg25
S'Y'
sg15
(lp4362
S'd'
asg30
VF
sg17
S'Y'
sg14
I11
sg19
Nsg94
I6
sS'.thisIndex'
p4363
I6
sa(dp4364
g16
(lp4365
S'k'
asg18
S'Y'
sS'.thisRepN'
p4366
I36
sg26
S'Y'
sg20
S'Y'
sg31
g32
sS'.thisTrialN'
p4367
I0
sS'.thisN'
p4368
I540
sg25
S'Y'
sg15
(lp4369
S'd'
asg30
VF
sg17
S'Y'
sg14
I11
sg19
(lp4370
S'space'
p4371
asg94
I13
sS'.thisIndex'
p4372
I13
sa(dp4373
g16
(lp4374
S'd'
asg18
S'Y'
sS'.thisRepN'
p4375
I36
sg26
S'Y'
sg20
S'Y'
sg31
g32
sS'.thisTrialN'
p4376
I1
sS'.thisN'
p4377
I541
sg25
S'Y'
sg15
(lp4378
S'k'
asg30
VF
sg17
S'Y'
sg14
I11
sg19
(lp4379
S'space'
p4380
asg94
I0
sS'.thisIndex'
p4381
I0
sa(dp4382
g16
(lp4383
S'd'
asg18
S'Y'
sS'.thisRepN'
p4384
I36
sg26
S'Y'
sg20
S'Y'
sg31
g32
sS'.thisTrialN'
p4385
I2
sS'.thisN'
p4386
I542
sg25
S'Y'
sg15
(lp4387
S'k'
asg30
VF
sg17
S'Y'
sg14
I11
sg19
(lp4388
S'space'
p4389
asg94
I14
sS'.thisIndex'
p4390
I14
sa(dp4391
g16
(lp4392
S'k'
asg18
S'N'
sS'.thisRepN'
p4393
I36
sg26
S'Y'
sg20
S'Y'
sg31
g32
sS'.thisTrialN'
p4394
I3
sS'.thisN'
p4395
I543
sg25
S'Y'
sg15
(lp4396
S'd'
asg30
VF
sg17
S'Y'
sg14
I11
sg19
Nsg94
I2
sS'.thisIndex'
p4397
I2
sa(dp4398
g16
(lp4399
S'k'
asg18
S'Y'
sS'.thisRepN'
p4400
I36
sg26
S'Y'
sg20
S'Y'
sg31
g32
sS'.thisTrialN'
p4401
I4
sS'.thisN'
p4402
I544
sg25
S'Y'
sg15
(lp4403
S'd'
asg30
VF
sg17
S'Y'
sg14
I11
sg19
(lp4404
S'space'
p4405
asg94
I9
sS'.thisIndex'
p4406
I9
sa(dp4407
g16
(lp4408
S'k'
asg18
S'Y'
sS'.thisRepN'
p4409
I36
sg26
S'Y'
sg20
S'Y'
sg31
g32
sS'.thisTrialN'
p4410
I5
sS'.thisN'
p4411
I545
sg25
S'Y'
sg15
(lp4412
S'd'
asg30
VF
sg17
S'Y'
sg14
I11
sg19
(lp4413
S'space'
p4414
asg94
I10
sS'.thisIndex'
p4415
I10
sa(dp4416
g16
(lp4417
S'd'
asg18
S'Y'
sS'.thisRepN'
p4418
I36
sg26
S'Y'
sg20
S'Y'
sg31
g32
sS'.thisTrialN'
p4419
I6
sS'.thisN'
p4420
I546
sg25
S'Y'
sg15
(lp4421
S'k'
asg30
VF
sg17
S'Y'
sg14
I11
sg19
(lp4422
S'space'
p4423
asg94
I7
sS'.thisIndex'
p4424
I7
sa(dp4425
g16
(lp4426
S'k'
asg18
S'Y'
sS'.thisRepN'
p4427
I36
sg26
S'Y'
sg20
S'Y'
sg31
g32
sS'.thisTrialN'
p4428
I7
sS'.thisN'
p4429
I547
sg25
S'Y'
sg15
(lp4430
S'd'
asg30
VF
sg17
S'Y'
sg14
I11
sg19
(lp4431
S'space'
p4432
asg94
I12
sS'.thisIndex'
p4433
I12
sa(dp4434
g16
(lp4435
S'k'
asg18
S'N'
sS'.thisRepN'
p4436
I36
sg26
S'Y'
sg20
S'Y'
sg31
g32
sS'.thisTrialN'
p4437
I8
sS'.thisN'
p4438
I548
sg25
S'Y'
sg15
(lp4439
S'd'
asg30
VF
sg17
S'Y'
sg14
I11
sg19
Nsg94
I3
sS'.thisIndex'
p4440
I3
sa(dp4441
g16
(lp4442
S'k'
asg18
S'Y'
sg22
I45
sg26
S'Y'
sS'.thisN'
p4443
I549
sg20
S'Y'
sg31
g32
sS'.thisTrialN'
p4444
I9
sS'.thisRepN'
p4445
I36
sg21
I49
sg25
S'Y'
sg23
I24
sg15
(lp4446
S'd'
asg30
VF
sg17
S'Y'
sg14
I11
sg19
(lp4447
S'space'
p4448
asg94
I0
sS'.thisIndex'
p4449
I0
sa(dp4450
g16
(lp4451
S'd'
asS'.thisIndex'
p4452
I13
sS'.thisRepN'
p4453
I36
sg26
S'Y'
sg30
VF
sg31
g32
sS'.thisTrialN'
p4454
I10
sS'.thisN'
p4455
I550
sg25
S'Y'
sg15
(lp4456
S'k'
asg17
S'Y'
sg14
I12
sg94
I13
sa(dp4457
g16
(lp4458
S'd'
asS'.thisIndex'
p4459
I1
sS'.thisRepN'
p4460
I36
sg26
S'Y'
sg30
VF
sg31
g32
sS'.thisTrialN'
p4461
I11
sS'.thisN'
p4462
I551
sg25
S'Y'
sg15
(lp4463
S'k'
asg17
S'Y'
sg14
I12
sg94
I1
sa(dp4464
g16
(lp4465
S'd'
asg18
S'N'
sS'.thisRepN'
p4466
I36
sg26
S'Y'
sg20
S'Y'
sg31
g32
sS'.thisTrialN'
p4467
I12
sS'.thisN'
p4468
I552
sg25
S'Y'
sg15
(lp4469
S'k'
asg30
VF
sg17
S'Y'
sg14
I12
sg19
Nsg94
I11
sS'.thisIndex'
p4470
I11
sa(dp4471
g16
(lp4472
S'k'
asg18
S'N'
sS'.thisRepN'
p4473
I36
sg26
S'Y'
sg20
S'Y'
sg31
g32
sS'.thisTrialN'
p4474
I13
sS'.thisN'
p4475
I553
sg25
S'Y'
sg15
(lp4476
S'd'
asg30
VF
sg17
S'Y'
sg14
I12
sg19
Nsg94
I4
sS'.thisIndex'
p4477
I4
sa(dp4478
g18
S'Y'
sS'.thisRepN'
p4479
I36
sg26
S'Y'
sg20
S'Y'
sg31
g32
sS'.thisTrialN'
p4480
I14
sS'.thisN'
p4481
I554
sg25
S'Y'
sg15
Nsg30
VF
sg17
S'Timed out'
p4482
sg14
I12
sg19
(lp4483
S'space'
p4484
asg94
I5
sS'.thisIndex'
p4485
I5
sa(dp4486
g16
(lp4487
S'k'
asg18
S'N'
sS'.thisRepN'
p4488
I37
sg26
S'Y'
sg20
S'N'
sg31
g32
sS'.thisTrialN'
p4489
I0
sS'.thisN'
p4490
I555
sg25
S'Y'
sg15
(lp4491
S'd'
asg30
VF
sg17
S'Y'
sg14
I12
sg19
(lp4492
S'space'
p4493
asg94
I14
sS'.thisIndex'
p4494
I14
sa(dp4495
g16
(lp4496
S'd'
asg18
S'Y'
sS'.thisRepN'
p4497
I37
sg26
S'Y'
sg20
S'Y'
sg31
g32
sS'.thisTrialN'
p4498
I1
sS'.thisN'
p4499
I556
sg25
S'Y'
sg15
(lp4500
S'k'
asg30
VF
sg17
S'Y'
sg14
I12
sg19
(lp4501
S'space'
p4502
asg94
I2
sS'.thisIndex'
p4503
I2
sa(dp4504
g16
(lp4505
S'k'
asg18
S'N'
sS'.thisRepN'
p4506
I37
sg26
S'Y'
sg20
S'Y'
sg31
g32
sS'.thisTrialN'
p4507
I2
sS'.thisN'
p4508
I557
sg25
S'Y'
sg15
(lp4509
S'd'
asg30
VF
sg17
S'Y'
sg14
I12
sg19
Nsg94
I8
sS'.thisIndex'
p4510
I8
sa(dp4511
g16
(lp4512
S'k'
asg18
S'Y'
sS'.thisRepN'
p4513
I37
sg26
S'Y'
sg20
S'Y'
sg31
g32
sS'.thisTrialN'
p4514
I3
sS'.thisN'
p4515
I558
sg25
S'Y'
sg15
(lp4516
S'd'
asg30
VF
sg17
S'Y'
sg14
I12
sg19
(lp4517
S'space'
p4518
asg94
I1
sS'.thisIndex'
p4519
I1
sa(dp4520
g16
(lp4521
S'd'
asg18
S'Y'
sS'.thisRepN'
p4522
I37
sg26
S'Y'
sg20
S'Y'
sg31
g32
sS'.thisTrialN'
p4523
I4
sS'.thisN'
p4524
I559
sg25
S'Y'
sg15
(lp4525
S'k'
asg30
VF
sg17
S'Y'
sg14
I12
sg19
(lp4526
S'space'
p4527
asg94
I5
sS'.thisIndex'
p4528
I5
sa(dp4529
g16
(lp4530
S'd'
asg18
S'N'
sS'.thisRepN'
p4531
I37
sg26
S'Y'
sg20
S'Y'
sg31
g32
sS'.thisTrialN'
p4532
I5
sS'.thisN'
p4533
I560
sg25
S'Y'
sg15
(lp4534
S'k'
asg30
VF
sg17
S'Y'
sg14
I12
sg19
Nsg94
I14
sS'.thisIndex'
p4535
I14
sa(dp4536
g16
(lp4537
S'k'
asg18
S'Y'
sS'.thisRepN'
p4538
I37
sg26
S'Y'
sg20
S'Y'
sg31
g32
sS'.thisTrialN'
p4539
I6
sS'.thisN'
p4540
I561
sg25
S'Y'
sg15
(lp4541
S'k'
asg30
VF
sg17
S'N'
sg14
I12
sg19
(lp4542
S'space'
p4543
asg94
I9
sS'.thisIndex'
p4544
I9
sa(dp4545
g16
(lp4546
S'd'
asg18
S'Y'
sS'.thisRepN'
p4547
I37
sg26
S'Y'
sg20
S'Y'
sg31
g32
sS'.thisTrialN'
p4548
I7
sS'.thisN'
p4549
I562
sg25
S'Y'
sg15
(lp4550
S'k'
asg30
VF
sg17
S'Y'
sg14
I12
sg19
(lp4551
S'space'
p4552
asg94
I14
sS'.thisIndex'
p4553
I14
sa(dp4554
g16
(lp4555
S'k'
asg18
S'Y'
sS'.thisRepN'
p4556
I37
sg26
S'Y'
sg20
S'Y'
sg31
g32
sS'.thisTrialN'
p4557
I8
sS'.thisN'
p4558
I563
sg25
S'Y'
sg15
(lp4559
S'd'
asg30
VF
sg17
S'Y'
sg14
I12
sg19
(lp4560
S'space'
p4561
asg94
I8
sS'.thisIndex'
p4562
I8
sa(dp4563
g16
(lp4564
S'd'
asg18
S'N'
sS'.thisRepN'
p4565
I37
sg26
S'Y'
sg20
S'Y'
sg31
g32
sS'.thisTrialN'
p4566
I9
sS'.thisN'
p4567
I564
sg25
S'Y'
sg15
(lp4568
S'k'
asg30
VF
sg17
S'Y'
sg14
I12
sg19
Nsg94
I9
sS'.thisIndex'
p4569
I9
sa(dp4570
g16
(lp4571
S'k'
asg18
S'N'
sS'.thisRepN'
p4572
I37
sg26
S'Y'
sg20
S'Y'
sg31
g32
sS'.thisTrialN'
p4573
I10
sS'.thisN'
p4574
I565
sg25
S'Y'
sg15
(lp4575
S'd'
asg30
VF
sg17
S'Y'
sg14
I12
sg19
Nsg94
I13
sS'.thisIndex'
p4576
I13
sa(dp4577
g16
(lp4578
S'k'
asg18
S'Y'
sS'.thisRepN'
p4579
I37
sg26
S'Y'
sg20
S'N'
sg31
g32
sS'.thisTrialN'
p4580
I11
sS'.thisN'
p4581
I566
sg25
S'Y'
sg15
(lp4582
S'd'
asg30
VF
sg17
S'Y'
sg14
I12
sg19
Nsg94
I13
sS'.thisIndex'
p4583
I13
sa(dp4584
g16
(lp4585
S'k'
asg18
S'N'
sS'.thisRepN'
p4586
I37
sg26
S'Y'
sg20
S'Y'
sg31
g32
sS'.thisTrialN'
p4587
I12
sS'.thisN'
p4588
I567
sg25
S'Y'
sg15
(lp4589
S'd'
asg30
VF
sg17
S'Y'
sg14
I12
sg19
Nsg94
I10
sS'.thisIndex'
p4590
I10
sa(dp4591
g16
(lp4592
S'd'
asg18
S'Y'
sS'.thisRepN'
p4593
I37
sg26
S'Y'
sg20
S'Y'
sg31
g32
sS'.thisTrialN'
p4594
I13
sS'.thisN'
p4595
I568
sg25
S'Y'
sg15
(lp4596
S'k'
asg30
VF
sg17
S'Y'
sg14
I12
sg19
(lp4597
S'space'
p4598
asg94
I11
sS'.thisIndex'
p4599
I11
sa(dp4600
g16
(lp4601
S'k'
asg18
S'N'
sS'.thisRepN'
p4602
I37
sg26
S'Y'
sg20
S'N'
sg31
g32
sS'.thisTrialN'
p4603
I14
sS'.thisN'
p4604
I569
sg25
S'Y'
sg15
(lp4605
S'd'
asg30
VF
sg17
S'Y'
sg14
I12
sg19
(lp4606
S'space'
p4607
asg94
I11
sS'.thisIndex'
p4608
I11
sa(dp4609
g16
(lp4610
S'd'
asg18
S'N'
sS'.thisRepN'
p4611
I38
sg26
S'Y'
sg20
S'Y'
sg31
g32
sS'.thisTrialN'
p4612
I0
sS'.thisN'
p4613
I570
sg25
S'Y'
sg15
(lp4614
S'k'
asg30
VF
sg17
S'Y'
sg14
I12
sg19
Nsg94
I7
sS'.thisIndex'
p4615
I7
sa(dp4616
g16
(lp4617
S'k'
asg18
S'Y'
sS'.thisRepN'
p4618
I38
sg26
S'Y'
sg20
S'Y'
sg31
g32
sS'.thisTrialN'
p4619
I1
sS'.thisN'
p4620
I571
sg25
S'Y'
sg15
(lp4621
S'd'
asg30
VF
sg17
S'Y'
sg14
I12
sg19
(lp4622
S'space'
p4623
asg94
I9
sS'.thisIndex'
p4624
I9
sa(dp4625
g16
(lp4626
S'k'
asg18
S'Y'
sS'.thisRepN'
p4627
I38
sg26
S'Y'
sg20
S'Y'
sg31
g32
sS'.thisTrialN'
p4628
I2
sS'.thisN'
p4629
I572
sg25
S'Y'
sg15
(lp4630
S'd'
asg30
VF
sg17
S'Y'
sg14
I12
sg19
(lp4631
S'space'
p4632
asg94
I10
sS'.thisIndex'
p4633
I10
sa(dp4634
g16
(lp4635
S'd'
asg18
S'Y'
sS'.thisRepN'
p4636
I38
sg26
S'Y'
sg20
S'Y'
sg31
g32
sS'.thisTrialN'
p4637
I3
sS'.thisN'
p4638
I573
sg25
S'Y'
sg15
(lp4639
S'k'
asg30
VF
sg17
S'Y'
sg14
I12
sg19
(lp4640
S'space'
p4641
asg94
I9
sS'.thisIndex'
p4642
I9
sa(dp4643
g16
(lp4644
S'd'
asg18
S'N'
sS'.thisRepN'
p4645
I38
sg26
S'Y'
sg20
S'Y'
sg31
g32
sS'.thisTrialN'
p4646
I4
sS'.thisN'
p4647
I574
sg25
S'Y'
sg15
(lp4648
S'k'
asg30
VF
sg17
S'Y'
sg14
I12
sg19
Nsg94
I2
sS'.thisIndex'
p4649
I2
sa(dp4650
g16
(lp4651
S'k'
asg18
S'N'
sS'.thisRepN'
p4652
I38
sg26
S'Y'
sg20
S'Y'
sg31
g32
sS'.thisTrialN'
p4653
I5
sS'.thisN'
p4654
I575
sg25
S'Y'
sg15
(lp4655
S'd'
asg30
VF
sg17
S'Y'
sg14
I12
sg19
Nsg94
I12
sS'.thisIndex'
p4656
I12
sa(dp4657
g16
(lp4658
S'k'
asg18
S'N'
sS'.thisRepN'
p4659
I38
sg26
S'Y'
sg20
S'Y'
sg31
g32
sS'.thisTrialN'
p4660
I6
sS'.thisN'
p4661
I576
sg25
S'Y'
sg15
(lp4662
S'k'
asg30
VF
sg17
S'N'
sg14
I12
sg19
Nsg94
I5
sS'.thisIndex'
p4663
I5
sa(dp4664
g16
(lp4665
S'k'
asg18
S'Y'
sS'.thisRepN'
p4666
I38
sg26
S'Y'
sg20
S'Y'
sg31
g32
sS'.thisTrialN'
p4667
I7
sS'.thisN'
p4668
I577
sg25
S'Y'
sg15
(lp4669
S'd'
asg30
VF
sg17
S'Y'
sg14
I12
sg19
(lp4670
S'space'
p4671
asg94
I8
sS'.thisIndex'
p4672
I8
sa(dp4673
g16
(lp4674
S'd'
asg18
S'Y'
sS'.thisRepN'
p4675
I38
sg26
S'Y'
sg20
S'Y'
sg31
g32
sS'.thisTrialN'
p4676
I8
sS'.thisN'
p4677
I578
sg25
S'Y'
sg15
(lp4678
S'k'
asg30
VF
sg17
S'Y'
sg14
I12
sg19
(lp4679
S'space'
p4680
asg94
I13
sS'.thisIndex'
p4681
I13
sa(dp4682
g16
(lp4683
S'k'
asg18
S'N'
sS'.thisRepN'
p4684
I38
sg26
S'Y'
sg20
S'Y'
sg31
g32
sS'.thisTrialN'
p4685
I9
sS'.thisN'
p4686
I579
sg25
S'Y'
sg15
(lp4687
S'd'
asg30
VF
sg17
S'Y'
sg14
I12
sg19
Nsg94
I4
sS'.thisIndex'
p4688
I4
sa(dp4689
g16
(lp4690
S'd'
asg18
S'Y'
sS'.thisRepN'
p4691
I38
sg26
S'Y'
sg20
S'Y'
sg31
g32
sS'.thisTrialN'
p4692
I10
sS'.thisN'
p4693
I580
sg25
S'Y'
sg15
(lp4694
S'k'
asg30
VF
sg17
S'Y'
sg14
I12
sg19
(lp4695
S'space'
p4696
asg94
I1
sS'.thisIndex'
p4697
I1
sa(dp4698
g16
(lp4699
S'k'
asg18
S'N'
sS'.thisRepN'
p4700
I38
sg26
S'Y'
sg20
S'N'
sg31
g32
sS'.thisTrialN'
p4701
I11
sS'.thisN'
p4702
I581
sg25
S'Y'
sg15
(lp4703
S'd'
asg30
VF
sg17
S'Y'
sg14
I12
sg19
(lp4704
S'space'
p4705
asg94
I4
sS'.thisIndex'
p4706
I4
sa(dp4707
g16
(lp4708
S'd'
asg18
S'N'
sS'.thisRepN'
p4709
I38
sg26
S'Y'
sg20
S'Y'
sg31
g32
sS'.thisTrialN'
p4710
I12
sS'.thisN'
p4711
I582
sg25
S'Y'
sg15
(lp4712
S'k'
asg30
VF
sg17
S'Y'
sg14
I12
sg19
Nsg94
I3
sS'.thisIndex'
p4713
I3
sa(dp4714
g16
(lp4715
S'k'
asg18
S'Y'
sS'.thisRepN'
p4716
I38
sg26
S'Y'
sg20
S'Y'
sg31
g32
sS'.thisTrialN'
p4717
I13
sS'.thisN'
p4718
I583
sg25
S'Y'
sg15
(lp4719
S'd'
asg30
VF
sg17
S'Y'
sg14
I12
sg19
(lp4720
S'space'
p4721
asg94
I11
sS'.thisIndex'
p4722
I11
sa(dp4723
g16
(lp4724
S'd'
asg18
S'N'
sS'.thisRepN'
p4725
I38
sg26
S'Y'
sg20
S'Y'
sg31
g32
sS'.thisTrialN'
p4726
I14
sS'.thisN'
p4727
I584
sg25
S'Y'
sg15
(lp4728
S'k'
asg30
VF
sg17
S'Y'
sg14
I12
sg19
Nsg94
I13
sS'.thisIndex'
p4729
I13
sa(dp4730
g16
(lp4731
S'd'
asg18
S'Y'
sS'.thisRepN'
p4732
I39
sg26
S'Y'
sg20
S'Y'
sg31
g32
sS'.thisTrialN'
p4733
I0
sS'.thisN'
p4734
I585
sg25
S'Y'
sg15
(lp4735
S'k'
asg30
VF
sg17
S'Y'
sg14
I12
sg19
(lp4736
S'space'
p4737
asg94
I7
sS'.thisIndex'
p4738
I7
sa(dp4739
g16
(lp4740
S'k'
asg18
S'N'
sS'.thisRepN'
p4741
I39
sg26
S'Y'
sg20
S'N'
sg31
g32
sS'.thisTrialN'
p4742
I1
sS'.thisN'
p4743
I586
sg25
S'Y'
sg15
(lp4744
S'd'
asg30
VF
sg17
S'Y'
sg14
I12
sg19
(lp4745
S'space'
p4746
asg94
I3
sS'.thisIndex'
p4747
I3
sa(dp4748
g16
(lp4749
S'd'
asg18
S'Y'
sS'.thisRepN'
p4750
I39
sg26
S'Y'
sg20
S'Y'
sg31
g32
sS'.thisTrialN'
p4751
I2
sS'.thisN'
p4752
I587
sg25
S'Y'
sg15
(lp4753
S'k'
asg30
VF
sg17
S'Y'
sg14
I12
sg19
(lp4754
S'space'
p4755
asg94
I13
sS'.thisIndex'
p4756
I13
sa(dp4757
g16
(lp4758
S'd'
asg18
S'N'
sS'.thisRepN'
p4759
I39
sg26
S'Y'
sg20
S'Y'
sg31
g32
sS'.thisTrialN'
p4760
I3
sS'.thisN'
p4761
I588
sg25
S'Y'
sg15
(lp4762
S'k'
asg30
VF
sg17
S'Y'
sg14
I12
sg19
Nsg94
I4
sS'.thisIndex'
p4763
I4
sa(dp4764
g16
(lp4765
S'k'
asg18
S'N'
sS'.thisRepN'
p4766
I39
sg26
S'Y'
sg20
S'Y'
sg31
g32
sS'.thisTrialN'
p4767
I4
sS'.thisN'
p4768
I589
sg25
S'Y'
sg15
(lp4769
S'd'
asg30
VF
sg17
S'Y'
sg14
I12
sg19
Nsg94
I13
sS'.thisIndex'
p4770
I13
sa(dp4771
g16
(lp4772
S'k'
asg18
S'Y'
sS'.thisRepN'
p4773
I39
sg26
S'Y'
sg20
S'Y'
sg31
g32
sS'.thisTrialN'
p4774
I5
sS'.thisN'
p4775
I590
sg25
S'Y'
sg15
(lp4776
S'd'
asg30
VF
sg17
S'Y'
sg14
I12
sg19
(lp4777
S'space'
p4778
asg94
I8
sS'.thisIndex'
p4779
I8
sa(dp4780
g16
(lp4781
S'k'
asg18
S'Y'
sS'.thisRepN'
p4782
I39
sg26
S'Y'
sg20
S'Y'
sg31
g32
sS'.thisTrialN'
p4783
I6
sS'.thisN'
p4784
I591
sg25
S'Y'
sg15
(lp4785
S'd'
asg30
VF
sg17
S'Y'
sg14
I12
sg19
(lp4786
S'space'
p4787
asg94
I3
sS'.thisIndex'
p4788
I3
sa(dp4789
g16
(lp4790
S'd'
asg18
S'Y'
sS'.thisRepN'
p4791
I39
sg26
S'Y'
sg20
S'Y'
sg31
g32
sS'.thisTrialN'
p4792
I7
sS'.thisN'
p4793
I592
sg25
S'Y'
sg15
(lp4794
S'k'
asg30
VF
sg17
S'Y'
sg14
I12
sg19
(lp4795
S'space'
p4796
asg94
I9
sS'.thisIndex'
p4797
I9
sa(dp4798
g18
S'Y'
sS'.thisRepN'
p4799
I39
sg26
S'Y'
sg20
S'Y'
sg31
g32
sS'.thisTrialN'
p4800
I8
sS'.thisN'
p4801
I593
sg25
S'Y'
sg15
Nsg30
VF
sg17
g4482
sg14
I12
sg19
(lp4802
S'space'
p4803
asg94
I3
sS'.thisIndex'
p4804
I3
sa(dp4805
g16
(lp4806
S'k'
asg18
S'Y'
sS'.thisRepN'
p4807
I39
sg26
S'Y'
sg20
S'Y'
sg31
g32
sS'.thisTrialN'
p4808
I9
sS'.thisN'
p4809
I594
sg25
S'Y'
sg15
(lp4810
S'd'
asg30
VF
sg17
S'Y'
sg14
I12
sg19
(lp4811
S'space'
p4812
asg94
I12
sS'.thisIndex'
p4813
I12
sa(dp4814
g16
(lp4815
S'd'
asg18
S'Y'
sS'.thisRepN'
p4816
I39
sg26
S'Y'
sg20
S'Y'
sg31
g32
sS'.thisTrialN'
p4817
I10
sS'.thisN'
p4818
I595
sg25
S'Y'
sg15
(lp4819
S'k'
asg30
VF
sg17
S'Y'
sg14
I12
sg19
(lp4820
S'space'
p4821
asg94
I6
sS'.thisIndex'
p4822
I6
sa(dp4823
g16
(lp4824
S'k'
asg18
S'Y'
sS'.thisRepN'
p4825
I39
sg26
S'Y'
sg20
S'Y'
sg31
g32
sS'.thisTrialN'
p4826
I11
sS'.thisN'
p4827
I596
sg25
S'Y'
sg15
(lp4828
S'd'
asg30
VF
sg17
S'Y'
sg14
I12
sg19
(lp4829
S'space'
p4830
asg94
I9
sS'.thisIndex'
p4831
I9
sa(dp4832
g16
(lp4833
S'k'
asg18
S'N'
sS'.thisRepN'
p4834
I39
sg26
S'Y'
sg20
S'Y'
sg31
g32
sS'.thisTrialN'
p4835
I12
sS'.thisN'
p4836
I597
sg25
S'Y'
sg15
(lp4837
S'd'
asg30
VF
sg17
S'Y'
sg14
I12
sg19
Nsg94
I1
sS'.thisIndex'
p4838
I1
sa(dp4839
g16
(lp4840
S'd'
asg18
S'N'
sS'.thisRepN'
p4841
I39
sg26
S'Y'
sg20
S'Y'
sg31
g32
sS'.thisTrialN'
p4842
I13
sS'.thisN'
p4843
I598
sg25
S'Y'
sg15
(lp4844
S'd'
asg30
VF
sg17
S'N'
sg14
I12
sg19
Nsg94
I1
sS'.thisIndex'
p4845
I1
sa(dp4846
g16
(lp4847
S'k'
asg18
S'N'
sg22
I43
sg26
S'Y'
sS'.thisN'
p4848
I599
sg20
S'Y'
sg31
g32
sS'.thisTrialN'
p4849
I14
sS'.thisRepN'
p4850
I39
sg21
I45
sg25
S'Y'
sg23
I25
sg15
(lp4851
S'd'
asg30
VF
sg17
S'Y'
sg14
I12
sg19
Nsg94
I13
sS'.thisIndex'
p4852
I13
sasS'loops'
p4853
(lp4854
g1
(g35
g3
NtRp4855
(dp4856
g38
Nsg39
(lp4857
sg40
I79815664
sg10
S''
sg6
g41
sg42
I1
sg27
I01
sg28
Nsg43
g1
(g44
g45
(dp4858
g47
g48
(g49
g50
g51
S'b'
tRp4859
(I1
(I600
I1
tg54
I00
S'\x00\x00\x80?\x00\x00\x80?\x00\x00\x80?\x00\x00\x80?\x00\x00\x80?\x00\x00\x80?\x00\x00\x80?\x00\x00\x80?\x00\x00\x80?\x00\x00\x80?\x00\x00\x80?\x00\x00\x80?\x00\x00\x80?\x00\x00\x80?\x00\x00\x80?\x00\x00\x80?\x00\x00\x80?\x00\x00\x80?\x00\x00\x80?\x00\x00\x80?\x00\x00\x80?\x00\x00\x80?\x00\x00\x80?\x00\x00\x80?\x00\x00\x80?\x00\x00\x80?\x00\x00\x80?\x00\x00\x80?\x00\x00\x80?\x00\x00\x80?\x00\x00\x80?\x00\x00\x80?\x00\x00\x80?\x00\x00\x80?\x00\x00\x80?\x00\x00\x80?\x00\x00\x80?\x00\x00\x80?\x00\x00\x80?\x00\x00\x80?\x00\x00\x80?\x00\x00\x80?\x00\x00\x80?\x00\x00\x80?\x00\x00\x80?\x00\x00\x80?\x00\x00\x80?\x00\x00\x80?\x00\x00\x80?\x00\x00\x80?\x00\x00\x80?\x00\x00\x80?\x00\x00\x80?\x00\x00\x80?\x00\x00\x80?\x00\x00\x80?\x00\x00\x80?\x00\x00\x80?\x00\x00\x80?\x00\x00\x80?\x00\x00\x80?\x00\x00\x80?\x00\x00\x80?\x00\x00\x80?\x00\x00\x80?\x00\x00\x80?\x00\x00\x80?\x00\x00\x80?\x00\x00\x80?\x00\x00\x80?\x00\x00\x80?\x00\x00\x80?\x00\x00\x80?\x00\x00\x80?\x00\x00\x80?\x00\x00\x80?\x00\x00\x80?\x00\x00\x80?\x00\x00\x80?\x00\x00\x80?\x00\x00\x80?\x00\x00\x80?\x00\x00\x80?\x00\x00\x80?\x00\x00\x80?\x00\x00\x80?\x00\x00\x80?\x00\x00\x80?\x00\x00\x80?\x00\x00\x80?\x00\x00\x80?\x00\x00\x80?\x00\x00\x80?\x00\x00\x80?\x00\x00\x80?\x00\x00\x80?\x00\x00\x80?\x00\x00\x80?\x00\x00\x80?\x00\x00\x80?\x00\x00\x80?\x00\x00\x80?\x00\x00\x80?\x00\x00\x80?\x00\x00\x80?\x00\x00\x80?\x00\x00\x80?\x00\x00\x80?\x00\x00\x80?\x00\x00\x80?\x00\x00\x80?\x00\x00\x80?\x00\x00\x80?\x00\x00\x80?\x00\x00\x80?\x00\x00\x80?\x00\x00\x80?\x00\x00\x80?\x00\x00\x80?\x00\x00\x80?\x00\x00\x80?\x00\x00\x80?\x00\x00\x80?\x00\x00\x80?\x00\x00\x80?\x00\x00\x80?\x00\x00\x80?\x00\x00\x80?\x00\x00\x80?\x00\x00\x80?\x00\x00\x80?\x00\x00\x80?\x00\x00\x80?\x00\x00\x80?\x00\x00\x80?\x00\x00\x80?\x00\x00\x80?\x00\x00\x80?\x00\x00\x80?\x00\x00\x80?\x00\x00\x80?\x00\x00\x80?\x00\x00\x80?\x00\x00\x80?\x00\x00\x80?\x00\x00\x80?\x00\x00\x80?\x00\x00\x80?\x00\x00\x80?\x00\x00\x80?\x00\x00\x80?\x00\x00\x80?\x00\x00\x80?\x00\x00\x80?\x00\x00\x80?\x00\x00\x80?\x00\x00\x80?\x00\x00\x80?\x00\x00\x80?\x00\x00\x80?\x00\x00\x80?\x00\x00\x80?\x00\x00\x80?\x00\x00\x80?\x00\x00\x80?\x00\x00\x80?\x00\x00\x80?\x00\x00\x80?\x00\x00\x80?\x00\x00\x80?\x00\x00\x80?\x00\x00\x80?\x00\x00\x80?\x00\x00\x80?\x00\x00\x80?\x00\x00\x80?\x00\x00\x80?\x00\x00\x80?\x00\x00\x80?\x00\x00\x80?\x00\x00\x80?\x00\x00\x80?\x00\x00\x80?\x00\x00\x80?\x00\x00\x80?\x00\x00\x80?\x00\x00\x80?\x00\x00\x80?\x00\x00\x80?\x00\x00\x80?\x00\x00\x80?\x00\x00\x80?\x00\x00\x80?\x00\x00\x80?\x00\x00\x80?\x00\x00\x80?\x00\x00\x80?\x00\x00\x80?\x00\x00\x80?\x00\x00\x80?\x00\x00\x80?\x00\x00\x80?\x00\x00\x80?\x00\x00\x80?\x00\x00\x80?\x00\x00\x80?\x00\x00\x80?\x00\x00\x80?\x00\x00\x80?\x00\x00\x80?\x00\x00\x80?\x00\x00\x80?\x00\x00\x80?\x00\x00\x80?\x00\x00\x80?\x00\x00\x80?\x00\x00\x80?\x00\x00\x80?\x00\x00\x80?\x00\x00\x80?\x00\x00\x80?\x00\x00\x80?\x00\x00\x80?\x00\x00\x80?\x00\x00\x80?\x00\x00\x80?\x00\x00\x80?\x00\x00\x80?\x00\x00\x80?\x00\x00\x80?\x00\x00\x80?\x00\x00\x80?\x00\x00\x80?\x00\x00\x80?\x00\x00\x80?\x00\x00\x80?\x00\x00\x80?\x00\x00\x80?\x00\x00\x80?\x00\x00\x80?\x00\x00\x80?\x00\x00\x80?\x00\x00\x80?\x00\x00\x80?\x00\x00\x80?\x00\x00\x80?\x00\x00\x80?\x00\x00\x80?\x00\x00\x80?\x00\x00\x80?\x00\x00\x80?\x00\x00\x80?\x00\x00\x80?\x00\x00\x80?\x00\x00\x80?\x00\x00\x80?\x00\x00\x80?\x00\x00\x80?\x00\x00\x80?\x00\x00\x80?\x00\x00\x80?\x00\x00\x80?\x00\x00\x80?\x00\x00\x80?\x00\x00\x80?\x00\x00\x80?\x00\x00\x80?\x00\x00\x80?\x00\x00\x80?\x00\x00\x80?\x00\x00\x80?\x00\x00\x80?\x00\x00\x80?\x00\x00\x80?\x00\x00\x80?\x00\x00\x80?\x00\x00\x80?\x00\x00\x80?\x00\x00\x80?\x00\x00\x80?\x00\x00\x80?\x00\x00\x80?\x00\x00\x80?\x00\x00\x80?\x00\x00\x80?\x00\x00\x80?\x00\x00\x80?\x00\x00\x80?\x00\x00\x80?\x00\x00\x80?\x00\x00\x80?\x00\x00\x80?\x00\x00\x80?\x00\x00\x80?\x00\x00\x80?\x00\x00\x80?\x00\x00\x80?\x00\x00\x80?\x00\x00\x80?\x00\x00\x80?\x00\x00\x80?\x00\x00\x80?\x00\x00\x80?\x00\x00\x80?\x00\x00\x80?\x00\x00\x80?\x00\x00\x80?\x00\x00\x80?\x00\x00\x80?\x00\x00\x80?\x00\x00\x80?\x00\x00\x80?\x00\x00\x80?\x00\x00\x80?\x00\x00\x80?\x00\x00\x80?\x00\x00\x80?\x00\x00\x80?\x00\x00\x80?\x00\x00\x80?\x00\x00\x80?\x00\x00\x80?\x00\x00\x80?\x00\x00\x80?\x00\x00\x80?\x00\x00\x80?\x00\x00\x80?\x00\x00\x80?\x00\x00\x80?\x00\x00\x80?\x00\x00\x80?\x00\x00\x80?\x00\x00\x80?\x00\x00\x80?\x00\x00\x80?\x00\x00\x80?\x00\x00\x80?\x00\x00\x80?\x00\x00\x80?\x00\x00\x80?\x00\x00\x80?\x00\x00\x80?\x00\x00\x80?\x00\x00\x80?\x00\x00\x80?\x00\x00\x80?\x00\x00\x80?\x00\x00\x80?\x00\x00\x80?\x00\x00\x80?\x00\x00\x80?\x00\x00\x80?\x00\x00\x80?\x00\x00\x80?\x00\x00\x80?\x00\x00\x80?\x00\x00\x80?\x00\x00\x80?\x00\x00\x80?\x00\x00\x80?\x00\x00\x80?\x00\x00\x80?\x00\x00\x80?\x00\x00\x80?\x00\x00\x80?\x00\x00\x80?\x00\x00\x80?\x00\x00\x80?\x00\x00\x80?\x00\x00\x80?\x00\x00\x80?\x00\x00\x80?\x00\x00\x80?\x00\x00\x80?\x00\x00\x80?\x00\x00\x80?\x00\x00\x80?\x00\x00\x80?\x00\x00\x80?\x00\x00\x80?\x00\x00\x80?\x00\x00\x80?\x00\x00\x80?\x00\x00\x80?\x00\x00\x80?\x00\x00\x80?\x00\x00\x80?\x00\x00\x80?\x00\x00\x80?\x00\x00\x80?\x00\x00\x80?\x00\x00\x80?\x00\x00\x80?\x00\x00\x80?\x00\x00\x80?\x00\x00\x80?\x00\x00\x80?\x00\x00\x80?\x00\x00\x80?\x00\x00\x80?\x00\x00\x80?\x00\x00\x80?\x00\x00\x80?\x00\x00\x80?\x00\x00\x80?\x00\x00\x80?\x00\x00\x80?\x00\x00\x80?\x00\x00\x80?\x00\x00\x80?\x00\x00\x80?\x00\x00\x80?\x00\x00\x80?\x00\x00\x80?\x00\x00\x80?\x00\x00\x80?\x00\x00\x80?\x00\x00\x80?\x00\x00\x80?\x00\x00\x80?\x00\x00\x80?\x00\x00\x80?\x00\x00\x80?\x00\x00\x80?\x00\x00\x80?\x00\x00\x80?\x00\x00\x80?\x00\x00\x80?\x00\x00\x80?\x00\x00\x80?\x00\x00\x80?\x00\x00\x80?\x00\x00\x80?\x00\x00\x80?\x00\x00\x80?\x00\x00\x80?\x00\x00\x80?\x00\x00\x80?\x00\x00\x80?\x00\x00\x80?\x00\x00\x80?\x00\x00\x80?\x00\x00\x80?\x00\x00\x80?\x00\x00\x80?\x00\x00\x80?\x00\x00\x80?\x00\x00\x80?\x00\x00\x80?\x00\x00\x80?\x00\x00\x80?\x00\x00\x80?\x00\x00\x80?\x00\x00\x80?\x00\x00\x80?\x00\x00\x80?\x00\x00\x80?\x00\x00\x80?\x00\x00\x80?\x00\x00\x80?\x00\x00\x80?\x00\x00\x80?\x00\x00\x80?\x00\x00\x80?\x00\x00\x80?\x00\x00\x80?\x00\x00\x80?\x00\x00\x80?\x00\x00\x80?\x00\x00\x80?\x00\x00\x80?\x00\x00\x80?\x00\x00\x80?\x00\x00\x80?\x00\x00\x80?\x00\x00\x80?\x00\x00\x80?\x00\x00\x80?\x00\x00\x80?\x00\x00\x80?\x00\x00\x80?\x00\x00\x80?\x00\x00\x80?\x00\x00\x80?\x00\x00\x80?\x00\x00\x80?\x00\x00\x80?\x00\x00\x80?\x00\x00\x80?\x00\x00\x80?\x00\x00\x80?\x00\x00\x80?\x00\x00\x80?\x00\x00\x80?\x00\x00\x80?\x00\x00\x80?\x00\x00\x80?\x00\x00\x80?\x00\x00\x80?\x00\x00\x80?\x00\x00\x80?\x00\x00\x80?\x00\x00\x80?\x00\x00\x80?\x00\x00\x80?\x00\x00\x80?\x00\x00\x80?\x00\x00\x80?\x00\x00\x80?\x00\x00\x80?\x00\x00\x80?\x00\x00\x80?\x00\x00\x80?\x00\x00\x80?\x00\x00\x80?\x00\x00\x80?\x00\x00\x80?\x00\x00\x80?\x00\x00\x80?\x00\x00\x80?\x00\x00\x80?\x00\x00\x80?\x00\x00\x80?\x00\x00\x80?\x00\x00\x80?\x00\x00\x80?\x00\x00\x80?\x00\x00\x80?\x00\x00\x80?\x00\x00\x80?\x00\x00\x80?\x00\x00\x80?\x00\x00\x80?\x00\x00\x80?\x00\x00\x80?\x00\x00\x80?\x00\x00\x80?\x00\x00\x80?\x00\x00\x80?\x00\x00\x80?\x00\x00\x80?\x00\x00\x80?\x00\x00\x80?\x00\x00\x80?\x00\x00\x80?\x00\x00\x80?\x00\x00\x80?\x00\x00\x80?\x00\x00\x80?\x00\x00\x80?\x00\x00\x80?\x00\x00\x80?\x00\x00\x80?\x00\x00\x80?\x00\x00\x80?\x00\x00\x80?\x00\x00\x80?\x00\x00\x80?\x00\x00\x80?\x00\x00\x80?\x00\x00\x80?\x00\x00\x80?\x00\x00\x80?\x00\x00\x80?\x00\x00\x80?\x00\x00\x80?\x00\x00\x80?\x00\x00\x80?\x00\x00\x80?\x00\x00\x80?\x00\x00\x80?\x00\x00\x80?\x00\x00\x80?\x00\x00\x80?\x00\x00\x80?\x00\x00\x80?\x00\x00\x80?\x00\x00\x80?\x00\x00\x80?\x00\x00\x80?\x00\x00\x80?\x00\x00\x80?\x00\x00\x80?\x00\x00\x80?\x00\x00\x80?\x00\x00\x80?\x00\x00\x80?\x00\x00\x80?\x00\x00\x80?\x00\x00\x80?\x00\x00\x80?\x00\x00\x80?\x00\x00\x80?\x00\x00\x80?\x00\x00\x80?\x00\x00\x80?\x00\x00\x80?\x00\x00\x80?\x00\x00\x80?\x00\x00\x80?'
S'\x00\x00\x00\x00\x00\x00\x00\x00\x00\x00\x00\x00\x00\x00\x00\x00\x00\x00\x00\x00\x00\x00\x00\x00\x00\x00\x00\x00\x00\x00\x00\x00\x00\x00\x00\x00\x00\x00\x00\x00\x00\x00\x00\x00\x00\x00\x00\x00\x00\x00\x00\x00\x00\x00\x00\x00\x00\x00\x00\x00\x00\x00\x00\x00\x00\x00\x00\x00\x00\x00\x00\x00\x00\x00\x00\x00\x00\x00\x00\x00\x00\x00\x00\x00\x00\x00\x00\x00\x00\x00\x00\x00\x00\x00\x00\x00\x00\x00\x00\x00\x00\x00\x00\x00\x00\x00\x00\x00\x00\x00\x00\x00\x00\x00\x00\x00\x00\x00\x00\x00\x00\x00\x00\x00\x00\x00\x00\x00\x00\x00\x00\x00\x00\x00\x00\x00\x00\x00\x00\x00\x00\x00\x00\x00\x00\x00\x00\x00\x00\x00\x00\x00\x00\x00\x00\x00\x00\x00\x00\x00\x00\x00\x00\x00\x00\x00\x00\x00\x00\x00\x00\x00\x00\x00\x00\x00\x00\x00\x00\x00\x00\x00\x00\x00\x00\x00\x00\x00\x00\x00\x00\x00\x00\x00\x00\x00\x00\x00\x00\x00\x00\x00\x00\x00\x00\x00\x00\x00\x00\x00\x00\x00\x00\x00\x00\x00\x00\x00\x00\x00\x00\x00\x00\x00\x00\x00\x00\x00\x00\x00\x00\x00\x00\x00\x00\x00\x00\x00\x00\x00\x00\x00\x00\x00\x00\x00\x00\x00\x00\x00\x00\x00\x00\x00\x00\x00\x00\x00\x00\x00\x00\x00\x00\x00\x00\x00\x00\x00\x00\x00\x00\x00\x00\x00\x00\x00\x00\x00\x00\x00\x00\x00\x00\x00\x00\x00\x00\x00\x00\x00\x00\x00\x00\x00\x00\x00\x00\x00\x00\x00\x00\x00\x00\x00\x00\x00\x00\x00\x00\x00\x00\x00\x00\x00\x00\x00\x00\x00\x00\x00\x00\x00\x00\x00\x00\x00\x00\x00\x00\x00\x00\x00\x00\x00\x00\x00\x00\x00\x00\x00\x00\x00\x00\x00\x00\x00\x00\x00\x00\x00\x00\x00\x00\x00\x00\x00\x00\x00\x00\x00\x00\x00\x00\x00\x00\x00\x00\x00\x00\x00\x00\x00\x00\x00\x00\x00\x00\x00\x00\x00\x00\x00\x00\x00\x00\x00\x00\x00\x00\x00\x00\x00\x00\x00\x00\x00\x00\x00\x00\x00\x00\x00\x00\x00\x00\x00\x00\x00\x00\x00\x00\x00\x00\x00\x00\x00\x00\x00\x00\x00\x00\x00\x00\x00\x00\x00\x00\x00\x00\x00\x00\x00\x00\x00\x00\x00\x00\x00\x00\x00\x00\x00\x00\x00\x00\x00\x00\x00\x00\x00\x00\x00\x00\x00\x00\x00\x00\x00\x00\x00\x00\x00\x00\x00\x00\x00\x00\x00\x00\x00\x00\x00\x00\x00\x00\x00\x00\x00\x00\x00\x00\x00\x00\x00\x00\x00\x00\x00\x00\x00\x00\x00\x00\x00\x00\x00\x00\x00\x00\x00\x00\x00\x00\x00\x00\x00\x00\x00\x00\x00\x00\x00\x00\x00\x00\x00\x00\x00\x00\x00\x00\x00\x00\x00\x00\x00\x00\x00\x00\x00\x00\x00\x00\x00\x00\x00\x00\x00\x00\x00\x00\x00\x00\x00\x00\x00\x00\x00\x00\x00\x00\x00\x00\x00\x00\x00\x00\x00\x00\x00\x00\x00\x00\x00\x00\x00\x00\x00\x00\x00\x00\x00\x00\x00\x00\x00\x00\x00\x00\x00\x00\x00\x00\x00\x00\x00\x00\x00\x00\x00\x00\x00\x00\x00\x00\x00\x00\x00\x00\x00'
Ntbsg55
g48
(g49
g50
g51
S'b'
tRp4860
(I1
(I600
I1
tg54
I00
S'\x00\x00\xd7C\x00\x80\x0fD\x00\x00\x8aC\x00\x00\xbaC\x00\x80\xcaC\x00\x80\xe3C\x00\x80\nD\x00\x00\xf8A\x00\x80\xa5C\x00\x80\xaaC\x00\x00[C\x00\x00\x84B\x00\xc0\x02D\x00\x00\xf6B\x00\x00\x15C\x00\x00\x91C\x00\x80\x0eD\x00\x00\rD\x00\x80\xdaC\x00\x00\x86C\x00\x00jC\x00\x80\x15D\x00@\x07D\x00\x00\xd8B\x00\x00\x7fC\x00\x00\x8aB\x00\x80\xfcC\x00\x00\x93C\x00\x80\xc6C\x00\x00\xd8A\x00\x00\xf6C\x00\x00\x89C\x00\x00\xd2B\x00\x00\x8bC\x00\x00UC\x00\x00\xc0C\x00\x00\xd0A\x00\xc0\x14D\x00\x80\x80C\x00\x00\xdeB\x00\x004C\x00\x80\xedC\x00\x00>C\x00\x00\x97C\x00\x00dC\x00@\x06D\x00\x00\xe7C\x00\x80\xb4C\x00\x80\xb0C\x00\x80\xf8C\x00\x00\xbeC\x00\x80\xe6C\x00\x00TC\x00\x00\x13D\x00\x00\xa2C\x00\x80\x11D\x00\x80\xadC\x00\x00\x81C\x00\x00rC\x00\x00\xc3C\x00\x80\xf0C\x00\x80\xddC\x00\x00|C\x00\x00\xaeC\x00\x00lC\x00\x80\x90C\x00\x80\x00D\x00\x00\x19C\x00\x80\xa9C\x00\x00\xb1C\x00\x00PC\x00\x00\xd9C\x00\x00 A\x00\x00 B\x00\x00\xc8C\x00\x00VC\x00\x80\x08D\x00\x80\xa3C\x00\x00\xa4B\x00\x00\xceC\x00\x80\xfaC\x00\x00@A\x00\x80\xf6C\x00\x00\xd6B\x00\x00\xfaC\x00\x00FC\x00\x00\xc7C\x00\x00\x10C\x00\x80\xb5C\x00\x00\xcaC\x00\x80\x9eC\x00\x80\xbbC\x00\x00\x8dC\x00\x00\xdeC\x00\x80\x0cD\x00@\x0fD\x00\x00&C\x00\x00\x14B\x00\x00\xeeC\x00\x00\x1cC\x00\x00(B\x00\x80\x07D\x00\x00\x80?\x00\x00\xa3C\x00\x00\xdfC\x00\x00)C\x00\xc0\x0bD\x00\x00\xefC\x00@\x05D\x00\x00\xc8A\x00\x00\x82C\x00\x00\xb8A\x00\x00kC\x00\x006C\x00\x00\xa6C\x00\x00\x98B\x00\x80\x10D\x00\x80\x81C\x00\x00\x18B\x00\x00\xf5C\x00\x00\x17C\x00\x00\xdaC\x00\x00\xfeB\x00\x80\xe8C\x00\x00\xf0C\x00\x00\xcdC\x00\x00\xb4B\x00\x00ZC\x00\x80\xa6C\x00\x80\x8eC\x00\x00\x85C\x00\x80\xffC\x00\x00\xaaC\x00\x00OC\x00\x00\xb9C\x00\x80\x04D\x00\x00\xfdC\x00\x00AC\x00\x00\x8eC\x00\x00\xa6B\x00\x80\x03D\x00\x00\xbeB\x00\x00]C\x00\x00\x02D\x00\x00zC\x00\x00\x96C\x00\x00\x8fC\x00\x00\x0cD\x00\x00fC\x00\x00\x02C\x00\x00oC\x00\x00\x8eB\x00\x80\xc8C\x00\x00:C\x00\x00\x9aB\x00\x00\x94B\x00\x00\x83C\x00\x00\xf2B\x00\x80\xd3C\x00\x00-C\x00\x80\xb3C\x00\x80\xd8C\x00\x00\x1dC\x00\x80\x02D\x00\x00\x12C\x00\x80\xf2C\x00\x00\xa9C\x00\x80\xa4C\x00\x00\x10A\x00\x00\xe2C\x00\x00XB\x00\x00xB\x00\x80\x96C\x00\x80\x9cC\x00\x80\xbfC\x00\xc0\tD\x00\x80\xccC\x00\x00tB\x00\x00@B\x00\x00\x90C\x00\x00\xabC\x00\x00\xe9C\x00\x80\xc4C\x00\x00\x98A\x00\x00"C\x00\x00LB\x00\x80\xfeC\x00\x00HB\x00\x80\xb6C\x00\x80\x05D\x00\x00sC\x00\x00\xd4C\x00\x00\x11D\x00\x00\nD\x00\x00\x01C\x00\x00hC\x00\x00\xc6B\x00\x00\x0bD\x00@\x12D\x00\x80\xd9C\x00\x00\x0fC\x00\x80\xd1C\x00\x00\x9eC\x00\x00KC\x00\x00GC\x00\x00HC\x00\x80\x82C\x00\x00\x0bC\x00\x80\xc1C\x00\x00\x1eC\x00\x00\xd5C\x00@\x02D\x00\xc0\x12D\x00\x00?C\x00\x00|B\x00\x00\x90A\x00\x80\x8bC\x00\x00\nC\x00\x00bC\x00\x80\xc3C\x00\x00\xc5C\x00\x00,B\x00\x80\x84C\x00\x00YC\x00\x80\xf5C\x00\x00PB\x00\x00\xaeB\x00\x00$B\x00\x00\xa5C\x00\x00\xd2C\x00\x00\x9cB\x00\x00\xc6C\x00\x00\x80C\x00\x00\x1aC\x00\x00yC\x00\x00\xdcB\x00\x00^C\x00\x80\xb1C\x00\x00\x0cC\x00\x00\xf4C\x00\x00\x88A\x00\x80\tD\x00\x00 C\x00\x80\x92C\x00\x00\x0eD\x00\x00\\C\x00\x00\xeaB\x00\x80\xacC\x00@\x00D\x00\x00<C\x00\x00\x1fC\x00\x80\xdeC\x00\x80\x8cC\x00\x80\x86C\x00\x00wC\x00\x00\xeaC\x00\x80\xcbC\x00\x00\xafC\x00\x80\xbeC\x00\x00{C\x00\x00gC\x00\x00\xd6C\x00\x00WC\x00\x00<B\x00\x00\xb7C\x00\x80\xc9C\x00\x80\x9aC\x00\x00DC\x00\x00\x9fC\x00\x00\xe3C\x00\x00\xc8B\x00\xc0\x01D\x00\x00\x88C\x00\x00\xc1C\x00\x00\xa8A\x00\x00\xf9C\x00\x00\x16C\x00\x00IC\x00\x00@@\x00\x80\xaeC\x00\x00\xc0A\x00\x00\xf8B\x00\x80\x9dC\x00\x00DB\x00@\x03D\x00\x80\xe0C\x00\x00\xecB\x00\x00\xe8B\x00\x00\x14D\x00\x00\xa8B\x00\x008B\x00\x00\x12D\x00\x00\x13C\x00\x80\xeeC\x00\x00\x00C\x00\x00\xfeC\x00\x00\x96B\x00\x00XC\x00\x00\xa7C\x00\x00\xa0B\x00@\x01D\x00\x000B\x00\x00\x8cB\x00\x80\x88C\x00\x00aC\x00\x00\xe2B\x00\x80\x8fC\x00\x00hB\x00\xc0\x07D\x00\x80\xe1C\x00\x00#C\x00\x00\'C\x00\x80\xfbC\x00\x00\xa2B\x00\x80\x8dC\x00\x80\xefC\x00\x80\xe2C\x00@\nD\x00\x00\xb2B\x00\x00\x84C\x00\x00\xe8A\x00\x80\xdfC\x00\x00\xcaB\x00\x80\xb9C\x00\x80\xb2C\x00\x00EC\x00\x00\x99C\x00\x00\x1cB\x00\x80\xceC\x00\x00\x80@\x00\x80\x83C\x00\xc0\x06D\x00\x80\xf1C\x00\x00\xdbC\x00\x80\xf9C\x00\x00\xd0B\x00\x80\xbaC\x00\x00\xffC\x00\x80\xa1C\x00\x00\xa4C\x00\x80\x9bC\x00@\x08D\x00\x80\xf3C\x00\x00\xf1C\x00\x000A\x00\x00\xb4C\x00\x00`A\x00\x00\xb6C\x00\xc0\x0fD\x00\x00@C\x00\x00!C\x00\x80\x91C\x00\x00BC\x00\x80\x9fC\x00\x00\xc4B\x00\x00\xdcC\x00\x00\xa0@\x00\x00\x05D\x00\x00tC\x00\x80\xd2C\x00\x00\xf2C\x00\x80\xb7C\x00\x00\xbaB\x00\x00\xc0@\x00\xc0\nD\x00@\tD\x00\x00\xe1C\x00\x00\xaaB\x00@\x0cD\x00\x00_C\x00\x00\x07C\x00\x00$C\x00\x80\xc2C\x00\x00\x9dC\x00\x00\x03D\x00\x00`B\x00\x00\x04B\x00\x00\xceB\x00\x80\xbdC\x00\x00pB\x00\x80\xdbC\x00\x00\xeeB\x00\x00NC\x00\x00\x88B\x00\x80\x0bD\x00\x003C\x00@\x10D\x00\x00/C\x00\x00\xe0C\x00\x00\xdaB\x00\x00\x86B\x00\x80\x85C\x00\x00\xbcC\x00\xc0\x0cD\x00\x80\x8aC\x00\x00+C\x00\x00\x18C\x00\x00\x08D\x00\x80\xe7C\x00\x00\x95C\x00\x80\xd7C\x00\x80\xb8C\x00\x00\xf0B\x00\x80\xebC\x00\x007C\x00\x001C\x00\x80\xafC\x00\x00\xacC\x00\x00\xd8C\x00\x00\xbcB\x00\x005C\x00\x00(C\x00\xc0\x0eD\x00@\x13D\x00\xc0\x15D\x00\x00*C\x00\x00`C\x00\x00\xe0B\x00\x80\xf7C\x00\x00\x00@\x00\x00\x04C\x00\x00\x08C\x00\x80\x89C\x00\x00\x04D\x00\x00RC\x00\x00\xc9C\x00\x80\x95C\x00\x00\xf0A\x00\x80\xbcC\x00\x00\xe4C\x00\x00\xd1C\x00\x00\xc2B\x00\x009C\x00\xc0\x11D\x00\x00\x92C\x00\x80\xd5C\x00\x00xC\x00\x80\xa2C\x00\x80\xabC\x00\x00\x87C\x00\x80\x13D\x00\x00\xe0A\x00\x004B\x00\x00\xf8C\x00\x00\x8cC\x00\x00\x80B\x00\x00vC\x00\x00\xedC\x00\x80\xf4C\x00\x80\x98C\x00\x00;C\x00\x00pA\x00\x00\x98C\x00\x80\x87C\x00\x80\xe4C\x00\x80\rD\x00\x00MC\x00\x00LC\x00\x80\xc5C\x00\x00\xfcC\x00\x00\xd3C\x00\x00uC\x00\x00\x00\x00\x00\x00\xb6B\x00\x00\xcbC\x00\x00\xa0A\x00\x00~C\x00\xc0\x04D\x00\x00\xb0B\x00\x00\xe0@\x00\x00\xd4B\x00\x00\x03C\x00\x00\xf4B\x00\x00\x92B\x00\x00\x82B\x00\x00\x90B\x00\x00\xb2C\x00\x00\x14C\x00\x00\xb5C\x00\x00\x00A\x00\xc0\x13D\x00\x00\x9bC\x00\x00\x00B\x00\x00\xb3C\x00\x00\xa1C\x00\x80\x12D\x00\x002C\x00\x00\xb8C\x00\x00\xc0B\x00\xc0\x10D\x00\x00\xadC\x00\x00\xb0C\x00\x00\xe8C\x00\x00iC\x00\x00\x94C\x00\xc0\x08D\x00\x00cC\x00\x00mC\x00\x00\xbfC\x00\x00\xbdC\x00\x80\xcfC\x00\x00\x06C\x00\xc0\x05D\x00\x00,C\x00\x00\xf7C\x00\x80\xa8C\x00\x80\xeaC\x00\x00\xacB\x00\xc0\rD\x00\x00\x9cC\x00\xc0\x03D\x00\x00.C\x00@\x0eD\x00\x00\x80A\x00\x80\xe5C\x00\x00\xccB\x00\x00lB\x00\x00\xe4B\x00\x00\x01D\x00\x80\xa7C\x00\x00\x0fD\x00\x00\xfbC\x00\x00\xfcB\x00\x00PA\x00\x80\xfdC\x00\x80\xdcC\x00\x80\x97C\x00\x00%C\x00\x00\xc2C\x00\x000C\x00@\x0bD\x00\x00\x10D\x00\x80\x94C\x00\x00\x00D\x00\x00\xa0C\x00\x80\x14D\x00\x00\xe5C\x00\x00\xebC\x00\x00eC\x00\x80\xd4C\x00\x00\tC\x00\x00\x06D\x00\x80\xd6C\x00\x00\xbbC\x00\x80\x99C\x00@\rD\x00\x00\x10B\x00\x80\xa0C\x00\x80\xc7C\x00\x00\x9aC\x00\x00\xddC\x00\x00qC\x00\x80\x01D\x00\x00\xb0A\x00@\x04D\x00@\x15D\x00\x80\xe9C\x00\x00=C\x00@\x11D\x00\x00\x11C\x00\x80\xcdC\x00\x00\xc4C\x00\x00\xccC\x00\x00\xe6C\x00\x00}C\x00\x80\xd0C\x00\x00\x9eB\x00\x00nC\x00\x00\xe6B\x00\x00SC\x00\x80\x06D\x00\x80\xc0C\x00\x00\xecC\x00\x00QC\x00\x00\x0eC\x00\x008C\x00\x00\\B\x00\x80\xecC\x00\x00\xb8B\x00\x80\x93C\x00\x00\x1bC\x00\x00pC\x00\xc0\x00D\x00\x00JC\x00\x00\x15D\x00\x00\x05C\x00\x00\xd0C\x00\x00dB\x00\x00\xf3C\x00\x00TB\x00\x00\rC\x00\x00\x08B\x00\x00\x07D\x00\x00\xa8C\x00@\x14D\x00\x00\xfaB\x00\x00\x0cB\x00\x00\xcfC\x00\x00\tD\x00\x00CC'
S'\x00\x00\x00\x00\x00\x00\x00\x00\x00\x00\x00\x00\x00\x00\x00\x00\x00\x00\x00\x00\x00\x00\x00\x00\x00\x00\x00\x00\x00\x00\x00\x00\x00\x00\x00\x00\x00\x00\x00\x00\x00\x00\x00\x00\x00\x00\x00\x00\x00\x00\x00\x00\x00\x00\x00\x00\x00\x00\x00\x00\x00\x00\x00\x00\x00\x00\x00\x00\x00\x00\x00\x00\x00\x00\x00\x00\x00\x00\x00\x00\x00\x00\x00\x00\x00\x00\x00\x00\x00\x00\x00\x00\x00\x00\x00\x00\x00\x00\x00\x00\x00\x00\x00\x00\x00\x00\x00\x00\x00\x00\x00\x00\x00\x00\x00\x00\x00\x00\x00\x00\x00\x00\x00\x00\x00\x00\x00\x00\x00\x00\x00\x00\x00\x00\x00\x00\x00\x00\x00\x00\x00\x00\x00\x00\x00\x00\x00\x00\x00\x00\x00\x00\x00\x00\x00\x00\x00\x00\x00\x00\x00\x00\x00\x00\x00\x00\x00\x00\x00\x00\x00\x00\x00\x00\x00\x00\x00\x00\x00\x00\x00\x00\x00\x00\x00\x00\x00\x00\x00\x00\x00\x00\x00\x00\x00\x00\x00\x00\x00\x00\x00\x00\x00\x00\x00\x00\x00\x00\x00\x00\x00\x00\x00\x00\x00\x00\x00\x00\x00\x00\x00\x00\x00\x00\x00\x00\x00\x00\x00\x00\x00\x00\x00\x00\x00\x00\x00\x00\x00\x00\x00\x00\x00\x00\x00\x00\x00\x00\x00\x00\x00\x00\x00\x00\x00\x00\x00\x00\x00\x00\x00\x00\x00\x00\x00\x00\x00\x00\x00\x00\x00\x00\x00\x00\x00\x00\x00\x00\x00\x00\x00\x00\x00\x00\x00\x00\x00\x00\x00\x00\x00\x00\x00\x00\x00\x00\x00\x00\x00\x00\x00\x00\x00\x00\x00\x00\x00\x00\x00\x00\x00\x00\x00\x00\x00\x00\x00\x00\x00\x00\x00\x00\x00\x00\x00\x00\x00\x00\x00\x00\x00\x00\x00\x00\x00\x00\x00\x00\x00\x00\x00\x00\x00\x00\x00\x00\x00\x00\x00\x00\x00\x00\x00\x00\x00\x00\x00\x00\x00\x00\x00\x00\x00\x00\x00\x00\x00\x00\x00\x00\x00\x00\x00\x00\x00\x00\x00\x00\x00\x00\x00\x00\x00\x00\x00\x00\x00\x00\x00\x00\x00\x00\x00\x00\x00\x00\x00\x00\x00\x00\x00\x00\x00\x00\x00\x00\x00\x00\x00\x00\x00\x00\x00\x00\x00\x00\x00\x00\x00\x00\x00\x00\x00\x00\x00\x00\x00\x00\x00\x00\x00\x00\x00\x00\x00\x00\x00\x00\x00\x00\x00\x00\x00\x00\x00\x00\x00\x00\x00\x00\x00\x00\x00\x00\x00\x00\x00\x00\x00\x00\x00\x00\x00\x00\x00\x00\x00\x00\x00\x00\x00\x00\x00\x00\x00\x00\x00\x00\x00\x00\x00\x00\x00\x00\x00\x00\x00\x00\x00\x00\x00\x00\x00\x00\x00\x00\x00\x00\x00\x00\x00\x00\x00\x00\x00\x00\x00\x00\x00\x00\x00\x00\x00\x00\x00\x00\x00\x00\x00\x00\x00\x00\x00\x00\x00\x00\x00\x00\x00\x00\x00\x00\x00\x00\x00\x00\x00\x00\x00\x00\x00\x00\x00\x00\x00\x00\x00\x00\x00\x00\x00\x00\x00\x00\x00\x00\x00\x00\x00\x00\x00\x00\x00\x00\x00\x00\x00\x00\x00\x00\x00\x00\x00\x00\x00\x00\x00\x00\x00\x00\x00\x00\x00\x00\x00\x00\x00\x00\x00\x00\x00\x00\x00\x00\x00\x00\x00\x00\x00\x00'
NtbstRp4861
(dp4862
g59
(dp4863
g47
I01
sg55
I01
ssg61
g4855
sg62
(lp4864
g47
ag55
asg64
(lp4865
I600
aI1
asbsg66
S'random'
p4866
sg68
g69
(g50
(I0
tS'b'
tRp4867
(I1
(I600
I1
tg53
(S'i4'
I0
I1
tRp4868
(I3
S'<'
NNNI-1
I-1
I0
tbI01
S'\xce\x01\x00\x00f\x00\x00\x00\xa3\x01\x00\x00\x16\x01\x00\x00I\x01\x00\x00d\x01\x00\x00k\x01\x00\x00\xd5\x01\x00\x00\xdf\x01\x00\x00\xa8\x00\x00\x00H\x00\x00\x00X\x01\x00\x00Q\x00\x00\x00\x0b\x02\x00\x00Z\x01\x00\x00\xc3\x01\x00\x00\x01\x02\x00\x00\xf0\x00\x00\x00\xd7\x00\x00\x00\xb7\x00\x00\x00\xd1\x01\x00\x00\x12\x01\x00\x00)\x02\x00\x00o\x00\x00\x00\x18\x01\x00\x00m\x00\x00\x00$\x00\x00\x00\x1d\x00\x00\x00\xb9\x01\x00\x00@\x01\x00\x00\xab\x01\x00\x00\x07\x00\x00\x00\xe2\x01\x00\x00x\x01\x00\x00O\x02\x00\x00T\x02\x00\x00"\x02\x00\x00a\x00\x00\x00v\x00\x00\x00G\x01\x00\x00I\x00\x00\x00\xe3\x00\x00\x00d\x00\x00\x00\xdd\x00\x00\x00-\x01\x00\x00\xba\x01\x00\x00"\x01\x00\x00\x07\x01\x00\x00\xb2\x00\x00\x00\x1b\x01\x00\x00\xbb\x00\x00\x00\xb9\x00\x00\x00\xe1\x00\x00\x00M\x02\x00\x00\xaa\x00\x00\x00@\x02\x00\x00w\x01\x00\x00K\x02\x00\x003\x01\x00\x00\x04\x02\x00\x00{\x01\x00\x00\xb1\x00\x00\x00\xab\x00\x00\x00\xd6\x00\x00\x00\xbd\x01\x00\x00\xda\x01\x00\x00\x0b\x00\x00\x00\x86\x01\x00\x00\x7f\x01\x00\x00\x19\x00\x00\x00.\x01\x00\x00\x97\x00\x00\x00\xdb\x01\x00\x00\xd9\x01\x00\x00\x9b\x00\x00\x00(\x01\x00\x00s\x00\x00\x00\x9a\x00\x00\x00\xe6\x00\x00\x006\x02\x00\x00+\x01\x00\x009\x01\x00\x00N\x00\x00\x00\x8b\x00\x00\x00!\x01\x00\x00o\x01\x00\x00\xfb\x01\x00\x00\xe2\x00\x00\x00\xd4\x01\x00\x00>\x01\x00\x00~\x00\x00\x00\xcf\x01\x00\x00B\x02\x00\x00j\x01\x00\x00\x99\x01\x00\x00\x8d\x00\x00\x00\xe8\x01\x00\x00\xaf\x01\x00\x00b\x01\x00\x00\xc4\x00\x00\x00\x0e\x01\x00\x00B\x01\x00\x00\x03\x02\x00\x00y\x01\x00\x00O\x01\x00\x00 \x00\x00\x00\xd6\x01\x00\x00S\x00\x00\x00\x17\x00\x00\x00\x85\x01\x00\x00\xeb\x00\x00\x00\'\x00\x00\x00\xa1\x01\x00\x001\x01\x00\x00\x05\x02\x00\x008\x02\x00\x00\x1f\x01\x00\x00\xf6\x00\x00\x00\x1e\x01\x00\x00}\x01\x00\x00\x92\x01\x00\x00\x9d\x00\x00\x00\xd8\x01\x00\x00\r\x00\x00\x00\x19\x01\x00\x00S\x02\x00\x00\n\x02\x00\x00z\x00\x00\x00&\x01\x00\x00\xc2\x00\x00\x00\x95\x00\x00\x00\xd7\x01\x00\x00\xa4\x01\x00\x00I\x02\x00\x00\xf5\x01\x00\x00r\x01\x00\x00\xa5\x01\x00\x00\x1c\x02\x00\x00\xd9\x00\x00\x00\xcf\x00\x00\x00\xee\x00\x00\x00N\x02\x00\x00>\x02\x00\x00\xc8\x00\x00\x00W\x00\x00\x00/\x02\x00\x00\xa4\x00\x00\x00$\x01\x00\x00\xdd\x01\x00\x00\x0e\x00\x00\x00\x14\x01\x00\x00x\x00\x00\x00\x8c\x01\x00\x00C\x00\x00\x00\xe9\x00\x00\x00D\x02\x00\x00c\x00\x00\x00\xa2\x00\x00\x00\xd1\x00\x00\x00\xfa\x00\x00\x00\xf2\x00\x00\x00^\x01\x00\x00\xb8\x00\x00\x006\x01\x00\x00s\x01\x00\x00\x0f\x02\x00\x00`\x00\x00\x007\x01\x00\x00\x9b\x01\x00\x00i\x00\x00\x00\x9f\x01\x00\x00\x8b\x01\x00\x00\xf7\x01\x00\x00\x9f\x00\x00\x00\xff\x01\x00\x00\x83\x01\x00\x00\x11\x02\x00\x00\x95\x01\x00\x00\xe6\x01\x00\x00\x81\x01\x00\x00(\x00\x00\x00\x9a\x01\x00\x00q\x00\x00\x00\x94\x01\x00\x00?\x02\x00\x00\xb0\x01\x00\x00\x99\x00\x00\x00\xc2\x01\x00\x00\xf9\x00\x00\x00-\x02\x00\x00*\x00\x00\x00\xd5\x00\x00\x00]\x01\x00\x00\x89\x00\x00\x00`\x01\x00\x00W\x02\x00\x00\x0b\x01\x00\x00E\x01\x00\x00U\x00\x00\x00\xcc\x00\x00\x00\xcd\x00\x00\x00\x15\x01\x00\x00G\x02\x00\x00\xcb\x00\x00\x00\xc9\x01\x00\x00\xc8\x01\x00\x00~\x01\x00\x00\x85\x00\x00\x00F\x00\x00\x00=\x02\x00\x00\xa8\x01\x00\x009\x02\x00\x004\x00\x00\x00"\x00\x00\x00K\x00\x00\x00\x06\x01\x00\x00)\x01\x00\x00\xdf\x00\x00\x00\x7f\x00\x00\x00\n\x00\x00\x00\xf5\x00\x00\x00\x8e\x00\x00\x00\xec\x00\x00\x00q\x01\x00\x00\xa0\x01\x00\x000\x01\x00\x00\xda\x00\x00\x00\xf0\x01\x00\x00,\x00\x00\x00\x1a\x02\x00\x00\x94\x00\x00\x00\x04\x01\x00\x00\xc3\x00\x00\x00\xed\x01\x00\x00\x14\x00\x00\x00p\x00\x00\x00@\x00\x00\x00\xf1\x01\x00\x007\x02\x00\x00\x96\x00\x00\x00E\x02\x00\x00\'\x02\x00\x00:\x00\x00\x00\xbe\x00\x00\x00f\x01\x00\x00\xcd\x01\x00\x00\xbe\x01\x00\x00\xfe\x00\x00\x00\xb4\x01\x00\x00\xea\x00\x00\x00\x90\x00\x00\x00\x03\x01\x00\x00>\x00\x00\x004\x02\x00\x00\xd2\x01\x00\x00\x18\x00\x00\x00\xe8\x00\x00\x00&\x00\x00\x009\x00\x00\x00u\x00\x00\x00n\x00\x00\x00\xce\x00\x00\x00\x9c\x00\x00\x00J\x01\x00\x00?\x01\x00\x00\xde\x00\x00\x00\x82\x00\x00\x00\x87\x01\x00\x00\x13\x00\x00\x00\xfd\x00\x00\x00\xb7\x01\x00\x00\xc5\x01\x00\x00\x10\x01\x00\x00/\x01\x00\x00\x1f\x00\x00\x00\xa6\x01\x00\x00\x02\x00\x00\x00\x8a\x01\x00\x00!\x00\x00\x00\xd8\x00\x00\x00\xbc\x01\x00\x00\xfc\x00\x00\x00\\\x00\x00\x00:\x01\x00\x00\x8a\x00\x00\x00\x81\x00\x00\x00\x92\x00\x00\x002\x01\x00\x00\xb3\x00\x00\x00A\x00\x00\x00\x0f\x00\x00\x00_\x01\x00\x00\xb2\x01\x00\x00\xf3\x00\x00\x00\x1b\x00\x00\x00C\x02\x00\x00\xee\x01\x00\x00\x14\x02\x00\x00\x8f\x01\x00\x00\xaa\x01\x00\x00\x91\x00\x00\x00\xac\x00\x00\x00+\x00\x00\x00\x0e\x02\x00\x00\xc4\x01\x00\x00\xc1\x01\x00\x00F\x01\x00\x00 \x02\x00\x00%\x02\x00\x00\n\x01\x00\x00\xe1\x01\x00\x00T\x01\x00\x00\xfd\x01\x00\x00\xad\x00\x00\x00u\x01\x00\x00\x1a\x01\x00\x00\xca\x00\x00\x00Z\x00\x00\x00\x0c\x01\x00\x00a\x01\x00\x00\x16\x02\x00\x00#\x02\x00\x00\xe4\x01\x00\x00R\x01\x00\x006\x00\x00\x00\xb5\x01\x00\x00g\x00\x00\x00M\x00\x00\x00S\x01\x00\x00\xa7\x00\x00\x00\xe4\x00\x00\x00\x08\x00\x00\x00r\x00\x00\x00\x80\x00\x00\x00*\x01\x00\x00\x07\x02\x00\x00Q\x02\x00\x00\xf9\x01\x00\x00\xa6\x00\x00\x00D\x00\x00\x00\x84\x00\x00\x00\t\x00\x00\x00\xb4\x00\x00\x00\xb6\x01\x00\x00\x97\x01\x00\x00\xf7\x00\x00\x00\xea\x01\x00\x008\x00\x00\x00?\x00\x00\x00\x17\x01\x00\x00\x01\x01\x00\x00\x96\x01\x00\x00\xeb\x01\x00\x000\x00\x00\x00E\x00\x00\x00\xed\x00\x00\x00\xdc\x01\x00\x00D\x01\x00\x00\xe3\x01\x00\x00\xa0\x00\x00\x00Y\x01\x00\x00/\x00\x00\x00\xde\x01\x00\x00X\x00\x00\x00[\x01\x00\x00\xbc\x00\x00\x00\x08\x01\x00\x00i\x01\x00\x00\xe7\x01\x00\x00\x91\x01\x00\x00\x86\x00\x00\x00C\x01\x00\x00\x03\x00\x00\x00P\x01\x00\x00\x1f\x02\x00\x00[\x00\x00\x00\x88\x01\x00\x00\xac\x01\x00\x00\xf3\x01\x00\x00z\x01\x00\x002\x00\x00\x00\x02\x01\x00\x00\xf2\x01\x00\x00\xae\x00\x00\x00#\x00\x00\x00;\x02\x00\x00\x11\x01\x00\x00\xd0\x00\x00\x00\x10\x02\x00\x00t\x01\x00\x00;\x00\x00\x00\xdb\x00\x00\x001\x02\x00\x00\xb6\x00\x00\x00\xdc\x00\x00\x00\xca\x01\x00\x00\xe7\x00\x00\x00\x1c\x00\x00\x00V\x00\x00\x00$\x02\x00\x00J\x00\x00\x00\x98\x00\x00\x00\xa9\x01\x00\x00\t\x01\x00\x00Y\x00\x00\x00\x04\x00\x00\x00\xd0\x01\x00\x00\x00\x01\x00\x002\x02\x00\x00\xb0\x00\x00\x00}\x00\x00\x000\x02\x00\x00O\x00\x00\x00H\x01\x00\x00U\x02\x00\x00\xf4\x01\x00\x00J\x02\x00\x005\x02\x00\x00\xae\x01\x00\x00\xc9\x00\x00\x00\xe5\x00\x00\x00g\x01\x00\x00\xcc\x01\x00\x00\x9e\x00\x00\x00\xbf\x00\x00\x00\x1b\x02\x00\x00\xd2\x00\x00\x00\xb3\x01\x00\x00\x05\x01\x00\x00\x1e\x02\x00\x00\x00\x00\x00\x00\x90\x01\x00\x00\x98\x01\x00\x00\xa1\x00\x00\x00G\x00\x00\x00\xc7\x00\x00\x00y\x00\x00\x00\x12\x00\x00\x00M\x01\x00\x00|\x01\x00\x00c\x01\x00\x00\r\x02\x00\x00&\x02\x00\x00=\x00\x00\x00]\x00\x00\x00\xfb\x00\x00\x00h\x00\x00\x00A\x01\x00\x00\x84\x01\x00\x00\x1d\x01\x00\x00n\x01\x00\x005\x01\x00\x00\xa9\x00\x00\x00<\x01\x00\x00\r\x01\x00\x00\x05\x00\x00\x00\xad\x01\x00\x00\xc6\x01\x00\x00\x18\x02\x00\x00\x02\x02\x00\x003\x02\x00\x003\x00\x00\x00.\x00\x00\x00\x8e\x01\x00\x00\xec\x01\x00\x00{\x00\x00\x00\xb5\x00\x00\x00,\x02\x00\x00\xff\x00\x00\x00\xfa\x01\x00\x00\x19\x02\x00\x00\x93\x01\x00\x00<\x02\x00\x00A\x02\x00\x00\xbf\x01\x00\x00)\x00\x00\x00b\x00\x00\x00%\x01\x00\x00k\x00\x00\x00;\x01\x00\x00|\x00\x00\x00<\x00\x00\x00W\x01\x00\x00L\x01\x00\x00h\x01\x00\x00\xa5\x00\x00\x00L\x02\x00\x00V\x01\x00\x00\xef\x00\x00\x00\xc0\x01\x00\x00w\x00\x00\x00\xe0\x00\x00\x00\x1e\x00\x00\x00R\x00\x00\x00\xf8\x01\x00\x00\xa2\x01\x00\x00\xbb\x01\x00\x001\x00\x00\x00\x13\x01\x00\x00N\x01\x00\x00T\x00\x00\x00P\x00\x00\x00\t\x02\x00\x008\x01\x00\x00\xcb\x01\x00\x00\x1a\x00\x00\x00\x88\x00\x00\x00\x0c\x02\x00\x00\'\x01\x00\x00\xba\x00\x00\x00Q\x01\x00\x00\x83\x00\x00\x00\x15\x02\x00\x00\xf8\x00\x00\x00B\x00\x00\x00F\x02\x00\x00\x06\x02\x00\x00,\x01\x00\x00(\x02\x00\x00\x0f\x01\x00\x00\x8f\x00\x00\x00\xd3\x00\x00\x00\xa3\x00\x00\x00\x0c\x00\x00\x00v\x01\x00\x00\x1c\x01\x00\x00\x8c\x00\x00\x00\xfe\x01\x00\x00\xa7\x01\x00\x00*\x02\x00\x00\x87\x00\x00\x00\xd3\x01\x00\x00e\x01\x00\x00l\x00\x00\x00\xbd\x00\x00\x00\xf6\x01\x00\x00\x1d\x02\x00\x00-\x00\x00\x00:\x02\x00\x00K\x01\x00\x00P\x02\x00\x00\x16\x00\x00\x00e\x00\x00\x004\x01\x00\x00\x8d\x01\x00\x00U\x01\x00\x00L\x00\x00\x00\xef\x01\x00\x00V\x02\x00\x00m\x01\x00\x00\xf1\x00\x00\x00\xaf\x00\x00\x00\xc1\x00\x00\x00=\x01\x00\x00\x06\x00\x00\x00l\x01\x00\x00\xc5\x00\x00\x00\x12\x02\x00\x00\x80\x01\x00\x00j\x00\x00\x00\x93\x00\x00\x00p\x01\x00\x00^\x00\x00\x00\x89\x01\x00\x00\x11\x00\x00\x00!\x02\x00\x00\xc7\x01\x00\x00\xfc\x01\x00\x00\xf4\x00\x00\x00\x00\x02\x00\x00\x10\x00\x00\x00\x9c\x01\x00\x00\x08\x02\x00\x00_\x00\x00\x00\x01\x00\x00\x00\\\x01\x00\x00\x13\x02\x00\x00\x82\x01\x00\x00t\x00\x00\x00\xe9\x01\x00\x00\xc0\x00\x00\x00.\x02\x00\x007\x00\x00\x00\xb1\x01\x00\x00#\x01\x00\x00\xc6\x00\x00\x00\xe5\x01\x00\x00\xd4\x00\x00\x005\x00\x00\x00\x9d\x01\x00\x00\xb8\x01\x00\x00\xe0\x01\x00\x00 \x01\x00\x00R\x02\x00\x00\x17\x02\x00\x00%\x00\x00\x00H\x02\x00\x00+\x02\x00\x00\x15\x00\x00\x00\x9e\x01\x00\x00'
tbsg73
I01
sg74
I1
sg75
I-1
sg76
(lp4869
I0
aI1
aI2
aI3
aI4
aI5
aI6
aI7
aI8
aI9
aI10
aI11
aI12
aI13
aI14
aI15
aI16
aI17
aI18
aI19
aI20
aI21
aI22
aI23
aI24
aI25
aI26
aI27
aI28
aI29
aI30
aI31
aI32
aI33
aI34
aI35
aI36
aI37
aI38
aI39
aI40
aI41
aI42
aI43
aI44
aI45
aI46
aI47
aI48
aI49
aI50
aI51
aI52
aI53
aI54
aI55
aI56
aI57
aI58
aI59
aI60
aI61
aI62
aI63
aI64
aI65
aI66
aI67
aI68
aI69
aI70
aI71
aI72
aI73
aI74
aI75
aI76
aI77
aI78
aI79
aI80
aI81
aI82
aI83
aI84
aI85
aI86
aI87
aI88
aI89
aI90
aI91
aI92
aI93
aI94
aI95
aI96
aI97
aI98
aI99
aI100
aI101
aI102
aI103
aI104
aI105
aI106
aI107
aI108
aI109
aI110
aI111
aI112
aI113
aI114
aI115
aI116
aI117
aI118
aI119
aI120
aI121
aI122
aI123
aI124
aI125
aI126
aI127
aI128
aI129
aI130
aI131
aI132
aI133
aI134
aI135
aI136
aI137
aI138
aI139
aI140
aI141
aI142
aI143
aI144
aI145
aI146
aI147
aI148
aI149
aI150
aI151
aI152
aI153
aI154
aI155
aI156
aI157
aI158
aI159
aI160
aI161
aI162
aI163
aI164
aI165
aI166
aI167
aI168
aI169
aI170
aI171
aI172
aI173
aI174
aI175
aI176
aI177
aI178
aI179
aI180
aI181
aI182
aI183
aI184
aI185
aI186
aI187
aI188
aI189
aI190
aI191
aI192
aI193
aI194
aI195
aI196
aI197
aI198
aI199
aI200
aI201
aI202
aI203
aI204
aI205
aI206
aI207
aI208
aI209
aI210
aI211
aI212
aI213
aI214
aI215
aI216
aI217
aI218
aI219
aI220
aI221
aI222
aI223
aI224
aI225
aI226
aI227
aI228
aI229
aI230
aI231
aI232
aI233
aI234
aI235
aI236
aI237
aI238
aI239
aI240
aI241
aI242
aI243
aI244
aI245
aI246
aI247
aI248
aI249
aI250
aI251
aI252
aI253
aI254
aI255
aI256
aI257
aI258
aI259
aI260
aI261
aI262
aI263
aI264
aI265
aI266
aI267
aI268
aI269
aI270
aI271
aI272
aI273
aI274
aI275
aI276
aI277
aI278
aI279
aI280
aI281
aI282
aI283
aI284
aI285
aI286
aI287
aI288
aI289
aI290
aI291
aI292
aI293
aI294
aI295
aI296
aI297
aI298
aI299
aI300
aI301
aI302
aI303
aI304
aI305
aI306
aI307
aI308
aI309
aI310
aI311
aI312
aI313
aI314
aI315
aI316
aI317
aI318
aI319
aI320
aI321
aI322
aI323
aI324
aI325
aI326
aI327
aI328
aI329
aI330
aI331
aI332
aI333
aI334
aI335
aI336
aI337
aI338
aI339
aI340
aI341
aI342
aI343
aI344
aI345
aI346
aI347
aI348
aI349
aI350
aI351
aI352
aI353
aI354
aI355
aI356
aI357
aI358
aI359
aI360
aI361
aI362
aI363
aI364
aI365
aI366
aI367
aI368
aI369
aI370
aI371
aI372
aI373
aI374
aI375
aI376
aI377
aI378
aI379
aI380
aI381
aI382
aI383
aI384
aI385
aI386
aI387
aI388
aI389
aI390
aI391
aI392
aI393
aI394
aI395
aI396
aI397
aI398
aI399
aI400
aI401
aI402
aI403
aI404
aI405
aI406
aI407
aI408
aI409
aI410
aI411
aI412
aI413
aI414
aI415
aI416
aI417
aI418
aI419
aI420
aI421
aI422
aI423
aI424
aI425
aI426
aI427
aI428
aI429
aI430
aI431
aI432
aI433
aI434
aI435
aI436
aI437
aI438
aI439
aI440
aI441
aI442
aI443
aI444
aI445
aI446
aI447
aI448
aI449
aI450
aI451
aI452
aI453
aI454
aI455
aI456
aI457
aI458
aI459
aI460
aI461
aI462
aI463
aI464
aI465
aI466
aI467
aI468
aI469
aI470
aI471
aI472
aI473
aI474
aI475
aI476
aI477
aI478
aI479
aI480
aI481
aI482
aI483
aI484
aI485
aI486
aI487
aI488
aI489
aI490
aI491
aI492
aI493
aI494
aI495
aI496
aI497
aI498
aI499
aI500
aI501
aI502
aI503
aI504
aI505
aI506
aI507
aI508
aI509
aI510
aI511
aI512
aI513
aI514
aI515
aI516
aI517
aI518
aI519
aI520
aI521
aI522
aI523
aI524
aI525
aI526
aI527
aI528
aI529
aI530
aI531
aI532
aI533
aI534
aI535
aI536
aI537
aI538
aI539
aI540
aI541
aI542
aI543
aI544
aI545
aI546
aI547
aI548
aI549
aI550
aI551
aI552
aI553
aI554
aI555
aI556
aI557
aI558
aI559
aI560
aI561
aI562
aI563
aI564
aI565
aI566
aI567
aI568
aI569
aI570
aI571
aI572
aI573
aI574
aI575
aI576
aI577
aI578
aI579
aI580
aI581
aI582
aI583
aI584
aI585
aI586
aI587
aI588
aI589
aI590
aI591
aI592
aI593
aI594
aI595
aI596
aI597
aI598
aI599
asg78
Nsg79
cnumpy.core.multiarray
scalar
p4870
(g4868
S'\x9e\x01\x00\x00'
tRp4871
sg80
I600
sg81
I0
sg82
I600
sg83
I01
sbag36
asS'savePickle'
p4872
I00
sb.