ccopy_reg
_reconstructor
p1
(cpsychopy.data
ExperimentHandler
p2
c__builtin__
object
p3
NtRp4
(dp5
S'originPath'
p6
NsS'dataFileName'
p7
Vsubject616
p8
sS'runtimeInfo'
p9
NsS'name'
p10
VVERBALRBsubject 616
p11
sS'dataNames'
p12
(lp13
S'Block Number'
p14
aS'Key pressed'
p15
aS'Category'
p16
aS'Correct?'
p17
aS'Int Match?'
p18
aS'Int Response'
p19
aS'Int Correct?'
p20
aS'Line Accuracy'
p21
aS'Interference Accuracy'
p22
aS'Matching Interferences'
p23
aS'New instruction shown?'
p24
aS'Buttons switched?'
p25
aS'Fast?'
p26
asS'autoLog'
p27
I01
sS'extraInfo'
p28
(dp29
S'gender'
p30
Vmale
p31
sS'age'
p32
V20
p33
ssS'loopsUnfinished'
p34
(lp35
g1
(cpsychopy.data
TrialHandler
p36
g3
NtRp37
(dp38
S'origin'
p39
NsS'thisTrial'
p40
I6
sS'_exp'
p41
I78819472
sg10
S''
sg6
S'C:\\Users\\Mike\\Desktop\\Dual2\\NEWVerbalRB.py'
p42
sS'thisRepN'
p43
I54
sg27
I01
sg28
NsS'data'
p44
g1
(cpsychopy.data
DataHandler
p45
c__builtin__
dict
p46
(dp47
S'ran'
p48
cnumpy.ma.core
_mareconstruct
p49
(cnumpy.ma.core
MaskedArray
p50
cnumpy
ndarray
p51
(I0
tp52
S'b'
tRp53
(I1
(I11
I55
tcnumpy
dtype
p54
(S'f4'
I0
I1
tRp55
(I3
S'<'
NNNI-1
I-1
I0
tbI00
S'\x00\x00\x80?\x00\x00\x80?\x00\x00\x80?\x00\x00\x80?\x00\x00\x80?\x00\x00\x80?\x00\x00\x80?\x00\x00\x80?\x00\x00\x80?\x00\x00\x80?\x00\x00\x80?\x00\x00\x80?\x00\x00\x80?\x00\x00\x80?\x00\x00\x80?\x00\x00\x80?\x00\x00\x80?\x00\x00\x80?\x00\x00\x80?\x00\x00\x80?\x00\x00\x80?\x00\x00\x80?\x00\x00\x80?\x00\x00\x80?\x00\x00\x80?\x00\x00\x80?\x00\x00\x80?\x00\x00\x80?\x00\x00\x80?\x00\x00\x80?\x00\x00\x80?\x00\x00\x80?\x00\x00\x80?\x00\x00\x80?\x00\x00\x80?\x00\x00\x80?\x00\x00\x80?\x00\x00\x80?\x00\x00\x80?\x00\x00\x80?\x00\x00\x80?\x00\x00\x80?\x00\x00\x80?\x00\x00\x80?\x00\x00\x80?\x00\x00\x80?\x00\x00\x80?\x00\x00\x80?\x00\x00\x80?\x00\x00\x80?\x00\x00\x80?\x00\x00\x80?\x00\x00\x80?\x00\x00\x80?\x00\x00\x80?\x00\x00\x80?\x00\x00\x80?\x00\x00\x80?\x00\x00\x80?\x00\x00\x80?\x00\x00\x80?\x00\x00\x80?\x00\x00\x80?\x00\x00\x80?\x00\x00\x80?\x00\x00\x80?\x00\x00\x80?\x00\x00\x80?\x00\x00\x80?\x00\x00\x80?\x00\x00\x80?\x00\x00\x80?\x00\x00\x80?\x00\x00\x80?\x00\x00\x80?\x00\x00\x80?\x00\x00\x80?\x00\x00\x80?\x00\x00\x80?\x00\x00\x80?\x00\x00\x80?\x00\x00\x80?\x00\x00\x80?\x00\x00\x80?\x00\x00\x80?\x00\x00\x80?\x00\x00\x80?\x00\x00\x80?\x00\x00\x80?\x00\x00\x80?\x00\x00\x80?\x00\x00\x80?\x00\x00\x80?\x00\x00\x80?\x00\x00\x80?\x00\x00\x80?\x00\x00\x80?\x00\x00\x80?\x00\x00\x80?\x00\x00\x80?\x00\x00\x80?\x00\x00\x80?\x00\x00\x80?\x00\x00\x80?\x00\x00\x80?\x00\x00\x80?\x00\x00\x80?\x00\x00\x80?\x00\x00\x80?\x00\x00\x00\x00\x00\x00\x80?\x00\x00\x80?\x00\x00\x80?\x00\x00\x80?\x00\x00\x80?\x00\x00\x80?\x00\x00\x80?\x00\x00\x80?\x00\x00\x80?\x00\x00\x80?\x00\x00\x80?\x00\x00\x80?\x00\x00\x80?\x00\x00\x80?\x00\x00\x80?\x00\x00\x80?\x00\x00\x80?\x00\x00\x80?\x00\x00\x80?\x00\x00\x80?\x00\x00\x80?\x00\x00\x80?\x00\x00\x80?\x00\x00\x80?\x00\x00\x80?\x00\x00\x80?\x00\x00\x80?\x00\x00\x80?\x00\x00\x80?\x00\x00\x80?\x00\x00\x80?\x00\x00\x80?\x00\x00\x80?\x00\x00\x80?\x00\x00\x80?\x00\x00\x80?\x00\x00\x80?\x00\x00\x80?\x00\x00\x80?\x00\x00\x80?\x00\x00\x80?\x00\x00\x80?\x00\x00\x80?\x00\x00\x80?\x00\x00\x80?\x00\x00\x80?\x00\x00\x80?\x00\x00\x80?\x00\x00\x80?\x00\x00\x80?\x00\x00\x80?\x00\x00\x80?\x00\x00\x80?\x00\x00\x00\x00\x00\x00\x00\x00\x00\x00\x80?\x00\x00\x80?\x00\x00\x80?\x00\x00\x80?\x00\x00\x80?\x00\x00\x80?\x00\x00\x80?\x00\x00\x80?\x00\x00\x80?\x00\x00\x80?\x00\x00\x80?\x00\x00\x80?\x00\x00\x80?\x00\x00\x80?\x00\x00\x80?\x00\x00\x80?\x00\x00\x80?\x00\x00\x80?\x00\x00\x80?\x00\x00\x80?\x00\x00\x80?\x00\x00\x80?\x00\x00\x80?\x00\x00\x80?\x00\x00\x80?\x00\x00\x80?\x00\x00\x80?\x00\x00\x80?\x00\x00\x80?\x00\x00\x80?\x00\x00\x80?\x00\x00\x80?\x00\x00\x80?\x00\x00\x80?\x00\x00\x80?\x00\x00\x80?\x00\x00\x80?\x00\x00\x80?\x00\x00\x80?\x00\x00\x80?\x00\x00\x80?\x00\x00\x80?\x00\x00\x80?\x00\x00\x80?\x00\x00\x80?\x00\x00\x80?\x00\x00\x80?\x00\x00\x80?\x00\x00\x80?\x00\x00\x80?\x00\x00\x80?\x00\x00\x80?\x00\x00\x80?\x00\x00\x80?\x00\x00\x80?\x00\x00\x80?\x00\x00\x80?\x00\x00\x80?\x00\x00\x80?\x00\x00\x80?\x00\x00\x80?\x00\x00\x80?\x00\x00\x80?\x00\x00\x80?\x00\x00\x80?\x00\x00\x80?\x00\x00\x80?\x00\x00\x80?\x00\x00\x80?\x00\x00\x80?\x00\x00\x80?\x00\x00\x80?\x00\x00\x80?\x00\x00\x80?\x00\x00\x80?\x00\x00\x80?\x00\x00\x80?\x00\x00\x80?\x00\x00\x80?\x00\x00\x80?\x00\x00\x80?\x00\x00\x80?\x00\x00\x80?\x00\x00\x80?\x00\x00\x80?\x00\x00\x80?\x00\x00\x80?\x00\x00\x80?\x00\x00\x80?\x00\x00\x80?\x00\x00\x80?\x00\x00\x80?\x00\x00\x80?\x00\x00\x80?\x00\x00\x80?\x00\x00\x80?\x00\x00\x80?\x00\x00\x80?\x00\x00\x80?\x00\x00\x80?\x00\x00\x80?\x00\x00\x80?\x00\x00\x80?\x00\x00\x80?\x00\x00\x80?\x00\x00\x80?\x00\x00\x80?\x00\x00\x80?\x00\x00\x80?\x00\x00\x80?\x00\x00\x80?\x00\x00\x80?\x00\x00\x80?\x00\x00\x80?\x00\x00\x80?\x00\x00\x80?\x00\x00\x80?\x00\x00\x80?\x00\x00\x80?\x00\x00\x80?\x00\x00\x80?\x00\x00\x80?\x00\x00\x80?\x00\x00\x80?\x00\x00\x80?\x00\x00\x80?\x00\x00\x80?\x00\x00\x80?\x00\x00\x80?\x00\x00\x80?\x00\x00\x80?\x00\x00\x80?\x00\x00\x80?\x00\x00\x80?\x00\x00\x80?\x00\x00\x80?\x00\x00\x80?\x00\x00\x80?\x00\x00\x80?\x00\x00\x80?\x00\x00\x80?\x00\x00\x80?\x00\x00\x80?\x00\x00\x80?\x00\x00\x80?\x00\x00\x80?\x00\x00\x80?\x00\x00\x80?\x00\x00\x80?\x00\x00\x80?\x00\x00\x80?\x00\x00\x80?\x00\x00\x80?\x00\x00\x80?\x00\x00\x80?\x00\x00\x80?\x00\x00\x80?\x00\x00\x80?\x00\x00\x80?\x00\x00\x80?\x00\x00\x80?\x00\x00\x80?\x00\x00\x80?\x00\x00\x80?\x00\x00\x80?\x00\x00\x80?\x00\x00\x80?\x00\x00\x80?\x00\x00\x80?\x00\x00\x80?\x00\x00\x80?\x00\x00\x80?\x00\x00\x80?\x00\x00\x80?\x00\x00\x80?\x00\x00\x80?\x00\x00\x80?\x00\x00\x80?\x00\x00\x80?\x00\x00\x80?\x00\x00\x80?\x00\x00\x80?\x00\x00\x80?\x00\x00\x80?\x00\x00\x80?\x00\x00\x80?\x00\x00\x80?\x00\x00\x80?\x00\x00\x80?\x00\x00\x80?\x00\x00\x80?\x00\x00\x80?\x00\x00\x80?\x00\x00\x80?\x00\x00\x80?\x00\x00\x80?\x00\x00\x80?\x00\x00\x80?\x00\x00\x80?\x00\x00\x80?\x00\x00\x80?\x00\x00\x80?\x00\x00\x80?\x00\x00\x80?\x00\x00\x80?\x00\x00\x80?\x00\x00\x80?\x00\x00\x80?\x00\x00\x80?\x00\x00\x80?\x00\x00\x80?\x00\x00\x80?\x00\x00\x80?\x00\x00\x80?\x00\x00\x80?\x00\x00\x80?\x00\x00\x80?\x00\x00\x80?\x00\x00\x80?\x00\x00\x80?\x00\x00\x80?\x00\x00\x80?\x00\x00\x80?\x00\x00\x80?\x00\x00\x80?\x00\x00\x80?\x00\x00\x80?\x00\x00\x80?\x00\x00\x80?\x00\x00\x80?\x00\x00\x80?\x00\x00\x80?\x00\x00\x80?\x00\x00\x80?\x00\x00\x80?\x00\x00\x80?\x00\x00\x80?\x00\x00\x80?\x00\x00\x80?\x00\x00\x80?\x00\x00\x80?\x00\x00\x80?\x00\x00\x80?\x00\x00\x80?\x00\x00\x80?\x00\x00\x80?\x00\x00\x80?\x00\x00\x80?\x00\x00\x80?\x00\x00\x80?\x00\x00\x80?\x00\x00\x80?\x00\x00\x80?\x00\x00\x80?\x00\x00\x80?\x00\x00\x80?\x00\x00\x80?\x00\x00\x80?\x00\x00\x80?\x00\x00\x80?\x00\x00\x80?\x00\x00\x80?\x00\x00\x80?\x00\x00\x80?\x00\x00\x80?\x00\x00\x80?\x00\x00\x80?\x00\x00\x80?\x00\x00\x80?\x00\x00\x80?\x00\x00\x80?\x00\x00\x80?\x00\x00\x80?\x00\x00\x80?\x00\x00\x80?\x00\x00\x80?\x00\x00\x80?\x00\x00\x80?\x00\x00\x80?\x00\x00\x80?\x00\x00\x80?\x00\x00\x80?\x00\x00\x80?\x00\x00\x80?\x00\x00\x80?\x00\x00\x80?\x00\x00\x80?\x00\x00\x80?\x00\x00\x80?\x00\x00\x80?\x00\x00\x80?\x00\x00\x80?\x00\x00\x80?\x00\x00\x80?\x00\x00\x80?\x00\x00\x80?\x00\x00\x80?\x00\x00\x80?\x00\x00\x80?\x00\x00\x80?\x00\x00\x80?\x00\x00\x80?\x00\x00\x80?\x00\x00\x80?\x00\x00\x80?\x00\x00\x80?\x00\x00\x80?\x00\x00\x80?\x00\x00\x80?\x00\x00\x80?\x00\x00\x80?\x00\x00\x80?\x00\x00\x80?\x00\x00\x80?\x00\x00\x80?\x00\x00\x80?\x00\x00\x80?\x00\x00\x80?\x00\x00\x80?\x00\x00\x80?\x00\x00\x80?\x00\x00\x80?\x00\x00\x80?\x00\x00\x80?\x00\x00\x80?\x00\x00\x80?\x00\x00\x80?\x00\x00\x80?\x00\x00\x80?\x00\x00\x00\x00\x00\x00\x80?\x00\x00\x80?\x00\x00\x80?\x00\x00\x80?\x00\x00\x80?\x00\x00\x80?\x00\x00\x80?\x00\x00\x80?\x00\x00\x80?\x00\x00\x80?\x00\x00\x80?\x00\x00\x80?\x00\x00\x80?\x00\x00\x80?\x00\x00\x80?\x00\x00\x80?\x00\x00\x80?\x00\x00\x80?\x00\x00\x80?\x00\x00\x80?\x00\x00\x80?\x00\x00\x80?\x00\x00\x80?\x00\x00\x80?\x00\x00\x80?\x00\x00\x80?\x00\x00\x80?\x00\x00\x80?\x00\x00\x80?\x00\x00\x80?\x00\x00\x80?\x00\x00\x80?\x00\x00\x80?\x00\x00\x80?\x00\x00\x80?\x00\x00\x80?\x00\x00\x80?\x00\x00\x80?\x00\x00\x80?\x00\x00\x80?\x00\x00\x80?\x00\x00\x80?\x00\x00\x80?\x00\x00\x80?\x00\x00\x80?\x00\x00\x80?\x00\x00\x80?\x00\x00\x80?\x00\x00\x80?\x00\x00\x80?\x00\x00\x80?\x00\x00\x80?\x00\x00\x80?\x00\x00\x80?\x00\x00\x80?\x00\x00\x80?\x00\x00\x80?\x00\x00\x80?\x00\x00\x80?\x00\x00\x80?\x00\x00\x80?\x00\x00\x80?\x00\x00\x80?\x00\x00\x80?\x00\x00\x80?\x00\x00\x80?\x00\x00\x80?\x00\x00\x80?\x00\x00\x80?\x00\x00\x80?\x00\x00\x80?\x00\x00\x80?\x00\x00\x80?\x00\x00\x80?\x00\x00\x80?\x00\x00\x80?\x00\x00\x80?\x00\x00\x80?\x00\x00\x80?\x00\x00\x80?\x00\x00\x80?\x00\x00\x80?\x00\x00\x80?\x00\x00\x80?\x00\x00\x80?\x00\x00\x80?\x00\x00\x80?\x00\x00\x80?\x00\x00\x80?\x00\x00\x80?\x00\x00\x80?\x00\x00\x80?\x00\x00\x80?\x00\x00\x80?\x00\x00\x80?\x00\x00\x80?\x00\x00\x80?\x00\x00\x80?\x00\x00\x80?\x00\x00\x80?\x00\x00\x80?\x00\x00\x80?\x00\x00\x80?\x00\x00\x80?\x00\x00\x80?\x00\x00\x80?\x00\x00\x80?\x00\x00\x80?\x00\x00\x80?\x00\x00\x00\x00'
S'\x00\x00\x00\x00\x00\x00\x00\x00\x00\x00\x00\x00\x00\x00\x00\x00\x00\x00\x00\x00\x00\x00\x00\x00\x00\x00\x00\x00\x00\x00\x00\x00\x00\x00\x00\x00\x00\x00\x00\x00\x00\x00\x00\x00\x00\x00\x00\x00\x00\x00\x00\x00\x00\x00\x00\x00\x00\x00\x00\x00\x00\x00\x00\x00\x00\x00\x00\x00\x00\x00\x00\x00\x00\x00\x00\x00\x00\x00\x00\x00\x00\x00\x00\x00\x00\x00\x00\x00\x00\x00\x00\x00\x00\x00\x00\x00\x00\x00\x00\x00\x00\x00\x00\x00\x00\x00\x00\x00\x00\x00\x00\x00\x00\x00\x00\x00\x00\x00\x00\x00\x00\x00\x00\x00\x00\x00\x00\x00\x00\x00\x00\x00\x00\x00\x00\x00\x00\x00\x00\x00\x00\x00\x00\x00\x00\x00\x00\x00\x00\x00\x00\x00\x00\x00\x00\x00\x00\x00\x00\x00\x00\x00\x00\x00\x00\x00\x00\x00\x00\x00\x00\x00\x00\x00\x00\x00\x00\x00\x00\x00\x00\x00\x00\x00\x00\x00\x00\x00\x00\x00\x00\x00\x00\x00\x00\x00\x00\x00\x00\x00\x00\x00\x00\x00\x00\x00\x00\x00\x00\x00\x00\x00\x00\x00\x00\x00\x00\x00\x00\x00\x00\x00\x00\x00\x00\x00\x00\x00\x00\x00\x00\x00\x00\x00\x00\x00\x00\x00\x00\x00\x00\x00\x00\x00\x00\x00\x00\x00\x00\x00\x00\x00\x00\x00\x00\x00\x00\x00\x00\x00\x00\x00\x00\x00\x00\x00\x00\x00\x00\x00\x00\x00\x00\x00\x00\x00\x00\x00\x00\x00\x00\x00\x00\x00\x00\x00\x00\x00\x00\x00\x00\x00\x00\x00\x00\x00\x00\x00\x00\x00\x00\x00\x00\x00\x00\x00\x00\x00\x00\x00\x00\x00\x00\x00\x00\x00\x00\x00\x00\x00\x00\x00\x00\x00\x00\x00\x00\x00\x00\x00\x00\x00\x00\x00\x00\x00\x00\x00\x00\x00\x00\x00\x00\x00\x00\x00\x00\x00\x00\x00\x00\x00\x00\x00\x00\x00\x00\x00\x00\x00\x00\x00\x00\x00\x00\x00\x00\x00\x00\x00\x00\x00\x00\x00\x00\x00\x00\x00\x00\x00\x00\x00\x00\x00\x00\x00\x00\x00\x00\x00\x00\x00\x00\x00\x00\x00\x00\x00\x00\x00\x00\x00\x00\x00\x00\x00\x00\x00\x00\x00\x00\x00\x00\x00\x00\x00\x00\x00\x00\x00\x00\x00\x00\x00\x00\x00\x00\x00\x00\x00\x00\x00\x00\x00\x00\x00\x00\x00\x00\x00\x00\x00\x00\x00\x00\x00\x00\x00\x00\x00\x00\x00\x00\x00\x00\x00\x00\x00\x00\x00\x00\x00\x00\x00\x00\x00\x00\x00\x00\x00\x00\x00\x00\x00\x00\x00\x00\x00\x00\x00\x00\x00\x00\x00\x00\x00\x00\x00\x00\x00\x00\x00\x00\x00\x00\x00\x00\x00\x00\x00\x00\x00\x00\x00\x00\x00\x00\x00\x00\x00\x00\x00\x00\x00\x00\x00\x00\x00\x00\x00\x00\x00\x00\x00\x00\x00\x00\x00\x00\x00\x00\x00\x00\x00\x00\x00\x00\x00\x00\x00\x00\x00\x00\x00\x00\x00\x00\x00\x00\x00\x00\x00\x00\x00\x00\x00\x00\x00\x00\x00\x00\x00\x00\x00\x00\x00\x00\x00\x00\x00\x00\x00\x00\x00\x00\x00\x00\x00\x00\x00\x00\x00\x00\x00\x00\x00\x00\x00\x00\x00\x00\x00\x00\x00\x00\x00\x00\x00\x00\x00\x00\x00\x00\x00\x00'
NtbsS'order'
p56
g49
(g50
g51
g52
S'b'
tRp57
(I1
(I11
I55
tg55
I00
S'\x00\x00 A\x00\x00\xa8A\x00\x00\x08B\x00\x00\x80B\x00\x00\xbcB\x00\x00\xc6B\x00\x00\xdeB\x00\x00\xfaB\x00\x00\tC\x00\x00\x0bC\x00\x00\x11C\x00\x00%C\x00\x00&C\x00\x00.C\x00\x001C\x00\x003C\x00\x00?C\x00\x00AC\x00\x00RC\x00\x00^C\x00\x00_C\x00\x00hC\x00\x00sC\x00\x80\x81C\x00\x00\x83C\x00\x80\x89C\x00\x00\x8dC\x00\x00\x9dC\x00\x00\x9eC\x00\x80\xa5C\x00\x00\xa7C\x00\x00\xb4C\x00\x80\xb6C\x00\x00\xb7C\x00\x80\xb7C\x00\x80\xb9C\x00\x80\xbcC\x00\x80\xc3C\x00\x00\xc4C\x00\x00\xc6C\x00\x80\xf1C\x00\x00\xf3C\x00\x80\xfaC\x00\x80\xfbC\x00\x00\xfdC\x00\x00\x00D\x00\x80\x00D\x00\x80\x03D\x00@\x05D\x00\xc0\x05D\x00\x00\x08D\x00\x80\tD\x00\x80\nD\x00\x80\x0cD\x00\x80\x11D\x00\x00\xa0@\x00\x004B\x00\x00DB\x00\x00dB\x00\x00lB\x00\x00pB\x00\x00\x90B\x00\x00\x94B\x00\x00\x9eB\x00\x00\xa8B\x00\x00\xe0B\x00\x00\xe6B\x00\x00\xe8B\x00\x00\rC\x00\x00\x17C\x00\x00"C\x00\x00(C\x00\x00JC\x00\x00KC\x00\x00LC\x00\x00WC\x00\x00`C\x00\x00gC\x00\x00xC\x00\x00\x81C\x00\x80\x88C\x00\x00\x94C\x00\x80\x95C\x00\x80\x9cC\x00\x80\xa1C\x00\x00\xa9C\x00\x80\xafC\x00\x00\xb3C\x00\x00\xbbC\x00\x00\xc1C\x00\x80\xc2C\x00\x00\xceC\x00\x00\xdaC\x00\x80\xe2C\x00\x80\xe6C\x00\x00\xe7C\x00\x00\xefC\x00\x00\xf7C\x00\x80\xfcC\x00\x00\x02D\x00@\x02D\x00\x00\x03D\x00@\x03D\x00\x80\x04D\x00\x80\x05D\x00\x80\x07D\x00\x00\x0fD\x00@\x10D\x00\x80\x13D\x00\x00\x00\x00\x00\x00\x00A\x00\x00pA\x00\x00\xc0A\x00\x00\xf0A\x00\x00 B\x00\x00tB\x00\x00\x8cB\x00\x00\xa0B\x00\x00\xa6B\x00\x00\xf2B\x00\x00\x03C\x00\x00\x10C\x00\x00 C\x00\x00*C\x00\x00+C\x00\x00EC\x00\x00XC\x00\x00dC\x00\x00rC\x00\x00\x85C\x00\x00\x86C\x00\x80\x93C\x00\x00\x9cC\x00\x80\xa4C\x00\x00\xa6C\x00\x00\xabC\x00\x80\xabC\x00\x80\xacC\x00\x00\xafC\x00\x80\xc4C\x00\x80\xcbC\x00\x80\xcfC\x00\x00\xd2C\x00\x00\xd5C\x00\x80\xd6C\x00\x80\xd9C\x00\x80\xdeC\x00\x00\xe8C\x00\x00\xebC\x00\x80\xedC\x00\x80\xf2C\x00\x80\xf7C\x00\x80\xfeC\x00\x80\x02D\x00\xc0\x02D\x00\xc0\x03D\x00\xc0\x04D\x00\x00\x07D\x00\xc0\x07D\x00\xc0\x0bD\x00@\x0cD\x00\x80\x0eD\x00\x00\x10D\x00\x00\x00\x00\x00\x00\x00\x00\x00\x00\x98A\x00\x00\x04B\x00\x00\\B\x00\x00\x98B\x00\x00\x9aB\x00\x00\xa2B\x00\x00\xc4B\x00\x00\xc8B\x00\x00\xeaB\x00\x00\x1eC\x00\x00\x1fC\x00\x00,C\x00\x00:C\x00\x00>C\x00\x00CC\x00\x00HC\x00\x00QC\x00\x00|C\x00\x00\x7fC\x00\x00\x80C\x00\x00\x82C\x00\x80\x86C\x00\x80\x87C\x00\x00\x88C\x00\x00\x92C\x00\x00\x93C\x00\x80\xa0C\x00\x00\xa2C\x00\x80\xb3C\x00\x00\xc2C\x00\x00\xc3C\x00\x00\xc8C\x00\x80\xccC\x00\x00\xd0C\x00\x80\xddC\x00\x00\xe0C\x00\x80\xe1C\x00\x00\xe2C\x00\x00\xe3C\x00\x80\xecC\x00\x80\xf8C\x00\x00\xf9C\x00\x80\xf9C\x00@\x00D\x00\x80\x01D\x00@\x04D\x00@\x06D\x00\x00\nD\x00\xc0\nD\x00@\x0bD\x00\x80\x0bD\x00\xc0\x0cD\x00\x80\rD\x00\xc0\x12D\x00\x80\x14D\x00\x00\x00\x00\x00\x00\xc0@\x00\x00PA\x00\x00\xb0A\x00\x00\x18B\x00\x00$B\x00\x008B\x00\x00`B\x00\x00xB\x00\x00|B\x00\x00\x88B\x00\x00\xb8B\x00\x00\xccB\x00\x00\xe2B\x00\x00\xecB\x00\x00\xeeB\x00\x00\xfeB\x00\x00\x08C\x00\x00\x0fC\x00\x00#C\x00\x00BC\x00\x00FC\x00\x00VC\x00\x00ZC\x00\x00\\C\x00\x00iC\x00\x00qC\x00\x00wC\x00\x00yC\x00\x00zC\x00\x80\x80C\x00\x80\x8bC\x00\x80\x9bC\x00\x80\x9dC\x00\x80\xa7C\x00\x00\xa8C\x00\x80\xa8C\x00\x00\xaeC\x00\x80\xaeC\x00\x00\xbeC\x00\x80\xbeC\x00\x80\xc0C\x00\x80\xcaC\x00\x80\xd3C\x00\x80\xe3C\x00\x80\xe8C\x00\x80\xe9C\x00\x00\xeeC\x00\x80\xeeC\x00\x80\xf3C\x00\x00\x01D\x00\xc0\tD\x00\x80\x10D\x00@\x13D\x00\x00\x14D\x00\x00\x80@\x00\x00\x00B\x00\x00\x10B\x00\x00,B\x00\x000B\x00\x00HB\x00\x00LB\x00\x00\xacB\x00\x00\xaeB\x00\x00\xc2B\x00\x00\xd0B\x00\x00\xdcB\x00\x00\x02C\x00\x00\x0eC\x00\x00\x18C\x00\x00\x1aC\x00\x000C\x00\x005C\x00\x00IC\x00\x00TC\x00\x00[C\x00\x00]C\x00\x00aC\x00\x00bC\x00\x00oC\x00\x00{C\x00\x00\x87C\x00\x00\x96C\x00\x80\x98C\x00\x80\xa2C\x00\x80\xb1C\x00\x80\xb4C\x00\x80\xb5C\x00\x80\xbbC\x00\x80\xc1C\x00\x00\xc9C\x00\x00\xccC\x00\x80\xcdC\x00\x80\xceC\x00\x80\xd7C\x00\x00\xd8C\x00\x80\xdfC\x00\x00\xe1C\x00\x00\xe5C\x00\x00\xf2C\x00\x00\xf5C\x00\x80\xf6C\x00\x00\xfaC\x00@\x01D\x00\x80\x06D\x00@\x08D\x00\xc0\x0eD\x00\x00\x13D\x00@\x14D\x00@\x15D\x00\x00\x88A\x00\x00\x90A\x00\x00\xb8A\x00\x00\xf8A\x00\x00<B\x00\x00hB\x00\x00\x82B\x00\x00\x8aB\x00\x00\x9cB\x00\x00\xb2B\x00\x00\xbaB\x00\x00\xceB\x00\x00\xf8B\x00\x00\xfcB\x00\x00\x0cC\x00\x00\x14C\x00\x004C\x00\x008C\x00\x00=C\x00\x00fC\x00\x00pC\x00\x00\x89C\x00\x80\x8cC\x00\x80\x8eC\x00\x80\x91C\x00\x00\x99C\x00\x00\xa0C\x00\x80\xa3C\x00\x00\xb9C\x00\x00\xbaC\x00\x80\xbdC\x00\x00\xc7C\x00\x00\xcaC\x00\x00\xcbC\x00\x00\xd4C\x00\x00\xd9C\x00\x80\xdaC\x00\x80\xe0C\x00\x00\xe4C\x00\x80\xe7C\x00\x80\xebC\x00\x00\xecC\x00\x80\xf0C\x00\x80\xf5C\x00\x00\xf6C\x00\x00\xfcC\x00\xc0\x01D\x00\x00\x06D\x00\x80\x08D\x00\xc0\x08D\x00\xc0\x0fD\x00@\x11D\x00\xc0\x13D\x00\xc0\x14D\x00\xc0\x15D\x00\x00\x00@\x00\x00@@\x00\x00\xd0A\x00\x00\xe8A\x00\x00\x0cB\x00\x00\x14B\x00\x00\xa4B\x00\x00\xb4B\x00\x00\xb6B\x00\x00\x13C\x00\x00\x1cC\x00\x00\x1dC\x00\x009C\x00\x00<C\x00\x00OC\x00\x00PC\x00\x00YC\x00\x00cC\x00\x00nC\x00\x00}C\x00\x80\x85C\x00\x80\x8aC\x00\x00\x8bC\x00\x00\x8eC\x00\x00\x8fC\x00\x80\x8fC\x00\x00\x90C\x00\x80\x94C\x00\x00\x9bC\x00\x00\xa4C\x00\x80\xa9C\x00\x00\xb0C\x00\x00\xb1C\x00\x00\xb2C\x00\x80\xb2C\x00\x00\xb6C\x00\x00\xb8C\x00\x00\xbfC\x00\x80\xbfC\x00\x00\xc0C\x00\x80\xc5C\x00\x80\xc7C\x00\x00\xcfC\x00\x80\xd4C\x00\x80\xd8C\x00\x00\xdcC\x00\x80\xefC\x00\x00\xf0C\x00\x80\xf4C\x00\x00\xfeC\x00@\x0fD\x00\xc0\x10D\x00\x00\x11D\x00\x00\x12D\x00\x80\x15D\x00\x000A\x00\x00@A\x00\x00\xd8A\x00\x00(B\x00\x00@B\x00\x00\x86B\x00\x00\xaaB\x00\x00\xb0B\x00\x00\xdaB\x00\x00\xf4B\x00\x00\nC\x00\x00\x12C\x00\x00\x1bC\x00\x007C\x00\x00@C\x00\x00GC\x00\x00NC\x00\x00SC\x00\x00eC\x00\x00jC\x00\x00lC\x00\x00\x84C\x00\x80\x8dC\x00\x80\x92C\x00\x80\x96C\x00\x00\x98C\x00\x00\x9aC\x00\x80\x9aC\x00\x80\xa6C\x00\x80\xadC\x00\x80\xb0C\x00\x00\xb5C\x00\x80\xc8C\x00\x80\xd5C\x00\x00\xd6C\x00\x00\xdbC\x00\x00\xdeC\x00\x00\xdfC\x00\x00\xe6C\x00\x00\xeaC\x00\x80\xeaC\x00\x00\xf4C\x00\x00\xfbC\x00\x00\xffC\x00\x00\x04D\x00\xc0\x06D\x00@\tD\x00@\nD\x00\x00\rD\x00\xc0\rD\x00\x00\x0eD\x00@\x0eD\x00\x80\x0fD\x00\xc0\x11D\x00\x00\x00\x00\x00\x00\x80?\x00\x00\xe0@\x00\x00`A\x00\x00\xa0A\x00\x00\xe0A\x00\x00\x1cB\x00\x00TB\x00\x00\xc0B\x00\x00\xcaB\x00\x00\xd8B\x00\x00\xe4B\x00\x00\xf0B\x00\x00\x05C\x00\x00\x15C\x00\x00\x19C\x00\x00$C\x00\x00-C\x00\x00/C\x00\x002C\x00\x006C\x00\x00;C\x00\x00MC\x00\x00UC\x00\x00mC\x00\x00vC\x00\x00~C\x00\x80\x84C\x00\x00\x8aC\x00\x80\x90C\x00\x80\x9eC\x00\x00\x9fC\x00\x00\xa1C\x00\x00\xa5C\x00\x80\xb8C\x00\x80\xbaC\x00\x00\xbcC\x00\x00\xbdC\x00\x00\xd1C\x00\x00\xd3C\x00\x80\xdbC\x00\x80\xdcC\x00\x00\xddC\x00\x80\xe4C\x00\x00\xe9C\x00\x00\xedC\x00\x00\xf1C\x00\xc0\x00D\x00\x00\x05D\x00@\x07D\x00\x00\tD\x00\x00\x0bD\x00\x00\x0cD\x00@\rD\x00@\x12D\x00\x80\x12D\x00\x00\x10A\x00\x00\x80A\x00\x00\xc8A\x00\x00PB\x00\x00XB\x00\x00\x84B\x00\x00\x8eB\x00\x00\x92B\x00\x00\x96B\x00\x00\xbeB\x00\x00\xd2B\x00\x00\xd4B\x00\x00\xd6B\x00\x00\xf6B\x00\x00\x00C\x00\x00\x01C\x00\x00\x04C\x00\x00\x06C\x00\x00\x07C\x00\x00\x16C\x00\x00!C\x00\x00\'C\x00\x00)C\x00\x00DC\x00\x00kC\x00\x00tC\x00\x00uC\x00\x80\x82C\x00\x80\x83C\x00\x00\x8cC\x00\x00\x91C\x00\x00\x95C\x00\x00\x97C\x00\x80\x97C\x00\x80\x99C\x00\x80\x9fC\x00\x00\xa3C\x00\x00\xaaC\x00\x80\xaaC\x00\x00\xacC\x00\x00\xadC\x00\x00\xc5C\x00\x80\xc6C\x00\x80\xc9C\x00\x00\xcdC\x00\x80\xd0C\x00\x80\xd1C\x00\x80\xd2C\x00\x00\xd7C\x00\x80\xe5C\x00\x00\xf8C\x00\x80\xfdC\x00\x80\xffC\x00\x00\x15D\x00\x00\x00\x00'
S'\x00\x00\x00\x00\x00\x00\x00\x00\x00\x00\x00\x00\x00\x00\x00\x00\x00\x00\x00\x00\x00\x00\x00\x00\x00\x00\x00\x00\x00\x00\x00\x00\x00\x00\x00\x00\x00\x00\x00\x00\x00\x00\x00\x00\x00\x00\x00\x00\x00\x00\x00\x00\x00\x00\x00\x00\x00\x00\x00\x00\x00\x00\x00\x00\x00\x00\x00\x00\x00\x00\x00\x00\x00\x00\x00\x00\x00\x00\x00\x00\x00\x00\x00\x00\x00\x00\x00\x00\x00\x00\x00\x00\x00\x00\x00\x00\x00\x00\x00\x00\x00\x00\x00\x00\x00\x00\x00\x00\x00\x01\x00\x00\x00\x00\x00\x00\x00\x00\x00\x00\x00\x00\x00\x00\x00\x00\x00\x00\x00\x00\x00\x00\x00\x00\x00\x00\x00\x00\x00\x00\x00\x00\x00\x00\x00\x00\x00\x00\x00\x00\x00\x00\x00\x00\x00\x00\x00\x00\x00\x00\x00\x00\x00\x01\x01\x00\x00\x00\x00\x00\x00\x00\x00\x00\x00\x00\x00\x00\x00\x00\x00\x00\x00\x00\x00\x00\x00\x00\x00\x00\x00\x00\x00\x00\x00\x00\x00\x00\x00\x00\x00\x00\x00\x00\x00\x00\x00\x00\x00\x00\x00\x00\x00\x00\x00\x00\x00\x00\x00\x00\x00\x00\x00\x00\x00\x00\x00\x00\x00\x00\x00\x00\x00\x00\x00\x00\x00\x00\x00\x00\x00\x00\x00\x00\x00\x00\x00\x00\x00\x00\x00\x00\x00\x00\x00\x00\x00\x00\x00\x00\x00\x00\x00\x00\x00\x00\x00\x00\x00\x00\x00\x00\x00\x00\x00\x00\x00\x00\x00\x00\x00\x00\x00\x00\x00\x00\x00\x00\x00\x00\x00\x00\x00\x00\x00\x00\x00\x00\x00\x00\x00\x00\x00\x00\x00\x00\x00\x00\x00\x00\x00\x00\x00\x00\x00\x00\x00\x00\x00\x00\x00\x00\x00\x00\x00\x00\x00\x00\x00\x00\x00\x00\x00\x00\x00\x00\x00\x00\x00\x00\x00\x00\x00\x00\x00\x00\x00\x00\x00\x00\x00\x00\x00\x00\x00\x00\x00\x00\x00\x00\x00\x00\x00\x00\x00\x00\x00\x00\x00\x00\x00\x00\x00\x00\x00\x00\x00\x00\x00\x00\x00\x00\x00\x00\x00\x00\x00\x00\x00\x00\x00\x00\x00\x00\x00\x00\x00\x00\x00\x00\x00\x00\x00\x00\x00\x00\x00\x00\x00\x00\x00\x00\x00\x00\x00\x00\x00\x00\x00\x00\x00\x00\x00\x00\x00\x00\x00\x00\x00\x00\x00\x00\x00\x00\x00\x00\x00\x00\x00\x00\x00\x00\x00\x00\x00\x00\x00\x00\x00\x00\x00\x00\x00\x00\x00\x00\x00\x00\x00\x00\x00\x00\x00\x00\x00\x00\x00\x00\x00\x00\x00\x00\x00\x00\x00\x00\x00\x00\x00\x00\x00\x00\x00\x00\x00\x00\x00\x00\x00\x00\x00\x00\x00\x00\x01\x00\x00\x00\x00\x00\x00\x00\x00\x00\x00\x00\x00\x00\x00\x00\x00\x00\x00\x00\x00\x00\x00\x00\x00\x00\x00\x00\x00\x00\x00\x00\x00\x00\x00\x00\x00\x00\x00\x00\x00\x00\x00\x00\x00\x00\x00\x00\x00\x00\x00\x00\x00\x00\x00\x00\x00\x00\x00\x00\x00\x00\x00\x00\x00\x00\x00\x00\x00\x00\x00\x00\x00\x00\x00\x00\x00\x00\x00\x00\x00\x00\x00\x00\x00\x00\x00\x00\x00\x00\x00\x00\x00\x00\x00\x00\x00\x00\x00\x00\x00\x00\x00\x00\x00\x00\x00\x00\x00\x00\x01'
NtbstRp58
(dp59
S'isNumeric'
p60
(dp61
g48
I01
sg56
I01
ssS'trials'
p62
g37
sS'dataTypes'
p63
(lp64
g48
ag56
asS'dataShape'
p65
(lp66
I11
aI55
asbsS'method'
p67
S'fullRandom'
p68
sS'sequenceIndices'
p69
cnumpy.core.multiarray
_reconstruct
p70
(g51
(I0
tS'b'
tRp71
(I1
(I11
I55
tg54
(S'O4'
I0
I1
tRp72
(I3
S'|'
NNNI-1
I-1
I63
tbI00
(lp73
I4
aI8
aI4
aI3
aI5
aI3
aI10
aI3
aI8
aI0
aI5
aI2
aI10
aI4
aI5
aI0
aI5
aI9
aI4
aI3
aI4
aI1
aI2
aI7
aI8
aI0
aI7
aI7
aI8
aI10
aI9
aI10
aI7
aI5
aI1
aI4
aI0
aI2
aI9
aI2
aI7
aI3
aI1
aI3
aI5
aI2
aI0
aI5
aI8
aI8
aI0
aI2
aI1
aI8
aI3
aI9
aI8
aI6
aI0
aI1
aI4
aI8
aI6
aI6
aI3
aI0
aI8
aI9
aI2
aI8
aI0
aI0
aI7
aI8
aI0
aI5
aI0
aI0
aI9
aI9
aI9
aI7
aI10
aI8
aI6
aI0
aI2
aI8
aI7
aI5
aI1
aI10
aI5
aI10
aI10
aI9
aI3
aI6
aI9
aI2
aI10
aI10
aI3
aI3
aI2
aI4
aI0
aI7
aI7
aI6
aI7
aI4
aI2
aI7
aI4
aI1
aI4
aI1
aI7
aI9
aI1
aI10
aI10
aI0
aI7
aI10
aI9
aI6
aI3
aI8
aI0
aI4
aI10
aI3
aI2
aI7
aI7
aI1
aI7
aI3
aI2
aI2
aI7
aI0
aI9
aI5
aI6
aI3
aI2
aI5
aI9
aI1
aI2
aI2
aI0
aI3
aI7
aI6
aI1
aI9
aI3
aI3
aI8
aI9
aI10
aI7
aI9
aI10
aI5
aI6
aI6
aI6
aI2
aI7
aI4
aI4
aI6
aI10
aI8
aI7
aI1
aI0
aI3
aI5
aI5
aI0
aI8
aI10
aI3
aI7
aI7
aI9
aI5
aI4
aI9
aI8
aI10
aI5
aI0
aI0
aI3
aI7
aI10
aI10
aI5
aI3
aI3
aI4
aI4
aI4
aI3
aI2
aI1
aI2
aI1
aI8
aI8
aI6
aI9
aI5
aI5
aI2
aI7
aI7
aI8
aI1
aI2
aI3
aI4
aI6
aI9
aI0
aI4
aI7
aI3
aI10
aI6
aI0
aI1
aI9
aI1
aI10
aI9
aI4
aI2
aI4
aI10
aI8
aI2
aI1
aI0
aI2
aI7
aI0
aI9
aI1
aI3
aI5
aI9
aI7
aI8
aI4
aI9
aI4
aI8
aI3
aI8
aI1
aI9
aI2
aI0
aI9
aI2
aI3
aI7
aI1
aI10
aI8
aI4
aI1
aI1
aI10
aI7
aI6
aI5
aI1
aI6
aI0
aI6
aI3
aI2
aI5
aI8
aI1
aI4
aI5
aI8
aI4
aI1
aI3
aI10
aI6
aI10
aI1
aI3
aI4
aI10
aI7
aI7
aI6
aI3
aI8
aI1
aI4
aI6
aI2
aI6
aI4
aI1
aI7
aI5
aI10
aI2
aI0
aI0
aI3
aI3
aI1
aI5
aI6
aI4
aI6
aI9
aI9
aI5
aI2
aI1
aI2
aI0
aI10
aI1
aI4
aI8
aI9
aI2
aI2
aI9
aI0
aI1
aI1
aI5
aI9
aI1
aI0
aI5
aI6
aI3
aI10
aI0
aI5
aI4
aI8
aI1
aI9
aI4
aI0
aI5
aI5
aI6
aI2
aI8
aI9
aI8
aI7
aI5
aI0
aI0
aI2
aI1
aI5
aI9
aI8
aI4
aI4
aI8
aI9
aI6
aI7
aI2
aI5
aI4
aI10
aI1
aI10
aI10
aI3
aI10
aI0
aI10
aI10
aI3
aI8
aI4
aI9
aI2
aI7
aI7
aI4
aI3
aI3
aI0
aI8
aI8
aI4
aI10
aI4
aI4
aI3
aI6
aI4
aI0
aI10
aI7
aI7
aI1
aI5
aI5
aI8
aI7
aI6
aI8
aI3
aI1
aI0
aI6
aI3
aI8
aI7
aI1
aI1
aI2
aI3
aI2
aI4
aI10
aI4
aI1
aI8
aI9
aI10
aI4
aI10
aI6
aI1
aI1
aI9
aI6
aI3
aI8
aI7
aI2
aI5
aI4
aI10
aI3
aI8
aI3
aI5
aI0
aI6
aI1
aI4
aI0
aI0
aI7
aI2
aI6
aI2
aI2
aI6
aI3
aI10
aI2
aI6
aI6
aI0
aI0
aI1
aI6
aI6
aI3
aI8
aI7
aI6
aI2
aI10
aI9
aI6
aI8
aI9
aI0
aI10
aI5
aI5
aI9
aI4
aI5
aI1
aI5
aI4
aI0
aI7
aI10
aI7
aI4
aI8
aI6
aI5
aI0
aI1
aI7
aI2
aI6
aI9
aI7
aI7
aI2
aI5
aI6
aI7
aI10
aI4
aI3
aI8
aI8
aI6
aI8
aI6
aI9
aI5
aI6
aI9
aI0
aI3
aI9
aI2
aI2
aI6
aI4
aI2
aI0
aI0
aI5
aI5
aI10
aI6
aI3
aI5
aI3
aI8
aI9
aI2
aI5
aI9
aI9
aI9
aI3
aI2
aI7
aI5
aI6
aI4
aI3
aI10
aI6
aI6
aI1
aI10
aI9
aI2
aI10
aI1
aI8
aI9
aI7
aI7
aI6
aI10
aI8
aI9
aI5
aI1
aI6
aI0
aI1
aI1
aI4
aI2
aI5
aI8
aI9
aI5
aI0
aI5
aI10
atbsS'finished'
p74
I00
sS'nReps'
p75
I55
sS'nRemaining'
p76
I5
sS'trialList'
p77
(lp78
I0
aI1
aI2
aI3
aI4
aI5
aI6
aI7
aI8
aI9
aI10
asS'seed'
p79
NsS'thisIndex'
p80
I6
sS'thisN'
p81
I599
sS'thisTrialN'
p82
I5
sS'nTotal'
p83
I605
sS'_warnUseOfNext'
p84
I01
sbasS'saveWideText'
p85
I00
sS'thisEntry'
p86
(dp87
sS'version'
p88
S''
sS'_paramNamesSoFar'
p89
(lp90
sS'entries'
p91
(lp92
(dp93
g16
(lp94
S'k'
asS'.thisTrial'
p95
I4
sS'.thisRepN'
p96
I0
sg30
g31
sg32
g33
sS'.thisTrialN'
p97
I0
sS'.thisN'
p98
I0
sS'.thisIndex'
p99
I4
sg15
(lp100
S'd'
asg17
S'N'
sg14
I1
sa(dp101
g16
(lp102
S'k'
asg95
I9
sS'.thisRepN'
p103
I0
sg30
g31
sg32
g33
sS'.thisTrialN'
p104
I1
sS'.thisN'
p105
I1
sS'.thisIndex'
p106
I9
sg15
(lp107
S'd'
asg17
S'N'
sg14
I1
sa(dp108
g16
(lp109
S'k'
asg18
S'N'
sS'.thisRepN'
p110
I0
sg20
S'Y'
sg32
g33
sS'.thisTrialN'
p111
I2
sS'.thisN'
p112
I2
sS'.thisIndex'
p113
I7
sg15
(lp114
S'd'
asg30
g31
sg17
S'N'
sg14
I1
sg19
Nsg95
I7
sa(dp115
g16
(lp116
S'k'
asg18
S'N'
sS'.thisRepN'
p117
I0
sg20
S'Y'
sg32
g33
sS'.thisTrialN'
p118
I3
sS'.thisN'
p119
I3
sS'.thisIndex'
p120
I7
sg15
(lp121
S'k'
asg30
g31
sg17
S'Y'
sg14
I1
sg19
Nsg95
I7
sa(dp122
g16
(lp123
S'k'
asg18
S'N'
sS'.thisRepN'
p124
I0
sg20
S'Y'
sg32
g33
sS'.thisTrialN'
p125
I4
sS'.thisN'
p126
I4
sS'.thisIndex'
p127
I5
sg15
(lp128
S'k'
asg30
g31
sg17
S'Y'
sg14
I1
sg19
Nsg95
I5
sa(dp129
g16
(lp130
S'k'
asg18
S'N'
sS'.thisRepN'
p131
I0
sg20
S'Y'
sg32
g33
sS'.thisTrialN'
p132
I5
sS'.thisN'
p133
I5
sS'.thisIndex'
p134
I1
sg15
(lp135
S'k'
asg30
g31
sg17
S'Y'
sg14
I1
sg19
Nsg95
I1
sa(dp136
g16
(lp137
S'd'
asg18
S'Y'
sS'.thisRepN'
p138
I0
sg20
S'Y'
sg32
g33
sS'.thisTrialN'
p139
I6
sS'.thisN'
p140
I6
sS'.thisIndex'
p141
I4
sg15
(lp142
S'k'
asg30
g31
sg17
S'N'
sg14
I1
sg19
(lp143
S'space'
p144
asg95
I4
sa(dp145
g16
(lp146
S'd'
asg18
S'Y'
sS'.thisRepN'
p147
I0
sg20
S'N'
sg32
g33
sS'.thisTrialN'
p148
I7
sS'.thisN'
p149
I7
sS'.thisIndex'
p150
I9
sg15
(lp151
S'd'
asg30
g31
sg17
S'Y'
sg14
I1
sg19
Nsg95
I9
sa(dp152
g16
(lp153
S'd'
asg18
S'Y'
sS'.thisRepN'
p154
I0
sg20
S'N'
sg32
g33
sS'.thisTrialN'
p155
I8
sS'.thisN'
p156
I8
sS'.thisIndex'
p157
I2
sg15
(lp158
S'k'
asg30
g31
sg17
S'N'
sg14
I1
sg19
Nsg95
I2
sa(dp159
g16
(lp160
S'd'
asg18
S'Y'
sS'.thisRepN'
p161
I0
sg20
S'Y'
sg32
g33
sS'.thisTrialN'
p162
I9
sS'.thisN'
p163
I9
sS'.thisIndex'
p164
I10
sg15
(lp165
S'k'
asg30
g31
sg17
S'N'
sg14
I1
sg19
(lp166
S'space'
p167
asg95
I10
sa(dp168
g16
(lp169
S'k'
asg18
S'Y'
sS'.thisRepN'
p170
I0
sg20
S'Y'
sg32
g33
sS'.thisTrialN'
p171
I10
sS'.thisN'
p172
I10
sS'.thisIndex'
p173
I0
sg15
(lp174
S'k'
asg30
g31
sg17
S'Y'
sg14
I1
sg19
(lp175
S'space'
p176
asg95
I0
sa(dp177
g16
(lp178
S'd'
asg18
S'N'
sS'.thisRepN'
p179
I1
sg20
S'Y'
sg32
g33
sS'.thisTrialN'
p180
I0
sS'.thisN'
p181
I11
sS'.thisIndex'
p182
I8
sg15
(lp183
S'k'
asg30
g31
sg17
S'N'
sg14
I1
sg19
Nsg95
I8
sa(dp184
g16
(lp185
S'd'
asg18
S'N'
sS'.thisRepN'
p186
I1
sg20
S'Y'
sg32
g33
sS'.thisTrialN'
p187
I1
sS'.thisN'
p188
I12
sS'.thisIndex'
p189
I8
sg15
(lp190
S'k'
asg30
g31
sg17
S'N'
sg14
I1
sg19
Nsg95
I8
sa(dp191
g16
(lp192
S'd'
asg18
S'N'
sS'.thisRepN'
p193
I1
sg20
S'Y'
sg32
g33
sS'.thisTrialN'
p194
I2
sS'.thisN'
p195
I13
sS'.thisIndex'
p196
I4
sg15
(lp197
S'd'
asg30
g31
sg17
S'Y'
sg14
I1
sg19
Nsg95
I4
sa(dp198
g16
(lp199
S'd'
asg18
S'N'
sS'.thisRepN'
p200
I1
sg20
S'Y'
sg32
g33
sS'.thisTrialN'
p201
I3
sS'.thisN'
p202
I14
sS'.thisIndex'
p203
I9
sg15
(lp204
S'k'
asg30
g31
sg17
S'N'
sg14
I1
sg19
Nsg95
I9
sa(dp205
g16
(lp206
S'd'
asg18
S'Y'
sS'.thisRepN'
p207
I1
sg20
S'Y'
sg32
g33
sS'.thisTrialN'
p208
I4
sS'.thisN'
p209
I15
sS'.thisIndex'
p210
I2
sg15
(lp211
S'd'
asg30
g31
sg17
S'Y'
sg14
I1
sg19
(lp212
S'space'
p213
asg95
I2
sa(dp214
g16
(lp215
S'd'
asg18
S'Y'
sS'.thisRepN'
p216
I1
sg20
S'N'
sg32
g33
sS'.thisTrialN'
p217
I5
sS'.thisN'
p218
I16
sS'.thisIndex'
p219
I10
sg15
(lp220
S'k'
asg30
g31
sg17
S'N'
sg14
I1
sg19
Nsg95
I10
sa(dp221
g16
(lp222
S'd'
asg18
S'Y'
sS'.thisRepN'
p223
I1
sg20
S'Y'
sg32
g33
sS'.thisTrialN'
p224
I6
sS'.thisN'
p225
I17
sS'.thisIndex'
p226
I6
sg15
(lp227
S'd'
asg30
g31
sg17
S'Y'
sg14
I1
sg19
(lp228
S'space'
p229
asg95
I6
sa(dp230
g16
(lp231
S'k'
asg18
S'Y'
sS'.thisRepN'
p232
I1
sg20
S'Y'
sg32
g33
sS'.thisTrialN'
p233
I7
sS'.thisN'
p234
I18
sS'.thisIndex'
p235
I6
sg15
(lp236
S'k'
asg30
g31
sg17
S'Y'
sg14
I1
sg19
(lp237
S'space'
p238
asg95
I6
sa(dp239
g16
(lp240
S'k'
asg18
S'N'
sS'.thisRepN'
p241
I1
sg20
S'Y'
sg32
g33
sS'.thisTrialN'
p242
I8
sS'.thisN'
p243
I19
sS'.thisIndex'
p244
I3
sg15
(lp245
S'k'
asg30
g31
sg17
S'Y'
sg14
I1
sg19
Nsg95
I3
sa(dp246
g16
(lp247
S'd'
asg18
S'Y'
sS'.thisRepN'
p248
I1
sg20
S'N'
sg32
g33
sS'.thisTrialN'
p249
I9
sS'.thisN'
p250
I20
sS'.thisIndex'
p251
I9
sg15
(lp252
S'd'
asg30
g31
sg17
S'Y'
sg14
I1
sg19
Nsg95
I9
sa(dp253
g16
(lp254
S'k'
asg18
S'Y'
sS'.thisRepN'
p255
I1
sg20
S'N'
sg32
g33
sS'.thisTrialN'
p256
I10
sS'.thisN'
p257
I21
sS'.thisIndex'
p258
I0
sg15
(lp259
S'k'
asg30
g31
sg17
S'Y'
sg14
I1
sg19
Nsg95
I0
sa(dp260
g16
(lp261
S'k'
asg18
S'N'
sS'.thisRepN'
p262
I2
sg20
S'Y'
sg32
g33
sS'.thisTrialN'
p263
I0
sS'.thisN'
p264
I22
sS'.thisIndex'
p265
I4
sg15
(lp266
S'k'
asg30
g31
sg17
S'Y'
sg14
I1
sg19
Nsg95
I4
sa(dp267
g16
(lp268
S'd'
asg18
S'Y'
sS'.thisRepN'
p269
I2
sg20
S'Y'
sg32
g33
sS'.thisTrialN'
p270
I1
sS'.thisN'
p271
I23
sS'.thisIndex'
p272
I6
sg15
(lp273
S'd'
asg30
g31
sg17
S'Y'
sg14
I1
sg19
(lp274
S'space'
p275
asg95
I6
sa(dp276
g16
(lp277
S'k'
asg18
S'N'
sS'.thisRepN'
p278
I2
sg20
S'Y'
sg32
g33
sS'.thisTrialN'
p279
I2
sS'.thisN'
p280
I24
sS'.thisIndex'
p281
I2
sg15
(lp282
S'd'
asg30
g31
sg17
S'N'
sg14
I1
sg19
Nsg95
I2
sa(dp283
g16
(lp284
S'd'
asg18
S'Y'
sS'.thisRepN'
p285
I2
sg20
S'N'
sg32
g33
sS'.thisTrialN'
p286
I3
sS'.thisN'
p287
I25
sS'.thisIndex'
p288
I10
sg15
(lp289
S'd'
asg30
g31
sg17
S'Y'
sg14
I1
sg19
Nsg95
I10
sa(dp290
g16
(lp291
S'k'
asg18
S'Y'
sS'.thisRepN'
p292
I2
sg20
S'Y'
sg32
g33
sS'.thisTrialN'
p293
I4
sS'.thisN'
p294
I26
sS'.thisIndex'
p295
I7
sg15
(lp296
S'k'
asg30
g31
sg17
S'Y'
sg14
I1
sg19
(lp297
S'space'
p298
asg95
I7
sa(dp299
g16
(lp300
S'k'
asg18
S'Y'
sS'.thisRepN'
p301
I2
sg20
S'N'
sg32
g33
sS'.thisTrialN'
p302
I5
sS'.thisN'
p303
I27
sS'.thisIndex'
p304
I8
sg15
(lp305
S'd'
asg30
g31
sg17
S'N'
sg14
I1
sg19
Nsg95
I8
sa(dp306
g16
(lp307
S'd'
asg18
S'Y'
sS'.thisRepN'
p308
I2
sg20
S'N'
sg32
g33
sS'.thisTrialN'
p309
I6
sS'.thisN'
p310
I28
sS'.thisIndex'
p311
I9
sg15
(lp312
S'k'
asg30
g31
sg17
S'N'
sg14
I1
sg19
Nsg95
I9
sa(dp313
g16
(lp314
S'd'
asg18
S'N'
sS'.thisRepN'
p315
I2
sg20
S'Y'
sg32
g33
sS'.thisTrialN'
p316
I7
sS'.thisN'
p317
I29
sS'.thisIndex'
p318
I7
sg15
(lp319
S'd'
asg30
g31
sg17
S'Y'
sg14
I1
sg19
Nsg95
I7
sa(dp320
g16
(lp321
S'k'
asg18
S'N'
sS'.thisRepN'
p322
I2
sg20
S'Y'
sg32
g33
sS'.thisTrialN'
p323
I8
sS'.thisN'
p324
I30
sS'.thisIndex'
p325
I2
sg15
(lp326
S'k'
asg30
g31
sg17
S'Y'
sg14
I1
sg19
Nsg95
I2
sa(dp327
g16
(lp328
S'd'
asg18
S'Y'
sS'.thisRepN'
p329
I2
sg20
S'Y'
sg32
g33
sS'.thisTrialN'
p330
I9
sS'.thisN'
p331
I31
sS'.thisIndex'
p332
I6
sg15
(lp333
S'd'
asg30
g31
sg17
S'Y'
sg14
I1
sg19
(lp334
S'space'
p335
asg95
I6
sa(dp336
g16
(lp337
S'k'
asg18
S'N'
sS'.thisRepN'
p338
I2
sg20
S'Y'
sg32
g33
sS'.thisTrialN'
p339
I10
sS'.thisN'
p340
I32
sS'.thisIndex'
p341
I5
sg15
(lp342
S'k'
asg30
g31
sg17
S'Y'
sg14
I1
sg19
Nsg95
I5
sa(dp343
g16
(lp344
S'k'
asg18
S'Y'
sS'.thisRepN'
p345
I3
sg20
S'Y'
sg32
g33
sS'.thisTrialN'
p346
I0
sS'.thisN'
p347
I33
sS'.thisIndex'
p348
I3
sg15
(lp349
S'k'
asg30
g31
sg17
S'Y'
sg14
I1
sg19
(lp350
S'space'
p351
asg95
I3
sa(dp352
g16
(lp353
S'd'
asg18
S'Y'
sS'.thisRepN'
p354
I3
sg20
S'N'
sg32
g33
sS'.thisTrialN'
p355
I1
sS'.thisN'
p356
I34
sS'.thisIndex'
p357
I0
sg15
(lp358
S'd'
asg30
g31
sg17
S'Y'
sg14
I1
sg19
Nsg95
I0
sa(dp359
g16
(lp360
S'k'
asg18
S'Y'
sS'.thisRepN'
p361
I3
sg20
S'Y'
sg32
g33
sS'.thisTrialN'
p362
I2
sS'.thisN'
p363
I35
sS'.thisIndex'
p364
I7
sg15
(lp365
S'k'
asg30
g31
sg17
S'Y'
sg14
I1
sg19
(lp366
S'space'
p367
asg95
I7
sa(dp368
g16
(lp369
S'k'
asg18
S'N'
sS'.thisRepN'
p370
I3
sg20
S'Y'
sg32
g33
sS'.thisTrialN'
p371
I3
sS'.thisN'
p372
I36
sS'.thisIndex'
p373
I5
sg15
(lp374
S'k'
asg30
g31
sg17
S'Y'
sg14
I1
sg19
Nsg95
I5
sa(dp375
g16
(lp376
S'k'
asg18
S'Y'
sS'.thisRepN'
p377
I3
sg20
S'N'
sg32
g33
sS'.thisTrialN'
p378
I4
sS'.thisN'
p379
I37
sS'.thisIndex'
p380
I7
sg15
(lp381
S'k'
asg30
g31
sg17
S'Y'
sg14
I1
sg19
(lp382
S'd'
asg95
I7
sa(dp383
g16
(lp384
S'd'
asg18
S'Y'
sS'.thisRepN'
p385
I3
sg20
S'Y'
sg32
g33
sS'.thisTrialN'
p386
I5
sS'.thisN'
p387
I38
sS'.thisIndex'
p388
I4
sg15
(lp389
S'k'
asg30
g31
sg17
S'N'
sg14
I1
sg19
(lp390
S'space'
p391
asg95
I4
sa(dp392
g16
(lp393
S'k'
asg18
S'Y'
sS'.thisRepN'
p394
I3
sg20
S'Y'
sg32
g33
sS'.thisTrialN'
p395
I6
sS'.thisN'
p396
I39
sS'.thisIndex'
p397
I9
sg15
(lp398
S'k'
asg30
g31
sg17
S'Y'
sg14
I1
sg19
(lp399
S'space'
p400
asg95
I9
sa(dp401
g16
(lp402
S'd'
asg18
S'N'
sS'.thisRepN'
p403
I3
sg20
S'Y'
sg32
g33
sS'.thisTrialN'
p404
I7
sS'.thisN'
p405
I40
sS'.thisIndex'
p406
I2
sg15
(lp407
S'd'
asg30
g31
sg17
S'Y'
sg14
I1
sg19
Nsg95
I2
sa(dp408
g16
(lp409
S'k'
asg18
S'N'
sS'.thisRepN'
p410
I3
sg20
S'Y'
sg32
g33
sS'.thisTrialN'
p411
I8
sS'.thisN'
p412
I41
sS'.thisIndex'
p413
I4
sg15
(lp414
S'k'
asg30
g31
sg17
S'Y'
sg14
I1
sg19
Nsg95
I4
sa(dp415
g16
(lp416
S'd'
asg18
S'N'
sS'.thisRepN'
p417
I3
sg20
S'Y'
sg32
g33
sS'.thisTrialN'
p418
I9
sS'.thisN'
p419
I42
sS'.thisIndex'
p420
I8
sg15
(lp421
S'k'
asg30
g31
sg17
S'N'
sg14
I1
sg19
Nsg95
I8
sa(dp422
g16
(lp423
S'k'
asg18
S'Y'
sS'.thisRepN'
p424
I3
sg20
S'N'
sg32
g33
sS'.thisTrialN'
p425
I10
sS'.thisN'
p426
I43
sS'.thisIndex'
p427
I5
sg15
(lp428
S'd'
asg30
g31
sg17
S'N'
sg14
I1
sg19
Nsg95
I5
sa(dp429
g16
(lp430
S'd'
asg18
S'N'
sS'.thisRepN'
p431
I4
sg20
S'Y'
sg32
g33
sS'.thisTrialN'
p432
I0
sS'.thisN'
p433
I44
sS'.thisIndex'
p434
I5
sg15
(lp435
S'k'
asg30
g31
sg17
S'N'
sg14
I1
sg19
Nsg95
I5
sa(dp436
g16
(lp437
S'k'
asg18
S'N'
sS'.thisRepN'
p438
I4
sg20
S'Y'
sg32
g33
sS'.thisTrialN'
p439
I1
sS'.thisN'
p440
I45
sS'.thisIndex'
p441
I1
sg15
(lp442
S'k'
asg30
g31
sg17
S'Y'
sg14
I1
sg19
Nsg95
I1
sa(dp443
g16
(lp444
S'd'
asg18
S'Y'
sS'.thisRepN'
p445
I4
sg20
S'Y'
sg32
g33
sS'.thisTrialN'
p446
I2
sS'.thisN'
p447
I46
sS'.thisIndex'
p448
I4
sg15
(lp449
S'd'
asg30
g31
sg17
S'Y'
sg14
I1
sg19
(lp450
S'space'
p451
asg95
I4
sa(dp452
g16
(lp453
S'd'
asg18
S'N'
sS'.thisRepN'
p454
I4
sg20
S'Y'
sg32
g33
sS'.thisTrialN'
p455
I3
sS'.thisN'
p456
I47
sS'.thisIndex'
p457
I6
sg15
(lp458
S'd'
asg30
g31
sg17
S'Y'
sg14
I1
sg19
Nsg95
I6
sa(dp459
g16
(lp460
S'd'
asg18
S'N'
sS'.thisRepN'
p461
I4
sg20
S'Y'
sg32
g33
sS'.thisTrialN'
p462
I4
sS'.thisN'
p463
I48
sS'.thisIndex'
p464
I8
sg15
(lp465
S'd'
asg30
g31
sg17
S'Y'
sg14
I1
sg19
Nsg95
I8
sa(dp466
g16
(lp467
S'k'
asg18
S'N'
sg22
I37
sS'.thisN'
p468
I49
sg20
S'Y'
sg32
g33
sS'.thisTrialN'
p469
I5
sS'.thisRepN'
p470
I4
sg21
I33
sS'.thisIndex'
p471
I1
sg23
I25
sg15
(lp472
S'k'
asg30
g31
sg17
S'Y'
sg14
I1
sg19
Nsg95
I1
sa(dp473
g16
(lp474
S'k'
asg95
I5
sS'.thisRepN'
p475
I4
sg30
g31
sg32
g33
sS'.thisTrialN'
p476
I6
sS'.thisN'
p477
I50
sS'.thisIndex'
p478
I5
sg15
(lp479
S'd'
asg17
S'N'
sg14
I2
sa(dp480
g16
(lp481
S'k'
asg95
I5
sS'.thisRepN'
p482
I4
sg30
g31
sg32
g33
sS'.thisTrialN'
p483
I7
sS'.thisN'
p484
I51
sS'.thisIndex'
p485
I5
sg15
(lp486
S'k'
asg17
S'Y'
sg14
I2
sa(dp487
g16
(lp488
S'd'
asg18
S'N'
sS'.thisRepN'
p489
I4
sg20
S'Y'
sg32
g33
sS'.thisTrialN'
p490
I8
sS'.thisN'
p491
I52
sS'.thisIndex'
p492
I10
sg15
(lp493
S'd'
asg30
g31
sg17
S'Y'
sg14
I2
sg19
Nsg95
I10
sa(dp494
g16
(lp495
S'k'
asg18
S'N'
sS'.thisRepN'
p496
I4
sg20
S'Y'
sg32
g33
sS'.thisTrialN'
p497
I9
sS'.thisN'
p498
I53
sS'.thisIndex'
p499
I9
sg15
(lp500
S'k'
asg30
g31
sg17
S'Y'
sg14
I2
sg19
Nsg95
I9
sa(dp501
g16
(lp502
S'k'
asg18
S'N'
sS'.thisRepN'
p503
I4
sg20
S'Y'
sg32
g33
sS'.thisTrialN'
p504
I10
sS'.thisN'
p505
I54
sS'.thisIndex'
p506
I10
sg15
(lp507
S'd'
asg30
g31
sg17
S'N'
sg14
I2
sg19
Nsg95
I10
sa(dp508
g16
(lp509
S'd'
asg18
S'Y'
sS'.thisRepN'
p510
I5
sg20
S'N'
sg32
g33
sS'.thisTrialN'
p511
I0
sS'.thisN'
p512
I55
sS'.thisIndex'
p513
I3
sg15
(lp514
S'd'
asg30
g31
sg17
S'Y'
sg14
I2
sg19
Nsg95
I3
sa(dp515
g16
(lp516
S'k'
asg18
S'Y'
sS'.thisRepN'
p517
I5
sg20
S'N'
sg32
g33
sS'.thisTrialN'
p518
I1
sS'.thisN'
p519
I56
sS'.thisIndex'
p520
I4
sg15
(lp521
S'k'
asg30
g31
sg17
S'Y'
sg14
I2
sg19
Nsg95
I4
sa(dp522
g16
(lp523
S'd'
asg18
S'N'
sS'.thisRepN'
p524
I5
sg20
S'Y'
sg32
g33
sS'.thisTrialN'
p525
I2
sS'.thisN'
p526
I57
sS'.thisIndex'
p527
I1
sg15
(lp528
S'd'
asg30
g31
sg17
S'Y'
sg14
I2
sg19
Nsg95
I1
sa(dp529
g16
(lp530
S'd'
asg18
S'N'
sS'.thisRepN'
p531
I5
sg20
S'Y'
sg32
g33
sS'.thisTrialN'
p532
I3
sS'.thisN'
p533
I58
sS'.thisIndex'
p534
I6
sg15
(lp535
S'd'
asg30
g31
sg17
S'Y'
sg14
I2
sg19
Nsg95
I6
sa(dp536
g16
(lp537
S'd'
asg18
S'N'
sS'.thisRepN'
p538
I5
sg20
S'Y'
sg32
g33
sS'.thisTrialN'
p539
I4
sS'.thisN'
p540
I59
sS'.thisIndex'
p541
I1
sg15
(lp542
S'd'
asg30
g31
sg17
S'Y'
sg14
I2
sg19
Nsg95
I1
sa(dp543
g16
(lp544
S'k'
asg18
S'Y'
sS'.thisRepN'
p545
I5
sg20
S'N'
sg32
g33
sS'.thisTrialN'
p546
I5
sS'.thisN'
p547
I60
sS'.thisIndex'
p548
I1
sg15
(lp549
S'd'
asg30
g31
sg17
S'N'
sg14
I2
sg19
Nsg95
I1
sa(dp550
g16
(lp551
S'd'
asg18
S'Y'
sS'.thisRepN'
p552
I5
sg20
S'Y'
sg32
g33
sS'.thisTrialN'
p553
I6
sS'.thisN'
p554
I61
sS'.thisIndex'
p555
I2
sg15
(lp556
S'd'
asg30
g31
sg17
S'Y'
sg14
I2
sg19
(lp557
S'space'
p558
asg95
I2
sa(dp559
g16
(lp560
S'd'
asg18
S'Y'
sS'.thisRepN'
p561
I5
sg20
S'N'
sg32
g33
sS'.thisTrialN'
p562
I7
sS'.thisN'
p563
I62
sS'.thisIndex'
p564
I4
sg15
(lp565
S'd'
asg30
g31
sg17
S'Y'
sg14
I2
sg19
Nsg95
I4
sa(dp566
g16
(lp567
S'k'
asg18
S'N'
sS'.thisRepN'
p568
I5
sg20
S'Y'
sg32
g33
sS'.thisTrialN'
p569
I8
sS'.thisN'
p570
I63
sS'.thisIndex'
p571
I4
sg15
(lp572
S'k'
asg30
g31
sg17
S'Y'
sg14
I2
sg19
Nsg95
I4
sa(dp573
g16
(lp574
S'd'
asg18
S'Y'
sS'.thisRepN'
p575
I5
sg20
S'Y'
sg32
g33
sS'.thisTrialN'
p576
I9
sS'.thisN'
p577
I64
sS'.thisIndex'
p578
I0
sg15
(lp579
S'd'
asg30
g31
sg17
S'Y'
sg14
I2
sg19
(lp580
S'space'
p581
asg95
I0
sa(dp582
g16
(lp583
S'k'
asg18
S'N'
sS'.thisRepN'
p584
I5
sg20
S'N'
sg32
g33
sS'.thisTrialN'
p585
I10
sS'.thisN'
p586
I65
sS'.thisIndex'
p587
I6
sg15
(lp588
S'k'
asg30
g31
sg17
S'Y'
sg14
I2
sg19
(lp589
S'space'
p590
asg95
I6
sa(dp591
g16
(lp592
S'k'
asg18
S'Y'
sS'.thisRepN'
p593
I6
sg20
S'Y'
sg32
g33
sS'.thisTrialN'
p594
I0
sS'.thisN'
p595
I66
sS'.thisIndex'
p596
I10
sg15
(lp597
S'k'
asg30
g31
sg17
S'Y'
sg14
I2
sg19
(lp598
S'space'
p599
asg95
I10
sa(dp600
g16
(lp601
S'd'
asg18
S'Y'
sS'.thisRepN'
p602
I6
sg20
S'N'
sg32
g33
sS'.thisTrialN'
p603
I1
sS'.thisN'
p604
I67
sS'.thisIndex'
p605
I8
sg15
(lp606
S'd'
asg30
g31
sg17
S'Y'
sg14
I2
sg19
Nsg95
I8
sa(dp607
g16
(lp608
S'k'
asg18
S'Y'
sS'.thisRepN'
p609
I6
sg20
S'N'
sg32
g33
sS'.thisTrialN'
p610
I2
sS'.thisN'
p611
I68
sS'.thisIndex'
p612
I4
sg15
(lp613
S'k'
asg30
g31
sg17
S'Y'
sg14
I2
sg19
Nsg95
I4
sa(dp614
g16
(lp615
S'k'
asg18
S'N'
sS'.thisRepN'
p616
I6
sg20
S'Y'
sg32
g33
sS'.thisTrialN'
p617
I3
sS'.thisN'
p618
I69
sS'.thisIndex'
p619
I6
sg15
(lp620
S'd'
asg30
g31
sg17
S'N'
sg14
I2
sg19
Nsg95
I6
sa(dp621
g16
(lp622
S'd'
asg18
S'Y'
sS'.thisRepN'
p623
I6
sg20
S'N'
sg32
g33
sS'.thisTrialN'
p624
I4
sS'.thisN'
p625
I70
sS'.thisIndex'
p626
I2
sg15
(lp627
S'd'
asg30
g31
sg17
S'Y'
sg14
I2
sg19
Nsg95
I2
sa(dp628
g16
(lp629
S'k'
asg18
S'N'
sS'.thisRepN'
p630
I6
sg20
S'Y'
sg32
g33
sS'.thisTrialN'
p631
I5
sS'.thisN'
p632
I71
sS'.thisIndex'
p633
I10
sg15
(lp634
S'k'
asg30
g31
sg17
S'Y'
sg14
I2
sg19
Nsg95
I10
sa(dp635
g16
(lp636
S'd'
asg18
S'Y'
sS'.thisRepN'
p637
I6
sg20
S'Y'
sg32
g33
sS'.thisTrialN'
p638
I6
sS'.thisN'
p639
I72
sS'.thisIndex'
p640
I1
sg15
(lp641
S'd'
asg30
g31
sg17
S'Y'
sg14
I2
sg19
(lp642
S'space'
p643
asg95
I1
sa(dp644
g16
(lp645
S'k'
asg18
S'Y'
sS'.thisRepN'
p646
I6
sg20
S'Y'
sg32
g33
sS'.thisTrialN'
p647
I7
sS'.thisN'
p648
I73
sS'.thisIndex'
p649
I10
sg15
(lp650
S'd'
asg30
g31
sg17
S'N'
sg14
I2
sg19
(lp651
S'space'
p652
asg95
I10
sa(dp653
g16
(lp654
S'd'
asg18
S'N'
sS'.thisRepN'
p655
I6
sg20
S'Y'
sg32
g33
sS'.thisTrialN'
p656
I8
sS'.thisN'
p657
I74
sS'.thisIndex'
p658
I1
sg15
(lp659
S'd'
asg30
g31
sg17
S'Y'
sg14
I2
sg19
Nsg95
I1
sa(dp660
g16
(lp661
S'd'
asg18
S'Y'
sS'.thisRepN'
p662
I6
sg20
S'Y'
sg32
g33
sS'.thisTrialN'
p663
I9
sS'.thisN'
p664
I75
sS'.thisIndex'
p665
I10
sg15
(lp666
S'k'
asg30
g31
sg17
S'N'
sg14
I2
sg19
(lp667
S'space'
p668
asg95
I10
sa(dp669
g16
(lp670
S'd'
asg18
S'Y'
sS'.thisRepN'
p671
I6
sg20
S'N'
sg32
g33
sS'.thisTrialN'
p672
I10
sS'.thisN'
p673
I76
sS'.thisIndex'
p674
I3
sg15
(lp675
S'k'
asg30
g31
sg17
S'N'
sg14
I2
sg19
Nsg95
I3
sa(dp676
g16
(lp677
S'd'
asg18
S'Y'
sS'.thisRepN'
p678
I7
sg20
S'Y'
sg32
g33
sS'.thisTrialN'
p679
I0
sS'.thisN'
p680
I77
sS'.thisIndex'
p681
I3
sg15
(lp682
S'd'
asg30
g31
sg17
S'Y'
sg14
I2
sg19
(lp683
S'space'
p684
asg95
I3
sa(dp685
g16
(lp686
S'k'
asg18
S'Y'
sS'.thisRepN'
p687
I7
sg20
S'N'
sg32
g33
sS'.thisTrialN'
p688
I1
sS'.thisN'
p689
I78
sS'.thisIndex'
p690
I6
sg15
(lp691
S'k'
asg30
g31
sg17
S'Y'
sg14
I2
sg19
Nsg95
I6
sa(dp692
g16
(lp693
S'd'
asg18
S'Y'
sS'.thisRepN'
p694
I7
sg20
S'N'
sg32
g33
sS'.thisTrialN'
p695
I2
sS'.thisN'
p696
I79
sS'.thisIndex'
p697
I1
sg15
(lp698
S'd'
asg30
g31
sg17
S'Y'
sg14
I2
sg19
Nsg95
I1
sa(dp699
g16
(lp700
S'k'
asg18
S'N'
sS'.thisRepN'
p701
I7
sg20
S'Y'
sg32
g33
sS'.thisTrialN'
p702
I3
sS'.thisN'
p703
I80
sS'.thisIndex'
p704
I2
sg15
(lp705
S'k'
asg30
g31
sg17
S'Y'
sg14
I2
sg19
Nsg95
I2
sa(dp706
g16
(lp707
S'd'
asg18
S'Y'
sS'.thisRepN'
p708
I7
sg20
S'Y'
sg32
g33
sS'.thisTrialN'
p709
I4
sS'.thisN'
p710
I81
sS'.thisIndex'
p711
I3
sg15
(lp712
S'd'
asg30
g31
sg17
S'Y'
sg14
I2
sg19
(lp713
S'space'
p714
asg95
I3
sa(dp715
g16
(lp716
S'k'
asg18
S'N'
sS'.thisRepN'
p717
I7
sg20
S'Y'
sg32
g33
sS'.thisTrialN'
p718
I5
sS'.thisN'
p719
I82
sS'.thisIndex'
p720
I7
sg15
(lp721
S'k'
asg30
g31
sg17
S'Y'
sg14
I2
sg19
Nsg95
I7
sa(dp722
g16
(lp723
S'k'
asg18
S'N'
sS'.thisRepN'
p724
I7
sg20
S'Y'
sg32
g33
sS'.thisTrialN'
p725
I6
sS'.thisN'
p726
I83
sS'.thisIndex'
p727
I2
sg15
(lp728
S'k'
asg30
g31
sg17
S'Y'
sg14
I2
sg19
Nsg95
I2
sa(dp729
g16
(lp730
S'd'
asg18
S'Y'
sS'.thisRepN'
p731
I7
sg20
S'Y'
sg32
g33
sS'.thisTrialN'
p732
I7
sS'.thisN'
p733
I84
sS'.thisIndex'
p734
I1
sg15
(lp735
S'd'
asg30
g31
sg17
S'Y'
sg14
I2
sg19
(lp736
S'space'
p737
asg95
I1
sa(dp738
g16
(lp739
S'k'
asg18
S'Y'
sS'.thisRepN'
p740
I7
sg20
S'Y'
sg32
g33
sS'.thisTrialN'
p741
I8
sS'.thisN'
p742
I85
sS'.thisIndex'
p743
I8
sg15
(lp744
S'k'
asg30
g31
sg17
S'Y'
sg14
I2
sg19
(lp745
S'space'
p746
asg95
I8
sa(dp747
g16
(lp748
S'd'
asg18
S'Y'
sS'.thisRepN'
p749
I7
sg20
S'Y'
sg32
g33
sS'.thisTrialN'
p750
I9
sS'.thisN'
p751
I86
sS'.thisIndex'
p752
I5
sg15
(lp753
S'd'
asg30
g31
sg17
S'Y'
sg14
I2
sg19
(lp754
S'space'
p755
asg95
I5
sa(dp756
g16
(lp757
S'k'
asg18
S'N'
sS'.thisRepN'
p758
I7
sg20
S'Y'
sg32
g33
sS'.thisTrialN'
p759
I10
sS'.thisN'
p760
I87
sS'.thisIndex'
p761
I5
sg15
(lp762
S'k'
asg30
g31
sg17
S'Y'
sg14
I2
sg19
Nsg95
I5
sa(dp763
g16
(lp764
S'd'
asg18
S'N'
sS'.thisRepN'
p765
I8
sg20
S'Y'
sg32
g33
sS'.thisTrialN'
p766
I0
sS'.thisN'
p767
I88
sS'.thisIndex'
p768
I8
sg15
(lp769
S'd'
asg30
g31
sg17
S'Y'
sg14
I2
sg19
Nsg95
I8
sa(dp770
g16
(lp771
S'd'
asg18
S'Y'
sS'.thisRepN'
p772
I8
sg20
S'Y'
sg32
g33
sS'.thisTrialN'
p773
I1
sS'.thisN'
p774
I89
sS'.thisIndex'
p775
I6
sg15
(lp776
S'd'
asg30
g31
sg17
S'Y'
sg14
I2
sg19
(lp777
S'space'
p778
asg95
I6
sa(dp779
g16
(lp780
S'k'
asg18
S'N'
sS'.thisRepN'
p781
I8
sg20
S'Y'
sg32
g33
sS'.thisTrialN'
p782
I2
sS'.thisN'
p783
I90
sS'.thisIndex'
p784
I7
sg15
(lp785
S'k'
asg30
g31
sg17
S'Y'
sg14
I2
sg19
Nsg95
I7
sa(dp786
g16
(lp787
S'd'
asg18
S'N'
sS'.thisRepN'
p788
I8
sg20
S'Y'
sg32
g33
sS'.thisTrialN'
p789
I3
sS'.thisN'
p790
I91
sS'.thisIndex'
p791
I7
sg15
(lp792
S'd'
asg30
g31
sg17
S'Y'
sg14
I2
sg19
Nsg95
I7
sa(dp793
g16
(lp794
S'd'
asg18
S'N'
sS'.thisRepN'
p795
I8
sg20
S'Y'
sg32
g33
sS'.thisTrialN'
p796
I4
sS'.thisN'
p797
I92
sS'.thisIndex'
p798
I4
sg15
(lp799
S'k'
asg30
g31
sg17
S'N'
sg14
I2
sg19
Nsg95
I4
sa(dp800
g16
(lp801
S'd'
asg18
S'Y'
sS'.thisRepN'
p802
I8
sg20
S'Y'
sg32
g33
sS'.thisTrialN'
p803
I5
sS'.thisN'
p804
I93
sS'.thisIndex'
p805
I6
sg15
(lp806
S'd'
asg30
g31
sg17
S'Y'
sg14
I2
sg19
(lp807
S'space'
p808
asg95
I6
sa(dp809
g16
(lp810
S'k'
asg18
S'Y'
sS'.thisRepN'
p811
I8
sg20
S'N'
sg32
g33
sS'.thisTrialN'
p812
I6
sS'.thisN'
p813
I94
sS'.thisIndex'
p814
I0
sg15
(lp815
S'k'
asg30
g31
sg17
S'Y'
sg14
I2
sg19
Nsg95
I0
sa(dp816
g16
(lp817
S'd'
asg18
S'N'
sS'.thisRepN'
p818
I8
sg20
S'Y'
sg32
g33
sS'.thisTrialN'
p819
I7
sS'.thisN'
p820
I95
sS'.thisIndex'
p821
I10
sg15
(lp822
S'd'
asg30
g31
sg17
S'Y'
sg14
I2
sg19
Nsg95
I10
sa(dp823
g16
(lp824
S'k'
asg18
S'N'
sS'.thisRepN'
p825
I8
sg20
S'Y'
sg32
g33
sS'.thisTrialN'
p826
I8
sS'.thisN'
p827
I96
sS'.thisIndex'
p828
I9
sg15
(lp829
S'k'
asg30
g31
sg17
S'Y'
sg14
I2
sg19
Nsg95
I9
sa(dp830
g16
(lp831
S'k'
asg18
S'Y'
sS'.thisRepN'
p832
I8
sg20
S'Y'
sg32
g33
sS'.thisTrialN'
p833
I9
sS'.thisN'
p834
I97
sS'.thisIndex'
p835
I5
sg15
(lp836
S'k'
asg30
g31
sg17
S'Y'
sg14
I2
sg19
(lp837
S'space'
p838
asg95
I5
sa(dp839
g16
(lp840
S'd'
asg18
S'N'
sS'.thisRepN'
p841
I8
sg20
S'Y'
sg32
g33
sS'.thisTrialN'
p842
I10
sS'.thisN'
p843
I98
sS'.thisIndex'
p844
I3
sg15
(lp845
S'd'
asg30
g31
sg17
S'Y'
sg14
I2
sg19
Nsg95
I3
sa(dp846
g16
(lp847
S'd'
asg18
S'N'
sg22
I36
sS'.thisN'
p848
I99
sg20
S'Y'
sg32
g33
sS'.thisTrialN'
p849
I0
sS'.thisRepN'
p850
I9
sg21
I42
sS'.thisIndex'
p851
I0
sg23
I25
sg15
(lp852
S'd'
asg30
g31
sg17
S'Y'
sg14
I2
sg19
Nsg95
I0
sa(dp853
g16
(lp854
S'k'
asg95
I3
sS'.thisRepN'
p855
I9
sg30
g31
sg32
g33
sS'.thisTrialN'
p856
I1
sS'.thisN'
p857
I100
sS'.thisIndex'
p858
I3
sg15
(lp859
S'k'
asg17
S'Y'
sg14
I3
sa(dp860
g16
(lp861
S'd'
asg95
I9
sS'.thisRepN'
p862
I9
sg30
g31
sg32
g33
sS'.thisTrialN'
p863
I2
sS'.thisN'
p864
I101
sS'.thisIndex'
p865
I9
sg15
(lp866
S'd'
asg17
S'Y'
sg14
I3
sa(dp867
g16
(lp868
S'd'
asg18
S'N'
sS'.thisRepN'
p869
I9
sg20
S'Y'
sg32
g33
sS'.thisTrialN'
p870
I3
sS'.thisN'
p871
I102
sS'.thisIndex'
p872
I4
sg15
(lp873
S'k'
asg30
g31
sg17
S'N'
sg14
I3
sg19
Nsg95
I4
sa(dp874
g16
(lp875
S'k'
asg18
S'Y'
sS'.thisRepN'
p876
I9
sg20
S'N'
sg32
g33
sS'.thisTrialN'
p877
I4
sS'.thisN'
p878
I103
sS'.thisIndex'
p879
I6
sg15
(lp880
S'k'
asg30
g31
sg17
S'Y'
sg14
I3
sg19
Nsg95
I6
sa(dp881
g16
(lp882
S'd'
asg18
S'N'
sS'.thisRepN'
p883
I9
sg20
S'Y'
sg32
g33
sS'.thisTrialN'
p884
I5
sS'.thisN'
p885
I104
sS'.thisIndex'
p886
I5
sg15
(lp887
S'd'
asg30
g31
sg17
S'Y'
sg14
I3
sg19
Nsg95
I5
sa(dp888
g16
(lp889
S'd'
asg18
S'N'
sS'.thisRepN'
p890
I9
sg20
S'N'
sg32
g33
sS'.thisTrialN'
p891
I6
sS'.thisN'
p892
I105
sS'.thisIndex'
p893
I10
sg15
(lp894
S'd'
asg30
g31
sg17
S'Y'
sg14
I3
sg19
(lp895
S'space'
p896
asg95
I10
sa(dp897
g16
(lp898
S'd'
asg18
S'N'
sS'.thisRepN'
p899
I9
sg20
S'Y'
sg32
g33
sS'.thisTrialN'
p900
I7
sS'.thisN'
p901
I106
sS'.thisIndex'
p902
I10
sg15
(lp903
S'd'
asg30
g31
sg17
S'Y'
sg14
I3
sg19
Nsg95
I10
sa(dp904
g16
(lp905
S'd'
asg18
S'N'
sS'.thisRepN'
p906
I9
sg20
S'Y'
sg32
g33
sS'.thisTrialN'
p907
I8
sS'.thisN'
p908
I107
sS'.thisIndex'
p909
I10
sg15
(lp910
S'd'
asg30
g31
sg17
S'Y'
sg14
I3
sg19
Nsg95
I10
sa(dp911
g16
(lp912
S'k'
asg18
S'N'
sS'.thisRepN'
p913
I9
sg20
S'Y'
sg32
g33
sS'.thisTrialN'
p914
I9
sS'.thisN'
p915
I108
sS'.thisIndex'
p916
I9
sg15
(lp917
S'k'
asg30
g31
sg17
S'Y'
sg14
I3
sg19
Nsg95
I9
sa(dp918
g16
(lp919
S'k'
asg18
S'N'
sS'.thisRepN'
p920
I9
sg20
S'Y'
sg32
g33
sS'.thisTrialN'
p921
I10
sS'.thisN'
p922
I109
sS'.thisIndex'
p923
I8
sg15
(lp924
S'k'
asg30
g31
sg17
S'Y'
sg14
I3
sg19
Nsg95
I8
sa(dp925
g16
(lp926
S'd'
asg18
S'Y'
sS'.thisRepN'
p927
I10
sg20
S'Y'
sg32
g33
sS'.thisTrialN'
p928
I0
sS'.thisN'
p929
I110
sS'.thisIndex'
p930
I5
sg15
(lp931
S'd'
asg30
g31
sg17
S'Y'
sg14
I3
sg19
(lp932
S'space'
p933
asg95
I5
sa(dp934
g16
(lp935
S'd'
asg18
S'Y'
sS'.thisRepN'
p936
I10
sg20
S'Y'
sg32
g33
sS'.thisTrialN'
p937
I1
sS'.thisN'
p938
I111
sS'.thisIndex'
p939
I0
sg15
(lp940
S'd'
asg30
g31
sg17
S'Y'
sg14
I3
sg19
(lp941
S'space'
p942
asg95
I0
sa(dp943
g16
(lp944
S'k'
asg18
S'N'
sS'.thisRepN'
p945
I10
sg20
S'Y'
sg32
g33
sS'.thisTrialN'
p946
I2
sS'.thisN'
p947
I112
sS'.thisIndex'
p948
I1
sg15
(lp949
S'k'
asg30
g31
sg17
S'Y'
sg14
I3
sg19
Nsg95
I1
sa(dp950
g16
(lp951
S'k'
asg18
S'Y'
sS'.thisRepN'
p952
I10
sg20
S'Y'
sg32
g33
sS'.thisTrialN'
p953
I3
sS'.thisN'
p954
I113
sS'.thisIndex'
p955
I4
sg15
(lp956
S'k'
asg30
g31
sg17
S'Y'
sg14
I3
sg19
(lp957
S'space'
p958
asg95
I4
sa(dp959
g16
(lp960
S'k'
asg18
S'N'
sS'.thisRepN'
p961
I10
sg20
S'Y'
sg32
g33
sS'.thisTrialN'
p962
I4
sS'.thisN'
p963
I114
sS'.thisIndex'
p964
I9
sg15
(lp965
S'k'
asg30
g31
sg17
S'Y'
sg14
I3
sg19
Nsg95
I9
sa(dp966
g16
(lp967
S'k'
asg18
S'Y'
sS'.thisRepN'
p968
I10
sg20
S'Y'
sg32
g33
sS'.thisTrialN'
p969
I5
sS'.thisN'
p970
I115
sS'.thisIndex'
p971
I1
sg15
(lp972
S'k'
asg30
g31
sg17
S'Y'
sg14
I3
sg19
(lp973
S'space'
p974
asg95
I1
sa(dp975
g16
(lp976
S'k'
asg18
S'N'
sS'.thisRepN'
p977
I10
sg20
S'Y'
sg32
g33
sS'.thisTrialN'
p978
I6
sS'.thisN'
p979
I116
sS'.thisIndex'
p980
I1
sg15
(lp981
S'k'
asg30
g31
sg17
S'Y'
sg14
I3
sg19
Nsg95
I1
sa(dp982
g16
(lp983
S'd'
asg18
S'Y'
sS'.thisRepN'
p984
I10
sg20
S'Y'
sg32
g33
sS'.thisTrialN'
p985
I7
sS'.thisN'
p986
I117
sS'.thisIndex'
p987
I3
sg15
(lp988
S'd'
asg30
g31
sg17
S'Y'
sg14
I3
sg19
(lp989
S'space'
p990
asg95
I3
sa(dp991
g16
(lp992
S'k'
asg18
S'N'
sS'.thisRepN'
p993
I10
sg20
S'Y'
sg32
g33
sS'.thisTrialN'
p994
I8
sS'.thisN'
p995
I118
sS'.thisIndex'
p996
I4
sg15
(lp997
S'k'
asg30
g31
sg17
S'Y'
sg14
I3
sg19
Nsg95
I4
sa(dp998
g16
(lp999
S'k'
asg18
S'N'
sS'.thisRepN'
p1000
I10
sg20
S'Y'
sg32
g33
sS'.thisTrialN'
p1001
I9
sS'.thisN'
p1002
I119
sS'.thisIndex'
p1003
I4
sg15
(lp1004
S'k'
asg30
g31
sg17
S'Y'
sg14
I3
sg19
Nsg95
I4
sa(dp1005
g16
(lp1006
S'k'
asg18
S'N'
sS'.thisRepN'
p1007
I10
sg20
S'Y'
sg32
g33
sS'.thisTrialN'
p1008
I10
sS'.thisN'
p1009
I120
sS'.thisIndex'
p1010
I9
sg15
(lp1011
S'k'
asg30
g31
sg17
S'Y'
sg14
I3
sg19
Nsg95
I9
sa(dp1012
g16
(lp1013
S'd'
asg18
S'Y'
sS'.thisRepN'
p1014
I11
sg20
S'Y'
sg32
g33
sS'.thisTrialN'
p1015
I0
sS'.thisN'
p1016
I121
sS'.thisIndex'
p1017
I2
sg15
(lp1018
S'd'
asg30
g31
sg17
S'Y'
sg14
I3
sg19
(lp1019
S'space'
p1020
asg95
I2
sa(dp1021
g16
(lp1022
S'k'
asg18
S'Y'
sS'.thisRepN'
p1023
I11
sg20
S'Y'
sg32
g33
sS'.thisTrialN'
p1024
I1
sS'.thisN'
p1025
I122
sS'.thisIndex'
p1026
I8
sg15
(lp1027
S'k'
asg30
g31
sg17
S'Y'
sg14
I3
sg19
(lp1028
S'space'
p1029
asg95
I8
sa(dp1030
g16
(lp1031
S'd'
asg18
S'N'
sS'.thisRepN'
p1032
I11
sg20
S'Y'
sg32
g33
sS'.thisTrialN'
p1033
I2
sS'.thisN'
p1034
I123
sS'.thisIndex'
p1035
I10
sg15
(lp1036
S'd'
asg30
g31
sg17
S'Y'
sg14
I3
sg19
Nsg95
I10
sa(dp1037
g16
(lp1038
S'd'
asg18
S'Y'
sS'.thisRepN'
p1039
I11
sg20
S'Y'
sg32
g33
sS'.thisTrialN'
p1040
I3
sS'.thisN'
p1041
I124
sS'.thisIndex'
p1042
I6
sg15
(lp1043
S'd'
asg30
g31
sg17
S'Y'
sg14
I3
sg19
(lp1044
S'space'
p1045
asg95
I6
sa(dp1046
g16
(lp1047
S'd'
asg18
S'Y'
sS'.thisRepN'
p1048
I11
sg20
S'N'
sg32
g33
sS'.thisTrialN'
p1049
I4
sS'.thisN'
p1050
I125
sS'.thisIndex'
p1051
I0
sg15
(lp1052
S'd'
asg30
g31
sg17
S'Y'
sg14
I3
sg19
Nsg95
I0
sa(dp1053
g16
(lp1054
S'k'
asg18
S'Y'
sS'.thisRepN'
p1055
I11
sg20
S'N'
sg32
g33
sS'.thisTrialN'
p1056
I5
sS'.thisN'
p1057
I126
sS'.thisIndex'
p1058
I6
sg15
(lp1059
S'd'
asg30
g31
sg17
S'N'
sg14
I3
sg19
Nsg95
I6
sa(dp1060
g16
(lp1061
S'k'
asg18
S'Y'
sS'.thisRepN'
p1062
I11
sg20
S'Y'
sg32
g33
sS'.thisTrialN'
p1063
I6
sS'.thisN'
p1064
I127
sS'.thisIndex'
p1065
I4
sg15
(lp1066
S'k'
asg30
g31
sg17
S'Y'
sg14
I3
sg19
(lp1067
S'space'
p1068
asg95
I4
sa(dp1069
g16
(lp1070
S'k'
asg18
S'Y'
sS'.thisRepN'
p1071
I11
sg20
S'Y'
sg32
g33
sS'.thisTrialN'
p1072
I7
sS'.thisN'
p1073
I128
sS'.thisIndex'
p1074
I10
sg15
(lp1075
S'k'
asg30
g31
sg17
S'Y'
sg14
I3
sg19
(lp1076
S'space'
p1077
asg95
I10
sa(dp1078
g16
(lp1079
S'k'
asg18
S'Y'
sS'.thisRepN'
p1080
I11
sg20
S'Y'
sg32
g33
sS'.thisTrialN'
p1081
I8
sS'.thisN'
p1082
I129
sS'.thisIndex'
p1083
I10
sg15
(lp1084
S'k'
asg30
g31
sg17
S'Y'
sg14
I3
sg19
(lp1085
S'space'
p1086
asg95
I10
sa(dp1087
g16
(lp1088
S'd'
asg18
S'Y'
sS'.thisRepN'
p1089
I11
sg20
S'Y'
sg32
g33
sS'.thisTrialN'
p1090
I9
sS'.thisN'
p1091
I130
sS'.thisIndex'
p1092
I5
sg15
(lp1093
S'd'
asg30
g31
sg17
S'Y'
sg14
I3
sg19
(lp1094
S'space'
p1095
asg95
I5
sa(dp1096
g16
(lp1097
S'd'
asg18
S'Y'
sS'.thisRepN'
p1098
I11
sg20
S'Y'
sg32
g33
sS'.thisTrialN'
p1099
I10
sS'.thisN'
p1100
I131
sS'.thisIndex'
p1101
I2
sg15
(lp1102
S'd'
asg30
g31
sg17
S'Y'
sg14
I3
sg19
(lp1103
S'space'
p1104
asg95
I2
sa(dp1105
g16
(lp1106
S'd'
asg18
S'N'
sS'.thisRepN'
p1107
I12
sg20
S'Y'
sg32
g33
sS'.thisTrialN'
p1108
I0
sS'.thisN'
p1109
I132
sS'.thisIndex'
p1110
I10
sg15
(lp1111
S'd'
asg30
g31
sg17
S'Y'
sg14
I3
sg19
Nsg95
I10
sa(dp1112
g16
(lp1113
S'k'
asg18
S'Y'
sS'.thisRepN'
p1114
I12
sg20
S'Y'
sg32
g33
sS'.thisTrialN'
p1115
I1
sS'.thisN'
p1116
I133
sS'.thisIndex'
p1117
I9
sg15
(lp1118
S'k'
asg30
g31
sg17
S'Y'
sg14
I3
sg19
(lp1119
S'space'
p1120
asg95
I9
sa(dp1121
g16
(lp1122
S'k'
asg18
S'Y'
sS'.thisRepN'
p1123
I12
sg20
S'Y'
sg32
g33
sS'.thisTrialN'
p1124
I2
sS'.thisN'
p1125
I134
sS'.thisIndex'
p1126
I10
sg15
(lp1127
S'k'
asg30
g31
sg17
S'Y'
sg14
I3
sg19
(lp1128
S'space'
p1129
asg95
I10
sa(dp1130
g16
(lp1131
S'd'
asg18
S'N'
sS'.thisRepN'
p1132
I12
sg20
S'Y'
sg32
g33
sS'.thisTrialN'
p1133
I3
sS'.thisN'
p1134
I135
sS'.thisIndex'
p1135
I10
sg15
(lp1136
S'd'
asg30
g31
sg17
S'Y'
sg14
I3
sg19
Nsg95
I10
sa(dp1137
g16
(lp1138
S'k'
asg18
S'Y'
sS'.thisRepN'
p1139
I12
sg20
S'Y'
sg32
g33
sS'.thisTrialN'
p1140
I4
sS'.thisN'
p1141
I136
sS'.thisIndex'
p1142
I4
sg15
(lp1143
S'k'
asg30
g31
sg17
S'Y'
sg14
I3
sg19
(lp1144
S'space'
p1145
asg95
I4
sa(dp1146
g16
(lp1147
S'k'
asg18
S'N'
sS'.thisRepN'
p1148
I12
sg20
S'Y'
sg32
g33
sS'.thisTrialN'
p1149
I5
sS'.thisN'
p1150
I137
sS'.thisIndex'
p1151
I0
sg15
(lp1152
S'k'
asg30
g31
sg17
S'Y'
sg14
I3
sg19
Nsg95
I0
sa(dp1153
g16
(lp1154
S'k'
asg18
S'Y'
sS'.thisRepN'
p1155
I12
sg20
S'Y'
sg32
g33
sS'.thisTrialN'
p1156
I6
sS'.thisN'
p1157
I138
sS'.thisIndex'
p1158
I8
sg15
(lp1159
S'k'
asg30
g31
sg17
S'Y'
sg14
I3
sg19
(lp1160
S'space'
p1161
asg95
I8
sa(dp1162
g16
(lp1163
S'k'
asg18
S'N'
sS'.thisRepN'
p1164
I12
sg20
S'Y'
sg32
g33
sS'.thisTrialN'
p1165
I7
sS'.thisN'
p1166
I139
sS'.thisIndex'
p1167
I0
sg15
(lp1168
S'k'
asg30
g31
sg17
S'Y'
sg14
I3
sg19
Nsg95
I0
sa(dp1169
g16
(lp1170
S'd'
asg18
S'Y'
sS'.thisRepN'
p1171
I12
sg20
S'Y'
sg32
g33
sS'.thisTrialN'
p1172
I8
sS'.thisN'
p1173
I140
sS'.thisIndex'
p1174
I6
sg15
(lp1175
S'd'
asg30
g31
sg17
S'Y'
sg14
I3
sg19
(lp1176
S'space'
p1177
asg95
I6
sa(dp1178
g16
(lp1179
S'd'
asg18
S'Y'
sS'.thisRepN'
p1180
I12
sg20
S'Y'
sg32
g33
sS'.thisTrialN'
p1181
I9
sS'.thisN'
p1182
I141
sS'.thisIndex'
p1183
I1
sg15
(lp1184
S'd'
asg30
g31
sg17
S'Y'
sg14
I3
sg19
(lp1185
S'space'
p1186
asg95
I1
sa(dp1187
g16
(lp1188
S'd'
asg18
S'N'
sS'.thisRepN'
p1189
I12
sg20
S'Y'
sg32
g33
sS'.thisTrialN'
p1190
I10
sS'.thisN'
p1191
I142
sS'.thisIndex'
p1192
I5
sg15
(lp1193
S'k'
asg30
g31
sg17
S'N'
sg14
I3
sg19
Nsg95
I5
sa(dp1194
g16
(lp1195
S'd'
asg18
S'N'
sS'.thisRepN'
p1196
I13
sg20
S'Y'
sg32
g33
sS'.thisTrialN'
p1197
I0
sS'.thisN'
p1198
I143
sS'.thisIndex'
p1199
I4
sg15
(lp1200
S'd'
asg30
g31
sg17
S'Y'
sg14
I3
sg19
Nsg95
I4
sa(dp1201
g16
(lp1202
S'd'
asg18
S'Y'
sS'.thisRepN'
p1203
I13
sg20
S'Y'
sg32
g33
sS'.thisTrialN'
p1204
I1
sS'.thisN'
p1205
I144
sS'.thisIndex'
p1206
I2
sg15
(lp1207
S'k'
asg30
g31
sg17
S'N'
sg14
I3
sg19
(lp1208
S'space'
p1209
asg95
I2
sa(dp1210
g16
(lp1211
S'k'
asg18
S'N'
sS'.thisRepN'
p1212
I13
sg20
S'Y'
sg32
g33
sS'.thisTrialN'
p1213
I2
sS'.thisN'
p1214
I145
sS'.thisIndex'
p1215
I0
sg15
(lp1216
S'k'
asg30
g31
sg17
S'Y'
sg14
I3
sg19
Nsg95
I0
sa(dp1217
g16
(lp1218
S'd'
asg18
S'N'
sS'.thisRepN'
p1219
I13
sg20
S'Y'
sg32
g33
sS'.thisTrialN'
p1220
I3
sS'.thisN'
p1221
I146
sS'.thisIndex'
p1222
I8
sg15
(lp1223
S'd'
asg30
g31
sg17
S'Y'
sg14
I3
sg19
Nsg95
I8
sa(dp1224
g16
(lp1225
S'k'
asg18
S'N'
sS'.thisRepN'
p1226
I13
sg20
S'Y'
sg32
g33
sS'.thisTrialN'
p1227
I4
sS'.thisN'
p1228
I147
sS'.thisIndex'
p1229
I7
sg15
(lp1230
S'k'
asg30
g31
sg17
S'Y'
sg14
I3
sg19
Nsg95
I7
sa(dp1231
g16
(lp1232
S'k'
asg18
S'N'
sS'.thisRepN'
p1233
I13
sg20
S'Y'
sg32
g33
sS'.thisTrialN'
p1234
I5
sS'.thisN'
p1235
I148
sS'.thisIndex'
p1236
I6
sg15
(lp1237
S'k'
asg30
g31
sg17
S'Y'
sg14
I3
sg19
Nsg95
I6
sa(dp1238
g16
(lp1239
S'd'
asg18
S'Y'
sg22
I44
sS'.thisN'
p1240
I149
sg20
S'Y'
sg32
g33
sS'.thisTrialN'
p1241
I6
sS'.thisRepN'
p1242
I13
sg21
I46
sS'.thisIndex'
p1243
I9
sg23
I24
sg15
(lp1244
S'd'
asg30
g31
sg17
S'Y'
sg14
I3
sg19
(lp1245
S'space'
p1246
asg95
I9
sa(dp1247
g16
(lp1248
S'd'
asg95
I10
sS'.thisRepN'
p1249
I13
sg30
g31
sg32
g33
sS'.thisTrialN'
p1250
I7
sS'.thisN'
p1251
I150
sS'.thisIndex'
p1252
I10
sg15
(lp1253
S'd'
asg17
S'Y'
sg14
I4
sa(dp1254
g16
(lp1255
S'd'
asg95
I1
sS'.thisRepN'
p1256
I13
sg30
g31
sg32
g33
sS'.thisTrialN'
p1257
I8
sS'.thisN'
p1258
I151
sS'.thisIndex'
p1259
I1
sg15
(lp1260
S'd'
asg17
S'Y'
sg14
I4
sa(dp1261
g16
(lp1262
S'k'
asg18
S'Y'
sS'.thisRepN'
p1263
I13
sg20
S'Y'
sg32
g33
sS'.thisTrialN'
p1264
I9
sS'.thisN'
p1265
I152
sS'.thisIndex'
p1266
I5
sg15
(lp1267
S'k'
asg30
g31
sg17
S'Y'
sg14
I4
sg19
(lp1268
S'space'
p1269
asg95
I5
sa(dp1270
g16
(lp1271
S'k'
asg18
S'N'
sS'.thisRepN'
p1272
I13
sg20
S'Y'
sg32
g33
sS'.thisTrialN'
p1273
I10
sS'.thisN'
p1274
I153
sS'.thisIndex'
p1275
I9
sg15
(lp1276
S'k'
asg30
g31
sg17
S'Y'
sg14
I4
sg19
Nsg95
I9
sa(dp1277
g16
(lp1278
S'k'
asg18
S'N'
sS'.thisRepN'
p1279
I14
sg20
S'Y'
sg32
g33
sS'.thisTrialN'
p1280
I0
sS'.thisN'
p1281
I154
sS'.thisIndex'
p1282
I5
sg15
(lp1283
S'k'
asg30
g31
sg17
S'Y'
sg14
I4
sg19
Nsg95
I5
sa(dp1284
g16
(lp1285
S'd'
asg18
S'Y'
sS'.thisRepN'
p1286
I14
sg20
S'Y'
sg32
g33
sS'.thisTrialN'
p1287
I1
sS'.thisN'
p1288
I155
sS'.thisIndex'
p1289
I8
sg15
(lp1290
S'd'
asg30
g31
sg17
S'Y'
sg14
I4
sg19
(lp1291
S'space'
p1292
asg95
I8
sa(dp1293
g16
(lp1294
S'd'
asg18
S'N'
sS'.thisRepN'
p1295
I14
sg20
S'Y'
sg32
g33
sS'.thisTrialN'
p1296
I2
sS'.thisN'
p1297
I156
sS'.thisIndex'
p1298
I7
sg15
(lp1299
S'd'
asg30
g31
sg17
S'Y'
sg14
I4
sg19
Nsg95
I7
sa(dp1300
g16
(lp1301
S'd'
asg18
S'Y'
sS'.thisRepN'
p1302
I14
sg20
S'Y'
sg32
g33
sS'.thisTrialN'
p1303
I3
sS'.thisN'
p1304
I157
sS'.thisIndex'
p1305
I7
sg15
(lp1306
S'd'
asg30
g31
sg17
S'Y'
sg14
I4
sg19
(lp1307
S'space'
p1308
asg95
I7
sa(dp1309
g16
(lp1310
S'd'
asg18
S'N'
sS'.thisRepN'
p1311
I14
sg20
S'Y'
sg32
g33
sS'.thisTrialN'
p1312
I4
sS'.thisN'
p1313
I158
sS'.thisIndex'
p1314
I3
sg15
(lp1315
S'd'
asg30
g31
sg17
S'Y'
sg14
I4
sg19
Nsg95
I3
sa(dp1316
g16
(lp1317
S'd'
asg18
S'N'
sS'.thisRepN'
p1318
I14
sg20
S'Y'
sg32
g33
sS'.thisTrialN'
p1319
I5
sS'.thisN'
p1320
I159
sS'.thisIndex'
p1321
I3
sg15
(lp1322
S'd'
asg30
g31
sg17
S'Y'
sg14
I4
sg19
Nsg95
I3
sa(dp1323
g16
(lp1324
S'd'
asg18
S'N'
sS'.thisRepN'
p1325
I14
sg20
S'Y'
sg32
g33
sS'.thisTrialN'
p1326
I6
sS'.thisN'
p1327
I160
sS'.thisIndex'
p1328
I2
sg15
(lp1329
S'k'
asg30
g31
sg17
S'N'
sg14
I4
sg19
Nsg95
I2
sa(dp1330
g16
(lp1331
S'k'
asg18
S'N'
sS'.thisRepN'
p1332
I14
sg20
S'Y'
sg32
g33
sS'.thisTrialN'
p1333
I7
sS'.thisN'
p1334
I161
sS'.thisIndex'
p1335
I10
sg15
(lp1336
S'k'
asg30
g31
sg17
S'Y'
sg14
I4
sg19
Nsg95
I10
sa(dp1337
g16
(lp1338
S'k'
asg18
S'Y'
sS'.thisRepN'
p1339
I14
sg20
S'Y'
sg32
g33
sS'.thisTrialN'
p1340
I8
sS'.thisN'
p1341
I162
sS'.thisIndex'
p1342
I1
sg15
(lp1343
S'k'
asg30
g31
sg17
S'Y'
sg14
I4
sg19
(lp1344
S'space'
p1345
asg95
I1
sa(dp1346
g16
(lp1347
S'k'
asg18
S'Y'
sS'.thisRepN'
p1348
I14
sg20
S'Y'
sg32
g33
sS'.thisTrialN'
p1349
I9
sS'.thisN'
p1350
I163
sS'.thisIndex'
p1351
I4
sg15
(lp1352
S'k'
asg30
g31
sg17
S'Y'
sg14
I4
sg19
(lp1353
S'space'
p1354
asg95
I4
sa(dp1355
g16
(lp1356
S'd'
asg18
S'Y'
sS'.thisRepN'
p1357
I14
sg20
S'Y'
sg32
g33
sS'.thisTrialN'
p1358
I10
sS'.thisN'
p1359
I164
sS'.thisIndex'
p1360
I9
sg15
(lp1361
S'd'
asg30
g31
sg17
S'Y'
sg14
I4
sg19
(lp1362
S'space'
p1363
asg95
I9
sa(dp1364
g16
(lp1365
S'd'
asg18
S'N'
sS'.thisRepN'
p1366
I15
sg20
S'Y'
sg32
g33
sS'.thisTrialN'
p1367
I0
sS'.thisN'
p1368
I165
sS'.thisIndex'
p1369
I0
sg15
(lp1370
S'd'
asg30
g31
sg17
S'Y'
sg14
I4
sg19
Nsg95
I0
sa(dp1371
g16
(lp1372
S'k'
asg18
S'Y'
sS'.thisRepN'
p1373
I15
sg20
S'Y'
sg32
g33
sS'.thisTrialN'
p1374
I1
sS'.thisN'
p1375
I166
sS'.thisIndex'
p1376
I0
sg15
(lp1377
S'k'
asg30
g31
sg17
S'Y'
sg14
I4
sg19
(lp1378
S'space'
p1379
asg95
I0
sa(dp1380
g16
(lp1381
S'd'
asg18
S'N'
sS'.thisRepN'
p1382
I15
sg20
S'Y'
sg32
g33
sS'.thisTrialN'
p1383
I2
sS'.thisN'
p1384
I167
sS'.thisIndex'
p1385
I10
sg15
(lp1386
S'd'
asg30
g31
sg17
S'Y'
sg14
I4
sg19
Nsg95
I10
sa(dp1387
g16
(lp1388
S'd'
asg18
S'Y'
sS'.thisRepN'
p1389
I15
sg20
S'Y'
sg32
g33
sS'.thisTrialN'
p1390
I3
sS'.thisN'
p1391
I168
sS'.thisIndex'
p1392
I1
sg15
(lp1393
S'd'
asg30
g31
sg17
S'Y'
sg14
I4
sg19
(lp1394
S'space'
p1395
asg95
I1
sa(dp1396
g16
(lp1397
S'd'
asg18
S'N'
sS'.thisRepN'
p1398
I15
sg20
S'Y'
sg32
g33
sS'.thisTrialN'
p1399
I4
sS'.thisN'
p1400
I169
sS'.thisIndex'
p1401
I10
sg15
(lp1402
S'd'
asg30
g31
sg17
S'Y'
sg14
I4
sg19
Nsg95
I10
sa(dp1403
g16
(lp1404
S'd'
asg18
S'Y'
sS'.thisRepN'
p1405
I15
sg20
S'Y'
sg32
g33
sS'.thisTrialN'
p1406
I5
sS'.thisN'
p1407
I170
sS'.thisIndex'
p1408
I2
sg15
(lp1409
S'k'
asg30
g31
sg17
S'N'
sg14
I4
sg19
(lp1410
S'space'
p1411
asg95
I2
sa(dp1412
g16
(lp1413
S'k'
asg18
S'Y'
sS'.thisRepN'
p1414
I15
sg20
S'N'
sg32
g33
sS'.thisTrialN'
p1415
I6
sS'.thisN'
p1416
I171
sS'.thisIndex'
p1417
I2
sg15
(lp1418
S'd'
asg30
g31
sg17
S'N'
sg14
I4
sg19
Nsg95
I2
sa(dp1419
g16
(lp1420
S'k'
asg18
S'Y'
sS'.thisRepN'
p1421
I15
sg20
S'N'
sg32
g33
sS'.thisTrialN'
p1422
I7
sS'.thisN'
p1423
I172
sS'.thisIndex'
p1424
I3
sg15
(lp1425
S'k'
asg30
g31
sg17
S'Y'
sg14
I4
sg19
Nsg95
I3
sa(dp1426
g16
(lp1427
S'k'
asg18
S'Y'
sS'.thisRepN'
p1428
I15
sg20
S'Y'
sg32
g33
sS'.thisTrialN'
p1429
I8
sS'.thisN'
p1430
I173
sS'.thisIndex'
p1431
I9
sg15
(lp1432
S'k'
asg30
g31
sg17
S'Y'
sg14
I4
sg19
(lp1433
S'space'
p1434
asg95
I9
sa(dp1435
g16
(lp1436
S'd'
asg18
S'Y'
sS'.thisRepN'
p1437
I15
sg20
S'N'
sg32
g33
sS'.thisTrialN'
p1438
I9
sS'.thisN'
p1439
I174
sS'.thisIndex'
p1440
I0
sg15
(lp1441
S'd'
asg30
g31
sg17
S'Y'
sg14
I4
sg19
Nsg95
I0
sa(dp1442
g16
(lp1443
S'k'
asg18
S'Y'
sS'.thisRepN'
p1444
I15
sg20
S'N'
sg32
g33
sS'.thisTrialN'
p1445
I10
sS'.thisN'
p1446
I175
sS'.thisIndex'
p1447
I9
sg15
(lp1448
S'k'
asg30
g31
sg17
S'Y'
sg14
I4
sg19
Nsg95
I9
sa(dp1449
g16
(lp1450
S'k'
asg18
S'N'
sS'.thisRepN'
p1451
I16
sg20
S'Y'
sg32
g33
sS'.thisTrialN'
p1452
I0
sS'.thisN'
p1453
I176
sS'.thisIndex'
p1454
I5
sg15
(lp1455
S'k'
asg30
g31
sg17
S'Y'
sg14
I4
sg19
Nsg95
I5
sa(dp1456
g16
(lp1457
S'd'
asg18
S'N'
sS'.thisRepN'
p1458
I16
sg20
S'Y'
sg32
g33
sS'.thisTrialN'
p1459
I1
sS'.thisN'
p1460
I177
sS'.thisIndex'
p1461
I0
sg15
(lp1462
S'd'
asg30
g31
sg17
S'Y'
sg14
I4
sg19
Nsg95
I0
sa(dp1463
g16
(lp1464
S'd'
asg18
S'Y'
sS'.thisRepN'
p1465
I16
sg20
S'Y'
sg32
g33
sS'.thisTrialN'
p1466
I2
sS'.thisN'
p1467
I178
sS'.thisIndex'
p1468
I9
sg15
(lp1469
S'd'
asg30
g31
sg17
S'Y'
sg14
I4
sg19
(lp1470
S'space'
p1471
asg95
I9
sa(dp1472
g16
(lp1473
S'd'
asg18
S'N'
sS'.thisRepN'
p1474
I16
sg20
S'Y'
sg32
g33
sS'.thisTrialN'
p1475
I3
sS'.thisN'
p1476
I179
sS'.thisIndex'
p1477
I0
sg15
(lp1478
S'k'
asg30
g31
sg17
S'N'
sg14
I4
sg19
Nsg95
I0
sa(dp1479
g16
(lp1480
S'd'
asg18
S'Y'
sS'.thisRepN'
p1481
I16
sg20
S'N'
sg32
g33
sS'.thisTrialN'
p1482
I4
sS'.thisN'
p1483
I180
sS'.thisIndex'
p1484
I6
sg15
(lp1485
S'd'
asg30
g31
sg17
S'Y'
sg14
I4
sg19
Nsg95
I6
sa(dp1486
g16
(lp1487
S'k'
asg18
S'N'
sS'.thisRepN'
p1488
I16
sg20
S'Y'
sg32
g33
sS'.thisTrialN'
p1489
I5
sS'.thisN'
p1490
I181
sS'.thisIndex'
p1491
I5
sg15
(lp1492
S'k'
asg30
g31
sg17
S'Y'
sg14
I4
sg19
Nsg95
I5
sa(dp1493
g16
(lp1494
S'd'
asg18
S'Y'
sS'.thisRepN'
p1495
I16
sg20
S'Y'
sg32
g33
sS'.thisTrialN'
p1496
I6
sS'.thisN'
p1497
I182
sS'.thisIndex'
p1498
I9
sg15
(lp1499
S'd'
asg30
g31
sg17
S'Y'
sg14
I4
sg19
(lp1500
S'space'
p1501
asg95
I9
sa(dp1502
g16
(lp1503
S'd'
asg18
S'Y'
sS'.thisRepN'
p1504
I16
sg20
S'Y'
sg32
g33
sS'.thisTrialN'
p1505
I7
sS'.thisN'
p1506
I183
sS'.thisIndex'
p1507
I8
sg15
(lp1508
S'd'
asg30
g31
sg17
S'Y'
sg14
I4
sg19
(lp1509
S'space'
p1510
asg95
I8
sa(dp1511
g16
(lp1512
S'k'
asg18
S'N'
sS'.thisRepN'
p1513
I16
sg20
S'Y'
sg32
g33
sS'.thisTrialN'
p1514
I8
sS'.thisN'
p1515
I184
sS'.thisIndex'
p1516
I6
sg15
(lp1517
S'd'
asg30
g31
sg17
S'N'
sg14
I4
sg19
Nsg95
I6
sa(dp1518
g16
(lp1519
S'k'
asg18
S'N'
sS'.thisRepN'
p1520
I16
sg20
S'Y'
sg32
g33
sS'.thisTrialN'
p1521
I9
sS'.thisN'
p1522
I185
sS'.thisIndex'
p1523
I7
sg15
(lp1524
S'k'
asg30
g31
sg17
S'Y'
sg14
I4
sg19
Nsg95
I7
sa(dp1525
g16
(lp1526
S'd'
asg18
S'Y'
sS'.thisRepN'
p1527
I16
sg20
S'Y'
sg32
g33
sS'.thisTrialN'
p1528
I10
sS'.thisN'
p1529
I186
sS'.thisIndex'
p1530
I3
sg15
(lp1531
S'd'
asg30
g31
sg17
S'Y'
sg14
I4
sg19
(lp1532
S'space'
p1533
asg95
I3
sa(dp1534
g16
(lp1535
S'd'
asg18
S'Y'
sS'.thisRepN'
p1536
I17
sg20
S'N'
sg32
g33
sS'.thisTrialN'
p1537
I0
sS'.thisN'
p1538
I187
sS'.thisIndex'
p1539
I9
sg15
(lp1540
S'd'
asg30
g31
sg17
S'Y'
sg14
I4
sg19
Nsg95
I9
sa(dp1541
g16
(lp1542
S'd'
asg18
S'N'
sS'.thisRepN'
p1543
I17
sg20
S'N'
sg32
g33
sS'.thisTrialN'
p1544
I1
sS'.thisN'
p1545
I188
sS'.thisIndex'
p1546
I7
sg15
(lp1547
S'd'
asg30
g31
sg17
S'Y'
sg14
I4
sg19
(lp1548
S'space'
p1549
asg95
I7
sa(dp1550
g16
(lp1551
S'd'
asg18
S'N'
sS'.thisRepN'
p1552
I17
sg20
S'Y'
sg32
g33
sS'.thisTrialN'
p1553
I2
sS'.thisN'
p1554
I189
sS'.thisIndex'
p1555
I6
sg15
(lp1556
S'd'
asg30
g31
sg17
S'Y'
sg14
I4
sg19
Nsg95
I6
sa(dp1557
g16
(lp1558
S'd'
asg18
S'N'
sS'.thisRepN'
p1559
I17
sg20
S'Y'
sg32
g33
sS'.thisTrialN'
p1560
I3
sS'.thisN'
p1561
I190
sS'.thisIndex'
p1562
I3
sg15
(lp1563
S'd'
asg30
g31
sg17
S'Y'
sg14
I4
sg19
Nsg95
I3
sa(dp1564
g16
(lp1565
S'k'
asg18
S'Y'
sS'.thisRepN'
p1566
I17
sg20
S'Y'
sg32
g33
sS'.thisTrialN'
p1567
I4
sS'.thisN'
p1568
I191
sS'.thisIndex'
p1569
I0
sg15
(lp1570
S'd'
asg30
g31
sg17
S'N'
sg14
I4
sg19
(lp1571
S'space'
p1572
asg95
I0
sa(dp1573
g16
(lp1574
S'k'
asg18
S'N'
sS'.thisRepN'
p1575
I17
sg20
S'Y'
sg32
g33
sS'.thisTrialN'
p1576
I5
sS'.thisN'
p1577
I192
sS'.thisIndex'
p1578
I8
sg15
(lp1579
S'd'
asg30
g31
sg17
S'N'
sg14
I4
sg19
Nsg95
I8
sa(dp1580
g16
(lp1581
S'k'
asg18
S'N'
sS'.thisRepN'
p1582
I17
sg20
S'Y'
sg32
g33
sS'.thisTrialN'
p1583
I6
sS'.thisN'
p1584
I193
sS'.thisIndex'
p1585
I0
sg15
(lp1586
S'k'
asg30
g31
sg17
S'Y'
sg14
I4
sg19
Nsg95
I0
sa(dp1587
g16
(lp1588
S'd'
asg18
S'N'
sS'.thisRepN'
p1589
I17
sg20
S'Y'
sg32
g33
sS'.thisTrialN'
p1590
I7
sS'.thisN'
p1591
I194
sS'.thisIndex'
p1592
I4
sg15
(lp1593
S'd'
asg30
g31
sg17
S'Y'
sg14
I4
sg19
Nsg95
I4
sa(dp1594
g16
(lp1595
S'k'
asg18
S'Y'
sS'.thisRepN'
p1596
I17
sg20
S'Y'
sg32
g33
sS'.thisTrialN'
p1597
I8
sS'.thisN'
p1598
I195
sS'.thisIndex'
p1599
I3
sg15
(lp1600
S'k'
asg30
g31
sg17
S'Y'
sg14
I4
sg19
(lp1601
S'space'
p1602
asg95
I3
sa(dp1603
g16
(lp1604
S'd'
asg18
S'Y'
sS'.thisRepN'
p1605
I17
sg20
S'Y'
sg32
g33
sS'.thisTrialN'
p1606
I9
sS'.thisN'
p1607
I196
sS'.thisIndex'
p1608
I10
sg15
(lp1609
S'd'
asg30
g31
sg17
S'Y'
sg14
I4
sg19
(lp1610
S'space'
p1611
asg95
I10
sa(dp1612
g16
(lp1613
S'd'
asg18
S'N'
sS'.thisRepN'
p1614
I17
sg20
S'Y'
sg32
g33
sS'.thisTrialN'
p1615
I10
sS'.thisN'
p1616
I197
sS'.thisIndex'
p1617
I2
sg15
(lp1618
S'd'
asg30
g31
sg17
S'Y'
sg14
I4
sg19
Nsg95
I2
sa(dp1619
g16
(lp1620
S'k'
asg18
S'N'
sS'.thisRepN'
p1621
I18
sg20
S'Y'
sg32
g33
sS'.thisTrialN'
p1622
I0
sS'.thisN'
p1623
I198
sS'.thisIndex'
p1624
I4
sg15
(lp1625
S'k'
asg30
g31
sg17
S'Y'
sg14
I4
sg19
Nsg95
I4
sa(dp1626
g16
(lp1627
S'd'
asg18
S'Y'
sg22
I40
sS'.thisN'
p1628
I199
sg20
S'N'
sg32
g33
sS'.thisTrialN'
p1629
I1
sS'.thisRepN'
p1630
I18
sg21
I43
sS'.thisIndex'
p1631
I8
sg23
I24
sg15
(lp1632
S'd'
asg30
g31
sg17
S'Y'
sg14
I4
sg19
Nsg95
I8
sa(dp1633
g16
(lp1634
S'k'
asg95
I3
sS'.thisRepN'
p1635
I18
sg30
g31
sg32
g33
sS'.thisTrialN'
p1636
I2
sS'.thisN'
p1637
I200
sS'.thisIndex'
p1638
I3
sg15
(lp1639
S'k'
asg17
S'Y'
sg14
I5
sa(dp1640
g16
(lp1641
S'k'
asg95
I5
sS'.thisRepN'
p1642
I18
sg30
g31
sg32
g33
sS'.thisTrialN'
p1643
I3
sS'.thisN'
p1644
I201
sS'.thisIndex'
p1645
I5
sg15
(lp1646
S'k'
asg17
S'Y'
sg14
I5
sa(dp1647
g16
(lp1648
S'd'
asg18
S'Y'
sS'.thisRepN'
p1649
I18
sg20
S'N'
sg32
g33
sS'.thisTrialN'
p1650
I4
sS'.thisN'
p1651
I202
sS'.thisIndex'
p1652
I1
sg15
(lp1653
S'd'
asg30
g31
sg17
S'Y'
sg14
I5
sg19
Nsg95
I1
sa(dp1654
g16
(lp1655
S'k'
asg18
S'Y'
sS'.thisRepN'
p1656
I18
sg20
S'Y'
sg32
g33
sS'.thisTrialN'
p1657
I5
sS'.thisN'
p1658
I203
sS'.thisIndex'
p1659
I1
sg15
(lp1660
S'k'
asg30
g31
sg17
S'Y'
sg14
I5
sg19
(lp1661
S'space'
p1662
asg95
I1
sa(dp1663
g16
(lp1664
S'd'
asg18
S'N'
sS'.thisRepN'
p1665
I18
sg20
S'Y'
sg32
g33
sS'.thisTrialN'
p1666
I6
sS'.thisN'
p1667
I204
sS'.thisIndex'
p1668
I1
sg15
(lp1669
S'd'
asg30
g31
sg17
S'Y'
sg14
I5
sg19
Nsg95
I1
sa(dp1670
g16
(lp1671
S'k'
asg18
S'Y'
sS'.thisRepN'
p1672
I18
sg20
S'N'
sg32
g33
sS'.thisTrialN'
p1673
I7
sS'.thisN'
p1674
I205
sS'.thisIndex'
p1675
I9
sg15
(lp1676
S'k'
asg30
g31
sg17
S'Y'
sg14
I5
sg19
Nsg95
I9
sa(dp1677
g16
(lp1678
S'k'
asg18
S'Y'
sS'.thisRepN'
p1679
I18
sg20
S'Y'
sg32
g33
sS'.thisTrialN'
p1680
I8
sS'.thisN'
p1681
I206
sS'.thisIndex'
p1682
I8
sg15
(lp1683
S'k'
asg30
g31
sg17
S'Y'
sg14
I5
sg19
(lp1684
S'space'
p1685
asg95
I8
sa(dp1686
g16
(lp1687
S'k'
asg18
S'Y'
sS'.thisRepN'
p1688
I18
sg20
S'Y'
sg32
g33
sS'.thisTrialN'
p1689
I9
sS'.thisN'
p1690
I207
sS'.thisIndex'
p1691
I7
sg15
(lp1692
S'k'
asg30
g31
sg17
S'Y'
sg14
I5
sg19
(lp1693
S'space'
p1694
asg95
I7
sa(dp1695
g16
(lp1696
S'd'
asg18
S'N'
sS'.thisRepN'
p1697
I18
sg20
S'Y'
sg32
g33
sS'.thisTrialN'
p1698
I10
sS'.thisN'
p1699
I208
sS'.thisIndex'
p1700
I7
sg15
(lp1701
S'd'
asg30
g31
sg17
S'Y'
sg14
I5
sg19
Nsg95
I7
sa(dp1702
g16
(lp1703
S'k'
asg18
S'N'
sS'.thisRepN'
p1704
I19
sg20
S'Y'
sg32
g33
sS'.thisTrialN'
p1705
I0
sS'.thisN'
p1706
I209
sS'.thisIndex'
p1707
I3
sg15
(lp1708
S'k'
asg30
g31
sg17
S'Y'
sg14
I5
sg19
Nsg95
I3
sa(dp1709
g16
(lp1710
S'k'
asg18
S'Y'
sS'.thisRepN'
p1711
I19
sg20
S'Y'
sg32
g33
sS'.thisTrialN'
p1712
I1
sS'.thisN'
p1713
I210
sS'.thisIndex'
p1714
I0
sg15
(lp1715
S'k'
asg30
g31
sg17
S'Y'
sg14
I5
sg19
(lp1716
S'space'
p1717
asg95
I0
sa(dp1718
g16
(lp1719
S'd'
asg18
S'N'
sS'.thisRepN'
p1720
I19
sg20
S'Y'
sg32
g33
sS'.thisTrialN'
p1721
I2
sS'.thisN'
p1722
I211
sS'.thisIndex'
p1723
I8
sg15
(lp1724
S'd'
asg30
g31
sg17
S'Y'
sg14
I5
sg19
Nsg95
I8
sa(dp1725
g16
(lp1726
S'k'
asg18
S'Y'
sS'.thisRepN'
p1727
I19
sg20
S'Y'
sg32
g33
sS'.thisTrialN'
p1728
I3
sS'.thisN'
p1729
I212
sS'.thisIndex'
p1730
I5
sg15
(lp1731
S'k'
asg30
g31
sg17
S'Y'
sg14
I5
sg19
(lp1732
S'space'
p1733
asg95
I5
sa(dp1734
g16
(lp1735
S'k'
asg18
S'N'
sS'.thisRepN'
p1736
I19
sg20
S'Y'
sg32
g33
sS'.thisTrialN'
p1737
I4
sS'.thisN'
p1738
I213
sS'.thisIndex'
p1739
I9
sg15
(lp1740
S'k'
asg30
g31
sg17
S'Y'
sg14
I5
sg19
Nsg95
I9
sa(dp1741
g16
(lp1742
S'd'
asg18
S'Y'
sS'.thisRepN'
p1743
I19
sg20
S'Y'
sg32
g33
sS'.thisTrialN'
p1744
I5
sS'.thisN'
p1745
I214
sS'.thisIndex'
p1746
I4
sg15
(lp1747
S'd'
asg30
g31
sg17
S'Y'
sg14
I5
sg19
(lp1748
S'space'
p1749
asg95
I4
sa(dp1750
g16
(lp1751
S'd'
asg18
S'Y'
sS'.thisRepN'
p1752
I19
sg20
S'Y'
sg32
g33
sS'.thisTrialN'
p1753
I6
sS'.thisN'
p1754
I215
sS'.thisIndex'
p1755
I1
sg15
(lp1756
S'd'
asg30
g31
sg17
S'Y'
sg14
I5
sg19
(lp1757
S'space'
p1758
asg95
I1
sa(dp1759
g16
(lp1760
S'd'
asg18
S'Y'
sS'.thisRepN'
p1761
I19
sg20
S'Y'
sg32
g33
sS'.thisTrialN'
p1762
I7
sS'.thisN'
p1763
I216
sS'.thisIndex'
p1764
I2
sg15
(lp1765
S'd'
asg30
g31
sg17
S'Y'
sg14
I5
sg19
(lp1766
S'space'
p1767
asg95
I2
sa(dp1768
g16
(lp1769
S'd'
asg18
S'Y'
sS'.thisRepN'
p1770
I19
sg20
S'Y'
sg32
g33
sS'.thisTrialN'
p1771
I8
sS'.thisN'
p1772
I217
sS'.thisIndex'
p1773
I7
sg15
(lp1774
S'k'
asg30
g31
sg17
S'N'
sg14
I5
sg19
(lp1775
S'space'
p1776
asg95
I7
sa(dp1777
g16
(lp1778
S'k'
asg18
S'Y'
sS'.thisRepN'
p1779
I19
sg20
S'Y'
sg32
g33
sS'.thisTrialN'
p1780
I9
sS'.thisN'
p1781
I218
sS'.thisIndex'
p1782
I4
sg15
(lp1783
S'k'
asg30
g31
sg17
S'Y'
sg14
I5
sg19
(lp1784
S'space'
p1785
asg95
I4
sa(dp1786
g16
(lp1787
S'k'
asg18
S'N'
sS'.thisRepN'
p1788
I19
sg20
S'Y'
sg32
g33
sS'.thisTrialN'
p1789
I10
sS'.thisN'
p1790
I219
sS'.thisIndex'
p1791
I5
sg15
(lp1792
S'k'
asg30
g31
sg17
S'Y'
sg14
I5
sg19
Nsg95
I5
sa(dp1793
g16
(lp1794
S'k'
asg18
S'N'
sS'.thisRepN'
p1795
I20
sg20
S'Y'
sg32
g33
sS'.thisTrialN'
p1796
I0
sS'.thisN'
p1797
I220
sS'.thisIndex'
p1798
I4
sg15
(lp1799
S'k'
asg30
g31
sg17
S'Y'
sg14
I5
sg19
Nsg95
I4
sa(dp1800
g16
(lp1801
S'k'
asg18
S'N'
sS'.thisRepN'
p1802
I20
sg20
S'Y'
sg32
g33
sS'.thisTrialN'
p1803
I1
sS'.thisN'
p1804
I221
sS'.thisIndex'
p1805
I5
sg15
(lp1806
S'k'
asg30
g31
sg17
S'Y'
sg14
I5
sg19
Nsg95
I5
sa(dp1807
g16
(lp1808
S'k'
asg18
S'Y'
sS'.thisRepN'
p1809
I20
sg20
S'Y'
sg32
g33
sS'.thisTrialN'
p1810
I2
sS'.thisN'
p1811
I222
sS'.thisIndex'
p1812
I0
sg15
(lp1813
S'k'
asg30
g31
sg17
S'Y'
sg14
I5
sg19
(lp1814
S'space'
p1815
asg95
I0
sa(dp1816
g16
(lp1817
S'd'
asg18
S'Y'
sS'.thisRepN'
p1818
I20
sg20
S'N'
sg32
g33
sS'.thisTrialN'
p1819
I3
sS'.thisN'
p1820
I223
sS'.thisIndex'
p1821
I0
sg15
(lp1822
S'd'
asg30
g31
sg17
S'Y'
sg14
I5
sg19
Nsg95
I0
sa(dp1823
g16
(lp1824
S'd'
asg18
S'N'
sS'.thisRepN'
p1825
I20
sg20
S'Y'
sg32
g33
sS'.thisTrialN'
p1826
I4
sS'.thisN'
p1827
I224
sS'.thisIndex'
p1828
I1
sg15
(lp1829
S'd'
asg30
g31
sg17
S'Y'
sg14
I5
sg19
Nsg95
I1
sa(dp1830
g16
(lp1831
S'd'
asg18
S'N'
sS'.thisRepN'
p1832
I20
sg20
S'Y'
sg32
g33
sS'.thisTrialN'
p1833
I5
sS'.thisN'
p1834
I225
sS'.thisIndex'
p1835
I5
sg15
(lp1836
S'd'
asg30
g31
sg17
S'Y'
sg14
I5
sg19
Nsg95
I5
sa(dp1837
g16
(lp1838
S'k'
asg18
S'N'
sS'.thisRepN'
p1839
I20
sg20
S'Y'
sg32
g33
sS'.thisTrialN'
p1840
I6
sS'.thisN'
p1841
I226
sS'.thisIndex'
p1842
I5
sg15
(lp1843
S'k'
asg30
g31
sg17
S'Y'
sg14
I5
sg19
Nsg95
I5
sa(dp1844
g16
(lp1845
S'd'
asg18
S'Y'
sS'.thisRepN'
p1846
I20
sg20
S'Y'
sg32
g33
sS'.thisTrialN'
p1847
I7
sS'.thisN'
p1848
I227
sS'.thisIndex'
p1849
I7
sg15
(lp1850
S'd'
asg30
g31
sg17
S'Y'
sg14
I5
sg19
(lp1851
S'space'
p1852
asg95
I7
sa(dp1853
g16
(lp1854
S'd'
asg18
S'N'
sS'.thisRepN'
p1855
I20
sg20
S'Y'
sg32
g33
sS'.thisTrialN'
p1856
I8
sS'.thisN'
p1857
I228
sS'.thisIndex'
p1858
I2
sg15
(lp1859
S'd'
asg30
g31
sg17
S'Y'
sg14
I5
sg19
Nsg95
I2
sa(dp1860
g16
(lp1861
S'd'
asg18
S'N'
sS'.thisRepN'
p1862
I20
sg20
S'Y'
sg32
g33
sS'.thisTrialN'
p1863
I9
sS'.thisN'
p1864
I229
sS'.thisIndex'
p1865
I8
sg15
(lp1866
S'd'
asg30
g31
sg17
S'Y'
sg14
I5
sg19
Nsg95
I8
sa(dp1867
g16
(lp1868
S'k'
asg18
S'Y'
sS'.thisRepN'
p1869
I20
sg20
S'Y'
sg32
g33
sS'.thisTrialN'
p1870
I10
sS'.thisN'
p1871
I230
sS'.thisIndex'
p1872
I6
sg15
(lp1873
S'k'
asg30
g31
sg17
S'Y'
sg14
I5
sg19
(lp1874
S'space'
p1875
asg95
I6
sa(dp1876
g16
(lp1877
S'd'
asg18
S'N'
sS'.thisRepN'
p1878
I21
sg20
S'Y'
sg32
g33
sS'.thisTrialN'
p1879
I0
sS'.thisN'
p1880
I231
sS'.thisIndex'
p1881
I1
sg15
(lp1882
S'd'
asg30
g31
sg17
S'Y'
sg14
I5
sg19
Nsg95
I1
sa(dp1883
g16
(lp1884
S'd'
asg18
S'Y'
sS'.thisRepN'
p1885
I21
sg20
S'Y'
sg32
g33
sS'.thisTrialN'
p1886
I1
sS'.thisN'
p1887
I232
sS'.thisIndex'
p1888
I0
sg15
(lp1889
S'd'
asg30
g31
sg17
S'Y'
sg14
I5
sg19
(lp1890
S'space'
p1891
asg95
I0
sa(dp1892
g16
(lp1893
S'k'
asg18
S'Y'
sS'.thisRepN'
p1894
I21
sg20
S'Y'
sg32
g33
sS'.thisTrialN'
p1895
I2
sS'.thisN'
p1896
I233
sS'.thisIndex'
p1897
I4
sg15
(lp1898
S'd'
asg30
g31
sg17
S'N'
sg14
I5
sg19
(lp1899
S'space'
p1900
asg95
I4
sa(dp1901
g16
(lp1902
S'k'
asg18
S'Y'
sS'.thisRepN'
p1903
I21
sg20
S'Y'
sg32
g33
sS'.thisTrialN'
p1904
I3
sS'.thisN'
p1905
I234
sS'.thisIndex'
p1906
I8
sg15
(lp1907
S'k'
asg30
g31
sg17
S'Y'
sg14
I5
sg19
(lp1908
S'space'
p1909
asg95
I8
sa(dp1910
g16
(lp1911
S'k'
asg18
S'N'
sS'.thisRepN'
p1912
I21
sg20
S'Y'
sg32
g33
sS'.thisTrialN'
p1913
I4
sS'.thisN'
p1914
I235
sS'.thisIndex'
p1915
I10
sg15
(lp1916
S'k'
asg30
g31
sg17
S'Y'
sg14
I5
sg19
Nsg95
I10
sa(dp1917
g16
(lp1918
S'k'
asg18
S'N'
sS'.thisRepN'
p1919
I21
sg20
S'Y'
sg32
g33
sS'.thisTrialN'
p1920
I5
sS'.thisN'
p1921
I236
sS'.thisIndex'
p1922
I8
sg15
(lp1923
S'k'
asg30
g31
sg17
S'Y'
sg14
I5
sg19
Nsg95
I8
sa(dp1924
g16
(lp1925
S'k'
asg18
S'N'
sS'.thisRepN'
p1926
I21
sg20
S'Y'
sg32
g33
sS'.thisTrialN'
p1927
I6
sS'.thisN'
p1928
I237
sS'.thisIndex'
p1929
I9
sg15
(lp1930
S'k'
asg30
g31
sg17
S'Y'
sg14
I5
sg19
Nsg95
I9
sa(dp1931
g16
(lp1932
S'k'
asg18
S'N'
sS'.thisRepN'
p1933
I21
sg20
S'Y'
sg32
g33
sS'.thisTrialN'
p1934
I7
sS'.thisN'
p1935
I238
sS'.thisIndex'
p1936
I7
sg15
(lp1937
S'k'
asg30
g31
sg17
S'Y'
sg14
I5
sg19
Nsg95
I7
sa(dp1938
g16
(lp1939
S'd'
asg18
S'Y'
sS'.thisRepN'
p1940
I21
sg20
S'Y'
sg32
g33
sS'.thisTrialN'
p1941
I8
sS'.thisN'
p1942
I239
sS'.thisIndex'
p1943
I5
sg15
(lp1944
S'd'
asg30
g31
sg17
S'Y'
sg14
I5
sg19
(lp1945
S'space'
p1946
asg95
I5
sa(dp1947
g16
(lp1948
S'k'
asg18
S'Y'
sS'.thisRepN'
p1949
I21
sg20
S'Y'
sg32
g33
sS'.thisTrialN'
p1950
I9
sS'.thisN'
p1951
I240
sS'.thisIndex'
p1952
I6
sg15
(lp1953
S'k'
asg30
g31
sg17
S'Y'
sg14
I5
sg19
(lp1954
S'space'
p1955
asg95
I6
sa(dp1956
g16
(lp1957
S'k'
asg18
S'N'
sS'.thisRepN'
p1958
I21
sg20
S'Y'
sg32
g33
sS'.thisTrialN'
p1959
I10
sS'.thisN'
p1960
I241
sS'.thisIndex'
p1961
I4
sg15
(lp1962
S'k'
asg30
g31
sg17
S'Y'
sg14
I5
sg19
Nsg95
I4
sa(dp1963
g16
(lp1964
S'd'
asg18
S'Y'
sS'.thisRepN'
p1965
I22
sg20
S'Y'
sg32
g33
sS'.thisTrialN'
p1966
I0
sS'.thisN'
p1967
I242
sS'.thisIndex'
p1968
I2
sg15
(lp1969
S'd'
asg30
g31
sg17
S'Y'
sg14
I5
sg19
(lp1970
S'space'
p1971
asg95
I2
sa(dp1972
g16
(lp1973
S'k'
asg18
S'Y'
sS'.thisRepN'
p1974
I22
sg20
S'Y'
sg32
g33
sS'.thisTrialN'
p1975
I1
sS'.thisN'
p1976
I243
sS'.thisIndex'
p1977
I0
sg15
(lp1978
S'k'
asg30
g31
sg17
S'Y'
sg14
I5
sg19
(lp1979
S'space'
p1980
asg95
I0
sa(dp1981
g16
(lp1982
S'k'
asg18
S'N'
sS'.thisRepN'
p1983
I22
sg20
S'Y'
sg32
g33
sS'.thisTrialN'
p1984
I2
sS'.thisN'
p1985
I244
sS'.thisIndex'
p1986
I10
sg15
(lp1987
S'k'
asg30
g31
sg17
S'Y'
sg14
I5
sg19
Nsg95
I10
sa(dp1988
g16
(lp1989
S'k'
asg18
S'N'
sS'.thisRepN'
p1990
I22
sg20
S'Y'
sg32
g33
sS'.thisTrialN'
p1991
I3
sS'.thisN'
p1992
I245
sS'.thisIndex'
p1993
I10
sg15
(lp1994
S'k'
asg30
g31
sg17
S'Y'
sg14
I5
sg19
Nsg95
I10
sa(dp1995
g16
(lp1996
S'd'
asg18
S'N'
sS'.thisRepN'
p1997
I22
sg20
S'Y'
sg32
g33
sS'.thisTrialN'
p1998
I4
sS'.thisN'
p1999
I246
sS'.thisIndex'
p2000
I9
sg15
(lp2001
S'd'
asg30
g31
sg17
S'Y'
sg14
I5
sg19
Nsg95
I9
sa(dp2002
g18
S'N'
sS'.thisRepN'
p2003
I22
sg20
S'Y'
sg32
g33
sS'.thisTrialN'
p2004
I5
sS'.thisN'
p2005
I247
sS'.thisIndex'
p2006
I4
sg15
Nsg30
g31
sg17
S'Timed out'
p2007
sg14
I5
sg19
Nsg95
I4
sa(dp2008
g16
(lp2009
S'd'
asg18
S'N'
sS'.thisRepN'
p2010
I22
sg20
S'Y'
sg32
g33
sS'.thisTrialN'
p2011
I6
sS'.thisN'
p2012
I248
sS'.thisIndex'
p2013
I1
sg15
(lp2014
S'd'
asg30
g31
sg17
S'Y'
sg14
I5
sg19
Nsg95
I1
sa(dp2015
g16
(lp2016
S'k'
asg18
S'Y'
sg22
I44
sS'.thisN'
p2017
I249
sg20
S'N'
sg32
g33
sS'.thisTrialN'
p2018
I7
sS'.thisRepN'
p2019
I22
sg21
I47
sS'.thisIndex'
p2020
I4
sg23
I24
sg15
(lp2021
S'k'
asg30
g31
sg17
S'Y'
sg14
I5
sg19
Nsg95
I4
sa(dp2022
g95
I4
sS'.thisN'
p2023
I250
sg30
g31
sg32
g33
sS'.thisTrialN'
p2024
I8
sS'.thisRepN'
p2025
I22
sS'.thisIndex'
p2026
I4
sg15
Nsg17
g2007
sg14
I6
sa(dp2027
g95
I5
sS'.thisN'
p2028
I251
sg30
g31
sg32
g33
sS'.thisTrialN'
p2029
I9
sS'.thisRepN'
p2030
I22
sS'.thisIndex'
p2031
I5
sg15
Nsg17
g2007
sg14
I6
sa(dp2032
g16
(lp2033
S'k'
asg18
S'N'
sS'.thisRepN'
p2034
I22
sg20
S'Y'
sg32
g33
sS'.thisTrialN'
p2035
I10
sS'.thisN'
p2036
I252
sS'.thisIndex'
p2037
I3
sg15
(lp2038
S'k'
asg30
g31
sg17
S'Y'
sg14
I6
sg19
Nsg95
I3
sa(dp2039
g16
(lp2040
S'd'
asg18
S'N'
sS'.thisRepN'
p2041
I23
sg20
S'Y'
sg32
g33
sS'.thisTrialN'
p2042
I0
sS'.thisN'
p2043
I253
sS'.thisIndex'
p2044
I7
sg15
(lp2045
S'd'
asg30
g31
sg17
S'Y'
sg14
I6
sg19
Nsg95
I7
sa(dp2046
g16
(lp2047
S'k'
asg18
S'N'
sS'.thisRepN'
p2048
I23
sg20
S'Y'
sg32
g33
sS'.thisTrialN'
p2049
I1
sS'.thisN'
p2050
I254
sS'.thisIndex'
p2051
I9
sg15
(lp2052
S'k'
asg30
g31
sg17
S'Y'
sg14
I6
sg19
Nsg95
I9
sa(dp2053
g16
(lp2054
S'd'
asg18
S'N'
sS'.thisRepN'
p2055
I23
sg20
S'Y'
sg32
g33
sS'.thisTrialN'
p2056
I2
sS'.thisN'
p2057
I255
sS'.thisIndex'
p2058
I3
sg15
(lp2059
S'd'
asg30
g31
sg17
S'Y'
sg14
I6
sg19
Nsg95
I3
sa(dp2060
g16
(lp2061
S'd'
asg18
S'N'
sS'.thisRepN'
p2062
I23
sg20
S'Y'
sg32
g33
sS'.thisTrialN'
p2063
I3
sS'.thisN'
p2064
I256
sS'.thisIndex'
p2065
I3
sg15
(lp2066
S'd'
asg30
g31
sg17
S'Y'
sg14
I6
sg19
Nsg95
I3
sa(dp2067
g16
(lp2068
S'k'
asg18
S'Y'
sS'.thisRepN'
p2069
I23
sg20
S'Y'
sg32
g33
sS'.thisTrialN'
p2070
I4
sS'.thisN'
p2071
I257
sS'.thisIndex'
p2072
I4
sg15
(lp2073
S'k'
asg30
g31
sg17
S'Y'
sg14
I6
sg19
(lp2074
S'space'
p2075
asg95
I4
sa(dp2076
g16
(lp2077
S'k'
asg18
S'N'
sS'.thisRepN'
p2078
I23
sg20
S'Y'
sg32
g33
sS'.thisTrialN'
p2079
I5
sS'.thisN'
p2080
I258
sS'.thisIndex'
p2081
I1
sg15
(lp2082
S'k'
asg30
g31
sg17
S'Y'
sg14
I6
sg19
Nsg95
I1
sa(dp2083
g16
(lp2084
S'd'
asg18
S'N'
sS'.thisRepN'
p2085
I23
sg20
S'Y'
sg32
g33
sS'.thisTrialN'
p2086
I6
sS'.thisN'
p2087
I259
sS'.thisIndex'
p2088
I0
sg15
(lp2089
S'd'
asg30
g31
sg17
S'Y'
sg14
I6
sg19
Nsg95
I0
sa(dp2090
g16
(lp2091
S'k'
asg18
S'N'
sS'.thisRepN'
p2092
I23
sg20
S'Y'
sg32
g33
sS'.thisTrialN'
p2093
I7
sS'.thisN'
p2094
I260
sS'.thisIndex'
p2095
I3
sg15
(lp2096
S'k'
asg30
g31
sg17
S'Y'
sg14
I6
sg19
Nsg95
I3
sa(dp2097
g16
(lp2098
S'k'
asg18
S'Y'
sS'.thisRepN'
p2099
I23
sg20
S'Y'
sg32
g33
sS'.thisTrialN'
p2100
I8
sS'.thisN'
p2101
I261
sS'.thisIndex'
p2102
I10
sg15
(lp2103
S'k'
asg30
g31
sg17
S'Y'
sg14
I6
sg19
(lp2104
S'space'
p2105
asg95
I10
sa(dp2106
g16
(lp2107
S'k'
asg18
S'N'
sS'.thisRepN'
p2108
I23
sg20
S'Y'
sg32
g33
sS'.thisTrialN'
p2109
I9
sS'.thisN'
p2110
I262
sS'.thisIndex'
p2111
I0
sg15
(lp2112
S'k'
asg30
g31
sg17
S'Y'
sg14
I6
sg19
Nsg95
I0
sa(dp2113
g16
(lp2114
S'k'
asg18
S'Y'
sS'.thisRepN'
p2115
I23
sg20
S'Y'
sg32
g33
sS'.thisTrialN'
p2116
I10
sS'.thisN'
p2117
I263
sS'.thisIndex'
p2118
I10
sg15
(lp2119
S'k'
asg30
g31
sg17
S'Y'
sg14
I6
sg19
(lp2120
S'space'
p2121
asg95
I10
sa(dp2122
g16
(lp2123
S'd'
asg18
S'Y'
sS'.thisRepN'
p2124
I24
sg20
S'Y'
sg32
g33
sS'.thisTrialN'
p2125
I0
sS'.thisN'
p2126
I264
sS'.thisIndex'
p2127
I8
sg15
(lp2128
S'd'
asg30
g31
sg17
S'Y'
sg14
I6
sg19
(lp2129
S'space'
p2130
asg95
I8
sa(dp2131
g16
(lp2132
S'k'
asg18
S'N'
sS'.thisRepN'
p2133
I24
sg20
S'Y'
sg32
g33
sS'.thisTrialN'
p2134
I1
sS'.thisN'
p2135
I265
sS'.thisIndex'
p2136
I9
sg15
(lp2137
S'k'
asg30
g31
sg17
S'Y'
sg14
I6
sg19
Nsg95
I9
sa(dp2138
g16
(lp2139
S'k'
asg18
S'N'
sS'.thisRepN'
p2140
I24
sg20
S'Y'
sg32
g33
sS'.thisTrialN'
p2141
I2
sS'.thisN'
p2142
I266
sS'.thisIndex'
p2143
I2
sg15
(lp2144
S'k'
asg30
g31
sg17
S'Y'
sg14
I6
sg19
Nsg95
I2
sa(dp2145
g16
(lp2146
S'd'
asg18
S'N'
sS'.thisRepN'
p2147
I24
sg20
S'Y'
sg32
g33
sS'.thisTrialN'
p2148
I3
sS'.thisN'
p2149
I267
sS'.thisIndex'
p2150
I7
sg15
(lp2151
S'd'
asg30
g31
sg17
S'Y'
sg14
I6
sg19
Nsg95
I7
sa(dp2152
g16
(lp2153
S'd'
asg18
S'Y'
sS'.thisRepN'
p2154
I24
sg20
S'Y'
sg32
g33
sS'.thisTrialN'
p2155
I4
sS'.thisN'
p2156
I268
sS'.thisIndex'
p2157
I2
sg15
(lp2158
S'd'
asg30
g31
sg17
S'Y'
sg14
I6
sg19
(lp2159
S'space'
p2160
asg95
I2
sa(dp2161
g16
(lp2162
S'd'
asg18
S'N'
sS'.thisRepN'
p2163
I24
sg20
S'Y'
sg32
g33
sS'.thisTrialN'
p2164
I5
sS'.thisN'
p2165
I269
sS'.thisIndex'
p2166
I3
sg15
(lp2167
S'd'
asg30
g31
sg17
S'Y'
sg14
I6
sg19
Nsg95
I3
sa(dp2168
g16
(lp2169
S'd'
asg18
S'N'
sS'.thisRepN'
p2170
I24
sg20
S'Y'
sg32
g33
sS'.thisTrialN'
p2171
I6
sS'.thisN'
p2172
I270
sS'.thisIndex'
p2173
I5
sg15
(lp2174
S'd'
asg30
g31
sg17
S'Y'
sg14
I6
sg19
Nsg95
I5
sa(dp2175
g16
(lp2176
S'd'
asg18
S'N'
sS'.thisRepN'
p2177
I24
sg20
S'Y'
sg32
g33
sS'.thisTrialN'
p2178
I7
sS'.thisN'
p2179
I271
sS'.thisIndex'
p2180
I3
sg15
(lp2181
S'd'
asg30
g31
sg17
S'Y'
sg14
I6
sg19
Nsg95
I3
sa(dp2182
g16
(lp2183
S'k'
asg18
S'Y'
sS'.thisRepN'
p2184
I24
sg20
S'Y'
sg32
g33
sS'.thisTrialN'
p2185
I8
sS'.thisN'
p2186
I272
sS'.thisIndex'
p2187
I3
sg15
(lp2188
S'k'
asg30
g31
sg17
S'Y'
sg14
I6
sg19
(lp2189
S'space'
p2190
asg95
I3
sa(dp2191
g16
(lp2192
S'd'
asg18
S'N'
sS'.thisRepN'
p2193
I24
sg20
S'Y'
sg32
g33
sS'.thisTrialN'
p2194
I9
sS'.thisN'
p2195
I273
sS'.thisIndex'
p2196
I1
sg15
(lp2197
S'd'
asg30
g31
sg17
S'Y'
sg14
I6
sg19
Nsg95
I1
sa(dp2198
g16
(lp2199
S'd'
asg18
S'Y'
sS'.thisRepN'
p2200
I24
sg20
S'Y'
sg32
g33
sS'.thisTrialN'
p2201
I10
sS'.thisN'
p2202
I274
sS'.thisIndex'
p2203
I6
sg15
(lp2204
S'd'
asg30
g31
sg17
S'Y'
sg14
I6
sg19
(lp2205
S'space'
p2206
asg95
I6
sa(dp2207
g16
(lp2208
S'k'
asg18
S'Y'
sS'.thisRepN'
p2209
I25
sg20
S'Y'
sg32
g33
sS'.thisTrialN'
p2210
I0
sS'.thisN'
p2211
I275
sS'.thisIndex'
p2212
I0
sg15
(lp2213
S'k'
asg30
g31
sg17
S'Y'
sg14
I6
sg19
(lp2214
S'space'
p2215
asg95
I0
sa(dp2216
g16
(lp2217
S'd'
asg18
S'N'
sS'.thisRepN'
p2218
I25
sg20
S'Y'
sg32
g33
sS'.thisTrialN'
p2219
I1
sS'.thisN'
p2220
I276
sS'.thisIndex'
p2221
I9
sg15
(lp2222
S'd'
asg30
g31
sg17
S'Y'
sg14
I6
sg19
Nsg95
I9
sa(dp2223
g16
(lp2224
S'k'
asg18
S'N'
sS'.thisRepN'
p2225
I25
sg20
S'Y'
sg32
g33
sS'.thisTrialN'
p2226
I2
sS'.thisN'
p2227
I277
sS'.thisIndex'
p2228
I7
sg15
(lp2229
S'k'
asg30
g31
sg17
S'Y'
sg14
I6
sg19
Nsg95
I7
sa(dp2230
g16
(lp2231
S'd'
asg18
S'Y'
sS'.thisRepN'
p2232
I25
sg20
S'Y'
sg32
g33
sS'.thisTrialN'
p2233
I3
sS'.thisN'
p2234
I278
sS'.thisIndex'
p2235
I7
sg15
(lp2236
S'd'
asg30
g31
sg17
S'Y'
sg14
I6
sg19
(lp2237
S'space'
p2238
asg95
I7
sa(dp2239
g16
(lp2240
S'k'
asg18
S'N'
sS'.thisRepN'
p2241
I25
sg20
S'Y'
sg32
g33
sS'.thisTrialN'
p2242
I4
sS'.thisN'
p2243
I279
sS'.thisIndex'
p2244
I4
sg15
(lp2245
S'd'
asg30
g31
sg17
S'N'
sg14
I6
sg19
Nsg95
I4
sa(dp2246
g16
(lp2247
S'k'
asg18
S'N'
sS'.thisRepN'
p2248
I25
sg20
S'Y'
sg32
g33
sS'.thisTrialN'
p2249
I5
sS'.thisN'
p2250
I280
sS'.thisIndex'
p2251
I10
sg15
(lp2252
S'k'
asg30
g31
sg17
S'Y'
sg14
I6
sg19
Nsg95
I10
sa(dp2253
g16
(lp2254
S'k'
asg18
S'N'
sS'.thisRepN'
p2255
I25
sg20
S'Y'
sg32
g33
sS'.thisTrialN'
p2256
I6
sS'.thisN'
p2257
I281
sS'.thisIndex'
p2258
I6
sg15
(lp2259
S'k'
asg30
g31
sg17
S'Y'
sg14
I6
sg19
Nsg95
I6
sa(dp2260
g16
(lp2261
S'k'
asg18
S'Y'
sS'.thisRepN'
p2262
I25
sg20
S'Y'
sg32
g33
sS'.thisTrialN'
p2263
I7
sS'.thisN'
p2264
I282
sS'.thisIndex'
p2265
I0
sg15
(lp2266
S'k'
asg30
g31
sg17
S'Y'
sg14
I6
sg19
(lp2267
S'space'
p2268
asg95
I0
sa(dp2269
g16
(lp2270
S'k'
asg18
S'Y'
sS'.thisRepN'
p2271
I25
sg20
S'Y'
sg32
g33
sS'.thisTrialN'
p2272
I8
sS'.thisN'
p2273
I283
sS'.thisIndex'
p2274
I8
sg15
(lp2275
S'k'
asg30
g31
sg17
S'Y'
sg14
I6
sg19
(lp2276
S'space'
p2277
asg95
I8
sa(dp2278
g16
(lp2279
S'k'
asg18
S'N'
sS'.thisRepN'
p2280
I25
sg20
S'Y'
sg32
g33
sS'.thisTrialN'
p2281
I9
sS'.thisN'
p2282
I284
sS'.thisIndex'
p2283
I7
sg15
(lp2284
S'k'
asg30
g31
sg17
S'Y'
sg14
I6
sg19
Nsg95
I7
sa(dp2285
g16
(lp2286
S'd'
asg18
S'Y'
sS'.thisRepN'
p2287
I25
sg20
S'Y'
sg32
g33
sS'.thisTrialN'
p2288
I10
sS'.thisN'
p2289
I285
sS'.thisIndex'
p2290
I6
sg15
(lp2291
S'd'
asg30
g31
sg17
S'Y'
sg14
I6
sg19
(lp2292
S'space'
p2293
asg95
I6
sa(dp2294
g16
(lp2295
S'd'
asg18
S'Y'
sS'.thisRepN'
p2296
I26
sg20
S'Y'
sg32
g33
sS'.thisTrialN'
p2297
I0
sS'.thisN'
p2298
I286
sS'.thisIndex'
p2299
I7
sg15
(lp2300
S'd'
asg30
g31
sg17
S'Y'
sg14
I6
sg19
(lp2301
S'space'
p2302
asg95
I7
sa(dp2303
g16
(lp2304
S'k'
asg18
S'N'
sS'.thisRepN'
p2305
I26
sg20
S'Y'
sg32
g33
sS'.thisTrialN'
p2306
I1
sS'.thisN'
p2307
I287
sS'.thisIndex'
p2308
I7
sg15
(lp2309
S'k'
asg30
g31
sg17
S'Y'
sg14
I6
sg19
Nsg95
I7
sa(dp2310
g16
(lp2311
S'd'
asg18
S'Y'
sS'.thisRepN'
p2312
I26
sg20
S'Y'
sg32
g33
sS'.thisTrialN'
p2313
I2
sS'.thisN'
p2314
I288
sS'.thisIndex'
p2315
I7
sg15
(lp2316
S'd'
asg30
g31
sg17
S'Y'
sg14
I6
sg19
(lp2317
S'space'
p2318
asg95
I7
sa(dp2319
g16
(lp2320
S'k'
asg18
S'N'
sS'.thisRepN'
p2321
I26
sg20
S'Y'
sg32
g33
sS'.thisTrialN'
p2322
I3
sS'.thisN'
p2323
I289
sS'.thisIndex'
p2324
I9
sg15
(lp2325
S'k'
asg30
g31
sg17
S'Y'
sg14
I6
sg19
Nsg95
I9
sa(dp2326
g16
(lp2327
S'd'
asg18
S'N'
sS'.thisRepN'
p2328
I26
sg20
S'Y'
sg32
g33
sS'.thisTrialN'
p2329
I4
sS'.thisN'
p2330
I290
sS'.thisIndex'
p2331
I10
sg15
(lp2332
S'd'
asg30
g31
sg17
S'Y'
sg14
I6
sg19
Nsg95
I10
sa(dp2333
g16
(lp2334
S'd'
asg18
S'N'
sS'.thisRepN'
p2335
I26
sg20
S'Y'
sg32
g33
sS'.thisTrialN'
p2336
I5
sS'.thisN'
p2337
I291
sS'.thisIndex'
p2338
I6
sg15
(lp2339
S'd'
asg30
g31
sg17
S'Y'
sg14
I6
sg19
Nsg95
I6
sa(dp2340
g16
(lp2341
S'd'
asg18
S'Y'
sS'.thisRepN'
p2342
I26
sg20
S'Y'
sg32
g33
sS'.thisTrialN'
p2343
I6
sS'.thisN'
p2344
I292
sS'.thisIndex'
p2345
I3
sg15
(lp2346
S'd'
asg30
g31
sg17
S'Y'
sg14
I6
sg19
(lp2347
S'space'
p2348
asg95
I3
sa(dp2349
g16
(lp2350
S'd'
asg18
S'N'
sS'.thisRepN'
p2351
I26
sg20
S'Y'
sg32
g33
sS'.thisTrialN'
p2352
I7
sS'.thisN'
p2353
I293
sS'.thisIndex'
p2354
I8
sg15
(lp2355
S'd'
asg30
g31
sg17
S'Y'
sg14
I6
sg19
Nsg95
I8
sa(dp2356
g16
(lp2357
S'k'
asg18
S'Y'
sS'.thisRepN'
p2358
I26
sg20
S'Y'
sg32
g33
sS'.thisTrialN'
p2359
I8
sS'.thisN'
p2360
I294
sS'.thisIndex'
p2361
I3
sg15
(lp2362
S'k'
asg30
g31
sg17
S'Y'
sg14
I6
sg19
(lp2363
S'space'
p2364
asg95
I3
sa(dp2365
g16
(lp2366
S'd'
asg18
S'Y'
sS'.thisRepN'
p2367
I26
sg20
S'Y'
sg32
g33
sS'.thisTrialN'
p2368
I9
sS'.thisN'
p2369
I295
sS'.thisIndex'
p2370
I2
sg15
(lp2371
S'd'
asg30
g31
sg17
S'Y'
sg14
I6
sg19
(lp2372
S'space'
p2373
asg95
I2
sa(dp2374
g16
(lp2375
S'k'
asg18
S'Y'
sS'.thisRepN'
p2376
I26
sg20
S'Y'
sg32
g33
sS'.thisTrialN'
p2377
I10
sS'.thisN'
p2378
I296
sS'.thisIndex'
p2379
I1
sg15
(lp2380
S'k'
asg30
g31
sg17
S'Y'
sg14
I6
sg19
(lp2381
S'space'
p2382
asg95
I1
sa(dp2383
g16
(lp2384
S'k'
asg18
S'N'
sS'.thisRepN'
p2385
I27
sg20
S'Y'
sg32
g33
sS'.thisTrialN'
p2386
I0
sS'.thisN'
p2387
I297
sS'.thisIndex'
p2388
I7
sg15
(lp2389
S'k'
asg30
g31
sg17
S'Y'
sg14
I6
sg19
Nsg95
I7
sa(dp2390
g16
(lp2391
S'd'
asg18
S'Y'
sS'.thisRepN'
p2392
I27
sg20
S'Y'
sg32
g33
sS'.thisTrialN'
p2393
I1
sS'.thisN'
p2394
I298
sS'.thisIndex'
p2395
I10
sg15
(lp2396
S'd'
asg30
g31
sg17
S'Y'
sg14
I6
sg19
(lp2397
S'space'
p2398
asg95
I10
sa(dp2399
g16
(lp2400
S'd'
asg18
S'N'
sg22
I48
sS'.thisN'
p2401
I299
sg20
S'Y'
sg32
g33
sS'.thisTrialN'
p2402
I2
sS'.thisRepN'
p2403
I27
sg21
I47
sS'.thisIndex'
p2404
I1
sg23
I19
sg15
(lp2405
S'd'
asg30
g31
sg17
S'Y'
sg14
I6
sg19
Nsg95
I1
sa(dp2406
g16
(lp2407
S'd'
asg95
I5
sS'.thisRepN'
p2408
I27
sg30
g31
sg32
g33
sS'.thisTrialN'
p2409
I3
sS'.thisN'
p2410
I300
sS'.thisIndex'
p2411
I5
sg15
(lp2412
S'd'
asg17
S'Y'
sg14
I7
sa(dp2413
g16
(lp2414
S'd'
asg95
I8
sS'.thisRepN'
p2415
I27
sg30
g31
sg32
g33
sS'.thisTrialN'
p2416
I4
sS'.thisN'
p2417
I301
sS'.thisIndex'
p2418
I8
sg15
(lp2419
S'd'
asg17
S'Y'
sg14
I7
sa(dp2420
g16
(lp2421
S'k'
asg18
S'Y'
sS'.thisRepN'
p2422
I27
sg20
S'Y'
sg32
g33
sS'.thisTrialN'
p2423
I5
sS'.thisN'
p2424
I302
sS'.thisIndex'
p2425
I10
sg15
(lp2426
S'k'
asg30
g31
sg17
S'Y'
sg14
I7
sg19
(lp2427
S'space'
p2428
asg95
I10
sa(dp2429
g16
(lp2430
S'd'
asg18
S'N'
sS'.thisRepN'
p2431
I27
sg20
S'Y'
sg32
g33
sS'.thisTrialN'
p2432
I6
sS'.thisN'
p2433
I303
sS'.thisIndex'
p2434
I10
sg15
(lp2435
S'd'
asg30
g31
sg17
S'Y'
sg14
I7
sg19
Nsg95
I10
sa(dp2436
g16
(lp2437
S'k'
asg18
S'Y'
sS'.thisRepN'
p2438
I27
sg20
S'Y'
sg32
g33
sS'.thisTrialN'
p2439
I7
sS'.thisN'
p2440
I304
sS'.thisIndex'
p2441
I8
sg15
(lp2442
S'k'
asg30
g31
sg17
S'Y'
sg14
I7
sg19
(lp2443
S'space'
p2444
asg95
I8
sa(dp2445
g16
(lp2446
S'd'
asg18
S'Y'
sS'.thisRepN'
p2447
I27
sg20
S'Y'
sg32
g33
sS'.thisTrialN'
p2448
I8
sS'.thisN'
p2449
I305
sS'.thisIndex'
p2450
I5
sg15
(lp2451
S'd'
asg30
g31
sg17
S'Y'
sg14
I7
sg19
(lp2452
S'space'
p2453
asg95
I5
sa(dp2454
g16
(lp2455
S'd'
asg18
S'N'
sS'.thisRepN'
p2456
I27
sg20
S'Y'
sg32
g33
sS'.thisTrialN'
p2457
I9
sS'.thisN'
p2458
I306
sS'.thisIndex'
p2459
I6
sg15
(lp2460
S'd'
asg30
g31
sg17
S'Y'
sg14
I7
sg19
Nsg95
I6
sa(dp2461
g16
(lp2462
S'k'
asg18
S'Y'
sS'.thisRepN'
p2463
I27
sg20
S'Y'
sg32
g33
sS'.thisTrialN'
p2464
I10
sS'.thisN'
p2465
I307
sS'.thisIndex'
p2466
I10
sg15
(lp2467
S'd'
asg30
g31
sg17
S'N'
sg14
I7
sg19
(lp2468
S'space'
p2469
asg95
I10
sa(dp2470
g16
(lp2471
S'k'
asg18
S'N'
sS'.thisRepN'
p2472
I28
sg20
S'Y'
sg32
g33
sS'.thisTrialN'
p2473
I0
sS'.thisN'
p2474
I308
sS'.thisIndex'
p2475
I8
sg15
(lp2476
S'k'
asg30
g31
sg17
S'Y'
sg14
I7
sg19
Nsg95
I8
sa(dp2477
g16
(lp2478
S'k'
asg18
S'N'
sS'.thisRepN'
p2479
I28
sg20
S'Y'
sg32
g33
sS'.thisTrialN'
p2480
I1
sS'.thisN'
p2481
I309
sS'.thisIndex'
p2482
I8
sg15
(lp2483
S'k'
asg30
g31
sg17
S'Y'
sg14
I7
sg19
Nsg95
I8
sa(dp2484
g16
(lp2485
S'd'
asg18
S'N'
sS'.thisRepN'
p2486
I28
sg20
S'Y'
sg32
g33
sS'.thisTrialN'
p2487
I2
sS'.thisN'
p2488
I310
sS'.thisIndex'
p2489
I7
sg15
(lp2490
S'd'
asg30
g31
sg17
S'Y'
sg14
I7
sg19
Nsg95
I7
sa(dp2491
g16
(lp2492
S'k'
asg18
S'Y'
sS'.thisRepN'
p2493
I28
sg20
S'Y'
sg32
g33
sS'.thisTrialN'
p2494
I3
sS'.thisN'
p2495
I311
sS'.thisIndex'
p2496
I4
sg15
(lp2497
S'k'
asg30
g31
sg17
S'Y'
sg14
I7
sg19
(lp2498
S'space'
p2499
asg95
I4
sa(dp2500
g16
(lp2501
S'd'
asg18
S'N'
sS'.thisRepN'
p2502
I28
sg20
S'Y'
sg32
g33
sS'.thisTrialN'
p2503
I4
sS'.thisN'
p2504
I312
sS'.thisIndex'
p2505
I2
sg15
(lp2506
S'd'
asg30
g31
sg17
S'Y'
sg14
I7
sg19
Nsg95
I2
sa(dp2507
g16
(lp2508
S'k'
asg18
S'N'
sS'.thisRepN'
p2509
I28
sg20
S'Y'
sg32
g33
sS'.thisTrialN'
p2510
I5
sS'.thisN'
p2511
I313
sS'.thisIndex'
p2512
I1
sg15
(lp2513
S'k'
asg30
g31
sg17
S'Y'
sg14
I7
sg19
Nsg95
I1
sa(dp2514
g16
(lp2515
S'd'
asg18
S'Y'
sS'.thisRepN'
p2516
I28
sg20
S'Y'
sg32
g33
sS'.thisTrialN'
p2517
I6
sS'.thisN'
p2518
I314
sS'.thisIndex'
p2519
I0
sg15
(lp2520
S'd'
asg30
g31
sg17
S'Y'
sg14
I7
sg19
(lp2521
S'space'
p2522
asg95
I0
sa(dp2523
g16
(lp2524
S'k'
asg18
S'N'
sS'.thisRepN'
p2525
I28
sg20
S'Y'
sg32
g33
sS'.thisTrialN'
p2526
I7
sS'.thisN'
p2527
I315
sS'.thisIndex'
p2528
I4
sg15
(lp2529
S'k'
asg30
g31
sg17
S'Y'
sg14
I7
sg19
Nsg95
I4
sa(dp2530
g16
(lp2531
S'd'
asg18
S'Y'
sS'.thisRepN'
p2532
I28
sg20
S'Y'
sg32
g33
sS'.thisTrialN'
p2533
I8
sS'.thisN'
p2534
I316
sS'.thisIndex'
p2535
I0
sg15
(lp2536
S'd'
asg30
g31
sg17
S'Y'
sg14
I7
sg19
(lp2537
S'space'
p2538
asg95
I0
sa(dp2539
g16
(lp2540
S'k'
asg18
S'N'
sS'.thisRepN'
p2541
I28
sg20
S'Y'
sg32
g33
sS'.thisTrialN'
p2542
I9
sS'.thisN'
p2543
I317
sS'.thisIndex'
p2544
I9
sg15
(lp2545
S'd'
asg30
g31
sg17
S'N'
sg14
I7
sg19
Nsg95
I9
sa(dp2546
g16
(lp2547
S'd'
asg18
S'N'
sS'.thisRepN'
p2548
I28
sg20
S'Y'
sg32
g33
sS'.thisTrialN'
p2549
I10
sS'.thisN'
p2550
I318
sS'.thisIndex'
p2551
I9
sg15
(lp2552
S'd'
asg30
g31
sg17
S'Y'
sg14
I7
sg19
Nsg95
I9
sa(dp2553
g16
(lp2554
S'd'
asg18
S'Y'
sS'.thisRepN'
p2555
I29
sg20
S'Y'
sg32
g33
sS'.thisTrialN'
p2556
I0
sS'.thisN'
p2557
I319
sS'.thisIndex'
p2558
I10
sg15
(lp2559
S'd'
asg30
g31
sg17
S'Y'
sg14
I7
sg19
(lp2560
S'space'
p2561
asg95
I10
sa(dp2562
g16
(lp2563
S'd'
asg18
S'N'
sS'.thisRepN'
p2564
I29
sg20
S'Y'
sg32
g33
sS'.thisTrialN'
p2565
I1
sS'.thisN'
p2566
I320
sS'.thisIndex'
p2567
I6
sg15
(lp2568
S'd'
asg30
g31
sg17
S'Y'
sg14
I7
sg19
Nsg95
I6
sa(dp2569
g16
(lp2570
S'd'
asg18
S'Y'
sS'.thisRepN'
p2571
I29
sg20
S'Y'
sg32
g33
sS'.thisTrialN'
p2572
I2
sS'.thisN'
p2573
I321
sS'.thisIndex'
p2574
I3
sg15
(lp2575
S'd'
asg30
g31
sg17
S'Y'
sg14
I7
sg19
(lp2576
S'space'
p2577
asg95
I3
sa(dp2578
g16
(lp2579
S'd'
asg18
S'Y'
sS'.thisRepN'
p2580
I29
sg20
S'Y'
sg32
g33
sS'.thisTrialN'
p2581
I3
sS'.thisN'
p2582
I322
sS'.thisIndex'
p2583
I9
sg15
(lp2584
S'd'
asg30
g31
sg17
S'Y'
sg14
I7
sg19
(lp2585
S'space'
p2586
asg95
I9
sa(dp2587
g16
(lp2588
S'k'
asg18
S'Y'
sS'.thisRepN'
p2589
I29
sg20
S'Y'
sg32
g33
sS'.thisTrialN'
p2590
I4
sS'.thisN'
p2591
I323
sS'.thisIndex'
p2592
I1
sg15
(lp2593
S'k'
asg30
g31
sg17
S'Y'
sg14
I7
sg19
(lp2594
S'space'
p2595
asg95
I1
sa(dp2596
g16
(lp2597
S'd'
asg18
S'N'
sS'.thisRepN'
p2598
I29
sg20
S'Y'
sg32
g33
sS'.thisTrialN'
p2599
I5
sS'.thisN'
p2600
I324
sS'.thisIndex'
p2601
I3
sg15
(lp2602
S'd'
asg30
g31
sg17
S'Y'
sg14
I7
sg19
Nsg95
I3
sa(dp2603
g16
(lp2604
S'k'
asg18
S'N'
sS'.thisRepN'
p2605
I29
sg20
S'Y'
sg32
g33
sS'.thisTrialN'
p2606
I6
sS'.thisN'
p2607
I325
sS'.thisIndex'
p2608
I5
sg15
(lp2609
S'k'
asg30
g31
sg17
S'Y'
sg14
I7
sg19
Nsg95
I5
sa(dp2610
g16
(lp2611
S'k'
asg18
S'Y'
sS'.thisRepN'
p2612
I29
sg20
S'Y'
sg32
g33
sS'.thisTrialN'
p2613
I7
sS'.thisN'
p2614
I326
sS'.thisIndex'
p2615
I10
sg15
(lp2616
S'k'
asg30
g31
sg17
S'Y'
sg14
I7
sg19
(lp2617
S'space'
p2618
asg95
I10
sa(dp2619
g16
(lp2620
S'd'
asg18
S'N'
sS'.thisRepN'
p2621
I29
sg20
S'Y'
sg32
g33
sS'.thisTrialN'
p2622
I8
sS'.thisN'
p2623
I327
sS'.thisIndex'
p2624
I6
sg15
(lp2625
S'd'
asg30
g31
sg17
S'Y'
sg14
I7
sg19
Nsg95
I6
sa(dp2626
g16
(lp2627
S'd'
asg18
S'N'
sS'.thisRepN'
p2628
I29
sg20
S'Y'
sg32
g33
sS'.thisTrialN'
p2629
I9
sS'.thisN'
p2630
I328
sS'.thisIndex'
p2631
I7
sg15
(lp2632
S'd'
asg30
g31
sg17
S'Y'
sg14
I7
sg19
Nsg95
I7
sa(dp2633
g16
(lp2634
S'd'
asg18
S'N'
sS'.thisRepN'
p2635
I29
sg20
S'Y'
sg32
g33
sS'.thisTrialN'
p2636
I10
sS'.thisN'
p2637
I329
sS'.thisIndex'
p2638
I2
sg15
(lp2639
S'd'
asg30
g31
sg17
S'Y'
sg14
I7
sg19
Nsg95
I2
sa(dp2640
g16
(lp2641
S'k'
asg18
S'Y'
sS'.thisRepN'
p2642
I30
sg20
S'Y'
sg32
g33
sS'.thisTrialN'
p2643
I0
sS'.thisN'
p2644
I330
sS'.thisIndex'
p2645
I9
sg15
(lp2646
S'k'
asg30
g31
sg17
S'Y'
sg14
I7
sg19
(lp2647
S'space'
p2648
asg95
I9
sa(dp2649
g16
(lp2650
S'k'
asg18
S'Y'
sS'.thisRepN'
p2651
I30
sg20
S'Y'
sg32
g33
sS'.thisTrialN'
p2652
I1
sS'.thisN'
p2653
I331
sS'.thisIndex'
p2654
I0
sg15
(lp2655
S'k'
asg30
g31
sg17
S'Y'
sg14
I7
sg19
(lp2656
S'space'
p2657
asg95
I0
sa(dp2658
g16
(lp2659
S'd'
asg18
S'N'
sS'.thisRepN'
p2660
I30
sg20
S'Y'
sg32
g33
sS'.thisTrialN'
p2661
I2
sS'.thisN'
p2662
I332
sS'.thisIndex'
p2663
I2
sg15
(lp2664
S'd'
asg30
g31
sg17
S'Y'
sg14
I7
sg19
Nsg95
I2
sa(dp2665
g16
(lp2666
S'd'
asg18
S'Y'
sS'.thisRepN'
p2667
I30
sg20
S'Y'
sg32
g33
sS'.thisTrialN'
p2668
I3
sS'.thisN'
p2669
I333
sS'.thisIndex'
p2670
I8
sg15
(lp2671
S'd'
asg30
g31
sg17
S'Y'
sg14
I7
sg19
(lp2672
S'space'
p2673
asg95
I8
sa(dp2674
g16
(lp2675
S'd'
asg18
S'N'
sS'.thisRepN'
p2676
I30
sg20
S'Y'
sg32
g33
sS'.thisTrialN'
p2677
I4
sS'.thisN'
p2678
I334
sS'.thisIndex'
p2679
I0
sg15
(lp2680
S'd'
asg30
g31
sg17
S'Y'
sg14
I7
sg19
Nsg95
I0
sa(dp2681
g16
(lp2682
S'k'
asg18
S'Y'
sS'.thisRepN'
p2683
I30
sg20
S'Y'
sg32
g33
sS'.thisTrialN'
p2684
I5
sS'.thisN'
p2685
I335
sS'.thisIndex'
p2686
I4
sg15
(lp2687
S'k'
asg30
g31
sg17
S'Y'
sg14
I7
sg19
(lp2688
S'space'
p2689
asg95
I4
sa(dp2690
g16
(lp2691
S'd'
asg18
S'Y'
sS'.thisRepN'
p2692
I30
sg20
S'Y'
sg32
g33
sS'.thisTrialN'
p2693
I6
sS'.thisN'
p2694
I336
sS'.thisIndex'
p2695
I4
sg15
(lp2696
S'd'
asg30
g31
sg17
S'Y'
sg14
I7
sg19
(lp2697
S'space'
p2698
asg95
I4
sa(dp2699
g16
(lp2700
S'k'
asg18
S'N'
sS'.thisRepN'
p2701
I30
sg20
S'Y'
sg32
g33
sS'.thisTrialN'
p2702
I7
sS'.thisN'
p2703
I337
sS'.thisIndex'
p2704
I4
sg15
(lp2705
S'k'
asg30
g31
sg17
S'Y'
sg14
I7
sg19
Nsg95
I4
sa(dp2706
g16
(lp2707
S'd'
asg18
S'N'
sS'.thisRepN'
p2708
I30
sg20
S'Y'
sg32
g33
sS'.thisTrialN'
p2709
I8
sS'.thisN'
p2710
I338
sS'.thisIndex'
p2711
I1
sg15
(lp2712
S'd'
asg30
g31
sg17
S'Y'
sg14
I7
sg19
Nsg95
I1
sa(dp2713
g16
(lp2714
S'k'
asg18
S'Y'
sS'.thisRepN'
p2715
I30
sg20
S'Y'
sg32
g33
sS'.thisTrialN'
p2716
I9
sS'.thisN'
p2717
I339
sS'.thisIndex'
p2718
I7
sg15
(lp2719
S'k'
asg30
g31
sg17
S'Y'
sg14
I7
sg19
(lp2720
S'space'
p2721
asg95
I7
sa(dp2722
g16
(lp2723
S'k'
asg18
S'Y'
sS'.thisRepN'
p2724
I30
sg20
S'N'
sg32
g33
sS'.thisTrialN'
p2725
I10
sS'.thisN'
p2726
I340
sS'.thisIndex'
p2727
I10
sg15
(lp2728
S'k'
asg30
g31
sg17
S'Y'
sg14
I7
sg19
Nsg95
I10
sa(dp2729
g16
(lp2730
S'k'
asg18
S'N'
sS'.thisRepN'
p2731
I31
sg20
S'Y'
sg32
g33
sS'.thisTrialN'
p2732
I0
sS'.thisN'
p2733
I341
sS'.thisIndex'
p2734
I10
sg15
(lp2735
S'd'
asg30
g31
sg17
S'N'
sg14
I7
sg19
Nsg95
I10
sa(dp2736
g16
(lp2737
S'k'
asg18
S'Y'
sS'.thisRepN'
p2738
I31
sg20
S'N'
sg32
g33
sS'.thisTrialN'
p2739
I1
sS'.thisN'
p2740
I342
sS'.thisIndex'
p2741
I2
sg15
(lp2742
S'd'
asg30
g31
sg17
S'N'
sg14
I7
sg19
Nsg95
I2
sa(dp2743
g16
(lp2744
S'd'
asg18
S'N'
sS'.thisRepN'
p2745
I31
sg20
S'Y'
sg32
g33
sS'.thisTrialN'
p2746
I2
sS'.thisN'
p2747
I343
sS'.thisIndex'
p2748
I2
sg15
(lp2749
S'd'
asg30
g31
sg17
S'Y'
sg14
I7
sg19
Nsg95
I2
sa(dp2750
g16
(lp2751
S'k'
asg18
S'N'
sS'.thisRepN'
p2752
I31
sg20
S'Y'
sg32
g33
sS'.thisTrialN'
p2753
I3
sS'.thisN'
p2754
I344
sS'.thisIndex'
p2755
I10
sg15
(lp2756
S'k'
asg30
g31
sg17
S'Y'
sg14
I7
sg19
Nsg95
I10
sa(dp2757
g16
(lp2758
S'd'
asg18
S'N'
sS'.thisRepN'
p2759
I31
sg20
S'Y'
sg32
g33
sS'.thisTrialN'
p2760
I4
sS'.thisN'
p2761
I345
sS'.thisIndex'
p2762
I2
sg15
(lp2763
S'd'
asg30
g31
sg17
S'Y'
sg14
I7
sg19
Nsg95
I2
sa(dp2764
g16
(lp2765
S'd'
asg18
S'Y'
sS'.thisRepN'
p2766
I31
sg20
S'Y'
sg32
g33
sS'.thisTrialN'
p2767
I5
sS'.thisN'
p2768
I346
sS'.thisIndex'
p2769
I10
sg15
(lp2770
S'd'
asg30
g31
sg17
S'Y'
sg14
I7
sg19
(lp2771
S'space'
p2772
asg95
I10
sa(dp2773
g16
(lp2774
S'd'
asg18
S'N'
sS'.thisRepN'
p2775
I31
sg20
S'Y'
sg32
g33
sS'.thisTrialN'
p2776
I6
sS'.thisN'
p2777
I347
sS'.thisIndex'
p2778
I8
sg15
(lp2779
S'd'
asg30
g31
sg17
S'Y'
sg14
I7
sg19
Nsg95
I8
sa(dp2780
g16
(lp2781
S'd'
asg18
S'Y'
sS'.thisRepN'
p2782
I31
sg20
S'Y'
sg32
g33
sS'.thisTrialN'
p2783
I7
sS'.thisN'
p2784
I348
sS'.thisIndex'
p2785
I4
sg15
(lp2786
S'd'
asg30
g31
sg17
S'Y'
sg14
I7
sg19
(lp2787
S'space'
p2788
asg95
I4
sa(dp2789
g16
(lp2790
S'd'
asg18
S'N'
sg22
I46
sS'.thisN'
p2791
I349
sg20
S'Y'
sg32
g33
sS'.thisTrialN'
p2792
I8
sS'.thisRepN'
p2793
I31
sg21
I46
sS'.thisIndex'
p2794
I4
sg23
I22
sg15
(lp2795
S'd'
asg30
g31
sg17
S'Y'
sg14
I7
sg19
Nsg95
I4
sa(dp2796
g16
(lp2797
S'k'
asg95
I2
sS'.thisRepN'
p2798
I31
sg30
g31
sg32
g33
sS'.thisTrialN'
p2799
I9
sS'.thisN'
p2800
I350
sS'.thisIndex'
p2801
I2
sg15
(lp2802
S'k'
asg17
S'Y'
sg14
I8
sa(dp2803
g16
(lp2804
S'k'
asg95
I1
sS'.thisRepN'
p2805
I31
sg30
g31
sg32
g33
sS'.thisTrialN'
p2806
I10
sS'.thisN'
p2807
I351
sS'.thisIndex'
p2808
I1
sg15
(lp2809
S'k'
asg17
S'Y'
sg14
I8
sa(dp2810
g16
(lp2811
S'd'
asg18
S'N'
sS'.thisRepN'
p2812
I32
sg20
S'Y'
sg32
g33
sS'.thisTrialN'
p2813
I0
sS'.thisN'
p2814
I352
sS'.thisIndex'
p2815
I7
sg15
(lp2816
S'd'
asg30
g31
sg17
S'Y'
sg14
I8
sg19
Nsg95
I7
sa(dp2817
g16
(lp2818
S'k'
asg18
S'Y'
sS'.thisRepN'
p2819
I32
sg20
S'Y'
sg32
g33
sS'.thisTrialN'
p2820
I1
sS'.thisN'
p2821
I353
sS'.thisIndex'
p2822
I8
sg15
(lp2823
S'k'
asg30
g31
sg17
S'Y'
sg14
I8
sg19
(lp2824
S'space'
p2825
asg95
I8
sa(dp2826
g16
(lp2827
S'd'
asg18
S'Y'
sS'.thisRepN'
p2828
I32
sg20
S'Y'
sg32
g33
sS'.thisTrialN'
p2829
I2
sS'.thisN'
p2830
I354
sS'.thisIndex'
p2831
I7
sg15
(lp2832
S'd'
asg30
g31
sg17
S'Y'
sg14
I8
sg19
(lp2833
S'space'
p2834
asg95
I7
sa(dp2835
g16
(lp2836
S'd'
asg18
S'Y'
sS'.thisRepN'
p2837
I32
sg20
S'Y'
sg32
g33
sS'.thisTrialN'
p2838
I3
sS'.thisN'
p2839
I355
sS'.thisIndex'
p2840
I5
sg15
(lp2841
S'd'
asg30
g31
sg17
S'Y'
sg14
I8
sg19
(lp2842
S'space'
p2843
asg95
I5
sa(dp2844
g16
(lp2845
S'd'
asg18
S'Y'
sS'.thisRepN'
p2846
I32
sg20
S'Y'
sg32
g33
sS'.thisTrialN'
p2847
I4
sS'.thisN'
p2848
I356
sS'.thisIndex'
p2849
I7
sg15
(lp2850
S'd'
asg30
g31
sg17
S'Y'
sg14
I8
sg19
(lp2851
S'space'
p2852
asg95
I7
sa(dp2853
g16
(lp2854
S'k'
asg18
S'Y'
sS'.thisRepN'
p2855
I32
sg20
S'Y'
sg32
g33
sS'.thisTrialN'
p2856
I5
sS'.thisN'
p2857
I357
sS'.thisIndex'
p2858
I7
sg15
(lp2859
S'k'
asg30
g31
sg17
S'Y'
sg14
I8
sg19
(lp2860
S'space'
p2861
asg95
I7
sa(dp2862
g16
(lp2863
S'd'
asg18
S'Y'
sS'.thisRepN'
p2864
I32
sg20
S'Y'
sg32
g33
sS'.thisTrialN'
p2865
I6
sS'.thisN'
p2866
I358
sS'.thisIndex'
p2867
I1
sg15
(lp2868
S'd'
asg30
g31
sg17
S'Y'
sg14
I8
sg19
(lp2869
S'space'
p2870
asg95
I1
sa(dp2871
g16
(lp2872
S'd'
asg18
S'N'
sS'.thisRepN'
p2873
I32
sg20
S'Y'
sg32
g33
sS'.thisTrialN'
p2874
I7
sS'.thisN'
p2875
I359
sS'.thisIndex'
p2876
I3
sg15
(lp2877
S'd'
asg30
g31
sg17
S'Y'
sg14
I8
sg19
Nsg95
I3
sa(dp2878
g16
(lp2879
S'd'
asg18
S'N'
sS'.thisRepN'
p2880
I32
sg20
S'Y'
sg32
g33
sS'.thisTrialN'
p2881
I8
sS'.thisN'
p2882
I360
sS'.thisIndex'
p2883
I0
sg15
(lp2884
S'k'
asg30
g31
sg17
S'N'
sg14
I8
sg19
Nsg95
I0
sa(dp2885
g16
(lp2886
S'k'
asg18
S'N'
sS'.thisRepN'
p2887
I32
sg20
S'Y'
sg32
g33
sS'.thisTrialN'
p2888
I9
sS'.thisN'
p2889
I361
sS'.thisIndex'
p2890
I5
sg15
(lp2891
S'k'
asg30
g31
sg17
S'Y'
sg14
I8
sg19
Nsg95
I5
sa(dp2892
g16
(lp2893
S'd'
asg18
S'Y'
sS'.thisRepN'
p2894
I32
sg20
S'Y'
sg32
g33
sS'.thisTrialN'
p2895
I10
sS'.thisN'
p2896
I362
sS'.thisIndex'
p2897
I8
sg15
(lp2898
S'd'
asg30
g31
sg17
S'Y'
sg14
I8
sg19
(lp2899
S'space'
p2900
asg95
I8
sa(dp2901
g16
(lp2902
S'd'
asg18
S'N'
sS'.thisRepN'
p2903
I33
sg20
S'Y'
sg32
g33
sS'.thisTrialN'
p2904
I0
sS'.thisN'
p2905
I363
sS'.thisIndex'
p2906
I5
sg15
(lp2907
S'd'
asg30
g31
sg17
S'Y'
sg14
I8
sg19
Nsg95
I5
sa(dp2908
g16
(lp2909
S'k'
asg18
S'Y'
sS'.thisRepN'
p2910
I33
sg20
S'Y'
sg32
g33
sS'.thisTrialN'
p2911
I1
sS'.thisN'
p2912
I364
sS'.thisIndex'
p2913
I7
sg15
(lp2914
S'k'
asg30
g31
sg17
S'Y'
sg14
I8
sg19
(lp2915
S'space'
p2916
asg95
I7
sa(dp2917
g16
(lp2918
S'k'
asg18
S'Y'
sS'.thisRepN'
p2919
I33
sg20
S'Y'
sg32
g33
sS'.thisTrialN'
p2920
I2
sS'.thisN'
p2921
I365
sS'.thisIndex'
p2922
I0
sg15
(lp2923
S'd'
asg30
g31
sg17
S'N'
sg14
I8
sg19
(lp2924
S'space'
p2925
asg95
I0
sa(dp2926
g16
(lp2927
S'k'
asg18
S'Y'
sS'.thisRepN'
p2928
I33
sg20
S'Y'
sg32
g33
sS'.thisTrialN'
p2929
I3
sS'.thisN'
p2930
I366
sS'.thisIndex'
p2931
I0
sg15
(lp2932
S'k'
asg30
g31
sg17
S'Y'
sg14
I8
sg19
(lp2933
S'space'
p2934
asg95
I0
sa(dp2935
g16
(lp2936
S'k'
asg18
S'N'
sS'.thisRepN'
p2937
I33
sg20
S'Y'
sg32
g33
sS'.thisTrialN'
p2938
I4
sS'.thisN'
p2939
I367
sS'.thisIndex'
p2940
I0
sg15
(lp2941
S'd'
asg30
g31
sg17
S'N'
sg14
I8
sg19
Nsg95
I0
sa(dp2942
g16
(lp2943
S'k'
asg18
S'Y'
sS'.thisRepN'
p2944
I33
sg20
S'Y'
sg32
g33
sS'.thisTrialN'
p2945
I5
sS'.thisN'
p2946
I368
sS'.thisIndex'
p2947
I7
sg15
(lp2948
S'k'
asg30
g31
sg17
S'Y'
sg14
I8
sg19
(lp2949
S'space'
p2950
asg95
I7
sa(dp2951
g16
(lp2952
S'd'
asg18
S'Y'
sS'.thisRepN'
p2953
I33
sg20
S'Y'
sg32
g33
sS'.thisTrialN'
p2954
I6
sS'.thisN'
p2955
I369
sS'.thisIndex'
p2956
I9
sg15
(lp2957
S'd'
asg30
g31
sg17
S'Y'
sg14
I8
sg19
(lp2958
S'space'
p2959
asg95
I9
sa(dp2960
g16
(lp2961
S'k'
asg18
S'N'
sS'.thisRepN'
p2962
I33
sg20
S'Y'
sg32
g33
sS'.thisTrialN'
p2963
I7
sS'.thisN'
p2964
I370
sS'.thisIndex'
p2965
I6
sg15
(lp2966
S'k'
asg30
g31
sg17
S'Y'
sg14
I8
sg19
Nsg95
I6
sa(dp2967
g16
(lp2968
S'k'
asg18
S'N'
sS'.thisRepN'
p2969
I33
sg20
S'Y'
sg32
g33
sS'.thisTrialN'
p2970
I8
sS'.thisN'
p2971
I371
sS'.thisIndex'
p2972
I0
sg15
(lp2973
S'k'
asg30
g31
sg17
S'Y'
sg14
I8
sg19
Nsg95
I0
sa(dp2974
g16
(lp2975
S'k'
asg18
S'N'
sS'.thisRepN'
p2976
I33
sg20
S'Y'
sg32
g33
sS'.thisTrialN'
p2977
I9
sS'.thisN'
p2978
I372
sS'.thisIndex'
p2979
I6
sg15
(lp2980
S'k'
asg30
g31
sg17
S'Y'
sg14
I8
sg19
Nsg95
I6
sa(dp2981
g16
(lp2982
S'k'
asg18
S'N'
sS'.thisRepN'
p2983
I33
sg20
S'Y'
sg32
g33
sS'.thisTrialN'
p2984
I10
sS'.thisN'
p2985
I373
sS'.thisIndex'
p2986
I9
sg15
(lp2987
S'k'
asg30
g31
sg17
S'Y'
sg14
I8
sg19
Nsg95
I9
sa(dp2988
g16
(lp2989
S'd'
asg18
S'Y'
sS'.thisRepN'
p2990
I34
sg20
S'N'
sg32
g33
sS'.thisTrialN'
p2991
I0
sS'.thisN'
p2992
I374
sS'.thisIndex'
p2993
I1
sg15
(lp2994
S'd'
asg30
g31
sg17
S'Y'
sg14
I8
sg19
Nsg95
I1
sa(dp2995
g16
(lp2996
S'k'
asg18
S'N'
sS'.thisRepN'
p2997
I34
sg20
S'Y'
sg32
g33
sS'.thisTrialN'
p2998
I1
sS'.thisN'
p2999
I375
sS'.thisIndex'
p3000
I5
sg15
(lp3001
S'k'
asg30
g31
sg17
S'Y'
sg14
I8
sg19
Nsg95
I5
sa(dp3002
g16
(lp3003
S'k'
asg18
S'N'
sS'.thisRepN'
p3004
I34
sg20
S'Y'
sg32
g33
sS'.thisTrialN'
p3005
I2
sS'.thisN'
p3006
I376
sS'.thisIndex'
p3007
I9
sg15
(lp3008
S'k'
asg30
g31
sg17
S'Y'
sg14
I8
sg19
Nsg95
I9
sa(dp3009
g16
(lp3010
S'k'
asg18
S'N'
sS'.thisRepN'
p3011
I34
sg20
S'Y'
sg32
g33
sS'.thisTrialN'
p3012
I3
sS'.thisN'
p3013
I377
sS'.thisIndex'
p3014
I0
sg15
(lp3015
S'k'
asg30
g31
sg17
S'Y'
sg14
I8
sg19
Nsg95
I0
sa(dp3016
g16
(lp3017
S'd'
asg18
S'Y'
sS'.thisRepN'
p3018
I34
sg20
S'Y'
sg32
g33
sS'.thisTrialN'
p3019
I4
sS'.thisN'
p3020
I378
sS'.thisIndex'
p3021
I9
sg15
(lp3022
S'd'
asg30
g31
sg17
S'Y'
sg14
I8
sg19
(lp3023
S'space'
p3024
asg95
I9
sa(dp3025
g16
(lp3026
S'd'
asg18
S'Y'
sS'.thisRepN'
p3027
I34
sg20
S'Y'
sg32
g33
sS'.thisTrialN'
p3028
I5
sS'.thisN'
p3029
I379
sS'.thisIndex'
p3030
I6
sg15
(lp3031
S'd'
asg30
g31
sg17
S'Y'
sg14
I8
sg19
(lp3032
S'space'
p3033
asg95
I6
sa(dp3034
g16
(lp3035
S'k'
asg18
S'N'
sS'.thisRepN'
p3036
I34
sg20
S'Y'
sg32
g33
sS'.thisTrialN'
p3037
I6
sS'.thisN'
p3038
I380
sS'.thisIndex'
p3039
I4
sg15
(lp3040
S'k'
asg30
g31
sg17
S'Y'
sg14
I8
sg19
Nsg95
I4
sa(dp3041
g16
(lp3042
S'k'
asg18
S'Y'
sS'.thisRepN'
p3043
I34
sg20
S'Y'
sg32
g33
sS'.thisTrialN'
p3044
I7
sS'.thisN'
p3045
I381
sS'.thisIndex'
p3046
I4
sg15
(lp3047
S'k'
asg30
g31
sg17
S'Y'
sg14
I8
sg19
(lp3048
S'space'
p3049
asg95
I4
sa(dp3050
g16
(lp3051
S'k'
asg18
S'Y'
sS'.thisRepN'
p3052
I34
sg20
S'Y'
sg32
g33
sS'.thisTrialN'
p3053
I8
sS'.thisN'
p3054
I382
sS'.thisIndex'
p3055
I7
sg15
(lp3056
S'k'
asg30
g31
sg17
S'Y'
sg14
I8
sg19
(lp3057
S'space'
p3058
asg95
I7
sa(dp3059
g16
(lp3060
S'k'
asg18
S'Y'
sS'.thisRepN'
p3061
I34
sg20
S'Y'
sg32
g33
sS'.thisTrialN'
p3062
I9
sS'.thisN'
p3063
I383
sS'.thisIndex'
p3064
I7
sg15
(lp3065
S'd'
asg30
g31
sg17
S'N'
sg14
I8
sg19
(lp3066
S'space'
p3067
asg95
I7
sa(dp3068
g16
(lp3069
S'd'
asg18
S'Y'
sS'.thisRepN'
p3070
I34
sg20
S'Y'
sg32
g33
sS'.thisTrialN'
p3071
I10
sS'.thisN'
p3072
I384
sS'.thisIndex'
p3073
I7
sg15
(lp3074
S'd'
asg30
g31
sg17
S'Y'
sg14
I8
sg19
(lp3075
S'space'
p3076
asg95
I7
sa(dp3077
g16
(lp3078
S'd'
asg18
S'N'
sS'.thisRepN'
p3079
I35
sg20
S'Y'
sg32
g33
sS'.thisTrialN'
p3080
I0
sS'.thisN'
p3081
I385
sS'.thisIndex'
p3082
I4
sg15
(lp3083
S'd'
asg30
g31
sg17
S'Y'
sg14
I8
sg19
Nsg95
I4
sa(dp3084
g16
(lp3085
S'd'
asg18
S'N'
sS'.thisRepN'
p3086
I35
sg20
S'Y'
sg32
g33
sS'.thisTrialN'
p3087
I1
sS'.thisN'
p3088
I386
sS'.thisIndex'
p3089
I1
sg15
(lp3090
S'd'
asg30
g31
sg17
S'Y'
sg14
I8
sg19
Nsg95
I1
sa(dp3091
g16
(lp3092
S'k'
asg18
S'N'
sS'.thisRepN'
p3093
I35
sg20
S'Y'
sg32
g33
sS'.thisTrialN'
p3094
I2
sS'.thisN'
p3095
I387
sS'.thisIndex'
p3096
I5
sg15
(lp3097
S'k'
asg30
g31
sg17
S'Y'
sg14
I8
sg19
Nsg95
I5
sa(dp3098
g16
(lp3099
S'k'
asg18
S'Y'
sS'.thisRepN'
p3100
I35
sg20
S'N'
sg32
g33
sS'.thisTrialN'
p3101
I3
sS'.thisN'
p3102
I388
sS'.thisIndex'
p3103
I3
sg15
(lp3104
S'd'
asg30
g31
sg17
S'N'
sg14
I8
sg19
Nsg95
I3
sa(dp3105
g16
(lp3106
S'd'
asg18
S'Y'
sS'.thisRepN'
p3107
I35
sg20
S'Y'
sg32
g33
sS'.thisTrialN'
p3108
I4
sS'.thisN'
p3109
I389
sS'.thisIndex'
p3110
I1
sg15
(lp3111
S'd'
asg30
g31
sg17
S'Y'
sg14
I8
sg19
(lp3112
S'space'
p3113
asg95
I1
sa(dp3114
g16
(lp3115
S'k'
asg18
S'N'
sS'.thisRepN'
p3116
I35
sg20
S'Y'
sg32
g33
sS'.thisTrialN'
p3117
I5
sS'.thisN'
p3118
I390
sS'.thisIndex'
p3119
I3
sg15
(lp3120
S'd'
asg30
g31
sg17
S'N'
sg14
I8
sg19
Nsg95
I3
sa(dp3121
g16
(lp3122
S'k'
asg18
S'N'
sS'.thisRepN'
p3123
I35
sg20
S'Y'
sg32
g33
sS'.thisTrialN'
p3124
I6
sS'.thisN'
p3125
I391
sS'.thisIndex'
p3126
I0
sg15
(lp3127
S'k'
asg30
g31
sg17
S'Y'
sg14
I8
sg19
Nsg95
I0
sa(dp3128
g16
(lp3129
S'd'
asg18
S'N'
sS'.thisRepN'
p3130
I35
sg20
S'Y'
sg32
g33
sS'.thisTrialN'
p3131
I7
sS'.thisN'
p3132
I392
sS'.thisIndex'
p3133
I0
sg15
(lp3134
S'd'
asg30
g31
sg17
S'Y'
sg14
I8
sg19
Nsg95
I0
sa(dp3135
g16
(lp3136
S'k'
asg18
S'N'
sS'.thisRepN'
p3137
I35
sg20
S'Y'
sg32
g33
sS'.thisTrialN'
p3138
I8
sS'.thisN'
p3139
I393
sS'.thisIndex'
p3140
I2
sg15
(lp3141
S'k'
asg30
g31
sg17
S'Y'
sg14
I8
sg19
Nsg95
I2
sa(dp3142
g16
(lp3143
S'k'
asg18
S'Y'
sS'.thisRepN'
p3144
I35
sg20
S'Y'
sg32
g33
sS'.thisTrialN'
p3145
I9
sS'.thisN'
p3146
I394
sS'.thisIndex'
p3147
I10
sg15
(lp3148
S'k'
asg30
g31
sg17
S'Y'
sg14
I8
sg19
(lp3149
S'space'
p3150
asg95
I10
sa(dp3151
g16
(lp3152
S'd'
asg18
S'N'
sS'.thisRepN'
p3153
I35
sg20
S'Y'
sg32
g33
sS'.thisTrialN'
p3154
I10
sS'.thisN'
p3155
I395
sS'.thisIndex'
p3156
I7
sg15
(lp3157
S'd'
asg30
g31
sg17
S'Y'
sg14
I8
sg19
Nsg95
I7
sa(dp3158
g16
(lp3159
S'd'
asg18
S'N'
sS'.thisRepN'
p3160
I36
sg20
S'Y'
sg32
g33
sS'.thisTrialN'
p3161
I0
sS'.thisN'
p3162
I396
sS'.thisIndex'
p3163
I0
sg15
(lp3164
S'd'
asg30
g31
sg17
S'Y'
sg14
I8
sg19
Nsg95
I0
sa(dp3165
g16
(lp3166
S'k'
asg18
S'Y'
sS'.thisRepN'
p3167
I36
sg20
S'Y'
sg32
g33
sS'.thisTrialN'
p3168
I1
sS'.thisN'
p3169
I397
sS'.thisIndex'
p3170
I10
sg15
(lp3171
S'k'
asg30
g31
sg17
S'Y'
sg14
I8
sg19
(lp3172
S'space'
p3173
asg95
I10
sa(dp3174
g16
(lp3175
S'k'
asg18
S'N'
sS'.thisRepN'
p3176
I36
sg20
S'Y'
sg32
g33
sS'.thisTrialN'
p3177
I2
sS'.thisN'
p3178
I398
sS'.thisIndex'
p3179
I6
sg15
(lp3180
S'k'
asg30
g31
sg17
S'Y'
sg14
I8
sg19
Nsg95
I6
sa(dp3181
g16
(lp3182
S'k'
asg18
S'Y'
sg22
I46
sS'.thisN'
p3183
I399
sg20
S'Y'
sg32
g33
sS'.thisTrialN'
p3184
I3
sS'.thisRepN'
p3185
I36
sg21
I44
sS'.thisIndex'
p3186
I7
sg23
I24
sg15
(lp3187
S'k'
asg30
g31
sg17
S'Y'
sg14
I8
sg19
(lp3188
S'space'
p3189
asg95
I7
sa(dp3190
g16
(lp3191
S'd'
asg95
I3
sS'.thisRepN'
p3192
I36
sg30
g31
sg32
g33
sS'.thisTrialN'
p3193
I4
sS'.thisN'
p3194
I400
sS'.thisIndex'
p3195
I3
sg15
(lp3196
S'd'
asg17
S'Y'
sg14
I9
sa(dp3197
g16
(lp3198
S'd'
asg95
I8
sS'.thisRepN'
p3199
I36
sg30
g31
sg32
g33
sS'.thisTrialN'
p3200
I5
sS'.thisN'
p3201
I401
sS'.thisIndex'
p3202
I8
sg15
(lp3203
S'd'
asg17
S'Y'
sg14
I9
sa(dp3204
g16
(lp3205
S'k'
asg18
S'Y'
sS'.thisRepN'
p3206
I36
sg20
S'N'
sg32
g33
sS'.thisTrialN'
p3207
I6
sS'.thisN'
p3208
I402
sS'.thisIndex'
p3209
I5
sg15
(lp3210
S'd'
asg30
g31
sg17
S'N'
sg14
I9
sg19
Nsg95
I5
sa(dp3211
g16
(lp3212
S'k'
asg18
S'Y'
sS'.thisRepN'
p3213
I36
sg20
S'Y'
sg32
g33
sS'.thisTrialN'
p3214
I7
sS'.thisN'
p3215
I403
sS'.thisIndex'
p3216
I10
sg15
(lp3217
S'k'
asg30
g31
sg17
S'Y'
sg14
I9
sg19
(lp3218
S'space'
p3219
asg95
I10
sa(dp3220
g16
(lp3221
S'd'
asg18
S'Y'
sS'.thisRepN'
p3222
I36
sg20
S'Y'
sg32
g33
sS'.thisTrialN'
p3223
I8
sS'.thisN'
p3224
I404
sS'.thisIndex'
p3225
I6
sg15
(lp3226
S'd'
asg30
g31
sg17
S'Y'
sg14
I9
sg19
(lp3227
S'space'
p3228
asg95
I6
sa(dp3229
g16
(lp3230
S'k'
asg18
S'Y'
sS'.thisRepN'
p3231
I36
sg20
S'Y'
sg32
g33
sS'.thisTrialN'
p3232
I9
sS'.thisN'
p3233
I405
sS'.thisIndex'
p3234
I4
sg15
(lp3235
S'k'
asg30
g31
sg17
S'Y'
sg14
I9
sg19
(lp3236
S'space'
p3237
asg95
I4
sa(dp3238
g16
(lp3239
S'd'
asg18
S'Y'
sS'.thisRepN'
p3240
I36
sg20
S'Y'
sg32
g33
sS'.thisTrialN'
p3241
I10
sS'.thisN'
p3242
I406
sS'.thisIndex'
p3243
I6
sg15
(lp3244
S'd'
asg30
g31
sg17
S'Y'
sg14
I9
sg19
(lp3245
S'space'
p3246
asg95
I6
sa(dp3247
g16
(lp3248
S'k'
asg18
S'N'
sS'.thisRepN'
p3249
I37
sg20
S'Y'
sg32
g33
sS'.thisTrialN'
p3250
I0
sS'.thisN'
p3251
I407
sS'.thisIndex'
p3252
I2
sg15
(lp3253
S'k'
asg30
g31
sg17
S'Y'
sg14
I9
sg19
Nsg95
I2
sa(dp3254
g16
(lp3255
S'k'
asg18
S'Y'
sS'.thisRepN'
p3256
I37
sg20
S'N'
sg32
g33
sS'.thisTrialN'
p3257
I1
sS'.thisN'
p3258
I408
sS'.thisIndex'
p3259
I5
sg15
(lp3260
S'k'
asg30
g31
sg17
S'Y'
sg14
I9
sg19
Nsg95
I5
sa(dp3261
g16
(lp3262
S'k'
asg18
S'N'
sS'.thisRepN'
p3263
I37
sg20
S'Y'
sg32
g33
sS'.thisTrialN'
p3264
I2
sS'.thisN'
p3265
I409
sS'.thisIndex'
p3266
I3
sg15
(lp3267
S'd'
asg30
g31
sg17
S'N'
sg14
I9
sg19
Nsg95
I3
sa(dp3268
g16
(lp3269
S'k'
asg18
S'N'
sS'.thisRepN'
p3270
I37
sg20
S'Y'
sg32
g33
sS'.thisTrialN'
p3271
I3
sS'.thisN'
p3272
I410
sS'.thisIndex'
p3273
I10
sg15
(lp3274
S'k'
asg30
g31
sg17
S'Y'
sg14
I9
sg19
Nsg95
I10
sa(dp3275
g16
(lp3276
S'k'
asg18
S'Y'
sS'.thisRepN'
p3277
I37
sg20
S'Y'
sg32
g33
sS'.thisTrialN'
p3278
I4
sS'.thisN'
p3279
I411
sS'.thisIndex'
p3280
I5
sg15
(lp3281
S'k'
asg30
g31
sg17
S'Y'
sg14
I9
sg19
(lp3282
S'space'
p3283
asg95
I5
sa(dp3284
g16
(lp3285
S'k'
asg18
S'Y'
sS'.thisRepN'
p3286
I37
sg20
S'N'
sg32
g33
sS'.thisTrialN'
p3287
I5
sS'.thisN'
p3288
I412
sS'.thisIndex'
p3289
I1
sg15
(lp3290
S'd'
asg30
g31
sg17
S'N'
sg14
I9
sg19
Nsg95
I1
sa(dp3291
g16
(lp3292
S'k'
asg18
S'Y'
sS'.thisRepN'
p3293
I37
sg20
S'Y'
sg32
g33
sS'.thisTrialN'
p3294
I6
sS'.thisN'
p3295
I413
sS'.thisIndex'
p3296
I5
sg15
(lp3297
S'k'
asg30
g31
sg17
S'Y'
sg14
I9
sg19
(lp3298
S'space'
p3299
asg95
I5
sa(dp3300
g16
(lp3301
S'k'
asg18
S'N'
sS'.thisRepN'
p3302
I37
sg20
S'Y'
sg32
g33
sS'.thisTrialN'
p3303
I7
sS'.thisN'
p3304
I414
sS'.thisIndex'
p3305
I7
sg15
(lp3306
S'k'
asg30
g31
sg17
S'Y'
sg14
I9
sg19
Nsg95
I7
sa(dp3307
g16
(lp3308
S'k'
asg18
S'Y'
sS'.thisRepN'
p3309
I37
sg20
S'Y'
sg32
g33
sS'.thisTrialN'
p3310
I8
sS'.thisN'
p3311
I415
sS'.thisIndex'
p3312
I2
sg15
(lp3313
S'k'
asg30
g31
sg17
S'Y'
sg14
I9
sg19
(lp3314
S'space'
p3315
asg95
I2
sa(dp3316
g16
(lp3317
S'k'
asg18
S'Y'
sS'.thisRepN'
p3318
I37
sg20
S'Y'
sg32
g33
sS'.thisTrialN'
p3319
I9
sS'.thisN'
p3320
I416
sS'.thisIndex'
p3321
I3
sg15
(lp3322
S'd'
asg30
g31
sg17
S'N'
sg14
I9
sg19
(lp3323
S'space'
p3324
asg95
I3
sa(dp3325
g16
(lp3326
S'd'
asg18
S'N'
sS'.thisRepN'
p3327
I37
sg20
S'Y'
sg32
g33
sS'.thisTrialN'
p3328
I10
sS'.thisN'
p3329
I417
sS'.thisIndex'
p3330
I10
sg15
(lp3331
S'd'
asg30
g31
sg17
S'Y'
sg14
I9
sg19
Nsg95
I10
sa(dp3332
g16
(lp3333
S'd'
asg18
S'Y'
sS'.thisRepN'
p3334
I38
sg20
S'Y'
sg32
g33
sS'.thisTrialN'
p3335
I0
sS'.thisN'
p3336
I418
sS'.thisIndex'
p3337
I9
sg15
(lp3338
S'd'
asg30
g31
sg17
S'Y'
sg14
I9
sg19
(lp3339
S'space'
p3340
asg95
I9
sa(dp3341
g16
(lp3342
S'd'
asg18
S'Y'
sS'.thisRepN'
p3343
I38
sg20
S'Y'
sg32
g33
sS'.thisTrialN'
p3344
I1
sS'.thisN'
p3345
I419
sS'.thisIndex'
p3346
I10
sg15
(lp3347
S'd'
asg30
g31
sg17
S'Y'
sg14
I9
sg19
(lp3348
S'space'
p3349
asg95
I10
sa(dp3350
g16
(lp3351
S'd'
asg18
S'Y'
sS'.thisRepN'
p3352
I38
sg20
S'Y'
sg32
g33
sS'.thisTrialN'
p3353
I2
sS'.thisN'
p3354
I420
sS'.thisIndex'
p3355
I2
sg15
(lp3356
S'd'
asg30
g31
sg17
S'Y'
sg14
I9
sg19
(lp3357
S'space'
p3358
asg95
I2
sa(dp3359
g16
(lp3360
S'd'
asg18
S'N'
sS'.thisRepN'
p3361
I38
sg20
S'Y'
sg32
g33
sS'.thisTrialN'
p3362
I3
sS'.thisN'
p3363
I421
sS'.thisIndex'
p3364
I10
sg15
(lp3365
S'd'
asg30
g31
sg17
S'Y'
sg14
I9
sg19
Nsg95
I10
sa(dp3366
g16
(lp3367
S'k'
asg18
S'N'
sS'.thisRepN'
p3368
I38
sg20
S'Y'
sg32
g33
sS'.thisTrialN'
p3369
I4
sS'.thisN'
p3370
I422
sS'.thisIndex'
p3371
I9
sg15
(lp3372
S'k'
asg30
g31
sg17
S'Y'
sg14
I9
sg19
Nsg95
I9
sa(dp3373
g16
(lp3374
S'd'
asg18
S'N'
sS'.thisRepN'
p3375
I38
sg20
S'Y'
sg32
g33
sS'.thisTrialN'
p3376
I5
sS'.thisN'
p3377
I423
sS'.thisIndex'
p3378
I4
sg15
(lp3379
S'd'
asg30
g31
sg17
S'Y'
sg14
I9
sg19
Nsg95
I4
sa(dp3380
g16
(lp3381
S'k'
asg18
S'Y'
sS'.thisRepN'
p3382
I38
sg20
S'Y'
sg32
g33
sS'.thisTrialN'
p3383
I6
sS'.thisN'
p3384
I424
sS'.thisIndex'
p3385
I6
sg15
(lp3386
S'k'
asg30
g31
sg17
S'Y'
sg14
I9
sg19
(lp3387
S'space'
p3388
asg95
I6
sa(dp3389
g16
(lp3390
S'd'
asg18
S'Y'
sS'.thisRepN'
p3391
I38
sg20
S'Y'
sg32
g33
sS'.thisTrialN'
p3392
I7
sS'.thisN'
p3393
I425
sS'.thisIndex'
p3394
I7
sg15
(lp3395
S'd'
asg30
g31
sg17
S'Y'
sg14
I9
sg19
(lp3396
S'space'
p3397
asg95
I7
sa(dp3398
g16
(lp3399
S'k'
asg18
S'N'
sS'.thisRepN'
p3400
I38
sg20
S'Y'
sg32
g33
sS'.thisTrialN'
p3401
I8
sS'.thisN'
p3402
I426
sS'.thisIndex'
p3403
I2
sg15
(lp3404
S'k'
asg30
g31
sg17
S'Y'
sg14
I9
sg19
Nsg95
I2
sa(dp3405
g16
(lp3406
S'k'
asg18
S'Y'
sS'.thisRepN'
p3407
I38
sg20
S'Y'
sg32
g33
sS'.thisTrialN'
p3408
I9
sS'.thisN'
p3409
I427
sS'.thisIndex'
p3410
I8
sg15
(lp3411
S'k'
asg30
g31
sg17
S'Y'
sg14
I9
sg19
(lp3412
S'space'
p3413
asg95
I8
sa(dp3414
g16
(lp3415
S'd'
asg18
S'Y'
sS'.thisRepN'
p3416
I38
sg20
S'Y'
sg32
g33
sS'.thisTrialN'
p3417
I10
sS'.thisN'
p3418
I428
sS'.thisIndex'
p3419
I8
sg15
(lp3420
S'd'
asg30
g31
sg17
S'Y'
sg14
I9
sg19
(lp3421
S'space'
p3422
asg95
I8
sa(dp3423
g16
(lp3424
S'd'
asg18
S'N'
sS'.thisRepN'
p3425
I39
sg20
S'Y'
sg32
g33
sS'.thisTrialN'
p3426
I0
sS'.thisN'
p3427
I429
sS'.thisIndex'
p3428
I2
sg15
(lp3429
S'd'
asg30
g31
sg17
S'Y'
sg14
I9
sg19
Nsg95
I2
sa(dp3430
g16
(lp3431
S'k'
asg18
S'Y'
sS'.thisRepN'
p3432
I39
sg20
S'N'
sg32
g33
sS'.thisTrialN'
p3433
I1
sS'.thisN'
p3434
I430
sS'.thisIndex'
p3435
I10
sg15
(lp3436
S'k'
asg30
g31
sg17
S'Y'
sg14
I9
sg19
Nsg95
I10
sa(dp3437
g16
(lp3438
S'k'
asg18
S'N'
sS'.thisRepN'
p3439
I39
sg20
S'Y'
sg32
g33
sS'.thisTrialN'
p3440
I2
sS'.thisN'
p3441
I431
sS'.thisIndex'
p3442
I5
sg15
(lp3443
S'k'
asg30
g31
sg17
S'Y'
sg14
I9
sg19
Nsg95
I5
sa(dp3444
g16
(lp3445
S'd'
asg18
S'Y'
sS'.thisRepN'
p3446
I39
sg20
S'Y'
sg32
g33
sS'.thisTrialN'
p3447
I3
sS'.thisN'
p3448
I432
sS'.thisIndex'
p3449
I5
sg15
(lp3450
S'd'
asg30
g31
sg17
S'Y'
sg14
I9
sg19
(lp3451
S'space'
p3452
asg95
I5
sa(dp3453
g16
(lp3454
S'd'
asg18
S'N'
sS'.thisRepN'
p3455
I39
sg20
S'Y'
sg32
g33
sS'.thisTrialN'
p3456
I4
sS'.thisN'
p3457
I433
sS'.thisIndex'
p3458
I7
sg15
(lp3459
S'd'
asg30
g31
sg17
S'Y'
sg14
I9
sg19
Nsg95
I7
sa(dp3460
g16
(lp3461
S'd'
asg18
S'N'
sS'.thisRepN'
p3462
I39
sg20
S'Y'
sg32
g33
sS'.thisTrialN'
p3463
I5
sS'.thisN'
p3464
I434
sS'.thisIndex'
p3465
I6
sg15
(lp3466
S'k'
asg30
g31
sg17
S'N'
sg14
I9
sg19
Nsg95
I6
sa(dp3467
g16
(lp3468
S'd'
asg18
S'Y'
sS'.thisRepN'
p3469
I39
sg20
S'Y'
sg32
g33
sS'.thisTrialN'
p3470
I6
sS'.thisN'
p3471
I435
sS'.thisIndex'
p3472
I2
sg15
(lp3473
S'd'
asg30
g31
sg17
S'Y'
sg14
I9
sg19
(lp3474
S'space'
p3475
asg95
I2
sa(dp3476
g16
(lp3477
S'd'
asg18
S'N'
sS'.thisRepN'
p3478
I39
sg20
S'Y'
sg32
g33
sS'.thisTrialN'
p3479
I7
sS'.thisN'
p3480
I436
sS'.thisIndex'
p3481
I1
sg15
(lp3482
S'd'
asg30
g31
sg17
S'Y'
sg14
I9
sg19
Nsg95
I1
sa(dp3483
g16
(lp3484
S'k'
asg18
S'N'
sS'.thisRepN'
p3485
I39
sg20
S'Y'
sg32
g33
sS'.thisTrialN'
p3486
I8
sS'.thisN'
p3487
I437
sS'.thisIndex'
p3488
I6
sg15
(lp3489
S'k'
asg30
g31
sg17
S'Y'
sg14
I9
sg19
Nsg95
I6
sa(dp3490
g16
(lp3491
S'k'
asg18
S'Y'
sS'.thisRepN'
p3492
I39
sg20
S'Y'
sg32
g33
sS'.thisTrialN'
p3493
I9
sS'.thisN'
p3494
I438
sS'.thisIndex'
p3495
I8
sg15
(lp3496
S'k'
asg30
g31
sg17
S'Y'
sg14
I9
sg19
(lp3497
S'space'
p3498
asg95
I8
sa(dp3499
g16
(lp3500
S'd'
asg18
S'Y'
sS'.thisRepN'
p3501
I39
sg20
S'Y'
sg32
g33
sS'.thisTrialN'
p3502
I10
sS'.thisN'
p3503
I439
sS'.thisIndex'
p3504
I9
sg15
(lp3505
S'd'
asg30
g31
sg17
S'Y'
sg14
I9
sg19
(lp3506
S'space'
p3507
asg95
I9
sa(dp3508
g16
(lp3509
S'k'
asg18
S'N'
sS'.thisRepN'
p3510
I40
sg20
S'Y'
sg32
g33
sS'.thisTrialN'
p3511
I0
sS'.thisN'
p3512
I440
sS'.thisIndex'
p3513
I7
sg15
(lp3514
S'k'
asg30
g31
sg17
S'Y'
sg14
I9
sg19
Nsg95
I7
sa(dp3515
g16
(lp3516
S'd'
asg18
S'N'
sS'.thisRepN'
p3517
I40
sg20
S'Y'
sg32
g33
sS'.thisTrialN'
p3518
I1
sS'.thisN'
p3519
I441
sS'.thisIndex'
p3520
I9
sg15
(lp3521
S'd'
asg30
g31
sg17
S'Y'
sg14
I9
sg19
Nsg95
I9
sa(dp3522
g16
(lp3523
S'k'
asg18
S'Y'
sS'.thisRepN'
p3524
I40
sg20
S'N'
sg32
g33
sS'.thisTrialN'
p3525
I2
sS'.thisN'
p3526
I442
sS'.thisIndex'
p3527
I9
sg15
(lp3528
S'k'
asg30
g31
sg17
S'Y'
sg14
I9
sg19
Nsg95
I9
sa(dp3529
g16
(lp3530
S'k'
asg18
S'Y'
sS'.thisRepN'
p3531
I40
sg20
S'Y'
sg32
g33
sS'.thisTrialN'
p3532
I3
sS'.thisN'
p3533
I443
sS'.thisIndex'
p3534
I3
sg15
(lp3535
S'k'
asg30
g31
sg17
S'Y'
sg14
I9
sg19
(lp3536
S'space'
p3537
asg95
I3
sa(dp3538
g16
(lp3539
S'k'
asg18
S'N'
sS'.thisRepN'
p3540
I40
sg20
S'Y'
sg32
g33
sS'.thisTrialN'
p3541
I4
sS'.thisN'
p3542
I444
sS'.thisIndex'
p3543
I8
sg15
(lp3544
S'd'
asg30
g31
sg17
S'N'
sg14
I9
sg19
Nsg95
I8
sa(dp3545
g16
(lp3546
S'd'
asg18
S'N'
sS'.thisRepN'
p3547
I40
sg20
S'Y'
sg32
g33
sS'.thisTrialN'
p3548
I5
sS'.thisN'
p3549
I445
sS'.thisIndex'
p3550
I2
sg15
(lp3551
S'd'
asg30
g31
sg17
S'Y'
sg14
I9
sg19
Nsg95
I2
sa(dp3552
g16
(lp3553
S'd'
asg18
S'N'
sS'.thisRepN'
p3554
I40
sg20
S'Y'
sg32
g33
sS'.thisTrialN'
p3555
I6
sS'.thisN'
p3556
I446
sS'.thisIndex'
p3557
I8
sg15
(lp3558
S'd'
asg30
g31
sg17
S'Y'
sg14
I9
sg19
Nsg95
I8
sa(dp3559
g16
(lp3560
S'k'
asg18
S'N'
sS'.thisRepN'
p3561
I40
sg20
S'Y'
sg32
g33
sS'.thisTrialN'
p3562
I7
sS'.thisN'
p3563
I447
sS'.thisIndex'
p3564
I5
sg15
(lp3565
S'k'
asg30
g31
sg17
S'Y'
sg14
I9
sg19
Nsg95
I5
sa(dp3566
g16
(lp3567
S'd'
asg18
S'N'
sS'.thisRepN'
p3568
I40
sg20
S'Y'
sg32
g33
sS'.thisTrialN'
p3569
I8
sS'.thisN'
p3570
I448
sS'.thisIndex'
p3571
I3
sg15
(lp3572
S'd'
asg30
g31
sg17
S'Y'
sg14
I9
sg19
Nsg95
I3
sa(dp3573
g16
(lp3574
S'k'
asg18
S'N'
sg22
I43
sS'.thisN'
p3575
I449
sg20
S'Y'
sg32
g33
sS'.thisTrialN'
p3576
I9
sS'.thisRepN'
p3577
I40
sg21
I44
sS'.thisIndex'
p3578
I6
sg23
I25
sg15
(lp3579
S'k'
asg30
g31
sg17
S'Y'
sg14
I9
sg19
Nsg95
I6
sa(dp3580
g16
(lp3581
S'd'
asg95
I5
sS'.thisRepN'
p3582
I40
sg30
g31
sg32
g33
sS'.thisTrialN'
p3583
I10
sS'.thisN'
p3584
I450
sS'.thisIndex'
p3585
I5
sg15
(lp3586
S'k'
asg17
S'N'
sg14
I10
sa(dp3587
g16
(lp3588
S'k'
asg95
I3
sS'.thisRepN'
p3589
I41
sg30
g31
sg32
g33
sS'.thisTrialN'
p3590
I0
sS'.thisN'
p3591
I451
sS'.thisIndex'
p3592
I3
sg15
(lp3593
S'k'
asg17
S'Y'
sg14
I10
sa(dp3594
g16
(lp3595
S'd'
asg18
S'N'
sS'.thisRepN'
p3596
I41
sg20
S'Y'
sg32
g33
sS'.thisTrialN'
p3597
I1
sS'.thisN'
p3598
I452
sS'.thisIndex'
p3599
I3
sg15
(lp3600
S'd'
asg30
g31
sg17
S'Y'
sg14
I10
sg19
Nsg95
I3
sa(dp3601
g16
(lp3602
S'd'
asg18
S'N'
sS'.thisRepN'
p3603
I41
sg20
S'Y'
sg32
g33
sS'.thisTrialN'
p3604
I2
sS'.thisN'
p3605
I453
sS'.thisIndex'
p3606
I1
sg15
(lp3607
S'd'
asg30
g31
sg17
S'Y'
sg14
I10
sg19
Nsg95
I1
sa(dp3608
g16
(lp3609
S'k'
asg18
S'N'
sS'.thisRepN'
p3610
I41
sg20
S'Y'
sg32
g33
sS'.thisTrialN'
p3611
I3
sS'.thisN'
p3612
I454
sS'.thisIndex'
p3613
I3
sg15
(lp3614
S'k'
asg30
g31
sg17
S'Y'
sg14
I10
sg19
Nsg95
I3
sa(dp3615
g16
(lp3616
S'd'
asg18
S'Y'
sS'.thisRepN'
p3617
I41
sg20
S'Y'
sg32
g33
sS'.thisTrialN'
p3618
I4
sS'.thisN'
p3619
I455
sS'.thisIndex'
p3620
I4
sg15
(lp3621
S'd'
asg30
g31
sg17
S'Y'
sg14
I10
sg19
(lp3622
S'space'
p3623
asg95
I4
sa(dp3624
g16
(lp3625
S'k'
asg18
S'Y'
sS'.thisRepN'
p3626
I41
sg20
S'Y'
sg32
g33
sS'.thisTrialN'
p3627
I5
sS'.thisN'
p3628
I456
sS'.thisIndex'
p3629
I6
sg15
(lp3630
S'k'
asg30
g31
sg17
S'Y'
sg14
I10
sg19
(lp3631
S'space'
p3632
asg95
I6
sa(dp3633
g16
(lp3634
S'd'
asg18
S'Y'
sS'.thisRepN'
p3635
I41
sg20
S'Y'
sg32
g33
sS'.thisTrialN'
p3636
I6
sS'.thisN'
p3637
I457
sS'.thisIndex'
p3638
I9
sg15
(lp3639
S'd'
asg30
g31
sg17
S'Y'
sg14
I10
sg19
(lp3640
S'space'
p3641
asg95
I9
sa(dp3642
g16
(lp3643
S'd'
asg18
S'Y'
sS'.thisRepN'
p3644
I41
sg20
S'Y'
sg32
g33
sS'.thisTrialN'
p3645
I7
sS'.thisN'
p3646
I458
sS'.thisIndex'
p3647
I5
sg15
(lp3648
S'd'
asg30
g31
sg17
S'Y'
sg14
I10
sg19
(lp3649
S'space'
p3650
asg95
I5
sa(dp3651
g16
(lp3652
S'k'
asg18
S'N'
sS'.thisRepN'
p3653
I41
sg20
S'Y'
sg32
g33
sS'.thisTrialN'
p3654
I8
sS'.thisN'
p3655
I459
sS'.thisIndex'
p3656
I10
sg15
(lp3657
S'k'
asg30
g31
sg17
S'Y'
sg14
I10
sg19
Nsg95
I10
sa(dp3658
g16
(lp3659
S'd'
asg18
S'Y'
sS'.thisRepN'
p3660
I41
sg20
S'Y'
sg32
g33
sS'.thisTrialN'
p3661
I9
sS'.thisN'
p3662
I460
sS'.thisIndex'
p3663
I8
sg15
(lp3664
S'd'
asg30
g31
sg17
S'Y'
sg14
I10
sg19
(lp3665
S'space'
p3666
asg95
I8
sa(dp3667
g16
(lp3668
S'k'
asg18
S'Y'
sS'.thisRepN'
p3669
I41
sg20
S'Y'
sg32
g33
sS'.thisTrialN'
p3670
I10
sS'.thisN'
p3671
I461
sS'.thisIndex'
p3672
I1
sg15
(lp3673
S'k'
asg30
g31
sg17
S'Y'
sg14
I10
sg19
(lp3674
S'space'
p3675
asg95
I1
sa(dp3676
g16
(lp3677
S'k'
asg18
S'N'
sS'.thisRepN'
p3678
I42
sg20
S'Y'
sg32
g33
sS'.thisTrialN'
p3679
I0
sS'.thisN'
p3680
I462
sS'.thisIndex'
p3681
I1
sg15
(lp3682
S'k'
asg30
g31
sg17
S'Y'
sg14
I10
sg19
Nsg95
I1
sa(dp3683
g16
(lp3684
S'd'
asg18
S'Y'
sS'.thisRepN'
p3685
I42
sg20
S'Y'
sg32
g33
sS'.thisTrialN'
p3686
I1
sS'.thisN'
p3687
I463
sS'.thisIndex'
p3688
I6
sg15
(lp3689
S'd'
asg30
g31
sg17
S'Y'
sg14
I10
sg19
(lp3690
S'space'
p3691
asg95
I6
sa(dp3692
g16
(lp3693
S'k'
asg18
S'Y'
sS'.thisRepN'
p3694
I42
sg20
S'Y'
sg32
g33
sS'.thisTrialN'
p3695
I2
sS'.thisN'
p3696
I464
sS'.thisIndex'
p3697
I2
sg15
(lp3698
S'd'
asg30
g31
sg17
S'N'
sg14
I10
sg19
(lp3699
S'space'
p3700
asg95
I2
sa(dp3701
g16
(lp3702
S'd'
asg18
S'Y'
sS'.thisRepN'
p3703
I42
sg20
S'Y'
sg32
g33
sS'.thisTrialN'
p3704
I3
sS'.thisN'
p3705
I465
sS'.thisIndex'
p3706
I4
sg15
(lp3707
S'd'
asg30
g31
sg17
S'Y'
sg14
I10
sg19
(lp3708
S'space'
p3709
asg95
I4
sa(dp3710
g16
(lp3711
S'k'
asg18
S'N'
sS'.thisRepN'
p3712
I42
sg20
S'Y'
sg32
g33
sS'.thisTrialN'
p3713
I4
sS'.thisN'
p3714
I466
sS'.thisIndex'
p3715
I9
sg15
(lp3716
S'k'
asg30
g31
sg17
S'Y'
sg14
I10
sg19
Nsg95
I9
sa(dp3717
g16
(lp3718
S'k'
asg18
S'N'
sS'.thisRepN'
p3719
I42
sg20
S'Y'
sg32
g33
sS'.thisTrialN'
p3720
I5
sS'.thisN'
p3721
I467
sS'.thisIndex'
p3722
I4
sg15
(lp3723
S'k'
asg30
g31
sg17
S'Y'
sg14
I10
sg19
Nsg95
I4
sa(dp3724
g16
(lp3725
S'd'
asg18
S'N'
sS'.thisRepN'
p3726
I42
sg20
S'Y'
sg32
g33
sS'.thisTrialN'
p3727
I6
sS'.thisN'
p3728
I468
sS'.thisIndex'
p3729
I8
sg15
(lp3730
S'd'
asg30
g31
sg17
S'Y'
sg14
I10
sg19
Nsg95
I8
sa(dp3731
g16
(lp3732
S'd'
asg18
S'Y'
sS'.thisRepN'
p3733
I42
sg20
S'Y'
sg32
g33
sS'.thisTrialN'
p3734
I7
sS'.thisN'
p3735
I469
sS'.thisIndex'
p3736
I8
sg15
(lp3737
S'd'
asg30
g31
sg17
S'Y'
sg14
I10
sg19
(lp3738
S'space'
p3739
asg95
I8
sa(dp3740
g16
(lp3741
S'd'
asg18
S'N'
sS'.thisRepN'
p3742
I42
sg20
S'Y'
sg32
g33
sS'.thisTrialN'
p3743
I8
sS'.thisN'
p3744
I470
sS'.thisIndex'
p3745
I2
sg15
(lp3746
S'd'
asg30
g31
sg17
S'Y'
sg14
I10
sg19
Nsg95
I2
sa(dp3747
g16
(lp3748
S'k'
asg18
S'N'
sS'.thisRepN'
p3749
I42
sg20
S'Y'
sg32
g33
sS'.thisTrialN'
p3750
I9
sS'.thisN'
p3751
I471
sS'.thisIndex'
p3752
I6
sg15
(lp3753
S'd'
asg30
g31
sg17
S'N'
sg14
I10
sg19
Nsg95
I6
sa(dp3754
g16
(lp3755
S'd'
asg18
S'N'
sS'.thisRepN'
p3756
I42
sg20
S'Y'
sg32
g33
sS'.thisTrialN'
p3757
I10
sS'.thisN'
p3758
I472
sS'.thisIndex'
p3759
I6
sg15
(lp3760
S'd'
asg30
g31
sg17
S'Y'
sg14
I10
sg19
Nsg95
I6
sa(dp3761
g16
(lp3762
S'd'
asg18
S'N'
sS'.thisRepN'
p3763
I43
sg20
S'Y'
sg32
g33
sS'.thisTrialN'
p3764
I0
sS'.thisN'
p3765
I473
sS'.thisIndex'
p3766
I3
sg15
(lp3767
S'k'
asg30
g31
sg17
S'N'
sg14
I10
sg19
Nsg95
I3
sa(dp3768
g16
(lp3769
S'k'
asg18
S'Y'
sS'.thisRepN'
p3770
I43
sg20
S'Y'
sg32
g33
sS'.thisTrialN'
p3771
I1
sS'.thisN'
p3772
I474
sS'.thisIndex'
p3773
I9
sg15
(lp3774
S'k'
asg30
g31
sg17
S'Y'
sg14
I10
sg19
(lp3775
S'space'
p3776
asg95
I9
sa(dp3777
g16
(lp3778
S'k'
asg18
S'Y'
sS'.thisRepN'
p3779
I43
sg20
S'N'
sg32
g33
sS'.thisTrialN'
p3780
I2
sS'.thisN'
p3781
I475
sS'.thisIndex'
p3782
I2
sg15
(lp3783
S'k'
asg30
g31
sg17
S'Y'
sg14
I10
sg19
Nsg95
I2
sa(dp3784
g16
(lp3785
S'k'
asg18
S'N'
sS'.thisRepN'
p3786
I43
sg20
S'Y'
sg32
g33
sS'.thisTrialN'
p3787
I3
sS'.thisN'
p3788
I476
sS'.thisIndex'
p3789
I4
sg15
(lp3790
S'k'
asg30
g31
sg17
S'Y'
sg14
I10
sg19
Nsg95
I4
sa(dp3791
g16
(lp3792
S'k'
asg18
S'Y'
sS'.thisRepN'
p3793
I43
sg20
S'Y'
sg32
g33
sS'.thisTrialN'
p3794
I4
sS'.thisN'
p3795
I477
sS'.thisIndex'
p3796
I4
sg15
(lp3797
S'd'
asg30
g31
sg17
S'N'
sg14
I10
sg19
(lp3798
S'space'
p3799
asg95
I4
sa(dp3800
g16
(lp3801
S'k'
asg18
S'Y'
sS'.thisRepN'
p3802
I43
sg20
S'Y'
sg32
g33
sS'.thisTrialN'
p3803
I5
sS'.thisN'
p3804
I478
sS'.thisIndex'
p3805
I1
sg15
(lp3806
S'k'
asg30
g31
sg17
S'Y'
sg14
I10
sg19
(lp3807
S'space'
p3808
asg95
I1
sa(dp3809
g16
(lp3810
S'k'
asg18
S'N'
sS'.thisRepN'
p3811
I43
sg20
S'Y'
sg32
g33
sS'.thisTrialN'
p3812
I6
sS'.thisN'
p3813
I479
sS'.thisIndex'
p3814
I7
sg15
(lp3815
S'k'
asg30
g31
sg17
S'Y'
sg14
I10
sg19
Nsg95
I7
sa(dp3816
g16
(lp3817
S'd'
asg18
S'N'
sS'.thisRepN'
p3818
I43
sg20
S'Y'
sg32
g33
sS'.thisTrialN'
p3819
I7
sS'.thisN'
p3820
I480
sS'.thisIndex'
p3821
I7
sg15
(lp3822
S'd'
asg30
g31
sg17
S'Y'
sg14
I10
sg19
Nsg95
I7
sa(dp3823
g16
(lp3824
S'd'
asg18
S'Y'
sS'.thisRepN'
p3825
I43
sg20
S'Y'
sg32
g33
sS'.thisTrialN'
p3826
I8
sS'.thisN'
p3827
I481
sS'.thisIndex'
p3828
I6
sg15
(lp3829
S'd'
asg30
g31
sg17
S'Y'
sg14
I10
sg19
(lp3830
S'space'
p3831
asg95
I6
sa(dp3832
g16
(lp3833
S'd'
asg18
S'N'
sS'.thisRepN'
p3834
I43
sg20
S'Y'
sg32
g33
sS'.thisTrialN'
p3835
I9
sS'.thisN'
p3836
I482
sS'.thisIndex'
p3837
I9
sg15
(lp3838
S'd'
asg30
g31
sg17
S'Y'
sg14
I10
sg19
Nsg95
I9
sa(dp3839
g16
(lp3840
S'd'
asg18
S'N'
sS'.thisRepN'
p3841
I43
sg20
S'Y'
sg32
g33
sS'.thisTrialN'
p3842
I10
sS'.thisN'
p3843
I483
sS'.thisIndex'
p3844
I0
sg15
(lp3845
S'd'
asg30
g31
sg17
S'Y'
sg14
I10
sg19
Nsg95
I0
sa(dp3846
g16
(lp3847
S'k'
asg18
S'Y'
sS'.thisRepN'
p3848
I44
sg20
S'Y'
sg32
g33
sS'.thisTrialN'
p3849
I0
sS'.thisN'
p3850
I484
sS'.thisIndex'
p3851
I5
sg15
(lp3852
S'k'
asg30
g31
sg17
S'Y'
sg14
I10
sg19
(lp3853
S'space'
p3854
asg95
I5
sa(dp3855
g16
(lp3856
S'k'
asg18
S'N'
sS'.thisRepN'
p3857
I44
sg20
S'Y'
sg32
g33
sS'.thisTrialN'
p3858
I1
sS'.thisN'
p3859
I485
sS'.thisIndex'
p3860
I2
sg15
(lp3861
S'k'
asg30
g31
sg17
S'Y'
sg14
I10
sg19
Nsg95
I2
sa(dp3862
g16
(lp3863
S'k'
asg18
S'N'
sS'.thisRepN'
p3864
I44
sg20
S'Y'
sg32
g33
sS'.thisTrialN'
p3865
I2
sS'.thisN'
p3866
I486
sS'.thisIndex'
p3867
I0
sg15
(lp3868
S'k'
asg30
g31
sg17
S'Y'
sg14
I10
sg19
Nsg95
I0
sa(dp3869
g16
(lp3870
S'k'
asg18
S'Y'
sS'.thisRepN'
p3871
I44
sg20
S'Y'
sg32
g33
sS'.thisTrialN'
p3872
I3
sS'.thisN'
p3873
I487
sS'.thisIndex'
p3874
I4
sg15
(lp3875
S'k'
asg30
g31
sg17
S'Y'
sg14
I10
sg19
(lp3876
S'space'
p3877
asg95
I4
sa(dp3878
g16
(lp3879
S'k'
asg18
S'N'
sS'.thisRepN'
p3880
I44
sg20
S'Y'
sg32
g33
sS'.thisTrialN'
p3881
I4
sS'.thisN'
p3882
I488
sS'.thisIndex'
p3883
I8
sg15
(lp3884
S'k'
asg30
g31
sg17
S'Y'
sg14
I10
sg19
Nsg95
I8
sa(dp3885
g16
(lp3886
S'k'
asg18
S'N'
sS'.thisRepN'
p3887
I44
sg20
S'Y'
sg32
g33
sS'.thisTrialN'
p3888
I5
sS'.thisN'
p3889
I489
sS'.thisIndex'
p3890
I7
sg15
(lp3891
S'k'
asg30
g31
sg17
S'Y'
sg14
I10
sg19
Nsg95
I7
sa(dp3892
g16
(lp3893
S'd'
asg18
S'N'
sS'.thisRepN'
p3894
I44
sg20
S'Y'
sg32
g33
sS'.thisTrialN'
p3895
I6
sS'.thisN'
p3896
I490
sS'.thisIndex'
p3897
I5
sg15
(lp3898
S'd'
asg30
g31
sg17
S'Y'
sg14
I10
sg19
Nsg95
I5
sa(dp3899
g16
(lp3900
S'd'
asg18
S'N'
sS'.thisRepN'
p3901
I44
sg20
S'Y'
sg32
g33
sS'.thisTrialN'
p3902
I7
sS'.thisN'
p3903
I491
sS'.thisIndex'
p3904
I6
sg15
(lp3905
S'd'
asg30
g31
sg17
S'Y'
sg14
I10
sg19
Nsg95
I6
sa(dp3906
g16
(lp3907
S'k'
asg18
S'Y'
sS'.thisRepN'
p3908
I44
sg20
S'Y'
sg32
g33
sS'.thisTrialN'
p3909
I8
sS'.thisN'
p3910
I492
sS'.thisIndex'
p3911
I6
sg15
(lp3912
S'k'
asg30
g31
sg17
S'Y'
sg14
I10
sg19
(lp3913
S'space'
p3914
asg95
I6
sa(dp3915
g16
(lp3916
S'k'
asg18
S'N'
sS'.thisRepN'
p3917
I44
sg20
S'Y'
sg32
g33
sS'.thisTrialN'
p3918
I9
sS'.thisN'
p3919
I493
sS'.thisIndex'
p3920
I5
sg15
(lp3921
S'k'
asg30
g31
sg17
S'Y'
sg14
I10
sg19
Nsg95
I5
sa(dp3922
g16
(lp3923
S'k'
asg18
S'Y'
sS'.thisRepN'
p3924
I44
sg20
S'Y'
sg32
g33
sS'.thisTrialN'
p3925
I10
sS'.thisN'
p3926
I494
sS'.thisIndex'
p3927
I1
sg15
(lp3928
S'k'
asg30
g31
sg17
S'Y'
sg14
I10
sg19
(lp3929
S'space'
p3930
asg95
I1
sa(dp3931
g16
(lp3932
S'k'
asg18
S'N'
sS'.thisRepN'
p3933
I45
sg20
S'Y'
sg32
g33
sS'.thisTrialN'
p3934
I0
sS'.thisN'
p3935
I495
sS'.thisIndex'
p3936
I2
sg15
(lp3937
S'k'
asg30
g31
sg17
S'Y'
sg14
I10
sg19
Nsg95
I2
sa(dp3938
g16
(lp3939
S'd'
asg18
S'N'
sS'.thisRepN'
p3940
I45
sg20
S'Y'
sg32
g33
sS'.thisTrialN'
p3941
I1
sS'.thisN'
p3942
I496
sS'.thisIndex'
p3943
I10
sg15
(lp3944
S'd'
asg30
g31
sg17
S'Y'
sg14
I10
sg19
Nsg95
I10
sa(dp3945
g16
(lp3946
S'd'
asg18
S'Y'
sS'.thisRepN'
p3947
I45
sg20
S'Y'
sg32
g33
sS'.thisTrialN'
p3948
I2
sS'.thisN'
p3949
I497
sS'.thisIndex'
p3950
I3
sg15
(lp3951
S'd'
asg30
g31
sg17
S'Y'
sg14
I10
sg19
(lp3952
S'space'
p3953
asg95
I3
sa(dp3954
g16
(lp3955
S'k'
asg18
S'N'
sS'.thisRepN'
p3956
I45
sg20
S'Y'
sg32
g33
sS'.thisTrialN'
p3957
I3
sS'.thisN'
p3958
I498
sS'.thisIndex'
p3959
I3
sg15
(lp3960
S'k'
asg30
g31
sg17
S'Y'
sg14
I10
sg19
Nsg95
I3
sa(dp3961
g16
(lp3962
S'k'
asg18
S'Y'
sg22
I47
sS'.thisN'
p3963
I499
sg20
S'Y'
sg32
g33
sS'.thisTrialN'
p3964
I4
sS'.thisRepN'
p3965
I45
sg21
I45
sS'.thisIndex'
p3966
I3
sg23
I21
sg15
(lp3967
S'k'
asg30
g31
sg17
S'Y'
sg14
I10
sg19
(lp3968
S'space'
p3969
asg95
I3
sa(dp3970
g16
(lp3971
S'd'
asS'.thisIndex'
p3972
I5
sS'.thisRepN'
p3973
I45
sg26
S'Y'
sg30
g31
sg32
g33
sS'.thisTrialN'
p3974
I5
sS'.thisN'
p3975
I500
sg25
S'Y'
sg24
S'Y'
sg15
(lp3976
S'k'
asg17
S'Y'
sg14
I11
sg95
I5
sa(dp3977
g16
(lp3978
S'd'
asS'.thisIndex'
p3979
I0
sS'.thisRepN'
p3980
I45
sg26
S'Y'
sg30
g31
sg32
g33
sS'.thisTrialN'
p3981
I6
sS'.thisN'
p3982
I501
sg25
S'Y'
sg15
(lp3983
S'k'
asg17
S'Y'
sg14
I11
sg95
I0
sa(dp3984
g16
(lp3985
S'd'
asg18
S'N'
sS'.thisRepN'
p3986
I45
sg26
S'Y'
sg20
S'Y'
sg32
g33
sS'.thisTrialN'
p3987
I7
sS'.thisN'
p3988
I502
sg25
S'Y'
sg15
(lp3989
S'k'
asg30
g31
sg17
S'Y'
sg14
I11
sg19
Nsg95
I8
sS'.thisIndex'
p3990
I8
sa(dp3991
g16
(lp3992
S'k'
asg18
S'Y'
sS'.thisRepN'
p3993
I45
sg26
S'Y'
sg20
S'Y'
sg32
g33
sS'.thisTrialN'
p3994
I8
sS'.thisN'
p3995
I503
sg25
S'Y'
sg15
(lp3996
S'd'
asg30
g31
sg17
S'Y'
sg14
I11
sg19
(lp3997
S'space'
p3998
asg95
I0
sS'.thisIndex'
p3999
I0
sa(dp4000
g16
(lp4001
S'd'
asg18
S'N'
sS'.thisRepN'
p4002
I45
sg26
S'Y'
sg20
S'Y'
sg32
g33
sS'.thisTrialN'
p4003
I9
sS'.thisN'
p4004
I504
sg25
S'Y'
sg15
(lp4005
S'k'
asg30
g31
sg17
S'Y'
sg14
I11
sg19
Nsg95
I6
sS'.thisIndex'
p4006
I6
sa(dp4007
g16
(lp4008
S'k'
asg18
S'N'
sS'.thisRepN'
p4009
I45
sg26
S'Y'
sg20
S'Y'
sg32
g33
sS'.thisTrialN'
p4010
I10
sS'.thisN'
p4011
I505
sg25
S'Y'
sg15
(lp4012
S'd'
asg30
g31
sg17
S'Y'
sg14
I11
sg19
Nsg95
I1
sS'.thisIndex'
p4013
I1
sa(dp4014
g16
(lp4015
S'k'
asg18
S'Y'
sS'.thisRepN'
p4016
I46
sg26
S'Y'
sg20
S'Y'
sg32
g33
sS'.thisTrialN'
p4017
I0
sS'.thisN'
p4018
I506
sg25
S'Y'
sg15
(lp4019
S'd'
asg30
g31
sg17
S'Y'
sg14
I11
sg19
(lp4020
S'space'
p4021
asg95
I0
sS'.thisIndex'
p4022
I0
sa(dp4023
g16
(lp4024
S'k'
asg18
S'N'
sS'.thisRepN'
p4025
I46
sg26
S'Y'
sg20
S'Y'
sg32
g33
sS'.thisTrialN'
p4026
I1
sS'.thisN'
p4027
I507
sg25
S'Y'
sg15
(lp4028
S'd'
asg30
g31
sg17
S'Y'
sg14
I11
sg19
Nsg95
I10
sS'.thisIndex'
p4029
I10
sa(dp4030
g16
(lp4031
S'k'
asg18
S'N'
sS'.thisRepN'
p4032
I46
sg26
S'Y'
sg20
S'Y'
sg32
g33
sS'.thisTrialN'
p4033
I2
sS'.thisN'
p4034
I508
sg25
S'Y'
sg15
(lp4035
S'd'
asg30
g31
sg17
S'Y'
sg14
I11
sg19
Nsg95
I7
sS'.thisIndex'
p4036
I7
sa(dp4037
g16
(lp4038
S'k'
asg18
S'N'
sS'.thisRepN'
p4039
I46
sg26
S'Y'
sg20
S'Y'
sg32
g33
sS'.thisTrialN'
p4040
I3
sS'.thisN'
p4041
I509
sg25
S'Y'
sg15
(lp4042
S'k'
asg30
g31
sg17
S'N'
sg14
I11
sg19
Nsg95
I2
sS'.thisIndex'
p4043
I2
sa(dp4044
g16
(lp4045
S'k'
asg18
S'N'
sS'.thisRepN'
p4046
I46
sg26
S'Y'
sg20
S'Y'
sg32
g33
sS'.thisTrialN'
p4047
I4
sS'.thisN'
p4048
I510
sg25
S'Y'
sg15
(lp4049
S'd'
asg30
g31
sg17
S'Y'
sg14
I11
sg19
Nsg95
I8
sS'.thisIndex'
p4050
I8
sa(dp4051
g16
(lp4052
S'd'
asg18
S'Y'
sS'.thisRepN'
p4053
I46
sg26
S'Y'
sg20
S'Y'
sg32
g33
sS'.thisTrialN'
p4054
I5
sS'.thisN'
p4055
I511
sg25
S'Y'
sg15
(lp4056
S'k'
asg30
g31
sg17
S'Y'
sg14
I11
sg19
(lp4057
S'space'
p4058
asg95
I10
sS'.thisIndex'
p4059
I10
sa(dp4060
g16
(lp4061
S'd'
asg18
S'N'
sS'.thisRepN'
p4062
I46
sg26
S'Y'
sg20
S'Y'
sg32
g33
sS'.thisTrialN'
p4063
I6
sS'.thisN'
p4064
I512
sg25
S'Y'
sg15
(lp4065
S'd'
asg30
g31
sg17
S'N'
sg14
I11
sg19
Nsg95
I0
sS'.thisIndex'
p4066
I0
sa(dp4067
g16
(lp4068
S'k'
asg18
S'N'
sS'.thisRepN'
p4069
I46
sg26
S'Y'
sg20
S'Y'
sg32
g33
sS'.thisTrialN'
p4070
I7
sS'.thisN'
p4071
I513
sg25
S'Y'
sg15
(lp4072
S'k'
asg30
g31
sg17
S'N'
sg14
I11
sg19
Nsg95
I3
sS'.thisIndex'
p4073
I3
sa(dp4074
g18
S'Y'
sS'.thisRepN'
p4075
I46
sg26
S'Y'
sg20
S'Y'
sg32
g33
sS'.thisTrialN'
p4076
I8
sS'.thisN'
p4077
I514
sg25
S'Y'
sg15
Nsg30
g31
sg17
g2007
sg14
I11
sg19
(lp4078
S'space'
p4079
asg95
I0
sS'.thisIndex'
p4080
I0
sa(dp4081
g16
(lp4082
S'd'
asg18
S'Y'
sS'.thisRepN'
p4083
I46
sg26
S'Y'
sg20
S'N'
sg32
g33
sS'.thisTrialN'
p4084
I9
sS'.thisN'
p4085
I515
sg25
S'Y'
sg15
(lp4086
S'd'
asg30
g31
sg17
S'N'
sg14
I11
sg19
Nsg95
I9
sS'.thisIndex'
p4087
I9
sa(dp4088
g16
(lp4089
S'd'
asg18
S'Y'
sS'.thisRepN'
p4090
I46
sg26
S'Y'
sg20
S'N'
sg32
g33
sS'.thisTrialN'
p4091
I10
sS'.thisN'
p4092
I516
sg25
S'Y'
sg15
(lp4093
S'k'
asg30
g31
sg17
S'Y'
sg14
I11
sg19
Nsg95
I4
sS'.thisIndex'
p4094
I4
sa(dp4095
g16
(lp4096
S'k'
asg18
S'N'
sS'.thisRepN'
p4097
I47
sg26
S'Y'
sg20
S'Y'
sg32
g33
sS'.thisTrialN'
p4098
I0
sS'.thisN'
p4099
I517
sg25
S'Y'
sg15
(lp4100
S'd'
asg30
g31
sg17
S'Y'
sg14
I11
sg19
Nsg95
I5
sS'.thisIndex'
p4101
I5
sa(dp4102
g16
(lp4103
S'k'
asg18
S'N'
sS'.thisRepN'
p4104
I47
sg26
S'Y'
sg20
S'Y'
sg32
g33
sS'.thisTrialN'
p4105
I1
sS'.thisN'
p4106
I518
sg25
S'Y'
sg15
(lp4107
S'd'
asg30
g31
sg17
S'Y'
sg14
I11
sg19
Nsg95
I3
sS'.thisIndex'
p4108
I3
sa(dp4109
g16
(lp4110
S'd'
asg18
S'Y'
sS'.thisRepN'
p4111
I47
sg26
S'Y'
sg20
S'Y'
sg32
g33
sS'.thisTrialN'
p4112
I2
sS'.thisN'
p4113
I519
sg25
S'Y'
sg15
(lp4114
S'k'
asg30
g31
sg17
S'Y'
sg14
I11
sg19
(lp4115
S'space'
p4116
asg95
I6
sS'.thisIndex'
p4117
I6
sa(dp4118
g16
(lp4119
S'k'
asg18
S'Y'
sS'.thisRepN'
p4120
I47
sg26
S'Y'
sg20
S'Y'
sg32
g33
sS'.thisTrialN'
p4121
I3
sS'.thisN'
p4122
I520
sg25
S'Y'
sg15
(lp4123
S'd'
asg30
g31
sg17
S'Y'
sg14
I11
sg19
(lp4124
S'space'
p4125
asg95
I1
sS'.thisIndex'
p4126
I1
sa(dp4127
g16
(lp4128
S'd'
asg18
S'N'
sS'.thisRepN'
p4129
I47
sg26
S'Y'
sg20
S'Y'
sg32
g33
sS'.thisTrialN'
p4130
I4
sS'.thisN'
p4131
I521
sg25
S'Y'
sg15
(lp4132
S'k'
asg30
g31
sg17
S'Y'
sg14
I11
sg19
Nsg95
I1
sS'.thisIndex'
p4133
I1
sa(dp4134
g16
(lp4135
S'd'
asg18
S'N'
sS'.thisRepN'
p4136
I47
sg26
S'Y'
sg20
S'Y'
sg32
g33
sS'.thisTrialN'
p4137
I5
sS'.thisN'
p4138
I522
sg25
S'Y'
sg15
(lp4139
S'k'
asg30
g31
sg17
S'Y'
sg14
I11
sg19
Nsg95
I2
sS'.thisIndex'
p4140
I2
sa(dp4141
g16
(lp4142
S'k'
asg18
S'N'
sS'.thisRepN'
p4143
I47
sg26
S'Y'
sg20
S'Y'
sg32
g33
sS'.thisTrialN'
p4144
I6
sS'.thisN'
p4145
I523
sg25
S'Y'
sg15
(lp4146
S'd'
asg30
g31
sg17
S'Y'
sg14
I11
sg19
Nsg95
I2
sS'.thisIndex'
p4147
I2
sa(dp4148
g16
(lp4149
S'd'
asg18
S'Y'
sS'.thisRepN'
p4150
I47
sg26
S'Y'
sg20
S'Y'
sg32
g33
sS'.thisTrialN'
p4151
I7
sS'.thisN'
p4152
I524
sg25
S'Y'
sg15
(lp4153
S'k'
asg30
g31
sg17
S'Y'
sg14
I11
sg19
(lp4154
S'space'
p4155
asg95
I1
sS'.thisIndex'
p4156
I1
sa(dp4157
g16
(lp4158
S'd'
asg18
S'N'
sS'.thisRepN'
p4159
I47
sg26
S'Y'
sg20
S'Y'
sg32
g33
sS'.thisTrialN'
p4160
I8
sS'.thisN'
p4161
I525
sg25
S'Y'
sg15
(lp4162
S'k'
asg30
g31
sg17
S'Y'
sg14
I11
sg19
Nsg95
I1
sS'.thisIndex'
p4163
I1
sa(dp4164
g16
(lp4165
S'k'
asg18
S'N'
sS'.thisRepN'
p4166
I47
sg26
S'Y'
sg20
S'Y'
sg32
g33
sS'.thisTrialN'
p4167
I9
sS'.thisN'
p4168
I526
sg25
S'Y'
sg15
(lp4169
S'k'
asg30
g31
sg17
S'N'
sg14
I11
sg19
Nsg95
I0
sS'.thisIndex'
p4170
I0
sa(dp4171
g16
(lp4172
S'd'
asg18
S'Y'
sS'.thisRepN'
p4173
I47
sg26
S'Y'
sg20
S'Y'
sg32
g33
sS'.thisTrialN'
p4174
I10
sS'.thisN'
p4175
I527
sg25
S'Y'
sg15
(lp4176
S'k'
asg30
g31
sg17
S'Y'
sg14
I11
sg19
(lp4177
S'space'
p4178
asg95
I2
sS'.thisIndex'
p4179
I2
sa(dp4180
g16
(lp4181
S'k'
asg18
S'N'
sS'.thisRepN'
p4182
I48
sg26
S'Y'
sg20
S'Y'
sg32
g33
sS'.thisTrialN'
p4183
I0
sS'.thisN'
p4184
I528
sg25
S'Y'
sg15
(lp4185
S'd'
asg30
g31
sg17
S'Y'
sg14
I11
sg19
Nsg95
I8
sS'.thisIndex'
p4186
I8
sa(dp4187
g16
(lp4188
S'k'
asg18
S'N'
sS'.thisRepN'
p4189
I48
sg26
S'Y'
sg20
S'Y'
sg32
g33
sS'.thisTrialN'
p4190
I1
sS'.thisN'
p4191
I529
sg25
S'Y'
sg15
(lp4192
S'k'
asg30
g31
sg17
S'N'
sg14
I11
sg19
Nsg95
I3
sS'.thisIndex'
p4193
I3
sa(dp4194
g16
(lp4195
S'k'
asg18
S'N'
sS'.thisRepN'
p4196
I48
sg26
S'Y'
sg20
S'Y'
sg32
g33
sS'.thisTrialN'
p4197
I2
sS'.thisN'
p4198
I530
sg25
S'Y'
sg15
(lp4199
S'k'
asg30
g31
sg17
S'N'
sg14
I11
sg19
Nsg95
I1
sS'.thisIndex'
p4200
I1
sa(dp4201
g16
(lp4202
S'd'
asg18
S'Y'
sS'.thisRepN'
p4203
I48
sg26
S'Y'
sg20
S'N'
sg32
g33
sS'.thisTrialN'
p4204
I3
sS'.thisN'
p4205
I531
sg25
S'Y'
sg15
(lp4206
S'k'
asg30
g31
sg17
S'Y'
sg14
I11
sg19
Nsg95
I2
sS'.thisIndex'
p4207
I2
sa(dp4208
g16
(lp4209
S'd'
asg18
S'N'
sS'.thisRepN'
p4210
I48
sg26
S'Y'
sg20
S'Y'
sg32
g33
sS'.thisTrialN'
p4211
I4
sS'.thisN'
p4212
I532
sg25
S'Y'
sg15
(lp4213
S'k'
asg30
g31
sg17
S'Y'
sg14
I11
sg19
Nsg95
I9
sS'.thisIndex'
p4214
I9
sa(dp4215
g16
(lp4216
S'k'
asg18
S'Y'
sS'.thisRepN'
p4217
I48
sg26
S'Y'
sg20
S'N'
sg32
g33
sS'.thisTrialN'
p4218
I5
sS'.thisN'
p4219
I533
sg25
S'Y'
sg15
(lp4220
S'd'
asg30
g31
sg17
S'Y'
sg14
I11
sg19
Nsg95
I0
sS'.thisIndex'
p4221
I0
sa(dp4222
g16
(lp4223
S'k'
asg18
S'N'
sS'.thisRepN'
p4224
I48
sg26
S'Y'
sg20
S'Y'
sg32
g33
sS'.thisTrialN'
p4225
I6
sS'.thisN'
p4226
I534
sg25
S'Y'
sg15
(lp4227
S'd'
asg30
g31
sg17
S'Y'
sg14
I11
sg19
Nsg95
I1
sS'.thisIndex'
p4228
I1
sa(dp4229
g16
(lp4230
S'd'
asg18
S'Y'
sS'.thisRepN'
p4231
I48
sg26
S'Y'
sg20
S'Y'
sg32
g33
sS'.thisTrialN'
p4232
I7
sS'.thisN'
p4233
I535
sg25
S'Y'
sg15
(lp4234
S'k'
asg30
g31
sg17
S'Y'
sg14
I11
sg19
(lp4235
S'space'
p4236
asg95
I0
sS'.thisIndex'
p4237
I0
sa(dp4238
g16
(lp4239
S'k'
asg18
S'N'
sS'.thisRepN'
p4240
I48
sg26
S'Y'
sg20
S'Y'
sg32
g33
sS'.thisTrialN'
p4241
I8
sS'.thisN'
p4242
I536
sg25
S'Y'
sg15
(lp4243
S'd'
asg30
g31
sg17
S'Y'
sg14
I11
sg19
Nsg95
I6
sS'.thisIndex'
p4244
I6
sa(dp4245
g16
(lp4246
S'd'
asg18
S'Y'
sS'.thisRepN'
p4247
I48
sg26
S'Y'
sg20
S'Y'
sg32
g33
sS'.thisTrialN'
p4248
I9
sS'.thisN'
p4249
I537
sg25
S'Y'
sg15
(lp4250
S'k'
asg30
g31
sg17
S'Y'
sg14
I11
sg19
(lp4251
S'space'
p4252
asg95
I3
sS'.thisIndex'
p4253
I3
sa(dp4254
g16
(lp4255
S'k'
asg18
S'Y'
sS'.thisRepN'
p4256
I48
sg26
S'Y'
sg20
S'N'
sg32
g33
sS'.thisTrialN'
p4257
I10
sS'.thisN'
p4258
I538
sg25
S'Y'
sg15
(lp4259
S'd'
asg30
g31
sg17
S'Y'
sg14
I11
sg19
Nsg95
I5
sS'.thisIndex'
p4260
I5
sa(dp4261
g16
(lp4262
S'd'
asg18
S'N'
sS'.thisRepN'
p4263
I49
sg26
S'Y'
sg20
S'Y'
sg32
g33
sS'.thisTrialN'
p4264
I0
sS'.thisN'
p4265
I539
sg25
S'Y'
sg15
(lp4266
S'k'
asg30
g31
sg17
S'Y'
sg14
I11
sg19
Nsg95
I8
sS'.thisIndex'
p4267
I8
sa(dp4268
g16
(lp4269
S'd'
asg18
S'Y'
sS'.thisRepN'
p4270
I49
sg26
S'Y'
sg20
S'Y'
sg32
g33
sS'.thisTrialN'
p4271
I1
sS'.thisN'
p4272
I540
sg25
S'Y'
sg15
(lp4273
S'k'
asg30
g31
sg17
S'Y'
sg14
I11
sg19
(lp4274
S'space'
p4275
asg95
I2
sS'.thisIndex'
p4276
I2
sa(dp4277
g16
(lp4278
S'd'
asg18
S'Y'
sS'.thisRepN'
p4279
I49
sg26
S'Y'
sg20
S'Y'
sg32
g33
sS'.thisTrialN'
p4280
I2
sS'.thisN'
p4281
I541
sg25
S'Y'
sg15
(lp4282
S'd'
asg30
g31
sg17
S'N'
sg14
I11
sg19
(lp4283
S'space'
p4284
asg95
I9
sS'.thisIndex'
p4285
I9
sa(dp4286
g16
(lp4287
S'k'
asg18
S'Y'
sS'.thisRepN'
p4288
I49
sg26
S'Y'
sg20
S'N'
sg32
g33
sS'.thisTrialN'
p4289
I3
sS'.thisN'
p4290
I542
sg25
S'Y'
sg15
(lp4291
S'd'
asg30
g31
sg17
S'Y'
sg14
I11
sg19
Nsg95
I1
sS'.thisIndex'
p4292
I1
sa(dp4293
g16
(lp4294
S'k'
asg18
S'Y'
sS'.thisRepN'
p4295
I49
sg26
S'Y'
sg20
S'Y'
sg32
g33
sS'.thisTrialN'
p4296
I4
sS'.thisN'
p4297
I543
sg25
S'Y'
sg15
(lp4298
S'd'
asg30
g31
sg17
S'Y'
sg14
I11
sg19
(lp4299
S'space'
p4300
asg95
I2
sS'.thisIndex'
p4301
I2
sa(dp4302
g16
(lp4303
S'd'
asg18
S'Y'
sS'.thisRepN'
p4304
I49
sg26
S'Y'
sg20
S'N'
sg32
g33
sS'.thisTrialN'
p4305
I5
sS'.thisN'
p4306
I544
sg25
S'Y'
sg15
(lp4307
S'k'
asg30
g31
sg17
S'Y'
sg14
I11
sg19
Nsg95
I0
sS'.thisIndex'
p4308
I0
sa(dp4309
g16
(lp4310
S'd'
asg18
S'N'
sS'.thisRepN'
p4311
I49
sg26
S'Y'
sg20
S'Y'
sg32
g33
sS'.thisTrialN'
p4312
I6
sS'.thisN'
p4313
I545
sg25
S'Y'
sg15
(lp4314
S'k'
asg30
g31
sg17
S'Y'
sg14
I11
sg19
Nsg95
I5
sS'.thisIndex'
p4315
I5
sa(dp4316
g16
(lp4317
S'd'
asg18
S'Y'
sS'.thisRepN'
p4318
I49
sg26
S'Y'
sg20
S'Y'
sg32
g33
sS'.thisTrialN'
p4319
I7
sS'.thisN'
p4320
I546
sg25
S'Y'
sg15
(lp4321
S'k'
asg30
g31
sg17
S'Y'
sg14
I11
sg19
(lp4322
S'space'
p4323
asg95
I6
sS'.thisIndex'
p4324
I6
sa(dp4325
g16
(lp4326
S'd'
asg18
S'Y'
sS'.thisRepN'
p4327
I49
sg26
S'Y'
sg20
S'Y'
sg32
g33
sS'.thisTrialN'
p4328
I8
sS'.thisN'
p4329
I547
sg25
S'Y'
sg15
(lp4330
S'k'
asg30
g31
sg17
S'Y'
sg14
I11
sg19
(lp4331
S'space'
p4332
asg95
I6
sS'.thisIndex'
p4333
I6
sa(dp4334
g16
(lp4335
S'd'
asg18
S'Y'
sS'.thisRepN'
p4336
I49
sg26
S'Y'
sg20
S'Y'
sg32
g33
sS'.thisTrialN'
p4337
I9
sS'.thisN'
p4338
I548
sg25
S'Y'
sg15
(lp4339
S'k'
asg30
g31
sg17
S'Y'
sg14
I11
sg19
(lp4340
S'space'
p4341
asg95
I9
sS'.thisIndex'
p4342
I9
sa(dp4343
g16
(lp4344
S'd'
asg18
S'Y'
sg22
I41
sg26
S'Y'
sS'.thisN'
p4345
I549
sg20
S'Y'
sg32
g33
sS'.thisTrialN'
p4346
I10
sS'.thisRepN'
p4347
I49
sg21
I41
sg25
S'Y'
sg23
I24
sg15
(lp4348
S'k'
asg30
g31
sg17
S'Y'
sg14
I11
sg19
(lp4349
S'space'
p4350
asg95
I8
sS'.thisIndex'
p4351
I8
sa(dp4352
g16
(lp4353
S'k'
asS'.thisIndex'
p4354
I0
sS'.thisRepN'
p4355
I50
sg26
S'Y'
sg30
g31
sg32
g33
sS'.thisTrialN'
p4356
I0
sS'.thisN'
p4357
I550
sg25
S'Y'
sg15
(lp4358
S'd'
asg17
S'Y'
sg14
I12
sg95
I0
sa(dp4359
g16
(lp4360
S'k'
asS'.thisIndex'
p4361
I4
sS'.thisRepN'
p4362
I50
sg26
S'Y'
sg30
g31
sg32
g33
sS'.thisTrialN'
p4363
I1
sS'.thisN'
p4364
I551
sg25
S'Y'
sg15
(lp4365
S'd'
asg17
S'Y'
sg14
I12
sg95
I4
sa(dp4366
g16
(lp4367
S'd'
asg18
S'Y'
sS'.thisRepN'
p4368
I50
sg26
S'Y'
sg20
S'Y'
sg32
g33
sS'.thisTrialN'
p4369
I2
sS'.thisN'
p4370
I552
sg25
S'Y'
sg15
(lp4371
S'k'
asg30
g31
sg17
S'Y'
sg14
I12
sg19
(lp4372
S'space'
p4373
asg95
I3
sS'.thisIndex'
p4374
I3
sa(dp4375
g16
(lp4376
S'k'
asg18
S'N'
sS'.thisRepN'
p4377
I50
sg26
S'Y'
sg20
S'Y'
sg32
g33
sS'.thisTrialN'
p4378
I3
sS'.thisN'
p4379
I553
sg25
S'Y'
sg15
(lp4380
S'd'
asg30
g31
sg17
S'Y'
sg14
I12
sg19
Nsg95
I8
sS'.thisIndex'
p4381
I8
sa(dp4382
g16
(lp4383
S'k'
asg18
S'N'
sS'.thisRepN'
p4384
I50
sg26
S'Y'
sg20
S'Y'
sg32
g33
sS'.thisTrialN'
p4385
I4
sS'.thisN'
p4386
I554
sg25
S'Y'
sg15
(lp4387
S'd'
asg30
g31
sg17
S'Y'
sg14
I12
sg19
Nsg95
I0
sS'.thisIndex'
p4388
I0
sa(dp4389
g16
(lp4390
S'k'
asg18
S'Y'
sS'.thisRepN'
p4391
I50
sg26
S'Y'
sg20
S'Y'
sg32
g33
sS'.thisTrialN'
p4392
I5
sS'.thisN'
p4393
I555
sg25
S'Y'
sg15
(lp4394
S'd'
asg30
g31
sg17
S'Y'
sg14
I12
sg19
(lp4395
S'space'
p4396
asg95
I3
sS'.thisIndex'
p4397
I3
sa(dp4398
g16
(lp4399
S'k'
asg18
S'Y'
sS'.thisRepN'
p4400
I50
sg26
S'Y'
sg20
S'Y'
sg32
g33
sS'.thisTrialN'
p4401
I6
sS'.thisN'
p4402
I556
sg25
S'Y'
sg15
(lp4403
S'd'
asg30
g31
sg17
S'Y'
sg14
I12
sg19
(lp4404
S'space'
p4405
asg95
I9
sS'.thisIndex'
p4406
I9
sa(dp4407
g16
(lp4408
S'k'
asg18
S'N'
sS'.thisRepN'
p4409
I50
sg26
S'Y'
sg20
S'Y'
sg32
g33
sS'.thisTrialN'
p4410
I7
sS'.thisN'
p4411
I557
sg25
S'Y'
sg15
(lp4412
S'd'
asg30
g31
sg17
S'Y'
sg14
I12
sg19
Nsg95
I3
sS'.thisIndex'
p4413
I3
sa(dp4414
g16
(lp4415
S'd'
asg18
S'N'
sS'.thisRepN'
p4416
I50
sg26
S'Y'
sg20
S'Y'
sg32
g33
sS'.thisTrialN'
p4417
I8
sS'.thisN'
p4418
I558
sg25
S'Y'
sg15
(lp4419
S'k'
asg30
g31
sg17
S'Y'
sg14
I12
sg19
Nsg95
I3
sS'.thisIndex'
p4420
I3
sa(dp4421
g16
(lp4422
S'd'
asg18
S'Y'
sS'.thisRepN'
p4423
I50
sg26
S'Y'
sg20
S'Y'
sg32
g33
sS'.thisTrialN'
p4424
I9
sS'.thisN'
p4425
I559
sg25
S'Y'
sg15
(lp4426
S'k'
asg30
g31
sg17
S'Y'
sg14
I12
sg19
(lp4427
S'space'
p4428
asg95
I2
sS'.thisIndex'
p4429
I2
sa(dp4430
g16
(lp4431
S'k'
asg18
S'Y'
sS'.thisRepN'
p4432
I50
sg26
S'Y'
sg20
S'Y'
sg32
g33
sS'.thisTrialN'
p4433
I10
sS'.thisN'
p4434
I560
sg25
S'Y'
sg15
(lp4435
S'd'
asg30
g31
sg17
S'Y'
sg14
I12
sg19
(lp4436
S'space'
p4437
asg95
I9
sS'.thisIndex'
p4438
I9
sa(dp4439
g16
(lp4440
S'd'
asg18
S'Y'
sS'.thisRepN'
p4441
I51
sg26
S'Y'
sg20
S'Y'
sg32
g33
sS'.thisTrialN'
p4442
I0
sS'.thisN'
p4443
I561
sg25
S'Y'
sg15
(lp4444
S'k'
asg30
g31
sg17
S'Y'
sg14
I12
sg19
(lp4445
S'space'
p4446
asg95
I2
sS'.thisIndex'
p4447
I2
sa(dp4448
g16
(lp4449
S'd'
asg18
S'N'
sS'.thisRepN'
p4450
I51
sg26
S'Y'
sg20
S'Y'
sg32
g33
sS'.thisTrialN'
p4451
I1
sS'.thisN'
p4452
I562
sg25
S'Y'
sg15
(lp4453
S'k'
asg30
g31
sg17
S'Y'
sg14
I12
sg19
Nsg95
I0
sS'.thisIndex'
p4454
I0
sa(dp4455
g16
(lp4456
S'k'
asg18
S'N'
sS'.thisRepN'
p4457
I51
sg26
S'Y'
sg20
S'Y'
sg32
g33
sS'.thisTrialN'
p4458
I2
sS'.thisN'
p4459
I563
sg25
S'Y'
sg15
(lp4460
S'd'
asg30
g31
sg17
S'Y'
sg14
I12
sg19
Nsg95
I3
sS'.thisIndex'
p4461
I3
sa(dp4462
g16
(lp4463
S'k'
asg18
S'N'
sS'.thisRepN'
p4464
I51
sg26
S'Y'
sg20
S'Y'
sg32
g33
sS'.thisTrialN'
p4465
I3
sS'.thisN'
p4466
I564
sg25
S'Y'
sg15
(lp4467
S'd'
asg30
g31
sg17
S'Y'
sg14
I12
sg19
Nsg95
I8
sS'.thisIndex'
p4468
I8
sa(dp4469
g16
(lp4470
S'd'
asg18
S'Y'
sS'.thisRepN'
p4471
I51
sg26
S'Y'
sg20
S'Y'
sg32
g33
sS'.thisTrialN'
p4472
I4
sS'.thisN'
p4473
I565
sg25
S'Y'
sg15
(lp4474
S'k'
asg30
g31
sg17
S'Y'
sg14
I12
sg19
(lp4475
S'space'
p4476
asg95
I9
sS'.thisIndex'
p4477
I9
sa(dp4478
g16
(lp4479
S'd'
asg18
S'Y'
sS'.thisRepN'
p4480
I51
sg26
S'Y'
sg20
S'Y'
sg32
g33
sS'.thisTrialN'
p4481
I5
sS'.thisN'
p4482
I566
sg25
S'Y'
sg15
(lp4483
S'd'
asg30
g31
sg17
S'N'
sg14
I12
sg19
(lp4484
S'space'
p4485
asg95
I3
sS'.thisIndex'
p4486
I3
sa(dp4487
g16
(lp4488
S'd'
asg18
S'N'
sS'.thisRepN'
p4489
I51
sg26
S'Y'
sg20
S'Y'
sg32
g33
sS'.thisTrialN'
p4490
I6
sS'.thisN'
p4491
I567
sg25
S'Y'
sg15
(lp4492
S'k'
asg30
g31
sg17
S'Y'
sg14
I12
sg19
Nsg95
I8
sS'.thisIndex'
p4493
I8
sa(dp4494
g16
(lp4495
S'k'
asg18
S'Y'
sS'.thisRepN'
p4496
I51
sg26
S'Y'
sg20
S'N'
sg32
g33
sS'.thisTrialN'
p4497
I7
sS'.thisN'
p4498
I568
sg25
S'Y'
sg15
(lp4499
S'd'
asg30
g31
sg17
S'Y'
sg14
I12
sg19
Nsg95
I8
sS'.thisIndex'
p4500
I8
sa(dp4501
g16
(lp4502
S'k'
asg18
S'N'
sS'.thisRepN'
p4503
I51
sg26
S'Y'
sg20
S'Y'
sg32
g33
sS'.thisTrialN'
p4504
I8
sS'.thisN'
p4505
I569
sg25
S'Y'
sg15
(lp4506
S'd'
asg30
g31
sg17
S'Y'
sg14
I12
sg19
Nsg95
I8
sS'.thisIndex'
p4507
I8
sa(dp4508
g16
(lp4509
S'k'
asg18
S'Y'
sS'.thisRepN'
p4510
I51
sg26
S'Y'
sg20
S'Y'
sg32
g33
sS'.thisTrialN'
p4511
I9
sS'.thisN'
p4512
I570
sg25
S'Y'
sg15
(lp4513
S'd'
asg30
g31
sg17
S'Y'
sg14
I12
sg19
(lp4514
S'space'
p4515
asg95
I2
sS'.thisIndex'
p4516
I2
sa(dp4517
g16
(lp4518
S'k'
asg18
S'Y'
sS'.thisRepN'
p4519
I51
sg26
S'Y'
sg20
S'Y'
sg32
g33
sS'.thisTrialN'
p4520
I10
sS'.thisN'
p4521
I571
sg25
S'Y'
sg15
(lp4522
S'd'
asg30
g31
sg17
S'Y'
sg14
I12
sg19
(lp4523
S'space'
p4524
asg95
I5
sS'.thisIndex'
p4525
I5
sa(dp4526
g16
(lp4527
S'd'
asg18
S'Y'
sS'.thisRepN'
p4528
I52
sg26
S'Y'
sg20
S'Y'
sg32
g33
sS'.thisTrialN'
p4529
I0
sS'.thisN'
p4530
I572
sg25
S'Y'
sg15
(lp4531
S'k'
asg30
g31
sg17
S'Y'
sg14
I12
sg19
(lp4532
S'space'
p4533
asg95
I1
sS'.thisIndex'
p4534
I1
sa(dp4535
g16
(lp4536
S'k'
asg18
S'N'
sS'.thisRepN'
p4537
I52
sg26
S'Y'
sg20
S'Y'
sg32
g33
sS'.thisTrialN'
p4538
I1
sS'.thisN'
p4539
I573
sg25
S'Y'
sg15
(lp4540
S'd'
asg30
g31
sg17
S'Y'
sg14
I12
sg19
Nsg95
I7
sS'.thisIndex'
p4541
I7
sa(dp4542
g16
(lp4543
S'd'
asg18
S'Y'
sS'.thisRepN'
p4544
I52
sg26
S'Y'
sg20
S'Y'
sg32
g33
sS'.thisTrialN'
p4545
I2
sS'.thisN'
p4546
I574
sg25
S'Y'
sg15
(lp4547
S'k'
asg30
g31
sg17
S'Y'
sg14
I12
sg19
(lp4548
S'space'
p4549
asg95
I8
sS'.thisIndex'
p4550
I8
sa(dp4551
g16
(lp4552
S'd'
asg18
S'N'
sS'.thisRepN'
p4553
I52
sg26
S'Y'
sg20
S'Y'
sg32
g33
sS'.thisTrialN'
p4554
I3
sS'.thisN'
p4555
I575
sg25
S'Y'
sg15
(lp4556
S'd'
asg30
g31
sg17
S'N'
sg14
I12
sg19
Nsg95
I6
sS'.thisIndex'
p4557
I6
sa(dp4558
g16
(lp4559
S'k'
asg18
S'Y'
sS'.thisRepN'
p4560
I52
sg26
S'Y'
sg20
S'Y'
sg32
g33
sS'.thisTrialN'
p4561
I4
sS'.thisN'
p4562
I576
sg25
S'Y'
sg15
(lp4563
S'd'
asg30
g31
sg17
S'Y'
sg14
I12
sg19
(lp4564
S'space'
p4565
asg95
I2
sS'.thisIndex'
p4566
I2
sa(dp4567
g16
(lp4568
S'd'
asg18
S'N'
sS'.thisRepN'
p4569
I52
sg26
S'Y'
sg20
S'Y'
sg32
g33
sS'.thisTrialN'
p4570
I5
sS'.thisN'
p4571
I577
sg25
S'Y'
sg15
(lp4572
S'k'
asg30
g31
sg17
S'Y'
sg14
I12
sg19
Nsg95
I1
sS'.thisIndex'
p4573
I1
sa(dp4574
g16
(lp4575
S'd'
asg18
S'Y'
sS'.thisRepN'
p4576
I52
sg26
S'Y'
sg20
S'Y'
sg32
g33
sS'.thisTrialN'
p4577
I6
sS'.thisN'
p4578
I578
sg25
S'Y'
sg15
(lp4579
S'k'
asg30
g31
sg17
S'Y'
sg14
I12
sg19
(lp4580
S'space'
p4581
asg95
I4
sS'.thisIndex'
p4582
I4
sa(dp4583
g16
(lp4584
S'd'
asg18
S'Y'
sS'.thisRepN'
p4585
I52
sg26
S'Y'
sg20
S'Y'
sg32
g33
sS'.thisTrialN'
p4586
I7
sS'.thisN'
p4587
I579
sg25
S'Y'
sg15
(lp4588
S'k'
asg30
g31
sg17
S'Y'
sg14
I12
sg19
(lp4589
S'space'
p4590
asg95
I7
sS'.thisIndex'
p4591
I7
sa(dp4592
g16
(lp4593
S'd'
asg18
S'Y'
sS'.thisRepN'
p4594
I52
sg26
S'Y'
sg20
S'Y'
sg32
g33
sS'.thisTrialN'
p4595
I8
sS'.thisN'
p4596
I580
sg25
S'Y'
sg15
(lp4597
S'k'
asg30
g31
sg17
S'Y'
sg14
I12
sg19
(lp4598
S'space'
p4599
asg95
I7
sS'.thisIndex'
p4600
I7
sa(dp4601
g16
(lp4602
S'd'
asg18
S'N'
sS'.thisRepN'
p4603
I52
sg26
S'Y'
sg20
S'Y'
sg32
g33
sS'.thisTrialN'
p4604
I9
sS'.thisN'
p4605
I581
sg25
S'Y'
sg15
(lp4606
S'k'
asg30
g31
sg17
S'Y'
sg14
I12
sg19
Nsg95
I6
sS'.thisIndex'
p4607
I6
sa(dp4608
g16
(lp4609
S'k'
asg18
S'N'
sS'.thisRepN'
p4610
I52
sg26
S'Y'
sg20
S'Y'
sg32
g33
sS'.thisTrialN'
p4611
I10
sS'.thisN'
p4612
I582
sg25
S'Y'
sg15
(lp4613
S'd'
asg30
g31
sg17
S'Y'
sg14
I12
sg19
Nsg95
I0
sS'.thisIndex'
p4614
I0
sa(dp4615
g16
(lp4616
S'd'
asg18
S'Y'
sS'.thisRepN'
p4617
I53
sg26
S'Y'
sg20
S'Y'
sg32
g33
sS'.thisTrialN'
p4618
I0
sS'.thisN'
p4619
I583
sg25
S'Y'
sg15
(lp4620
S'k'
asg30
g31
sg17
S'Y'
sg14
I12
sg19
(lp4621
S'space'
p4622
asg95
I8
sS'.thisIndex'
p4623
I8
sa(dp4624
g16
(lp4625
S'd'
asg18
S'N'
sS'.thisRepN'
p4626
I53
sg26
S'Y'
sg20
S'Y'
sg32
g33
sS'.thisTrialN'
p4627
I1
sS'.thisN'
p4628
I584
sg25
S'Y'
sg15
(lp4629
S'k'
asg30
g31
sg17
S'Y'
sg14
I12
sg19
Nsg95
I7
sS'.thisIndex'
p4630
I7
sa(dp4631
g16
(lp4632
S'd'
asg18
S'Y'
sS'.thisRepN'
p4633
I53
sg26
S'Y'
sg20
S'Y'
sg32
g33
sS'.thisTrialN'
p4634
I2
sS'.thisN'
p4635
I585
sg25
S'Y'
sg15
(lp4636
S'k'
asg30
g31
sg17
S'Y'
sg14
I12
sg19
(lp4637
S'space'
p4638
asg95
I9
sS'.thisIndex'
p4639
I9
sa(dp4640
g18
S'N'
sS'.thisRepN'
p4641
I53
sg26
S'Y'
sg20
S'Y'
sg32
g33
sS'.thisTrialN'
p4642
I3
sS'.thisN'
p4643
I586
sg25
S'Y'
sg15
Nsg30
g31
sg17
g2007
sg14
I12
sg19
Nsg95
I9
sS'.thisIndex'
p4644
I9
sa(dp4645
g16
(lp4646
S'd'
asg18
S'N'
sS'.thisRepN'
p4647
I53
sg26
S'Y'
sg20
S'Y'
sg32
g33
sS'.thisTrialN'
p4648
I4
sS'.thisN'
p4649
I587
sg25
S'Y'
sg15
(lp4650
S'k'
asg30
g31
sg17
S'Y'
sg14
I12
sg19
Nsg95
I3
sS'.thisIndex'
p4651
I3
sa(dp4652
g16
(lp4653
S'k'
asg18
S'Y'
sS'.thisRepN'
p4654
I53
sg26
S'Y'
sg20
S'Y'
sg32
g33
sS'.thisTrialN'
p4655
I5
sS'.thisN'
p4656
I588
sg25
S'Y'
sg15
(lp4657
S'd'
asg30
g31
sg17
S'Y'
sg14
I12
sg19
(lp4658
S'space'
p4659
asg95
I5
sS'.thisIndex'
p4660
I5
sa(dp4661
g16
(lp4662
S'k'
asg18
S'N'
sS'.thisRepN'
p4663
I53
sg26
S'Y'
sg20
S'Y'
sg32
g33
sS'.thisTrialN'
p4664
I6
sS'.thisN'
p4665
I589
sg25
S'Y'
sg15
(lp4666
S'd'
asg30
g31
sg17
S'Y'
sg14
I12
sg19
Nsg95
I4
sS'.thisIndex'
p4667
I4
sa(dp4668
g16
(lp4669
S'd'
asg18
S'Y'
sS'.thisRepN'
p4670
I53
sg26
S'Y'
sg20
S'Y'
sg32
g33
sS'.thisTrialN'
p4671
I7
sS'.thisN'
p4672
I590
sg25
S'Y'
sg15
(lp4673
S'k'
asg30
g31
sg17
S'Y'
sg14
I12
sg19
(lp4674
S'space'
p4675
asg95
I1
sS'.thisIndex'
p4676
I1
sa(dp4677
g16
(lp4678
S'k'
asg18
S'N'
sS'.thisRepN'
p4679
I53
sg26
S'Y'
sg20
S'Y'
sg32
g33
sS'.thisTrialN'
p4680
I8
sS'.thisN'
p4681
I591
sg25
S'Y'
sg15
(lp4682
S'd'
asg30
g31
sg17
S'Y'
sg14
I12
sg19
Nsg95
I6
sS'.thisIndex'
p4683
I6
sa(dp4684
g16
(lp4685
S'k'
asg18
S'Y'
sS'.thisRepN'
p4686
I53
sg26
S'Y'
sg20
S'Y'
sg32
g33
sS'.thisTrialN'
p4687
I9
sS'.thisN'
p4688
I592
sg25
S'Y'
sg15
(lp4689
S'd'
asg30
g31
sg17
S'Y'
sg14
I12
sg19
(lp4690
S'space'
p4691
asg95
I4
sS'.thisIndex'
p4692
I4
sa(dp4693
g16
(lp4694
S'd'
asg18
S'Y'
sS'.thisRepN'
p4695
I53
sg26
S'Y'
sg20
S'Y'
sg32
g33
sS'.thisTrialN'
p4696
I10
sS'.thisN'
p4697
I593
sg25
S'Y'
sg15
(lp4698
S'k'
asg30
g31
sg17
S'Y'
sg14
I12
sg19
(lp4699
S'space'
p4700
asg95
I5
sS'.thisIndex'
p4701
I5
sa(dp4702
g16
(lp4703
S'd'
asg18
S'N'
sS'.thisRepN'
p4704
I54
sg26
S'Y'
sg20
S'Y'
sg32
g33
sS'.thisTrialN'
p4705
I0
sS'.thisN'
p4706
I594
sg25
S'Y'
sg15
(lp4707
S'k'
asg30
g31
sg17
S'Y'
sg14
I12
sg19
Nsg95
I3
sS'.thisIndex'
p4708
I3
sa(dp4709
g18
S'Y'
sS'.thisRepN'
p4710
I54
sg26
S'Y'
sg20
S'Y'
sg32
g33
sS'.thisTrialN'
p4711
I1
sS'.thisN'
p4712
I595
sg25
S'Y'
sg15
Nsg30
g31
sg17
g2007
sg14
I12
sg19
(lp4713
S'space'
p4714
asg95
I6
sS'.thisIndex'
p4715
I6
sa(dp4716
g16
(lp4717
S'd'
asg18
S'Y'
sS'.thisRepN'
p4718
I54
sg26
S'Y'
sg20
S'Y'
sg32
g33
sS'.thisTrialN'
p4719
I2
sS'.thisN'
p4720
I596
sg25
S'Y'
sg15
(lp4721
S'k'
asg30
g31
sg17
S'Y'
sg14
I12
sg19
(lp4722
S'space'
p4723
asg95
I10
sS'.thisIndex'
p4724
I10
sa(dp4725
g16
(lp4726
S'k'
asg18
S'N'
sS'.thisRepN'
p4727
I54
sg26
S'Y'
sg20
S'Y'
sg32
g33
sS'.thisTrialN'
p4728
I3
sS'.thisN'
p4729
I597
sg25
S'Y'
sg15
(lp4730
S'd'
asg30
g31
sg17
S'Y'
sg14
I12
sg19
Nsg95
I5
sS'.thisIndex'
p4731
I5
sa(dp4732
g16
(lp4733
S'k'
asg18
S'N'
sS'.thisRepN'
p4734
I54
sg26
S'Y'
sg20
S'Y'
sg32
g33
sS'.thisTrialN'
p4735
I4
sS'.thisN'
p4736
I598
sg25
S'Y'
sg15
(lp4737
S'd'
asg30
g31
sg17
S'Y'
sg14
I12
sg19
Nsg95
I7
sS'.thisIndex'
p4738
I7
sa(dp4739
g16
(lp4740
S'd'
asg18
S'N'
sg22
I47
sg26
S'Y'
sS'.thisN'
p4741
I599
sg20
S'Y'
sg32
g33
sS'.thisTrialN'
p4742
I5
sS'.thisRepN'
p4743
I54
sg21
I46
sg25
S'Y'
sg23
I25
sg15
(lp4744
S'k'
asg30
g31
sg17
S'Y'
sg14
I12
sg19
Nsg95
I6
sS'.thisIndex'
p4745
I6
sasS'loops'
p4746
(lp4747
g1
(g36
g3
NtRp4748
(dp4749
g39
Nsg40
(lp4750
sg41
I78819472
sg10
S''
sg6
g42
sg43
I1
sg27
I01
sg28
Nsg44
g1
(g45
g46
(dp4751
g48
g49
(g50
g51
g52
S'b'
tRp4752
(I1
(I600
I1
tg55
I00
S'\x00\x00\x80?\x00\x00\x80?\x00\x00\x80?\x00\x00\x80?\x00\x00\x80?\x00\x00\x80?\x00\x00\x80?\x00\x00\x80?\x00\x00\x80?\x00\x00\x80?\x00\x00\x80?\x00\x00\x80?\x00\x00\x80?\x00\x00\x80?\x00\x00\x80?\x00\x00\x80?\x00\x00\x80?\x00\x00\x80?\x00\x00\x80?\x00\x00\x80?\x00\x00\x80?\x00\x00\x80?\x00\x00\x80?\x00\x00\x80?\x00\x00\x80?\x00\x00\x80?\x00\x00\x80?\x00\x00\x80?\x00\x00\x80?\x00\x00\x80?\x00\x00\x80?\x00\x00\x80?\x00\x00\x80?\x00\x00\x80?\x00\x00\x80?\x00\x00\x80?\x00\x00\x80?\x00\x00\x80?\x00\x00\x80?\x00\x00\x80?\x00\x00\x80?\x00\x00\x80?\x00\x00\x80?\x00\x00\x80?\x00\x00\x80?\x00\x00\x80?\x00\x00\x80?\x00\x00\x80?\x00\x00\x80?\x00\x00\x80?\x00\x00\x80?\x00\x00\x80?\x00\x00\x80?\x00\x00\x80?\x00\x00\x80?\x00\x00\x80?\x00\x00\x80?\x00\x00\x80?\x00\x00\x80?\x00\x00\x80?\x00\x00\x80?\x00\x00\x80?\x00\x00\x80?\x00\x00\x80?\x00\x00\x80?\x00\x00\x80?\x00\x00\x80?\x00\x00\x80?\x00\x00\x80?\x00\x00\x80?\x00\x00\x80?\x00\x00\x80?\x00\x00\x80?\x00\x00\x80?\x00\x00\x80?\x00\x00\x80?\x00\x00\x80?\x00\x00\x80?\x00\x00\x80?\x00\x00\x80?\x00\x00\x80?\x00\x00\x80?\x00\x00\x80?\x00\x00\x80?\x00\x00\x80?\x00\x00\x80?\x00\x00\x80?\x00\x00\x80?\x00\x00\x80?\x00\x00\x80?\x00\x00\x80?\x00\x00\x80?\x00\x00\x80?\x00\x00\x80?\x00\x00\x80?\x00\x00\x80?\x00\x00\x80?\x00\x00\x80?\x00\x00\x80?\x00\x00\x80?\x00\x00\x80?\x00\x00\x80?\x00\x00\x80?\x00\x00\x80?\x00\x00\x80?\x00\x00\x80?\x00\x00\x80?\x00\x00\x80?\x00\x00\x80?\x00\x00\x80?\x00\x00\x80?\x00\x00\x80?\x00\x00\x80?\x00\x00\x80?\x00\x00\x80?\x00\x00\x80?\x00\x00\x80?\x00\x00\x80?\x00\x00\x80?\x00\x00\x80?\x00\x00\x80?\x00\x00\x80?\x00\x00\x80?\x00\x00\x80?\x00\x00\x80?\x00\x00\x80?\x00\x00\x80?\x00\x00\x80?\x00\x00\x80?\x00\x00\x80?\x00\x00\x80?\x00\x00\x80?\x00\x00\x80?\x00\x00\x80?\x00\x00\x80?\x00\x00\x80?\x00\x00\x80?\x00\x00\x80?\x00\x00\x80?\x00\x00\x80?\x00\x00\x80?\x00\x00\x80?\x00\x00\x80?\x00\x00\x80?\x00\x00\x80?\x00\x00\x80?\x00\x00\x80?\x00\x00\x80?\x00\x00\x80?\x00\x00\x80?\x00\x00\x80?\x00\x00\x80?\x00\x00\x80?\x00\x00\x80?\x00\x00\x80?\x00\x00\x80?\x00\x00\x80?\x00\x00\x80?\x00\x00\x80?\x00\x00\x80?\x00\x00\x80?\x00\x00\x80?\x00\x00\x80?\x00\x00\x80?\x00\x00\x80?\x00\x00\x80?\x00\x00\x80?\x00\x00\x80?\x00\x00\x80?\x00\x00\x80?\x00\x00\x80?\x00\x00\x80?\x00\x00\x80?\x00\x00\x80?\x00\x00\x80?\x00\x00\x80?\x00\x00\x80?\x00\x00\x80?\x00\x00\x80?\x00\x00\x80?\x00\x00\x80?\x00\x00\x80?\x00\x00\x80?\x00\x00\x80?\x00\x00\x80?\x00\x00\x80?\x00\x00\x80?\x00\x00\x80?\x00\x00\x80?\x00\x00\x80?\x00\x00\x80?\x00\x00\x80?\x00\x00\x80?\x00\x00\x80?\x00\x00\x80?\x00\x00\x80?\x00\x00\x80?\x00\x00\x80?\x00\x00\x80?\x00\x00\x80?\x00\x00\x80?\x00\x00\x80?\x00\x00\x80?\x00\x00\x80?\x00\x00\x80?\x00\x00\x80?\x00\x00\x80?\x00\x00\x80?\x00\x00\x80?\x00\x00\x80?\x00\x00\x80?\x00\x00\x80?\x00\x00\x80?\x00\x00\x80?\x00\x00\x80?\x00\x00\x80?\x00\x00\x80?\x00\x00\x80?\x00\x00\x80?\x00\x00\x80?\x00\x00\x80?\x00\x00\x80?\x00\x00\x80?\x00\x00\x80?\x00\x00\x80?\x00\x00\x80?\x00\x00\x80?\x00\x00\x80?\x00\x00\x80?\x00\x00\x80?\x00\x00\x80?\x00\x00\x80?\x00\x00\x80?\x00\x00\x80?\x00\x00\x80?\x00\x00\x80?\x00\x00\x80?\x00\x00\x80?\x00\x00\x80?\x00\x00\x80?\x00\x00\x80?\x00\x00\x80?\x00\x00\x80?\x00\x00\x80?\x00\x00\x80?\x00\x00\x80?\x00\x00\x80?\x00\x00\x80?\x00\x00\x80?\x00\x00\x80?\x00\x00\x80?\x00\x00\x80?\x00\x00\x80?\x00\x00\x80?\x00\x00\x80?\x00\x00\x80?\x00\x00\x80?\x00\x00\x80?\x00\x00\x80?\x00\x00\x80?\x00\x00\x80?\x00\x00\x80?\x00\x00\x80?\x00\x00\x80?\x00\x00\x80?\x00\x00\x80?\x00\x00\x80?\x00\x00\x80?\x00\x00\x80?\x00\x00\x80?\x00\x00\x80?\x00\x00\x80?\x00\x00\x80?\x00\x00\x80?\x00\x00\x80?\x00\x00\x80?\x00\x00\x80?\x00\x00\x80?\x00\x00\x80?\x00\x00\x80?\x00\x00\x80?\x00\x00\x80?\x00\x00\x80?\x00\x00\x80?\x00\x00\x80?\x00\x00\x80?\x00\x00\x80?\x00\x00\x80?\x00\x00\x80?\x00\x00\x80?\x00\x00\x80?\x00\x00\x80?\x00\x00\x80?\x00\x00\x80?\x00\x00\x80?\x00\x00\x80?\x00\x00\x80?\x00\x00\x80?\x00\x00\x80?\x00\x00\x80?\x00\x00\x80?\x00\x00\x80?\x00\x00\x80?\x00\x00\x80?\x00\x00\x80?\x00\x00\x80?\x00\x00\x80?\x00\x00\x80?\x00\x00\x80?\x00\x00\x80?\x00\x00\x80?\x00\x00\x80?\x00\x00\x80?\x00\x00\x80?\x00\x00\x80?\x00\x00\x80?\x00\x00\x80?\x00\x00\x80?\x00\x00\x80?\x00\x00\x80?\x00\x00\x80?\x00\x00\x80?\x00\x00\x80?\x00\x00\x80?\x00\x00\x80?\x00\x00\x80?\x00\x00\x80?\x00\x00\x80?\x00\x00\x80?\x00\x00\x80?\x00\x00\x80?\x00\x00\x80?\x00\x00\x80?\x00\x00\x80?\x00\x00\x80?\x00\x00\x80?\x00\x00\x80?\x00\x00\x80?\x00\x00\x80?\x00\x00\x80?\x00\x00\x80?\x00\x00\x80?\x00\x00\x80?\x00\x00\x80?\x00\x00\x80?\x00\x00\x80?\x00\x00\x80?\x00\x00\x80?\x00\x00\x80?\x00\x00\x80?\x00\x00\x80?\x00\x00\x80?\x00\x00\x80?\x00\x00\x80?\x00\x00\x80?\x00\x00\x80?\x00\x00\x80?\x00\x00\x80?\x00\x00\x80?\x00\x00\x80?\x00\x00\x80?\x00\x00\x80?\x00\x00\x80?\x00\x00\x80?\x00\x00\x80?\x00\x00\x80?\x00\x00\x80?\x00\x00\x80?\x00\x00\x80?\x00\x00\x80?\x00\x00\x80?\x00\x00\x80?\x00\x00\x80?\x00\x00\x80?\x00\x00\x80?\x00\x00\x80?\x00\x00\x80?\x00\x00\x80?\x00\x00\x80?\x00\x00\x80?\x00\x00\x80?\x00\x00\x80?\x00\x00\x80?\x00\x00\x80?\x00\x00\x80?\x00\x00\x80?\x00\x00\x80?\x00\x00\x80?\x00\x00\x80?\x00\x00\x80?\x00\x00\x80?\x00\x00\x80?\x00\x00\x80?\x00\x00\x80?\x00\x00\x80?\x00\x00\x80?\x00\x00\x80?\x00\x00\x80?\x00\x00\x80?\x00\x00\x80?\x00\x00\x80?\x00\x00\x80?\x00\x00\x80?\x00\x00\x80?\x00\x00\x80?\x00\x00\x80?\x00\x00\x80?\x00\x00\x80?\x00\x00\x80?\x00\x00\x80?\x00\x00\x80?\x00\x00\x80?\x00\x00\x80?\x00\x00\x80?\x00\x00\x80?\x00\x00\x80?\x00\x00\x80?\x00\x00\x80?\x00\x00\x80?\x00\x00\x80?\x00\x00\x80?\x00\x00\x80?\x00\x00\x80?\x00\x00\x80?\x00\x00\x80?\x00\x00\x80?\x00\x00\x80?\x00\x00\x80?\x00\x00\x80?\x00\x00\x80?\x00\x00\x80?\x00\x00\x80?\x00\x00\x80?\x00\x00\x80?\x00\x00\x80?\x00\x00\x80?\x00\x00\x80?\x00\x00\x80?\x00\x00\x80?\x00\x00\x80?\x00\x00\x80?\x00\x00\x80?\x00\x00\x80?\x00\x00\x80?\x00\x00\x80?\x00\x00\x80?\x00\x00\x80?\x00\x00\x80?\x00\x00\x80?\x00\x00\x80?\x00\x00\x80?\x00\x00\x80?\x00\x00\x80?\x00\x00\x80?\x00\x00\x80?\x00\x00\x80?\x00\x00\x80?\x00\x00\x80?\x00\x00\x80?\x00\x00\x80?\x00\x00\x80?\x00\x00\x80?\x00\x00\x80?\x00\x00\x80?\x00\x00\x80?\x00\x00\x80?\x00\x00\x80?\x00\x00\x80?\x00\x00\x80?\x00\x00\x80?\x00\x00\x80?\x00\x00\x80?\x00\x00\x80?\x00\x00\x80?\x00\x00\x80?\x00\x00\x80?\x00\x00\x80?\x00\x00\x80?\x00\x00\x80?\x00\x00\x80?\x00\x00\x80?\x00\x00\x80?\x00\x00\x80?\x00\x00\x80?\x00\x00\x80?\x00\x00\x80?\x00\x00\x80?\x00\x00\x80?\x00\x00\x80?\x00\x00\x80?\x00\x00\x80?\x00\x00\x80?\x00\x00\x80?\x00\x00\x80?\x00\x00\x80?\x00\x00\x80?\x00\x00\x80?\x00\x00\x80?\x00\x00\x80?\x00\x00\x80?\x00\x00\x80?\x00\x00\x80?\x00\x00\x80?\x00\x00\x80?\x00\x00\x80?\x00\x00\x80?\x00\x00\x80?\x00\x00\x80?\x00\x00\x80?\x00\x00\x80?\x00\x00\x80?\x00\x00\x80?\x00\x00\x80?\x00\x00\x80?\x00\x00\x80?\x00\x00\x80?\x00\x00\x80?\x00\x00\x80?\x00\x00\x80?\x00\x00\x80?\x00\x00\x80?\x00\x00\x80?\x00\x00\x80?\x00\x00\x80?\x00\x00\x80?\x00\x00\x80?\x00\x00\x80?\x00\x00\x80?\x00\x00\x80?\x00\x00\x80?\x00\x00\x80?\x00\x00\x80?\x00\x00\x80?\x00\x00\x80?\x00\x00\x80?\x00\x00\x80?\x00\x00\x80?\x00\x00\x80?\x00\x00\x80?\x00\x00\x80?\x00\x00\x80?\x00\x00\x80?\x00\x00\x80?\x00\x00\x80?\x00\x00\x80?\x00\x00\x80?\x00\x00\x80?\x00\x00\x80?\x00\x00\x80?\x00\x00\x80?\x00\x00\x80?\x00\x00\x80?\x00\x00\x80?\x00\x00\x80?\x00\x00\x80?\x00\x00\x80?\x00\x00\x80?\x00\x00\x80?\x00\x00\x80?\x00\x00\x80?\x00\x00\x80?\x00\x00\x80?\x00\x00\x80?\x00\x00\x80?\x00\x00\x80?\x00\x00\x80?\x00\x00\x80?\x00\x00\x80?\x00\x00\x80?\x00\x00\x80?\x00\x00\x80?\x00\x00\x80?\x00\x00\x80?\x00\x00\x80?\x00\x00\x80?\x00\x00\x80?\x00\x00\x80?\x00\x00\x80?\x00\x00\x80?\x00\x00\x80?\x00\x00\x80?\x00\x00\x80?\x00\x00\x80?\x00\x00\x80?\x00\x00\x80?\x00\x00\x80?\x00\x00\x80?\x00\x00\x80?\x00\x00\x80?\x00\x00\x80?\x00\x00\x80?\x00\x00\x80?\x00\x00\x80?\x00\x00\x80?\x00\x00\x80?\x00\x00\x80?\x00\x00\x80?\x00\x00\x80?\x00\x00\x80?\x00\x00\x80?'
S'\x00\x00\x00\x00\x00\x00\x00\x00\x00\x00\x00\x00\x00\x00\x00\x00\x00\x00\x00\x00\x00\x00\x00\x00\x00\x00\x00\x00\x00\x00\x00\x00\x00\x00\x00\x00\x00\x00\x00\x00\x00\x00\x00\x00\x00\x00\x00\x00\x00\x00\x00\x00\x00\x00\x00\x00\x00\x00\x00\x00\x00\x00\x00\x00\x00\x00\x00\x00\x00\x00\x00\x00\x00\x00\x00\x00\x00\x00\x00\x00\x00\x00\x00\x00\x00\x00\x00\x00\x00\x00\x00\x00\x00\x00\x00\x00\x00\x00\x00\x00\x00\x00\x00\x00\x00\x00\x00\x00\x00\x00\x00\x00\x00\x00\x00\x00\x00\x00\x00\x00\x00\x00\x00\x00\x00\x00\x00\x00\x00\x00\x00\x00\x00\x00\x00\x00\x00\x00\x00\x00\x00\x00\x00\x00\x00\x00\x00\x00\x00\x00\x00\x00\x00\x00\x00\x00\x00\x00\x00\x00\x00\x00\x00\x00\x00\x00\x00\x00\x00\x00\x00\x00\x00\x00\x00\x00\x00\x00\x00\x00\x00\x00\x00\x00\x00\x00\x00\x00\x00\x00\x00\x00\x00\x00\x00\x00\x00\x00\x00\x00\x00\x00\x00\x00\x00\x00\x00\x00\x00\x00\x00\x00\x00\x00\x00\x00\x00\x00\x00\x00\x00\x00\x00\x00\x00\x00\x00\x00\x00\x00\x00\x00\x00\x00\x00\x00\x00\x00\x00\x00\x00\x00\x00\x00\x00\x00\x00\x00\x00\x00\x00\x00\x00\x00\x00\x00\x00\x00\x00\x00\x00\x00\x00\x00\x00\x00\x00\x00\x00\x00\x00\x00\x00\x00\x00\x00\x00\x00\x00\x00\x00\x00\x00\x00\x00\x00\x00\x00\x00\x00\x00\x00\x00\x00\x00\x00\x00\x00\x00\x00\x00\x00\x00\x00\x00\x00\x00\x00\x00\x00\x00\x00\x00\x00\x00\x00\x00\x00\x00\x00\x00\x00\x00\x00\x00\x00\x00\x00\x00\x00\x00\x00\x00\x00\x00\x00\x00\x00\x00\x00\x00\x00\x00\x00\x00\x00\x00\x00\x00\x00\x00\x00\x00\x00\x00\x00\x00\x00\x00\x00\x00\x00\x00\x00\x00\x00\x00\x00\x00\x00\x00\x00\x00\x00\x00\x00\x00\x00\x00\x00\x00\x00\x00\x00\x00\x00\x00\x00\x00\x00\x00\x00\x00\x00\x00\x00\x00\x00\x00\x00\x00\x00\x00\x00\x00\x00\x00\x00\x00\x00\x00\x00\x00\x00\x00\x00\x00\x00\x00\x00\x00\x00\x00\x00\x00\x00\x00\x00\x00\x00\x00\x00\x00\x00\x00\x00\x00\x00\x00\x00\x00\x00\x00\x00\x00\x00\x00\x00\x00\x00\x00\x00\x00\x00\x00\x00\x00\x00\x00\x00\x00\x00\x00\x00\x00\x00\x00\x00\x00\x00\x00\x00\x00\x00\x00\x00\x00\x00\x00\x00\x00\x00\x00\x00\x00\x00\x00\x00\x00\x00\x00\x00\x00\x00\x00\x00\x00\x00\x00\x00\x00\x00\x00\x00\x00\x00\x00\x00\x00\x00\x00\x00\x00\x00\x00\x00\x00\x00\x00\x00\x00\x00\x00\x00\x00\x00\x00\x00\x00\x00\x00\x00\x00\x00\x00\x00\x00\x00\x00\x00\x00\x00\x00\x00\x00\x00\x00\x00\x00\x00\x00\x00\x00\x00\x00\x00\x00\x00\x00\x00\x00\x00\x00\x00\x00\x00\x00\x00\x00\x00\x00\x00\x00\x00\x00\x00\x00\x00\x00\x00\x00\x00\x00\x00\x00\x00\x00\x00\x00\x00\x00\x00\x00\x00\x00\x00\x00\x00\x00\x00'
Ntbsg56
g49
(g50
g51
g52
S'b'
tRp4753
(I1
(I600
I1
tg55
I00
S'\x00\x00lB\x00\x80\xc8C\x00\x00\xa4C\x00\x00\xa8B\x00\xc0\x10D\x00\x00eC\x00\x00\xb2C\x00\x000B\x00\x00oC\x00\x00rC\x00\x00@B\x00\x00wC\x00\x00\x9eC\x00\x00\xbbC\x00\x00\xadC\x00\x00EC\x00\x00\x07C\x00\x80\xadC\x00\x80\x86C\x00\x00\xf6B\x00\x00\x1cC\x00\x00\xd2C\x00\x80\x00D\x00\x00\x92C\x00\x00\x88A\x00\x00\xc4C\x00\x80\x10D\x00\x80\xe7C\x00\x80\xe2C\x00\x80\xeaC\x00\x00\x89C\x00\x80\rD\x00\x00\xf8A\x00\x80\xc0C\x00\x00 C\x00\x00pA\x00\x00\x91C\x00\x00\nD\x00\x80\x93C\x00\x00\x94B\x00\x80\xf1C\x00\x00\xb1C\x00\x80\x97C\x00\x00\x95C\x00\x00aC\x00\x80\xa3C\x00\x00\x12C\x00\x00)C\x00\xc0\x06D\x00\xc0\rD\x00\x00\xf2B\x00\x00\xb3C\x00\x007C\x00\x00\xfbC\x00\x00<C\x00\x00dB\x00\x00\x90B\x00\x00XC\x00@\x03D\x00\x80\xd2C\x00\x00\xccB\x00\x00tB\x00\x80\x0fD\x00\x00@A\x00\x00\xf5C\x00\x00\xa0A\x00\x00\xc0C\x00\x80\xa6C\x00\x00\x0fC\x00\x00\x96C\x00\x00\xdcB\x00\x00\xd6B\x00\x00\xd2B\x00\x80\xfaC\x00\x00\xebC\x00\x00\x96B\x00\x00\'C\x00\x00\xe0@\x00\x80\x0cD\x00\x00DC\x00\x80\xe8C\x00\x00\x99C\x00\x00}C\x00\x80\x9fC\x00\x00\xe8A\x00\x00dC\x00@\x08D\x00@\x14D\x00\x80\xa0C\x00\x00\xc4B\x00\x00\xc6C\x00\x00\x80C\x00\x00\xe0A\x00\x00\xb4C\x00\x00LC\x00\xc0\x0fD\x00\x00\xdeB\x00\x80\xb5C\x00\x80\x88C\x00\x80\x81C\x00\x00\x1fC\x00\x80\xa4C\x00\x001C\x00\x80\xf0C\x00\x00\x10C\x00\x00\x08B\x00\x00JC\x00\x00\xc6B\x00\x00\tD\x00\x00\x87C\x00\xc0\x00D\x00\x00\xb8B\x00\x80\x96C\x00@\x0cD\x00\x00\x01D\x00\x00PA\x00\x80\x95C\x00@\x10D\x00\x00\x03C\x00\x00\xa6C\x00\x80\xdeC\x00\x80\xecC\x00\x00\xf8C\x00\x00\x86B\x00\x80\xacC\x00\xc0\x0bD\x00\x00\xe1C\x00\x00\xdfC\x00\x00`C\x00\x00\xa2B\x00\x00\x7fC\x00\x00SC\x00\x00\xc8A\x00\x00hC\x00\x80\x85C\x00\x00\x0eC\x00\x00\x9bC\x00\x00\xf8B\x00\x00\xd8C\x00\x00\x80A\x00\x00\x0fD\x00@\x02D\x00\x00`A\x00\x00cC\x00\x00\x03D\x00\xc0\x08D\x00\x00\xe2C\x00\x00YC\x00\x00\rC\x00\x00>C\x00\x00_C\x00\x80\xffC\x00\x00\xc1C\x00\x00\x1bC\x00\x00\xcaB\x00\x00\x15D\x00\x80\xdbC\x00\x00\x1dC\x00\xc0\x03D\x00\x80\xd3C\x00\x80\xf8C\x00\x00\x04C\x00\x00\x18B\x00\x00\x8bC\x00\x00%C\x00\x80\xd0C\x00\x00\xecC\x00\x80\xb1C\x00@\tD\x00@\x11D\x00\x00 B\x00\xc0\x12D\x00\x00{C\x00\x80\xe4C\x00\x00\xa7C\x00\x00xB\x00\x80\x87C\x00\x00\x0cC\x00\x00WC\x00\x00\xc8C\x00\xc0\x04D\x00\xc0\x01D\x00\x00\x1eC\x00\x000A\x00\x80\xbdC\x00\x00*C\x00@\x12D\x00\x00\xd9C\x00\x00\xa8C\x00\x80\xd1C\x00\x00\x9aB\x00\x00<B\x00\x00\xacB\x00\x00\xc0@\x00\x00\xaeC\x00\x80\xd8C\x00\x00\x80B\x00\x80\x91C\x00\x00\xd4B\x00\x00xC\x00\x00hB\x00\x00\xa2C\x00\x00\x84C\x00\x80\xe3C\x00\x00\xd6C\x00\x00(B\x00\x00\xa0C\x00\x00VC\x00\x00\x05D\x00\x00$C\x00\x80\x14D\x00\x80\xabC\x00\x00\x00A\x00\x80\x98C\x00\x002C\x00\x00\xb2B\x00\x00\x02C\x00\x80\xb3C\x00\x00:C\x00\x80\x0bD\x00\x00\xa1C\x00\x008B\x00\x80\xd6C\x00\x00\x8cB\x00\x00\x98B\x00\x00\x8fC\x00\x00\xbeB\x00\x00\xeaC\x00\x00\xb8A\x00\x80\x08D\x00\xc0\x14D\x00\x00\x10A\x00\x00\x90C\x00\x00\xb0B\x00\x00\xfaC\x00\x00PB\x00\x00\xd0B\x00\x003C\x00\x00\xeaB\x00\x00\xbdC\x00\x00\xd1C\x00\x00\xcbC\x00\x80\xaeC\x00\x80\x13D\x00\xc0\x05D\x00\x00\xf0C\x00\x00BC\x00\x00\xe6C\x00@\rD\x00\x80\x02D\x00\x00\xfaB\x00\x00\x16C\x00\x80\xdcC\x00\x00\xe0C\x00\x00\x17C\x00\x00(C\x00\x00\x9dC\x00\x00\xe5C\x00\x00=C\x00\x00\xdaC\x00\x00\xb6B\x00\x004C\x00\x00\xb0C\x00\x00\x08D\x00\x00\xfcC\x00\x80\xc5C\x00\x00GC\x00\x80\x8eC\x00\x00.C\x00\x00\x9eB\x00\x00vC\x00\x00\xbaB\x00\x80\xd9C\x00@\x07D\x00\x00\\B\x00\x00\x07D\x00\x80\xd4C\x00\x80\xf5C\x00\x00\xa9C\x00@\x06D\x00\x00\x9fC\x00\xc0\x11D\x00\x00\x86C\x00\x80\xc2C\x00\x00\x12D\x00\x00\x15C\x00\x80\xb8C\x00\x006C\x00\x00\x00D\x00\x00gC\x00\x00PC\x00\x00\x8aC\x00\x00\x9cC\x00\x80\x92C\x00\x00;C\x00\xc0\x15D\x00\x00\xb5C\x00\x00\xcaC\x00\x00\x11D\x00\x00\xf1C\x00\x00\xf4C\x00\x80\xcbC\x00\x00\x01C\x00\x00\x9cB\x00\x00lC\x00\x00\xaaC\x00@\x01D\x00\x00\xd8A\x00\x80\xfcC\x00\x80\xd5C\x00\x00yC\x00\x00sC\x00\x00\x08C\x00\x80\xf9C\x00\x00\xb6C\x00\x00\xc0B\x00\x00UC\x00\xc0\x0eD\x00\x00\x14D\x00\x00FC\x00\x00\xdaB\x00\x00 A\x00\x80\x89C\x00\x00\xa5C\x00\x80\nD\x00\x80\x90C\x00\x80\xc1C\x00\x00,B\x00\x00\xaaB\x00\x00\xe4C\x00\x00\xcfC\x00\x80\xfdC\x00\x00\x98C\x00\x00CC\x00\x80\x80C\x00\x80\xc7C\x00\x00\x13C\x00\x80\xa1C\x00\x00\x14C\x00\x80\xedC\x00\x80\xcdC\x00\x00\xf9C\x00\x00\xcdC\x00\x00\x10D\x00\x80\xbaC\x00\x80\x8fC\x00\x00\x00@\x00\x00NC\x00\x00\xedC\x00\x00\x84B\x00@\nD\x00\x00HB\x00\x00\xa0@\x00\x80\x9aC\x00\x00\xceB\x00\x80\xc4C\x00\x00QC\x00\x00\x00C\x00\x00\x81C\x00\x00jC\x00\x00#C\x00\x00\xfdC\x00\x00-C\x00\x00\x00B\x00\x00\x0bD\x00\x00\x11C\x00\x80\x9dC\x00\x00\xc3C\x00\x80\xb2C\x00@\x15D\x00\x00\xbcB\x00\x00\xe0B\x00\x80\xa5C\x00\x00\nC\x00\x00\xf0A\x00@\x04D\x00\x80\xf4C\x00\x00\x8cC\x00@\x00D\x00\x80\xceC\x00\x00\x1aC\x00\x80\xcfC\x00\x80\xb4C\x00\x80\xa7C\x00\x80\xefC\x00\x00\xeeB\x00@\x0bD\x00\x80\xb0C\x00\x80\x03D\x00\x008C\x00\x80\xb7C\x00\x00\xd7C\x00\x00\xb4B\x00\x80\tD\x00\x00\xa8A\x00\x00@@\x00\x00\x98A\x00\x00\xe2B\x00\x80\xcaC\x00\x80\x9bC\x00\x80\x07D\x00\x80\x94C\x00\x80\xfeC\x00\x80\xddC\x00\x80\x15D\x00\x00mC\x00\x00\x19C\x00\x00/C\x00\x00\xffC\x00\x00TB\x00\x80\xa9C\x00\x00\xa6B\x00\x00\xd8B\x00\x80\x82C\x00\x80\x84C\x00\x00\xccC\x00\x80\xfbC\x00\x80\x01D\x00\x00~C\x00\x00DB\x00\x80\xaaC\x00\x00\x92B\x00\x00\xe8C\x00\x00\x9aC\x00\x80\xf6C\x00\x00\xf0B\x00\x00\x82B\x00\x80\x8aC\x00\x00\x94C\x00\x00+C\x00\x80\xb6C\x00\x00bC\x00\x00\x83C\x00\x00\xe9C\x00\x80\x11D\x00\x00\xe3C\x00\x80\xdaC\x00\x80\x8cC\x00\x00]C\x00\x80\xafC\x00\x00\x04D\x00\x00RC\x00\x00\rD\x00\x00\xaeB\x00\x80\xe9C\x00\x00\x0bC\x00\x00\xc9C\x00\xc0\x0cD\x00\x00nC\x00\x80\x99C\x00\x80\xbfC\x00\x00fC\x00\x00\xfeB\x00\x009C\x00\x00\xabC\x00\x00\x13D\x00@\x05D\x00\x00\xdbC\x00\x00\xd5C\x00\x00\xd4C\x00\x00TC\x00\x00\xb0A\x00\x00@C\x00\x00\x0cB\x00\x00\x8dC\x00\x00\xbcC\x00\x80\xbbC\x00\x000C\x00\x00\x88C\x00\x00\xc2B\x00\x00\x0cD\x00\x00\xbeC\x00\x00\xacC\x00\x00`B\x00\x00\xc5C\x00\x00&C\x00\x00\x06D\x00\x80\x04D\x00\x00pB\x00\x80\xbeC\x00\x00\xdcC\x00\x00KC\x00\x00\xc8B\x00\x80\xa8C\x00\x80\xc9C\x00\x00\xb8C\x00\x80\x9cC\x00\x00\x82C\x00\x00tC\x00\x00$B\x00\x00\xf4B\x00\x00XB\x00\x00\xe7C\x00\x80\x05D\x00\x00\x8aB\x00\x00\xc0A\x00\x00\xf2C\x00\x00\x97C\x00\x80\xeeC\x00\x00\xecB\x00\x80\xc6C\x00\x00\xa4B\x00\x00\tC\x00\x80\xe0C\x00\x00\xa0B\x00\x80\xd7C\x00\x00\xe4B\x00\x00\xddC\x00\x00pC\x00\x00\x14B\x00\x00\xf6C\x00\x00\xe6B\x00\x00AC\x00\x00\x10B\x00\x00\x90A\x00\x00\xefC\x00\x00\xd0C\x00\x00iC\x00\x80\xa2C\x00\x00zC\x00\x00\x00\x00\x00\x00\xd0A\x00\x00HC\x00\x00?C\x00\x80\x8dC\x00\x00\xf3C\x00\x00\x93C\x00\x004B\x00\x00\xbfC\x00\x80\xccC\x00\x80\x12D\x00@\x0eD\x00\x00\xd3C\x00\x00\x80?\x00\x80\xdfC\x00\x00\\C\x00\x00"C\x00\xc0\nD\x00\x00\xdeC\x00\xc0\tD\x00\x00\x85C\x00\x00\xbaC\x00@\x0fD\x00\x00uC\x00\x00ZC\x00\x00!C\x00\x00\xfcB\x00\x00\x1cB\x00\x80\xf7C\x00\x00\xe8B\x00\x00\x8eC\x00\x00qC\x00\x80\xe6C\x00\xc0\x02D\x00\x80\xf2C\x00\x00\xeeC\x00\x00OC\x00\x005C\x00\x00IC\x00\x80\xf3C\x00\x80\x0eD\x00\x00\xafC\x00\x00\xc7C\x00\x00\x04B\x00@\x13D\x00\x00\xfeC\x00\x00\x02D\x00\x00\xc2C\x00\x80\x06D\x00\x80\xbcC\x00\x80\xebC\x00\x00\xa3C\x00\x00|C\x00\x80\xe5C\x00\x00\x06C\x00\x00\xb7C\x00\x00\x80@\x00\x00\xf7C\x00\x80\xc3C\x00\x00\x05C\x00\x00MC\x00\x80\xb9C\x00\xc0\x13D\x00\x80\x83C\x00\x00\x18C\x00\xc0\x07D\x00\x00LB\x00\x00\xb9C\x00\x80\x9eC\x00\x00\x88B\x00\x00|B\x00\x00\x8eB\x00\x00,C\x00\x00\xceC\x00\x00kC\x00\x00[C\x00\x00\x0eD\x00\x80\xe1C\x00\x80\x8bC\x00\x00^C'
S'\x00\x00\x00\x00\x00\x00\x00\x00\x00\x00\x00\x00\x00\x00\x00\x00\x00\x00\x00\x00\x00\x00\x00\x00\x00\x00\x00\x00\x00\x00\x00\x00\x00\x00\x00\x00\x00\x00\x00\x00\x00\x00\x00\x00\x00\x00\x00\x00\x00\x00\x00\x00\x00\x00\x00\x00\x00\x00\x00\x00\x00\x00\x00\x00\x00\x00\x00\x00\x00\x00\x00\x00\x00\x00\x00\x00\x00\x00\x00\x00\x00\x00\x00\x00\x00\x00\x00\x00\x00\x00\x00\x00\x00\x00\x00\x00\x00\x00\x00\x00\x00\x00\x00\x00\x00\x00\x00\x00\x00\x00\x00\x00\x00\x00\x00\x00\x00\x00\x00\x00\x00\x00\x00\x00\x00\x00\x00\x00\x00\x00\x00\x00\x00\x00\x00\x00\x00\x00\x00\x00\x00\x00\x00\x00\x00\x00\x00\x00\x00\x00\x00\x00\x00\x00\x00\x00\x00\x00\x00\x00\x00\x00\x00\x00\x00\x00\x00\x00\x00\x00\x00\x00\x00\x00\x00\x00\x00\x00\x00\x00\x00\x00\x00\x00\x00\x00\x00\x00\x00\x00\x00\x00\x00\x00\x00\x00\x00\x00\x00\x00\x00\x00\x00\x00\x00\x00\x00\x00\x00\x00\x00\x00\x00\x00\x00\x00\x00\x00\x00\x00\x00\x00\x00\x00\x00\x00\x00\x00\x00\x00\x00\x00\x00\x00\x00\x00\x00\x00\x00\x00\x00\x00\x00\x00\x00\x00\x00\x00\x00\x00\x00\x00\x00\x00\x00\x00\x00\x00\x00\x00\x00\x00\x00\x00\x00\x00\x00\x00\x00\x00\x00\x00\x00\x00\x00\x00\x00\x00\x00\x00\x00\x00\x00\x00\x00\x00\x00\x00\x00\x00\x00\x00\x00\x00\x00\x00\x00\x00\x00\x00\x00\x00\x00\x00\x00\x00\x00\x00\x00\x00\x00\x00\x00\x00\x00\x00\x00\x00\x00\x00\x00\x00\x00\x00\x00\x00\x00\x00\x00\x00\x00\x00\x00\x00\x00\x00\x00\x00\x00\x00\x00\x00\x00\x00\x00\x00\x00\x00\x00\x00\x00\x00\x00\x00\x00\x00\x00\x00\x00\x00\x00\x00\x00\x00\x00\x00\x00\x00\x00\x00\x00\x00\x00\x00\x00\x00\x00\x00\x00\x00\x00\x00\x00\x00\x00\x00\x00\x00\x00\x00\x00\x00\x00\x00\x00\x00\x00\x00\x00\x00\x00\x00\x00\x00\x00\x00\x00\x00\x00\x00\x00\x00\x00\x00\x00\x00\x00\x00\x00\x00\x00\x00\x00\x00\x00\x00\x00\x00\x00\x00\x00\x00\x00\x00\x00\x00\x00\x00\x00\x00\x00\x00\x00\x00\x00\x00\x00\x00\x00\x00\x00\x00\x00\x00\x00\x00\x00\x00\x00\x00\x00\x00\x00\x00\x00\x00\x00\x00\x00\x00\x00\x00\x00\x00\x00\x00\x00\x00\x00\x00\x00\x00\x00\x00\x00\x00\x00\x00\x00\x00\x00\x00\x00\x00\x00\x00\x00\x00\x00\x00\x00\x00\x00\x00\x00\x00\x00\x00\x00\x00\x00\x00\x00\x00\x00\x00\x00\x00\x00\x00\x00\x00\x00\x00\x00\x00\x00\x00\x00\x00\x00\x00\x00\x00\x00\x00\x00\x00\x00\x00\x00\x00\x00\x00\x00\x00\x00\x00\x00\x00\x00\x00\x00\x00\x00\x00\x00\x00\x00\x00\x00\x00\x00\x00\x00\x00\x00\x00\x00\x00\x00\x00\x00\x00\x00\x00\x00\x00\x00\x00\x00\x00\x00\x00\x00\x00\x00\x00\x00\x00\x00\x00\x00\x00\x00\x00\x00\x00\x00\x00'
NtbstRp4754
(dp4755
g60
(dp4756
g48
I01
sg56
I01
ssg62
g4748
sg63
(lp4757
g48
ag56
asg65
(lp4758
I600
aI1
asbsg67
S'random'
p4759
sg69
g70
(g51
(I0
tS'b'
tRp4760
(I1
(I600
I1
tg54
(S'i4'
I0
I1
tRp4761
(I3
S'<'
NNNI-1
I-1
I0
tbI01
S'\x08\x02\x00\x00\x15\x02\x00\x00Z\x01\x00\x00\x8b\x01\x00\x00@\x02\x00\x00`\x01\x00\x00\xc1\x00\x00\x00M\x00\x00\x00\xd4\x00\x00\x00\xe7\x00\x00\x00A\x01\x00\x00\xb7\x00\x00\x00?\x00\x00\x00s\x00\x00\x00\x8e\x00\x00\x00#\x00\x00\x00\x8b\x00\x00\x00\x18\x00\x00\x00\x02\x02\x00\x00\x8c\x01\x00\x00A\x00\x00\x00\x8a\x01\x00\x00\xcd\x01\x00\x00\xe4\x00\x00\x00\xef\x01\x00\x00\x84\x00\x00\x00\t\x02\x00\x003\x01\x00\x00\\\x00\x00\x00T\x00\x00\x00v\x01\x00\x00 \x00\x00\x00k\x01\x00\x003\x02\x00\x00i\x00\x00\x00\xcf\x01\x00\x00\x01\x02\x00\x00\xfd\x01\x00\x00\xa2\x00\x00\x00#\x02\x00\x00\xaa\x00\x00\x00\xe9\x01\x00\x00\xcd\x00\x00\x00G\x01\x00\x00\x07\x00\x00\x00\x0f\x02\x00\x00\xdd\x00\x00\x00\xbf\x00\x00\x00\n\x00\x00\x00\xa3\x01\x00\x00_\x01\x00\x00J\x02\x00\x00\xeb\x00\x00\x00\x99\x01\x00\x00\xeb\x01\x00\x00\x12\x01\x00\x00\xd9\x01\x00\x007\x00\x00\x00\xc8\x00\x00\x00\x00\x00\x00\x00\xde\x01\x00\x00=\x00\x00\x00\xaf\x00\x00\x00N\x02\x00\x00\xc4\x00\x00\x00\xaa\x01\x00\x00]\x01\x00\x00{\x00\x00\x00M\x02\x00\x00\xee\x01\x00\x00\xdf\x00\x00\x00O\x02\x00\x008\x00\x00\x00\xa5\x01\x00\x00\'\x00\x00\x00K\x00\x00\x00\xe0\x00\x00\x00\xbe\x00\x00\x00/\x01\x00\x00\r\x01\x00\x00\xf8\x01\x00\x00\x81\x00\x00\x00\xf5\x01\x00\x00\x9b\x01\x00\x00\x03\x00\x00\x00H\x01\x00\x00\xc0\x00\x00\x00\xbb\x01\x00\x00\xe9\x00\x00\x00\xd7\x00\x00\x00\x88\x01\x00\x00\x04\x01\x00\x00o\x00\x00\x00\x0f\x01\x00\x00r\x01\x00\x00\xe2\x00\x00\x00;\x01\x00\x00\xd5\x01\x00\x00Y\x00\x00\x00k\x00\x00\x00\xe2\x01\x00\x00\x9a\x00\x00\x00<\x00\x00\x00b\x01\x00\x00\xec\x00\x00\x00H\x00\x00\x00\xc6\x00\x00\x00G\x00\x00\x00\x9c\x01\x00\x00@\x01\x00\x00F\x00\x00\x00`\x00\x00\x00s\x01\x00\x00\x8d\x01\x00\x00\xfa\x01\x00\x00\xff\x01\x00\x00%\x02\x00\x00\xee\x00\x00\x00\xf3\x01\x00\x00\x81\x01\x00\x00\xa9\x01\x00\x002\x00\x00\x00\xea\x01\x00\x00\x13\x00\x00\x00\x89\x00\x00\x00\xfa\x00\x00\x00"\x02\x00\x00\xc4\x01\x00\x00e\x01\x00\x00.\x01\x00\x00\xd8\x00\x00\x00v\x00\x00\x00\xa1\x00\x00\x00C\x02\x00\x00>\x02\x00\x00\x10\x00\x00\x008\x01\x00\x00\xf6\x01\x00\x00u\x01\x00\x00\xbd\x01\x00\x00\xb1\x00\x00\x00\x94\x00\x00\x00\x87\x00\x00\x00D\x00\x00\x00h\x00\x00\x00m\x01\x00\x00.\x00\x00\x00P\x01\x00\x00R\x01\x00\x00\x1d\x01\x00\x00\xfb\x00\x00\x00\xfe\x00\x00\x00H\x02\x00\x00\x96\x01\x00\x00|\x01\x00\x00\x99\x00\x00\x00\x14\x00\x00\x00\x9d\x00\x00\x00\xb6\x00\x00\x00d\x00\x00\x00"\x00\x00\x00!\x02\x00\x00\x18\x02\x00\x00h\x01\x00\x00\xd1\x00\x00\x00\xa4\x00\x00\x00\xdb\x01\x00\x00L\x00\x00\x00\xff\x00\x00\x00/\x00\x00\x00\xb9\x00\x00\x00\xad\x01\x00\x00P\x02\x00\x00j\x01\x00\x00\x0c\x01\x00\x00\x97\x01\x00\x00\xd3\x01\x00\x00f\x00\x00\x00\xd6\x00\x00\x00\xed\x00\x00\x00\x05\x01\x00\x00-\x02\x00\x00\x1f\x01\x00\x004\x00\x00\x00\x85\x01\x00\x00\xc5\x01\x00\x00\xda\x00\x00\x00&\x01\x00\x006\x00\x00\x00\x02\x01\x00\x00\x95\x00\x00\x00\x0b\x02\x00\x00\xce\x01\x00\x00\x00\x02\x00\x00\xf6\x00\x00\x00M\x01\x00\x00O\x00\x00\x00\x0f\x00\x00\x00?\x01\x00\x00\n\x01\x00\x00\n\x02\x00\x00.\x02\x00\x00j\x00\x00\x00\xe1\x01\x00\x00^\x00\x00\x00D\x02\x00\x00[\x01\x00\x00,\x02\x00\x00"\x01\x00\x00d\x01\x00\x00\xb9\x01\x00\x00\x83\x00\x00\x00\xcc\x01\x00\x00<\x01\x00\x00\xcf\x00\x00\x00\xb2\x00\x00\x009\x00\x00\x00\x93\x00\x00\x00 \x02\x00\x00S\x02\x00\x00\x17\x02\x00\x00\xb6\x01\x00\x00W\x02\x00\x00\x96\x00\x00\x00\x80\x00\x00\x00,\x00\x00\x00\xaf\x01\x00\x00\x8f\x00\x00\x00U\x00\x00\x00\x05\x00\x00\x00\xc3\x01\x00\x00!\x01\x00\x00\x85\x00\x00\x00\x05\x02\x00\x00g\x01\x00\x00R\x02\x00\x000\x01\x00\x00\x95\x01\x00\x00\xc0\x01\x00\x00\x08\x00\x00\x00\xfc\x01\x00\x00\'\x02\x00\x00\t\x00\x00\x007\x01\x00\x00\xe8\x01\x00\x00\x1f\x02\x00\x00\x0e\x01\x00\x00\x0b\x00\x00\x00\xc7\x00\x00\x006\x01\x00\x00\x07\x02\x00\x00\xac\x00\x00\x00<\x02\x00\x00R\x00\x00\x00\xa2\x01\x00\x00\x82\x00\x00\x00[\x00\x00\x00N\x01\x00\x00f\x01\x00\x00c\x00\x00\x00\xe7\x01\x00\x00\x9d\x01\x00\x00\xb0\x01\x00\x00G\x02\x00\x00\xca\x00\x00\x00\x9e\x01\x00\x00\x1c\x02\x00\x00\x86\x00\x00\x00\x1a\x01\x00\x00\x12\x00\x00\x00m\x00\x00\x00\xb0\x00\x00\x00\xd4\x01\x00\x00b\x00\x00\x00\x1e\x00\x00\x00B\x01\x00\x00#\x01\x00\x00\xab\x01\x00\x00\xa3\x00\x00\x00V\x02\x00\x00y\x01\x00\x00\xb5\x01\x00\x00\xd0\x01\x00\x00\x0c\x02\x00\x00&\x02\x00\x00\x0b\x01\x00\x00\xe1\x00\x00\x00Y\x01\x00\x00\xe8\x00\x00\x00E\x01\x00\x00$\x00\x00\x00\xc5\x00\x00\x00\x17\x00\x00\x00%\x01\x00\x00\x0e\x02\x00\x00&\x00\x00\x00\xac\x01\x00\x00\x91\x01\x00\x00+\x00\x00\x00t\x00\x00\x00E\x00\x00\x00p\x00\x00\x00\xf1\x01\x00\x00*\x00\x00\x00L\x01\x00\x00\xd5\x00\x00\x00Q\x00\x00\x00\xc1\x01\x00\x00\xa7\x01\x00\x00a\x01\x00\x00\x88\x00\x00\x00\x8f\x01\x00\x00$\x01\x00\x00\xe6\x01\x00\x00\x00\x01\x00\x00n\x01\x00\x00\x0c\x00\x00\x00L\x02\x00\x00\x18\x01\x00\x00S\x00\x00\x00\xce\x00\x00\x00X\x00\x00\x00\xdc\x00\x00\x00Q\x01\x00\x00\xc9\x00\x00\x00\x06\x02\x00\x00;\x02\x00\x00-\x00\x00\x00\x02\x00\x00\x00e\x00\x00\x00C\x01\x00\x00t\x01\x00\x00w\x00\x00\x00C\x00\x00\x00\xae\x00\x00\x00\x7f\x01\x00\x00\xbc\x00\x00\x00\xe3\x01\x00\x00\x16\x01\x00\x00\x9a\x01\x00\x001\x01\x00\x00\xa4\x01\x00\x00\xc6\x01\x00\x00\xd3\x00\x00\x00\xd8\x01\x00\x00|\x00\x00\x00\x0e\x00\x00\x00\x11\x00\x00\x00\xc2\x00\x00\x00\xf2\x00\x00\x001\x02\x00\x00\xb7\x01\x00\x00\x06\x01\x00\x00\x83\x01\x00\x00)\x00\x00\x00\xa7\x00\x00\x00\x06\x00\x00\x00p\x01\x00\x003\x00\x00\x00\xd9\x00\x00\x00]\x00\x00\x00~\x01\x00\x00(\x01\x00\x00a\x00\x00\x00:\x01\x00\x00\xae\x01\x00\x00?\x02\x00\x00\x86\x01\x00\x00\xe5\x01\x00\x00\x1e\x01\x00\x00K\x02\x00\x00E\x02\x00\x00\x1d\x02\x00\x00X\x01\x00\x00\r\x00\x00\x00\xd2\x01\x00\x00\xd1\x01\x00\x009\x02\x00\x00\xef\x00\x00\x00\xb8\x00\x00\x00\xd7\x01\x00\x00\xdf\x01\x00\x00\x10\x02\x00\x00\xc2\x01\x00\x00B\x00\x00\x00!\x00\x00\x00\x98\x00\x00\x00F\x01\x00\x007\x02\x00\x00\x1b\x01\x00\x00o\x01\x00\x00B\x02\x00\x00\x19\x00\x00\x00c\x01\x00\x00\xda\x01\x00\x00\t\x01\x00\x00Z\x00\x00\x00\xf4\x01\x00\x002\x02\x00\x00O\x01\x00\x00\xb3\x00\x00\x00\x01\x00\x00\x00\xbe\x01\x00\x00\xe4\x01\x00\x00)\x01\x00\x00\x8e\x01\x00\x00\xf1\x00\x00\x00-\x01\x00\x00\x9f\x01\x00\x00\x11\x02\x00\x00V\x01\x00\x00T\x01\x00\x00Q\x02\x00\x00{\x01\x00\x00J\x01\x00\x00}\x01\x00\x00\x04\x02\x00\x00\xa5\x00\x00\x00\xf0\x00\x00\x00\xbd\x00\x00\x00\x15\x00\x00\x00;\x00\x00\x00\x14\x02\x00\x00\x9f\x00\x00\x00\xcb\x01\x00\x00\x14\x01\x00\x00\xca\x01\x00\x005\x01\x00\x00\xcc\x00\x00\x00\xde\x00\x00\x00\x87\x01\x00\x00\xf9\x01\x00\x00\x8a\x00\x00\x00\xc3\x00\x00\x00\xbb\x00\x00\x00\x10\x01\x00\x00\x03\x01\x00\x00\xb4\x01\x00\x00\xc9\x01\x00\x00\x9c\x00\x00\x00\xe0\x01\x00\x00\xfc\x00\x00\x00\xfb\x01\x00\x00\x93\x01\x00\x00\x1a\x02\x00\x00x\x00\x00\x00\x7f\x00\x00\x00\x16\x02\x00\x00\xfd\x00\x00\x00\xf7\x01\x00\x00~\x00\x00\x00U\x02\x00\x00\x92\x00\x00\x00\x1c\x00\x00\x00\xb3\x01\x00\x00\xcb\x00\x00\x00I\x01\x00\x00\xad\x00\x00\x00\x01\x01\x00\x00=\x02\x00\x00\xf7\x00\x00\x00(\x02\x00\x00\xec\x01\x00\x00\x1b\x00\x00\x00\xa6\x01\x00\x00P\x00\x00\x00\xb1\x01\x00\x00\xbc\x01\x00\x00\xe3\x00\x00\x00\x1d\x00\x00\x00J\x00\x00\x00:\x02\x00\x00\xa6\x00\x00\x00y\x00\x00\x00\\\x01\x00\x00S\x01\x00\x00+\x02\x00\x00\xf2\x01\x00\x00\x03\x02\x00\x00\x80\x01\x00\x00\xf5\x00\x00\x00g\x00\x00\x00+\x01\x00\x00(\x00\x00\x00\xf0\x01\x00\x00*\x02\x00\x00\r\x02\x00\x00/\x02\x00\x00,\x01\x00\x00x\x01\x00\x00@\x00\x00\x00\x15\x01\x00\x00\xfe\x01\x00\x00\xa8\x01\x00\x00A\x02\x00\x00$\x02\x00\x00z\x00\x00\x00\xa0\x00\x00\x00U\x01\x00\x009\x01\x00\x00\xea\x00\x00\x00I\x00\x00\x005\x00\x00\x00\xa0\x01\x00\x00\x08\x01\x00\x004\x01\x00\x00i\x01\x00\x00K\x01\x00\x005\x02\x00\x00\x92\x01\x00\x00\x98\x01\x00\x00\x97\x00\x00\x00 \x01\x00\x00z\x01\x00\x00\x16\x00\x00\x00n\x00\x00\x00r\x00\x00\x002\x01\x00\x00\xa1\x01\x00\x00\xb5\x00\x00\x006\x02\x00\x00\x8d\x00\x00\x00\xf9\x00\x00\x00)\x02\x00\x00\x90\x00\x00\x00:\x00\x00\x00\x84\x01\x00\x00\x9e\x00\x00\x00\xb8\x01\x00\x00w\x01\x00\x00\xdd\x01\x00\x00\xb4\x00\x00\x00\xd0\x00\x00\x00\xc8\x01\x00\x00\xed\x01\x00\x00\xf4\x00\x00\x00\xdc\x01\x00\x00\x17\x01\x00\x008\x02\x00\x000\x00\x00\x00\x13\x01\x00\x00\x11\x01\x00\x00\x90\x01\x00\x00I\x02\x00\x00\x07\x01\x00\x00V\x00\x00\x00\xe5\x00\x00\x00\x91\x00\x00\x00l\x00\x00\x00\xa8\x00\x00\x00\x89\x01\x00\x00\x1b\x02\x00\x00%\x00\x00\x00^\x01\x00\x00D\x01\x00\x00\x19\x02\x00\x00l\x01\x00\x00\x82\x01\x00\x00\xdb\x00\x00\x00}\x00\x00\x00\xd6\x01\x00\x00q\x00\x00\x00N\x00\x00\x00\xbf\x01\x00\x00\xba\x01\x00\x00\xf8\x00\x00\x00\x1f\x00\x00\x001\x00\x00\x00T\x02\x00\x00\x13\x02\x00\x000\x02\x00\x00=\x01\x00\x00\x8c\x00\x00\x00\x1e\x02\x00\x00>\x00\x00\x00_\x00\x00\x00W\x01\x00\x00u\x00\x00\x00\x1a\x00\x00\x00\x04\x00\x00\x00*\x01\x00\x00\xa9\x00\x00\x00\xb2\x01\x00\x00\x19\x01\x00\x00\x1c\x01\x00\x00\xba\x00\x00\x00\x12\x02\x00\x00\xab\x00\x00\x00\xc7\x01\x00\x004\x02\x00\x00\xf3\x00\x00\x00F\x02\x00\x00>\x01\x00\x00W\x00\x00\x00\xd2\x00\x00\x00\xe6\x00\x00\x00\x9b\x00\x00\x00q\x01\x00\x00\x94\x01\x00\x00\'\x01\x00\x00'
tbsg74
I01
sg75
I1
sg76
I-1
sg77
(lp4762
I0
aI1
aI2
aI3
aI4
aI5
aI6
aI7
aI8
aI9
aI10
aI11
aI12
aI13
aI14
aI15
aI16
aI17
aI18
aI19
aI20
aI21
aI22
aI23
aI24
aI25
aI26
aI27
aI28
aI29
aI30
aI31
aI32
aI33
aI34
aI35
aI36
aI37
aI38
aI39
aI40
aI41
aI42
aI43
aI44
aI45
aI46
aI47
aI48
aI49
aI50
aI51
aI52
aI53
aI54
aI55
aI56
aI57
aI58
aI59
aI60
aI61
aI62
aI63
aI64
aI65
aI66
aI67
aI68
aI69
aI70
aI71
aI72
aI73
aI74
aI75
aI76
aI77
aI78
aI79
aI80
aI81
aI82
aI83
aI84
aI85
aI86
aI87
aI88
aI89
aI90
aI91
aI92
aI93
aI94
aI95
aI96
aI97
aI98
aI99
aI100
aI101
aI102
aI103
aI104
aI105
aI106
aI107
aI108
aI109
aI110
aI111
aI112
aI113
aI114
aI115
aI116
aI117
aI118
aI119
aI120
aI121
aI122
aI123
aI124
aI125
aI126
aI127
aI128
aI129
aI130
aI131
aI132
aI133
aI134
aI135
aI136
aI137
aI138
aI139
aI140
aI141
aI142
aI143
aI144
aI145
aI146
aI147
aI148
aI149
aI150
aI151
aI152
aI153
aI154
aI155
aI156
aI157
aI158
aI159
aI160
aI161
aI162
aI163
aI164
aI165
aI166
aI167
aI168
aI169
aI170
aI171
aI172
aI173
aI174
aI175
aI176
aI177
aI178
aI179
aI180
aI181
aI182
aI183
aI184
aI185
aI186
aI187
aI188
aI189
aI190
aI191
aI192
aI193
aI194
aI195
aI196
aI197
aI198
aI199
aI200
aI201
aI202
aI203
aI204
aI205
aI206
aI207
aI208
aI209
aI210
aI211
aI212
aI213
aI214
aI215
aI216
aI217
aI218
aI219
aI220
aI221
aI222
aI223
aI224
aI225
aI226
aI227
aI228
aI229
aI230
aI231
aI232
aI233
aI234
aI235
aI236
aI237
aI238
aI239
aI240
aI241
aI242
aI243
aI244
aI245
aI246
aI247
aI248
aI249
aI250
aI251
aI252
aI253
aI254
aI255
aI256
aI257
aI258
aI259
aI260
aI261
aI262
aI263
aI264
aI265
aI266
aI267
aI268
aI269
aI270
aI271
aI272
aI273
aI274
aI275
aI276
aI277
aI278
aI279
aI280
aI281
aI282
aI283
aI284
aI285
aI286
aI287
aI288
aI289
aI290
aI291
aI292
aI293
aI294
aI295
aI296
aI297
aI298
aI299
aI300
aI301
aI302
aI303
aI304
aI305
aI306
aI307
aI308
aI309
aI310
aI311
aI312
aI313
aI314
aI315
aI316
aI317
aI318
aI319
aI320
aI321
aI322
aI323
aI324
aI325
aI326
aI327
aI328
aI329
aI330
aI331
aI332
aI333
aI334
aI335
aI336
aI337
aI338
aI339
aI340
aI341
aI342
aI343
aI344
aI345
aI346
aI347
aI348
aI349
aI350
aI351
aI352
aI353
aI354
aI355
aI356
aI357
aI358
aI359
aI360
aI361
aI362
aI363
aI364
aI365
aI366
aI367
aI368
aI369
aI370
aI371
aI372
aI373
aI374
aI375
aI376
aI377
aI378
aI379
aI380
aI381
aI382
aI383
aI384
aI385
aI386
aI387
aI388
aI389
aI390
aI391
aI392
aI393
aI394
aI395
aI396
aI397
aI398
aI399
aI400
aI401
aI402
aI403
aI404
aI405
aI406
aI407
aI408
aI409
aI410
aI411
aI412
aI413
aI414
aI415
aI416
aI417
aI418
aI419
aI420
aI421
aI422
aI423
aI424
aI425
aI426
aI427
aI428
aI429
aI430
aI431
aI432
aI433
aI434
aI435
aI436
aI437
aI438
aI439
aI440
aI441
aI442
aI443
aI444
aI445
aI446
aI447
aI448
aI449
aI450
aI451
aI452
aI453
aI454
aI455
aI456
aI457
aI458
aI459
aI460
aI461
aI462
aI463
aI464
aI465
aI466
aI467
aI468
aI469
aI470
aI471
aI472
aI473
aI474
aI475
aI476
aI477
aI478
aI479
aI480
aI481
aI482
aI483
aI484
aI485
aI486
aI487
aI488
aI489
aI490
aI491
aI492
aI493
aI494
aI495
aI496
aI497
aI498
aI499
aI500
aI501
aI502
aI503
aI504
aI505
aI506
aI507
aI508
aI509
aI510
aI511
aI512
aI513
aI514
aI515
aI516
aI517
aI518
aI519
aI520
aI521
aI522
aI523
aI524
aI525
aI526
aI527
aI528
aI529
aI530
aI531
aI532
aI533
aI534
aI535
aI536
aI537
aI538
aI539
aI540
aI541
aI542
aI543
aI544
aI545
aI546
aI547
aI548
aI549
aI550
aI551
aI552
aI553
aI554
aI555
aI556
aI557
aI558
aI559
aI560
aI561
aI562
aI563
aI564
aI565
aI566
aI567
aI568
aI569
aI570
aI571
aI572
aI573
aI574
aI575
aI576
aI577
aI578
aI579
aI580
aI581
aI582
aI583
aI584
aI585
aI586
aI587
aI588
aI589
aI590
aI591
aI592
aI593
aI594
aI595
aI596
aI597
aI598
aI599
asg79
Nsg80
cnumpy.core.multiarray
scalar
p4763
(g4761
S"'\x01\x00\x00"
tRp4764
sg81
I600
sg82
I0
sg83
I600
sg84
I01
sbag37
asS'savePickle'
p4765
I00
sb.