ccopy_reg
_reconstructor
p1
(cpsychopy.data
ExperimentHandler
p2
c__builtin__
object
p3
NtRp4
(dp5
S'originPath'
p6
NsS'dataFileName'
p7
Vsubject719
p8
sS'runtimeInfo'
p9
NsS'name'
p10
VVERBALRBsubject 719
p11
sS'dataNames'
p12
(lp13
S'Block Number'
p14
aS'Key pressed'
p15
aS'Category'
p16
aS'Correct?'
p17
aS'Int Match?'
p18
aS'Int Response'
p19
aS'Int Correct?'
p20
aS'Line Accuracy'
p21
aS'Interference Accuracy'
p22
aS'Matching Interferences'
p23
aS'New instruction shown?'
p24
aS'Buttons switched?'
p25
aS'Fast?'
p26
asS'autoLog'
p27
I01
sS'extraInfo'
p28
(dp29
S'gender'
p30
VM
sS'age'
p31
V20
p32
ssS'loopsUnfinished'
p33
(lp34
g1
(cpsychopy.data
TrialHandler
p35
g3
NtRp36
(dp37
S'origin'
p38
NsS'thisTrial'
p39
I8
sS'_exp'
p40
I74477712
sg10
S''
sg6
S'C:\\Users\\Mike\\Desktop\\Dual2\\NEWVerbalii.py'
p41
sS'thisRepN'
p42
I54
sg27
I01
sg28
NsS'data'
p43
g1
(cpsychopy.data
DataHandler
p44
c__builtin__
dict
p45
(dp46
S'ran'
p47
cnumpy.ma.core
_mareconstruct
p48
(cnumpy.ma.core
MaskedArray
p49
cnumpy
ndarray
p50
(I0
tp51
S'b'
tRp52
(I1
(I11
I55
tcnumpy
dtype
p53
(S'f4'
I0
I1
tRp54
(I3
S'<'
NNNI-1
I-1
I0
tbI00
S'\x00\x00\x80?\x00\x00\x80?\x00\x00\x80?\x00\x00\x80?\x00\x00\x80?\x00\x00\x80?\x00\x00\x80?\x00\x00\x80?\x00\x00\x80?\x00\x00\x80?\x00\x00\x80?\x00\x00\x80?\x00\x00\x80?\x00\x00\x80?\x00\x00\x80?\x00\x00\x80?\x00\x00\x80?\x00\x00\x80?\x00\x00\x80?\x00\x00\x80?\x00\x00\x80?\x00\x00\x80?\x00\x00\x80?\x00\x00\x80?\x00\x00\x80?\x00\x00\x80?\x00\x00\x80?\x00\x00\x80?\x00\x00\x80?\x00\x00\x80?\x00\x00\x80?\x00\x00\x80?\x00\x00\x80?\x00\x00\x80?\x00\x00\x80?\x00\x00\x80?\x00\x00\x80?\x00\x00\x80?\x00\x00\x80?\x00\x00\x80?\x00\x00\x80?\x00\x00\x80?\x00\x00\x80?\x00\x00\x80?\x00\x00\x80?\x00\x00\x80?\x00\x00\x80?\x00\x00\x80?\x00\x00\x80?\x00\x00\x80?\x00\x00\x80?\x00\x00\x80?\x00\x00\x80?\x00\x00\x80?\x00\x00\x80?\x00\x00\x80?\x00\x00\x80?\x00\x00\x80?\x00\x00\x80?\x00\x00\x80?\x00\x00\x80?\x00\x00\x80?\x00\x00\x80?\x00\x00\x80?\x00\x00\x80?\x00\x00\x80?\x00\x00\x80?\x00\x00\x80?\x00\x00\x80?\x00\x00\x80?\x00\x00\x80?\x00\x00\x80?\x00\x00\x80?\x00\x00\x80?\x00\x00\x80?\x00\x00\x80?\x00\x00\x80?\x00\x00\x80?\x00\x00\x80?\x00\x00\x80?\x00\x00\x80?\x00\x00\x80?\x00\x00\x80?\x00\x00\x80?\x00\x00\x80?\x00\x00\x80?\x00\x00\x80?\x00\x00\x80?\x00\x00\x80?\x00\x00\x80?\x00\x00\x80?\x00\x00\x80?\x00\x00\x80?\x00\x00\x80?\x00\x00\x80?\x00\x00\x80?\x00\x00\x80?\x00\x00\x80?\x00\x00\x80?\x00\x00\x80?\x00\x00\x80?\x00\x00\x80?\x00\x00\x80?\x00\x00\x80?\x00\x00\x80?\x00\x00\x80?\x00\x00\x80?\x00\x00\x80?\x00\x00\x80?\x00\x00\x00\x00\x00\x00\x80?\x00\x00\x80?\x00\x00\x80?\x00\x00\x80?\x00\x00\x80?\x00\x00\x80?\x00\x00\x80?\x00\x00\x80?\x00\x00\x80?\x00\x00\x80?\x00\x00\x80?\x00\x00\x80?\x00\x00\x80?\x00\x00\x80?\x00\x00\x80?\x00\x00\x80?\x00\x00\x80?\x00\x00\x80?\x00\x00\x80?\x00\x00\x80?\x00\x00\x80?\x00\x00\x80?\x00\x00\x80?\x00\x00\x80?\x00\x00\x80?\x00\x00\x80?\x00\x00\x80?\x00\x00\x80?\x00\x00\x80?\x00\x00\x80?\x00\x00\x80?\x00\x00\x80?\x00\x00\x80?\x00\x00\x80?\x00\x00\x80?\x00\x00\x80?\x00\x00\x80?\x00\x00\x80?\x00\x00\x80?\x00\x00\x80?\x00\x00\x80?\x00\x00\x80?\x00\x00\x80?\x00\x00\x80?\x00\x00\x80?\x00\x00\x80?\x00\x00\x80?\x00\x00\x80?\x00\x00\x80?\x00\x00\x80?\x00\x00\x80?\x00\x00\x80?\x00\x00\x80?\x00\x00\x80?\x00\x00\x80?\x00\x00\x80?\x00\x00\x80?\x00\x00\x80?\x00\x00\x80?\x00\x00\x80?\x00\x00\x80?\x00\x00\x80?\x00\x00\x80?\x00\x00\x80?\x00\x00\x80?\x00\x00\x80?\x00\x00\x80?\x00\x00\x80?\x00\x00\x80?\x00\x00\x80?\x00\x00\x80?\x00\x00\x80?\x00\x00\x80?\x00\x00\x80?\x00\x00\x80?\x00\x00\x80?\x00\x00\x80?\x00\x00\x80?\x00\x00\x80?\x00\x00\x80?\x00\x00\x80?\x00\x00\x80?\x00\x00\x80?\x00\x00\x80?\x00\x00\x80?\x00\x00\x80?\x00\x00\x80?\x00\x00\x80?\x00\x00\x80?\x00\x00\x80?\x00\x00\x80?\x00\x00\x80?\x00\x00\x80?\x00\x00\x80?\x00\x00\x80?\x00\x00\x80?\x00\x00\x80?\x00\x00\x80?\x00\x00\x80?\x00\x00\x80?\x00\x00\x80?\x00\x00\x80?\x00\x00\x80?\x00\x00\x80?\x00\x00\x80?\x00\x00\x80?\x00\x00\x80?\x00\x00\x80?\x00\x00\x80?\x00\x00\x80?\x00\x00\x80?\x00\x00\x80?\x00\x00\x80?\x00\x00\x80?\x00\x00\x80?\x00\x00\x80?\x00\x00\x80?\x00\x00\x80?\x00\x00\x80?\x00\x00\x80?\x00\x00\x80?\x00\x00\x80?\x00\x00\x80?\x00\x00\x80?\x00\x00\x80?\x00\x00\x80?\x00\x00\x80?\x00\x00\x80?\x00\x00\x80?\x00\x00\x80?\x00\x00\x80?\x00\x00\x80?\x00\x00\x80?\x00\x00\x80?\x00\x00\x80?\x00\x00\x80?\x00\x00\x80?\x00\x00\x80?\x00\x00\x80?\x00\x00\x80?\x00\x00\x80?\x00\x00\x80?\x00\x00\x80?\x00\x00\x80?\x00\x00\x80?\x00\x00\x80?\x00\x00\x80?\x00\x00\x80?\x00\x00\x80?\x00\x00\x80?\x00\x00\x80?\x00\x00\x80?\x00\x00\x80?\x00\x00\x80?\x00\x00\x80?\x00\x00\x80?\x00\x00\x80?\x00\x00\x80?\x00\x00\x80?\x00\x00\x80?\x00\x00\x80?\x00\x00\x80?\x00\x00\x80?\x00\x00\x80?\x00\x00\x80?\x00\x00\x80?\x00\x00\x80?\x00\x00\x80?\x00\x00\x80?\x00\x00\x80?\x00\x00\x80?\x00\x00\x80?\x00\x00\x80?\x00\x00\x80?\x00\x00\x80?\x00\x00\x80?\x00\x00\x80?\x00\x00\x80?\x00\x00\x80?\x00\x00\x80?\x00\x00\x80?\x00\x00\x80?\x00\x00\x80?\x00\x00\x80?\x00\x00\x80?\x00\x00\x80?\x00\x00\x80?\x00\x00\x80?\x00\x00\x80?\x00\x00\x80?\x00\x00\x80?\x00\x00\x80?\x00\x00\x80?\x00\x00\x80?\x00\x00\x80?\x00\x00\x80?\x00\x00\x80?\x00\x00\x80?\x00\x00\x80?\x00\x00\x80?\x00\x00\x80?\x00\x00\x80?\x00\x00\x80?\x00\x00\x80?\x00\x00\x80?\x00\x00\x80?\x00\x00\x80?\x00\x00\x80?\x00\x00\x80?\x00\x00\x80?\x00\x00\x80?\x00\x00\x80?\x00\x00\x80?\x00\x00\x80?\x00\x00\x80?\x00\x00\x80?\x00\x00\x80?\x00\x00\x80?\x00\x00\x80?\x00\x00\x80?\x00\x00\x80?\x00\x00\x80?\x00\x00\x80?\x00\x00\x80?\x00\x00\x80?\x00\x00\x80?\x00\x00\x80?\x00\x00\x80?\x00\x00\x80?\x00\x00\x80?\x00\x00\x80?\x00\x00\x80?\x00\x00\x80?\x00\x00\x80?\x00\x00\x80?\x00\x00\x80?\x00\x00\x80?\x00\x00\x80?\x00\x00\x80?\x00\x00\x80?\x00\x00\x80?\x00\x00\x80?\x00\x00\x80?\x00\x00\x80?\x00\x00\x80?\x00\x00\x80?\x00\x00\x80?\x00\x00\x80?\x00\x00\x80?\x00\x00\x80?\x00\x00\x80?\x00\x00\x80?\x00\x00\x80?\x00\x00\x80?\x00\x00\x80?\x00\x00\x80?\x00\x00\x80?\x00\x00\x80?\x00\x00\x80?\x00\x00\x80?\x00\x00\x80?\x00\x00\x80?\x00\x00\x80?\x00\x00\x80?\x00\x00\x80?\x00\x00\x80?\x00\x00\x80?\x00\x00\x80?\x00\x00\x80?\x00\x00\x80?\x00\x00\x80?\x00\x00\x80?\x00\x00\x80?\x00\x00\x00\x00\x00\x00\x00\x00\x00\x00\x80?\x00\x00\x80?\x00\x00\x80?\x00\x00\x80?\x00\x00\x80?\x00\x00\x80?\x00\x00\x80?\x00\x00\x80?\x00\x00\x80?\x00\x00\x80?\x00\x00\x80?\x00\x00\x80?\x00\x00\x80?\x00\x00\x80?\x00\x00\x80?\x00\x00\x80?\x00\x00\x80?\x00\x00\x80?\x00\x00\x80?\x00\x00\x80?\x00\x00\x80?\x00\x00\x80?\x00\x00\x80?\x00\x00\x80?\x00\x00\x80?\x00\x00\x80?\x00\x00\x80?\x00\x00\x80?\x00\x00\x80?\x00\x00\x80?\x00\x00\x80?\x00\x00\x80?\x00\x00\x80?\x00\x00\x80?\x00\x00\x80?\x00\x00\x80?\x00\x00\x80?\x00\x00\x80?\x00\x00\x80?\x00\x00\x80?\x00\x00\x80?\x00\x00\x80?\x00\x00\x80?\x00\x00\x80?\x00\x00\x80?\x00\x00\x80?\x00\x00\x80?\x00\x00\x80?\x00\x00\x80?\x00\x00\x80?\x00\x00\x80?\x00\x00\x80?\x00\x00\x80?\x00\x00\x80?\x00\x00\x80?\x00\x00\x80?\x00\x00\x80?\x00\x00\x80?\x00\x00\x80?\x00\x00\x80?\x00\x00\x80?\x00\x00\x80?\x00\x00\x80?\x00\x00\x80?\x00\x00\x80?\x00\x00\x80?\x00\x00\x80?\x00\x00\x80?\x00\x00\x80?\x00\x00\x80?\x00\x00\x80?\x00\x00\x80?\x00\x00\x80?\x00\x00\x80?\x00\x00\x80?\x00\x00\x80?\x00\x00\x80?\x00\x00\x80?\x00\x00\x80?\x00\x00\x80?\x00\x00\x80?\x00\x00\x80?\x00\x00\x80?\x00\x00\x80?\x00\x00\x80?\x00\x00\x80?\x00\x00\x80?\x00\x00\x80?\x00\x00\x80?\x00\x00\x80?\x00\x00\x80?\x00\x00\x80?\x00\x00\x80?\x00\x00\x80?\x00\x00\x80?\x00\x00\x80?\x00\x00\x80?\x00\x00\x80?\x00\x00\x80?\x00\x00\x80?\x00\x00\x80?\x00\x00\x80?\x00\x00\x80?\x00\x00\x80?\x00\x00\x80?\x00\x00\x80?\x00\x00\x80?\x00\x00\x80?\x00\x00\x80?\x00\x00\x80?\x00\x00\x80?\x00\x00\x80?\x00\x00\x80?\x00\x00\x80?\x00\x00\x80?\x00\x00\x80?\x00\x00\x80?\x00\x00\x80?\x00\x00\x80?\x00\x00\x80?\x00\x00\x80?\x00\x00\x80?\x00\x00\x80?\x00\x00\x80?\x00\x00\x80?\x00\x00\x80?\x00\x00\x80?\x00\x00\x80?\x00\x00\x80?\x00\x00\x80?\x00\x00\x80?\x00\x00\x80?\x00\x00\x80?\x00\x00\x80?\x00\x00\x80?\x00\x00\x80?\x00\x00\x80?\x00\x00\x80?\x00\x00\x80?\x00\x00\x80?\x00\x00\x80?\x00\x00\x80?\x00\x00\x80?\x00\x00\x80?\x00\x00\x80?\x00\x00\x80?\x00\x00\x80?\x00\x00\x80?\x00\x00\x80?\x00\x00\x80?\x00\x00\x80?\x00\x00\x80?\x00\x00\x80?\x00\x00\x80?\x00\x00\x80?\x00\x00\x80?\x00\x00\x80?\x00\x00\x80?\x00\x00\x80?\x00\x00\x80?\x00\x00\x80?\x00\x00\x80?\x00\x00\x80?\x00\x00\x80?\x00\x00\x00\x00\x00\x00\x80?\x00\x00\x80?\x00\x00\x80?\x00\x00\x80?\x00\x00\x80?\x00\x00\x80?\x00\x00\x80?\x00\x00\x80?\x00\x00\x80?\x00\x00\x80?\x00\x00\x80?\x00\x00\x80?\x00\x00\x80?\x00\x00\x80?\x00\x00\x80?\x00\x00\x80?\x00\x00\x80?\x00\x00\x80?\x00\x00\x80?\x00\x00\x80?\x00\x00\x80?\x00\x00\x80?\x00\x00\x80?\x00\x00\x80?\x00\x00\x80?\x00\x00\x80?\x00\x00\x80?\x00\x00\x80?\x00\x00\x80?\x00\x00\x80?\x00\x00\x80?\x00\x00\x80?\x00\x00\x80?\x00\x00\x80?\x00\x00\x80?\x00\x00\x80?\x00\x00\x80?\x00\x00\x80?\x00\x00\x80?\x00\x00\x80?\x00\x00\x80?\x00\x00\x80?\x00\x00\x80?\x00\x00\x80?\x00\x00\x80?\x00\x00\x80?\x00\x00\x80?\x00\x00\x80?\x00\x00\x80?\x00\x00\x80?\x00\x00\x80?\x00\x00\x80?\x00\x00\x80?\x00\x00\x80?\x00\x00\x00\x00'
S'\x00\x00\x00\x00\x00\x00\x00\x00\x00\x00\x00\x00\x00\x00\x00\x00\x00\x00\x00\x00\x00\x00\x00\x00\x00\x00\x00\x00\x00\x00\x00\x00\x00\x00\x00\x00\x00\x00\x00\x00\x00\x00\x00\x00\x00\x00\x00\x00\x00\x00\x00\x00\x00\x00\x00\x00\x00\x00\x00\x00\x00\x00\x00\x00\x00\x00\x00\x00\x00\x00\x00\x00\x00\x00\x00\x00\x00\x00\x00\x00\x00\x00\x00\x00\x00\x00\x00\x00\x00\x00\x00\x00\x00\x00\x00\x00\x00\x00\x00\x00\x00\x00\x00\x00\x00\x00\x00\x00\x00\x00\x00\x00\x00\x00\x00\x00\x00\x00\x00\x00\x00\x00\x00\x00\x00\x00\x00\x00\x00\x00\x00\x00\x00\x00\x00\x00\x00\x00\x00\x00\x00\x00\x00\x00\x00\x00\x00\x00\x00\x00\x00\x00\x00\x00\x00\x00\x00\x00\x00\x00\x00\x00\x00\x00\x00\x00\x00\x00\x00\x00\x00\x00\x00\x00\x00\x00\x00\x00\x00\x00\x00\x00\x00\x00\x00\x00\x00\x00\x00\x00\x00\x00\x00\x00\x00\x00\x00\x00\x00\x00\x00\x00\x00\x00\x00\x00\x00\x00\x00\x00\x00\x00\x00\x00\x00\x00\x00\x00\x00\x00\x00\x00\x00\x00\x00\x00\x00\x00\x00\x00\x00\x00\x00\x00\x00\x00\x00\x00\x00\x00\x00\x00\x00\x00\x00\x00\x00\x00\x00\x00\x00\x00\x00\x00\x00\x00\x00\x00\x00\x00\x00\x00\x00\x00\x00\x00\x00\x00\x00\x00\x00\x00\x00\x00\x00\x00\x00\x00\x00\x00\x00\x00\x00\x00\x00\x00\x00\x00\x00\x00\x00\x00\x00\x00\x00\x00\x00\x00\x00\x00\x00\x00\x00\x00\x00\x00\x00\x00\x00\x00\x00\x00\x00\x00\x00\x00\x00\x00\x00\x00\x00\x00\x00\x00\x00\x00\x00\x00\x00\x00\x00\x00\x00\x00\x00\x00\x00\x00\x00\x00\x00\x00\x00\x00\x00\x00\x00\x00\x00\x00\x00\x00\x00\x00\x00\x00\x00\x00\x00\x00\x00\x00\x00\x00\x00\x00\x00\x00\x00\x00\x00\x00\x00\x00\x00\x00\x00\x00\x00\x00\x00\x00\x00\x00\x00\x00\x00\x00\x00\x00\x00\x00\x00\x00\x00\x00\x00\x00\x00\x00\x00\x00\x00\x00\x00\x00\x00\x00\x00\x00\x00\x00\x00\x00\x00\x00\x00\x00\x00\x00\x00\x00\x00\x00\x00\x00\x00\x00\x00\x00\x00\x00\x00\x00\x00\x00\x00\x00\x00\x00\x00\x00\x00\x00\x00\x00\x00\x00\x00\x00\x00\x00\x00\x00\x00\x00\x00\x00\x00\x00\x00\x00\x00\x00\x00\x00\x00\x00\x00\x00\x00\x00\x00\x00\x00\x00\x00\x00\x00\x00\x00\x00\x00\x00\x00\x00\x00\x00\x00\x00\x00\x00\x00\x00\x00\x00\x00\x00\x00\x00\x00\x00\x00\x00\x00\x00\x00\x00\x00\x00\x00\x00\x00\x00\x00\x00\x00\x00\x00\x00\x00\x00\x00\x00\x00\x00\x00\x00\x00\x00\x00\x00\x00\x00\x00\x00\x00\x00\x00\x00\x00\x00\x00\x00\x00\x00\x00\x00\x00\x00\x00\x00\x00\x00\x00\x00\x00\x00\x00\x00\x00\x00\x00\x00\x00\x00\x00\x00\x00\x00\x00\x00\x00\x00\x00\x00\x00\x00\x00\x00\x00\x00\x00\x00\x00\x00\x00\x00\x00\x00\x00\x00\x00\x00\x00\x00\x00\x00\x00\x00\x00\x00\x00\x00\x00'
NtbsS'order'
p55
g48
(g49
g50
g51
S'b'
tRp56
(I1
(I11
I55
tg54
I00
S'\x00\x00\xe0@\x00\x00\x88A\x00\x00\x18B\x00\x00`B\x00\x00\x88B\x00\x00\xb8B\x00\x00\xbeB\x00\x00\xd8B\x00\x00\xecB\x00\x00\xeeB\x00\x00\x06C\x00\x00\tC\x00\x00\x0bC\x00\x00\x18C\x00\x002C\x00\x00:C\x00\x00?C\x00\x00IC\x00\x00kC\x00\x00uC\x00\x00xC\x00\x00\x87C\x00\x80\x87C\x00\x00\x89C\x00\x80\x8dC\x00\x00\x98C\x00\x00\x9bC\x00\x80\x9cC\x00\x00\xbcC\x00\x80\xbcC\x00\x00\xc8C\x00\x00\xd6C\x00\x00\xd9C\x00\x00\xdaC\x00\x00\xdbC\x00\x80\xdfC\x00\x80\xe0C\x00\x00\xe7C\x00\x00\xeaC\x00\x80\xefC\x00\x00\xf4C\x00\x00\xfdC\x00\x80\xfeC\x00\x00\xffC\x00\x00\x01D\x00\xc0\x01D\x00\xc0\x03D\x00\x00\x04D\x00\x80\x05D\x00\xc0\nD\x00@\x11D\x00\x00\x13D\x00\x00\x14D\x00\x80\x14D\x00\xc0\x14D\x00\x00\x00@\x00\x00\xa0@\x00\x00\xe8A\x00\x00\x00B\x00\x00\x04B\x00\x00HB\x00\x00pB\x00\x00tB\x00\x00|B\x00\x00\xcaB\x00\x00\xf6B\x00\x00\xfcB\x00\x00\xfeB\x00\x00\x00C\x00\x00\x08C\x00\x00\x19C\x00\x00\x1eC\x00\x006C\x00\x00UC\x00\x00ZC\x00\x00`C\x00\x00\x85C\x00\x00\x86C\x00\x80\x91C\x00\x80\x96C\x00\x00\x9cC\x00\x80\xa5C\x00\x00\xb6C\x00\x00\xb8C\x00\x80\xb8C\x00\x00\xbeC\x00\x80\xc4C\x00\x00\xc9C\x00\x00\xcaC\x00\x80\xceC\x00\x00\xd1C\x00\x80\xd3C\x00\x00\xd4C\x00\x00\xd5C\x00\x00\xdeC\x00\x00\xe3C\x00\x80\xe3C\x00\x80\xe8C\x00\x00\xebC\x00\x00\xeeC\x00\x80\xf6C\x00\x80\x01D\x00@\x03D\x00\xc0\tD\x00\x00\x0cD\x00@\x0cD\x00@\x0fD\x00\x80\x0fD\x00\x00\x12D\x00\x00\x00\x00\x00\x00\x80?\x00\x00\xc0@\x00\x00\x00A\x00\x00\xa8A\x00\x00\xc0A\x00\x00hB\x00\x00\x84B\x00\x00\x86B\x00\x00\x8eB\x00\x00\xccB\x00\x00\xdaB\x00\x00\xf0B\x00\x00\xfaB\x00\x00\x12C\x00\x00\x17C\x00\x00"C\x00\x001C\x00\x009C\x00\x00BC\x00\x00GC\x00\x00QC\x00\x00TC\x00\x00WC\x00\x00cC\x00\x00dC\x00\x00mC\x00\x00pC\x00\x00~C\x00\x80\x88C\x00\x80\x89C\x00\x00\x94C\x00\x00\x95C\x00\x80\x95C\x00\x00\x9eC\x00\x80\xa0C\x00\x00\xa1C\x00\x80\xa2C\x00\x00\xa5C\x00\x80\xabC\x00\x00\xb1C\x00\x80\xb7C\x00\x00\xbaC\x00\x80\xc0C\x00\x00\xcfC\x00\x00\xe1C\x00\x00\xe2C\x00\x80\xfbC\x00\xc0\x04D\x00\xc0\x07D\x00\x00\x08D\x00\x00\tD\x00\xc0\x0cD\x00\x80\rD\x00\x80\x0eD\x00\x00\x15D\x00\x00\x80@\x00\x00\x10A\x00\x00\xf8A\x00\x00\x14B\x00\x00PB\x00\x00XB\x00\x00\x94B\x00\x00\x9cB\x00\x00\xaaB\x00\x00\xeaB\x00\x00\x03C\x00\x00\x0fC\x00\x00\'C\x00\x00/C\x00\x00HC\x00\x00LC\x00\x00MC\x00\x00YC\x00\x00aC\x00\x00nC\x00\x00qC\x00\x00}C\x00\x00\x82C\x00\x80\x8eC\x00\x80\x90C\x00\x80\x94C\x00\x80\x97C\x00\x80\x9fC\x00\x80\xa7C\x00\x00\xacC\x00\x00\xadC\x00\x80\xaeC\x00\x80\xb0C\x00\x00\xb4C\x00\x80\xb6C\x00\x00\xbfC\x00\x80\xcbC\x00\x80\xd4C\x00\x80\xd6C\x00\x00\xd7C\x00\x80\xd7C\x00\x00\xdfC\x00\x80\xe9C\x00\x80\xeaC\x00\x00\xf0C\x00\x00\xfcC\x00@\x00D\x00\xc0\x00D\x00\x80\x02D\x00\xc0\x05D\x00@\x07D\x00@\tD\x00\x80\tD\x00\x80\x0cD\x00@\rD\x00\x00\x00\x00\x00\x00PA\x00\x00lB\x00\x00\x8cB\x00\x00\x98B\x00\x00\xacB\x00\x00\xaeB\x00\x00\xb4B\x00\x00\xc0B\x00\x00\x07C\x00\x00\x10C\x00\x00\x16C\x00\x00+C\x00\x00<C\x00\x00OC\x00\x00PC\x00\x00SC\x00\x00XC\x00\x00gC\x00\x00sC\x00\x00tC\x00\x00{C\x00\x80\x81C\x00\x00\x88C\x00\x00\x8dC\x00\x80\x8fC\x00\x00\x91C\x00\x00\x93C\x00\x80\x93C\x00\x00\x97C\x00\x80\x9aC\x00\x00\x9dC\x00\x80\xa1C\x00\x00\xa4C\x00\x80\xa4C\x00\x80\xaaC\x00\x00\xafC\x00\x00\xb5C\x00\x80\xbbC\x00\x80\xc7C\x00\x80\xc8C\x00\x80\xccC\x00\x00\xd3C\x00\x80\xd9C\x00\x80\xe7C\x00\x00\xf7C\x00\x00\xfbC\x00\x80\xfdC\x00\x00\x00D\x00\x00\x02D\x00@\x06D\x00\xc0\x0bD\x00\x00\x0fD\x00\x00\x10D\x00@\x15D\x00\x00@A\x00\x00\xd8A\x00\x00\x08B\x00\x00\x1cB\x00\x00<B\x00\x00\x9aB\x00\x00\xa4B\x00\x00\xa6B\x00\x00\xd4B\x00\x00\xe0B\x00\x00\xf8B\x00\x00#C\x00\x00(C\x00\x00=C\x00\x00JC\x00\x00eC\x00\x00fC\x00\x00lC\x00\x80\x80C\x00\x00\x81C\x00\x80\x86C\x00\x80\x8aC\x00\x00\x8eC\x00\x00\x99C\x00\x80\x9dC\x00\x00\xa6C\x00\x80\xa6C\x00\x00\xa8C\x00\x00\xb0C\x00\x00\xb2C\x00\x00\xb3C\x00\x80\xb4C\x00\x00\xb7C\x00\x00\xb9C\x00\x80\xb9C\x00\x00\xbdC\x00\x80\xbfC\x00\x00\xc2C\x00\x80\xc9C\x00\x80\xcaC\x00\x00\xd0C\x00\x80\xdaC\x00\x80\xdcC\x00\x80\xe6C\x00\x00\xedC\x00\x80\xf1C\x00\x80\xf2C\x00\x00\xf5C\x00\x00\xf6C\x00\x80\xfcC\x00@\x02D\x00\x00\nD\x00@\x0eD\x00\x00\x11D\x00\xc0\x13D\x00\x00\x80A\x00\x00\x98A\x00\x008B\x00\x00TB\x00\x00dB\x00\x00\x8aB\x00\x00\x96B\x00\x00\xa2B\x00\x00\xa8B\x00\x00\xc2B\x00\x00\xe8B\x00\x00\xf2B\x00\x00\xf4B\x00\x00\x11C\x00\x00\x1aC\x00\x00\x1cC\x00\x00$C\x00\x003C\x00\x004C\x00\x005C\x00\x008C\x00\x00CC\x00\x00bC\x00\x00iC\x00\x00oC\x00\x00wC\x00\x00\x8bC\x00\x80\x8cC\x00\x00\x8fC\x00\x00\x90C\x00\x80\x99C\x00\x00\xa2C\x00\x00\xaaC\x00\x00\xaeC\x00\x00\xc1C\x00\x80\xc5C\x00\x00\xccC\x00\x80\xd0C\x00\x80\xd5C\x00\x80\xdbC\x00\x80\xddC\x00\x00\xe9C\x00\x00\xefC\x00\x80\xf3C\x00\x80\xf4C\x00\x00\xf8C\x00\x80\xfaC\x00\x00\xfeC\x00\xc0\x08D\x00@\x10D\x00\x80\x11D\x00\x80\x12D\x00\x80\x13D\x00\x00\x00\x00\x00\x00\x00\x00\x00\x00\x90A\x00\x00\xa0A\x00\x00\xb8A\x00\x00\x0cB\x00\x00$B\x00\x000B\x00\x00\x80B\x00\x00\x90B\x00\x00\x9eB\x00\x00\xb2B\x00\x00\xd2B\x00\x00\x0eC\x00\x00\x14C\x00\x00\x1dC\x00\x00,C\x00\x00-C\x00\x000C\x00\x00DC\x00\x00VC\x00\x00]C\x00\x00hC\x00\x00jC\x00\x00\x84C\x00\x80\x84C\x00\x00\x9aC\x00\x00\xa0C\x00\x00\xa9C\x00\x80\xa9C\x00\x00\xabC\x00\x80\xadC\x00\x80\xafC\x00\x80\xb5C\x00\x80\xbaC\x00\x00\xc4C\x00\x80\xc6C\x00\x00\xcbC\x00\x00\xe0C\x00\x80\xe1C\x00\x80\xebC\x00\x80\xeeC\x00\x00\xf3C\x00\x80\xf7C\x00\x00\xf9C\x00\x00\xfaC\x00\x80\xffC\x00\x80\x03D\x00\x00\x05D\x00\x80\x06D\x00\xc0\x06D\x00@\x08D\x00\x00\rD\x00\xc0\rD\x00\xc0\x10D\x00@\x12D\x00@\x13D\x00\x00`A\x00\x00pA\x00\x00\xf0A\x00\x00 B\x00\x00,B\x00\x004B\x00\x00DB\x00\x00LB\x00\x00\x82B\x00\x00\xa0B\x00\x00\xb0B\x00\x00\xc6B\x00\x00\xdcB\x00\x00\xe2B\x00\x00\x01C\x00\x00\x0cC\x00\x00\rC\x00\x00 C\x00\x00&C\x00\x00@C\x00\x00FC\x00\x00^C\x00\x00rC\x00\x00vC\x00\x80\x83C\x00\x00\x96C\x00\x80\x98C\x00\x80\x9eC\x00\x80\xa3C\x00\x00\xa7C\x00\x80\xb1C\x00\x00\xc0C\x00\x80\xc3C\x00\x00\xc5C\x00\x00\xc7C\x00\x00\xceC\x00\x80\xcfC\x00\x00\xd2C\x00\x80\xdeC\x00\x00\xe8C\x00\x80\xecC\x00\x80\xf0C\x00\x00\xf1C\x00@\x01D\x00\x00\x03D\x00\x80\x07D\x00\x80\x08D\x00@\x0bD\x00\x80\x0bD\x00\x00\x0eD\x00\xc0\x0eD\x00\xc0\x0fD\x00\x80\x10D\x00\xc0\x11D\x00\xc0\x15D\x00\x00@@\x00\x00 A\x00\x00\xb0A\x00\x00\xd0A\x00\x00(B\x00\x00@B\x00\x00\x92B\x00\x00\xb6B\x00\x00\xbaB\x00\x00\xd0B\x00\x00\xe4B\x00\x00\x04C\x00\x00\x05C\x00\x00\x1bC\x00\x00\x1fC\x00\x00)C\x00\x00*C\x00\x00>C\x00\x00AC\x00\x00KC\x00\x00NC\x00\x00[C\x00\x00|C\x00\x00\x7fC\x00\x00\x83C\x00\x80\x85C\x00\x80\x8bC\x00\x00\x92C\x00\x80\x92C\x00\x80\x9bC\x00\x00\xa3C\x00\x80\xa8C\x00\x80\xacC\x00\x80\xb2C\x00\x80\xb3C\x00\x80\xbdC\x00\x80\xbeC\x00\x80\xc1C\x00\x80\xd2C\x00\x80\xd8C\x00\x00\xdcC\x00\x80\xe2C\x00\x80\xe4C\x00\x80\xe5C\x00\x00\xe6C\x00\x00\xf2C\x00\x80\xf5C\x00\x80\xf8C\x00\xc0\x02D\x00\x00\x06D\x00@\nD\x00\x00\x0bD\x00\xc0\x12D\x00@\x14D\x00\x00\x00\x00\x00\x000A\x00\x00\xc8A\x00\x00\xe0A\x00\x00\x10B\x00\x00\\B\x00\x00xB\x00\x00\xbcB\x00\x00\xc4B\x00\x00\xc8B\x00\x00\xceB\x00\x00\xd6B\x00\x00\xdeB\x00\x00\xe6B\x00\x00\x02C\x00\x00\nC\x00\x00\x13C\x00\x00\x15C\x00\x00!C\x00\x00%C\x00\x00.C\x00\x007C\x00\x00;C\x00\x00EC\x00\x00RC\x00\x00\\C\x00\x00_C\x00\x00yC\x00\x00zC\x00\x00\x80C\x00\x80\x82C\x00\x00\x8aC\x00\x00\x8cC\x00\x00\x9fC\x00\x00\xbbC\x00\x80\xc2C\x00\x00\xc3C\x00\x00\xc6C\x00\x00\xcdC\x00\x80\xcdC\x00\x80\xd1C\x00\x00\xd8C\x00\x00\xddC\x00\x00\xe4C\x00\x00\xe5C\x00\x00\xecC\x00\x80\xedC\x00\x80\xf9C\x00\x80\x00D\x00@\x04D\x00\x80\x04D\x00@\x05D\x00\x00\x07D\x00\x80\nD\x00\x80\x15D\x00\x00\x00\x00'
S'\x00\x00\x00\x00\x00\x00\x00\x00\x00\x00\x00\x00\x00\x00\x00\x00\x00\x00\x00\x00\x00\x00\x00\x00\x00\x00\x00\x00\x00\x00\x00\x00\x00\x00\x00\x00\x00\x00\x00\x00\x00\x00\x00\x00\x00\x00\x00\x00\x00\x00\x00\x00\x00\x00\x00\x00\x00\x00\x00\x00\x00\x00\x00\x00\x00\x00\x00\x00\x00\x00\x00\x00\x00\x00\x00\x00\x00\x00\x00\x00\x00\x00\x00\x00\x00\x00\x00\x00\x00\x00\x00\x00\x00\x00\x00\x00\x00\x00\x00\x00\x00\x00\x00\x00\x00\x00\x00\x00\x00\x01\x00\x00\x00\x00\x00\x00\x00\x00\x00\x00\x00\x00\x00\x00\x00\x00\x00\x00\x00\x00\x00\x00\x00\x00\x00\x00\x00\x00\x00\x00\x00\x00\x00\x00\x00\x00\x00\x00\x00\x00\x00\x00\x00\x00\x00\x00\x00\x00\x00\x00\x00\x00\x00\x00\x00\x00\x00\x00\x00\x00\x00\x00\x00\x00\x00\x00\x00\x00\x00\x00\x00\x00\x00\x00\x00\x00\x00\x00\x00\x00\x00\x00\x00\x00\x00\x00\x00\x00\x00\x00\x00\x00\x00\x00\x00\x00\x00\x00\x00\x00\x00\x00\x00\x00\x00\x00\x00\x00\x00\x00\x00\x00\x00\x00\x00\x00\x00\x00\x00\x00\x00\x00\x00\x00\x00\x00\x00\x00\x00\x00\x00\x00\x00\x00\x00\x00\x00\x00\x00\x00\x00\x00\x00\x00\x00\x00\x00\x00\x00\x00\x00\x00\x00\x00\x00\x00\x00\x00\x00\x00\x00\x00\x00\x00\x00\x00\x00\x00\x00\x00\x00\x00\x00\x00\x00\x00\x00\x00\x00\x00\x00\x00\x00\x00\x00\x00\x00\x00\x00\x00\x00\x00\x00\x00\x00\x00\x00\x00\x00\x00\x00\x00\x00\x00\x00\x00\x00\x00\x00\x00\x00\x00\x00\x00\x00\x00\x00\x00\x00\x00\x00\x00\x00\x00\x00\x00\x00\x00\x00\x00\x00\x00\x00\x00\x00\x00\x00\x00\x00\x00\x00\x00\x00\x00\x00\x00\x00\x00\x00\x00\x00\x00\x00\x00\x00\x00\x00\x00\x00\x00\x00\x00\x00\x00\x00\x00\x00\x00\x00\x00\x00\x00\x00\x01\x01\x00\x00\x00\x00\x00\x00\x00\x00\x00\x00\x00\x00\x00\x00\x00\x00\x00\x00\x00\x00\x00\x00\x00\x00\x00\x00\x00\x00\x00\x00\x00\x00\x00\x00\x00\x00\x00\x00\x00\x00\x00\x00\x00\x00\x00\x00\x00\x00\x00\x00\x00\x00\x00\x00\x00\x00\x00\x00\x00\x00\x00\x00\x00\x00\x00\x00\x00\x00\x00\x00\x00\x00\x00\x00\x00\x00\x00\x00\x00\x00\x00\x00\x00\x00\x00\x00\x00\x00\x00\x00\x00\x00\x00\x00\x00\x00\x00\x00\x00\x00\x00\x00\x00\x00\x00\x00\x00\x00\x00\x00\x00\x00\x00\x00\x00\x00\x00\x00\x00\x00\x00\x00\x00\x00\x00\x00\x00\x00\x00\x00\x00\x00\x00\x00\x00\x00\x00\x00\x00\x00\x00\x00\x00\x00\x00\x00\x00\x00\x00\x00\x00\x00\x00\x00\x00\x00\x00\x00\x00\x00\x00\x00\x00\x00\x01\x00\x00\x00\x00\x00\x00\x00\x00\x00\x00\x00\x00\x00\x00\x00\x00\x00\x00\x00\x00\x00\x00\x00\x00\x00\x00\x00\x00\x00\x00\x00\x00\x00\x00\x00\x00\x00\x00\x00\x00\x00\x00\x00\x00\x00\x00\x00\x00\x00\x00\x00\x00\x00\x00\x01'
NtbstRp57
(dp58
S'isNumeric'
p59
(dp60
g47
I01
sg55
I01
ssS'trials'
p61
g36
sS'dataTypes'
p62
(lp63
g47
ag55
asS'dataShape'
p64
(lp65
I11
aI55
asbsS'method'
p66
S'fullRandom'
p67
sS'sequenceIndices'
p68
cnumpy.core.multiarray
_reconstruct
p69
(g50
(I0
tS'b'
tRp70
(I1
(I11
I55
tg53
(S'O4'
I0
I1
tRp71
(I3
S'|'
NNNI-1
I-1
I63
tbI00
(lp72
I4
aI10
aI9
aI1
aI7
aI10
aI2
aI5
aI8
aI8
aI8
aI6
aI9
aI3
aI6
aI10
aI7
aI10
aI8
aI2
aI10
aI4
aI8
aI3
aI7
aI2
aI6
aI3
aI7
aI3
aI2
aI4
aI5
aI7
aI10
aI2
aI10
aI3
aI1
aI3
aI9
aI7
aI0
aI8
aI9
aI7
aI0
aI8
aI0
aI7
aI3
aI1
aI4
aI8
aI0
aI2
aI5
aI7
aI5
aI8
aI0
aI2
aI3
aI7
aI10
aI10
aI6
aI9
aI4
aI9
aI8
aI2
aI4
aI2
aI10
aI7
aI7
aI4
aI2
aI7
aI10
aI4
aI2
aI4
aI7
aI1
aI7
aI3
aI1
aI4
aI6
aI7
aI6
aI10
aI3
aI5
aI2
aI4
aI5
aI5
aI6
aI4
aI1
aI10
aI10
aI1
aI3
aI1
aI1
aI0
aI1
aI4
aI2
aI7
aI6
aI6
aI0
aI7
aI4
aI1
aI5
aI1
aI0
aI6
aI6
aI3
aI0
aI5
aI3
aI4
aI8
aI6
aI4
aI9
aI1
aI5
aI6
aI2
aI0
aI2
aI5
aI2
aI2
aI3
aI0
aI9
aI8
aI4
aI8
aI3
aI10
aI9
aI8
aI10
aI7
aI9
aI6
aI0
aI10
aI3
aI5
aI2
aI1
aI7
aI2
aI9
aI8
aI10
aI10
aI5
aI2
aI6
aI8
aI9
aI2
aI8
aI5
aI4
aI2
aI7
aI5
aI6
aI9
aI0
aI2
aI10
aI7
aI0
aI10
aI9
aI6
aI3
aI8
aI9
aI2
aI5
aI3
aI8
aI5
aI0
aI5
aI4
aI10
aI9
aI10
aI6
aI1
aI1
aI1
aI6
aI7
aI0
aI4
aI2
aI8
aI9
aI7
aI8
aI6
aI4
aI3
aI8
aI9
aI3
aI9
aI4
aI4
aI6
aI0
aI10
aI9
aI2
aI1
aI10
aI1
aI9
aI6
aI0
aI5
aI1
aI1
aI0
aI8
aI5
aI1
aI9
aI4
aI1
aI1
aI4
aI8
aI9
aI5
aI2
aI5
aI10
aI0
aI10
aI4
aI9
aI1
aI1
aI6
aI7
aI0
aI10
aI0
aI5
aI7
aI2
aI10
aI3
aI4
aI9
aI10
aI1
aI6
aI5
aI0
aI8
aI1
aI2
aI5
aI9
aI9
aI10
aI1
aI0
aI7
aI9
aI9
aI6
aI8
aI9
aI7
aI3
aI5
aI6
aI5
aI5
aI10
aI1
aI4
aI0
aI6
aI3
aI3
aI9
aI1
aI9
aI10
aI4
aI8
aI1
aI0
aI8
aI10
aI3
aI6
aI6
aI7
aI7
aI3
aI10
aI2
aI0
aI2
aI6
aI0
aI8
aI2
aI0
aI10
aI5
aI1
aI1
aI7
aI5
aI10
aI7
aI6
aI1
aI10
aI10
aI8
aI4
aI1
aI9
aI3
aI2
aI6
aI2
aI0
aI4
aI0
aI6
aI9
aI3
aI4
aI2
aI5
aI7
aI5
aI1
aI1
aI8
aI1
aI1
aI1
aI4
aI3
aI9
aI0
aI0
aI5
aI6
aI4
aI9
aI0
aI7
aI9
aI7
aI8
aI7
aI10
aI0
aI7
aI1
aI8
aI8
aI10
aI9
aI6
aI0
aI5
aI3
aI1
aI0
aI4
aI10
aI7
aI10
aI2
aI3
aI4
aI2
aI3
aI10
aI3
aI0
aI4
aI9
aI0
aI5
aI9
aI9
aI6
aI9
aI5
aI9
aI7
aI5
aI2
aI3
aI0
aI0
aI10
aI3
aI3
aI9
aI4
aI3
aI8
aI3
aI8
aI8
aI8
aI7
aI6
aI6
aI2
aI6
aI8
aI7
aI3
aI1
aI3
aI3
aI4
aI10
aI0
aI8
aI8
aI2
aI2
aI7
aI6
aI6
aI9
aI3
aI2
aI6
aI10
aI10
aI4
aI0
aI4
aI8
aI2
aI8
aI7
aI3
aI3
aI5
aI3
aI1
aI1
aI8
aI1
aI5
aI7
aI9
aI1
aI8
aI5
aI2
aI10
aI1
aI9
aI6
aI8
aI5
aI5
aI5
aI6
aI3
aI7
aI3
aI9
aI6
aI7
aI6
aI4
aI6
aI0
aI0
aI10
aI8
aI0
aI5
aI10
aI2
aI7
aI4
aI1
aI5
aI2
aI4
aI9
aI2
aI5
aI4
aI5
aI8
aI4
aI7
aI4
aI5
aI2
aI5
aI8
aI5
aI5
aI6
aI0
aI0
aI9
aI7
aI8
aI1
aI3
aI3
aI7
aI4
aI2
aI4
aI2
aI0
aI0
aI1
aI9
aI2
aI1
aI8
aI3
aI8
aI4
aI4
aI10
aI2
aI2
aI3
aI7
aI1
aI6
aI3
aI0
aI10
aI4
aI9
aI5
aI3
aI9
aI8
aI0
aI3
aI2
aI6
aI10
aI4
aI6
aI7
aI4
aI7
aI8
aI6
aI7
aI6
aI0
aI6
aI2
aI5
aI10
aI5
aI4
aI5
aI0
aI0
aI7
aI3
aI1
aI8
aI6
aI9
aI9
atbsS'finished'
p73
I00
sS'nReps'
p74
I55
sS'nRemaining'
p75
I5
sS'trialList'
p76
(lp77
I0
aI1
aI2
aI3
aI4
aI5
aI6
aI7
aI8
aI9
aI10
asS'seed'
p78
NsS'thisIndex'
p79
I8
sS'thisN'
p80
I599
sS'thisTrialN'
p81
I5
sS'nTotal'
p82
I605
sS'_warnUseOfNext'
p83
I01
sbasS'saveWideText'
p84
I00
sS'thisEntry'
p85
(dp86
sS'version'
p87
S''
sS'_paramNamesSoFar'
p88
(lp89
sS'entries'
p90
(lp91
(dp92
g16
(lp93
S'k'
asS'.thisTrial'
p94
I4
sS'.thisRepN'
p95
I0
sg30
VM
sg31
g32
sS'.thisTrialN'
p96
I0
sS'.thisN'
p97
I0
sS'.thisIndex'
p98
I4
sg15
(lp99
S'k'
asg17
S'Y'
sg14
I1
sa(dp100
g16
(lp101
S'k'
asg94
I2
sS'.thisRepN'
p102
I0
sg30
VM
sg31
g32
sS'.thisTrialN'
p103
I1
sS'.thisN'
p104
I1
sS'.thisIndex'
p105
I2
sg15
(lp106
S'd'
asg17
S'N'
sg14
I1
sa(dp107
g16
(lp108
S'k'
asg18
S'Y'
sS'.thisRepN'
p109
I0
sg20
S'N'
sg31
g32
sS'.thisTrialN'
p110
I2
sS'.thisN'
p111
I2
sS'.thisIndex'
p112
I1
sg15
(lp113
S'k'
asg30
VM
sg17
S'Y'
sg14
I1
sg19
(lp114
S'k'
asg94
I1
sa(dp115
g16
(lp116
S'k'
asg18
S'N'
sS'.thisRepN'
p117
I0
sg20
S'Y'
sg31
g32
sS'.thisTrialN'
p118
I3
sS'.thisN'
p119
I3
sS'.thisIndex'
p120
I9
sg15
(lp121
S'k'
asg30
VM
sg17
S'Y'
sg14
I1
sg19
Nsg94
I9
sa(dp122
g16
(lp123
S'k'
asg18
S'N'
sS'.thisRepN'
p124
I0
sg20
S'Y'
sg31
g32
sS'.thisTrialN'
p125
I4
sS'.thisN'
p126
I4
sS'.thisIndex'
p127
I3
sg15
(lp128
S'k'
asg30
VM
sg17
S'Y'
sg14
I1
sg19
Nsg94
I3
sa(dp129
g16
(lp130
S'k'
asg18
S'N'
sS'.thisRepN'
p131
I0
sg20
S'Y'
sg31
g32
sS'.thisTrialN'
p132
I5
sS'.thisN'
p133
I5
sS'.thisIndex'
p134
I1
sg15
(lp135
S'k'
asg30
VM
sg17
S'Y'
sg14
I1
sg19
Nsg94
I1
sa(dp136
g16
(lp137
S'k'
asg18
S'N'
sS'.thisRepN'
p138
I0
sg20
S'Y'
sg31
g32
sS'.thisTrialN'
p139
I6
sS'.thisN'
p140
I6
sS'.thisIndex'
p141
I2
sg15
(lp142
S'k'
asg30
VM
sg17
S'Y'
sg14
I1
sg19
Nsg94
I2
sa(dp143
g16
(lp144
S'k'
asg18
S'Y'
sS'.thisRepN'
p145
I0
sg20
S'N'
sg31
g32
sS'.thisTrialN'
p146
I7
sS'.thisN'
p147
I7
sS'.thisIndex'
p148
I0
sg15
(lp149
S'd'
asg30
VM
sg17
S'N'
sg14
I1
sg19
Nsg94
I0
sa(dp150
g16
(lp151
S'k'
asg18
S'N'
sS'.thisRepN'
p152
I0
sg20
S'Y'
sg31
g32
sS'.thisTrialN'
p153
I8
sS'.thisN'
p154
I8
sS'.thisIndex'
p155
I2
sg15
(lp156
S'k'
asg30
VM
sg17
S'Y'
sg14
I1
sg19
Nsg94
I2
sa(dp157
g16
(lp158
S'k'
asg18
S'Y'
sS'.thisRepN'
p159
I0
sg20
S'Y'
sg31
g32
sS'.thisTrialN'
p160
I9
sS'.thisN'
p161
I9
sS'.thisIndex'
p162
I3
sg15
(lp163
S'k'
asg30
VM
sg17
S'Y'
sg14
I1
sg19
(lp164
S'space'
p165
asg94
I3
sa(dp166
g16
(lp167
S'k'
asg18
S'Y'
sS'.thisRepN'
p168
I0
sg20
S'Y'
sg31
g32
sS'.thisTrialN'
p169
I10
sS'.thisN'
p170
I10
sS'.thisIndex'
p171
I9
sg15
(lp172
S'k'
asg30
VM
sg17
S'Y'
sg14
I1
sg19
(lp173
S'space'
p174
asg94
I9
sa(dp175
g16
(lp176
S'd'
asg18
S'N'
sS'.thisRepN'
p177
I1
sg20
S'N'
sg31
g32
sS'.thisTrialN'
p178
I0
sS'.thisN'
p179
I11
sS'.thisIndex'
p180
I10
sg15
(lp181
S'k'
asg30
VM
sg17
S'N'
sg14
I1
sg19
(lp182
S'space'
p183
asg94
I10
sa(dp184
g16
(lp185
S'k'
asg18
S'N'
sS'.thisRepN'
p186
I1
sg20
S'Y'
sg31
g32
sS'.thisTrialN'
p187
I1
sS'.thisN'
p188
I12
sS'.thisIndex'
p189
I5
sg15
(lp190
S'k'
asg30
VM
sg17
S'Y'
sg14
I1
sg19
Nsg94
I5
sa(dp191
g16
(lp192
S'k'
asg18
S'N'
sS'.thisRepN'
p193
I1
sg20
S'Y'
sg31
g32
sS'.thisTrialN'
p194
I2
sS'.thisN'
p195
I13
sS'.thisIndex'
p196
I4
sg15
(lp197
S'k'
asg30
VM
sg17
S'Y'
sg14
I1
sg19
Nsg94
I4
sa(dp198
g16
(lp199
S'k'
asg18
S'N'
sS'.thisRepN'
p200
I1
sg20
S'Y'
sg31
g32
sS'.thisTrialN'
p201
I3
sS'.thisN'
p202
I14
sS'.thisIndex'
p203
I8
sg15
(lp204
S'k'
asg30
VM
sg17
S'Y'
sg14
I1
sg19
Nsg94
I8
sa(dp205
g16
(lp206
S'd'
asg18
S'Y'
sS'.thisRepN'
p207
I1
sg20
S'N'
sg31
g32
sS'.thisTrialN'
p208
I4
sS'.thisN'
p209
I15
sS'.thisIndex'
p210
I8
sg15
(lp211
S'k'
asg30
VM
sg17
S'N'
sg14
I1
sg19
Nsg94
I8
sa(dp212
g16
(lp213
S'd'
asg18
S'N'
sS'.thisRepN'
p214
I1
sg20
S'Y'
sg31
g32
sS'.thisTrialN'
p215
I5
sS'.thisN'
p216
I16
sS'.thisIndex'
p217
I6
sg15
(lp218
S'd'
asg30
VM
sg17
S'Y'
sg14
I1
sg19
Nsg94
I6
sa(dp219
g16
(lp220
S'd'
asg18
S'Y'
sS'.thisRepN'
p221
I1
sg20
S'Y'
sg31
g32
sS'.thisTrialN'
p222
I6
sS'.thisN'
p223
I17
sS'.thisIndex'
p224
I0
sg15
(lp225
S'k'
asg30
VM
sg17
S'N'
sg14
I1
sg19
(lp226
S'space'
p227
asg94
I0
sa(dp228
g16
(lp229
S'd'
asg18
S'N'
sS'.thisRepN'
p230
I1
sg20
S'Y'
sg31
g32
sS'.thisTrialN'
p231
I7
sS'.thisN'
p232
I18
sS'.thisIndex'
p233
I7
sg15
(lp234
S'd'
asg30
VM
sg17
S'Y'
sg14
I1
sg19
Nsg94
I7
sa(dp235
g16
(lp236
S'd'
asg18
S'N'
sS'.thisRepN'
p237
I1
sg20
S'Y'
sg31
g32
sS'.thisTrialN'
p238
I8
sS'.thisN'
p239
I19
sS'.thisIndex'
p240
I6
sg15
(lp241
S'd'
asg30
VM
sg17
S'Y'
sg14
I1
sg19
Nsg94
I6
sa(dp242
g16
(lp243
S'd'
asg18
S'N'
sS'.thisRepN'
p244
I1
sg20
S'N'
sg31
g32
sS'.thisTrialN'
p245
I9
sS'.thisN'
p246
I20
sS'.thisIndex'
p247
I7
sg15
(lp248
S'd'
asg30
VM
sg17
S'Y'
sg14
I1
sg19
(lp249
S'd'
asg94
I7
sa(dp250
g16
(lp251
S'd'
asg18
S'Y'
sS'.thisRepN'
p252
I1
sg20
S'N'
sg31
g32
sS'.thisTrialN'
p253
I10
sS'.thisN'
p254
I21
sS'.thisIndex'
p255
I2
sg15
(lp256
S'd'
asg30
VM
sg17
S'Y'
sg14
I1
sg19
Nsg94
I2
sa(dp257
g16
(lp258
S'k'
asg18
S'Y'
sS'.thisRepN'
p259
I2
sg20
S'N'
sg31
g32
sS'.thisTrialN'
p260
I0
sS'.thisN'
p261
I22
sS'.thisIndex'
p262
I9
sg15
(lp263
S'd'
asg30
VM
sg17
S'N'
sg14
I1
sg19
Nsg94
I9
sa(dp264
g16
(lp265
S'k'
asg18
S'Y'
sS'.thisRepN'
p266
I2
sg20
S'N'
sg31
g32
sS'.thisTrialN'
p267
I1
sS'.thisN'
p268
I23
sS'.thisIndex'
p269
I7
sg15
(lp270
S'k'
asg30
VM
sg17
S'Y'
sg14
I1
sg19
Nsg94
I7
sa(dp271
g16
(lp272
S'k'
asg18
S'Y'
sS'.thisRepN'
p273
I2
sg20
S'Y'
sg31
g32
sS'.thisTrialN'
p274
I2
sS'.thisN'
p275
I24
sS'.thisIndex'
p276
I2
sg15
(lp277
S'k'
asg30
VM
sg17
S'Y'
sg14
I1
sg19
(lp278
S'space'
p279
asg94
I2
sa(dp280
g16
(lp281
S'd'
asg18
S'Y'
sS'.thisRepN'
p282
I2
sg20
S'Y'
sg31
g32
sS'.thisTrialN'
p283
I3
sS'.thisN'
p284
I25
sS'.thisIndex'
p285
I10
sg15
(lp286
S'k'
asg30
VM
sg17
S'N'
sg14
I1
sg19
(lp287
S'space'
p288
asg94
I10
sa(dp289
g16
(lp290
S'k'
asg18
S'N'
sS'.thisRepN'
p291
I2
sg20
S'Y'
sg31
g32
sS'.thisTrialN'
p292
I4
sS'.thisN'
p293
I26
sS'.thisIndex'
p294
I9
sg15
(lp295
S'k'
asg30
VM
sg17
S'Y'
sg14
I1
sg19
Nsg94
I9
sa(dp296
g16
(lp297
S'd'
asg18
S'N'
sS'.thisRepN'
p298
I2
sg20
S'Y'
sg31
g32
sS'.thisTrialN'
p299
I5
sS'.thisN'
p300
I27
sS'.thisIndex'
p301
I5
sg15
(lp302
S'd'
asg30
VM
sg17
S'Y'
sg14
I1
sg19
Nsg94
I5
sa(dp303
g16
(lp304
S'k'
asg18
S'N'
sS'.thisRepN'
p305
I2
sg20
S'Y'
sg31
g32
sS'.thisTrialN'
p306
I6
sS'.thisN'
p307
I28
sS'.thisIndex'
p308
I10
sg15
(lp309
S'k'
asg30
VM
sg17
S'Y'
sg14
I1
sg19
Nsg94
I10
sa(dp310
g16
(lp311
S'd'
asg18
S'N'
sS'.thisRepN'
p312
I2
sg20
S'Y'
sg31
g32
sS'.thisTrialN'
p313
I7
sS'.thisN'
p314
I29
sS'.thisIndex'
p315
I1
sg15
(lp316
S'k'
asg30
VM
sg17
S'N'
sg14
I1
sg19
Nsg94
I1
sa(dp317
g16
(lp318
S'k'
asg18
S'N'
sS'.thisRepN'
p319
I2
sg20
S'Y'
sg31
g32
sS'.thisTrialN'
p320
I8
sS'.thisN'
p321
I30
sS'.thisIndex'
p322
I8
sg15
(lp323
S'k'
asg30
VM
sg17
S'Y'
sg14
I1
sg19
Nsg94
I8
sa(dp324
g16
(lp325
S'k'
asg18
S'N'
sS'.thisRepN'
p326
I2
sg20
S'Y'
sg31
g32
sS'.thisTrialN'
p327
I9
sS'.thisN'
p328
I31
sS'.thisIndex'
p329
I3
sg15
(lp330
S'k'
asg30
VM
sg17
S'Y'
sg14
I1
sg19
Nsg94
I3
sa(dp331
g16
(lp332
S'k'
asg18
S'N'
sS'.thisRepN'
p333
I2
sg20
S'Y'
sg31
g32
sS'.thisTrialN'
p334
I10
sS'.thisN'
p335
I32
sS'.thisIndex'
p336
I1
sg15
(lp337
S'k'
asg30
VM
sg17
S'Y'
sg14
I1
sg19
Nsg94
I1
sa(dp338
g16
(lp339
S'k'
asg18
S'N'
sS'.thisRepN'
p340
I3
sg20
S'Y'
sg31
g32
sS'.thisTrialN'
p341
I0
sS'.thisN'
p342
I33
sS'.thisIndex'
p343
I1
sg15
(lp344
S'k'
asg30
VM
sg17
S'Y'
sg14
I1
sg19
Nsg94
I1
sa(dp345
g16
(lp346
S'k'
asg18
S'N'
sS'.thisRepN'
p347
I3
sg20
S'N'
sg31
g32
sS'.thisTrialN'
p348
I1
sS'.thisN'
p349
I34
sS'.thisIndex'
p350
I5
sg15
(lp351
S'k'
asg30
VM
sg17
S'Y'
sg14
I1
sg19
(lp352
S'space'
p353
asg94
I5
sa(dp354
g16
(lp355
S'k'
asg18
S'N'
sS'.thisRepN'
p356
I3
sg20
S'Y'
sg31
g32
sS'.thisTrialN'
p357
I2
sS'.thisN'
p358
I35
sS'.thisIndex'
p359
I7
sg15
(lp360
S'k'
asg30
VM
sg17
S'Y'
sg14
I1
sg19
Nsg94
I7
sa(dp361
g16
(lp362
S'k'
asg18
S'Y'
sS'.thisRepN'
p363
I3
sg20
S'Y'
sg31
g32
sS'.thisTrialN'
p364
I3
sS'.thisN'
p365
I36
sS'.thisIndex'
p366
I10
sg15
(lp367
S'k'
asg30
VM
sg17
S'Y'
sg14
I1
sg19
(lp368
S'space'
p369
asg94
I10
sa(dp370
g16
(lp371
S'k'
asg18
S'N'
sS'.thisRepN'
p372
I3
sg20
S'Y'
sg31
g32
sS'.thisTrialN'
p373
I4
sS'.thisN'
p374
I37
sS'.thisIndex'
p375
I3
sg15
(lp376
S'k'
asg30
VM
sg17
S'Y'
sg14
I1
sg19
Nsg94
I3
sa(dp377
g16
(lp378
S'k'
asg18
S'N'
sS'.thisRepN'
p379
I3
sg20
S'Y'
sg31
g32
sS'.thisTrialN'
p380
I5
sS'.thisN'
p381
I38
sS'.thisIndex'
p382
I0
sg15
(lp383
S'k'
asg30
VM
sg17
S'Y'
sg14
I1
sg19
Nsg94
I0
sa(dp384
g16
(lp385
S'd'
asg18
S'Y'
sS'.thisRepN'
p386
I3
sg20
S'N'
sg31
g32
sS'.thisTrialN'
p387
I6
sS'.thisN'
p388
I39
sS'.thisIndex'
p389
I5
sg15
(lp390
S'd'
asg30
VM
sg17
S'Y'
sg14
I1
sg19
Nsg94
I5
sa(dp391
g16
(lp392
S'k'
asg18
S'N'
sS'.thisRepN'
p393
I3
sg20
S'Y'
sg31
g32
sS'.thisTrialN'
p394
I7
sS'.thisN'
p395
I40
sS'.thisIndex'
p396
I8
sg15
(lp397
S'k'
asg30
VM
sg17
S'Y'
sg14
I1
sg19
Nsg94
I8
sa(dp398
g16
(lp399
S'k'
asg18
S'N'
sS'.thisRepN'
p400
I3
sg20
S'N'
sg31
g32
sS'.thisTrialN'
p401
I8
sS'.thisN'
p402
I41
sS'.thisIndex'
p403
I7
sg15
(lp404
S'k'
asg30
VM
sg17
S'Y'
sg14
I1
sg19
(lp405
S'space'
p406
asg94
I7
sa(dp407
g16
(lp408
S'k'
asg18
S'N'
sS'.thisRepN'
p409
I3
sg20
S'Y'
sg31
g32
sS'.thisTrialN'
p410
I9
sS'.thisN'
p411
I42
sS'.thisIndex'
p412
I9
sg15
(lp413
S'd'
asg30
VM
sg17
S'N'
sg14
I1
sg19
Nsg94
I9
sa(dp414
g16
(lp415
S'k'
asg18
S'Y'
sS'.thisRepN'
p416
I3
sg20
S'Y'
sg31
g32
sS'.thisTrialN'
p417
I10
sS'.thisN'
p418
I43
sS'.thisIndex'
p419
I8
sg15
(lp420
S'k'
asg30
VM
sg17
S'Y'
sg14
I1
sg19
(lp421
S'space'
p422
asg94
I8
sa(dp423
g16
(lp424
S'd'
asg18
S'Y'
sS'.thisRepN'
p425
I4
sg20
S'N'
sg31
g32
sS'.thisTrialN'
p426
I0
sS'.thisN'
p427
I44
sS'.thisIndex'
p428
I7
sg15
(lp429
S'd'
asg30
VM
sg17
S'Y'
sg14
I1
sg19
Nsg94
I7
sa(dp430
g16
(lp431
S'k'
asg18
S'N'
sS'.thisRepN'
p432
I4
sg20
S'N'
sg31
g32
sS'.thisTrialN'
p433
I1
sS'.thisN'
p434
I45
sS'.thisIndex'
p435
I8
sg15
(lp436
S'k'
asg30
VM
sg17
S'Y'
sg14
I1
sg19
(lp437
S'space'
p438
asg94
I8
sa(dp439
g16
(lp440
S'd'
asg18
S'Y'
sS'.thisRepN'
p441
I4
sg20
S'N'
sg31
g32
sS'.thisTrialN'
p442
I2
sS'.thisN'
p443
I46
sS'.thisIndex'
p444
I6
sg15
(lp445
S'd'
asg30
VM
sg17
S'Y'
sg14
I1
sg19
Nsg94
I6
sa(dp446
g16
(lp447
S'k'
asg18
S'Y'
sS'.thisRepN'
p448
I4
sg20
S'Y'
sg31
g32
sS'.thisTrialN'
p449
I3
sS'.thisN'
p450
I47
sS'.thisIndex'
p451
I5
sg15
(lp452
S'k'
asg30
VM
sg17
S'Y'
sg14
I1
sg19
(lp453
S'space'
p454
asg94
I5
sa(dp455
g16
(lp456
S'd'
asg18
S'N'
sS'.thisRepN'
p457
I4
sg20
S'N'
sg31
g32
sS'.thisTrialN'
p458
I4
sS'.thisN'
p459
I48
sS'.thisIndex'
p460
I9
sg15
(lp461
S'k'
asg30
VM
sg17
S'N'
sg14
I1
sg19
(lp462
S'space'
p463
asg94
I9
sa(dp464
g16
(lp465
S'd'
asg18
S'N'
sg22
I33
sS'.thisN'
p466
I49
sg20
S'Y'
sg31
g32
sS'.thisTrialN'
p467
I5
sS'.thisRepN'
p468
I4
sg21
I39
sS'.thisIndex'
p469
I8
sg23
I17
sg15
(lp470
S'k'
asg30
VM
sg17
S'N'
sg14
I1
sg19
Nsg94
I8
sa(dp471
g16
(lp472
S'k'
asg94
I1
sS'.thisRepN'
p473
I4
sg30
VM
sg31
g32
sS'.thisTrialN'
p474
I6
sS'.thisN'
p475
I50
sS'.thisIndex'
p476
I1
sg15
(lp477
S'k'
asg17
S'Y'
sg14
I2
sa(dp478
g16
(lp479
S'd'
asg94
I8
sS'.thisRepN'
p480
I4
sg30
VM
sg31
g32
sS'.thisTrialN'
p481
I7
sS'.thisN'
p482
I51
sS'.thisIndex'
p483
I8
sg15
(lp484
S'k'
asg17
S'N'
sg14
I2
sa(dp485
g16
(lp486
S'd'
asg18
S'N'
sS'.thisRepN'
p487
I4
sg20
S'Y'
sg31
g32
sS'.thisTrialN'
p488
I8
sS'.thisN'
p489
I52
sS'.thisIndex'
p490
I3
sg15
(lp491
S'd'
asg30
VM
sg17
S'Y'
sg14
I2
sg19
Nsg94
I3
sa(dp492
g16
(lp493
S'k'
asg18
S'N'
sS'.thisRepN'
p494
I4
sg20
S'Y'
sg31
g32
sS'.thisTrialN'
p495
I9
sS'.thisN'
p496
I53
sS'.thisIndex'
p497
I6
sg15
(lp498
S'k'
asg30
VM
sg17
S'Y'
sg14
I2
sg19
Nsg94
I6
sa(dp499
g16
(lp500
S'k'
asg18
S'Y'
sS'.thisRepN'
p501
I4
sg20
S'N'
sg31
g32
sS'.thisTrialN'
p502
I10
sS'.thisN'
p503
I54
sS'.thisIndex'
p504
I3
sg15
(lp505
S'd'
asg30
VM
sg17
S'N'
sg14
I2
sg19
Nsg94
I3
sa(dp506
g16
(lp507
S'k'
asg18
S'N'
sS'.thisRepN'
p508
I5
sg20
S'Y'
sg31
g32
sS'.thisTrialN'
p509
I0
sS'.thisN'
p510
I55
sS'.thisIndex'
p511
I10
sg15
(lp512
S'k'
asg30
VM
sg17
S'Y'
sg14
I2
sg19
Nsg94
I10
sa(dp513
g16
(lp514
S'k'
asg18
S'Y'
sS'.thisRepN'
p515
I5
sg20
S'N'
sg31
g32
sS'.thisTrialN'
p516
I1
sS'.thisN'
p517
I56
sS'.thisIndex'
p518
I0
sg15
(lp519
S'k'
asg30
VM
sg17
S'Y'
sg14
I2
sg19
Nsg94
I0
sa(dp520
g16
(lp521
S'd'
asg18
S'N'
sS'.thisRepN'
p522
I5
sg20
S'N'
sg31
g32
sS'.thisTrialN'
p523
I2
sS'.thisN'
p524
I57
sS'.thisIndex'
p525
I6
sg15
(lp526
S'k'
asg30
VM
sg17
S'N'
sg14
I2
sg19
(lp527
S'space'
p528
asg94
I6
sa(dp529
g16
(lp530
S'd'
asg18
S'N'
sS'.thisRepN'
p531
I5
sg20
S'N'
sg31
g32
sS'.thisTrialN'
p532
I3
sS'.thisN'
p533
I58
sS'.thisIndex'
p534
I2
sg15
(lp535
S'd'
asg30
VM
sg17
S'Y'
sg14
I2
sg19
(lp536
S'd'
asg94
I2
sa(dp537
g16
(lp538
S'k'
asg18
S'Y'
sS'.thisRepN'
p539
I5
sg20
S'N'
sg31
g32
sS'.thisTrialN'
p540
I4
sS'.thisN'
p541
I59
sS'.thisIndex'
p542
I4
sg15
(lp543
S'k'
asg30
VM
sg17
S'Y'
sg14
I2
sg19
Nsg94
I4
sa(dp544
g16
(lp545
S'd'
asg18
S'Y'
sS'.thisRepN'
p546
I5
sg20
S'N'
sg31
g32
sS'.thisTrialN'
p547
I5
sS'.thisN'
p548
I60
sS'.thisIndex'
p549
I1
sg15
(lp550
S'k'
asg30
VM
sg17
S'N'
sg14
I2
sg19
Nsg94
I1
sa(dp551
g16
(lp552
S'd'
asg18
S'N'
sS'.thisRepN'
p553
I5
sg20
S'Y'
sg31
g32
sS'.thisTrialN'
p554
I6
sS'.thisN'
p555
I61
sS'.thisIndex'
p556
I1
sg15
(lp557
S'k'
asg30
VM
sg17
S'N'
sg14
I2
sg19
Nsg94
I1
sa(dp558
g16
(lp559
S'd'
asg18
S'Y'
sS'.thisRepN'
p560
I5
sg20
S'Y'
sg31
g32
sS'.thisTrialN'
p561
I7
sS'.thisN'
p562
I62
sS'.thisIndex'
p563
I10
sg15
(lp564
S'd'
asg30
VM
sg17
S'Y'
sg14
I2
sg19
(lp565
S'space'
p566
asg94
I10
sa(dp567
g16
(lp568
S'k'
asg18
S'Y'
sS'.thisRepN'
p569
I5
sg20
S'N'
sg31
g32
sS'.thisTrialN'
p570
I8
sS'.thisN'
p571
I63
sS'.thisIndex'
p572
I1
sg15
(lp573
S'k'
asg30
VM
sg17
S'Y'
sg14
I2
sg19
Nsg94
I1
sa(dp574
g16
(lp575
S'd'
asg18
S'Y'
sS'.thisRepN'
p576
I5
sg20
S'N'
sg31
g32
sS'.thisTrialN'
p577
I9
sS'.thisN'
p578
I64
sS'.thisIndex'
p579
I7
sg15
(lp580
S'k'
asg30
VM
sg17
S'N'
sg14
I2
sg19
Nsg94
I7
sa(dp581
g16
(lp582
S'k'
asg18
S'N'
sS'.thisRepN'
p583
I5
sg20
S'Y'
sg31
g32
sS'.thisTrialN'
p584
I10
sS'.thisN'
p585
I65
sS'.thisIndex'
p586
I8
sg15
(lp587
S'k'
asg30
VM
sg17
S'Y'
sg14
I2
sg19
Nsg94
I8
sa(dp588
g16
(lp589
S'd'
asg18
S'Y'
sS'.thisRepN'
p590
I6
sg20
S'N'
sg31
g32
sS'.thisTrialN'
p591
I0
sS'.thisN'
p592
I66
sS'.thisIndex'
p593
I2
sg15
(lp594
S'k'
asg30
VM
sg17
S'N'
sg14
I2
sg19
Nsg94
I2
sa(dp595
g16
(lp596
S'd'
asg18
S'Y'
sS'.thisRepN'
p597
I6
sg20
S'N'
sg31
g32
sS'.thisTrialN'
p598
I1
sS'.thisN'
p599
I67
sS'.thisIndex'
p600
I2
sg15
(lp601
S'k'
asg30
VM
sg17
S'N'
sg14
I2
sg19
Nsg94
I2
sa(dp602
g16
(lp603
S'k'
asg18
S'Y'
sS'.thisRepN'
p604
I6
sg20
S'N'
sg31
g32
sS'.thisTrialN'
p605
I2
sS'.thisN'
p606
I68
sS'.thisIndex'
p607
I0
sg15
(lp608
S'k'
asg30
VM
sg17
S'Y'
sg14
I2
sg19
Nsg94
I0
sa(dp609
g16
(lp610
S'k'
asg18
S'N'
sS'.thisRepN'
p611
I6
sg20
S'Y'
sg31
g32
sS'.thisTrialN'
p612
I3
sS'.thisN'
p613
I69
sS'.thisIndex'
p614
I6
sg15
(lp615
S'k'
asg30
VM
sg17
S'Y'
sg14
I2
sg19
Nsg94
I6
sa(dp616
g16
(lp617
S'k'
asg18
S'N'
sS'.thisRepN'
p618
I6
sg20
S'Y'
sg31
g32
sS'.thisTrialN'
p619
I4
sS'.thisN'
p620
I70
sS'.thisIndex'
p621
I4
sg15
(lp622
S'k'
asg30
VM
sg17
S'Y'
sg14
I2
sg19
Nsg94
I4
sa(dp623
g16
(lp624
S'k'
asg18
S'N'
sS'.thisRepN'
p625
I6
sg20
S'N'
sg31
g32
sS'.thisTrialN'
p626
I5
sS'.thisN'
p627
I71
sS'.thisIndex'
p628
I2
sg15
(lp629
S'k'
asg30
VM
sg17
S'Y'
sg14
I2
sg19
(lp630
S'space'
p631
asg94
I2
sa(dp632
g16
(lp633
S'd'
asg18
S'N'
sS'.thisRepN'
p634
I6
sg20
S'Y'
sg31
g32
sS'.thisTrialN'
p635
I6
sS'.thisN'
p636
I72
sS'.thisIndex'
p637
I7
sg15
(lp638
S'd'
asg30
VM
sg17
S'Y'
sg14
I2
sg19
Nsg94
I7
sa(dp639
g16
(lp640
S'k'
asg18
S'Y'
sS'.thisRepN'
p641
I6
sg20
S'Y'
sg31
g32
sS'.thisTrialN'
p642
I7
sS'.thisN'
p643
I73
sS'.thisIndex'
p644
I9
sg15
(lp645
S'k'
asg30
VM
sg17
S'Y'
sg14
I2
sg19
(lp646
S'space'
p647
asg94
I9
sa(dp648
g16
(lp649
S'd'
asg18
S'Y'
sS'.thisRepN'
p650
I6
sg20
S'Y'
sg31
g32
sS'.thisTrialN'
p651
I8
sS'.thisN'
p652
I74
sS'.thisIndex'
p653
I3
sg15
(lp654
S'd'
asg30
VM
sg17
S'Y'
sg14
I2
sg19
(lp655
S'space'
p656
asg94
I3
sa(dp657
g16
(lp658
S'k'
asg18
S'N'
sS'.thisRepN'
p659
I6
sg20
S'Y'
sg31
g32
sS'.thisTrialN'
p660
I9
sS'.thisN'
p661
I75
sS'.thisIndex'
p662
I6
sg15
(lp663
S'k'
asg30
VM
sg17
S'Y'
sg14
I2
sg19
Nsg94
I6
sa(dp664
g16
(lp665
S'k'
asg18
S'N'
sS'.thisRepN'
p666
I6
sg20
S'Y'
sg31
g32
sS'.thisTrialN'
p667
I10
sS'.thisN'
p668
I76
sS'.thisIndex'
p669
I4
sg15
(lp670
S'k'
asg30
VM
sg17
S'Y'
sg14
I2
sg19
Nsg94
I4
sa(dp671
g16
(lp672
S'k'
asg18
S'N'
sS'.thisRepN'
p673
I7
sg20
S'Y'
sg31
g32
sS'.thisTrialN'
p674
I0
sS'.thisN'
p675
I77
sS'.thisIndex'
p676
I5
sg15
(lp677
S'k'
asg30
VM
sg17
S'Y'
sg14
I2
sg19
Nsg94
I5
sa(dp678
g16
(lp679
S'd'
asg18
S'N'
sS'.thisRepN'
p680
I7
sg20
S'Y'
sg31
g32
sS'.thisTrialN'
p681
I1
sS'.thisN'
p682
I78
sS'.thisIndex'
p683
I3
sg15
(lp684
S'k'
asg30
VM
sg17
S'N'
sg14
I2
sg19
Nsg94
I3
sa(dp685
g16
(lp686
S'd'
asg18
S'N'
sS'.thisRepN'
p687
I7
sg20
S'Y'
sg31
g32
sS'.thisTrialN'
p688
I2
sS'.thisN'
p689
I79
sS'.thisIndex'
p690
I7
sg15
(lp691
S'd'
asg30
VM
sg17
S'Y'
sg14
I2
sg19
Nsg94
I7
sa(dp692
g16
(lp693
S'd'
asg18
S'Y'
sS'.thisRepN'
p694
I7
sg20
S'Y'
sg31
g32
sS'.thisTrialN'
p695
I3
sS'.thisN'
p696
I80
sS'.thisIndex'
p697
I8
sg15
(lp698
S'd'
asg30
VM
sg17
S'Y'
sg14
I2
sg19
(lp699
S'space'
p700
asg94
I8
sa(dp701
g16
(lp702
S'k'
asg18
S'Y'
sS'.thisRepN'
p703
I7
sg20
S'Y'
sg31
g32
sS'.thisTrialN'
p704
I4
sS'.thisN'
p705
I81
sS'.thisIndex'
p706
I6
sg15
(lp707
S'k'
asg30
VM
sg17
S'Y'
sg14
I2
sg19
(lp708
S'space'
p709
asg94
I6
sa(dp710
g16
(lp711
S'k'
asg18
S'Y'
sS'.thisRepN'
p712
I7
sg20
S'N'
sg31
g32
sS'.thisTrialN'
p713
I5
sS'.thisN'
p714
I82
sS'.thisIndex'
p715
I5
sg15
(lp716
S'd'
asg30
VM
sg17
S'N'
sg14
I2
sg19
Nsg94
I5
sa(dp717
g16
(lp718
S'k'
asg18
S'N'
sS'.thisRepN'
p719
I7
sg20
S'Y'
sg31
g32
sS'.thisTrialN'
p720
I6
sS'.thisN'
p721
I83
sS'.thisIndex'
p722
I5
sg15
(lp723
S'k'
asg30
VM
sg17
S'Y'
sg14
I2
sg19
Nsg94
I5
sa(dp724
g16
(lp725
S'd'
asg18
S'N'
sS'.thisRepN'
p726
I7
sg20
S'Y'
sg31
g32
sS'.thisTrialN'
p727
I7
sS'.thisN'
p728
I84
sS'.thisIndex'
p729
I6
sg15
(lp730
S'd'
asg30
VM
sg17
S'Y'
sg14
I2
sg19
Nsg94
I6
sa(dp731
g16
(lp732
S'd'
asg18
S'Y'
sS'.thisRepN'
p733
I7
sg20
S'N'
sg31
g32
sS'.thisTrialN'
p734
I8
sS'.thisN'
p735
I85
sS'.thisIndex'
p736
I3
sg15
(lp737
S'k'
asg30
VM
sg17
S'N'
sg14
I2
sg19
Nsg94
I3
sa(dp738
g16
(lp739
S'k'
asg18
S'N'
sS'.thisRepN'
p740
I7
sg20
S'Y'
sg31
g32
sS'.thisTrialN'
p741
I9
sS'.thisN'
p742
I86
sS'.thisIndex'
p743
I4
sg15
(lp744
S'k'
asg30
VM
sg17
S'Y'
sg14
I2
sg19
Nsg94
I4
sa(dp745
g16
(lp746
S'd'
asg18
S'Y'
sS'.thisRepN'
p747
I7
sg20
S'Y'
sg31
g32
sS'.thisTrialN'
p748
I10
sS'.thisN'
p749
I87
sS'.thisIndex'
p750
I4
sg15
(lp751
S'k'
asg30
VM
sg17
S'N'
sg14
I2
sg19
(lp752
S'space'
p753
asg94
I4
sa(dp754
g16
(lp755
S'd'
asg18
S'Y'
sS'.thisRepN'
p756
I8
sg20
S'N'
sg31
g32
sS'.thisTrialN'
p757
I0
sS'.thisN'
p758
I88
sS'.thisIndex'
p759
I8
sg15
(lp760
S'k'
asg30
VM
sg17
S'N'
sg14
I2
sg19
Nsg94
I8
sa(dp761
g16
(lp762
S'k'
asg18
S'N'
sS'.thisRepN'
p763
I8
sg20
S'Y'
sg31
g32
sS'.thisTrialN'
p764
I1
sS'.thisN'
p765
I89
sS'.thisIndex'
p766
I7
sg15
(lp767
S'k'
asg30
VM
sg17
S'Y'
sg14
I2
sg19
Nsg94
I7
sa(dp768
g16
(lp769
S'd'
asg18
S'Y'
sS'.thisRepN'
p770
I8
sg20
S'N'
sg31
g32
sS'.thisTrialN'
p771
I2
sS'.thisN'
p772
I90
sS'.thisIndex'
p773
I4
sg15
(lp774
S'd'
asg30
VM
sg17
S'Y'
sg14
I2
sg19
Nsg94
I4
sa(dp775
g16
(lp776
S'k'
asg18
S'N'
sS'.thisRepN'
p777
I8
sg20
S'Y'
sg31
g32
sS'.thisTrialN'
p778
I3
sS'.thisN'
p779
I91
sS'.thisIndex'
p780
I9
sg15
(lp781
S'k'
asg30
VM
sg17
S'Y'
sg14
I2
sg19
Nsg94
I9
sa(dp782
g16
(lp783
S'd'
asg18
S'N'
sS'.thisRepN'
p784
I8
sg20
S'Y'
sg31
g32
sS'.thisTrialN'
p785
I4
sS'.thisN'
p786
I92
sS'.thisIndex'
p787
I0
sg15
(lp788
S'k'
asg30
VM
sg17
S'N'
sg14
I2
sg19
Nsg94
I0
sa(dp789
g16
(lp790
S'k'
asg18
S'Y'
sS'.thisRepN'
p791
I8
sg20
S'N'
sg31
g32
sS'.thisTrialN'
p792
I5
sS'.thisN'
p793
I93
sS'.thisIndex'
p794
I9
sg15
(lp795
S'k'
asg30
VM
sg17
S'Y'
sg14
I2
sg19
Nsg94
I9
sa(dp796
g16
(lp797
S'd'
asg18
S'Y'
sS'.thisRepN'
p798
I8
sg20
S'N'
sg31
g32
sS'.thisTrialN'
p799
I6
sS'.thisN'
p800
I94
sS'.thisIndex'
p801
I10
sg15
(lp802
S'd'
asg30
VM
sg17
S'Y'
sg14
I2
sg19
Nsg94
I10
sa(dp803
g16
(lp804
S'd'
asg18
S'Y'
sS'.thisRepN'
p805
I8
sg20
S'N'
sg31
g32
sS'.thisTrialN'
p806
I7
sS'.thisN'
p807
I95
sS'.thisIndex'
p808
I0
sg15
(lp809
S'k'
asg30
VM
sg17
S'N'
sg14
I2
sg19
Nsg94
I0
sa(dp810
g16
(lp811
S'd'
asg18
S'Y'
sS'.thisRepN'
p812
I8
sg20
S'N'
sg31
g32
sS'.thisTrialN'
p813
I8
sS'.thisN'
p814
I96
sS'.thisIndex'
p815
I4
sg15
(lp816
S'd'
asg30
VM
sg17
S'Y'
sg14
I2
sg19
Nsg94
I4
sa(dp817
g16
(lp818
S'd'
asg18
S'Y'
sS'.thisRepN'
p819
I8
sg20
S'N'
sg31
g32
sS'.thisTrialN'
p820
I9
sS'.thisN'
p821
I97
sS'.thisIndex'
p822
I6
sg15
(lp823
S'k'
asg30
VM
sg17
S'N'
sg14
I2
sg19
Nsg94
I6
sa(dp824
g16
(lp825
S'k'
asg18
S'Y'
sS'.thisRepN'
p826
I8
sg20
S'N'
sg31
g32
sS'.thisTrialN'
p827
I10
sS'.thisN'
p828
I98
sS'.thisIndex'
p829
I10
sg15
(lp830
S'd'
asg30
VM
sg17
S'N'
sg14
I2
sg19
Nsg94
I10
sa(dp831
g16
(lp832
S'd'
asg18
S'N'
sg22
I26
sS'.thisN'
p833
I99
sg20
S'Y'
sg31
g32
sS'.thisTrialN'
p834
I0
sS'.thisRepN'
p835
I9
sg21
I33
sS'.thisIndex'
p836
I8
sg23
I25
sg15
(lp837
S'd'
asg30
VM
sg17
S'Y'
sg14
I2
sg19
Nsg94
I8
sa(dp838
g16
(lp839
S'k'
asg94
I10
sS'.thisRepN'
p840
I9
sg30
VM
sg31
g32
sS'.thisTrialN'
p841
I1
sS'.thisN'
p842
I100
sS'.thisIndex'
p843
I10
sg15
(lp844
S'k'
asg17
S'Y'
sg14
I3
sa(dp845
g16
(lp846
S'k'
asg94
I1
sS'.thisRepN'
p847
I9
sg30
VM
sg31
g32
sS'.thisTrialN'
p848
I2
sS'.thisN'
p849
I101
sS'.thisIndex'
p850
I1
sg15
(lp851
S'k'
asg17
S'Y'
sg14
I3
sa(dp852
g16
(lp853
S'k'
asg18
S'N'
sS'.thisRepN'
p854
I9
sg20
S'Y'
sg31
g32
sS'.thisTrialN'
p855
I3
sS'.thisN'
p856
I102
sS'.thisIndex'
p857
I2
sg15
(lp858
S'k'
asg30
VM
sg17
S'Y'
sg14
I3
sg19
Nsg94
I2
sa(dp859
g16
(lp860
S'd'
asg18
S'N'
sS'.thisRepN'
p861
I9
sg20
S'Y'
sg31
g32
sS'.thisTrialN'
p862
I4
sS'.thisN'
p863
I103
sS'.thisIndex'
p864
I10
sg15
(lp865
S'd'
asg30
VM
sg17
S'Y'
sg14
I3
sg19
Nsg94
I10
sa(dp866
g16
(lp867
S'k'
asg18
S'N'
sS'.thisRepN'
p868
I9
sg20
S'Y'
sg31
g32
sS'.thisTrialN'
p869
I5
sS'.thisN'
p870
I104
sS'.thisIndex'
p871
I9
sg15
(lp872
S'd'
asg30
VM
sg17
S'N'
sg14
I3
sg19
Nsg94
I9
sa(dp873
g16
(lp874
S'd'
asg18
S'N'
sS'.thisRepN'
p875
I9
sg20
S'Y'
sg31
g32
sS'.thisTrialN'
p876
I6
sS'.thisN'
p877
I105
sS'.thisIndex'
p878
I7
sg15
(lp879
S'k'
asg30
VM
sg17
S'N'
sg14
I3
sg19
Nsg94
I7
sa(dp880
g16
(lp881
S'd'
asg18
S'Y'
sS'.thisRepN'
p882
I9
sg20
S'N'
sg31
g32
sS'.thisTrialN'
p883
I7
sS'.thisN'
p884
I106
sS'.thisIndex'
p885
I5
sg15
(lp886
S'd'
asg30
VM
sg17
S'Y'
sg14
I3
sg19
Nsg94
I5
sa(dp887
g16
(lp888
S'k'
asg18
S'Y'
sS'.thisRepN'
p889
I9
sg20
S'N'
sg31
g32
sS'.thisTrialN'
p890
I8
sS'.thisN'
p891
I107
sS'.thisIndex'
p892
I10
sg15
(lp893
S'k'
asg30
VM
sg17
S'Y'
sg14
I3
sg19
Nsg94
I10
sa(dp894
g16
(lp895
S'd'
asg18
S'Y'
sS'.thisRepN'
p896
I9
sg20
S'Y'
sg31
g32
sS'.thisTrialN'
p897
I9
sS'.thisN'
p898
I108
sS'.thisIndex'
p899
I0
sg15
(lp900
S'k'
asg30
VM
sg17
S'N'
sg14
I3
sg19
(lp901
S'space'
p902
asg94
I0
sa(dp903
g16
(lp904
S'd'
asg18
S'Y'
sS'.thisRepN'
p905
I9
sg20
S'N'
sg31
g32
sS'.thisTrialN'
p906
I10
sS'.thisN'
p907
I109
sS'.thisIndex'
p908
I2
sg15
(lp909
S'k'
asg30
VM
sg17
S'N'
sg14
I3
sg19
Nsg94
I2
sa(dp910
g16
(lp911
S'd'
asg18
S'N'
sS'.thisRepN'
p912
I10
sg20
S'N'
sg31
g32
sS'.thisTrialN'
p913
I0
sS'.thisN'
p914
I110
sS'.thisIndex'
p915
I8
sg15
(lp916
S'k'
asg30
VM
sg17
S'N'
sg14
I3
sg19
(lp917
S'space'
p918
asg94
I8
sa(dp919
g16
(lp920
S'd'
asg18
S'N'
sS'.thisRepN'
p921
I10
sg20
S'Y'
sg31
g32
sS'.thisTrialN'
p922
I1
sS'.thisN'
p923
I111
sS'.thisIndex'
p924
I10
sg15
(lp925
S'd'
asg30
VM
sg17
S'Y'
sg14
I3
sg19
Nsg94
I10
sa(dp926
g16
(lp927
S'd'
asg18
S'Y'
sS'.thisRepN'
p928
I10
sg20
S'N'
sg31
g32
sS'.thisTrialN'
p929
I2
sS'.thisN'
p930
I112
sS'.thisIndex'
p931
I5
sg15
(lp932
S'k'
asg30
VM
sg17
S'N'
sg14
I3
sg19
Nsg94
I5
sa(dp933
g16
(lp934
S'k'
asg18
S'N'
sS'.thisRepN'
p935
I10
sg20
S'Y'
sg31
g32
sS'.thisTrialN'
p936
I3
sS'.thisN'
p937
I113
sS'.thisIndex'
p938
I8
sg15
(lp939
S'k'
asg30
VM
sg17
S'Y'
sg14
I3
sg19
Nsg94
I8
sa(dp940
g16
(lp941
S'd'
asg18
S'N'
sS'.thisRepN'
p942
I10
sg20
S'Y'
sg31
g32
sS'.thisTrialN'
p943
I4
sS'.thisN'
p944
I114
sS'.thisIndex'
p945
I9
sg15
(lp946
S'd'
asg30
VM
sg17
S'Y'
sg14
I3
sg19
Nsg94
I9
sa(dp947
g16
(lp948
S'k'
asg18
S'N'
sS'.thisRepN'
p949
I10
sg20
S'Y'
sg31
g32
sS'.thisTrialN'
p950
I5
sS'.thisN'
p951
I115
sS'.thisIndex'
p952
I10
sg15
(lp953
S'k'
asg30
VM
sg17
S'Y'
sg14
I3
sg19
Nsg94
I10
sa(dp954
g16
(lp955
S'd'
asg18
S'Y'
sS'.thisRepN'
p956
I10
sg20
S'N'
sg31
g32
sS'.thisTrialN'
p957
I6
sS'.thisN'
p958
I116
sS'.thisIndex'
p959
I6
sg15
(lp960
S'd'
asg30
VM
sg17
S'Y'
sg14
I3
sg19
Nsg94
I6
sa(dp961
g16
(lp962
S'k'
asg18
S'Y'
sS'.thisRepN'
p963
I10
sg20
S'N'
sg31
g32
sS'.thisTrialN'
p964
I7
sS'.thisN'
p965
I117
sS'.thisIndex'
p966
I3
sg15
(lp967
S'k'
asg30
VM
sg17
S'Y'
sg14
I3
sg19
Nsg94
I3
sa(dp968
g16
(lp969
S'd'
asg18
S'Y'
sS'.thisRepN'
p970
I10
sg20
S'N'
sg31
g32
sS'.thisTrialN'
p971
I8
sS'.thisN'
p972
I118
sS'.thisIndex'
p973
I0
sg15
(lp974
S'k'
asg30
VM
sg17
S'N'
sg14
I3
sg19
Nsg94
I0
sa(dp975
g16
(lp976
S'd'
asg18
S'N'
sS'.thisRepN'
p977
I10
sg20
S'Y'
sg31
g32
sS'.thisTrialN'
p978
I9
sS'.thisN'
p979
I119
sS'.thisIndex'
p980
I0
sg15
(lp981
S'k'
asg30
VM
sg17
S'N'
sg14
I3
sg19
Nsg94
I0
sa(dp982
g16
(lp983
S'd'
asg18
S'Y'
sS'.thisRepN'
p984
I10
sg20
S'N'
sg31
g32
sS'.thisTrialN'
p985
I10
sS'.thisN'
p986
I120
sS'.thisIndex'
p987
I2
sg15
(lp988
S'd'
asg30
VM
sg17
S'Y'
sg14
I3
sg19
Nsg94
I2
sa(dp989
g16
(lp990
S'k'
asg18
S'Y'
sS'.thisRepN'
p991
I11
sg20
S'N'
sg31
g32
sS'.thisTrialN'
p992
I0
sS'.thisN'
p993
I121
sS'.thisIndex'
p994
I6
sg15
(lp995
S'k'
asg30
VM
sg17
S'Y'
sg14
I3
sg19
Nsg94
I6
sa(dp996
g16
(lp997
S'd'
asg18
S'Y'
sS'.thisRepN'
p998
I11
sg20
S'N'
sg31
g32
sS'.thisTrialN'
p999
I1
sS'.thisN'
p1000
I122
sS'.thisIndex'
p1001
I6
sg15
(lp1002
S'd'
asg30
VM
sg17
S'Y'
sg14
I3
sg19
Nsg94
I6
sa(dp1003
g16
(lp1004
S'd'
asg18
S'Y'
sS'.thisRepN'
p1005
I11
sg20
S'Y'
sg31
g32
sS'.thisTrialN'
p1006
I2
sS'.thisN'
p1007
I123
sS'.thisIndex'
p1008
I1
sg15
(lp1009
S'd'
asg30
VM
sg17
S'Y'
sg14
I3
sg19
(lp1010
S'space'
p1011
asg94
I1
sa(dp1012
g16
(lp1013
S'k'
asg18
S'N'
sS'.thisRepN'
p1014
I11
sg20
S'Y'
sg31
g32
sS'.thisTrialN'
p1015
I3
sS'.thisN'
p1016
I124
sS'.thisIndex'
p1017
I5
sg15
(lp1018
S'k'
asg30
VM
sg17
S'Y'
sg14
I3
sg19
Nsg94
I5
sa(dp1019
g16
(lp1020
S'k'
asg18
S'N'
sS'.thisRepN'
p1021
I11
sg20
S'Y'
sg31
g32
sS'.thisTrialN'
p1022
I4
sS'.thisN'
p1023
I125
sS'.thisIndex'
p1024
I2
sg15
(lp1025
S'k'
asg30
VM
sg17
S'Y'
sg14
I3
sg19
Nsg94
I2
sa(dp1026
g16
(lp1027
S'd'
asg18
S'Y'
sS'.thisRepN'
p1028
I11
sg20
S'Y'
sg31
g32
sS'.thisTrialN'
p1029
I5
sS'.thisN'
p1030
I126
sS'.thisIndex'
p1031
I1
sg15
(lp1032
S'd'
asg30
VM
sg17
S'Y'
sg14
I3
sg19
(lp1033
S'space'
p1034
asg94
I1
sa(dp1035
g16
(lp1036
S'k'
asg18
S'Y'
sS'.thisRepN'
p1037
I11
sg20
S'N'
sg31
g32
sS'.thisTrialN'
p1038
I6
sS'.thisN'
p1039
I127
sS'.thisIndex'
p1040
I1
sg15
(lp1041
S'k'
asg30
VM
sg17
S'Y'
sg14
I3
sg19
Nsg94
I1
sa(dp1042
g16
(lp1043
S'k'
asg18
S'Y'
sS'.thisRepN'
p1044
I11
sg20
S'Y'
sg31
g32
sS'.thisTrialN'
p1045
I7
sS'.thisN'
p1046
I128
sS'.thisIndex'
p1047
I1
sg15
(lp1048
S'k'
asg30
VM
sg17
S'Y'
sg14
I3
sg19
(lp1049
S'space'
p1050
asg94
I1
sa(dp1051
g16
(lp1052
S'k'
asg18
S'N'
sS'.thisRepN'
p1053
I11
sg20
S'Y'
sg31
g32
sS'.thisTrialN'
p1054
I8
sS'.thisN'
p1055
I129
sS'.thisIndex'
p1056
I8
sg15
(lp1057
S'k'
asg30
VM
sg17
S'Y'
sg14
I3
sg19
Nsg94
I8
sa(dp1058
g16
(lp1059
S'd'
asg18
S'N'
sS'.thisRepN'
p1060
I11
sg20
S'Y'
sg31
g32
sS'.thisTrialN'
p1061
I9
sS'.thisN'
p1062
I130
sS'.thisIndex'
p1063
I10
sg15
(lp1064
S'd'
asg30
VM
sg17
S'Y'
sg14
I3
sg19
Nsg94
I10
sa(dp1065
g16
(lp1066
S'k'
asg18
S'Y'
sS'.thisRepN'
p1067
I11
sg20
S'Y'
sg31
g32
sS'.thisTrialN'
p1068
I10
sS'.thisN'
p1069
I131
sS'.thisIndex'
p1070
I3
sg15
(lp1071
S'd'
asg30
VM
sg17
S'N'
sg14
I3
sg19
(lp1072
S'space'
p1073
asg94
I3
sa(dp1074
g16
(lp1075
S'k'
asg18
S'Y'
sS'.thisRepN'
p1076
I12
sg20
S'N'
sg31
g32
sS'.thisTrialN'
p1077
I0
sS'.thisN'
p1078
I132
sS'.thisIndex'
p1079
I9
sg15
(lp1080
S'k'
asg30
VM
sg17
S'Y'
sg14
I3
sg19
Nsg94
I9
sa(dp1081
g16
(lp1082
S'k'
asg18
S'N'
sS'.thisRepN'
p1083
I12
sg20
S'Y'
sg31
g32
sS'.thisTrialN'
p1084
I1
sS'.thisN'
p1085
I133
sS'.thisIndex'
p1086
I9
sg15
(lp1087
S'k'
asg30
VM
sg17
S'Y'
sg14
I3
sg19
Nsg94
I9
sa(dp1088
g16
(lp1089
S'd'
asg18
S'N'
sS'.thisRepN'
p1090
I12
sg20
S'Y'
sg31
g32
sS'.thisTrialN'
p1091
I2
sS'.thisN'
p1092
I134
sS'.thisIndex'
p1093
I0
sg15
(lp1094
S'k'
asg30
VM
sg17
S'N'
sg14
I3
sg19
Nsg94
I0
sa(dp1095
g16
(lp1096
S'k'
asg18
S'Y'
sS'.thisRepN'
p1097
I12
sg20
S'N'
sg31
g32
sS'.thisTrialN'
p1098
I3
sS'.thisN'
p1099
I135
sS'.thisIndex'
p1100
I4
sg15
(lp1101
S'd'
asg30
VM
sg17
S'N'
sg14
I3
sg19
Nsg94
I4
sa(dp1102
g16
(lp1103
S'd'
asg18
S'N'
sS'.thisRepN'
p1104
I12
sg20
S'Y'
sg31
g32
sS'.thisTrialN'
p1105
I4
sS'.thisN'
p1106
I136
sS'.thisIndex'
p1107
I1
sg15
(lp1108
S'd'
asg30
VM
sg17
S'Y'
sg14
I3
sg19
Nsg94
I1
sa(dp1109
g16
(lp1110
S'k'
asg18
S'N'
sS'.thisRepN'
p1111
I12
sg20
S'Y'
sg31
g32
sS'.thisTrialN'
p1112
I5
sS'.thisN'
p1113
I137
sS'.thisIndex'
p1114
I0
sg15
(lp1115
S'k'
asg30
VM
sg17
S'Y'
sg14
I3
sg19
Nsg94
I0
sa(dp1116
g16
(lp1117
S'k'
asg18
S'N'
sS'.thisRepN'
p1118
I12
sg20
S'Y'
sg31
g32
sS'.thisTrialN'
p1119
I6
sS'.thisN'
p1120
I138
sS'.thisIndex'
p1121
I10
sg15
(lp1122
S'k'
asg30
VM
sg17
S'Y'
sg14
I3
sg19
Nsg94
I10
sa(dp1123
g16
(lp1124
S'k'
asg18
S'N'
sS'.thisRepN'
p1125
I12
sg20
S'Y'
sg31
g32
sS'.thisTrialN'
p1126
I7
sS'.thisN'
p1127
I139
sS'.thisIndex'
p1128
I0
sg15
(lp1129
S'k'
asg30
VM
sg17
S'Y'
sg14
I3
sg19
Nsg94
I0
sa(dp1130
g16
(lp1131
S'k'
asg18
S'Y'
sS'.thisRepN'
p1132
I12
sg20
S'N'
sg31
g32
sS'.thisTrialN'
p1133
I8
sS'.thisN'
p1134
I140
sS'.thisIndex'
p1135
I8
sg15
(lp1136
S'k'
asg30
VM
sg17
S'Y'
sg14
I3
sg19
Nsg94
I8
sa(dp1137
g16
(lp1138
S'k'
asg18
S'N'
sS'.thisRepN'
p1139
I12
sg20
S'Y'
sg31
g32
sS'.thisTrialN'
p1140
I9
sS'.thisN'
p1141
I141
sS'.thisIndex'
p1142
I8
sg15
(lp1143
S'k'
asg30
VM
sg17
S'Y'
sg14
I3
sg19
Nsg94
I8
sa(dp1144
g16
(lp1145
S'd'
asg18
S'Y'
sS'.thisRepN'
p1146
I12
sg20
S'Y'
sg31
g32
sS'.thisTrialN'
p1147
I10
sS'.thisN'
p1148
I142
sS'.thisIndex'
p1149
I7
sg15
(lp1150
S'd'
asg30
VM
sg17
S'Y'
sg14
I3
sg19
(lp1151
S'space'
p1152
asg94
I7
sa(dp1153
g16
(lp1154
S'd'
asg18
S'Y'
sS'.thisRepN'
p1155
I13
sg20
S'Y'
sg31
g32
sS'.thisTrialN'
p1156
I0
sS'.thisN'
p1157
I143
sS'.thisIndex'
p1158
I3
sg15
(lp1159
S'd'
asg30
VM
sg17
S'Y'
sg14
I3
sg19
(lp1160
S'space'
p1161
asg94
I3
sa(dp1162
g16
(lp1163
S'd'
asg18
S'Y'
sS'.thisRepN'
p1164
I13
sg20
S'Y'
sg31
g32
sS'.thisTrialN'
p1165
I1
sS'.thisN'
p1166
I144
sS'.thisIndex'
p1167
I4
sg15
(lp1168
S'd'
asg30
VM
sg17
S'Y'
sg14
I3
sg19
(lp1169
S'space'
p1170
asg94
I4
sa(dp1171
g16
(lp1172
S'd'
asg18
S'Y'
sS'.thisRepN'
p1173
I13
sg20
S'Y'
sg31
g32
sS'.thisTrialN'
p1174
I2
sS'.thisN'
p1175
I145
sS'.thisIndex'
p1176
I6
sg15
(lp1177
S'd'
asg30
VM
sg17
S'Y'
sg14
I3
sg19
(lp1178
S'space'
p1179
asg94
I6
sa(dp1180
g16
(lp1181
S'k'
asg18
S'Y'
sS'.thisRepN'
p1182
I13
sg20
S'N'
sg31
g32
sS'.thisTrialN'
p1183
I3
sS'.thisN'
p1184
I146
sS'.thisIndex'
p1185
I2
sg15
(lp1186
S'd'
asg30
VM
sg17
S'N'
sg14
I3
sg19
Nsg94
I2
sa(dp1187
g16
(lp1188
S'k'
asg18
S'N'
sS'.thisRepN'
p1189
I13
sg20
S'Y'
sg31
g32
sS'.thisTrialN'
p1190
I4
sS'.thisN'
p1191
I147
sS'.thisIndex'
p1192
I10
sg15
(lp1193
S'k'
asg30
VM
sg17
S'Y'
sg14
I3
sg19
Nsg94
I10
sa(dp1194
g16
(lp1195
S'd'
asg18
S'N'
sS'.thisRepN'
p1196
I13
sg20
S'Y'
sg31
g32
sS'.thisTrialN'
p1197
I5
sS'.thisN'
p1198
I148
sS'.thisIndex'
p1199
I7
sg15
(lp1200
S'd'
asg30
VM
sg17
S'Y'
sg14
I3
sg19
Nsg94
I7
sa(dp1201
g16
(lp1202
S'k'
asg18
S'Y'
sg22
I31
sS'.thisN'
p1203
I149
sg20
S'N'
sg31
g32
sS'.thisTrialN'
p1204
I6
sS'.thisRepN'
p1205
I13
sg21
I38
sS'.thisIndex'
p1206
I10
sg23
I25
sg15
(lp1207
S'k'
asg30
VM
sg17
S'Y'
sg14
I3
sg19
Nsg94
I10
sa(dp1208
g16
(lp1209
S'd'
asg94
I4
sS'.thisRepN'
p1210
I13
sg30
VM
sg31
g32
sS'.thisTrialN'
p1211
I7
sS'.thisN'
p1212
I150
sS'.thisIndex'
p1213
I4
sg15
(lp1214
S'd'
asg17
S'Y'
sg14
I4
sa(dp1215
g16
(lp1216
S'd'
asg94
I2
sS'.thisRepN'
p1217
I13
sg30
VM
sg31
g32
sS'.thisTrialN'
p1218
I8
sS'.thisN'
p1219
I151
sS'.thisIndex'
p1220
I2
sg15
(lp1221
S'd'
asg17
S'Y'
sg14
I4
sa(dp1222
g16
(lp1223
S'k'
asg18
S'N'
sS'.thisRepN'
p1224
I13
sg20
S'Y'
sg31
g32
sS'.thisTrialN'
p1225
I9
sS'.thisN'
p1226
I152
sS'.thisIndex'
p1227
I0
sg15
(lp1228
S'k'
asg30
VM
sg17
S'Y'
sg14
I4
sg19
Nsg94
I0
sa(dp1229
g16
(lp1230
S'd'
asg18
S'Y'
sS'.thisRepN'
p1231
I13
sg20
S'Y'
sg31
g32
sS'.thisTrialN'
p1232
I10
sS'.thisN'
p1233
I153
sS'.thisIndex'
p1234
I1
sg15
(lp1235
S'd'
asg30
VM
sg17
S'Y'
sg14
I4
sg19
(lp1236
S'space'
p1237
asg94
I1
sa(dp1238
g16
(lp1239
S'k'
asg18
S'N'
sS'.thisRepN'
p1240
I14
sg20
S'Y'
sg31
g32
sS'.thisTrialN'
p1241
I0
sS'.thisN'
p1242
I154
sS'.thisIndex'
p1243
I6
sg15
(lp1244
S'k'
asg30
VM
sg17
S'Y'
sg14
I4
sg19
Nsg94
I6
sa(dp1245
g16
(lp1246
S'k'
asg18
S'N'
sS'.thisRepN'
p1247
I14
sg20
S'Y'
sg31
g32
sS'.thisTrialN'
p1248
I1
sS'.thisN'
p1249
I155
sS'.thisIndex'
p1250
I9
sg15
(lp1251
S'k'
asg30
VM
sg17
S'Y'
sg14
I4
sg19
Nsg94
I9
sa(dp1252
g16
(lp1253
S'd'
asg18
S'Y'
sS'.thisRepN'
p1254
I14
sg20
S'N'
sg31
g32
sS'.thisTrialN'
p1255
I2
sS'.thisN'
p1256
I156
sS'.thisIndex'
p1257
I6
sg15
(lp1258
S'd'
asg30
VM
sg17
S'Y'
sg14
I4
sg19
Nsg94
I6
sa(dp1259
g16
(lp1260
S'd'
asg18
S'N'
sS'.thisRepN'
p1261
I14
sg20
S'Y'
sg31
g32
sS'.thisTrialN'
p1262
I3
sS'.thisN'
p1263
I157
sS'.thisIndex'
p1264
I7
sg15
(lp1265
S'd'
asg30
VM
sg17
S'Y'
sg14
I4
sg19
Nsg94
I7
sa(dp1266
g16
(lp1267
S'd'
asg18
S'Y'
sS'.thisRepN'
p1268
I14
sg20
S'N'
sg31
g32
sS'.thisTrialN'
p1269
I4
sS'.thisN'
p1270
I158
sS'.thisIndex'
p1271
I1
sg15
(lp1272
S'd'
asg30
VM
sg17
S'Y'
sg14
I4
sg19
Nsg94
I1
sa(dp1273
g16
(lp1274
S'k'
asg18
S'N'
sS'.thisRepN'
p1275
I14
sg20
S'Y'
sg31
g32
sS'.thisTrialN'
p1276
I5
sS'.thisN'
p1277
I159
sS'.thisIndex'
p1278
I9
sg15
(lp1279
S'k'
asg30
VM
sg17
S'Y'
sg14
I4
sg19
Nsg94
I9
sa(dp1280
g16
(lp1281
S'd'
asg18
S'Y'
sS'.thisRepN'
p1282
I14
sg20
S'N'
sg31
g32
sS'.thisTrialN'
p1283
I6
sS'.thisN'
p1284
I160
sS'.thisIndex'
p1285
I8
sg15
(lp1286
S'd'
asg30
VM
sg17
S'Y'
sg14
I4
sg19
Nsg94
I8
sa(dp1287
g16
(lp1288
S'k'
asg18
S'Y'
sS'.thisRepN'
p1289
I14
sg20
S'Y'
sg31
g32
sS'.thisTrialN'
p1290
I7
sS'.thisN'
p1291
I161
sS'.thisIndex'
p1292
I10
sg15
(lp1293
S'k'
asg30
VM
sg17
S'Y'
sg14
I4
sg19
(lp1294
S'space'
p1295
asg94
I10
sa(dp1296
g16
(lp1297
S'k'
asg18
S'Y'
sS'.thisRepN'
p1298
I14
sg20
S'Y'
sg31
g32
sS'.thisTrialN'
p1299
I8
sS'.thisN'
p1300
I162
sS'.thisIndex'
p1301
I2
sg15
(lp1302
S'd'
asg30
VM
sg17
S'N'
sg14
I4
sg19
(lp1303
S'space'
p1304
asg94
I2
sa(dp1305
g16
(lp1306
S'k'
asg18
S'N'
sS'.thisRepN'
p1307
I14
sg20
S'Y'
sg31
g32
sS'.thisTrialN'
p1308
I9
sS'.thisN'
p1309
I163
sS'.thisIndex'
p1310
I5
sg15
(lp1311
S'k'
asg30
VM
sg17
S'Y'
sg14
I4
sg19
Nsg94
I5
sa(dp1312
g16
(lp1313
S'd'
asg18
S'N'
sS'.thisRepN'
p1314
I14
sg20
S'Y'
sg31
g32
sS'.thisTrialN'
p1315
I10
sS'.thisN'
p1316
I164
sS'.thisIndex'
p1317
I6
sg15
(lp1318
S'd'
asg30
VM
sg17
S'Y'
sg14
I4
sg19
Nsg94
I6
sa(dp1319
g16
(lp1320
S'k'
asg18
S'Y'
sS'.thisRepN'
p1321
I15
sg20
S'Y'
sg31
g32
sS'.thisTrialN'
p1322
I0
sS'.thisN'
p1323
I165
sS'.thisIndex'
p1324
I10
sg15
(lp1325
S'k'
asg30
VM
sg17
S'Y'
sg14
I4
sg19
(lp1326
S'space'
p1327
asg94
I10
sa(dp1328
g16
(lp1329
S'k'
asg18
S'N'
sS'.thisRepN'
p1330
I15
sg20
S'Y'
sg31
g32
sS'.thisTrialN'
p1331
I1
sS'.thisN'
p1332
I166
sS'.thisIndex'
p1333
I8
sg15
(lp1334
S'k'
asg30
VM
sg17
S'Y'
sg14
I4
sg19
Nsg94
I8
sa(dp1335
g16
(lp1336
S'k'
asg18
S'N'
sS'.thisRepN'
p1337
I15
sg20
S'Y'
sg31
g32
sS'.thisTrialN'
p1338
I2
sS'.thisN'
p1339
I167
sS'.thisIndex'
p1340
I3
sg15
(lp1341
S'k'
asg30
VM
sg17
S'Y'
sg14
I4
sg19
Nsg94
I3
sa(dp1342
g16
(lp1343
S'd'
asg18
S'N'
sS'.thisRepN'
p1344
I15
sg20
S'N'
sg31
g32
sS'.thisTrialN'
p1345
I3
sS'.thisN'
p1346
I168
sS'.thisIndex'
p1347
I5
sg15
(lp1348
S'd'
asg30
VM
sg17
S'Y'
sg14
I4
sg19
(lp1349
S'space'
p1350
asg94
I5
sa(dp1351
g16
(lp1352
S'd'
asg18
S'Y'
sS'.thisRepN'
p1353
I15
sg20
S'Y'
sg31
g32
sS'.thisTrialN'
p1354
I4
sS'.thisN'
p1355
I169
sS'.thisIndex'
p1356
I9
sg15
(lp1357
S'd'
asg30
VM
sg17
S'Y'
sg14
I4
sg19
(lp1358
S'space'
p1359
asg94
I9
sa(dp1360
g16
(lp1361
S'k'
asg18
S'N'
sS'.thisRepN'
p1362
I15
sg20
S'Y'
sg31
g32
sS'.thisTrialN'
p1363
I5
sS'.thisN'
p1364
I170
sS'.thisIndex'
p1365
I9
sg15
(lp1366
S'k'
asg30
VM
sg17
S'Y'
sg14
I4
sg19
Nsg94
I9
sa(dp1367
g16
(lp1368
S'k'
asg18
S'N'
sS'.thisRepN'
p1369
I15
sg20
S'Y'
sg31
g32
sS'.thisTrialN'
p1370
I6
sS'.thisN'
p1371
I171
sS'.thisIndex'
p1372
I4
sg15
(lp1373
S'k'
asg30
VM
sg17
S'Y'
sg14
I4
sg19
Nsg94
I4
sa(dp1374
g16
(lp1375
S'd'
asg18
S'N'
sS'.thisRepN'
p1376
I15
sg20
S'Y'
sg31
g32
sS'.thisTrialN'
p1377
I7
sS'.thisN'
p1378
I172
sS'.thisIndex'
p1379
I7
sg15
(lp1380
S'd'
asg30
VM
sg17
S'Y'
sg14
I4
sg19
Nsg94
I7
sa(dp1381
g16
(lp1382
S'd'
asg18
S'N'
sS'.thisRepN'
p1383
I15
sg20
S'N'
sg31
g32
sS'.thisTrialN'
p1384
I8
sS'.thisN'
p1385
I173
sS'.thisIndex'
p1386
I7
sg15
(lp1387
S'd'
asg30
VM
sg17
S'Y'
sg14
I4
sg19
(lp1388
S'space'
p1389
asg94
I7
sa(dp1390
g16
(lp1391
S'd'
asg18
S'Y'
sS'.thisRepN'
p1392
I15
sg20
S'Y'
sg31
g32
sS'.thisTrialN'
p1393
I9
sS'.thisN'
p1394
I174
sS'.thisIndex'
p1395
I10
sg15
(lp1396
S'd'
asg30
VM
sg17
S'Y'
sg14
I4
sg19
(lp1397
S'space'
p1398
asg94
I10
sa(dp1399
g16
(lp1400
S'd'
asg18
S'Y'
sS'.thisRepN'
p1401
I15
sg20
S'N'
sg31
g32
sS'.thisTrialN'
p1402
I10
sS'.thisN'
p1403
I175
sS'.thisIndex'
p1404
I3
sg15
(lp1405
S'd'
asg30
VM
sg17
S'Y'
sg14
I4
sg19
Nsg94
I3
sa(dp1406
g16
(lp1407
S'd'
asg18
S'Y'
sS'.thisRepN'
p1408
I16
sg20
S'N'
sg31
g32
sS'.thisTrialN'
p1409
I0
sS'.thisN'
p1410
I176
sS'.thisIndex'
p1411
I7
sg15
(lp1412
S'd'
asg30
VM
sg17
S'Y'
sg14
I4
sg19
Nsg94
I7
sa(dp1413
g16
(lp1414
S'd'
asg18
S'Y'
sS'.thisRepN'
p1415
I16
sg20
S'Y'
sg31
g32
sS'.thisTrialN'
p1416
I1
sS'.thisN'
p1417
I177
sS'.thisIndex'
p1418
I2
sg15
(lp1419
S'd'
asg30
VM
sg17
S'Y'
sg14
I4
sg19
(lp1420
S'space'
p1421
asg94
I2
sa(dp1422
g16
(lp1423
S'k'
asg18
S'N'
sS'.thisRepN'
p1424
I16
sg20
S'Y'
sg31
g32
sS'.thisTrialN'
p1425
I2
sS'.thisN'
p1426
I178
sS'.thisIndex'
p1427
I0
sg15
(lp1428
S'k'
asg30
VM
sg17
S'Y'
sg14
I4
sg19
Nsg94
I0
sa(dp1429
g16
(lp1430
S'd'
asg18
S'N'
sS'.thisRepN'
p1431
I16
sg20
S'Y'
sg31
g32
sS'.thisTrialN'
p1432
I3
sS'.thisN'
p1433
I179
sS'.thisIndex'
p1434
I6
sg15
(lp1435
S'd'
asg30
VM
sg17
S'Y'
sg14
I4
sg19
Nsg94
I6
sa(dp1436
g16
(lp1437
S'k'
asg18
S'N'
sS'.thisRepN'
p1438
I16
sg20
S'Y'
sg31
g32
sS'.thisTrialN'
p1439
I4
sS'.thisN'
p1440
I180
sS'.thisIndex'
p1441
I6
sg15
(lp1442
S'k'
asg30
VM
sg17
S'Y'
sg14
I4
sg19
Nsg94
I6
sa(dp1443
g16
(lp1444
S'k'
asg18
S'N'
sS'.thisRepN'
p1445
I16
sg20
S'Y'
sg31
g32
sS'.thisTrialN'
p1446
I5
sS'.thisN'
p1447
I181
sS'.thisIndex'
p1448
I6
sg15
(lp1449
S'k'
asg30
VM
sg17
S'Y'
sg14
I4
sg19
Nsg94
I6
sa(dp1450
g16
(lp1451
S'k'
asg18
S'N'
sS'.thisRepN'
p1452
I16
sg20
S'Y'
sg31
g32
sS'.thisTrialN'
p1453
I6
sS'.thisN'
p1454
I182
sS'.thisIndex'
p1455
I1
sg15
(lp1456
S'k'
asg30
VM
sg17
S'Y'
sg14
I4
sg19
Nsg94
I1
sa(dp1457
g16
(lp1458
S'd'
asg18
S'Y'
sS'.thisRepN'
p1459
I16
sg20
S'N'
sg31
g32
sS'.thisTrialN'
p1460
I7
sS'.thisN'
p1461
I183
sS'.thisIndex'
p1462
I10
sg15
(lp1463
S'd'
asg30
VM
sg17
S'Y'
sg14
I4
sg19
Nsg94
I10
sa(dp1464
g16
(lp1465
S'd'
asg18
S'Y'
sS'.thisRepN'
p1466
I16
sg20
S'N'
sg31
g32
sS'.thisTrialN'
p1467
I8
sS'.thisN'
p1468
I184
sS'.thisIndex'
p1469
I6
sg15
(lp1470
S'k'
asg30
VM
sg17
S'N'
sg14
I4
sg19
Nsg94
I6
sa(dp1471
g16
(lp1472
S'd'
asg18
S'Y'
sS'.thisRepN'
p1473
I16
sg20
S'N'
sg31
g32
sS'.thisTrialN'
p1474
I9
sS'.thisN'
p1475
I185
sS'.thisIndex'
p1476
I2
sg15
(lp1477
S'k'
asg30
VM
sg17
S'N'
sg14
I4
sg19
Nsg94
I2
sa(dp1478
g16
(lp1479
S'k'
asg18
S'Y'
sS'.thisRepN'
p1480
I16
sg20
S'N'
sg31
g32
sS'.thisTrialN'
p1481
I10
sS'.thisN'
p1482
I186
sS'.thisIndex'
p1483
I0
sg15
(lp1484
S'd'
asg30
VM
sg17
S'N'
sg14
I4
sg19
Nsg94
I0
sa(dp1485
g16
(lp1486
S'k'
asg18
S'N'
sS'.thisRepN'
p1487
I17
sg20
S'Y'
sg31
g32
sS'.thisTrialN'
p1488
I0
sS'.thisN'
p1489
I187
sS'.thisIndex'
p1490
I10
sg15
(lp1491
S'k'
asg30
VM
sg17
S'Y'
sg14
I4
sg19
Nsg94
I10
sa(dp1492
g16
(lp1493
S'k'
asg18
S'N'
sS'.thisRepN'
p1494
I17
sg20
S'Y'
sg31
g32
sS'.thisTrialN'
p1495
I1
sS'.thisN'
p1496
I188
sS'.thisIndex'
p1497
I4
sg15
(lp1498
S'k'
asg30
VM
sg17
S'Y'
sg14
I4
sg19
Nsg94
I4
sa(dp1499
g16
(lp1500
S'd'
asg18
S'Y'
sS'.thisRepN'
p1501
I17
sg20
S'N'
sg31
g32
sS'.thisTrialN'
p1502
I2
sS'.thisN'
p1503
I189
sS'.thisIndex'
p1504
I5
sg15
(lp1505
S'd'
asg30
VM
sg17
S'Y'
sg14
I4
sg19
Nsg94
I5
sa(dp1506
g16
(lp1507
S'k'
asg18
S'N'
sS'.thisRepN'
p1508
I17
sg20
S'Y'
sg31
g32
sS'.thisTrialN'
p1509
I3
sS'.thisN'
p1510
I190
sS'.thisIndex'
p1511
I9
sg15
(lp1512
S'k'
asg30
VM
sg17
S'Y'
sg14
I4
sg19
Nsg94
I9
sa(dp1513
g16
(lp1514
S'd'
asg18
S'N'
sS'.thisRepN'
p1515
I17
sg20
S'Y'
sg31
g32
sS'.thisTrialN'
p1516
I4
sS'.thisN'
p1517
I191
sS'.thisIndex'
p1518
I0
sg15
(lp1519
S'd'
asg30
VM
sg17
S'Y'
sg14
I4
sg19
Nsg94
I0
sa(dp1520
g16
(lp1521
S'd'
asg18
S'Y'
sS'.thisRepN'
p1522
I17
sg20
S'N'
sg31
g32
sS'.thisTrialN'
p1523
I5
sS'.thisN'
p1524
I192
sS'.thisIndex'
p1525
I8
sg15
(lp1526
S'd'
asg30
VM
sg17
S'Y'
sg14
I4
sg19
Nsg94
I8
sa(dp1527
g16
(lp1528
S'k'
asg18
S'N'
sS'.thisRepN'
p1529
I17
sg20
S'Y'
sg31
g32
sS'.thisTrialN'
p1530
I6
sS'.thisN'
p1531
I193
sS'.thisIndex'
p1532
I9
sg15
(lp1533
S'k'
asg30
VM
sg17
S'Y'
sg14
I4
sg19
Nsg94
I9
sa(dp1534
g16
(lp1535
S'd'
asg18
S'Y'
sS'.thisRepN'
p1536
I17
sg20
S'Y'
sg31
g32
sS'.thisTrialN'
p1537
I7
sS'.thisN'
p1538
I194
sS'.thisIndex'
p1539
I2
sg15
(lp1540
S'd'
asg30
VM
sg17
S'Y'
sg14
I4
sg19
(lp1541
S'space'
p1542
asg94
I2
sa(dp1543
g16
(lp1544
S'k'
asg18
S'N'
sS'.thisRepN'
p1545
I17
sg20
S'Y'
sg31
g32
sS'.thisTrialN'
p1546
I8
sS'.thisN'
p1547
I195
sS'.thisIndex'
p1548
I6
sg15
(lp1549
S'k'
asg30
VM
sg17
S'Y'
sg14
I4
sg19
Nsg94
I6
sa(dp1550
g16
(lp1551
S'd'
asg18
S'Y'
sS'.thisRepN'
p1552
I17
sg20
S'N'
sg31
g32
sS'.thisTrialN'
p1553
I9
sS'.thisN'
p1554
I196
sS'.thisIndex'
p1555
I7
sg15
(lp1556
S'k'
asg30
VM
sg17
S'N'
sg14
I4
sg19
Nsg94
I7
sa(dp1557
g16
(lp1558
S'd'
asg18
S'N'
sS'.thisRepN'
p1559
I17
sg20
S'Y'
sg31
g32
sS'.thisTrialN'
p1560
I10
sS'.thisN'
p1561
I197
sS'.thisIndex'
p1562
I10
sg15
(lp1563
S'd'
asg30
VM
sg17
S'Y'
sg14
I4
sg19
Nsg94
I10
sa(dp1564
g16
(lp1565
S'd'
asg18
S'Y'
sS'.thisRepN'
p1566
I18
sg20
S'Y'
sg31
g32
sS'.thisTrialN'
p1567
I0
sS'.thisN'
p1568
I198
sS'.thisIndex'
p1569
I8
sg15
(lp1570
S'd'
asg30
VM
sg17
S'Y'
sg14
I4
sg19
(lp1571
S'space'
p1572
asg94
I8
sa(dp1573
g16
(lp1574
S'd'
asg18
S'N'
sg22
I34
sS'.thisN'
p1575
I199
sg20
S'Y'
sg31
g32
sS'.thisTrialN'
p1576
I1
sS'.thisRepN'
p1577
I18
sg21
I45
sS'.thisIndex'
p1578
I2
sg23
I21
sg15
(lp1579
S'd'
asg30
VM
sg17
S'Y'
sg14
I4
sg19
Nsg94
I2
sa(dp1580
g16
(lp1581
S'd'
asg94
I3
sS'.thisRepN'
p1582
I18
sg30
VM
sg31
g32
sS'.thisTrialN'
p1583
I2
sS'.thisN'
p1584
I200
sS'.thisIndex'
p1585
I3
sg15
(lp1586
S'k'
asg17
S'N'
sg14
I5
sa(dp1587
g16
(lp1588
S'd'
asg94
I0
sS'.thisRepN'
p1589
I18
sg30
VM
sg31
g32
sS'.thisTrialN'
p1590
I3
sS'.thisN'
p1591
I201
sS'.thisIndex'
p1592
I0
sg15
(lp1593
S'k'
asg17
S'N'
sg14
I5
sa(dp1594
g16
(lp1595
S'd'
asg18
S'N'
sS'.thisRepN'
p1596
I18
sg20
S'Y'
sg31
g32
sS'.thisTrialN'
p1597
I4
sS'.thisN'
p1598
I202
sS'.thisIndex'
p1599
I5
sg15
(lp1600
S'd'
asg30
VM
sg17
S'Y'
sg14
I5
sg19
Nsg94
I5
sa(dp1601
g16
(lp1602
S'd'
asg18
S'N'
sS'.thisRepN'
p1603
I18
sg20
S'Y'
sg31
g32
sS'.thisTrialN'
p1604
I5
sS'.thisN'
p1605
I203
sS'.thisIndex'
p1606
I9
sg15
(lp1607
S'k'
asg30
VM
sg17
S'N'
sg14
I5
sg19
Nsg94
I9
sa(dp1608
g16
(lp1609
S'd'
asg18
S'N'
sS'.thisRepN'
p1610
I18
sg20
S'Y'
sg31
g32
sS'.thisTrialN'
p1611
I6
sS'.thisN'
p1612
I204
sS'.thisIndex'
p1613
I3
sg15
(lp1614
S'k'
asg30
VM
sg17
S'N'
sg14
I5
sg19
Nsg94
I3
sa(dp1615
g16
(lp1616
S'k'
asg18
S'Y'
sS'.thisRepN'
p1617
I18
sg20
S'N'
sg31
g32
sS'.thisTrialN'
p1618
I7
sS'.thisN'
p1619
I205
sS'.thisIndex'
p1620
I3
sg15
(lp1621
S'k'
asg30
VM
sg17
S'Y'
sg14
I5
sg19
Nsg94
I3
sa(dp1622
g16
(lp1623
S'd'
asg18
S'Y'
sS'.thisRepN'
p1624
I18
sg20
S'N'
sg31
g32
sS'.thisTrialN'
p1625
I8
sS'.thisN'
p1626
I206
sS'.thisIndex'
p1627
I9
sg15
(lp1628
S'k'
asg30
VM
sg17
S'N'
sg14
I5
sg19
Nsg94
I9
sa(dp1629
g16
(lp1630
S'k'
asg18
S'N'
sS'.thisRepN'
p1631
I18
sg20
S'Y'
sg31
g32
sS'.thisTrialN'
p1632
I9
sS'.thisN'
p1633
I207
sS'.thisIndex'
p1634
I4
sg15
(lp1635
S'k'
asg30
VM
sg17
S'Y'
sg14
I5
sg19
Nsg94
I4
sa(dp1636
g16
(lp1637
S'k'
asg18
S'N'
sS'.thisRepN'
p1638
I18
sg20
S'Y'
sg31
g32
sS'.thisTrialN'
p1639
I10
sS'.thisN'
p1640
I208
sS'.thisIndex'
p1641
I4
sg15
(lp1642
S'd'
asg30
VM
sg17
S'N'
sg14
I5
sg19
Nsg94
I4
sa(dp1643
g16
(lp1644
S'd'
asg18
S'N'
sS'.thisRepN'
p1645
I19
sg20
S'Y'
sg31
g32
sS'.thisTrialN'
p1646
I0
sS'.thisN'
p1647
I209
sS'.thisIndex'
p1648
I2
sg15
(lp1649
S'k'
asg30
VM
sg17
S'N'
sg14
I5
sg19
Nsg94
I2
sa(dp1650
g16
(lp1651
S'k'
asg18
S'N'
sS'.thisRepN'
p1652
I19
sg20
S'Y'
sg31
g32
sS'.thisTrialN'
p1653
I1
sS'.thisN'
p1654
I210
sS'.thisIndex'
p1655
I10
sg15
(lp1656
S'k'
asg30
VM
sg17
S'Y'
sg14
I5
sg19
Nsg94
I10
sa(dp1657
g16
(lp1658
S'k'
asg18
S'N'
sS'.thisRepN'
p1659
I19
sg20
S'Y'
sg31
g32
sS'.thisTrialN'
p1660
I2
sS'.thisN'
p1661
I211
sS'.thisIndex'
p1662
I4
sg15
(lp1663
S'k'
asg30
VM
sg17
S'Y'
sg14
I5
sg19
Nsg94
I4
sa(dp1664
g16
(lp1665
S'd'
asg18
S'Y'
sS'.thisRepN'
p1666
I19
sg20
S'N'
sg31
g32
sS'.thisTrialN'
p1667
I3
sS'.thisN'
p1668
I212
sS'.thisIndex'
p1669
I2
sg15
(lp1670
S'd'
asg30
VM
sg17
S'Y'
sg14
I5
sg19
Nsg94
I2
sa(dp1671
g16
(lp1672
S'd'
asg18
S'N'
sS'.thisRepN'
p1673
I19
sg20
S'Y'
sg31
g32
sS'.thisTrialN'
p1674
I4
sS'.thisN'
p1675
I213
sS'.thisIndex'
p1676
I1
sg15
(lp1677
S'd'
asg30
VM
sg17
S'Y'
sg14
I5
sg19
Nsg94
I1
sa(dp1678
g16
(lp1679
S'k'
asg18
S'N'
sS'.thisRepN'
p1680
I19
sg20
S'Y'
sg31
g32
sS'.thisTrialN'
p1681
I5
sS'.thisN'
p1682
I214
sS'.thisIndex'
p1683
I7
sg15
(lp1684
S'k'
asg30
VM
sg17
S'Y'
sg14
I5
sg19
Nsg94
I7
sa(dp1685
g16
(lp1686
S'd'
asg18
S'N'
sS'.thisRepN'
p1687
I19
sg20
S'Y'
sg31
g32
sS'.thisTrialN'
p1688
I6
sS'.thisN'
p1689
I215
sS'.thisIndex'
p1690
I2
sg15
(lp1691
S'd'
asg30
VM
sg17
S'Y'
sg14
I5
sg19
Nsg94
I2
sa(dp1692
g16
(lp1693
S'd'
asg18
S'N'
sS'.thisRepN'
p1694
I19
sg20
S'Y'
sg31
g32
sS'.thisTrialN'
p1695
I7
sS'.thisN'
p1696
I216
sS'.thisIndex'
p1697
I4
sg15
(lp1698
S'k'
asg30
VM
sg17
S'N'
sg14
I5
sg19
Nsg94
I4
sa(dp1699
g16
(lp1700
S'k'
asg18
S'Y'
sS'.thisRepN'
p1701
I19
sg20
S'N'
sg31
g32
sS'.thisTrialN'
p1702
I8
sS'.thisN'
p1703
I217
sS'.thisIndex'
p1704
I3
sg15
(lp1705
S'k'
asg30
VM
sg17
S'Y'
sg14
I5
sg19
Nsg94
I3
sa(dp1706
g16
(lp1707
S'd'
asg18
S'N'
sS'.thisRepN'
p1708
I19
sg20
S'Y'
sg31
g32
sS'.thisTrialN'
p1709
I9
sS'.thisN'
p1710
I218
sS'.thisIndex'
p1711
I1
sg15
(lp1712
S'd'
asg30
VM
sg17
S'Y'
sg14
I5
sg19
Nsg94
I1
sa(dp1713
g16
(lp1714
S'd'
asg18
S'Y'
sS'.thisRepN'
p1715
I19
sg20
S'N'
sg31
g32
sS'.thisTrialN'
p1716
I10
sS'.thisN'
p1717
I219
sS'.thisIndex'
p1718
I9
sg15
(lp1719
S'k'
asg30
VM
sg17
S'N'
sg14
I5
sg19
Nsg94
I9
sa(dp1720
g16
(lp1721
S'd'
asg18
S'N'
sS'.thisRepN'
p1722
I20
sg20
S'Y'
sg31
g32
sS'.thisTrialN'
p1723
I0
sS'.thisN'
p1724
I220
sS'.thisIndex'
p1725
I10
sg15
(lp1726
S'd'
asg30
VM
sg17
S'Y'
sg14
I5
sg19
Nsg94
I10
sa(dp1727
g16
(lp1728
S'd'
asg18
S'N'
sS'.thisRepN'
p1729
I20
sg20
S'N'
sg31
g32
sS'.thisTrialN'
p1730
I1
sS'.thisN'
p1731
I221
sS'.thisIndex'
p1732
I7
sg15
(lp1733
S'd'
asg30
VM
sg17
S'Y'
sg14
I5
sg19
(lp1734
S'space'
p1735
asg94
I7
sa(dp1736
g16
(lp1737
S'k'
asg18
S'N'
sS'.thisRepN'
p1738
I20
sg20
S'Y'
sg31
g32
sS'.thisTrialN'
p1739
I2
sS'.thisN'
p1740
I222
sS'.thisIndex'
p1741
I8
sg15
(lp1742
S'k'
asg30
VM
sg17
S'Y'
sg14
I5
sg19
Nsg94
I8
sa(dp1743
g16
(lp1744
S'k'
asg18
S'N'
sS'.thisRepN'
p1745
I20
sg20
S'Y'
sg31
g32
sS'.thisTrialN'
p1746
I3
sS'.thisN'
p1747
I223
sS'.thisIndex'
p1748
I10
sg15
(lp1749
S'k'
asg30
VM
sg17
S'Y'
sg14
I5
sg19
Nsg94
I10
sa(dp1750
g16
(lp1751
S'd'
asg18
S'N'
sS'.thisRepN'
p1752
I20
sg20
S'Y'
sg31
g32
sS'.thisTrialN'
p1753
I4
sS'.thisN'
p1754
I224
sS'.thisIndex'
p1755
I1
sg15
(lp1756
S'd'
asg30
VM
sg17
S'Y'
sg14
I5
sg19
Nsg94
I1
sa(dp1757
g16
(lp1758
S'd'
asg18
S'N'
sS'.thisRepN'
p1759
I20
sg20
S'Y'
sg31
g32
sS'.thisTrialN'
p1760
I5
sS'.thisN'
p1761
I225
sS'.thisIndex'
p1762
I3
sg15
(lp1763
S'd'
asg30
VM
sg17
S'Y'
sg14
I5
sg19
Nsg94
I3
sa(dp1764
g16
(lp1765
S'k'
asg18
S'Y'
sS'.thisRepN'
p1766
I20
sg20
S'N'
sg31
g32
sS'.thisTrialN'
p1767
I6
sS'.thisN'
p1768
I226
sS'.thisIndex'
p1769
I6
sg15
(lp1770
S'd'
asg30
VM
sg17
S'N'
sg14
I5
sg19
Nsg94
I6
sa(dp1771
g16
(lp1772
S'd'
asg18
S'N'
sS'.thisRepN'
p1773
I20
sg20
S'Y'
sg31
g32
sS'.thisTrialN'
p1774
I7
sS'.thisN'
p1775
I227
sS'.thisIndex'
p1776
I2
sg15
(lp1777
S'd'
asg30
VM
sg17
S'Y'
sg14
I5
sg19
Nsg94
I2
sa(dp1778
g16
(lp1779
S'd'
asg18
S'Y'
sS'.thisRepN'
p1780
I20
sg20
S'N'
sg31
g32
sS'.thisTrialN'
p1781
I8
sS'.thisN'
p1782
I228
sS'.thisIndex'
p1783
I2
sg15
(lp1784
S'd'
asg30
VM
sg17
S'Y'
sg14
I5
sg19
Nsg94
I2
sa(dp1785
g16
(lp1786
S'k'
asg18
S'N'
sS'.thisRepN'
p1787
I20
sg20
S'Y'
sg31
g32
sS'.thisTrialN'
p1788
I9
sS'.thisN'
p1789
I229
sS'.thisIndex'
p1790
I5
sg15
(lp1791
S'd'
asg30
VM
sg17
S'N'
sg14
I5
sg19
Nsg94
I5
sa(dp1792
g16
(lp1793
S'd'
asg18
S'N'
sS'.thisRepN'
p1794
I20
sg20
S'Y'
sg31
g32
sS'.thisTrialN'
p1795
I10
sS'.thisN'
p1796
I230
sS'.thisIndex'
p1797
I5
sg15
(lp1798
S'k'
asg30
VM
sg17
S'N'
sg14
I5
sg19
Nsg94
I5
sa(dp1799
g16
(lp1800
S'd'
asg18
S'Y'
sS'.thisRepN'
p1801
I21
sg20
S'N'
sg31
g32
sS'.thisTrialN'
p1802
I0
sS'.thisN'
p1803
I231
sS'.thisIndex'
p1804
I4
sg15
(lp1805
S'd'
asg30
VM
sg17
S'Y'
sg14
I5
sg19
Nsg94
I4
sa(dp1806
g16
(lp1807
S'd'
asg18
S'Y'
sS'.thisRepN'
p1808
I21
sg20
S'N'
sg31
g32
sS'.thisTrialN'
p1809
I1
sS'.thisN'
p1810
I232
sS'.thisIndex'
p1811
I7
sg15
(lp1812
S'd'
asg30
VM
sg17
S'Y'
sg14
I5
sg19
Nsg94
I7
sa(dp1813
g16
(lp1814
S'd'
asg18
S'N'
sS'.thisRepN'
p1815
I21
sg20
S'Y'
sg31
g32
sS'.thisTrialN'
p1816
I2
sS'.thisN'
p1817
I233
sS'.thisIndex'
p1818
I6
sg15
(lp1819
S'k'
asg30
VM
sg17
S'N'
sg14
I5
sg19
Nsg94
I6
sa(dp1820
g16
(lp1821
S'k'
asg18
S'N'
sS'.thisRepN'
p1822
I21
sg20
S'Y'
sg31
g32
sS'.thisTrialN'
p1823
I3
sS'.thisN'
p1824
I234
sS'.thisIndex'
p1825
I7
sg15
(lp1826
S'd'
asg30
VM
sg17
S'N'
sg14
I5
sg19
Nsg94
I7
sa(dp1827
g16
(lp1828
S'k'
asg18
S'N'
sS'.thisRepN'
p1829
I21
sg20
S'Y'
sg31
g32
sS'.thisTrialN'
p1830
I4
sS'.thisN'
p1831
I235
sS'.thisIndex'
p1832
I0
sg15
(lp1833
S'k'
asg30
VM
sg17
S'Y'
sg14
I5
sg19
Nsg94
I0
sa(dp1834
g16
(lp1835
S'k'
asg18
S'Y'
sS'.thisRepN'
p1836
I21
sg20
S'N'
sg31
g32
sS'.thisTrialN'
p1837
I5
sS'.thisN'
p1838
I236
sS'.thisIndex'
p1839
I5
sg15
(lp1840
S'k'
asg30
VM
sg17
S'Y'
sg14
I5
sg19
Nsg94
I5
sa(dp1841
g16
(lp1842
S'd'
asg18
S'N'
sS'.thisRepN'
p1843
I21
sg20
S'Y'
sg31
g32
sS'.thisTrialN'
p1844
I6
sS'.thisN'
p1845
I237
sS'.thisIndex'
p1846
I2
sg15
(lp1847
S'd'
asg30
VM
sg17
S'Y'
sg14
I5
sg19
Nsg94
I2
sa(dp1848
g16
(lp1849
S'd'
asg18
S'Y'
sS'.thisRepN'
p1850
I21
sg20
S'Y'
sg31
g32
sS'.thisTrialN'
p1851
I7
sS'.thisN'
p1852
I238
sS'.thisIndex'
p1853
I3
sg15
(lp1854
S'd'
asg30
VM
sg17
S'Y'
sg14
I5
sg19
(lp1855
S'space'
p1856
asg94
I3
sa(dp1857
g16
(lp1858
S'k'
asg18
S'Y'
sS'.thisRepN'
p1859
I21
sg20
S'N'
sg31
g32
sS'.thisTrialN'
p1860
I8
sS'.thisN'
p1861
I239
sS'.thisIndex'
p1862
I6
sg15
(lp1863
S'k'
asg30
VM
sg17
S'Y'
sg14
I5
sg19
Nsg94
I6
sa(dp1864
g16
(lp1865
S'k'
asg18
S'Y'
sS'.thisRepN'
p1866
I21
sg20
S'N'
sg31
g32
sS'.thisTrialN'
p1867
I9
sS'.thisN'
p1868
I240
sS'.thisIndex'
p1869
I2
sg15
(lp1870
S'd'
asg30
VM
sg17
S'N'
sg14
I5
sg19
Nsg94
I2
sa(dp1871
g16
(lp1872
S'k'
asg18
S'N'
sS'.thisRepN'
p1873
I21
sg20
S'Y'
sg31
g32
sS'.thisTrialN'
p1874
I10
sS'.thisN'
p1875
I241
sS'.thisIndex'
p1876
I3
sg15
(lp1877
S'k'
asg30
VM
sg17
S'Y'
sg14
I5
sg19
Nsg94
I3
sa(dp1878
g16
(lp1879
S'k'
asg18
S'N'
sS'.thisRepN'
p1880
I22
sg20
S'Y'
sg31
g32
sS'.thisTrialN'
p1881
I0
sS'.thisN'
p1882
I242
sS'.thisIndex'
p1883
I8
sg15
(lp1884
S'k'
asg30
VM
sg17
S'Y'
sg14
I5
sg19
Nsg94
I8
sa(dp1885
g16
(lp1886
S'd'
asg18
S'Y'
sS'.thisRepN'
p1887
I22
sg20
S'N'
sg31
g32
sS'.thisTrialN'
p1888
I1
sS'.thisN'
p1889
I243
sS'.thisIndex'
p1890
I4
sg15
(lp1891
S'k'
asg30
VM
sg17
S'N'
sg14
I5
sg19
Nsg94
I4
sa(dp1892
g16
(lp1893
S'k'
asg18
S'Y'
sS'.thisRepN'
p1894
I22
sg20
S'N'
sg31
g32
sS'.thisTrialN'
p1895
I2
sS'.thisN'
p1896
I244
sS'.thisIndex'
p1897
I4
sg15
(lp1898
S'k'
asg30
VM
sg17
S'Y'
sg14
I5
sg19
Nsg94
I4
sa(dp1899
g16
(lp1900
S'k'
asg18
S'Y'
sS'.thisRepN'
p1901
I22
sg20
S'N'
sg31
g32
sS'.thisTrialN'
p1902
I3
sS'.thisN'
p1903
I245
sS'.thisIndex'
p1904
I0
sg15
(lp1905
S'k'
asg30
VM
sg17
S'Y'
sg14
I5
sg19
Nsg94
I0
sa(dp1906
g16
(lp1907
S'd'
asg18
S'Y'
sS'.thisRepN'
p1908
I22
sg20
S'N'
sg31
g32
sS'.thisTrialN'
p1909
I4
sS'.thisN'
p1910
I246
sS'.thisIndex'
p1911
I8
sg15
(lp1912
S'd'
asg30
VM
sg17
S'Y'
sg14
I5
sg19
Nsg94
I8
sa(dp1913
g16
(lp1914
S'd'
asg18
S'N'
sS'.thisRepN'
p1915
I22
sg20
S'Y'
sg31
g32
sS'.thisTrialN'
p1916
I5
sS'.thisN'
p1917
I247
sS'.thisIndex'
p1918
I6
sg15
(lp1919
S'd'
asg30
VM
sg17
S'Y'
sg14
I5
sg19
Nsg94
I6
sa(dp1920
g16
(lp1921
S'k'
asg18
S'N'
sS'.thisRepN'
p1922
I22
sg20
S'Y'
sg31
g32
sS'.thisTrialN'
p1923
I6
sS'.thisN'
p1924
I248
sS'.thisIndex'
p1925
I0
sg15
(lp1926
S'k'
asg30
VM
sg17
S'Y'
sg14
I5
sg19
Nsg94
I0
sa(dp1927
g16
(lp1928
S'd'
asg18
S'N'
sg22
I31
sS'.thisN'
p1929
I249
sg20
S'Y'
sg31
g32
sS'.thisTrialN'
p1930
I7
sS'.thisRepN'
p1931
I22
sg21
I34
sS'.thisIndex'
p1932
I10
sg23
I17
sg15
(lp1933
S'd'
asg30
VM
sg17
S'Y'
sg14
I5
sg19
Nsg94
I10
sa(dp1934
g16
(lp1935
S'k'
asg94
I10
sS'.thisRepN'
p1936
I22
sg30
VM
sg31
g32
sS'.thisTrialN'
p1937
I8
sS'.thisN'
p1938
I250
sS'.thisIndex'
p1939
I10
sg15
(lp1940
S'k'
asg17
S'Y'
sg14
I6
sa(dp1941
g16
(lp1942
S'd'
asg94
I4
sS'.thisRepN'
p1943
I22
sg30
VM
sg31
g32
sS'.thisTrialN'
p1944
I9
sS'.thisN'
p1945
I251
sS'.thisIndex'
p1946
I4
sg15
(lp1947
S'd'
asg17
S'Y'
sg14
I6
sa(dp1948
g16
(lp1949
S'k'
asg18
S'N'
sS'.thisRepN'
p1950
I22
sg20
S'Y'
sg31
g32
sS'.thisTrialN'
p1951
I10
sS'.thisN'
p1952
I252
sS'.thisIndex'
p1953
I9
sg15
(lp1954
S'k'
asg30
VM
sg17
S'Y'
sg14
I6
sg19
Nsg94
I9
sa(dp1955
g16
(lp1956
S'd'
asg18
S'Y'
sS'.thisRepN'
p1957
I23
sg20
S'N'
sg31
g32
sS'.thisTrialN'
p1958
I0
sS'.thisN'
p1959
I253
sS'.thisIndex'
p1960
I3
sg15
(lp1961
S'k'
asg30
VM
sg17
S'N'
sg14
I6
sg19
Nsg94
I3
sa(dp1962
g16
(lp1963
S'd'
asg18
S'N'
sS'.thisRepN'
p1964
I23
sg20
S'Y'
sg31
g32
sS'.thisTrialN'
p1965
I1
sS'.thisN'
p1966
I254
sS'.thisIndex'
p1967
I2
sg15
(lp1968
S'd'
asg30
VM
sg17
S'Y'
sg14
I6
sg19
Nsg94
I2
sa(dp1969
g16
(lp1970
S'd'
asg18
S'Y'
sS'.thisRepN'
p1971
I23
sg20
S'Y'
sg31
g32
sS'.thisTrialN'
p1972
I2
sS'.thisN'
p1973
I255
sS'.thisIndex'
p1974
I9
sg15
(lp1975
S'k'
asg30
VM
sg17
S'N'
sg14
I6
sg19
(lp1976
S'space'
p1977
asg94
I9
sa(dp1978
g16
(lp1979
S'k'
asg18
S'Y'
sS'.thisRepN'
p1980
I23
sg20
S'N'
sg31
g32
sS'.thisTrialN'
p1981
I3
sS'.thisN'
p1982
I256
sS'.thisIndex'
p1983
I10
sg15
(lp1984
S'k'
asg30
VM
sg17
S'Y'
sg14
I6
sg19
Nsg94
I10
sa(dp1985
g16
(lp1986
S'k'
asg18
S'N'
sS'.thisRepN'
p1987
I23
sg20
S'Y'
sg31
g32
sS'.thisTrialN'
p1988
I4
sS'.thisN'
p1989
I257
sS'.thisIndex'
p1990
I5
sg15
(lp1991
S'k'
asg30
VM
sg17
S'Y'
sg14
I6
sg19
Nsg94
I5
sa(dp1992
g16
(lp1993
S'd'
asg18
S'Y'
sS'.thisRepN'
p1994
I23
sg20
S'Y'
sg31
g32
sS'.thisTrialN'
p1995
I5
sS'.thisN'
p1996
I258
sS'.thisIndex'
p1997
I5
sg15
(lp1998
S'd'
asg30
VM
sg17
S'Y'
sg14
I6
sg19
(lp1999
S'space'
p2000
asg94
I5
sa(dp2001
g16
(lp2002
S'k'
asg18
S'N'
sS'.thisRepN'
p2003
I23
sg20
S'Y'
sg31
g32
sS'.thisTrialN'
p2004
I6
sS'.thisN'
p2005
I259
sS'.thisIndex'
p2006
I4
sg15
(lp2007
S'k'
asg30
VM
sg17
S'Y'
sg14
I6
sg19
Nsg94
I4
sa(dp2008
g16
(lp2009
S'd'
asg18
S'N'
sS'.thisRepN'
p2010
I23
sg20
S'Y'
sg31
g32
sS'.thisTrialN'
p2011
I7
sS'.thisN'
p2012
I260
sS'.thisIndex'
p2013
I3
sg15
(lp2014
S'd'
asg30
VM
sg17
S'Y'
sg14
I6
sg19
Nsg94
I3
sa(dp2015
g16
(lp2016
S'd'
asg18
S'Y'
sS'.thisRepN'
p2017
I23
sg20
S'Y'
sg31
g32
sS'.thisTrialN'
p2018
I8
sS'.thisN'
p2019
I261
sS'.thisIndex'
p2020
I10
sg15
(lp2021
S'k'
asg30
VM
sg17
S'N'
sg14
I6
sg19
(lp2022
S'space'
p2023
asg94
I10
sa(dp2024
g16
(lp2025
S'k'
asg18
S'Y'
sS'.thisRepN'
p2026
I23
sg20
S'N'
sg31
g32
sS'.thisTrialN'
p2027
I9
sS'.thisN'
p2028
I262
sS'.thisIndex'
p2029
I9
sg15
(lp2030
S'k'
asg30
VM
sg17
S'Y'
sg14
I6
sg19
Nsg94
I9
sa(dp2031
g16
(lp2032
S'k'
asg18
S'N'
sS'.thisRepN'
p2033
I23
sg20
S'Y'
sg31
g32
sS'.thisTrialN'
p2034
I10
sS'.thisN'
p2035
I263
sS'.thisIndex'
p2036
I8
sg15
(lp2037
S'k'
asg30
VM
sg17
S'Y'
sg14
I6
sg19
Nsg94
I8
sa(dp2038
g16
(lp2039
S'd'
asg18
S'N'
sS'.thisRepN'
p2040
I24
sg20
S'Y'
sg31
g32
sS'.thisTrialN'
p2041
I0
sS'.thisN'
p2042
I264
sS'.thisIndex'
p2043
I7
sg15
(lp2044
S'k'
asg30
VM
sg17
S'N'
sg14
I6
sg19
Nsg94
I7
sa(dp2045
g16
(lp2046
S'k'
asg18
S'Y'
sS'.thisRepN'
p2047
I24
sg20
S'N'
sg31
g32
sS'.thisTrialN'
p2048
I1
sS'.thisN'
p2049
I265
sS'.thisIndex'
p2050
I7
sg15
(lp2051
S'k'
asg30
VM
sg17
S'Y'
sg14
I6
sg19
Nsg94
I7
sa(dp2052
g16
(lp2053
S'd'
asg18
S'Y'
sS'.thisRepN'
p2054
I24
sg20
S'N'
sg31
g32
sS'.thisTrialN'
p2055
I2
sS'.thisN'
p2056
I266
sS'.thisIndex'
p2057
I1
sg15
(lp2058
S'd'
asg30
VM
sg17
S'Y'
sg14
I6
sg19
Nsg94
I1
sa(dp2059
g16
(lp2060
S'd'
asg18
S'Y'
sS'.thisRepN'
p2061
I24
sg20
S'N'
sg31
g32
sS'.thisTrialN'
p2062
I3
sS'.thisN'
p2063
I267
sS'.thisIndex'
p2064
I9
sg15
(lp2065
S'k'
asg30
VM
sg17
S'N'
sg14
I6
sg19
Nsg94
I9
sa(dp2066
g16
(lp2067
S'd'
asg18
S'N'
sS'.thisRepN'
p2068
I24
sg20
S'Y'
sg31
g32
sS'.thisTrialN'
p2069
I4
sS'.thisN'
p2070
I268
sS'.thisIndex'
p2071
I1
sg15
(lp2072
S'd'
asg30
VM
sg17
S'Y'
sg14
I6
sg19
Nsg94
I1
sa(dp2073
g16
(lp2074
S'k'
asg18
S'N'
sS'.thisRepN'
p2075
I24
sg20
S'Y'
sg31
g32
sS'.thisTrialN'
p2076
I5
sS'.thisN'
p2077
I269
sS'.thisIndex'
p2078
I5
sg15
(lp2079
S'k'
asg30
VM
sg17
S'Y'
sg14
I6
sg19
Nsg94
I5
sa(dp2080
g16
(lp2081
S'k'
asg18
S'Y'
sS'.thisRepN'
p2082
I24
sg20
S'N'
sg31
g32
sS'.thisTrialN'
p2083
I6
sS'.thisN'
p2084
I270
sS'.thisIndex'
p2085
I0
sg15
(lp2086
S'k'
asg30
VM
sg17
S'Y'
sg14
I6
sg19
Nsg94
I0
sa(dp2087
g16
(lp2088
S'k'
asg18
S'Y'
sS'.thisRepN'
p2089
I24
sg20
S'Y'
sg31
g32
sS'.thisTrialN'
p2090
I7
sS'.thisN'
p2091
I271
sS'.thisIndex'
p2092
I0
sg15
(lp2093
S'k'
asg30
VM
sg17
S'Y'
sg14
I6
sg19
(lp2094
S'space'
p2095
asg94
I0
sa(dp2096
g16
(lp2097
S'd'
asg18
S'Y'
sS'.thisRepN'
p2098
I24
sg20
S'N'
sg31
g32
sS'.thisTrialN'
p2099
I8
sS'.thisN'
p2100
I272
sS'.thisIndex'
p2101
I4
sg15
(lp2102
S'd'
asg30
VM
sg17
S'Y'
sg14
I6
sg19
Nsg94
I4
sa(dp2103
g16
(lp2104
S'd'
asg18
S'N'
sS'.thisRepN'
p2105
I24
sg20
S'Y'
sg31
g32
sS'.thisTrialN'
p2106
I9
sS'.thisN'
p2107
I273
sS'.thisIndex'
p2108
I2
sg15
(lp2109
S'd'
asg30
VM
sg17
S'Y'
sg14
I6
sg19
Nsg94
I2
sa(dp2110
g16
(lp2111
S'd'
asg18
S'Y'
sS'.thisRepN'
p2112
I24
sg20
S'Y'
sg31
g32
sS'.thisTrialN'
p2113
I10
sS'.thisN'
p2114
I274
sS'.thisIndex'
p2115
I0
sg15
(lp2116
S'd'
asg30
VM
sg17
S'Y'
sg14
I6
sg19
(lp2117
S'space'
p2118
asg94
I0
sa(dp2119
g16
(lp2120
S'k'
asg18
S'N'
sS'.thisRepN'
p2121
I25
sg20
S'Y'
sg31
g32
sS'.thisTrialN'
p2122
I0
sS'.thisN'
p2123
I275
sS'.thisIndex'
p2124
I2
sg15
(lp2125
S'k'
asg30
VM
sg17
S'Y'
sg14
I6
sg19
Nsg94
I2
sa(dp2126
g16
(lp2127
S'k'
asg18
S'Y'
sS'.thisRepN'
p2128
I25
sg20
S'N'
sg31
g32
sS'.thisTrialN'
p2129
I1
sS'.thisN'
p2130
I276
sS'.thisIndex'
p2131
I10
sg15
(lp2132
S'k'
asg30
VM
sg17
S'Y'
sg14
I6
sg19
Nsg94
I10
sa(dp2133
g16
(lp2134
S'k'
asg18
S'Y'
sS'.thisRepN'
p2135
I25
sg20
S'N'
sg31
g32
sS'.thisTrialN'
p2136
I2
sS'.thisN'
p2137
I277
sS'.thisIndex'
p2138
I5
sg15
(lp2139
S'k'
asg30
VM
sg17
S'Y'
sg14
I6
sg19
Nsg94
I5
sa(dp2140
g16
(lp2141
S'd'
asg18
S'N'
sS'.thisRepN'
p2142
I25
sg20
S'Y'
sg31
g32
sS'.thisTrialN'
p2143
I3
sS'.thisN'
p2144
I278
sS'.thisIndex'
p2145
I6
sg15
(lp2146
S'd'
asg30
VM
sg17
S'Y'
sg14
I6
sg19
Nsg94
I6
sa(dp2147
g16
(lp2148
S'd'
asg18
S'Y'
sS'.thisRepN'
p2149
I25
sg20
S'Y'
sg31
g32
sS'.thisTrialN'
p2150
I4
sS'.thisN'
p2151
I279
sS'.thisIndex'
p2152
I9
sg15
(lp2153
S'd'
asg30
VM
sg17
S'Y'
sg14
I6
sg19
(lp2154
S'space'
p2155
asg94
I9
sa(dp2156
g16
(lp2157
S'k'
asg18
S'Y'
sS'.thisRepN'
p2158
I25
sg20
S'Y'
sg31
g32
sS'.thisTrialN'
p2159
I5
sS'.thisN'
p2160
I280
sS'.thisIndex'
p2161
I10
sg15
(lp2162
S'k'
asg30
VM
sg17
S'Y'
sg14
I6
sg19
(lp2163
S'space'
p2164
asg94
I10
sa(dp2165
g16
(lp2166
S'k'
asg18
S'Y'
sS'.thisRepN'
p2167
I25
sg20
S'N'
sg31
g32
sS'.thisTrialN'
p2168
I6
sS'.thisN'
p2169
I281
sS'.thisIndex'
p2170
I6
sg15
(lp2171
S'k'
asg30
VM
sg17
S'Y'
sg14
I6
sg19
Nsg94
I6
sa(dp2172
g16
(lp2173
S'd'
asg18
S'N'
sS'.thisRepN'
p2174
I25
sg20
S'N'
sg31
g32
sS'.thisTrialN'
p2175
I7
sS'.thisN'
p2176
I282
sS'.thisIndex'
p2177
I4
sg15
(lp2178
S'd'
asg30
VM
sg17
S'Y'
sg14
I6
sg19
(lp2179
S'space'
p2180
asg94
I4
sa(dp2181
g16
(lp2182
S'k'
asg18
S'N'
sS'.thisRepN'
p2183
I25
sg20
S'Y'
sg31
g32
sS'.thisTrialN'
p2184
I8
sS'.thisN'
p2185
I283
sS'.thisIndex'
p2186
I0
sg15
(lp2187
S'k'
asg30
VM
sg17
S'Y'
sg14
I6
sg19
Nsg94
I0
sa(dp2188
g16
(lp2189
S'k'
asg18
S'N'
sS'.thisRepN'
p2190
I25
sg20
S'Y'
sg31
g32
sS'.thisTrialN'
p2191
I9
sS'.thisN'
p2192
I284
sS'.thisIndex'
p2193
I5
sg15
(lp2194
S'k'
asg30
VM
sg17
S'Y'
sg14
I6
sg19
Nsg94
I5
sa(dp2195
g16
(lp2196
S'k'
asg18
S'N'
sS'.thisRepN'
p2197
I25
sg20
S'Y'
sg31
g32
sS'.thisTrialN'
p2198
I10
sS'.thisN'
p2199
I285
sS'.thisIndex'
p2200
I3
sg15
(lp2201
S'k'
asg30
VM
sg17
S'Y'
sg14
I6
sg19
Nsg94
I3
sa(dp2202
g16
(lp2203
S'k'
asg18
S'Y'
sS'.thisRepN'
p2204
I26
sg20
S'N'
sg31
g32
sS'.thisTrialN'
p2205
I0
sS'.thisN'
p2206
I286
sS'.thisIndex'
p2207
I6
sg15
(lp2208
S'k'
asg30
VM
sg17
S'Y'
sg14
I6
sg19
Nsg94
I6
sa(dp2209
g16
(lp2210
S'd'
asg18
S'N'
sS'.thisRepN'
p2211
I26
sg20
S'Y'
sg31
g32
sS'.thisTrialN'
p2212
I1
sS'.thisN'
p2213
I287
sS'.thisIndex'
p2214
I4
sg15
(lp2215
S'd'
asg30
VM
sg17
S'Y'
sg14
I6
sg19
Nsg94
I4
sa(dp2216
g16
(lp2217
S'k'
asg18
S'Y'
sS'.thisRepN'
p2218
I26
sg20
S'Y'
sg31
g32
sS'.thisTrialN'
p2219
I2
sS'.thisN'
p2220
I288
sS'.thisIndex'
p2221
I6
sg15
(lp2222
S'k'
asg30
VM
sg17
S'Y'
sg14
I6
sg19
(lp2223
S'space'
p2224
asg94
I6
sa(dp2225
g16
(lp2226
S'd'
asg18
S'N'
sS'.thisRepN'
p2227
I26
sg20
S'Y'
sg31
g32
sS'.thisTrialN'
p2228
I3
sS'.thisN'
p2229
I289
sS'.thisIndex'
p2230
I3
sg15
(lp2231
S'k'
asg30
VM
sg17
S'N'
sg14
I6
sg19
Nsg94
I3
sa(dp2232
g16
(lp2233
S'k'
asg18
S'Y'
sS'.thisRepN'
p2234
I26
sg20
S'N'
sg31
g32
sS'.thisTrialN'
p2235
I4
sS'.thisN'
p2236
I290
sS'.thisIndex'
p2237
I4
sg15
(lp2238
S'k'
asg30
VM
sg17
S'Y'
sg14
I6
sg19
Nsg94
I4
sa(dp2239
g16
(lp2240
S'd'
asg18
S'N'
sS'.thisRepN'
p2241
I26
sg20
S'Y'
sg31
g32
sS'.thisTrialN'
p2242
I5
sS'.thisN'
p2243
I291
sS'.thisIndex'
p2244
I1
sg15
(lp2245
S'd'
asg30
VM
sg17
S'Y'
sg14
I6
sg19
Nsg94
I1
sa(dp2246
g16
(lp2247
S'k'
asg18
S'N'
sS'.thisRepN'
p2248
I26
sg20
S'Y'
sg31
g32
sS'.thisTrialN'
p2249
I6
sS'.thisN'
p2250
I292
sS'.thisIndex'
p2251
I9
sg15
(lp2252
S'k'
asg30
VM
sg17
S'Y'
sg14
I6
sg19
Nsg94
I9
sa(dp2253
g16
(lp2254
S'k'
asg18
S'N'
sS'.thisRepN'
p2255
I26
sg20
S'N'
sg31
g32
sS'.thisTrialN'
p2256
I7
sS'.thisN'
p2257
I293
sS'.thisIndex'
p2258
I9
sg15
(lp2259
S'k'
asg30
VM
sg17
S'Y'
sg14
I6
sg19
(lp2260
S'space'
p2261
asg94
I9
sa(dp2262
g16
(lp2263
S'k'
asg18
S'Y'
sS'.thisRepN'
p2264
I26
sg20
S'N'
sg31
g32
sS'.thisTrialN'
p2265
I8
sS'.thisN'
p2266
I294
sS'.thisIndex'
p2267
I4
sg15
(lp2268
S'k'
asg30
VM
sg17
S'Y'
sg14
I6
sg19
Nsg94
I4
sa(dp2269
g16
(lp2270
S'k'
asg18
S'N'
sS'.thisRepN'
p2271
I26
sg20
S'Y'
sg31
g32
sS'.thisTrialN'
p2272
I9
sS'.thisN'
p2273
I295
sS'.thisIndex'
p2274
I4
sg15
(lp2275
S'k'
asg30
VM
sg17
S'Y'
sg14
I6
sg19
Nsg94
I4
sa(dp2276
g16
(lp2277
S'd'
asg18
S'N'
sS'.thisRepN'
p2278
I26
sg20
S'Y'
sg31
g32
sS'.thisTrialN'
p2279
I10
sS'.thisN'
p2280
I296
sS'.thisIndex'
p2281
I2
sg15
(lp2282
S'd'
asg30
VM
sg17
S'Y'
sg14
I6
sg19
Nsg94
I2
sa(dp2283
g16
(lp2284
S'k'
asg18
S'Y'
sS'.thisRepN'
p2285
I27
sg20
S'N'
sg31
g32
sS'.thisTrialN'
p2286
I0
sS'.thisN'
p2287
I297
sS'.thisIndex'
p2288
I3
sg15
(lp2289
S'k'
asg30
VM
sg17
S'Y'
sg14
I6
sg19
Nsg94
I3
sa(dp2290
g16
(lp2291
S'd'
asg18
S'N'
sS'.thisRepN'
p2292
I27
sg20
S'Y'
sg31
g32
sS'.thisTrialN'
p2293
I1
sS'.thisN'
p2294
I298
sS'.thisIndex'
p2295
I2
sg15
(lp2296
S'k'
asg30
VM
sg17
S'N'
sg14
I6
sg19
Nsg94
I2
sa(dp2297
g16
(lp2298
S'd'
asg18
S'Y'
sg22
I30
sS'.thisN'
p2299
I299
sg20
S'N'
sg31
g32
sS'.thisTrialN'
p2300
I2
sS'.thisRepN'
p2301
I27
sg21
I42
sS'.thisIndex'
p2302
I2
sg23
I24
sg15
(lp2303
S'k'
asg30
VM
sg17
S'N'
sg14
I6
sg19
Nsg94
I2
sa(dp2304
g16
(lp2305
S'k'
asg94
I8
sS'.thisRepN'
p2306
I27
sg30
VM
sg31
g32
sS'.thisTrialN'
p2307
I3
sS'.thisN'
p2308
I300
sS'.thisIndex'
p2309
I8
sg15
(lp2310
S'k'
asg17
S'Y'
sg14
I7
sa(dp2311
g16
(lp2312
S'd'
asg94
I1
sS'.thisRepN'
p2313
I27
sg30
VM
sg31
g32
sS'.thisTrialN'
p2314
I4
sS'.thisN'
p2315
I301
sS'.thisIndex'
p2316
I1
sg15
(lp2317
S'k'
asg17
S'N'
sg14
I7
sa(dp2318
g16
(lp2319
S'd'
asg18
S'Y'
sS'.thisRepN'
p2320
I27
sg20
S'Y'
sg31
g32
sS'.thisTrialN'
p2321
I5
sS'.thisN'
p2322
I302
sS'.thisIndex'
p2323
I4
sg15
(lp2324
S'k'
asg30
VM
sg17
S'N'
sg14
I7
sg19
(lp2325
S'space'
p2326
asg94
I4
sa(dp2327
g16
(lp2328
S'd'
asg18
S'N'
sS'.thisRepN'
p2329
I27
sg20
S'Y'
sg31
g32
sS'.thisTrialN'
p2330
I6
sS'.thisN'
p2331
I303
sS'.thisIndex'
p2332
I3
sg15
(lp2333
S'd'
asg30
VM
sg17
S'Y'
sg14
I7
sg19
Nsg94
I3
sa(dp2334
g16
(lp2335
S'd'
asg18
S'Y'
sS'.thisRepN'
p2336
I27
sg20
S'Y'
sg31
g32
sS'.thisTrialN'
p2337
I7
sS'.thisN'
p2338
I304
sS'.thisIndex'
p2339
I0
sg15
(lp2340
S'd'
asg30
VM
sg17
S'Y'
sg14
I7
sg19
(lp2341
S'space'
p2342
asg94
I0
sa(dp2343
g16
(lp2344
S'd'
asg18
S'N'
sS'.thisRepN'
p2345
I27
sg20
S'Y'
sg31
g32
sS'.thisTrialN'
p2346
I8
sS'.thisN'
p2347
I305
sS'.thisIndex'
p2348
I8
sg15
(lp2349
S'd'
asg30
VM
sg17
S'Y'
sg14
I7
sg19
Nsg94
I8
sa(dp2350
g16
(lp2351
S'd'
asg18
S'N'
sS'.thisRepN'
p2352
I27
sg20
S'Y'
sg31
g32
sS'.thisTrialN'
p2353
I9
sS'.thisN'
p2354
I306
sS'.thisIndex'
p2355
I5
sg15
(lp2356
S'k'
asg30
VM
sg17
S'N'
sg14
I7
sg19
Nsg94
I5
sa(dp2357
g16
(lp2358
S'd'
asg18
S'Y'
sS'.thisRepN'
p2359
I27
sg20
S'N'
sg31
g32
sS'.thisTrialN'
p2360
I10
sS'.thisN'
p2361
I307
sS'.thisIndex'
p2362
I6
sg15
(lp2363
S'd'
asg30
VM
sg17
S'Y'
sg14
I7
sg19
(lp2364
S'd'
asg94
I6
sa(dp2365
g16
(lp2366
S'k'
asg18
S'Y'
sS'.thisRepN'
p2367
I28
sg20
S'N'
sg31
g32
sS'.thisTrialN'
p2368
I0
sS'.thisN'
p2369
I308
sS'.thisIndex'
p2370
I7
sg15
(lp2371
S'k'
asg30
VM
sg17
S'Y'
sg14
I7
sg19
Nsg94
I7
sa(dp2372
g16
(lp2373
S'k'
asg18
S'N'
sS'.thisRepN'
p2374
I28
sg20
S'Y'
sg31
g32
sS'.thisTrialN'
p2375
I1
sS'.thisN'
p2376
I309
sS'.thisIndex'
p2377
I4
sg15
(lp2378
S'k'
asg30
VM
sg17
S'Y'
sg14
I7
sg19
Nsg94
I4
sa(dp2379
g16
(lp2380
S'd'
asg18
S'Y'
sS'.thisRepN'
p2381
I28
sg20
S'Y'
sg31
g32
sS'.thisTrialN'
p2382
I2
sS'.thisN'
p2383
I310
sS'.thisIndex'
p2384
I0
sg15
(lp2385
S'd'
asg30
VM
sg17
S'Y'
sg14
I7
sg19
(lp2386
S'space'
p2387
asg94
I0
sa(dp2388
g16
(lp2389
S'd'
asg18
S'Y'
sS'.thisRepN'
p2390
I28
sg20
S'N'
sg31
g32
sS'.thisTrialN'
p2391
I3
sS'.thisN'
p2392
I311
sS'.thisIndex'
p2393
I9
sg15
(lp2394
S'd'
asg30
VM
sg17
S'Y'
sg14
I7
sg19
Nsg94
I9
sa(dp2395
g16
(lp2396
S'k'
asg18
S'Y'
sS'.thisRepN'
p2397
I28
sg20
S'Y'
sg31
g32
sS'.thisTrialN'
p2398
I4
sS'.thisN'
p2399
I312
sS'.thisIndex'
p2400
I1
sg15
(lp2401
S'k'
asg30
VM
sg17
S'Y'
sg14
I7
sg19
(lp2402
S'space'
p2403
asg94
I1
sa(dp2404
g16
(lp2405
S'k'
asg18
S'N'
sS'.thisRepN'
p2406
I28
sg20
S'Y'
sg31
g32
sS'.thisTrialN'
p2407
I5
sS'.thisN'
p2408
I313
sS'.thisIndex'
p2409
I0
sg15
(lp2410
S'k'
asg30
VM
sg17
S'Y'
sg14
I7
sg19
Nsg94
I0
sa(dp2411
g16
(lp2412
S'd'
asg18
S'N'
sS'.thisRepN'
p2413
I28
sg20
S'N'
sg31
g32
sS'.thisTrialN'
p2414
I6
sS'.thisN'
p2415
I314
sS'.thisIndex'
p2416
I4
sg15
(lp2417
S'd'
asg30
VM
sg17
S'Y'
sg14
I7
sg19
(lp2418
S'space'
p2419
asg94
I4
sa(dp2420
g16
(lp2421
S'd'
asg18
S'N'
sS'.thisRepN'
p2422
I28
sg20
S'N'
sg31
g32
sS'.thisTrialN'
p2423
I7
sS'.thisN'
p2424
I315
sS'.thisIndex'
p2425
I5
sg15
(lp2426
S'd'
asg30
VM
sg17
S'Y'
sg14
I7
sg19
(lp2427
S'space'
p2428
asg94
I5
sa(dp2429
g16
(lp2430
S'd'
asg18
S'N'
sS'.thisRepN'
p2431
I28
sg20
S'Y'
sg31
g32
sS'.thisTrialN'
p2432
I8
sS'.thisN'
p2433
I316
sS'.thisIndex'
p2434
I2
sg15
(lp2435
S'k'
asg30
VM
sg17
S'N'
sg14
I7
sg19
Nsg94
I2
sa(dp2436
g16
(lp2437
S'k'
asg18
S'Y'
sS'.thisRepN'
p2438
I28
sg20
S'Y'
sg31
g32
sS'.thisTrialN'
p2439
I9
sS'.thisN'
p2440
I317
sS'.thisIndex'
p2441
I8
sg15
(lp2442
S'k'
asg30
VM
sg17
S'Y'
sg14
I7
sg19
(lp2443
S'space'
p2444
asg94
I8
sa(dp2445
g16
(lp2446
S'k'
asg18
S'N'
sS'.thisRepN'
p2447
I28
sg20
S'Y'
sg31
g32
sS'.thisTrialN'
p2448
I10
sS'.thisN'
p2449
I318
sS'.thisIndex'
p2450
I10
sg15
(lp2451
S'k'
asg30
VM
sg17
S'Y'
sg14
I7
sg19
Nsg94
I10
sa(dp2452
g16
(lp2453
S'k'
asg18
S'N'
sS'.thisRepN'
p2454
I29
sg20
S'Y'
sg31
g32
sS'.thisTrialN'
p2455
I0
sS'.thisN'
p2456
I319
sS'.thisIndex'
p2457
I3
sg15
(lp2458
S'k'
asg30
VM
sg17
S'Y'
sg14
I7
sg19
Nsg94
I3
sa(dp2459
g16
(lp2460
S'd'
asg18
S'Y'
sS'.thisRepN'
p2461
I29
sg20
S'N'
sg31
g32
sS'.thisTrialN'
p2462
I1
sS'.thisN'
p2463
I320
sS'.thisIndex'
p2464
I7
sg15
(lp2465
S'd'
asg30
VM
sg17
S'Y'
sg14
I7
sg19
Nsg94
I7
sa(dp2466
g16
(lp2467
S'd'
asg18
S'Y'
sS'.thisRepN'
p2468
I29
sg20
S'N'
sg31
g32
sS'.thisTrialN'
p2469
I2
sS'.thisN'
p2470
I321
sS'.thisIndex'
p2471
I2
sg15
(lp2472
S'd'
asg30
VM
sg17
S'Y'
sg14
I7
sg19
Nsg94
I2
sa(dp2473
g16
(lp2474
S'd'
asg18
S'N'
sS'.thisRepN'
p2475
I29
sg20
S'Y'
sg31
g32
sS'.thisTrialN'
p2476
I3
sS'.thisN'
p2477
I322
sS'.thisIndex'
p2478
I2
sg15
(lp2479
S'd'
asg30
VM
sg17
S'Y'
sg14
I7
sg19
Nsg94
I2
sa(dp2480
g16
(lp2481
S'k'
asg18
S'N'
sS'.thisRepN'
p2482
I29
sg20
S'Y'
sg31
g32
sS'.thisTrialN'
p2483
I4
sS'.thisN'
p2484
I323
sS'.thisIndex'
p2485
I4
sg15
(lp2486
S'k'
asg30
VM
sg17
S'Y'
sg14
I7
sg19
Nsg94
I4
sa(dp2487
g16
(lp2488
S'd'
asg18
S'Y'
sS'.thisRepN'
p2489
I29
sg20
S'Y'
sg31
g32
sS'.thisTrialN'
p2490
I5
sS'.thisN'
p2491
I324
sS'.thisIndex'
p2492
I6
sg15
(lp2493
S'd'
asg30
VM
sg17
S'Y'
sg14
I7
sg19
(lp2494
S'space'
p2495
asg94
I6
sa(dp2496
g16
(lp2497
S'k'
asg18
S'N'
sS'.thisRepN'
p2498
I29
sg20
S'N'
sg31
g32
sS'.thisTrialN'
p2499
I6
sS'.thisN'
p2500
I325
sS'.thisIndex'
p2501
I2
sg15
(lp2502
S'k'
asg30
VM
sg17
S'Y'
sg14
I7
sg19
(lp2503
S'space'
p2504
asg94
I2
sa(dp2505
g16
(lp2506
S'd'
asg18
S'Y'
sS'.thisRepN'
p2507
I29
sg20
S'Y'
sg31
g32
sS'.thisTrialN'
p2508
I7
sS'.thisN'
p2509
I326
sS'.thisIndex'
p2510
I9
sg15
(lp2511
S'd'
asg30
VM
sg17
S'Y'
sg14
I7
sg19
(lp2512
S'space'
p2513
asg94
I9
sa(dp2514
g16
(lp2515
S'd'
asg18
S'Y'
sS'.thisRepN'
p2516
I29
sg20
S'Y'
sg31
g32
sS'.thisTrialN'
p2517
I8
sS'.thisN'
p2518
I327
sS'.thisIndex'
p2519
I8
sg15
(lp2520
S'd'
asg30
VM
sg17
S'Y'
sg14
I7
sg19
(lp2521
S'space'
p2522
asg94
I8
sa(dp2523
g16
(lp2524
S'k'
asg18
S'N'
sS'.thisRepN'
p2525
I29
sg20
S'N'
sg31
g32
sS'.thisTrialN'
p2526
I9
sS'.thisN'
p2527
I328
sS'.thisIndex'
p2528
I4
sg15
(lp2529
S'k'
asg30
VM
sg17
S'Y'
sg14
I7
sg19
(lp2530
S'space'
p2531
asg94
I4
sa(dp2532
g16
(lp2533
S'k'
asg18
S'N'
sS'.thisRepN'
p2534
I29
sg20
S'Y'
sg31
g32
sS'.thisTrialN'
p2535
I10
sS'.thisN'
p2536
I329
sS'.thisIndex'
p2537
I4
sg15
(lp2538
S'k'
asg30
VM
sg17
S'Y'
sg14
I7
sg19
Nsg94
I4
sa(dp2539
g16
(lp2540
S'd'
asg18
S'Y'
sS'.thisRepN'
p2541
I30
sg20
S'Y'
sg31
g32
sS'.thisTrialN'
p2542
I0
sS'.thisN'
p2543
I330
sS'.thisIndex'
p2544
I2
sg15
(lp2545
S'd'
asg30
VM
sg17
S'Y'
sg14
I7
sg19
(lp2546
S'space'
p2547
asg94
I2
sa(dp2548
g16
(lp2549
S'k'
asg18
S'N'
sS'.thisRepN'
p2550
I30
sg20
S'Y'
sg31
g32
sS'.thisTrialN'
p2551
I1
sS'.thisN'
p2552
I331
sS'.thisIndex'
p2553
I1
sg15
(lp2554
S'k'
asg30
VM
sg17
S'Y'
sg14
I7
sg19
Nsg94
I1
sa(dp2555
g16
(lp2556
S'd'
asg18
S'Y'
sS'.thisRepN'
p2557
I30
sg20
S'N'
sg31
g32
sS'.thisTrialN'
p2558
I2
sS'.thisN'
p2559
I332
sS'.thisIndex'
p2560
I5
sg15
(lp2561
S'd'
asg30
VM
sg17
S'Y'
sg14
I7
sg19
Nsg94
I5
sa(dp2562
g16
(lp2563
S'k'
asg18
S'N'
sS'.thisRepN'
p2564
I30
sg20
S'Y'
sg31
g32
sS'.thisTrialN'
p2565
I3
sS'.thisN'
p2566
I333
sS'.thisIndex'
p2567
I5
sg15
(lp2568
S'k'
asg30
VM
sg17
S'Y'
sg14
I7
sg19
Nsg94
I5
sa(dp2569
g16
(lp2570
S'k'
asg18
S'N'
sS'.thisRepN'
p2571
I30
sg20
S'Y'
sg31
g32
sS'.thisTrialN'
p2572
I4
sS'.thisN'
p2573
I334
sS'.thisIndex'
p2574
I8
sg15
(lp2575
S'k'
asg30
VM
sg17
S'Y'
sg14
I7
sg19
Nsg94
I8
sa(dp2576
g16
(lp2577
S'd'
asg18
S'N'
sS'.thisRepN'
p2578
I30
sg20
S'N'
sg31
g32
sS'.thisTrialN'
p2579
I5
sS'.thisN'
p2580
I335
sS'.thisIndex'
p2581
I3
sg15
(lp2582
S'd'
asg30
VM
sg17
S'Y'
sg14
I7
sg19
(lp2583
S'space'
p2584
asg94
I3
sa(dp2585
g16
(lp2586
S'k'
asg18
S'Y'
sS'.thisRepN'
p2587
I30
sg20
S'Y'
sg31
g32
sS'.thisTrialN'
p2588
I6
sS'.thisN'
p2589
I336
sS'.thisIndex'
p2590
I5
sg15
(lp2591
S'k'
asg30
VM
sg17
S'Y'
sg14
I7
sg19
(lp2592
S'space'
p2593
asg94
I5
sa(dp2594
g16
(lp2595
S'k'
asg18
S'Y'
sS'.thisRepN'
p2596
I30
sg20
S'N'
sg31
g32
sS'.thisTrialN'
p2597
I7
sS'.thisN'
p2598
I337
sS'.thisIndex'
p2599
I9
sg15
(lp2600
S'k'
asg30
VM
sg17
S'Y'
sg14
I7
sg19
Nsg94
I9
sa(dp2601
g16
(lp2602
S'k'
asg18
S'Y'
sS'.thisRepN'
p2603
I30
sg20
S'N'
sg31
g32
sS'.thisTrialN'
p2604
I8
sS'.thisN'
p2605
I338
sS'.thisIndex'
p2606
I7
sg15
(lp2607
S'k'
asg30
VM
sg17
S'Y'
sg14
I7
sg19
Nsg94
I7
sa(dp2608
g16
(lp2609
S'd'
asg18
S'Y'
sS'.thisRepN'
p2610
I30
sg20
S'N'
sg31
g32
sS'.thisTrialN'
p2611
I9
sS'.thisN'
p2612
I339
sS'.thisIndex'
p2613
I7
sg15
(lp2614
S'k'
asg30
VM
sg17
S'N'
sg14
I7
sg19
Nsg94
I7
sa(dp2615
g16
(lp2616
S'd'
asg18
S'Y'
sS'.thisRepN'
p2617
I30
sg20
S'Y'
sg31
g32
sS'.thisTrialN'
p2618
I10
sS'.thisN'
p2619
I340
sS'.thisIndex'
p2620
I6
sg15
(lp2621
S'd'
asg30
VM
sg17
S'Y'
sg14
I7
sg19
(lp2622
S'space'
p2623
asg94
I6
sa(dp2624
g16
(lp2625
S'd'
asg18
S'Y'
sS'.thisRepN'
p2626
I31
sg20
S'N'
sg31
g32
sS'.thisTrialN'
p2627
I0
sS'.thisN'
p2628
I341
sS'.thisIndex'
p2629
I4
sg15
(lp2630
S'd'
asg30
VM
sg17
S'Y'
sg14
I7
sg19
Nsg94
I4
sa(dp2631
g16
(lp2632
S'k'
asg18
S'Y'
sS'.thisRepN'
p2633
I31
sg20
S'N'
sg31
g32
sS'.thisTrialN'
p2634
I1
sS'.thisN'
p2635
I342
sS'.thisIndex'
p2636
I7
sg15
(lp2637
S'k'
asg30
VM
sg17
S'Y'
sg14
I7
sg19
Nsg94
I7
sa(dp2638
g16
(lp2639
S'k'
asg18
S'Y'
sS'.thisRepN'
p2640
I31
sg20
S'N'
sg31
g32
sS'.thisTrialN'
p2641
I2
sS'.thisN'
p2642
I343
sS'.thisIndex'
p2643
I2
sg15
(lp2644
S'k'
asg30
VM
sg17
S'Y'
sg14
I7
sg19
Nsg94
I2
sa(dp2645
g16
(lp2646
S'k'
asg18
S'Y'
sS'.thisRepN'
p2647
I31
sg20
S'Y'
sg31
g32
sS'.thisTrialN'
p2648
I3
sS'.thisN'
p2649
I344
sS'.thisIndex'
p2650
I3
sg15
(lp2651
S'k'
asg30
VM
sg17
S'Y'
sg14
I7
sg19
(lp2652
S'space'
p2653
asg94
I3
sa(dp2654
g16
(lp2655
S'd'
asg18
S'N'
sS'.thisRepN'
p2656
I31
sg20
S'Y'
sg31
g32
sS'.thisTrialN'
p2657
I4
sS'.thisN'
p2658
I345
sS'.thisIndex'
p2659
I9
sg15
(lp2660
S'd'
asg30
VM
sg17
S'Y'
sg14
I7
sg19
Nsg94
I9
sa(dp2661
g16
(lp2662
S'k'
asg18
S'Y'
sS'.thisRepN'
p2663
I31
sg20
S'Y'
sg31
g32
sS'.thisTrialN'
p2664
I5
sS'.thisN'
p2665
I346
sS'.thisIndex'
p2666
I3
sg15
(lp2667
S'k'
asg30
VM
sg17
S'Y'
sg14
I7
sg19
(lp2668
S'space'
p2669
asg94
I3
sa(dp2670
g16
(lp2671
S'k'
asg18
S'N'
sS'.thisRepN'
p2672
I31
sg20
S'Y'
sg31
g32
sS'.thisTrialN'
p2673
I6
sS'.thisN'
p2674
I347
sS'.thisIndex'
p2675
I7
sg15
(lp2676
S'k'
asg30
VM
sg17
S'Y'
sg14
I7
sg19
Nsg94
I7
sa(dp2677
g16
(lp2678
S'k'
asg18
S'N'
sS'.thisRepN'
p2679
I31
sg20
S'Y'
sg31
g32
sS'.thisTrialN'
p2680
I7
sS'.thisN'
p2681
I348
sS'.thisIndex'
p2682
I6
sg15
(lp2683
S'k'
asg30
VM
sg17
S'Y'
sg14
I7
sg19
Nsg94
I6
sa(dp2684
g16
(lp2685
S'd'
asg18
S'N'
sg22
I30
sS'.thisN'
p2686
I349
sg20
S'N'
sg31
g32
sS'.thisTrialN'
p2687
I8
sS'.thisRepN'
p2688
I31
sg21
I45
sS'.thisIndex'
p2689
I3
sg23
I25
sg15
(lp2690
S'd'
asg30
VM
sg17
S'Y'
sg14
I7
sg19
(lp2691
S'space'
p2692
asg94
I3
sa(dp2693
g16
(lp2694
S'k'
asg94
I4
sS'.thisRepN'
p2695
I31
sg30
VM
sg31
g32
sS'.thisTrialN'
p2696
I9
sS'.thisN'
p2697
I350
sS'.thisIndex'
p2698
I4
sg15
(lp2699
S'k'
asg17
S'Y'
sg14
I8
sa(dp2700
g16
(lp2701
S'd'
asg94
I7
sS'.thisRepN'
p2702
I31
sg30
VM
sg31
g32
sS'.thisTrialN'
p2703
I10
sS'.thisN'
p2704
I351
sS'.thisIndex'
p2705
I7
sg15
(lp2706
S'k'
asg17
S'N'
sg14
I8
sa(dp2707
g16
(lp2708
S'k'
asg18
S'N'
sS'.thisRepN'
p2709
I32
sg20
S'Y'
sg31
g32
sS'.thisTrialN'
p2710
I0
sS'.thisN'
p2711
I352
sS'.thisIndex'
p2712
I5
sg15
(lp2713
S'k'
asg30
VM
sg17
S'Y'
sg14
I8
sg19
Nsg94
I5
sa(dp2714
g16
(lp2715
S'd'
asg18
S'N'
sS'.thisRepN'
p2716
I32
sg20
S'Y'
sg31
g32
sS'.thisTrialN'
p2717
I1
sS'.thisN'
p2718
I353
sS'.thisIndex'
p2719
I3
sg15
(lp2720
S'd'
asg30
VM
sg17
S'Y'
sg14
I8
sg19
Nsg94
I3
sa(dp2721
g16
(lp2722
S'd'
asg18
S'Y'
sS'.thisRepN'
p2723
I32
sg20
S'N'
sg31
g32
sS'.thisTrialN'
p2724
I2
sS'.thisN'
p2725
I354
sS'.thisIndex'
p2726
I2
sg15
(lp2727
S'k'
asg30
VM
sg17
S'N'
sg14
I8
sg19
Nsg94
I2
sa(dp2728
g16
(lp2729
S'k'
asg18
S'N'
sS'.thisRepN'
p2730
I32
sg20
S'Y'
sg31
g32
sS'.thisTrialN'
p2731
I3
sS'.thisN'
p2732
I355
sS'.thisIndex'
p2733
I8
sg15
(lp2734
S'k'
asg30
VM
sg17
S'Y'
sg14
I8
sg19
Nsg94
I8
sa(dp2735
g16
(lp2736
S'd'
asg18
S'Y'
sS'.thisRepN'
p2737
I32
sg20
S'N'
sg31
g32
sS'.thisTrialN'
p2738
I4
sS'.thisN'
p2739
I356
sS'.thisIndex'
p2740
I5
sg15
(lp2741
S'd'
asg30
VM
sg17
S'Y'
sg14
I8
sg19
Nsg94
I5
sa(dp2742
g16
(lp2743
S'k'
asg18
S'N'
sS'.thisRepN'
p2744
I32
sg20
S'Y'
sg31
g32
sS'.thisTrialN'
p2745
I5
sS'.thisN'
p2746
I357
sS'.thisIndex'
p2747
I9
sg15
(lp2748
S'k'
asg30
VM
sg17
S'Y'
sg14
I8
sg19
Nsg94
I9
sa(dp2749
g16
(lp2750
S'd'
asg18
S'N'
sS'.thisRepN'
p2751
I32
sg20
S'Y'
sg31
g32
sS'.thisTrialN'
p2752
I6
sS'.thisN'
p2753
I358
sS'.thisIndex'
p2754
I5
sg15
(lp2755
S'd'
asg30
VM
sg17
S'Y'
sg14
I8
sg19
Nsg94
I5
sa(dp2756
g16
(lp2757
S'k'
asg18
S'Y'
sS'.thisRepN'
p2758
I32
sg20
S'N'
sg31
g32
sS'.thisTrialN'
p2759
I7
sS'.thisN'
p2760
I359
sS'.thisIndex'
p2761
I9
sg15
(lp2762
S'k'
asg30
VM
sg17
S'Y'
sg14
I8
sg19
Nsg94
I9
sa(dp2763
g16
(lp2764
S'k'
asg18
S'N'
sS'.thisRepN'
p2765
I32
sg20
S'Y'
sg31
g32
sS'.thisTrialN'
p2766
I8
sS'.thisN'
p2767
I360
sS'.thisIndex'
p2768
I3
sg15
(lp2769
S'k'
asg30
VM
sg17
S'Y'
sg14
I8
sg19
Nsg94
I3
sa(dp2770
g16
(lp2771
S'd'
asg18
S'N'
sS'.thisRepN'
p2772
I32
sg20
S'Y'
sg31
g32
sS'.thisTrialN'
p2773
I9
sS'.thisN'
p2774
I361
sS'.thisIndex'
p2775
I5
sg15
(lp2776
S'k'
asg30
VM
sg17
S'N'
sg14
I8
sg19
Nsg94
I5
sa(dp2777
g16
(lp2778
S'd'
asg18
S'Y'
sS'.thisRepN'
p2779
I32
sg20
S'N'
sg31
g32
sS'.thisTrialN'
p2780
I10
sS'.thisN'
p2781
I362
sS'.thisIndex'
p2782
I4
sg15
(lp2783
S'k'
asg30
VM
sg17
S'N'
sg14
I8
sg19
Nsg94
I4
sa(dp2784
g16
(lp2785
S'k'
asg18
S'N'
sS'.thisRepN'
p2786
I33
sg20
S'Y'
sg31
g32
sS'.thisTrialN'
p2787
I0
sS'.thisN'
p2788
I363
sS'.thisIndex'
p2789
I7
sg15
(lp2790
S'k'
asg30
VM
sg17
S'Y'
sg14
I8
sg19
Nsg94
I7
sa(dp2791
g16
(lp2792
S'd'
asg18
S'N'
sS'.thisRepN'
p2793
I33
sg20
S'Y'
sg31
g32
sS'.thisTrialN'
p2794
I1
sS'.thisN'
p2795
I364
sS'.thisIndex'
p2796
I1
sg15
(lp2797
S'd'
asg30
VM
sg17
S'Y'
sg14
I8
sg19
Nsg94
I1
sa(dp2798
g16
(lp2799
S'd'
asg18
S'Y'
sS'.thisRepN'
p2800
I33
sg20
S'Y'
sg31
g32
sS'.thisTrialN'
p2801
I2
sS'.thisN'
p2802
I365
sS'.thisIndex'
p2803
I3
sg15
(lp2804
S'd'
asg30
VM
sg17
S'Y'
sg14
I8
sg19
(lp2805
S'space'
p2806
asg94
I3
sa(dp2807
g16
(lp2808
S'd'
asg18
S'N'
sS'.thisRepN'
p2809
I33
sg20
S'N'
sg31
g32
sS'.thisTrialN'
p2810
I3
sS'.thisN'
p2811
I366
sS'.thisIndex'
p2812
I5
sg15
(lp2813
S'k'
asg30
VM
sg17
S'N'
sg14
I8
sg19
(lp2814
S'space'
p2815
asg94
I5
sa(dp2816
g16
(lp2817
S'd'
asg18
S'Y'
sS'.thisRepN'
p2818
I33
sg20
S'N'
sg31
g32
sS'.thisTrialN'
p2819
I4
sS'.thisN'
p2820
I367
sS'.thisIndex'
p2821
I2
sg15
(lp2822
S'd'
asg30
VM
sg17
S'Y'
sg14
I8
sg19
Nsg94
I2
sa(dp2823
g16
(lp2824
S'k'
asg18
S'Y'
sS'.thisRepN'
p2825
I33
sg20
S'N'
sg31
g32
sS'.thisTrialN'
p2826
I5
sS'.thisN'
p2827
I368
sS'.thisIndex'
p2828
I1
sg15
(lp2829
S'k'
asg30
VM
sg17
S'Y'
sg14
I8
sg19
Nsg94
I1
sa(dp2830
g16
(lp2831
S'd'
asg18
S'Y'
sS'.thisRepN'
p2832
I33
sg20
S'N'
sg31
g32
sS'.thisTrialN'
p2833
I6
sS'.thisN'
p2834
I369
sS'.thisIndex'
p2835
I1
sg15
(lp2836
S'd'
asg30
VM
sg17
S'Y'
sg14
I8
sg19
Nsg94
I1
sa(dp2837
g16
(lp2838
S'd'
asg18
S'N'
sS'.thisRepN'
p2839
I33
sg20
S'Y'
sg31
g32
sS'.thisTrialN'
p2840
I7
sS'.thisN'
p2841
I370
sS'.thisIndex'
p2842
I5
sg15
(lp2843
S'd'
asg30
VM
sg17
S'Y'
sg14
I8
sg19
Nsg94
I5
sa(dp2844
g16
(lp2845
S'k'
asg18
S'N'
sS'.thisRepN'
p2846
I33
sg20
S'Y'
sg31
g32
sS'.thisTrialN'
p2847
I8
sS'.thisN'
p2848
I371
sS'.thisIndex'
p2849
I5
sg15
(lp2850
S'k'
asg30
VM
sg17
S'Y'
sg14
I8
sg19
Nsg94
I5
sa(dp2851
g16
(lp2852
S'd'
asg18
S'Y'
sS'.thisRepN'
p2853
I33
sg20
S'N'
sg31
g32
sS'.thisTrialN'
p2854
I9
sS'.thisN'
p2855
I372
sS'.thisIndex'
p2856
I2
sg15
(lp2857
S'd'
asg30
VM
sg17
S'Y'
sg14
I8
sg19
Nsg94
I2
sa(dp2858
g16
(lp2859
S'k'
asg18
S'Y'
sS'.thisRepN'
p2860
I33
sg20
S'Y'
sg31
g32
sS'.thisTrialN'
p2861
I10
sS'.thisN'
p2862
I373
sS'.thisIndex'
p2863
I7
sg15
(lp2864
S'k'
asg30
VM
sg17
S'Y'
sg14
I8
sg19
(lp2865
S'space'
p2866
asg94
I7
sa(dp2867
g16
(lp2868
S'd'
asg18
S'N'
sS'.thisRepN'
p2869
I34
sg20
S'Y'
sg31
g32
sS'.thisTrialN'
p2870
I0
sS'.thisN'
p2871
I374
sS'.thisIndex'
p2872
I10
sg15
(lp2873
S'd'
asg30
VM
sg17
S'Y'
sg14
I8
sg19
Nsg94
I10
sa(dp2874
g16
(lp2875
S'd'
asg18
S'Y'
sS'.thisRepN'
p2876
I34
sg20
S'Y'
sg31
g32
sS'.thisTrialN'
p2877
I1
sS'.thisN'
p2878
I375
sS'.thisIndex'
p2879
I4
sg15
(lp2880
S'd'
asg30
VM
sg17
S'Y'
sg14
I8
sg19
(lp2881
S'space'
p2882
asg94
I4
sa(dp2883
g16
(lp2884
S'd'
asg18
S'N'
sS'.thisRepN'
p2885
I34
sg20
S'Y'
sg31
g32
sS'.thisTrialN'
p2886
I2
sS'.thisN'
p2887
I376
sS'.thisIndex'
p2888
I0
sg15
(lp2889
S'd'
asg30
VM
sg17
S'Y'
sg14
I8
sg19
Nsg94
I0
sa(dp2890
g16
(lp2891
S'k'
asg18
S'N'
sS'.thisRepN'
p2892
I34
sg20
S'N'
sg31
g32
sS'.thisTrialN'
p2893
I3
sS'.thisN'
p2894
I377
sS'.thisIndex'
p2895
I0
sg15
(lp2896
S'k'
asg30
VM
sg17
S'Y'
sg14
I8
sg19
(lp2897
S'space'
p2898
asg94
I0
sa(dp2899
g16
(lp2900
S'k'
asg18
S'Y'
sS'.thisRepN'
p2901
I34
sg20
S'Y'
sg31
g32
sS'.thisTrialN'
p2902
I4
sS'.thisN'
p2903
I378
sS'.thisIndex'
p2904
I5
sg15
(lp2905
S'k'
asg30
VM
sg17
S'Y'
sg14
I8
sg19
(lp2906
S'space'
p2907
asg94
I5
sa(dp2908
g16
(lp2909
S'd'
asg18
S'Y'
sS'.thisRepN'
p2910
I34
sg20
S'Y'
sg31
g32
sS'.thisTrialN'
p2911
I5
sS'.thisN'
p2912
I379
sS'.thisIndex'
p2913
I9
sg15
(lp2914
S'd'
asg30
VM
sg17
S'Y'
sg14
I8
sg19
(lp2915
S'space'
p2916
asg94
I9
sa(dp2917
g16
(lp2918
S'k'
asg18
S'N'
sS'.thisRepN'
p2919
I34
sg20
S'Y'
sg31
g32
sS'.thisTrialN'
p2920
I6
sS'.thisN'
p2921
I380
sS'.thisIndex'
p2922
I1
sg15
(lp2923
S'k'
asg30
VM
sg17
S'Y'
sg14
I8
sg19
Nsg94
I1
sa(dp2924
g16
(lp2925
S'k'
asg18
S'Y'
sS'.thisRepN'
p2926
I34
sg20
S'Y'
sg31
g32
sS'.thisTrialN'
p2927
I7
sS'.thisN'
p2928
I381
sS'.thisIndex'
p2929
I9
sg15
(lp2930
S'd'
asg30
VM
sg17
S'N'
sg14
I8
sg19
(lp2931
S'space'
p2932
asg94
I9
sa(dp2933
g16
(lp2934
S'k'
asg18
S'N'
sS'.thisRepN'
p2935
I34
sg20
S'Y'
sg31
g32
sS'.thisTrialN'
p2936
I8
sS'.thisN'
p2937
I382
sS'.thisIndex'
p2938
I3
sg15
(lp2939
S'k'
asg30
VM
sg17
S'Y'
sg14
I8
sg19
Nsg94
I3
sa(dp2940
g16
(lp2941
S'k'
asg18
S'Y'
sS'.thisRepN'
p2942
I34
sg20
S'Y'
sg31
g32
sS'.thisTrialN'
p2943
I9
sS'.thisN'
p2944
I383
sS'.thisIndex'
p2945
I5
sg15
(lp2946
S'k'
asg30
VM
sg17
S'Y'
sg14
I8
sg19
(lp2947
S'space'
p2948
asg94
I5
sa(dp2949
g16
(lp2950
S'd'
asg18
S'Y'
sS'.thisRepN'
p2951
I34
sg20
S'N'
sg31
g32
sS'.thisTrialN'
p2952
I10
sS'.thisN'
p2953
I384
sS'.thisIndex'
p2954
I8
sg15
(lp2955
S'd'
asg30
VM
sg17
S'Y'
sg14
I8
sg19
Nsg94
I8
sa(dp2956
g16
(lp2957
S'k'
asg18
S'N'
sS'.thisRepN'
p2958
I35
sg20
S'Y'
sg31
g32
sS'.thisTrialN'
p2959
I0
sS'.thisN'
p2960
I385
sS'.thisIndex'
p2961
I2
sg15
(lp2962
S'k'
asg30
VM
sg17
S'Y'
sg14
I8
sg19
Nsg94
I2
sa(dp2963
g16
(lp2964
S'k'
asg18
S'Y'
sS'.thisRepN'
p2965
I35
sg20
S'Y'
sg31
g32
sS'.thisTrialN'
p2966
I1
sS'.thisN'
p2967
I386
sS'.thisIndex'
p2968
I6
sg15
(lp2969
S'k'
asg30
VM
sg17
S'Y'
sg14
I8
sg19
(lp2970
S'space'
p2971
asg94
I6
sa(dp2972
g16
(lp2973
S'd'
asg18
S'N'
sS'.thisRepN'
p2974
I35
sg20
S'Y'
sg31
g32
sS'.thisTrialN'
p2975
I2
sS'.thisN'
p2976
I387
sS'.thisIndex'
p2977
I9
sg15
(lp2978
S'd'
asg30
VM
sg17
S'Y'
sg14
I8
sg19
Nsg94
I9
sa(dp2979
g16
(lp2980
S'd'
asg18
S'Y'
sS'.thisRepN'
p2981
I35
sg20
S'N'
sg31
g32
sS'.thisTrialN'
p2982
I3
sS'.thisN'
p2983
I388
sS'.thisIndex'
p2984
I5
sg15
(lp2985
S'd'
asg30
VM
sg17
S'Y'
sg14
I8
sg19
Nsg94
I5
sa(dp2986
g16
(lp2987
S'd'
asg18
S'Y'
sS'.thisRepN'
p2988
I35
sg20
S'N'
sg31
g32
sS'.thisTrialN'
p2989
I4
sS'.thisN'
p2990
I389
sS'.thisIndex'
p2991
I10
sg15
(lp2992
S'k'
asg30
VM
sg17
S'N'
sg14
I8
sg19
Nsg94
I10
sa(dp2993
g16
(lp2994
S'd'
asg18
S'Y'
sS'.thisRepN'
p2995
I35
sg20
S'N'
sg31
g32
sS'.thisTrialN'
p2996
I5
sS'.thisN'
p2997
I390
sS'.thisIndex'
p2998
I10
sg15
(lp2999
S'd'
asg30
VM
sg17
S'Y'
sg14
I8
sg19
Nsg94
I10
sa(dp3000
g16
(lp3001
S'd'
asg18
S'Y'
sS'.thisRepN'
p3002
I35
sg20
S'N'
sg31
g32
sS'.thisTrialN'
p3003
I6
sS'.thisN'
p3004
I391
sS'.thisIndex'
p3005
I8
sg15
(lp3006
S'd'
asg30
VM
sg17
S'Y'
sg14
I8
sg19
Nsg94
I8
sa(dp3007
g16
(lp3008
S'k'
asg18
S'N'
sS'.thisRepN'
p3009
I35
sg20
S'Y'
sg31
g32
sS'.thisTrialN'
p3010
I7
sS'.thisN'
p3011
I392
sS'.thisIndex'
p3012
I7
sg15
(lp3013
S'k'
asg30
VM
sg17
S'Y'
sg14
I8
sg19
Nsg94
I7
sa(dp3014
g16
(lp3015
S'd'
asg18
S'Y'
sS'.thisRepN'
p3016
I35
sg20
S'Y'
sg31
g32
sS'.thisTrialN'
p3017
I8
sS'.thisN'
p3018
I393
sS'.thisIndex'
p3019
I1
sg15
(lp3020
S'd'
asg30
VM
sg17
S'Y'
sg14
I8
sg19
(lp3021
S'space'
p3022
asg94
I1
sa(dp3023
g16
(lp3024
S'd'
asg18
S'Y'
sS'.thisRepN'
p3025
I35
sg20
S'N'
sg31
g32
sS'.thisTrialN'
p3026
I9
sS'.thisN'
p3027
I394
sS'.thisIndex'
p3028
I8
sg15
(lp3029
S'd'
asg30
VM
sg17
S'Y'
sg14
I8
sg19
Nsg94
I8
sa(dp3030
g16
(lp3031
S'd'
asg18
S'N'
sS'.thisRepN'
p3032
I35
sg20
S'Y'
sg31
g32
sS'.thisTrialN'
p3033
I10
sS'.thisN'
p3034
I395
sS'.thisIndex'
p3035
I6
sg15
(lp3036
S'd'
asg30
VM
sg17
S'Y'
sg14
I8
sg19
Nsg94
I6
sa(dp3037
g16
(lp3038
S'd'
asg18
S'N'
sS'.thisRepN'
p3039
I36
sg20
S'Y'
sg31
g32
sS'.thisTrialN'
p3040
I0
sS'.thisN'
p3041
I396
sS'.thisIndex'
p3042
I10
sg15
(lp3043
S'd'
asg30
VM
sg17
S'Y'
sg14
I8
sg19
Nsg94
I10
sa(dp3044
g16
(lp3045
S'd'
asg18
S'N'
sS'.thisRepN'
p3046
I36
sg20
S'N'
sg31
g32
sS'.thisTrialN'
p3047
I1
sS'.thisN'
p3048
I397
sS'.thisIndex'
p3049
I7
sg15
(lp3050
S'd'
asg30
VM
sg17
S'Y'
sg14
I8
sg19
(lp3051
S'space'
p3052
asg94
I7
sa(dp3053
g16
(lp3054
S'k'
asg18
S'Y'
sS'.thisRepN'
p3055
I36
sg20
S'Y'
sg31
g32
sS'.thisTrialN'
p3056
I2
sS'.thisN'
p3057
I398
sS'.thisIndex'
p3058
I8
sg15
(lp3059
S'k'
asg30
VM
sg17
S'Y'
sg14
I8
sg19
(lp3060
S'space'
p3061
asg94
I8
sa(dp3062
g16
(lp3063
S'k'
asg18
S'Y'
sg22
I31
sS'.thisN'
p3064
I399
sg20
S'Y'
sg31
g32
sS'.thisTrialN'
p3065
I3
sS'.thisRepN'
p3066
I36
sg21
I43
sS'.thisIndex'
p3067
I4
sg23
I25
sg15
(lp3068
S'k'
asg30
VM
sg17
S'Y'
sg14
I8
sg19
(lp3069
S'space'
p3070
asg94
I4
sa(dp3071
g16
(lp3072
S'd'
asg94
I0
sS'.thisRepN'
p3073
I36
sg30
VM
sg31
g32
sS'.thisTrialN'
p3074
I4
sS'.thisN'
p3075
I400
sS'.thisIndex'
p3076
I0
sg15
(lp3077
S'd'
asg17
S'Y'
sg14
I9
sa(dp3078
g16
(lp3079
S'd'
asg94
I4
sS'.thisRepN'
p3080
I36
sg30
VM
sg31
g32
sS'.thisTrialN'
p3081
I5
sS'.thisN'
p3082
I401
sS'.thisIndex'
p3083
I4
sg15
(lp3084
S'k'
asg17
S'N'
sg14
I9
sa(dp3085
g16
(lp3086
S'k'
asg18
S'N'
sS'.thisRepN'
p3087
I36
sg20
S'Y'
sg31
g32
sS'.thisTrialN'
p3088
I6
sS'.thisN'
p3089
I402
sS'.thisIndex'
p3090
I1
sg15
(lp3091
S'k'
asg30
VM
sg17
S'Y'
sg14
I9
sg19
Nsg94
I1
sa(dp3092
g16
(lp3093
S'k'
asg18
S'Y'
sS'.thisRepN'
p3094
I36
sg20
S'N'
sg31
g32
sS'.thisTrialN'
p3095
I7
sS'.thisN'
p3096
I403
sS'.thisIndex'
p3097
I5
sg15
(lp3098
S'k'
asg30
VM
sg17
S'Y'
sg14
I9
sg19
Nsg94
I5
sa(dp3099
g16
(lp3100
S'd'
asg18
S'N'
sS'.thisRepN'
p3101
I36
sg20
S'Y'
sg31
g32
sS'.thisTrialN'
p3102
I8
sS'.thisN'
p3103
I404
sS'.thisIndex'
p3104
I1
sg15
(lp3105
S'd'
asg30
VM
sg17
S'Y'
sg14
I9
sg19
Nsg94
I1
sa(dp3106
g16
(lp3107
S'k'
asg18
S'Y'
sS'.thisRepN'
p3108
I36
sg20
S'Y'
sg31
g32
sS'.thisTrialN'
p3109
I9
sS'.thisN'
p3110
I405
sS'.thisIndex'
p3111
I5
sg15
(lp3112
S'k'
asg30
VM
sg17
S'Y'
sg14
I9
sg19
(lp3113
S'space'
p3114
asg94
I5
sa(dp3115
g16
(lp3116
S'd'
asg18
S'N'
sS'.thisRepN'
p3117
I36
sg20
S'Y'
sg31
g32
sS'.thisTrialN'
p3118
I10
sS'.thisN'
p3119
I406
sS'.thisIndex'
p3120
I7
sg15
(lp3121
S'd'
asg30
VM
sg17
S'Y'
sg14
I9
sg19
Nsg94
I7
sa(dp3122
g16
(lp3123
S'k'
asg18
S'Y'
sS'.thisRepN'
p3124
I37
sg20
S'N'
sg31
g32
sS'.thisTrialN'
p3125
I0
sS'.thisN'
p3126
I407
sS'.thisIndex'
p3127
I3
sg15
(lp3128
S'k'
asg30
VM
sg17
S'Y'
sg14
I9
sg19
Nsg94
I3
sa(dp3129
g16
(lp3130
S'k'
asg18
S'N'
sS'.thisRepN'
p3131
I37
sg20
S'Y'
sg31
g32
sS'.thisTrialN'
p3132
I1
sS'.thisN'
p3133
I408
sS'.thisIndex'
p3134
I6
sg15
(lp3135
S'k'
asg30
VM
sg17
S'Y'
sg14
I9
sg19
Nsg94
I6
sa(dp3136
g16
(lp3137
S'd'
asg18
S'Y'
sS'.thisRepN'
p3138
I37
sg20
S'N'
sg31
g32
sS'.thisTrialN'
p3139
I2
sS'.thisN'
p3140
I409
sS'.thisIndex'
p3141
I4
sg15
(lp3142
S'k'
asg30
VM
sg17
S'N'
sg14
I9
sg19
Nsg94
I4
sa(dp3143
g16
(lp3144
S'k'
asg18
S'Y'
sS'.thisRepN'
p3145
I37
sg20
S'Y'
sg31
g32
sS'.thisTrialN'
p3146
I3
sS'.thisN'
p3147
I410
sS'.thisIndex'
p3148
I10
sg15
(lp3149
S'k'
asg30
VM
sg17
S'Y'
sg14
I9
sg19
(lp3150
S'space'
p3151
asg94
I10
sa(dp3152
g16
(lp3153
S'd'
asg18
S'Y'
sS'.thisRepN'
p3154
I37
sg20
S'Y'
sg31
g32
sS'.thisTrialN'
p3155
I4
sS'.thisN'
p3156
I411
sS'.thisIndex'
p3157
I10
sg15
(lp3158
S'd'
asg30
VM
sg17
S'Y'
sg14
I9
sg19
(lp3159
S'space'
p3160
asg94
I10
sa(dp3161
g16
(lp3162
S'd'
asg18
S'N'
sS'.thisRepN'
p3163
I37
sg20
S'Y'
sg31
g32
sS'.thisTrialN'
p3164
I5
sS'.thisN'
p3165
I412
sS'.thisIndex'
p3166
I8
sg15
(lp3167
S'd'
asg30
VM
sg17
S'Y'
sg14
I9
sg19
Nsg94
I8
sa(dp3168
g16
(lp3169
S'd'
asg18
S'Y'
sS'.thisRepN'
p3170
I37
sg20
S'N'
sg31
g32
sS'.thisTrialN'
p3171
I6
sS'.thisN'
p3172
I413
sS'.thisIndex'
p3173
I1
sg15
(lp3174
S'd'
asg30
VM
sg17
S'Y'
sg14
I9
sg19
Nsg94
I1
sa(dp3175
g16
(lp3176
S'd'
asg18
S'Y'
sS'.thisRepN'
p3177
I37
sg20
S'Y'
sg31
g32
sS'.thisTrialN'
p3178
I7
sS'.thisN'
p3179
I414
sS'.thisIndex'
p3180
I2
sg15
(lp3181
S'd'
asg30
VM
sg17
S'Y'
sg14
I9
sg19
(lp3182
S'space'
p3183
asg94
I2
sa(dp3184
g16
(lp3185
S'k'
asg18
S'N'
sS'.thisRepN'
p3186
I37
sg20
S'Y'
sg31
g32
sS'.thisTrialN'
p3187
I8
sS'.thisN'
p3188
I415
sS'.thisIndex'
p3189
I8
sg15
(lp3190
S'k'
asg30
VM
sg17
S'Y'
sg14
I9
sg19
Nsg94
I8
sa(dp3191
g16
(lp3192
S'd'
asg18
S'Y'
sS'.thisRepN'
p3193
I37
sg20
S'N'
sg31
g32
sS'.thisTrialN'
p3194
I9
sS'.thisN'
p3195
I416
sS'.thisIndex'
p3196
I5
sg15
(lp3197
S'd'
asg30
VM
sg17
S'Y'
sg14
I9
sg19
Nsg94
I5
sa(dp3198
g16
(lp3199
S'd'
asg18
S'Y'
sS'.thisRepN'
p3200
I37
sg20
S'Y'
sg31
g32
sS'.thisTrialN'
p3201
I10
sS'.thisN'
p3202
I417
sS'.thisIndex'
p3203
I6
sg15
(lp3204
S'd'
asg30
VM
sg17
S'Y'
sg14
I9
sg19
(lp3205
S'space'
p3206
asg94
I6
sa(dp3207
g16
(lp3208
S'k'
asg18
S'N'
sS'.thisRepN'
p3209
I38
sg20
S'Y'
sg31
g32
sS'.thisTrialN'
p3210
I0
sS'.thisN'
p3211
I418
sS'.thisIndex'
p3212
I1
sg15
(lp3213
S'k'
asg30
VM
sg17
S'Y'
sg14
I9
sg19
Nsg94
I1
sa(dp3214
g16
(lp3215
S'k'
asg18
S'Y'
sS'.thisRepN'
p3216
I38
sg20
S'Y'
sg31
g32
sS'.thisTrialN'
p3217
I1
sS'.thisN'
p3218
I419
sS'.thisIndex'
p3219
I10
sg15
(lp3220
S'k'
asg30
VM
sg17
S'Y'
sg14
I9
sg19
(lp3221
S'space'
p3222
asg94
I10
sa(dp3223
g16
(lp3224
S'k'
asg18
S'N'
sS'.thisRepN'
p3225
I38
sg20
S'N'
sg31
g32
sS'.thisTrialN'
p3226
I2
sS'.thisN'
p3227
I420
sS'.thisIndex'
p3228
I8
sg15
(lp3229
S'k'
asg30
VM
sg17
S'Y'
sg14
I9
sg19
(lp3230
S'space'
p3231
asg94
I8
sa(dp3232
g16
(lp3233
S'd'
asg18
S'N'
sS'.thisRepN'
p3234
I38
sg20
S'Y'
sg31
g32
sS'.thisTrialN'
p3235
I3
sS'.thisN'
p3236
I421
sS'.thisIndex'
p3237
I9
sg15
(lp3238
S'k'
asg30
VM
sg17
S'N'
sg14
I9
sg19
Nsg94
I9
sa(dp3239
g16
(lp3240
S'k'
asg18
S'N'
sS'.thisRepN'
p3241
I38
sg20
S'Y'
sg31
g32
sS'.thisTrialN'
p3242
I4
sS'.thisN'
p3243
I422
sS'.thisIndex'
p3244
I4
sg15
(lp3245
S'k'
asg30
VM
sg17
S'Y'
sg14
I9
sg19
Nsg94
I4
sa(dp3246
g16
(lp3247
S'd'
asg18
S'Y'
sS'.thisRepN'
p3248
I38
sg20
S'Y'
sg31
g32
sS'.thisTrialN'
p3249
I5
sS'.thisN'
p3250
I423
sS'.thisIndex'
p3251
I1
sg15
(lp3252
S'd'
asg30
VM
sg17
S'Y'
sg14
I9
sg19
(lp3253
S'space'
p3254
asg94
I1
sa(dp3255
g16
(lp3256
S'k'
asg18
S'Y'
sS'.thisRepN'
p3257
I38
sg20
S'N'
sg31
g32
sS'.thisTrialN'
p3258
I6
sS'.thisN'
p3259
I424
sS'.thisIndex'
p3260
I1
sg15
(lp3261
S'k'
asg30
VM
sg17
S'Y'
sg14
I9
sg19
Nsg94
I1
sa(dp3262
g16
(lp3263
S'k'
asg18
S'N'
sS'.thisRepN'
p3264
I38
sg20
S'Y'
sg31
g32
sS'.thisTrialN'
p3265
I7
sS'.thisN'
p3266
I425
sS'.thisIndex'
p3267
I3
sg15
(lp3268
S'k'
asg30
VM
sg17
S'Y'
sg14
I9
sg19
Nsg94
I3
sa(dp3269
g16
(lp3270
S'k'
asg18
S'N'
sS'.thisRepN'
p3271
I38
sg20
S'N'
sg31
g32
sS'.thisTrialN'
p3272
I8
sS'.thisN'
p3273
I426
sS'.thisIndex'
p3274
I1
sg15
(lp3275
S'k'
asg30
VM
sg17
S'Y'
sg14
I9
sg19
(lp3276
S'space'
p3277
asg94
I1
sa(dp3278
g16
(lp3279
S'k'
asg18
S'Y'
sS'.thisRepN'
p3280
I38
sg20
S'N'
sg31
g32
sS'.thisTrialN'
p3281
I9
sS'.thisN'
p3282
I427
sS'.thisIndex'
p3283
I6
sg15
(lp3284
S'k'
asg30
VM
sg17
S'Y'
sg14
I9
sg19
Nsg94
I6
sa(dp3285
g16
(lp3286
S'd'
asg18
S'Y'
sS'.thisRepN'
p3287
I38
sg20
S'Y'
sg31
g32
sS'.thisTrialN'
p3288
I10
sS'.thisN'
p3289
I428
sS'.thisIndex'
p3290
I0
sg15
(lp3291
S'd'
asg30
VM
sg17
S'Y'
sg14
I9
sg19
(lp3292
S'space'
p3293
asg94
I0
sa(dp3294
g16
(lp3295
S'k'
asg18
S'Y'
sS'.thisRepN'
p3296
I39
sg20
S'Y'
sg31
g32
sS'.thisTrialN'
p3297
I0
sS'.thisN'
p3298
I429
sS'.thisIndex'
p3299
I3
sg15
(lp3300
S'k'
asg30
VM
sg17
S'Y'
sg14
I9
sg19
(lp3301
S'space'
p3302
asg94
I3
sa(dp3303
g16
(lp3304
S'k'
asg18
S'N'
sS'.thisRepN'
p3305
I39
sg20
S'Y'
sg31
g32
sS'.thisTrialN'
p3306
I1
sS'.thisN'
p3307
I430
sS'.thisIndex'
p3308
I3
sg15
(lp3309
S'k'
asg30
VM
sg17
S'Y'
sg14
I9
sg19
Nsg94
I3
sa(dp3310
g16
(lp3311
S'k'
asg18
S'Y'
sS'.thisRepN'
p3312
I39
sg20
S'Y'
sg31
g32
sS'.thisTrialN'
p3313
I2
sS'.thisN'
p3314
I431
sS'.thisIndex'
p3315
I3
sg15
(lp3316
S'k'
asg30
VM
sg17
S'Y'
sg14
I9
sg19
(lp3317
S'space'
p3318
asg94
I3
sa(dp3319
g16
(lp3320
S'd'
asg18
S'N'
sS'.thisRepN'
p3321
I39
sg20
S'Y'
sg31
g32
sS'.thisTrialN'
p3322
I3
sS'.thisN'
p3323
I432
sS'.thisIndex'
p3324
I10
sg15
(lp3325
S'd'
asg30
VM
sg17
S'Y'
sg14
I9
sg19
Nsg94
I10
sa(dp3326
g16
(lp3327
S'd'
asg18
S'Y'
sS'.thisRepN'
p3328
I39
sg20
S'Y'
sg31
g32
sS'.thisTrialN'
p3329
I4
sS'.thisN'
p3330
I433
sS'.thisIndex'
p3331
I9
sg15
(lp3332
S'd'
asg30
VM
sg17
S'Y'
sg14
I9
sg19
(lp3333
S'space'
p3334
asg94
I9
sa(dp3335
g16
(lp3336
S'k'
asg18
S'Y'
sS'.thisRepN'
p3337
I39
sg20
S'N'
sg31
g32
sS'.thisTrialN'
p3338
I5
sS'.thisN'
p3339
I434
sS'.thisIndex'
p3340
I0
sg15
(lp3341
S'd'
asg30
VM
sg17
S'N'
sg14
I9
sg19
Nsg94
I0
sa(dp3342
g16
(lp3343
S'd'
asg18
S'N'
sS'.thisRepN'
p3344
I39
sg20
S'Y'
sg31
g32
sS'.thisTrialN'
p3345
I6
sS'.thisN'
p3346
I435
sS'.thisIndex'
p3347
I4
sg15
(lp3348
S'd'
asg30
VM
sg17
S'Y'
sg14
I9
sg19
Nsg94
I4
sa(dp3349
g16
(lp3350
S'd'
asg18
S'N'
sS'.thisRepN'
p3351
I39
sg20
S'Y'
sg31
g32
sS'.thisTrialN'
p3352
I7
sS'.thisN'
p3353
I436
sS'.thisIndex'
p3354
I0
sg15
(lp3355
S'd'
asg30
VM
sg17
S'Y'
sg14
I9
sg19
Nsg94
I0
sa(dp3356
g16
(lp3357
S'd'
asg18
S'Y'
sS'.thisRepN'
p3358
I39
sg20
S'Y'
sg31
g32
sS'.thisTrialN'
p3359
I8
sS'.thisN'
p3360
I437
sS'.thisIndex'
p3361
I5
sg15
(lp3362
S'd'
asg30
VM
sg17
S'Y'
sg14
I9
sg19
(lp3363
S'space'
p3364
asg94
I5
sa(dp3365
g16
(lp3366
S'k'
asg18
S'N'
sS'.thisRepN'
p3367
I39
sg20
S'Y'
sg31
g32
sS'.thisTrialN'
p3368
I9
sS'.thisN'
p3369
I438
sS'.thisIndex'
p3370
I0
sg15
(lp3371
S'k'
asg30
VM
sg17
S'Y'
sg14
I9
sg19
Nsg94
I0
sa(dp3372
g16
(lp3373
S'd'
asg18
S'Y'
sS'.thisRepN'
p3374
I39
sg20
S'Y'
sg31
g32
sS'.thisTrialN'
p3375
I10
sS'.thisN'
p3376
I439
sS'.thisIndex'
p3377
I6
sg15
(lp3378
S'd'
asg30
VM
sg17
S'Y'
sg14
I9
sg19
(lp3379
S'space'
p3380
asg94
I6
sa(dp3381
g16
(lp3382
S'k'
asg18
S'Y'
sS'.thisRepN'
p3383
I40
sg20
S'Y'
sg31
g32
sS'.thisTrialN'
p3384
I0
sS'.thisN'
p3385
I440
sS'.thisIndex'
p3386
I9
sg15
(lp3387
S'k'
asg30
VM
sg17
S'Y'
sg14
I9
sg19
(lp3388
S'space'
p3389
asg94
I9
sa(dp3390
g16
(lp3391
S'k'
asg18
S'Y'
sS'.thisRepN'
p3392
I40
sg20
S'Y'
sg31
g32
sS'.thisTrialN'
p3393
I1
sS'.thisN'
p3394
I441
sS'.thisIndex'
p3395
I5
sg15
(lp3396
S'k'
asg30
VM
sg17
S'Y'
sg14
I9
sg19
(lp3397
S'space'
p3398
asg94
I5
sa(dp3399
g16
(lp3400
S'd'
asg18
S'Y'
sS'.thisRepN'
p3401
I40
sg20
S'Y'
sg31
g32
sS'.thisTrialN'
p3402
I2
sS'.thisN'
p3403
I442
sS'.thisIndex'
p3404
I10
sg15
(lp3405
S'd'
asg30
VM
sg17
S'Y'
sg14
I9
sg19
(lp3406
S'space'
p3407
asg94
I10
sa(dp3408
g16
(lp3409
S'k'
asg18
S'N'
sS'.thisRepN'
p3410
I40
sg20
S'Y'
sg31
g32
sS'.thisTrialN'
p3411
I3
sS'.thisN'
p3412
I443
sS'.thisIndex'
p3413
I6
sg15
(lp3414
S'k'
asg30
VM
sg17
S'Y'
sg14
I9
sg19
Nsg94
I6
sa(dp3415
g16
(lp3416
S'k'
asg18
S'Y'
sS'.thisRepN'
p3417
I40
sg20
S'Y'
sg31
g32
sS'.thisTrialN'
p3418
I4
sS'.thisN'
p3419
I444
sS'.thisIndex'
p3420
I1
sg15
(lp3421
S'k'
asg30
VM
sg17
S'Y'
sg14
I9
sg19
(lp3422
S'space'
p3423
asg94
I1
sa(dp3424
g16
(lp3425
S'd'
asg18
S'N'
sS'.thisRepN'
p3426
I40
sg20
S'Y'
sg31
g32
sS'.thisTrialN'
p3427
I5
sS'.thisN'
p3428
I445
sS'.thisIndex'
p3429
I8
sg15
(lp3430
S'd'
asg30
VM
sg17
S'Y'
sg14
I9
sg19
Nsg94
I8
sa(dp3431
g16
(lp3432
S'd'
asg18
S'N'
sS'.thisRepN'
p3433
I40
sg20
S'Y'
sg31
g32
sS'.thisTrialN'
p3434
I6
sS'.thisN'
p3435
I446
sS'.thisIndex'
p3436
I3
sg15
(lp3437
S'd'
asg30
VM
sg17
S'Y'
sg14
I9
sg19
Nsg94
I3
sa(dp3438
g16
(lp3439
S'k'
asg18
S'N'
sS'.thisRepN'
p3440
I40
sg20
S'Y'
sg31
g32
sS'.thisTrialN'
p3441
I7
sS'.thisN'
p3442
I447
sS'.thisIndex'
p3443
I0
sg15
(lp3444
S'k'
asg30
VM
sg17
S'Y'
sg14
I9
sg19
Nsg94
I0
sa(dp3445
g16
(lp3446
S'd'
asg18
S'N'
sS'.thisRepN'
p3447
I40
sg20
S'Y'
sg31
g32
sS'.thisTrialN'
p3448
I8
sS'.thisN'
p3449
I448
sS'.thisIndex'
p3450
I7
sg15
(lp3451
S'd'
asg30
VM
sg17
S'Y'
sg14
I9
sg19
Nsg94
I7
sa(dp3452
g16
(lp3453
S'k'
asg18
S'N'
sg22
I38
sS'.thisN'
p3454
I449
sg20
S'Y'
sg31
g32
sS'.thisTrialN'
p3455
I9
sS'.thisRepN'
p3456
I40
sg21
I46
sS'.thisIndex'
p3457
I0
sg23
I25
sg15
(lp3458
S'k'
asg30
VM
sg17
S'Y'
sg14
I9
sg19
Nsg94
I0
sa(dp3459
g16
(lp3460
S'k'
asg94
I2
sS'.thisRepN'
p3461
I40
sg30
VM
sg31
g32
sS'.thisTrialN'
p3462
I10
sS'.thisN'
p3463
I450
sS'.thisIndex'
p3464
I2
sg15
(lp3465
S'k'
asg17
S'Y'
sg14
I10
sa(dp3466
g16
(lp3467
S'k'
asg94
I7
sS'.thisRepN'
p3468
I41
sg30
VM
sg31
g32
sS'.thisTrialN'
p3469
I0
sS'.thisN'
p3470
I451
sS'.thisIndex'
p3471
I7
sg15
(lp3472
S'k'
asg17
S'Y'
sg14
I10
sa(dp3473
g16
(lp3474
S'd'
asg18
S'Y'
sS'.thisRepN'
p3475
I41
sg20
S'Y'
sg31
g32
sS'.thisTrialN'
p3476
I1
sS'.thisN'
p3477
I452
sS'.thisIndex'
p3478
I2
sg15
(lp3479
S'd'
asg30
VM
sg17
S'Y'
sg14
I10
sg19
(lp3480
S'space'
p3481
asg94
I2
sa(dp3482
g16
(lp3483
S'k'
asg18
S'Y'
sS'.thisRepN'
p3484
I41
sg20
S'Y'
sg31
g32
sS'.thisTrialN'
p3485
I2
sS'.thisN'
p3486
I453
sS'.thisIndex'
p3487
I9
sg15
(lp3488
S'k'
asg30
VM
sg17
S'Y'
sg14
I10
sg19
(lp3489
S'space'
p3490
asg94
I9
sa(dp3491
g16
(lp3492
S'k'
asg18
S'Y'
sS'.thisRepN'
p3493
I41
sg20
S'Y'
sg31
g32
sS'.thisTrialN'
p3494
I3
sS'.thisN'
p3495
I454
sS'.thisIndex'
p3496
I1
sg15
(lp3497
S'k'
asg30
VM
sg17
S'Y'
sg14
I10
sg19
(lp3498
S'space'
p3499
asg94
I1
sa(dp3500
g16
(lp3501
S'd'
asg18
S'Y'
sS'.thisRepN'
p3502
I41
sg20
S'Y'
sg31
g32
sS'.thisTrialN'
p3503
I4
sS'.thisN'
p3504
I455
sS'.thisIndex'
p3505
I1
sg15
(lp3506
S'd'
asg30
VM
sg17
S'Y'
sg14
I10
sg19
(lp3507
S'space'
p3508
asg94
I1
sa(dp3509
g16
(lp3510
S'k'
asg18
S'N'
sS'.thisRepN'
p3511
I41
sg20
S'Y'
sg31
g32
sS'.thisTrialN'
p3512
I5
sS'.thisN'
p3513
I456
sS'.thisIndex'
p3514
I10
sg15
(lp3515
S'k'
asg30
VM
sg17
S'Y'
sg14
I10
sg19
Nsg94
I10
sa(dp3516
g16
(lp3517
S'd'
asg18
S'N'
sS'.thisRepN'
p3518
I41
sg20
S'Y'
sg31
g32
sS'.thisTrialN'
p3519
I6
sS'.thisN'
p3520
I457
sS'.thisIndex'
p3521
I9
sg15
(lp3522
S'k'
asg30
VM
sg17
S'N'
sg14
I10
sg19
Nsg94
I9
sa(dp3523
g16
(lp3524
S'd'
asg18
S'N'
sS'.thisRepN'
p3525
I41
sg20
S'Y'
sg31
g32
sS'.thisTrialN'
p3526
I7
sS'.thisN'
p3527
I458
sS'.thisIndex'
p3528
I10
sg15
(lp3529
S'd'
asg30
VM
sg17
S'Y'
sg14
I10
sg19
Nsg94
I10
sa(dp3530
g16
(lp3531
S'd'
asg18
S'N'
sS'.thisRepN'
p3532
I41
sg20
S'Y'
sg31
g32
sS'.thisTrialN'
p3533
I8
sS'.thisN'
p3534
I459
sS'.thisIndex'
p3535
I9
sg15
(lp3536
S'd'
asg30
VM
sg17
S'Y'
sg14
I10
sg19
Nsg94
I9
sa(dp3537
g16
(lp3538
S'k'
asg18
S'Y'
sS'.thisRepN'
p3539
I41
sg20
S'N'
sg31
g32
sS'.thisTrialN'
p3540
I9
sS'.thisN'
p3541
I460
sS'.thisIndex'
p3542
I9
sg15
(lp3543
S'k'
asg30
VM
sg17
S'Y'
sg14
I10
sg19
Nsg94
I9
sa(dp3544
g16
(lp3545
S'd'
asg18
S'N'
sS'.thisRepN'
p3546
I41
sg20
S'Y'
sg31
g32
sS'.thisTrialN'
p3547
I10
sS'.thisN'
p3548
I461
sS'.thisIndex'
p3549
I5
sg15
(lp3550
S'd'
asg30
VM
sg17
S'Y'
sg14
I10
sg19
Nsg94
I5
sa(dp3551
g16
(lp3552
S'k'
asg18
S'N'
sS'.thisRepN'
p3553
I42
sg20
S'Y'
sg31
g32
sS'.thisTrialN'
p3554
I0
sS'.thisN'
p3555
I462
sS'.thisIndex'
p3556
I0
sg15
(lp3557
S'd'
asg30
VM
sg17
S'N'
sg14
I10
sg19
Nsg94
I0
sa(dp3558
g16
(lp3559
S'd'
asg18
S'N'
sS'.thisRepN'
p3560
I42
sg20
S'Y'
sg31
g32
sS'.thisTrialN'
p3561
I1
sS'.thisN'
p3562
I463
sS'.thisIndex'
p3563
I4
sg15
(lp3564
S'd'
asg30
VM
sg17
S'Y'
sg14
I10
sg19
Nsg94
I4
sa(dp3565
g16
(lp3566
S'd'
asg18
S'Y'
sS'.thisRepN'
p3567
I42
sg20
S'Y'
sg31
g32
sS'.thisTrialN'
p3568
I2
sS'.thisN'
p3569
I464
sS'.thisIndex'
p3570
I8
sg15
(lp3571
S'd'
asg30
VM
sg17
S'Y'
sg14
I10
sg19
(lp3572
S'space'
p3573
asg94
I8
sa(dp3574
g16
(lp3575
S'd'
asg18
S'N'
sS'.thisRepN'
p3576
I42
sg20
S'Y'
sg31
g32
sS'.thisTrialN'
p3577
I3
sS'.thisN'
p3578
I465
sS'.thisIndex'
p3579
I1
sg15
(lp3580
S'd'
asg30
VM
sg17
S'Y'
sg14
I10
sg19
Nsg94
I1
sa(dp3581
g16
(lp3582
S'k'
asg18
S'Y'
sS'.thisRepN'
p3583
I42
sg20
S'Y'
sg31
g32
sS'.thisTrialN'
p3584
I4
sS'.thisN'
p3585
I466
sS'.thisIndex'
p3586
I6
sg15
(lp3587
S'k'
asg30
VM
sg17
S'Y'
sg14
I10
sg19
(lp3588
S'space'
p3589
asg94
I6
sa(dp3590
g16
(lp3591
S'd'
asg18
S'Y'
sS'.thisRepN'
p3592
I42
sg20
S'Y'
sg31
g32
sS'.thisTrialN'
p3593
I5
sS'.thisN'
p3594
I467
sS'.thisIndex'
p3595
I3
sg15
(lp3596
S'k'
asg30
VM
sg17
S'N'
sg14
I10
sg19
(lp3597
S'space'
p3598
asg94
I3
sa(dp3599
g16
(lp3600
S'k'
asg18
S'Y'
sS'.thisRepN'
p3601
I42
sg20
S'Y'
sg31
g32
sS'.thisTrialN'
p3602
I6
sS'.thisN'
p3603
I468
sS'.thisIndex'
p3604
I0
sg15
(lp3605
S'k'
asg30
VM
sg17
S'Y'
sg14
I10
sg19
(lp3606
S'space'
p3607
asg94
I0
sa(dp3608
g16
(lp3609
S'd'
asg18
S'Y'
sS'.thisRepN'
p3610
I42
sg20
S'Y'
sg31
g32
sS'.thisTrialN'
p3611
I7
sS'.thisN'
p3612
I469
sS'.thisIndex'
p3613
I3
sg15
(lp3614
S'd'
asg30
VM
sg17
S'Y'
sg14
I10
sg19
(lp3615
S'space'
p3616
asg94
I3
sa(dp3617
g16
(lp3618
S'd'
asg18
S'Y'
sS'.thisRepN'
p3619
I42
sg20
S'N'
sg31
g32
sS'.thisTrialN'
p3620
I8
sS'.thisN'
p3621
I470
sS'.thisIndex'
p3622
I1
sg15
(lp3623
S'd'
asg30
VM
sg17
S'Y'
sg14
I10
sg19
Nsg94
I1
sa(dp3624
g16
(lp3625
S'k'
asg18
S'N'
sS'.thisRepN'
p3626
I42
sg20
S'Y'
sg31
g32
sS'.thisTrialN'
p3627
I9
sS'.thisN'
p3628
I471
sS'.thisIndex'
p3629
I7
sg15
(lp3630
S'k'
asg30
VM
sg17
S'Y'
sg14
I10
sg19
Nsg94
I7
sa(dp3631
g16
(lp3632
S'k'
asg18
S'N'
sS'.thisRepN'
p3633
I42
sg20
S'Y'
sg31
g32
sS'.thisTrialN'
p3634
I10
sS'.thisN'
p3635
I472
sS'.thisIndex'
p3636
I10
sg15
(lp3637
S'k'
asg30
VM
sg17
S'Y'
sg14
I10
sg19
Nsg94
I10
sa(dp3638
g16
(lp3639
S'k'
asg18
S'N'
sS'.thisRepN'
p3640
I43
sg20
S'Y'
sg31
g32
sS'.thisTrialN'
p3641
I0
sS'.thisN'
p3642
I473
sS'.thisIndex'
p3643
I8
sg15
(lp3644
S'k'
asg30
VM
sg17
S'Y'
sg14
I10
sg19
Nsg94
I8
sa(dp3645
g16
(lp3646
S'k'
asg18
S'N'
sS'.thisRepN'
p3647
I43
sg20
S'Y'
sg31
g32
sS'.thisTrialN'
p3648
I1
sS'.thisN'
p3649
I474
sS'.thisIndex'
p3650
I5
sg15
(lp3651
S'k'
asg30
VM
sg17
S'Y'
sg14
I10
sg19
Nsg94
I5
sa(dp3652
g16
(lp3653
S'd'
asg18
S'N'
sS'.thisRepN'
p3654
I43
sg20
S'N'
sg31
g32
sS'.thisTrialN'
p3655
I2
sS'.thisN'
p3656
I475
sS'.thisIndex'
p3657
I10
sg15
(lp3658
S'k'
asg30
VM
sg17
S'N'
sg14
I10
sg19
(lp3659
S'space'
p3660
asg94
I10
sa(dp3661
g16
(lp3662
S'k'
asg18
S'N'
sS'.thisRepN'
p3663
I43
sg20
S'Y'
sg31
g32
sS'.thisTrialN'
p3664
I3
sS'.thisN'
p3665
I476
sS'.thisIndex'
p3666
I1
sg15
(lp3667
S'k'
asg30
VM
sg17
S'Y'
sg14
I10
sg19
Nsg94
I1
sa(dp3668
g16
(lp3669
S'd'
asg18
S'Y'
sS'.thisRepN'
p3670
I43
sg20
S'N'
sg31
g32
sS'.thisTrialN'
p3671
I4
sS'.thisN'
p3672
I477
sS'.thisIndex'
p3673
I7
sg15
(lp3674
S'd'
asg30
VM
sg17
S'Y'
sg14
I10
sg19
Nsg94
I7
sa(dp3675
g16
(lp3676
S'k'
asg18
S'Y'
sS'.thisRepN'
p3677
I43
sg20
S'N'
sg31
g32
sS'.thisTrialN'
p3678
I5
sS'.thisN'
p3679
I478
sS'.thisIndex'
p3680
I6
sg15
(lp3681
S'k'
asg30
VM
sg17
S'Y'
sg14
I10
sg19
Nsg94
I6
sa(dp3682
g16
(lp3683
S'k'
asg18
S'Y'
sS'.thisRepN'
p3684
I43
sg20
S'N'
sg31
g32
sS'.thisTrialN'
p3685
I6
sS'.thisN'
p3686
I479
sS'.thisIndex'
p3687
I0
sg15
(lp3688
S'k'
asg30
VM
sg17
S'Y'
sg14
I10
sg19
Nsg94
I0
sa(dp3689
g16
(lp3690
S'd'
asg18
S'Y'
sS'.thisRepN'
p3691
I43
sg20
S'Y'
sg31
g32
sS'.thisTrialN'
p3692
I7
sS'.thisN'
p3693
I480
sS'.thisIndex'
p3694
I3
sg15
(lp3695
S'd'
asg30
VM
sg17
S'Y'
sg14
I10
sg19
(lp3696
S'space'
p3697
asg94
I3
sa(dp3698
g16
(lp3699
S'd'
asg18
S'N'
sS'.thisRepN'
p3700
I43
sg20
S'Y'
sg31
g32
sS'.thisTrialN'
p3701
I8
sS'.thisN'
p3702
I481
sS'.thisIndex'
p3703
I8
sg15
(lp3704
S'k'
asg30
VM
sg17
S'N'
sg14
I10
sg19
Nsg94
I8
sa(dp3705
g16
(lp3706
S'd'
asg18
S'N'
sS'.thisRepN'
p3707
I43
sg20
S'Y'
sg31
g32
sS'.thisTrialN'
p3708
I9
sS'.thisN'
p3709
I482
sS'.thisIndex'
p3710
I8
sg15
(lp3711
S'k'
asg30
VM
sg17
S'N'
sg14
I10
sg19
Nsg94
I8
sa(dp3712
g16
(lp3713
S'k'
asg18
S'N'
sS'.thisRepN'
p3714
I43
sg20
S'Y'
sg31
g32
sS'.thisTrialN'
p3715
I10
sS'.thisN'
p3716
I483
sS'.thisIndex'
p3717
I5
sg15
(lp3718
S'k'
asg30
VM
sg17
S'Y'
sg14
I10
sg19
Nsg94
I5
sa(dp3719
g16
(lp3720
S'k'
asg18
S'N'
sS'.thisRepN'
p3721
I44
sg20
S'Y'
sg31
g32
sS'.thisTrialN'
p3722
I0
sS'.thisN'
p3723
I484
sS'.thisIndex'
p3724
I9
sg15
(lp3725
S'k'
asg30
VM
sg17
S'Y'
sg14
I10
sg19
Nsg94
I9
sa(dp3726
g16
(lp3727
S'k'
asg18
S'Y'
sS'.thisRepN'
p3728
I44
sg20
S'N'
sg31
g32
sS'.thisTrialN'
p3729
I1
sS'.thisN'
p3730
I485
sS'.thisIndex'
p3731
I5
sg15
(lp3732
S'k'
asg30
VM
sg17
S'Y'
sg14
I10
sg19
Nsg94
I5
sa(dp3733
g16
(lp3734
S'k'
asg18
S'N'
sS'.thisRepN'
p3735
I44
sg20
S'Y'
sg31
g32
sS'.thisTrialN'
p3736
I2
sS'.thisN'
p3737
I486
sS'.thisIndex'
p3738
I7
sg15
(lp3739
S'k'
asg30
VM
sg17
S'Y'
sg14
I10
sg19
Nsg94
I7
sa(dp3740
g16
(lp3741
S'd'
asg18
S'Y'
sS'.thisRepN'
p3742
I44
sg20
S'Y'
sg31
g32
sS'.thisTrialN'
p3743
I3
sS'.thisN'
p3744
I487
sS'.thisIndex'
p3745
I6
sg15
(lp3746
S'd'
asg30
VM
sg17
S'Y'
sg14
I10
sg19
(lp3747
S'space'
p3748
asg94
I6
sa(dp3749
g16
(lp3750
S'k'
asg18
S'N'
sS'.thisRepN'
p3751
I44
sg20
S'Y'
sg31
g32
sS'.thisTrialN'
p3752
I4
sS'.thisN'
p3753
I488
sS'.thisIndex'
p3754
I0
sg15
(lp3755
S'k'
asg30
VM
sg17
S'Y'
sg14
I10
sg19
Nsg94
I0
sa(dp3756
g16
(lp3757
S'd'
asg18
S'Y'
sS'.thisRepN'
p3758
I44
sg20
S'N'
sg31
g32
sS'.thisTrialN'
p3759
I5
sS'.thisN'
p3760
I489
sS'.thisIndex'
p3761
I6
sg15
(lp3762
S'd'
asg30
VM
sg17
S'Y'
sg14
I10
sg19
(lp3763
S'k'
asg94
I6
sa(dp3764
g16
(lp3765
S'k'
asg18
S'N'
sS'.thisRepN'
p3766
I44
sg20
S'N'
sg31
g32
sS'.thisTrialN'
p3767
I6
sS'.thisN'
p3768
I490
sS'.thisIndex'
p3769
I5
sg15
(lp3770
S'k'
asg30
VM
sg17
S'Y'
sg14
I10
sg19
(lp3771
S'd'
asg94
I5
sa(dp3772
g16
(lp3773
S'd'
asg18
S'N'
sS'.thisRepN'
p3774
I44
sg20
S'Y'
sg31
g32
sS'.thisTrialN'
p3775
I7
sS'.thisN'
p3776
I491
sS'.thisIndex'
p3777
I9
sg15
(lp3778
S'd'
asg30
VM
sg17
S'Y'
sg14
I10
sg19
Nsg94
I9
sa(dp3779
g16
(lp3780
S'k'
asg18
S'Y'
sS'.thisRepN'
p3781
I44
sg20
S'Y'
sg31
g32
sS'.thisTrialN'
p3782
I8
sS'.thisN'
p3783
I492
sS'.thisIndex'
p3784
I5
sg15
(lp3785
S'k'
asg30
VM
sg17
S'Y'
sg14
I10
sg19
(lp3786
S'space'
p3787
asg94
I5
sa(dp3788
g16
(lp3789
S'd'
asg18
S'Y'
sS'.thisRepN'
p3790
I44
sg20
S'N'
sg31
g32
sS'.thisTrialN'
p3791
I9
sS'.thisN'
p3792
I493
sS'.thisIndex'
p3793
I1
sg15
(lp3794
S'd'
asg30
VM
sg17
S'Y'
sg14
I10
sg19
Nsg94
I1
sa(dp3795
g16
(lp3796
S'k'
asg18
S'N'
sS'.thisRepN'
p3797
I44
sg20
S'Y'
sg31
g32
sS'.thisTrialN'
p3798
I10
sS'.thisN'
p3799
I494
sS'.thisIndex'
p3800
I4
sg15
(lp3801
S'k'
asg30
VM
sg17
S'Y'
sg14
I10
sg19
Nsg94
I4
sa(dp3802
g16
(lp3803
S'k'
asg18
S'N'
sS'.thisRepN'
p3804
I45
sg20
S'Y'
sg31
g32
sS'.thisTrialN'
p3805
I0
sS'.thisN'
p3806
I495
sS'.thisIndex'
p3807
I7
sg15
(lp3808
S'k'
asg30
VM
sg17
S'Y'
sg14
I10
sg19
Nsg94
I7
sa(dp3809
g16
(lp3810
S'k'
asg18
S'Y'
sS'.thisRepN'
p3811
I45
sg20
S'Y'
sg31
g32
sS'.thisTrialN'
p3812
I1
sS'.thisN'
p3813
I496
sS'.thisIndex'
p3814
I6
sg15
(lp3815
S'k'
asg30
VM
sg17
S'Y'
sg14
I10
sg19
(lp3816
S'space'
p3817
asg94
I6
sa(dp3818
g16
(lp3819
S'k'
asg18
S'N'
sS'.thisRepN'
p3820
I45
sg20
S'Y'
sg31
g32
sS'.thisTrialN'
p3821
I2
sS'.thisN'
p3822
I497
sS'.thisIndex'
p3823
I9
sg15
(lp3824
S'k'
asg30
VM
sg17
S'Y'
sg14
I10
sg19
Nsg94
I9
sa(dp3825
g16
(lp3826
S'k'
asg18
S'N'
sS'.thisRepN'
p3827
I45
sg20
S'N'
sg31
g32
sS'.thisTrialN'
p3828
I3
sS'.thisN'
p3829
I498
sS'.thisIndex'
p3830
I7
sg15
(lp3831
S'k'
asg30
VM
sg17
S'Y'
sg14
I10
sg19
(lp3832
S'space'
p3833
asg94
I7
sa(dp3834
g16
(lp3835
S'd'
asg18
S'N'
sg22
I37
sS'.thisN'
p3836
I499
sg20
S'Y'
sg31
g32
sS'.thisTrialN'
p3837
I4
sS'.thisRepN'
p3838
I45
sg21
I44
sS'.thisIndex'
p3839
I10
sg23
I21
sg15
(lp3840
S'd'
asg30
VM
sg17
S'Y'
sg14
I10
sg19
Nsg94
I10
sa(dp3841
g16
(lp3842
S'k'
asS'.thisIndex'
p3843
I7
sS'.thisRepN'
p3844
I45
sg26
S'Y'
sg30
VM
sg31
g32
sS'.thisTrialN'
p3845
I5
sS'.thisN'
p3846
I500
sg25
S'Y'
sg24
S'Y'
sg15
(lp3847
S'd'
asg17
S'Y'
sg14
I11
sg94
I7
sa(dp3848
g16
(lp3849
S'd'
asS'.thisIndex'
p3850
I6
sS'.thisRepN'
p3851
I45
sg26
S'Y'
sg30
VM
sg31
g32
sS'.thisTrialN'
p3852
I6
sS'.thisN'
p3853
I501
sg25
S'Y'
sg15
(lp3854
S'k'
asg17
S'Y'
sg14
I11
sg94
I6
sa(dp3855
g16
(lp3856
S'd'
asg18
S'Y'
sS'.thisRepN'
p3857
I45
sg26
S'Y'
sg20
S'N'
sg31
g32
sS'.thisTrialN'
p3858
I7
sS'.thisN'
p3859
I502
sg25
S'Y'
sg15
(lp3860
S'd'
asg30
VM
sg17
S'N'
sg14
I11
sg19
Nsg94
I4
sS'.thisIndex'
p3861
I4
sa(dp3862
g16
(lp3863
S'k'
asg18
S'Y'
sS'.thisRepN'
p3864
I45
sg26
S'Y'
sg20
S'N'
sg31
g32
sS'.thisTrialN'
p3865
I8
sS'.thisN'
p3866
I503
sg25
S'Y'
sg15
(lp3867
S'k'
asg30
VM
sg17
S'N'
sg14
I11
sg19
Nsg94
I2
sS'.thisIndex'
p3868
I2
sa(dp3869
g16
(lp3870
S'k'
asg18
S'Y'
sS'.thisRepN'
p3871
I45
sg26
S'Y'
sg20
S'Y'
sg31
g32
sS'.thisTrialN'
p3872
I9
sS'.thisN'
p3873
I504
sg25
S'Y'
sg15
(lp3874
S'k'
asg30
VM
sg17
S'N'
sg14
I11
sg19
(lp3875
S'space'
p3876
asg94
I3
sS'.thisIndex'
p3877
I3
sa(dp3878
g16
(lp3879
S'd'
asg18
S'Y'
sS'.thisRepN'
p3880
I45
sg26
S'Y'
sg20
S'N'
sg31
g32
sS'.thisTrialN'
p3881
I10
sS'.thisN'
p3882
I505
sg25
S'Y'
sg15
(lp3883
S'd'
asg30
VM
sg17
S'N'
sg14
I11
sg19
Nsg94
I5
sS'.thisIndex'
p3884
I5
sa(dp3885
g16
(lp3886
S'k'
asg18
S'Y'
sS'.thisRepN'
p3887
I46
sg26
S'Y'
sg20
S'Y'
sg31
g32
sS'.thisTrialN'
p3888
I0
sS'.thisN'
p3889
I506
sg25
S'Y'
sg15
(lp3890
S'k'
asg30
VM
sg17
S'N'
sg14
I11
sg19
(lp3891
S'space'
p3892
asg94
I0
sS'.thisIndex'
p3893
I0
sa(dp3894
g16
(lp3895
S'd'
asg18
S'Y'
sS'.thisRepN'
p3896
I46
sg26
S'Y'
sg20
S'N'
sg31
g32
sS'.thisTrialN'
p3897
I1
sS'.thisN'
p3898
I507
sg25
S'Y'
sg15
(lp3899
S'd'
asg30
VM
sg17
S'N'
sg14
I11
sg19
Nsg94
I4
sS'.thisIndex'
p3900
I4
sa(dp3901
g16
(lp3902
S'd'
asg18
S'Y'
sS'.thisRepN'
p3903
I46
sg26
S'Y'
sg20
S'N'
sg31
g32
sS'.thisTrialN'
p3904
I2
sS'.thisN'
p3905
I508
sg25
S'Y'
sg15
(lp3906
S'd'
asg30
VM
sg17
S'N'
sg14
I11
sg19
Nsg94
I6
sS'.thisIndex'
p3907
I6
sa(dp3908
g16
(lp3909
S'k'
asg18
S'N'
sS'.thisRepN'
p3910
I46
sg26
S'Y'
sg20
S'Y'
sg31
g32
sS'.thisTrialN'
p3911
I3
sS'.thisN'
p3912
I509
sg25
S'Y'
sg15
(lp3913
S'k'
asg30
VM
sg17
S'N'
sg14
I11
sg19
Nsg94
I0
sS'.thisIndex'
p3914
I0
sa(dp3915
g18
S'Y'
sS'.thisRepN'
p3916
I46
sg26
S'Y'
sg20
S'N'
sg31
g32
sS'.thisTrialN'
p3917
I4
sS'.thisN'
p3918
I510
sg25
S'Y'
sg15
Nsg30
VM
sg17
S'Timed out'
p3919
sg14
I11
sg19
Nsg94
I0
sS'.thisIndex'
p3920
I0
sa(dp3921
g16
(lp3922
S'd'
asg18
S'N'
sS'.thisRepN'
p3923
I46
sg26
S'Y'
sg20
S'Y'
sg31
g32
sS'.thisTrialN'
p3924
I5
sS'.thisN'
p3925
I511
sg25
S'Y'
sg15
(lp3926
S'd'
asg30
VM
sg17
S'N'
sg14
I11
sg19
Nsg94
I7
sS'.thisIndex'
p3927
I7
sa(dp3928
g16
(lp3929
S'k'
asg18
S'Y'
sS'.thisRepN'
p3930
I46
sg26
S'Y'
sg20
S'N'
sg31
g32
sS'.thisTrialN'
p3931
I6
sS'.thisN'
p3932
I512
sg25
S'Y'
sg15
(lp3933
S'd'
asg30
VM
sg17
S'Y'
sg14
I11
sg19
Nsg94
I4
sS'.thisIndex'
p3934
I4
sa(dp3935
g16
(lp3936
S'd'
asg18
S'Y'
sS'.thisRepN'
p3937
I46
sg26
S'Y'
sg20
S'N'
sg31
g32
sS'.thisTrialN'
p3938
I7
sS'.thisN'
p3939
I513
sg25
S'Y'
sg15
(lp3940
S'd'
asg30
VM
sg17
S'N'
sg14
I11
sg19
Nsg94
I3
sS'.thisIndex'
p3941
I3
sa(dp3942
g16
(lp3943
S'd'
asg18
S'Y'
sS'.thisRepN'
p3944
I46
sg26
S'Y'
sg20
S'Y'
sg31
g32
sS'.thisTrialN'
p3945
I8
sS'.thisN'
p3946
I514
sg25
S'Y'
sg15
(lp3947
S'd'
asg30
VM
sg17
S'N'
sg14
I11
sg19
(lp3948
S'space'
p3949
asg94
I10
sS'.thisIndex'
p3950
I10
sa(dp3951
g16
(lp3952
S'k'
asg18
S'Y'
sS'.thisRepN'
p3953
I46
sg26
S'Y'
sg20
S'Y'
sg31
g32
sS'.thisTrialN'
p3954
I9
sS'.thisN'
p3955
I515
sg25
S'Y'
sg15
(lp3956
S'k'
asg30
VM
sg17
S'N'
sg14
I11
sg19
(lp3957
S'space'
p3958
asg94
I3
sS'.thisIndex'
p3959
I3
sa(dp3960
g16
(lp3961
S'd'
asg18
S'Y'
sS'.thisRepN'
p3962
I46
sg26
S'Y'
sg20
S'Y'
sg31
g32
sS'.thisTrialN'
p3963
I10
sS'.thisN'
p3964
I516
sg25
S'Y'
sg15
(lp3965
S'k'
asg30
VM
sg17
S'Y'
sg14
I11
sg19
(lp3966
S'space'
p3967
asg94
I0
sS'.thisIndex'
p3968
I0
sa(dp3969
g16
(lp3970
S'd'
asg18
S'N'
sS'.thisRepN'
p3971
I47
sg26
S'Y'
sg20
S'Y'
sg31
g32
sS'.thisTrialN'
p3972
I0
sS'.thisN'
p3973
I517
sg25
S'Y'
sg15
(lp3974
S'd'
asg30
VM
sg17
S'N'
sg14
I11
sg19
Nsg94
I8
sS'.thisIndex'
p3975
I8
sa(dp3976
g16
(lp3977
S'k'
asg18
S'Y'
sS'.thisRepN'
p3978
I47
sg26
S'Y'
sg20
S'Y'
sg31
g32
sS'.thisTrialN'
p3979
I1
sS'.thisN'
p3980
I518
sg25
S'Y'
sg15
(lp3981
S'd'
asg30
VM
sg17
S'Y'
sg14
I11
sg19
(lp3982
S'space'
p3983
asg94
I1
sS'.thisIndex'
p3984
I1
sa(dp3985
g16
(lp3986
S'k'
asg18
S'Y'
sS'.thisRepN'
p3987
I47
sg26
S'Y'
sg20
S'N'
sg31
g32
sS'.thisTrialN'
p3988
I2
sS'.thisN'
p3989
I519
sg25
S'Y'
sg15
(lp3990
S'd'
asg30
VM
sg17
S'Y'
sg14
I11
sg19
Nsg94
I0
sS'.thisIndex'
p3991
I0
sa(dp3992
g16
(lp3993
S'd'
asg18
S'N'
sS'.thisRepN'
p3994
I47
sg26
S'Y'
sg20
S'Y'
sg31
g32
sS'.thisTrialN'
p3995
I3
sS'.thisN'
p3996
I520
sg25
S'Y'
sg15
(lp3997
S'k'
asg30
VM
sg17
S'Y'
sg14
I11
sg19
Nsg94
I4
sS'.thisIndex'
p3998
I4
sa(dp3999
g16
(lp4000
S'k'
asg18
S'N'
sS'.thisRepN'
p4001
I47
sg26
S'Y'
sg20
S'Y'
sg31
g32
sS'.thisTrialN'
p4002
I4
sS'.thisN'
p4003
I521
sg25
S'Y'
sg15
(lp4004
S'd'
asg30
VM
sg17
S'Y'
sg14
I11
sg19
Nsg94
I5
sS'.thisIndex'
p4005
I5
sa(dp4006
g16
(lp4007
S'k'
asg18
S'Y'
sS'.thisRepN'
p4008
I47
sg26
S'Y'
sg20
S'N'
sg31
g32
sS'.thisTrialN'
p4009
I5
sS'.thisN'
p4010
I522
sg25
S'Y'
sg15
(lp4011
S'd'
asg30
VM
sg17
S'Y'
sg14
I11
sg19
Nsg94
I3
sS'.thisIndex'
p4012
I3
sa(dp4013
g16
(lp4014
S'd'
asg18
S'N'
sS'.thisRepN'
p4015
I47
sg26
S'Y'
sg20
S'Y'
sg31
g32
sS'.thisTrialN'
p4016
I6
sS'.thisN'
p4017
I523
sg25
S'Y'
sg15
(lp4018
S'd'
asg30
VM
sg17
S'N'
sg14
I11
sg19
Nsg94
I9
sS'.thisIndex'
p4019
I9
sa(dp4020
g16
(lp4021
S'd'
asg18
S'Y'
sS'.thisRepN'
p4022
I47
sg26
S'Y'
sg20
S'Y'
sg31
g32
sS'.thisTrialN'
p4023
I7
sS'.thisN'
p4024
I524
sg25
S'Y'
sg15
(lp4025
S'k'
asg30
VM
sg17
S'Y'
sg14
I11
sg19
(lp4026
S'space'
p4027
asg94
I8
sS'.thisIndex'
p4028
I8
sa(dp4029
g16
(lp4030
S'd'
asg18
S'N'
sS'.thisRepN'
p4031
I47
sg26
S'Y'
sg20
S'Y'
sg31
g32
sS'.thisTrialN'
p4032
I8
sS'.thisN'
p4033
I525
sg25
S'Y'
sg15
(lp4034
S'd'
asg30
VM
sg17
S'N'
sg14
I11
sg19
Nsg94
I1
sS'.thisIndex'
p4035
I1
sa(dp4036
g16
(lp4037
S'd'
asg18
S'N'
sS'.thisRepN'
p4038
I47
sg26
S'Y'
sg20
S'Y'
sg31
g32
sS'.thisTrialN'
p4039
I9
sS'.thisN'
p4040
I526
sg25
S'Y'
sg15
(lp4041
S'd'
asg30
VM
sg17
S'N'
sg14
I11
sg19
Nsg94
I7
sS'.thisIndex'
p4042
I7
sa(dp4043
g16
(lp4044
S'k'
asg18
S'N'
sS'.thisRepN'
p4045
I47
sg26
S'Y'
sg20
S'N'
sg31
g32
sS'.thisTrialN'
p4046
I10
sS'.thisN'
p4047
I527
sg25
S'Y'
sg15
(lp4048
S'k'
asg30
VM
sg17
S'N'
sg14
I11
sg19
(lp4049
S'k'
asg94
I0
sS'.thisIndex'
p4050
I0
sa(dp4051
g16
(lp4052
S'd'
asg18
S'Y'
sS'.thisRepN'
p4053
I48
sg26
S'Y'
sg20
S'Y'
sg31
g32
sS'.thisTrialN'
p4054
I0
sS'.thisN'
p4055
I528
sg25
S'Y'
sg15
(lp4056
S'k'
asg30
VM
sg17
S'Y'
sg14
I11
sg19
(lp4057
S'space'
p4058
asg94
I0
sS'.thisIndex'
p4059
I0
sa(dp4060
g16
(lp4061
S'k'
asg18
S'N'
sS'.thisRepN'
p4062
I48
sg26
S'Y'
sg20
S'Y'
sg31
g32
sS'.thisTrialN'
p4063
I1
sS'.thisN'
p4064
I529
sg25
S'Y'
sg15
(lp4065
S'd'
asg30
VM
sg17
S'Y'
sg14
I11
sg19
Nsg94
I10
sS'.thisIndex'
p4066
I10
sa(dp4067
g16
(lp4068
S'd'
asg18
S'N'
sS'.thisRepN'
p4069
I48
sg26
S'Y'
sg20
S'Y'
sg31
g32
sS'.thisTrialN'
p4070
I2
sS'.thisN'
p4071
I530
sg25
S'Y'
sg15
(lp4072
S'k'
asg30
VM
sg17
S'Y'
sg14
I11
sg19
Nsg94
I10
sS'.thisIndex'
p4073
I10
sa(dp4074
g16
(lp4075
S'k'
asg18
S'Y'
sS'.thisRepN'
p4076
I48
sg26
S'Y'
sg20
S'N'
sg31
g32
sS'.thisTrialN'
p4077
I3
sS'.thisN'
p4078
I531
sg25
S'Y'
sg15
(lp4079
S'd'
asg30
VM
sg17
S'Y'
sg14
I11
sg19
Nsg94
I2
sS'.thisIndex'
p4080
I2
sa(dp4081
g16
(lp4082
S'k'
asg18
S'Y'
sS'.thisRepN'
p4083
I48
sg26
S'Y'
sg20
S'Y'
sg31
g32
sS'.thisTrialN'
p4084
I4
sS'.thisN'
p4085
I532
sg25
S'Y'
sg15
(lp4086
S'd'
asg30
VM
sg17
S'Y'
sg14
I11
sg19
(lp4087
S'space'
p4088
asg94
I7
sS'.thisIndex'
p4089
I7
sa(dp4090
g16
(lp4091
S'k'
asg18
S'N'
sS'.thisRepN'
p4092
I48
sg26
S'Y'
sg20
S'Y'
sg31
g32
sS'.thisTrialN'
p4093
I5
sS'.thisN'
p4094
I533
sg25
S'Y'
sg15
(lp4095
S'd'
asg30
VM
sg17
S'Y'
sg14
I11
sg19
Nsg94
I10
sS'.thisIndex'
p4096
I10
sa(dp4097
g16
(lp4098
S'k'
asg18
S'N'
sS'.thisRepN'
p4099
I48
sg26
S'Y'
sg20
S'Y'
sg31
g32
sS'.thisTrialN'
p4100
I6
sS'.thisN'
p4101
I534
sg25
S'Y'
sg15
(lp4102
S'd'
asg30
VM
sg17
S'Y'
sg14
I11
sg19
Nsg94
I0
sS'.thisIndex'
p4103
I0
sa(dp4104
g18
S'Y'
sS'.thisRepN'
p4105
I48
sg26
S'Y'
sg20
S'Y'
sg31
g32
sS'.thisTrialN'
p4106
I7
sS'.thisN'
p4107
I535
sg25
S'Y'
sg15
Nsg30
VM
sg17
g3919
sg14
I11
sg19
(lp4108
S'space'
p4109
asg94
I3
sS'.thisIndex'
p4110
I3
sa(dp4111
g16
(lp4112
S'd'
asg18
S'Y'
sS'.thisRepN'
p4113
I48
sg26
S'Y'
sg20
S'Y'
sg31
g32
sS'.thisTrialN'
p4114
I8
sS'.thisN'
p4115
I536
sg25
S'Y'
sg15
(lp4116
S'd'
asg30
VM
sg17
S'N'
sg14
I11
sg19
(lp4117
S'space'
p4118
asg94
I9
sS'.thisIndex'
p4119
I9
sa(dp4120
g16
(lp4121
S'k'
asg18
S'N'
sS'.thisRepN'
p4122
I48
sg26
S'Y'
sg20
S'Y'
sg31
g32
sS'.thisTrialN'
p4123
I9
sS'.thisN'
p4124
I537
sg25
S'Y'
sg15
(lp4125
S'd'
asg30
VM
sg17
S'Y'
sg14
I11
sg19
Nsg94
I4
sS'.thisIndex'
p4126
I4
sa(dp4127
g16
(lp4128
S'k'
asg18
S'N'
sS'.thisRepN'
p4129
I48
sg26
S'Y'
sg20
S'Y'
sg31
g32
sS'.thisTrialN'
p4130
I10
sS'.thisN'
p4131
I538
sg25
S'Y'
sg15
(lp4132
S'd'
asg30
VM
sg17
S'Y'
sg14
I11
sg19
Nsg94
I7
sS'.thisIndex'
p4133
I7
sa(dp4134
g16
(lp4135
S'd'
asg18
S'Y'
sS'.thisRepN'
p4136
I49
sg26
S'Y'
sg20
S'N'
sg31
g32
sS'.thisTrialN'
p4137
I0
sS'.thisN'
p4138
I539
sg25
S'Y'
sg15
(lp4139
S'd'
asg30
VM
sg17
S'N'
sg14
I11
sg19
Nsg94
I7
sS'.thisIndex'
p4140
I7
sa(dp4141
g16
(lp4142
S'd'
asg18
S'Y'
sS'.thisRepN'
p4143
I49
sg26
S'Y'
sg20
S'N'
sg31
g32
sS'.thisTrialN'
p4144
I1
sS'.thisN'
p4145
I540
sg25
S'Y'
sg15
(lp4146
S'd'
asg30
VM
sg17
S'N'
sg14
I11
sg19
Nsg94
I10
sS'.thisIndex'
p4147
I10
sa(dp4148
g16
(lp4149
S'k'
asg18
S'N'
sS'.thisRepN'
p4150
I49
sg26
S'Y'
sg20
S'Y'
sg31
g32
sS'.thisTrialN'
p4151
I2
sS'.thisN'
p4152
I541
sg25
S'Y'
sg15
(lp4153
S'k'
asg30
VM
sg17
S'N'
sg14
I11
sg19
Nsg94
I3
sS'.thisIndex'
p4154
I3
sa(dp4155
g16
(lp4156
S'k'
asg18
S'Y'
sS'.thisRepN'
p4157
I49
sg26
S'Y'
sg20
S'Y'
sg31
g32
sS'.thisTrialN'
p4158
I3
sS'.thisN'
p4159
I542
sg25
S'Y'
sg15
(lp4160
S'd'
asg30
VM
sg17
S'Y'
sg14
I11
sg19
(lp4161
S'space'
p4162
asg94
I8
sS'.thisIndex'
p4163
I8
sa(dp4164
g16
(lp4165
S'k'
asg18
S'N'
sS'.thisRepN'
p4166
I49
sg26
S'Y'
sg20
S'Y'
sg31
g32
sS'.thisTrialN'
p4167
I4
sS'.thisN'
p4168
I543
sg25
S'Y'
sg15
(lp4169
S'd'
asg30
VM
sg17
S'Y'
sg14
I11
sg19
Nsg94
I2
sS'.thisIndex'
p4170
I2
sa(dp4171
g18
S'N'
sS'.thisRepN'
p4172
I49
sg26
S'Y'
sg20
S'N'
sg31
g32
sS'.thisTrialN'
p4173
I5
sS'.thisN'
p4174
I544
sg25
S'Y'
sg15
Nsg30
VM
sg17
g3919
sg14
I11
sg19
(lp4175
S'space'
p4176
asg94
I2
sS'.thisIndex'
p4177
I2
sa(dp4178
g16
(lp4179
S'd'
asg18
S'N'
sS'.thisRepN'
p4180
I49
sg26
S'Y'
sg20
S'N'
sg31
g32
sS'.thisTrialN'
p4181
I6
sS'.thisN'
p4182
I545
sg25
S'Y'
sg15
(lp4183
S'd'
asg30
VM
sg17
S'N'
sg14
I11
sg19
(lp4184
S'space'
p4185
asg94
I7
sS'.thisIndex'
p4186
I7
sa(dp4187
g16
(lp4188
S'd'
asg18
S'N'
sS'.thisRepN'
p4189
I49
sg26
S'Y'
sg20
S'Y'
sg31
g32
sS'.thisTrialN'
p4190
I7
sS'.thisN'
p4191
I546
sg25
S'Y'
sg15
(lp4192
S'k'
asg30
VM
sg17
S'Y'
sg14
I11
sg19
Nsg94
I8
sS'.thisIndex'
p4193
I8
sa(dp4194
g16
(lp4195
S'k'
asg18
S'N'
sS'.thisRepN'
p4196
I49
sg26
S'Y'
sg20
S'N'
sg31
g32
sS'.thisTrialN'
p4197
I8
sS'.thisN'
p4198
I547
sg25
S'Y'
sg15
(lp4199
S'd'
asg30
VM
sg17
S'Y'
sg14
I11
sg19
(lp4200
S'space'
p4201
asg94
I6
sS'.thisIndex'
p4202
I6
sa(dp4203
g16
(lp4204
S'd'
asg18
S'N'
sS'.thisRepN'
p4205
I49
sg26
S'Y'
sg20
S'Y'
sg31
g32
sS'.thisTrialN'
p4206
I9
sS'.thisN'
p4207
I548
sg25
S'Y'
sg15
(lp4208
S'k'
asg30
VM
sg17
S'Y'
sg14
I11
sg19
Nsg94
I2
sS'.thisIndex'
p4209
I2
sa(dp4210
g16
(lp4211
S'k'
asg18
S'N'
sg22
I31
sg26
S'Y'
sS'.thisN'
p4212
I549
sg20
S'Y'
sg31
g32
sS'.thisTrialN'
p4213
I10
sS'.thisRepN'
p4214
I49
sg21
I25
sg25
S'Y'
sg23
I25
sg15
(lp4215
S'd'
asg30
VM
sg17
S'Y'
sg14
I11
sg19
Nsg94
I3
sS'.thisIndex'
p4216
I3
sa(dp4217
g16
(lp4218
S'k'
asS'.thisIndex'
p4219
I3
sS'.thisRepN'
p4220
I50
sg26
S'Y'
sg30
VM
sg31
g32
sS'.thisTrialN'
p4221
I0
sS'.thisN'
p4222
I550
sg25
S'Y'
sg15
(lp4223
S'd'
asg17
S'Y'
sg14
I12
sg94
I3
sa(dp4224
g16
(lp4225
S'd'
asS'.thisIndex'
p4226
I1
sS'.thisRepN'
p4227
I50
sg26
S'Y'
sg30
VM
sg31
g32
sS'.thisTrialN'
p4228
I1
sS'.thisN'
p4229
I551
sg25
S'Y'
sg15
(lp4230
S'k'
asg17
S'Y'
sg14
I12
sg94
I1
sa(dp4231
g16
(lp4232
S'k'
asg18
S'N'
sS'.thisRepN'
p4233
I50
sg26
S'Y'
sg20
S'Y'
sg31
g32
sS'.thisTrialN'
p4234
I2
sS'.thisN'
p4235
I552
sg25
S'Y'
sg15
(lp4236
S'd'
asg30
VM
sg17
S'Y'
sg14
I12
sg19
Nsg94
I5
sS'.thisIndex'
p4237
I5
sa(dp4238
g16
(lp4239
S'd'
asg18
S'Y'
sS'.thisRepN'
p4240
I50
sg26
S'Y'
sg20
S'Y'
sg31
g32
sS'.thisTrialN'
p4241
I3
sS'.thisN'
p4242
I553
sg25
S'Y'
sg15
(lp4243
S'k'
asg30
VM
sg17
S'Y'
sg14
I12
sg19
(lp4244
S'space'
p4245
asg94
I9
sS'.thisIndex'
p4246
I9
sa(dp4247
g16
(lp4248
S'k'
asg18
S'Y'
sS'.thisRepN'
p4249
I50
sg26
S'Y'
sg20
S'Y'
sg31
g32
sS'.thisTrialN'
p4250
I4
sS'.thisN'
p4251
I554
sg25
S'Y'
sg15
(lp4252
S'd'
asg30
VM
sg17
S'Y'
sg14
I12
sg19
(lp4253
S'space'
p4254
asg94
I10
sS'.thisIndex'
p4255
I10
sa(dp4256
g16
(lp4257
S'k'
asg18
S'Y'
sS'.thisRepN'
p4258
I50
sg26
S'Y'
sg20
S'Y'
sg31
g32
sS'.thisTrialN'
p4259
I5
sS'.thisN'
p4260
I555
sg25
S'Y'
sg15
(lp4261
S'd'
asg30
VM
sg17
S'Y'
sg14
I12
sg19
(lp4262
S'space'
p4263
asg94
I0
sS'.thisIndex'
p4264
I0
sa(dp4265
g18
S'Y'
sS'.thisRepN'
p4266
I50
sg26
S'Y'
sg20
S'Y'
sg31
g32
sS'.thisTrialN'
p4267
I6
sS'.thisN'
p4268
I556
sg25
S'Y'
sg15
Nsg30
VM
sg17
g3919
sg14
I12
sg19
(lp4269
S'space'
p4270
asg94
I9
sS'.thisIndex'
p4271
I9
sa(dp4272
g16
(lp4273
S'd'
asg18
S'N'
sS'.thisRepN'
p4274
I50
sg26
S'Y'
sg20
S'Y'
sg31
g32
sS'.thisTrialN'
p4275
I7
sS'.thisN'
p4276
I557
sg25
S'Y'
sg15
(lp4277
S'd'
asg30
VM
sg17
S'N'
sg14
I12
sg19
Nsg94
I8
sS'.thisIndex'
p4278
I8
sa(dp4279
g16
(lp4280
S'd'
asg18
S'N'
sS'.thisRepN'
p4281
I50
sg26
S'Y'
sg20
S'Y'
sg31
g32
sS'.thisTrialN'
p4282
I8
sS'.thisN'
p4283
I558
sg25
S'Y'
sg15
(lp4284
S'd'
asg30
VM
sg17
S'N'
sg14
I12
sg19
Nsg94
I8
sS'.thisIndex'
p4285
I8
sa(dp4286
g16
(lp4287
S'd'
asg18
S'Y'
sS'.thisRepN'
p4288
I50
sg26
S'Y'
sg20
S'Y'
sg31
g32
sS'.thisTrialN'
p4289
I9
sS'.thisN'
p4290
I559
sg25
S'Y'
sg15
(lp4291
S'k'
asg30
VM
sg17
S'Y'
sg14
I12
sg19
(lp4292
S'space'
p4293
asg94
I4
sS'.thisIndex'
p4294
I4
sa(dp4295
g16
(lp4296
S'k'
asg18
S'Y'
sS'.thisRepN'
p4297
I50
sg26
S'Y'
sg20
S'Y'
sg31
g32
sS'.thisTrialN'
p4298
I10
sS'.thisN'
p4299
I560
sg25
S'Y'
sg15
(lp4300
S'k'
asg30
VM
sg17
S'N'
sg14
I12
sg19
(lp4301
S'space'
p4302
asg94
I1
sS'.thisIndex'
p4303
I1
sa(dp4304
g16
(lp4305
S'd'
asg18
S'N'
sS'.thisRepN'
p4306
I51
sg26
S'Y'
sg20
S'Y'
sg31
g32
sS'.thisTrialN'
p4307
I0
sS'.thisN'
p4308
I561
sg25
S'Y'
sg15
(lp4309
S'k'
asg30
VM
sg17
S'Y'
sg14
I12
sg19
Nsg94
I1
sS'.thisIndex'
p4310
I1
sa(dp4311
g16
(lp4312
S'k'
asg18
S'Y'
sS'.thisRepN'
p4313
I51
sg26
S'Y'
sg20
S'Y'
sg31
g32
sS'.thisTrialN'
p4314
I1
sS'.thisN'
p4315
I562
sg25
S'Y'
sg15
(lp4316
S'd'
asg30
VM
sg17
S'Y'
sg14
I12
sg19
(lp4317
S'space'
p4318
asg94
I3
sS'.thisIndex'
p4319
I3
sa(dp4320
g16
(lp4321
S'k'
asg18
S'N'
sS'.thisRepN'
p4322
I51
sg26
S'Y'
sg20
S'Y'
sg31
g32
sS'.thisTrialN'
p4323
I2
sS'.thisN'
p4324
I563
sg25
S'Y'
sg15
(lp4325
S'd'
asg30
VM
sg17
S'Y'
sg14
I12
sg19
Nsg94
I2
sS'.thisIndex'
p4326
I2
sa(dp4327
g16
(lp4328
S'd'
asg18
S'N'
sS'.thisRepN'
p4329
I51
sg26
S'Y'
sg20
S'Y'
sg31
g32
sS'.thisTrialN'
p4330
I3
sS'.thisN'
p4331
I564
sg25
S'Y'
sg15
(lp4332
S'd'
asg30
VM
sg17
S'N'
sg14
I12
sg19
Nsg94
I7
sS'.thisIndex'
p4333
I7
sa(dp4334
g16
(lp4335
S'd'
asg18
S'Y'
sS'.thisRepN'
p4336
I51
sg26
S'Y'
sg20
S'Y'
sg31
g32
sS'.thisTrialN'
p4337
I4
sS'.thisN'
p4338
I565
sg25
S'Y'
sg15
(lp4339
S'k'
asg30
VM
sg17
S'Y'
sg14
I12
sg19
(lp4340
S'space'
p4341
asg94
I3
sS'.thisIndex'
p4342
I3
sa(dp4343
g16
(lp4344
S'd'
asg18
S'Y'
sS'.thisRepN'
p4345
I51
sg26
S'Y'
sg20
S'Y'
sg31
g32
sS'.thisTrialN'
p4346
I5
sS'.thisN'
p4347
I566
sg25
S'Y'
sg15
(lp4348
S'k'
asg30
VM
sg17
S'Y'
sg14
I12
sg19
(lp4349
S'space'
p4350
asg94
I2
sS'.thisIndex'
p4351
I2
sa(dp4352
g16
(lp4353
S'd'
asg18
S'Y'
sS'.thisRepN'
p4354
I51
sg26
S'Y'
sg20
S'N'
sg31
g32
sS'.thisTrialN'
p4355
I6
sS'.thisN'
p4356
I567
sg25
S'Y'
sg15
(lp4357
S'k'
asg30
VM
sg17
S'Y'
sg14
I12
sg19
Nsg94
I7
sS'.thisIndex'
p4358
I7
sa(dp4359
g16
(lp4360
S'k'
asg18
S'N'
sS'.thisRepN'
p4361
I51
sg26
S'Y'
sg20
S'N'
sg31
g32
sS'.thisTrialN'
p4362
I7
sS'.thisN'
p4363
I568
sg25
S'Y'
sg15
(lp4364
S'd'
asg30
VM
sg17
S'Y'
sg14
I12
sg19
(lp4365
S'space'
p4366
asg94
I8
sS'.thisIndex'
p4367
I8
sa(dp4368
g16
(lp4369
S'k'
asg18
S'N'
sS'.thisRepN'
p4370
I51
sg26
S'Y'
sg20
S'Y'
sg31
g32
sS'.thisTrialN'
p4371
I8
sS'.thisN'
p4372
I569
sg25
S'Y'
sg15
(lp4373
S'd'
asg30
VM
sg17
S'Y'
sg14
I12
sg19
Nsg94
I5
sS'.thisIndex'
p4374
I5
sa(dp4375
g16
(lp4376
S'k'
asg18
S'N'
sS'.thisRepN'
p4377
I51
sg26
S'Y'
sg20
S'N'
sg31
g32
sS'.thisTrialN'
p4378
I9
sS'.thisN'
p4379
I570
sg25
S'Y'
sg15
(lp4380
S'd'
asg30
VM
sg17
S'Y'
sg14
I12
sg19
(lp4381
S'space'
p4382
asg94
I2
sS'.thisIndex'
p4383
I2
sa(dp4384
g16
(lp4385
S'd'
asg18
S'Y'
sS'.thisRepN'
p4386
I51
sg26
S'Y'
sg20
S'Y'
sg31
g32
sS'.thisTrialN'
p4387
I10
sS'.thisN'
p4388
I571
sg25
S'Y'
sg15
(lp4389
S'd'
asg30
VM
sg17
S'N'
sg14
I12
sg19
(lp4390
S'space'
p4391
asg94
I8
sS'.thisIndex'
p4392
I8
sa(dp4393
g16
(lp4394
S'k'
asg18
S'Y'
sS'.thisRepN'
p4395
I52
sg26
S'Y'
sg20
S'N'
sg31
g32
sS'.thisTrialN'
p4396
I0
sS'.thisN'
p4397
I572
sg25
S'Y'
sg15
(lp4398
S'd'
asg30
VM
sg17
S'Y'
sg14
I12
sg19
(lp4399
S'd'
asg94
I4
sS'.thisIndex'
p4400
I4
sa(dp4401
g16
(lp4402
S'd'
asg18
S'N'
sS'.thisRepN'
p4403
I52
sg26
S'Y'
sg20
S'Y'
sg31
g32
sS'.thisTrialN'
p4404
I1
sS'.thisN'
p4405
I573
sg25
S'Y'
sg15
(lp4406
S'k'
asg30
VM
sg17
S'Y'
sg14
I12
sg19
Nsg94
I1
sS'.thisIndex'
p4407
I1
sa(dp4408
g16
(lp4409
S'd'
asg18
S'N'
sS'.thisRepN'
p4410
I52
sg26
S'Y'
sg20
S'N'
sg31
g32
sS'.thisTrialN'
p4411
I2
sS'.thisN'
p4412
I574
sg25
S'Y'
sg15
(lp4413
S'k'
asg30
VM
sg17
S'Y'
sg14
I12
sg19
(lp4414
S'space'
p4415
asg94
I1
sS'.thisIndex'
p4416
I1
sa(dp4417
g16
(lp4418
S'd'
asg18
S'N'
sS'.thisRepN'
p4419
I52
sg26
S'Y'
sg20
S'Y'
sg31
g32
sS'.thisTrialN'
p4420
I3
sS'.thisN'
p4421
I575
sg25
S'Y'
sg15
(lp4422
S'k'
asg30
VM
sg17
S'Y'
sg14
I12
sg19
Nsg94
I8
sS'.thisIndex'
p4423
I8
sa(dp4424
g16
(lp4425
S'k'
asg18
S'Y'
sS'.thisRepN'
p4426
I52
sg26
S'Y'
sg20
S'Y'
sg31
g32
sS'.thisTrialN'
p4427
I4
sS'.thisN'
p4428
I576
sg25
S'Y'
sg15
(lp4429
S'd'
asg30
VM
sg17
S'Y'
sg14
I12
sg19
(lp4430
S'space'
p4431
asg94
I4
sS'.thisIndex'
p4432
I4
sa(dp4433
g16
(lp4434
S'd'
asg18
S'Y'
sS'.thisRepN'
p4435
I52
sg26
S'Y'
sg20
S'Y'
sg31
g32
sS'.thisTrialN'
p4436
I5
sS'.thisN'
p4437
I577
sg25
S'Y'
sg15
(lp4438
S'd'
asg30
VM
sg17
S'N'
sg14
I12
sg19
(lp4439
S'space'
p4440
asg94
I6
sS'.thisIndex'
p4441
I6
sa(dp4442
g16
(lp4443
S'd'
asg18
S'Y'
sS'.thisRepN'
p4444
I52
sg26
S'Y'
sg20
S'Y'
sg31
g32
sS'.thisTrialN'
p4445
I6
sS'.thisN'
p4446
I578
sg25
S'Y'
sg15
(lp4447
S'd'
asg30
VM
sg17
S'N'
sg14
I12
sg19
(lp4448
S'space'
p4449
asg94
I8
sS'.thisIndex'
p4450
I8
sa(dp4451
g16
(lp4452
S'k'
asg18
S'N'
sS'.thisRepN'
p4453
I52
sg26
S'Y'
sg20
S'N'
sg31
g32
sS'.thisTrialN'
p4454
I7
sS'.thisN'
p4455
I579
sg25
S'Y'
sg15
(lp4456
S'k'
asg30
VM
sg17
S'N'
sg14
I12
sg19
(lp4457
S'space'
p4458
asg94
I7
sS'.thisIndex'
p4459
I7
sa(dp4460
g16
(lp4461
S'd'
asg18
S'Y'
sS'.thisRepN'
p4462
I52
sg26
S'Y'
sg20
S'Y'
sg31
g32
sS'.thisTrialN'
p4463
I8
sS'.thisN'
p4464
I580
sg25
S'Y'
sg15
(lp4465
S'd'
asg30
VM
sg17
S'N'
sg14
I12
sg19
(lp4466
S'space'
p4467
asg94
I5
sS'.thisIndex'
p4468
I5
sa(dp4469
g18
S'N'
sS'.thisRepN'
p4470
I52
sg26
S'Y'
sg20
S'N'
sg31
g32
sS'.thisTrialN'
p4471
I9
sS'.thisN'
p4472
I581
sg25
S'Y'
sg15
Nsg30
VM
sg17
g3919
sg14
I12
sg19
(lp4473
S'd'
asg94
I0
sS'.thisIndex'
p4474
I0
sa(dp4475
g16
(lp4476
S'k'
asg18
S'Y'
sS'.thisRepN'
p4477
I52
sg26
S'Y'
sg20
S'N'
sg31
g32
sS'.thisTrialN'
p4478
I10
sS'.thisN'
p4479
I582
sg25
S'Y'
sg15
(lp4480
S'd'
asg30
VM
sg17
S'Y'
sg14
I12
sg19
Nsg94
I6
sS'.thisIndex'
p4481
I6
sa(dp4482
g16
(lp4483
S'd'
asg18
S'N'
sS'.thisRepN'
p4484
I53
sg26
S'Y'
sg20
S'Y'
sg31
g32
sS'.thisTrialN'
p4485
I0
sS'.thisN'
p4486
I583
sg25
S'Y'
sg15
(lp4487
S'd'
asg30
VM
sg17
S'N'
sg14
I12
sg19
Nsg94
I8
sS'.thisIndex'
p4488
I8
sa(dp4489
g16
(lp4490
S'k'
asg18
S'N'
sS'.thisRepN'
p4491
I53
sg26
S'Y'
sg20
S'Y'
sg31
g32
sS'.thisTrialN'
p4492
I1
sS'.thisN'
p4493
I584
sg25
S'Y'
sg15
(lp4494
S'd'
asg30
VM
sg17
S'Y'
sg14
I12
sg19
Nsg94
I1
sS'.thisIndex'
p4495
I1
sa(dp4496
g16
(lp4497
S'k'
asg18
S'Y'
sS'.thisRepN'
p4498
I53
sg26
S'Y'
sg20
S'N'
sg31
g32
sS'.thisTrialN'
p4499
I2
sS'.thisN'
p4500
I585
sg25
S'Y'
sg15
(lp4501
S'd'
asg30
VM
sg17
S'Y'
sg14
I12
sg19
Nsg94
I7
sS'.thisIndex'
p4502
I7
sa(dp4503
g16
(lp4504
S'd'
asg18
S'N'
sS'.thisRepN'
p4505
I53
sg26
S'Y'
sg20
S'Y'
sg31
g32
sS'.thisTrialN'
p4506
I3
sS'.thisN'
p4507
I586
sg25
S'Y'
sg15
(lp4508
S'd'
asg30
VM
sg17
S'N'
sg14
I12
sg19
Nsg94
I6
sS'.thisIndex'
p4509
I6
sa(dp4510
g16
(lp4511
S'd'
asg18
S'N'
sS'.thisRepN'
p4512
I53
sg26
S'Y'
sg20
S'Y'
sg31
g32
sS'.thisTrialN'
p4513
I4
sS'.thisN'
p4514
I587
sg25
S'Y'
sg15
(lp4515
S'd'
asg30
VM
sg17
S'N'
sg14
I12
sg19
Nsg94
I9
sS'.thisIndex'
p4516
I9
sa(dp4517
g16
(lp4518
S'k'
asg18
S'Y'
sS'.thisRepN'
p4519
I53
sg26
S'Y'
sg20
S'Y'
sg31
g32
sS'.thisTrialN'
p4520
I5
sS'.thisN'
p4521
I588
sg25
S'Y'
sg15
(lp4522
S'd'
asg30
VM
sg17
S'Y'
sg14
I12
sg19
(lp4523
S'space'
p4524
asg94
I0
sS'.thisIndex'
p4525
I0
sa(dp4526
g16
(lp4527
S'd'
asg18
S'Y'
sS'.thisRepN'
p4528
I53
sg26
S'Y'
sg20
S'N'
sg31
g32
sS'.thisTrialN'
p4529
I6
sS'.thisN'
p4530
I589
sg25
S'Y'
sg15
(lp4531
S'k'
asg30
VM
sg17
S'Y'
sg14
I12
sg19
Nsg94
I7
sS'.thisIndex'
p4532
I7
sa(dp4533
g16
(lp4534
S'k'
asg18
S'Y'
sS'.thisRepN'
p4535
I53
sg26
S'Y'
sg20
S'N'
sg31
g32
sS'.thisTrialN'
p4536
I7
sS'.thisN'
p4537
I590
sg25
S'Y'
sg15
(lp4538
S'd'
asg30
VM
sg17
S'Y'
sg14
I12
sg19
Nsg94
I6
sS'.thisIndex'
p4539
I6
sa(dp4540
g16
(lp4541
S'd'
asg18
S'N'
sS'.thisRepN'
p4542
I53
sg26
S'Y'
sg20
S'Y'
sg31
g32
sS'.thisTrialN'
p4543
I8
sS'.thisN'
p4544
I591
sg25
S'Y'
sg15
(lp4545
S'k'
asg30
VM
sg17
S'Y'
sg14
I12
sg19
Nsg94
I5
sS'.thisIndex'
p4546
I5
sa(dp4547
g16
(lp4548
S'd'
asg18
S'Y'
sS'.thisRepN'
p4549
I53
sg26
S'Y'
sg20
S'Y'
sg31
g32
sS'.thisTrialN'
p4550
I9
sS'.thisN'
p4551
I592
sg25
S'Y'
sg15
(lp4552
S'k'
asg30
VM
sg17
S'Y'
sg14
I12
sg19
(lp4553
S'space'
p4554
asg94
I0
sS'.thisIndex'
p4555
I0
sa(dp4556
g16
(lp4557
S'd'
asg18
S'Y'
sS'.thisRepN'
p4558
I53
sg26
S'Y'
sg20
S'Y'
sg31
g32
sS'.thisTrialN'
p4559
I10
sS'.thisN'
p4560
I593
sg25
S'Y'
sg15
(lp4561
S'd'
asg30
VM
sg17
S'N'
sg14
I12
sg19
(lp4562
S'space'
p4563
asg94
I9
sS'.thisIndex'
p4564
I9
sa(dp4565
g16
(lp4566
S'k'
asg18
S'Y'
sS'.thisRepN'
p4567
I54
sg26
S'Y'
sg20
S'Y'
sg31
g32
sS'.thisTrialN'
p4568
I0
sS'.thisN'
p4569
I594
sg25
S'Y'
sg15
(lp4570
S'd'
asg30
VM
sg17
S'Y'
sg14
I12
sg19
(lp4571
S'space'
p4572
asg94
I0
sS'.thisIndex'
p4573
I0
sa(dp4574
g16
(lp4575
S'd'
asg18
S'Y'
sS'.thisRepN'
p4576
I54
sg26
S'Y'
sg20
S'N'
sg31
g32
sS'.thisTrialN'
p4577
I1
sS'.thisN'
p4578
I595
sg25
S'Y'
sg15
(lp4579
S'k'
asg30
VM
sg17
S'Y'
sg14
I12
sg19
Nsg94
I0
sS'.thisIndex'
p4580
I0
sa(dp4581
g16
(lp4582
S'k'
asg18
S'N'
sS'.thisRepN'
p4583
I54
sg26
S'Y'
sg20
S'Y'
sg31
g32
sS'.thisTrialN'
p4584
I2
sS'.thisN'
p4585
I596
sg25
S'Y'
sg15
(lp4586
S'd'
asg30
VM
sg17
S'Y'
sg14
I12
sg19
Nsg94
I2
sS'.thisIndex'
p4587
I2
sa(dp4588
g16
(lp4589
S'd'
asg18
S'N'
sS'.thisRepN'
p4590
I54
sg26
S'Y'
sg20
S'Y'
sg31
g32
sS'.thisTrialN'
p4591
I3
sS'.thisN'
p4592
I597
sg25
S'Y'
sg15
(lp4593
S'd'
asg30
VM
sg17
S'N'
sg14
I12
sg19
Nsg94
I4
sS'.thisIndex'
p4594
I4
sa(dp4595
g16
(lp4596
S'd'
asg18
S'N'
sS'.thisRepN'
p4597
I54
sg26
S'Y'
sg20
S'Y'
sg31
g32
sS'.thisTrialN'
p4598
I4
sS'.thisN'
p4599
I598
sg25
S'Y'
sg15
(lp4600
S'd'
asg30
VM
sg17
S'N'
sg14
I12
sg19
Nsg94
I10
sS'.thisIndex'
p4601
I10
sa(dp4602
g16
(lp4603
S'd'
asg18
S'N'
sg22
I36
sg26
S'Y'
sS'.thisN'
p4604
I599
sg20
S'Y'
sg31
g32
sS'.thisTrialN'
p4605
I5
sS'.thisRepN'
p4606
I54
sg21
I32
sg25
S'Y'
sg23
I25
sg15
(lp4607
S'd'
asg30
VM
sg17
S'N'
sg14
I12
sg19
Nsg94
I8
sS'.thisIndex'
p4608
I8
sasS'loops'
p4609
(lp4610
g1
(g35
g3
NtRp4611
(dp4612
g38
Nsg39
(lp4613
sg40
I74477712
sg10
S''
sg6
g41
sg42
I1
sg27
I01
sg28
Nsg43
g1
(g44
g45
(dp4614
g47
g48
(g49
g50
g51
S'b'
tRp4615
(I1
(I600
I1
tg54
I00
S'\x00\x00\x80?\x00\x00\x80?\x00\x00\x80?\x00\x00\x80?\x00\x00\x80?\x00\x00\x80?\x00\x00\x80?\x00\x00\x80?\x00\x00\x80?\x00\x00\x80?\x00\x00\x80?\x00\x00\x80?\x00\x00\x80?\x00\x00\x80?\x00\x00\x80?\x00\x00\x80?\x00\x00\x80?\x00\x00\x80?\x00\x00\x80?\x00\x00\x80?\x00\x00\x80?\x00\x00\x80?\x00\x00\x80?\x00\x00\x80?\x00\x00\x80?\x00\x00\x80?\x00\x00\x80?\x00\x00\x80?\x00\x00\x80?\x00\x00\x80?\x00\x00\x80?\x00\x00\x80?\x00\x00\x80?\x00\x00\x80?\x00\x00\x80?\x00\x00\x80?\x00\x00\x80?\x00\x00\x80?\x00\x00\x80?\x00\x00\x80?\x00\x00\x80?\x00\x00\x80?\x00\x00\x80?\x00\x00\x80?\x00\x00\x80?\x00\x00\x80?\x00\x00\x80?\x00\x00\x80?\x00\x00\x80?\x00\x00\x80?\x00\x00\x80?\x00\x00\x80?\x00\x00\x80?\x00\x00\x80?\x00\x00\x80?\x00\x00\x80?\x00\x00\x80?\x00\x00\x80?\x00\x00\x80?\x00\x00\x80?\x00\x00\x80?\x00\x00\x80?\x00\x00\x80?\x00\x00\x80?\x00\x00\x80?\x00\x00\x80?\x00\x00\x80?\x00\x00\x80?\x00\x00\x80?\x00\x00\x80?\x00\x00\x80?\x00\x00\x80?\x00\x00\x80?\x00\x00\x80?\x00\x00\x80?\x00\x00\x80?\x00\x00\x80?\x00\x00\x80?\x00\x00\x80?\x00\x00\x80?\x00\x00\x80?\x00\x00\x80?\x00\x00\x80?\x00\x00\x80?\x00\x00\x80?\x00\x00\x80?\x00\x00\x80?\x00\x00\x80?\x00\x00\x80?\x00\x00\x80?\x00\x00\x80?\x00\x00\x80?\x00\x00\x80?\x00\x00\x80?\x00\x00\x80?\x00\x00\x80?\x00\x00\x80?\x00\x00\x80?\x00\x00\x80?\x00\x00\x80?\x00\x00\x80?\x00\x00\x80?\x00\x00\x80?\x00\x00\x80?\x00\x00\x80?\x00\x00\x80?\x00\x00\x80?\x00\x00\x80?\x00\x00\x80?\x00\x00\x80?\x00\x00\x80?\x00\x00\x80?\x00\x00\x80?\x00\x00\x80?\x00\x00\x80?\x00\x00\x80?\x00\x00\x80?\x00\x00\x80?\x00\x00\x80?\x00\x00\x80?\x00\x00\x80?\x00\x00\x80?\x00\x00\x80?\x00\x00\x80?\x00\x00\x80?\x00\x00\x80?\x00\x00\x80?\x00\x00\x80?\x00\x00\x80?\x00\x00\x80?\x00\x00\x80?\x00\x00\x80?\x00\x00\x80?\x00\x00\x80?\x00\x00\x80?\x00\x00\x80?\x00\x00\x80?\x00\x00\x80?\x00\x00\x80?\x00\x00\x80?\x00\x00\x80?\x00\x00\x80?\x00\x00\x80?\x00\x00\x80?\x00\x00\x80?\x00\x00\x80?\x00\x00\x80?\x00\x00\x80?\x00\x00\x80?\x00\x00\x80?\x00\x00\x80?\x00\x00\x80?\x00\x00\x80?\x00\x00\x80?\x00\x00\x80?\x00\x00\x80?\x00\x00\x80?\x00\x00\x80?\x00\x00\x80?\x00\x00\x80?\x00\x00\x80?\x00\x00\x80?\x00\x00\x80?\x00\x00\x80?\x00\x00\x80?\x00\x00\x80?\x00\x00\x80?\x00\x00\x80?\x00\x00\x80?\x00\x00\x80?\x00\x00\x80?\x00\x00\x80?\x00\x00\x80?\x00\x00\x80?\x00\x00\x80?\x00\x00\x80?\x00\x00\x80?\x00\x00\x80?\x00\x00\x80?\x00\x00\x80?\x00\x00\x80?\x00\x00\x80?\x00\x00\x80?\x00\x00\x80?\x00\x00\x80?\x00\x00\x80?\x00\x00\x80?\x00\x00\x80?\x00\x00\x80?\x00\x00\x80?\x00\x00\x80?\x00\x00\x80?\x00\x00\x80?\x00\x00\x80?\x00\x00\x80?\x00\x00\x80?\x00\x00\x80?\x00\x00\x80?\x00\x00\x80?\x00\x00\x80?\x00\x00\x80?\x00\x00\x80?\x00\x00\x80?\x00\x00\x80?\x00\x00\x80?\x00\x00\x80?\x00\x00\x80?\x00\x00\x80?\x00\x00\x80?\x00\x00\x80?\x00\x00\x80?\x00\x00\x80?\x00\x00\x80?\x00\x00\x80?\x00\x00\x80?\x00\x00\x80?\x00\x00\x80?\x00\x00\x80?\x00\x00\x80?\x00\x00\x80?\x00\x00\x80?\x00\x00\x80?\x00\x00\x80?\x00\x00\x80?\x00\x00\x80?\x00\x00\x80?\x00\x00\x80?\x00\x00\x80?\x00\x00\x80?\x00\x00\x80?\x00\x00\x80?\x00\x00\x80?\x00\x00\x80?\x00\x00\x80?\x00\x00\x80?\x00\x00\x80?\x00\x00\x80?\x00\x00\x80?\x00\x00\x80?\x00\x00\x80?\x00\x00\x80?\x00\x00\x80?\x00\x00\x80?\x00\x00\x80?\x00\x00\x80?\x00\x00\x80?\x00\x00\x80?\x00\x00\x80?\x00\x00\x80?\x00\x00\x80?\x00\x00\x80?\x00\x00\x80?\x00\x00\x80?\x00\x00\x80?\x00\x00\x80?\x00\x00\x80?\x00\x00\x80?\x00\x00\x80?\x00\x00\x80?\x00\x00\x80?\x00\x00\x80?\x00\x00\x80?\x00\x00\x80?\x00\x00\x80?\x00\x00\x80?\x00\x00\x80?\x00\x00\x80?\x00\x00\x80?\x00\x00\x80?\x00\x00\x80?\x00\x00\x80?\x00\x00\x80?\x00\x00\x80?\x00\x00\x80?\x00\x00\x80?\x00\x00\x80?\x00\x00\x80?\x00\x00\x80?\x00\x00\x80?\x00\x00\x80?\x00\x00\x80?\x00\x00\x80?\x00\x00\x80?\x00\x00\x80?\x00\x00\x80?\x00\x00\x80?\x00\x00\x80?\x00\x00\x80?\x00\x00\x80?\x00\x00\x80?\x00\x00\x80?\x00\x00\x80?\x00\x00\x80?\x00\x00\x80?\x00\x00\x80?\x00\x00\x80?\x00\x00\x80?\x00\x00\x80?\x00\x00\x80?\x00\x00\x80?\x00\x00\x80?\x00\x00\x80?\x00\x00\x80?\x00\x00\x80?\x00\x00\x80?\x00\x00\x80?\x00\x00\x80?\x00\x00\x80?\x00\x00\x80?\x00\x00\x80?\x00\x00\x80?\x00\x00\x80?\x00\x00\x80?\x00\x00\x80?\x00\x00\x80?\x00\x00\x80?\x00\x00\x80?\x00\x00\x80?\x00\x00\x80?\x00\x00\x80?\x00\x00\x80?\x00\x00\x80?\x00\x00\x80?\x00\x00\x80?\x00\x00\x80?\x00\x00\x80?\x00\x00\x80?\x00\x00\x80?\x00\x00\x80?\x00\x00\x80?\x00\x00\x80?\x00\x00\x80?\x00\x00\x80?\x00\x00\x80?\x00\x00\x80?\x00\x00\x80?\x00\x00\x80?\x00\x00\x80?\x00\x00\x80?\x00\x00\x80?\x00\x00\x80?\x00\x00\x80?\x00\x00\x80?\x00\x00\x80?\x00\x00\x80?\x00\x00\x80?\x00\x00\x80?\x00\x00\x80?\x00\x00\x80?\x00\x00\x80?\x00\x00\x80?\x00\x00\x80?\x00\x00\x80?\x00\x00\x80?\x00\x00\x80?\x00\x00\x80?\x00\x00\x80?\x00\x00\x80?\x00\x00\x80?\x00\x00\x80?\x00\x00\x80?\x00\x00\x80?\x00\x00\x80?\x00\x00\x80?\x00\x00\x80?\x00\x00\x80?\x00\x00\x80?\x00\x00\x80?\x00\x00\x80?\x00\x00\x80?\x00\x00\x80?\x00\x00\x80?\x00\x00\x80?\x00\x00\x80?\x00\x00\x80?\x00\x00\x80?\x00\x00\x80?\x00\x00\x80?\x00\x00\x80?\x00\x00\x80?\x00\x00\x80?\x00\x00\x80?\x00\x00\x80?\x00\x00\x80?\x00\x00\x80?\x00\x00\x80?\x00\x00\x80?\x00\x00\x80?\x00\x00\x80?\x00\x00\x80?\x00\x00\x80?\x00\x00\x80?\x00\x00\x80?\x00\x00\x80?\x00\x00\x80?\x00\x00\x80?\x00\x00\x80?\x00\x00\x80?\x00\x00\x80?\x00\x00\x80?\x00\x00\x80?\x00\x00\x80?\x00\x00\x80?\x00\x00\x80?\x00\x00\x80?\x00\x00\x80?\x00\x00\x80?\x00\x00\x80?\x00\x00\x80?\x00\x00\x80?\x00\x00\x80?\x00\x00\x80?\x00\x00\x80?\x00\x00\x80?\x00\x00\x80?\x00\x00\x80?\x00\x00\x80?\x00\x00\x80?\x00\x00\x80?\x00\x00\x80?\x00\x00\x80?\x00\x00\x80?\x00\x00\x80?\x00\x00\x80?\x00\x00\x80?\x00\x00\x80?\x00\x00\x80?\x00\x00\x80?\x00\x00\x80?\x00\x00\x80?\x00\x00\x80?\x00\x00\x80?\x00\x00\x80?\x00\x00\x80?\x00\x00\x80?\x00\x00\x80?\x00\x00\x80?\x00\x00\x80?\x00\x00\x80?\x00\x00\x80?\x00\x00\x80?\x00\x00\x80?\x00\x00\x80?\x00\x00\x80?\x00\x00\x80?\x00\x00\x80?\x00\x00\x80?\x00\x00\x80?\x00\x00\x80?\x00\x00\x80?\x00\x00\x80?\x00\x00\x80?\x00\x00\x80?\x00\x00\x80?\x00\x00\x80?\x00\x00\x80?\x00\x00\x80?\x00\x00\x80?\x00\x00\x80?\x00\x00\x80?\x00\x00\x80?\x00\x00\x80?\x00\x00\x80?\x00\x00\x80?\x00\x00\x80?\x00\x00\x80?\x00\x00\x80?\x00\x00\x80?\x00\x00\x80?\x00\x00\x80?\x00\x00\x80?\x00\x00\x80?\x00\x00\x80?\x00\x00\x80?\x00\x00\x80?\x00\x00\x80?\x00\x00\x80?\x00\x00\x80?\x00\x00\x80?\x00\x00\x80?\x00\x00\x80?\x00\x00\x80?\x00\x00\x80?\x00\x00\x80?\x00\x00\x80?\x00\x00\x80?\x00\x00\x80?\x00\x00\x80?\x00\x00\x80?\x00\x00\x80?\x00\x00\x80?\x00\x00\x80?\x00\x00\x80?\x00\x00\x80?\x00\x00\x80?\x00\x00\x80?\x00\x00\x80?\x00\x00\x80?\x00\x00\x80?\x00\x00\x80?\x00\x00\x80?\x00\x00\x80?\x00\x00\x80?\x00\x00\x80?\x00\x00\x80?\x00\x00\x80?\x00\x00\x80?\x00\x00\x80?\x00\x00\x80?\x00\x00\x80?\x00\x00\x80?\x00\x00\x80?\x00\x00\x80?\x00\x00\x80?\x00\x00\x80?\x00\x00\x80?\x00\x00\x80?\x00\x00\x80?\x00\x00\x80?\x00\x00\x80?\x00\x00\x80?\x00\x00\x80?\x00\x00\x80?\x00\x00\x80?\x00\x00\x80?\x00\x00\x80?\x00\x00\x80?\x00\x00\x80?\x00\x00\x80?\x00\x00\x80?\x00\x00\x80?\x00\x00\x80?\x00\x00\x80?\x00\x00\x80?\x00\x00\x80?\x00\x00\x80?\x00\x00\x80?\x00\x00\x80?\x00\x00\x80?\x00\x00\x80?\x00\x00\x80?\x00\x00\x80?\x00\x00\x80?\x00\x00\x80?\x00\x00\x80?\x00\x00\x80?\x00\x00\x80?\x00\x00\x80?\x00\x00\x80?\x00\x00\x80?\x00\x00\x80?\x00\x00\x80?\x00\x00\x80?\x00\x00\x80?\x00\x00\x80?\x00\x00\x80?\x00\x00\x80?\x00\x00\x80?\x00\x00\x80?\x00\x00\x80?\x00\x00\x80?\x00\x00\x80?\x00\x00\x80?\x00\x00\x80?\x00\x00\x80?\x00\x00\x80?\x00\x00\x80?\x00\x00\x80?\x00\x00\x80?\x00\x00\x80?\x00\x00\x80?\x00\x00\x80?\x00\x00\x80?\x00\x00\x80?\x00\x00\x80?\x00\x00\x80?\x00\x00\x80?\x00\x00\x80?\x00\x00\x80?\x00\x00\x80?\x00\x00\x80?\x00\x00\x80?\x00\x00\x80?\x00\x00\x80?\x00\x00\x80?\x00\x00\x80?\x00\x00\x80?\x00\x00\x80?\x00\x00\x80?\x00\x00\x80?\x00\x00\x80?\x00\x00\x80?\x00\x00\x80?\x00\x00\x80?\x00\x00\x80?\x00\x00\x80?\x00\x00\x80?\x00\x00\x80?\x00\x00\x80?\x00\x00\x80?'
S'\x00\x00\x00\x00\x00\x00\x00\x00\x00\x00\x00\x00\x00\x00\x00\x00\x00\x00\x00\x00\x00\x00\x00\x00\x00\x00\x00\x00\x00\x00\x00\x00\x00\x00\x00\x00\x00\x00\x00\x00\x00\x00\x00\x00\x00\x00\x00\x00\x00\x00\x00\x00\x00\x00\x00\x00\x00\x00\x00\x00\x00\x00\x00\x00\x00\x00\x00\x00\x00\x00\x00\x00\x00\x00\x00\x00\x00\x00\x00\x00\x00\x00\x00\x00\x00\x00\x00\x00\x00\x00\x00\x00\x00\x00\x00\x00\x00\x00\x00\x00\x00\x00\x00\x00\x00\x00\x00\x00\x00\x00\x00\x00\x00\x00\x00\x00\x00\x00\x00\x00\x00\x00\x00\x00\x00\x00\x00\x00\x00\x00\x00\x00\x00\x00\x00\x00\x00\x00\x00\x00\x00\x00\x00\x00\x00\x00\x00\x00\x00\x00\x00\x00\x00\x00\x00\x00\x00\x00\x00\x00\x00\x00\x00\x00\x00\x00\x00\x00\x00\x00\x00\x00\x00\x00\x00\x00\x00\x00\x00\x00\x00\x00\x00\x00\x00\x00\x00\x00\x00\x00\x00\x00\x00\x00\x00\x00\x00\x00\x00\x00\x00\x00\x00\x00\x00\x00\x00\x00\x00\x00\x00\x00\x00\x00\x00\x00\x00\x00\x00\x00\x00\x00\x00\x00\x00\x00\x00\x00\x00\x00\x00\x00\x00\x00\x00\x00\x00\x00\x00\x00\x00\x00\x00\x00\x00\x00\x00\x00\x00\x00\x00\x00\x00\x00\x00\x00\x00\x00\x00\x00\x00\x00\x00\x00\x00\x00\x00\x00\x00\x00\x00\x00\x00\x00\x00\x00\x00\x00\x00\x00\x00\x00\x00\x00\x00\x00\x00\x00\x00\x00\x00\x00\x00\x00\x00\x00\x00\x00\x00\x00\x00\x00\x00\x00\x00\x00\x00\x00\x00\x00\x00\x00\x00\x00\x00\x00\x00\x00\x00\x00\x00\x00\x00\x00\x00\x00\x00\x00\x00\x00\x00\x00\x00\x00\x00\x00\x00\x00\x00\x00\x00\x00\x00\x00\x00\x00\x00\x00\x00\x00\x00\x00\x00\x00\x00\x00\x00\x00\x00\x00\x00\x00\x00\x00\x00\x00\x00\x00\x00\x00\x00\x00\x00\x00\x00\x00\x00\x00\x00\x00\x00\x00\x00\x00\x00\x00\x00\x00\x00\x00\x00\x00\x00\x00\x00\x00\x00\x00\x00\x00\x00\x00\x00\x00\x00\x00\x00\x00\x00\x00\x00\x00\x00\x00\x00\x00\x00\x00\x00\x00\x00\x00\x00\x00\x00\x00\x00\x00\x00\x00\x00\x00\x00\x00\x00\x00\x00\x00\x00\x00\x00\x00\x00\x00\x00\x00\x00\x00\x00\x00\x00\x00\x00\x00\x00\x00\x00\x00\x00\x00\x00\x00\x00\x00\x00\x00\x00\x00\x00\x00\x00\x00\x00\x00\x00\x00\x00\x00\x00\x00\x00\x00\x00\x00\x00\x00\x00\x00\x00\x00\x00\x00\x00\x00\x00\x00\x00\x00\x00\x00\x00\x00\x00\x00\x00\x00\x00\x00\x00\x00\x00\x00\x00\x00\x00\x00\x00\x00\x00\x00\x00\x00\x00\x00\x00\x00\x00\x00\x00\x00\x00\x00\x00\x00\x00\x00\x00\x00\x00\x00\x00\x00\x00\x00\x00\x00\x00\x00\x00\x00\x00\x00\x00\x00\x00\x00\x00\x00\x00\x00\x00\x00\x00\x00\x00\x00\x00\x00\x00\x00\x00\x00\x00\x00\x00\x00\x00\x00\x00\x00\x00\x00\x00\x00\x00\x00\x00\x00\x00\x00\x00\x00\x00\x00\x00\x00\x00\x00\x00\x00'
Ntbsg55
g48
(g49
g50
g51
S'b'
tRp4616
(I1
(I600
I1
tg54
I00
S'\x00\xc0\x06D\x00\x80\xfcC\x00\x009C\x00\x00\xebC\x00\x00\x14D\x00\x00\x9dC\x00\x00\x0eC\x00\x00\xc0B\x00\x00\x80A\x00\x00[C\x00\x80\x8bC\x00\x00\x98C\x00\x008B\x00\x00\xdeB\x00\x00\xe0C\x00\x80\xd9C\x00\xc0\tD\x00\x80\xacC\x00\x00hC\x00\x00pB\x00\x80\x12D\x00\x80\xa7C\x00\x00\xb8B\x00\x80\xafC\x00\x00\x8dC\x00\x80\xd8C\x00\x80\xedC\x00\x00dC\x00\x80\xf4C\x00\x00\xaaC\x00\x00\tD\x00\x00}C\x00\x80\x9dC\x00\x80\xe8C\x00\x80\xf6C\x00\x00\xb3C\x00\x80\xbdC\x00\x00\x86B\x00\x00\x1dC\x00\x00\xe0B\x00@\x01D\x00\x00?C\x00\x00\xf0C\x00\x00\x7fC\x00\x00\xd8A\x00\x00\xe4B\x00\x00\x1cC\x00\x80\xa0C\x00\x80\x88C\x00\x00\xb1C\x00\x00\x1eC\x00\x00\xfcB\x00\x80\x04D\x00@\rD\x00\x80\xaeC\x00\x80\xfaC\x00\x003C\x00\x00\xd4B\x00\x80\xf0C\x00\x80\xb0C\x00\x00\xb5C\x00\x00\xaaB\x00\x00\xe8B\x00\x00\xa6C\x00\x80\xffC\x00\x00\xa0A\x00\x00\xcbC\x00\x007C\x00\x00\x82C\x00\x00~C\x00\x80\x10D\x00\x00/C\x00\x00\xddC\x00\x00\xfbC\x00\x80\xe5C\x00\x00\x85C\x00\x00\x08C\x00\x80\xf5C\x00\x00\xecB\x00\x00GC\x00\x80\xd3C\x00\x80\xd2C\x00\x00wC\x00\x00DC\x00\x80\x08D\x00@\x0bD\x00\x80\x82C\x00\x80\xdbC\x00\xc0\x14D\x00\x00fC\x00\x80\x90C\x00@\x13D\x00\x80\xc6C\x00\x00\x9bC\x00\x80\x0bD\x00@\x03D\x00\x00\xceB\x00\x80\xc8C\x00\x00\xc6C\x00\x00\xf4B\x00\x00\x01D\x00\x00{C\x00\x80\x00D\x00@\x0fD\x00\x00\xdaC\x00\x00\x0fC\x00\x00EC\x00\x00\xe8A\x00\x80\x0fD\x00\x001C\x00\x80\xc5C\x00\xc0\rD\x00\x00\x94C\x00\x00,C\x00\x00\x19C\x00@\x0cD\x00\x00\xdfC\x00\x00\xcaC\x00\x00\x86C\x00\x00$C\x00\x80\xc1C\x00\x00]C\x00\x008C\x00\x80\xcdC\x00\x00\xc5C\x00\x00gC\x00\x00vC\x00\x00\x98A\x00\x00@B\x00\xc0\x11D\x00\x00\xc2B\x00\x00\xbeB\x00\x00\xceC\x00\xc0\x12D\x00\x80\xe6C\x00\x00\xa5C\x00\x00\x06D\x00\x80\xccC\x00\x00tB\x00\x00hB\x00\x00\xdaB\x00\xc0\x15D\x00\x00\x11D\x00\x00\xa8A\x00\x80\xd0C\x00\x80\x98C\x00\x00-C\x00\x00)C\x00\x00\x10C\x00\x00NC\x00\x000A\x00\x00\xfeC\x00@\x14D\x00\x00\x88A\x00\x00\x1cB\x00\x80\x95C\x00\xc0\x0fD\x00\x000C\x00\x80\xf3C\x00\x80\xe7C\x00\x80\xe3C\x00@\x00D\x00\xc0\x0eD\x00\x00\x94B\x00\x00sC\x00\x00\xc8C\x00\x00\xa3C\x00@\x08D\x00\x00pA\x00\x80\xceC\x00\x00\x88C\x00\x80\rD\x00\x00\xc8A\x00\x80\x96C\x00\x00\x08D\x00\x00`C\x00\x80\xb7C\x00\x80\xc3C\x00\x00\xa8B\x00\x00HC\x00\x00\xcfC\x00\x00\x07D\x00\x00\x89C\x00\x00UC\x00\x00QC\x00\x80\x85C\x00\x00\xaeB\x00\xc0\x13D\x00\x00\x8bC\x00\x00\x06C\x00\x00\x9cB\x00\x00\\C\x00\x00\xe8C\x00\x00\x03D\x00\x00\x84C\x00@\nD\x00\x00\x97C\x00\x00\xb4B\x00\x80\xa3C\x00\x80\x97C\x00\x00\xc2C\x00\x80\xdeC\x00\x80\xbbC\x00\x00yC\x00@\x15D\x00\x00\x0bD\x00\x00\rD\x00\x00\xc0C\x00\x00\x02C\x00\x00\xd0C\x00\x00LC\x00\x00JC\x00\x00LB\x00\x00\xa2C\x00\x80\xf9C\x00\x00\x99C\x00\x00\xf1C\x00\x00\xd8B\x00\x00.C\x00\x00cC\x00\x80\x99C\x00\x00(C\x00\x00IC\x00\x80\x9bC\x00\x00\xa0C\x00\x00\xb7C\x00\x80\xfdC\x00\x00\xd2B\x00\x00\xe2C\x00\x00\x14C\x00\x80\xdaC\x00\xc0\x02D\x00\x00\xbaC\x00\x00\x80B\x00\x80\xb8C\x00\x00\x90A\x00\x00\xf6B\x00\x00=C\x00\x80\xc2C\x00\x00\x17C\x00\x00\xe5C\x00\x00mC\x00\x80\x91C\x00\x00KC\x00\x00\xb0B\x00\x80\xb6C\x00\x00FC\x00\x00ZC\x00\x00 C\x00\x00\x16C\x00\x00\xc6B\x00\x00\xbbC\x00\x80\x8fC\x00\x00iC\x00\x00nC\x00\x80\xe4C\x00\x80\x15D\x00\x00\xbcC\x00\x00dB\x00\x00\x9eB\x00\x00\xd8C\x00\x00\x95C\x00\x00\xa1C\x00\x00\xd6C\x00\x80\xeeC\x00\xc0\x0bD\x00\x00\xdcB\x00\x00\xf0B\x00\x00\xb6C\x00\x00\x81C\x00\x00DB\x00\x00\x02D\x00\x00WC\x00\x80\xa9C\x00\x00aC\x00\x00xB\x00\x00\xbcB\x00\x000B\x00\x80\x03D\x00\x00\x84B\x00\x00XC\x00\x00\x11C\x00\x00\xb9C\x00\x80\xeaC\x00\x80\xb4C\x00\x00\x90B\x00\x80\xc4C\x00\x80\xaaC\x00\x80\xe9C\x00@\x10D\x00\x00@C\x00\x00\xa0B\x00\x00\xeeB\x00\x00TC\x00\x00BC\x00\x00PB\x00\x00\xb2C\x00\x00\x04D\x00\x00\x9eC\x00\x00\xc3C\x00\x00\x0eD\x00\x00\xf4C\x00\x00$B\x00\x00@A\x00\x00\xf2B\x00\x00\xedC\x00\x00qC\x00\x00\xacC\x00\x00xC\x00\x00\tC\x00\x00\xc0@\x00\x00XB\x00\x80\xa6C\x00\xc0\nD\x00\x00 A\x00\x80\x80C\x00\x00\xc8B\x00\x00\x18B\x00\x00\xe4C\x00\x00\x88B\x00\x00\xc4C\x00\x80\x8aC\x00\x00\x8cB\x00\x80\xdfC\x00\x80\x13D\x00\x00\x9cC\x00\x00\x12C\x00\x00\xb2B\x00\x00\x10A\x00\x00\nC\x00\x00jC\x00\x00\x0cC\x00\x00\xb0A\x00\x80\xb9C\x00\x00\xdcC\x00\x00\x0bC\x00\x00`B\x00\x00zC\x00\x00\x15D\x00\x80\x05D\x00\x00\xf0A\x00\x00pC\x00\x00lB\x00\x00|C\x00\x00\xf3C\x00\x00\x1bC\x00\x00\xf6C\x00\x80\xb5C\x00\x00\xbfC\x00\x00|B\x00\x00\x04B\x00\x00\xe2B\x00\x00\xffC\x00\x00bC\x00\x00\x93C\x00\x80\xd5C\x00\x80\xc7C\x00\x00kC\x00\x00\xcaB\x00\x00\xe7C\x00\x80\x06D\x00\x00\x92B\x00\x00\xa8C\x00\x00*C\x00\x00\xe3C\x00\x80\xf8C\x00\x80\xebC\x00\x80\xb2C\x00\x80\x86C\x00\x00\xa7C\x00\x80\xe0C\x00\x00\x96B\x00\x00\x05D\x00\x00"C\x00\x00\xd9C\x00\x00`A\x00\x00\xbeC\x00\x00\xa0@\x00\x004B\x00\x80\xf7C\x00\x00\nD\x00\x00\xf8C\x00\x80\xbfC\x00\x00OC\x00\x80\nD\x00\x00\xc1C\x00\x00<B\x00\x00<C\x00\x00VC\x00\x80\x01D\x00\xc0\x0cD\x00@\x0eD\x00\x00\x92C\x00\x00\x00D\x00\x00\xe1C\x00\x00\x13D\x00\x00\x1fC\x00\x00\xb0C\x00\x00 B\x00\x00rC\x00\x80\xddC\x00\x002C\x00\x80\xe1C\x00\x00\xd0B\x00\x80\xbeC\x00\xc0\x07D\x00\x00\xc9C\x00\x80\xb1C\x00\x00HB\x00\x80\xa5C\x00\x00\xfeB\x00\x00tC\x00\x80\xe2C\x00\x00\xf9C\x00\x00\x87C\x00\x80\x11D\x00\x00&C\x00\x00\xb4C\x00\x00\xbdC\x00\x00>C\x00\x80\x89C\x00\x00\xeaC\x00\x00\xc0A\x00\x80\x8dC\x00\x00!C\x00\x80\xf2C\x00\x00\xbaB\x00\x00\x0cB\x00@\x12D\x00\x80\x94C\x00\x80\xd4C\x00\x00\x80@\x00\x00\x05C\x00\x00\xc4B\x00\x00\xe6B\x00\x00\x96C\x00\x80\x8cC\x00\x80\xc0C\x00\x00\x04C\x00\xc0\x10D\x00@\x06D\x00\x80\x83C\x00\x00\x00\x00\x00\x00\xa6B\x00\x00\xe6C\x00\x00\x00C\x00\x00\xf2C\x00\x00\x0cD\x00\x00\xd0A\x00\x00\'C\x00\x80\xfeC\x00\x80\x0cD\x00\x80\xefC\x00\x00\xe0A\x00\x80\x9aC\x00\x00\x8fC\x00\xc0\x00D\x00\x00TB\x00\x00SC\x00\x00\xd1C\x00\x80\xd6C\x00\x00\xeeC\x00\x00\xc7C\x00\x00+C\x00\x00\x01C\x00@\x02D\x00\x00\xccB\x00\x00\x18C\x00\x00\xadC\x00\x00\xd6B\x00\x80\xfbC\x00\x00\xa4B\x00\x00^C\x00\x00\xb8C\x00\x00#C\x00\x80\xabC\x00\x005C\x00\x00\x08B\x00\x00\xe9C\x00\x00\xf8B\x00\x00\x12D\x00\x00\x1aC\x00@\x11D\x00\xc0\x05D\x00\x80\x07D\x00\x80\tD\x00\x00YC\x00\x80\xa8C\x00\x00\xd4C\x00\x00\x83C\x00\x00\xfaC\x00\x00eC\x00\x80\x9cC\x00\x00\xa4C\x00\x80\x14D\x00\x00\xfdC\x00\x80\xa4C\x00\x00\xecC\x00\x00\xf7C\x00\x00\xd2C\x00\x00\x80?\x00\x80\x8eC\x00\x00\x80C\x00\x00\xeaB\x00\x80\xbaC\x00\x00:C\x00\x00%C\x00@\tD\x00\x00MC\x00\xc0\x01D\x00\x00\x9aB\x00\x00lC\x00\x00\x9fC\x00\x00@@\x00\x00\xa9C\x00\x80\xf1C\x00\x00\x91C\x00\x80\xcbC\x00\x00\rC\x00\xc0\x08D\x00\x00\x8eC\x00\x00\x10B\x00\x00\xabC\x00\x00\x00A\x00\x80\xa2C\x00\x00\x13C\x00\x00,B\x00\x80\xa1C\x00\x00\xf5C\x00\x80\xd1C\x00\x80\xecC\x00\x00AC\x00\x00;C\x00\x80\xb3C\x00\x00\x0fD\x00\x00_C\x00\x00CC\x00\x80\xd7C\x00\x00\x90C\x00\x00oC\x00\x80\xbcC\x00\x00\xefC\x00\x80\x93C\x00\x00PA\x00\x00\xb6B\x00\x00\xd7C\x00\x00\xb8A\x00\x00\x8aC\x00\x00\x82B\x00\x00\xfcC\x00@\x04D\x00\x00\xaeC\x00\x00\xcdC\x00\x00\xdbC\x00\x00\x00@\x00\x80\xdcC\x00\x80\xc9C\x00\x80\x84C\x00\x004C\x00\x00\x8cC\x00\x00\xccC\x00\x00\xd3C\x00\x00\xfaB\x00\x006C\x00\x00PC\x00\x00uC\x00\x00\xafC\x00\x00(B\x00\x80\x9eC\x00\x00\xdeC\x00\x00\x07C\x00\xc0\x04D\x00@\x05D\x00\x00\xa2B\x00\x80\x9fC\x00\x00\\B\x00\x80\x81C\x00\x00\x03C\x00\x80\xcaC\x00\x00\xe0@\x00\x00\x15C\x00\x80\x02D\x00\x80\x0eD\x00\x00\x14B\x00\x00\xf8A\x00\x00\x98B\x00\x00\xd5C\x00\x00\xacB\x00\x00\x8aB\x00\x80\x87C\x00\x00\x9aC\x00\x00\x8eB\x00\x00\x00B\x00@\x07D\x00\x00RC\x00\x80\x92C\x00\xc0\x03D\x00\x80\xadC\x00\x80\xcfC\x00\x00\x10D'
S'\x00\x00\x00\x00\x00\x00\x00\x00\x00\x00\x00\x00\x00\x00\x00\x00\x00\x00\x00\x00\x00\x00\x00\x00\x00\x00\x00\x00\x00\x00\x00\x00\x00\x00\x00\x00\x00\x00\x00\x00\x00\x00\x00\x00\x00\x00\x00\x00\x00\x00\x00\x00\x00\x00\x00\x00\x00\x00\x00\x00\x00\x00\x00\x00\x00\x00\x00\x00\x00\x00\x00\x00\x00\x00\x00\x00\x00\x00\x00\x00\x00\x00\x00\x00\x00\x00\x00\x00\x00\x00\x00\x00\x00\x00\x00\x00\x00\x00\x00\x00\x00\x00\x00\x00\x00\x00\x00\x00\x00\x00\x00\x00\x00\x00\x00\x00\x00\x00\x00\x00\x00\x00\x00\x00\x00\x00\x00\x00\x00\x00\x00\x00\x00\x00\x00\x00\x00\x00\x00\x00\x00\x00\x00\x00\x00\x00\x00\x00\x00\x00\x00\x00\x00\x00\x00\x00\x00\x00\x00\x00\x00\x00\x00\x00\x00\x00\x00\x00\x00\x00\x00\x00\x00\x00\x00\x00\x00\x00\x00\x00\x00\x00\x00\x00\x00\x00\x00\x00\x00\x00\x00\x00\x00\x00\x00\x00\x00\x00\x00\x00\x00\x00\x00\x00\x00\x00\x00\x00\x00\x00\x00\x00\x00\x00\x00\x00\x00\x00\x00\x00\x00\x00\x00\x00\x00\x00\x00\x00\x00\x00\x00\x00\x00\x00\x00\x00\x00\x00\x00\x00\x00\x00\x00\x00\x00\x00\x00\x00\x00\x00\x00\x00\x00\x00\x00\x00\x00\x00\x00\x00\x00\x00\x00\x00\x00\x00\x00\x00\x00\x00\x00\x00\x00\x00\x00\x00\x00\x00\x00\x00\x00\x00\x00\x00\x00\x00\x00\x00\x00\x00\x00\x00\x00\x00\x00\x00\x00\x00\x00\x00\x00\x00\x00\x00\x00\x00\x00\x00\x00\x00\x00\x00\x00\x00\x00\x00\x00\x00\x00\x00\x00\x00\x00\x00\x00\x00\x00\x00\x00\x00\x00\x00\x00\x00\x00\x00\x00\x00\x00\x00\x00\x00\x00\x00\x00\x00\x00\x00\x00\x00\x00\x00\x00\x00\x00\x00\x00\x00\x00\x00\x00\x00\x00\x00\x00\x00\x00\x00\x00\x00\x00\x00\x00\x00\x00\x00\x00\x00\x00\x00\x00\x00\x00\x00\x00\x00\x00\x00\x00\x00\x00\x00\x00\x00\x00\x00\x00\x00\x00\x00\x00\x00\x00\x00\x00\x00\x00\x00\x00\x00\x00\x00\x00\x00\x00\x00\x00\x00\x00\x00\x00\x00\x00\x00\x00\x00\x00\x00\x00\x00\x00\x00\x00\x00\x00\x00\x00\x00\x00\x00\x00\x00\x00\x00\x00\x00\x00\x00\x00\x00\x00\x00\x00\x00\x00\x00\x00\x00\x00\x00\x00\x00\x00\x00\x00\x00\x00\x00\x00\x00\x00\x00\x00\x00\x00\x00\x00\x00\x00\x00\x00\x00\x00\x00\x00\x00\x00\x00\x00\x00\x00\x00\x00\x00\x00\x00\x00\x00\x00\x00\x00\x00\x00\x00\x00\x00\x00\x00\x00\x00\x00\x00\x00\x00\x00\x00\x00\x00\x00\x00\x00\x00\x00\x00\x00\x00\x00\x00\x00\x00\x00\x00\x00\x00\x00\x00\x00\x00\x00\x00\x00\x00\x00\x00\x00\x00\x00\x00\x00\x00\x00\x00\x00\x00\x00\x00\x00\x00\x00\x00\x00\x00\x00\x00\x00\x00\x00\x00\x00\x00\x00\x00\x00\x00\x00\x00\x00\x00\x00\x00\x00\x00\x00\x00\x00\x00\x00\x00\x00\x00\x00\x00\x00\x00\x00\x00\x00\x00\x00\x00'
NtbstRp4617
(dp4618
g59
(dp4619
g47
I01
sg55
I01
ssg61
g4611
sg62
(lp4620
g47
ag55
asg64
(lp4621
I600
aI1
asbsg66
S'random'
p4622
sg68
g69
(g50
(I0
tS'b'
tRp4623
(I1
(I600
I1
tg53
(S'i4'
I0
I1
tRp4624
(I3
S'<'
NNNI-1
I-1
I0
tbI01
S'\xba\x01\x00\x00\xf4\x01\x00\x00*\x02\x00\x00\x01\x02\x00\x00\xaf\x01\x00\x00y\x01\x00\x006\x01\x00\x00C\x02\x00\x00\x0b\x02\x00\x00H\x01\x00\x00:\x01\x00\x00\x96\x00\x00\x00/\x01\x00\x00\x1f\x02\x00\x00w\x01\x00\x00\xa8\x00\x00\x00\x08\x00\x00\x00\x99\x00\x00\x00\xeb\x00\x00\x00\x7f\x00\x00\x00A\x00\x00\x00\x8f\x00\x00\x00L\x01\x00\x00"\x02\x00\x00\xa6\x01\x00\x00\xac\x00\x00\x00\xc0\x01\x00\x00,\x00\x00\x00\xc5\x01\x00\x00k\x00\x00\x00T\x01\x00\x00H\x02\x00\x00P\x02\x00\x00^\x01\x00\x00\xdd\x01\x00\x00\xab\x01\x00\x00\t\x02\x00\x00G\x02\x00\x00=\x01\x00\x00\x9a\x00\x00\x00\x8e\x01\x00\x00.\x01\x00\x007\x02\x00\x00\x0e\x02\x00\x00\x15\x01\x00\x00z\x01\x00\x00\x0c\x00\x00\x00\x82\x01\x00\x00\x80\x00\x00\x00\x0e\x01\x00\x00\x98\x01\x00\x00\xd4\x00\x00\x00\'\x01\x00\x00\xc9\x01\x00\x007\x01\x00\x00?\x02\x00\x00P\x01\x00\x00\x02\x01\x00\x00\x8b\x00\x00\x00V\x01\x00\x00\x13\x00\x00\x00\x8a\x00\x00\x00\x13\x01\x00\x00]\x01\x00\x00\xe9\x00\x00\x00$\x02\x00\x00\x17\x01\x00\x00%\x00\x00\x00?\x01\x00\x00L\x02\x00\x00B\x01\x00\x00O\x02\x00\x00\x1d\x01\x00\x00i\x01\x00\x00\xa3\x00\x00\x00s\x01\x00\x00I\x02\x00\x00\xfe\x01\x00\x00\xbe\x00\x00\x00\x03\x01\x00\x00#\x01\x00\x00=\x02\x00\x00\xd7\x01\x00\x00\xbb\x01\x00\x00\xb2\x00\x00\x00=\x00\x00\x00K\x02\x00\x00\xba\x00\x00\x00\xf4\x00\x00\x00G\x01\x00\x00\xc5\x00\x00\x00 \x02\x00\x00\x16\x00\x00\x00\xaa\x01\x00\x00\x14\x01\x00\x00\x83\x00\x00\x00\x07\x00\x00\x00\x82\x00\x00\x00\xb1\x01\x00\x00\xfa\x00\x00\x00<\x01\x00\x00f\x01\x00\x00\xd2\x01\x00\x00`\x00\x00\x00\x93\x01\x00\x00\xe3\x00\x00\x009\x00\x00\x00\xd5\x01\x00\x00\xd9\x00\x00\x00\x8c\x00\x00\x00\n\x01\x00\x00\r\x00\x00\x00\'\x00\x00\x00_\x01\x00\x00-\x00\x00\x00\xb2\x01\x00\x00>\x00\x00\x00\xf7\x01\x00\x00N\x00\x00\x00$\x01\x00\x00\x0b\x01\x00\x000\x01\x00\x00c\x00\x00\x00\xec\x00\x00\x00\xdf\x01\x00\x002\x02\x00\x003\x00\x00\x00\x9a\x01\x00\x00\xbd\x01\x00\x00\xd0\x01\x00\x00\xd0\x00\x00\x00A\x02\x00\x00\xb6\x01\x00\x00\xb0\x01\x00\x00\xbd\x00\x00\x00:\x02\x00\x00L\x00\x00\x005\x01\x00\x00I\x01\x00\x00O\x01\x00\x00K\x01\x00\x00\x06\x02\x00\x00\x06\x00\x00\x00i\x00\x00\x00\x94\x00\x00\x00\x19\x01\x00\x00F\x01\x00\x00\r\x02\x00\x00\xe5\x00\x00\x00D\x02\x00\x00\xf9\x00\x00\x00\xef\x00\x00\x00\xd3\x01\x00\x00r\x00\x00\x00\xe1\x01\x00\x00Y\x01\x00\x00.\x00\x00\x00&\x00\x00\x002\x00\x00\x00\x8c\x01\x00\x00\xf8\x00\x00\x00\xa8\x01\x00\x00u\x01\x00\x00\xda\x01\x00\x00w\x00\x00\x00\xfa\x01\x00\x00\xa0\x01\x00\x00\xc1\x01\x00\x00\xdd\x00\x00\x00\x93\x00\x00\x00k\x01\x00\x00\xcf\x01\x00\x00q\x00\x00\x00\x92\x00\x00\x00\xda\x00\x00\x00G\x00\x00\x00\x9d\x00\x00\x00m\x00\x00\x00\x91\x01\x00\x008\x00\x00\x00.\x02\x00\x00\xdc\x01\x00\x003\x02\x00\x00C\x00\x00\x00z\x00\x00\x00\x02\x00\x00\x00\xf9\x01\x00\x00\x14\x02\x00\x00\x83\x01\x00\x00\xed\x00\x00\x00\xa3\x01\x00\x00)\x00\x00\x00"\x01\x00\x00\x13\x02\x00\x00&\x01\x00\x00\x18\x02\x00\x00S\x00\x00\x00j\x00\x00\x00\xf6\x00\x00\x00O\x00\x00\x00\xb3\x00\x00\x00\xde\x00\x00\x00\xd3\x00\x00\x00\xf3\x00\x00\x00\xd2\x00\x00\x00\xfc\x01\x00\x00\x95\x00\x00\x00\x7f\x01\x00\x004\x02\x00\x00\xb8\x00\x00\x00R\x02\x00\x00\xca\x01\x00\x00%\x01\x00\x00\xb7\x00\x00\x00\x84\x01\x00\x00\x10\x01\x00\x00\x18\x01\x00\x00\xe6\x01\x00\x00\xf7\x00\x00\x00\t\x00\x00\x00\xbf\x00\x00\x00y\x00\x00\x00\xd8\x01\x00\x00\x17\x02\x00\x00\xaf\x00\x00\x00\x12\x01\x00\x00a\x01\x00\x00\xdb\x00\x00\x00\x1b\x00\x00\x00\xeb\x01\x00\x00Y\x00\x00\x00}\x00\x00\x00\x12\x00\x00\x00\xfd\x00\x00\x00J\x01\x00\x00e\x01\x00\x00\xff\x01\x00\x00\xf1\x00\x00\x00\xfe\x00\x00\x00\x1b\x02\x00\x00U\x01\x00\x002\x01\x00\x00\x8f\x01\x00\x00\xa4\x00\x00\x00\x9b\x01\x00\x005\x02\x00\x00~\x00\x00\x00R\x00\x00\x004\x01\x00\x00\xcb\x00\x00\x00Q\x01\x00\x00e\x00\x00\x00W\x01\x00\x00\x1f\x00\x00\x00E\x00\x00\x00+\x00\x00\x00\xf6\x01\x00\x00;\x01\x00\x00\r\x01\x00\x00@\x02\x00\x00D\x00\x00\x00V\x00\x00\x00\xe9\x01\x00\x00\xb9\x01\x00\x00\xc2\x00\x00\x00-\x02\x00\x00K\x00\x00\x00\xb9\x00\x00\x00v\x00\x00\x00p\x01\x00\x00\x9e\x01\x00\x00M\x02\x00\x00\xaa\x00\x00\x000\x00\x00\x00\xb6\x00\x00\x00\xa4\x01\x00\x00#\x02\x00\x00A\x01\x00\x00\xbc\x00\x00\x00\n\x00\x00\x00/\x02\x00\x00\xb4\x01\x00\x00\x18\x00\x00\x00\xa7\x01\x00\x00\x08\x02\x00\x00\xf5\x01\x00\x00\xc7\x01\x00\x00\xfc\x00\x00\x00\x1a\x02\x00\x00Z\x00\x00\x00\x04\x02\x00\x00\xf2\x00\x00\x00\x88\x01\x00\x00S\x02\x00\x00b\x01\x00\x00\x1e\x02\x00\x00p\x00\x00\x00\xad\x01\x00\x00\x05\x01\x00\x00\x9b\x00\x00\x00\xb3\x01\x00\x00\xad\x00\x00\x00\xc4\x00\x00\x00\xc7\x00\x00\x00\x0b\x00\x00\x00\x91\x00\x00\x00\xd7\x00\x00\x00\xdc\x00\x00\x00N\x02\x00\x00\xc6\x01\x00\x00]\x00\x00\x00\xdf\x00\x00\x00E\x01\x00\x00\xec\x01\x00\x00\x05\x00\x00\x00 \x00\x00\x00*\x01\x00\x008\x02\x00\x00\x00\x02\x00\x00>\x02\x00\x00\xe0\x00\x00\x00/\x00\x00\x00\x06\x01\x00\x00\x0f\x02\x00\x00\xd5\x00\x00\x00\x0c\x02\x00\x00\xa6\x00\x00\x00\xc6\x00\x00\x00\xed\x01\x00\x00\xf0\x01\x00\x00\x87\x00\x00\x00\x99\x01\x00\x00?\x00\x00\x008\x01\x00\x00q\x01\x00\x00\x15\x00\x00\x00j\x01\x00\x00\xe7\x01\x00\x00\x02\x02\x00\x00\x11\x01\x00\x00\x1d\x00\x00\x00\x1f\x01\x00\x00\n\x02\x00\x00\xdb\x01\x00\x003\x01\x00\x00\x11\x00\x00\x00\xd4\x01\x00\x00U\x02\x00\x00\'\x02\x00\x006\x00\x00\x006\x02\x00\x00\x17\x00\x00\x00\x8d\x01\x00\x00;\x00\x00\x001\x00\x00\x00\x97\x01\x00\x00(\x01\x00\x00o\x01\x00\x00#\x00\x00\x00\x15\x02\x00\x00\xa1\x01\x00\x00\x1c\x01\x00\x00<\x00\x00\x00[\x01\x00\x00\x0c\x01\x00\x00\xf5\x00\x00\x00\xe1\x00\x00\x00\xb0\x00\x00\x00\xd9\x01\x00\x00\xea\x00\x00\x00\x1a\x01\x00\x00M\x01\x00\x00\xe8\x00\x00\x00\xf8\x01\x00\x00\xfb\x00\x00\x00\xca\x00\x00\x00\x01\x01\x00\x00\x1c\x02\x00\x00\xa2\x01\x00\x00$\x00\x00\x00x\x01\x00\x00\x94\x01\x00\x00\\\x01\x00\x00~\x01\x00\x00\xcf\x00\x00\x00\xb5\x01\x00\x00\x81\x01\x00\x00x\x00\x00\x00\xc8\x00\x00\x00\xee\x00\x00\x00+\x01\x00\x00\xb1\x00\x00\x00@\x01\x00\x00\x1e\x01\x00\x00|\x00\x00\x00n\x00\x00\x00b\x00\x00\x00\\\x00\x00\x00\xce\x01\x00\x00d\x01\x00\x00\xa5\x00\x00\x00a\x00\x00\x00\x96\x01\x00\x00,\x02\x00\x00u\x00\x00\x00B\x02\x00\x00B\x00\x00\x00\x05\x02\x00\x000\x02\x00\x00\x89\x00\x00\x00(\x02\x00\x00{\x00\x00\x00\x84\x00\x00\x00\xa9\x00\x00\x00\xb4\x00\x00\x00V\x02\x00\x00\xd1\x00\x00\x00\x90\x00\x00\x00\xcb\x01\x00\x00\x11\x02\x00\x00\xf3\x01\x00\x00Q\x00\x00\x001\x02\x00\x00P\x00\x00\x00\xe8\x01\x00\x00\xae\x01\x00\x00J\x02\x00\x00c\x01\x00\x00\x07\x01\x00\x00\xcc\x01\x00\x00!\x02\x00\x00\x19\x02\x00\x00\x04\x01\x00\x00\x19\x00\x00\x00v\x01\x00\x00\x0f\x00\x00\x00h\x00\x00\x00\xe6\x00\x00\x00)\x02\x00\x00W\x00\x00\x00N\x01\x00\x00+\x02\x00\x00H\x00\x00\x00\x90\x01\x00\x009\x02\x00\x00\xc9\x00\x00\x00t\x00\x00\x00C\x01\x00\x00\x0e\x00\x00\x00r\x01\x00\x00\x8a\x01\x00\x00\x92\x01\x00\x00\xe4\x00\x00\x00\x9c\x01\x00\x00l\x01\x00\x00\xa0\x00\x00\x00>\x01\x00\x00\xff\x00\x00\x00\xf0\x00\x00\x00J\x00\x00\x00\xbc\x01\x00\x00\x86\x00\x00\x00g\x01\x00\x00\x9f\x00\x00\x00\xc0\x00\x00\x00!\x00\x00\x00\xde\x01\x00\x00 \x01\x00\x00\xa5\x01\x00\x00\x1b\x01\x00\x00\x03\x00\x00\x00n\x01\x00\x00\xf1\x01\x00\x00\x12\x02\x00\x001\x01\x00\x00\x1a\x00\x00\x00\xcd\x01\x00\x00\x08\x01\x00\x00\x1d\x02\x00\x00\xc4\x01\x00\x00*\x00\x00\x00:\x00\x00\x00\xd8\x00\x00\x00\x03\x02\x00\x00\xbe\x01\x00\x00\xa9\x01\x00\x00X\x01\x00\x00\x9e\x00\x00\x00-\x01\x00\x00\x1c\x00\x00\x00\x10\x02\x00\x00M\x00\x00\x00Z\x01\x00\x00"\x00\x00\x00\xf2\x01\x00\x00{\x01\x00\x00}\x01\x00\x00m\x01\x00\x00\x9d\x01\x00\x00\xd6\x00\x00\x00\xea\x01\x00\x007\x00\x00\x00I\x00\x00\x00\xd6\x01\x00\x00%\x02\x00\x00\x01\x00\x00\x00\xef\x01\x00\x00\xe2\x00\x00\x00\x97\x00\x00\x00\xc2\x01\x00\x00`\x01\x00\x00@\x00\x00\x00\x89\x01\x00\x00\xa1\x00\x00\x00f\x00\x00\x00\xc8\x01\x00\x00d\x00\x00\x00(\x00\x00\x00\x85\x01\x00\x00\xfd\x01\x00\x00\x0f\x01\x00\x00\xd1\x01\x00\x00E\x02\x00\x00\xe7\x00\x00\x00\xc1\x00\x00\x00_\x00\x00\x00\x16\x01\x00\x00T\x02\x00\x00)\x01\x00\x00&\x02\x00\x004\x00\x00\x00;\x02\x00\x00t\x01\x00\x00<\x02\x00\x00S\x01\x00\x00\xe3\x01\x00\x00\x88\x00\x00\x00\xb8\x01\x00\x00h\x01\x00\x00\x00\x00\x00\x00\xb5\x00\x00\x00Q\x02\x00\x00\xe4\x01\x00\x00\x95\x01\x00\x00\xae\x00\x00\x00\xa7\x00\x00\x00T\x00\x00\x00\x07\x02\x00\x00\x1e\x00\x00\x00\xfb\x01\x00\x00\xe5\x01\x00\x00\x10\x00\x00\x00|\x01\x00\x00\xc3\x00\x00\x00\x80\x01\x00\x009\x01\x00\x00\xcd\x00\x00\x00U\x00\x00\x00^\x00\x00\x00\t\x01\x00\x00\xbf\x01\x00\x00s\x00\x00\x00\xc3\x01\x00\x00\x86\x01\x00\x00\xce\x00\x00\x005\x00\x00\x00\xab\x00\x00\x00o\x00\x00\x00,\x01\x00\x00\x87\x01\x00\x00F\x02\x00\x00\xa2\x00\x00\x00\x16\x02\x00\x00g\x00\x00\x00l\x00\x00\x00\x9c\x00\x00\x00W\x02\x00\x00!\x01\x00\x00F\x00\x00\x00\xb7\x01\x00\x00\x8e\x00\x00\x00\xe2\x01\x00\x00\x9f\x01\x00\x00\x81\x00\x00\x00\xe0\x01\x00\x00\xac\x01\x00\x00\x14\x00\x00\x00\x85\x00\x00\x00\x8b\x01\x00\x00[\x00\x00\x00D\x01\x00\x00\xbb\x00\x00\x00\x04\x00\x00\x00\x98\x00\x00\x00\xee\x01\x00\x00X\x00\x00\x00R\x01\x00\x00\xcc\x00\x00\x00\x00\x01\x00\x00\x8d\x00\x00\x00'
tbsg73
I01
sg74
I1
sg75
I-1
sg76
(lp4625
I0
aI1
aI2
aI3
aI4
aI5
aI6
aI7
aI8
aI9
aI10
aI11
aI12
aI13
aI14
aI15
aI16
aI17
aI18
aI19
aI20
aI21
aI22
aI23
aI24
aI25
aI26
aI27
aI28
aI29
aI30
aI31
aI32
aI33
aI34
aI35
aI36
aI37
aI38
aI39
aI40
aI41
aI42
aI43
aI44
aI45
aI46
aI47
aI48
aI49
aI50
aI51
aI52
aI53
aI54
aI55
aI56
aI57
aI58
aI59
aI60
aI61
aI62
aI63
aI64
aI65
aI66
aI67
aI68
aI69
aI70
aI71
aI72
aI73
aI74
aI75
aI76
aI77
aI78
aI79
aI80
aI81
aI82
aI83
aI84
aI85
aI86
aI87
aI88
aI89
aI90
aI91
aI92
aI93
aI94
aI95
aI96
aI97
aI98
aI99
aI100
aI101
aI102
aI103
aI104
aI105
aI106
aI107
aI108
aI109
aI110
aI111
aI112
aI113
aI114
aI115
aI116
aI117
aI118
aI119
aI120
aI121
aI122
aI123
aI124
aI125
aI126
aI127
aI128
aI129
aI130
aI131
aI132
aI133
aI134
aI135
aI136
aI137
aI138
aI139
aI140
aI141
aI142
aI143
aI144
aI145
aI146
aI147
aI148
aI149
aI150
aI151
aI152
aI153
aI154
aI155
aI156
aI157
aI158
aI159
aI160
aI161
aI162
aI163
aI164
aI165
aI166
aI167
aI168
aI169
aI170
aI171
aI172
aI173
aI174
aI175
aI176
aI177
aI178
aI179
aI180
aI181
aI182
aI183
aI184
aI185
aI186
aI187
aI188
aI189
aI190
aI191
aI192
aI193
aI194
aI195
aI196
aI197
aI198
aI199
aI200
aI201
aI202
aI203
aI204
aI205
aI206
aI207
aI208
aI209
aI210
aI211
aI212
aI213
aI214
aI215
aI216
aI217
aI218
aI219
aI220
aI221
aI222
aI223
aI224
aI225
aI226
aI227
aI228
aI229
aI230
aI231
aI232
aI233
aI234
aI235
aI236
aI237
aI238
aI239
aI240
aI241
aI242
aI243
aI244
aI245
aI246
aI247
aI248
aI249
aI250
aI251
aI252
aI253
aI254
aI255
aI256
aI257
aI258
aI259
aI260
aI261
aI262
aI263
aI264
aI265
aI266
aI267
aI268
aI269
aI270
aI271
aI272
aI273
aI274
aI275
aI276
aI277
aI278
aI279
aI280
aI281
aI282
aI283
aI284
aI285
aI286
aI287
aI288
aI289
aI290
aI291
aI292
aI293
aI294
aI295
aI296
aI297
aI298
aI299
aI300
aI301
aI302
aI303
aI304
aI305
aI306
aI307
aI308
aI309
aI310
aI311
aI312
aI313
aI314
aI315
aI316
aI317
aI318
aI319
aI320
aI321
aI322
aI323
aI324
aI325
aI326
aI327
aI328
aI329
aI330
aI331
aI332
aI333
aI334
aI335
aI336
aI337
aI338
aI339
aI340
aI341
aI342
aI343
aI344
aI345
aI346
aI347
aI348
aI349
aI350
aI351
aI352
aI353
aI354
aI355
aI356
aI357
aI358
aI359
aI360
aI361
aI362
aI363
aI364
aI365
aI366
aI367
aI368
aI369
aI370
aI371
aI372
aI373
aI374
aI375
aI376
aI377
aI378
aI379
aI380
aI381
aI382
aI383
aI384
aI385
aI386
aI387
aI388
aI389
aI390
aI391
aI392
aI393
aI394
aI395
aI396
aI397
aI398
aI399
aI400
aI401
aI402
aI403
aI404
aI405
aI406
aI407
aI408
aI409
aI410
aI411
aI412
aI413
aI414
aI415
aI416
aI417
aI418
aI419
aI420
aI421
aI422
aI423
aI424
aI425
aI426
aI427
aI428
aI429
aI430
aI431
aI432
aI433
aI434
aI435
aI436
aI437
aI438
aI439
aI440
aI441
aI442
aI443
aI444
aI445
aI446
aI447
aI448
aI449
aI450
aI451
aI452
aI453
aI454
aI455
aI456
aI457
aI458
aI459
aI460
aI461
aI462
aI463
aI464
aI465
aI466
aI467
aI468
aI469
aI470
aI471
aI472
aI473
aI474
aI475
aI476
aI477
aI478
aI479
aI480
aI481
aI482
aI483
aI484
aI485
aI486
aI487
aI488
aI489
aI490
aI491
aI492
aI493
aI494
aI495
aI496
aI497
aI498
aI499
aI500
aI501
aI502
aI503
aI504
aI505
aI506
aI507
aI508
aI509
aI510
aI511
aI512
aI513
aI514
aI515
aI516
aI517
aI518
aI519
aI520
aI521
aI522
aI523
aI524
aI525
aI526
aI527
aI528
aI529
aI530
aI531
aI532
aI533
aI534
aI535
aI536
aI537
aI538
aI539
aI540
aI541
aI542
aI543
aI544
aI545
aI546
aI547
aI548
aI549
aI550
aI551
aI552
aI553
aI554
aI555
aI556
aI557
aI558
aI559
aI560
aI561
aI562
aI563
aI564
aI565
aI566
aI567
aI568
aI569
aI570
aI571
aI572
aI573
aI574
aI575
aI576
aI577
aI578
aI579
aI580
aI581
aI582
aI583
aI584
aI585
aI586
aI587
aI588
aI589
aI590
aI591
aI592
aI593
aI594
aI595
aI596
aI597
aI598
aI599
asg78
Nsg79
cnumpy.core.multiarray
scalar
p4626
(g4624
S'\x8d\x00\x00\x00'
tRp4627
sg80
I600
sg81
I0
sg82
I600
sg83
I01
sbag36
asS'savePickle'
p4628
I00
sb.