ccopy_reg
_reconstructor
p1
(cpsychopy.data
ExperimentHandler
p2
c__builtin__
object
p3
NtRp4
(dp5
S'originPath'
p6
NsS'dataFileName'
p7
Vsubject609
p8
sS'runtimeInfo'
p9
NsS'name'
p10
VVERBALRBsubject 609
p11
sS'dataNames'
p12
(lp13
S'Block Number'
p14
aS'Key pressed'
p15
aS'Category'
p16
aS'Correct?'
p17
aS'Int Match?'
p18
aS'Int Response'
p19
aS'Int Correct?'
p20
aS'Line Accuracy'
p21
aS'Interference Accuracy'
p22
aS'Matching Interferences'
p23
aS'New instruction shown?'
p24
aS'Buttons switched?'
p25
aS'Fast?'
p26
asS'autoLog'
p27
I01
sS'extraInfo'
p28
(dp29
S'gender'
p30
VF
sS'age'
p31
V21
p32
ssS'loopsUnfinished'
p33
(lp34
g1
(cpsychopy.data
TrialHandler
p35
g3
NtRp36
(dp37
S'origin'
p38
NsS'thisTrial'
p39
I10
sS'_exp'
p40
I169107600
sg10
S''
sg6
S'C:\\Users\\Mike\\Desktop\\Dual2\\NEWVerbalRB.py'
p41
sS'thisRepN'
p42
I54
sg27
I01
sg28
NsS'data'
p43
g1
(cpsychopy.data
DataHandler
p44
c__builtin__
dict
p45
(dp46
S'ran'
p47
cnumpy.ma.core
_mareconstruct
p48
(cnumpy.ma.core
MaskedArray
p49
cnumpy
ndarray
p50
(I0
tp51
S'b'
tRp52
(I1
(I11
I55
tcnumpy
dtype
p53
(S'f4'
I0
I1
tRp54
(I3
S'<'
NNNI-1
I-1
I0
tbI00
S'\x00\x00\x80?\x00\x00\x80?\x00\x00\x80?\x00\x00\x80?\x00\x00\x80?\x00\x00\x80?\x00\x00\x80?\x00\x00\x80?\x00\x00\x80?\x00\x00\x80?\x00\x00\x80?\x00\x00\x80?\x00\x00\x80?\x00\x00\x80?\x00\x00\x80?\x00\x00\x80?\x00\x00\x80?\x00\x00\x80?\x00\x00\x80?\x00\x00\x80?\x00\x00\x80?\x00\x00\x80?\x00\x00\x80?\x00\x00\x80?\x00\x00\x80?\x00\x00\x80?\x00\x00\x80?\x00\x00\x80?\x00\x00\x80?\x00\x00\x80?\x00\x00\x80?\x00\x00\x80?\x00\x00\x80?\x00\x00\x80?\x00\x00\x80?\x00\x00\x80?\x00\x00\x80?\x00\x00\x80?\x00\x00\x80?\x00\x00\x80?\x00\x00\x80?\x00\x00\x80?\x00\x00\x80?\x00\x00\x80?\x00\x00\x80?\x00\x00\x80?\x00\x00\x80?\x00\x00\x80?\x00\x00\x80?\x00\x00\x80?\x00\x00\x80?\x00\x00\x80?\x00\x00\x80?\x00\x00\x80?\x00\x00\x80?\x00\x00\x80?\x00\x00\x80?\x00\x00\x80?\x00\x00\x80?\x00\x00\x80?\x00\x00\x80?\x00\x00\x80?\x00\x00\x80?\x00\x00\x80?\x00\x00\x80?\x00\x00\x80?\x00\x00\x80?\x00\x00\x80?\x00\x00\x80?\x00\x00\x80?\x00\x00\x80?\x00\x00\x80?\x00\x00\x80?\x00\x00\x80?\x00\x00\x80?\x00\x00\x80?\x00\x00\x80?\x00\x00\x80?\x00\x00\x80?\x00\x00\x80?\x00\x00\x80?\x00\x00\x80?\x00\x00\x80?\x00\x00\x80?\x00\x00\x80?\x00\x00\x80?\x00\x00\x80?\x00\x00\x80?\x00\x00\x80?\x00\x00\x80?\x00\x00\x80?\x00\x00\x80?\x00\x00\x80?\x00\x00\x80?\x00\x00\x80?\x00\x00\x80?\x00\x00\x80?\x00\x00\x80?\x00\x00\x80?\x00\x00\x80?\x00\x00\x80?\x00\x00\x80?\x00\x00\x80?\x00\x00\x80?\x00\x00\x80?\x00\x00\x80?\x00\x00\x80?\x00\x00\x80?\x00\x00\x80?\x00\x00\x80?\x00\x00\x80?\x00\x00\x80?\x00\x00\x80?\x00\x00\x80?\x00\x00\x80?\x00\x00\x80?\x00\x00\x80?\x00\x00\x80?\x00\x00\x80?\x00\x00\x80?\x00\x00\x80?\x00\x00\x80?\x00\x00\x80?\x00\x00\x80?\x00\x00\x80?\x00\x00\x80?\x00\x00\x80?\x00\x00\x80?\x00\x00\x80?\x00\x00\x80?\x00\x00\x80?\x00\x00\x80?\x00\x00\x80?\x00\x00\x80?\x00\x00\x80?\x00\x00\x80?\x00\x00\x80?\x00\x00\x80?\x00\x00\x80?\x00\x00\x80?\x00\x00\x80?\x00\x00\x80?\x00\x00\x80?\x00\x00\x80?\x00\x00\x80?\x00\x00\x80?\x00\x00\x80?\x00\x00\x80?\x00\x00\x80?\x00\x00\x80?\x00\x00\x80?\x00\x00\x80?\x00\x00\x80?\x00\x00\x80?\x00\x00\x80?\x00\x00\x80?\x00\x00\x80?\x00\x00\x80?\x00\x00\x80?\x00\x00\x80?\x00\x00\x80?\x00\x00\x80?\x00\x00\x80?\x00\x00\x80?\x00\x00\x80?\x00\x00\x80?\x00\x00\x80?\x00\x00\x80?\x00\x00\x80?\x00\x00\x80?\x00\x00\x80?\x00\x00\x80?\x00\x00\x80?\x00\x00\x80?\x00\x00\x80?\x00\x00\x80?\x00\x00\x80?\x00\x00\x80?\x00\x00\x80?\x00\x00\x80?\x00\x00\x80?\x00\x00\x80?\x00\x00\x80?\x00\x00\x80?\x00\x00\x80?\x00\x00\x80?\x00\x00\x80?\x00\x00\x80?\x00\x00\x80?\x00\x00\x80?\x00\x00\x80?\x00\x00\x80?\x00\x00\x80?\x00\x00\x80?\x00\x00\x80?\x00\x00\x80?\x00\x00\x80?\x00\x00\x80?\x00\x00\x80?\x00\x00\x80?\x00\x00\x80?\x00\x00\x80?\x00\x00\x80?\x00\x00\x80?\x00\x00\x80?\x00\x00\x80?\x00\x00\x80?\x00\x00\x80?\x00\x00\x80?\x00\x00\x80?\x00\x00\x80?\x00\x00\x80?\x00\x00\x80?\x00\x00\x80?\x00\x00\x80?\x00\x00\x80?\x00\x00\x80?\x00\x00\x80?\x00\x00\x80?\x00\x00\x00\x00\x00\x00\x80?\x00\x00\x80?\x00\x00\x80?\x00\x00\x80?\x00\x00\x80?\x00\x00\x80?\x00\x00\x80?\x00\x00\x80?\x00\x00\x80?\x00\x00\x80?\x00\x00\x80?\x00\x00\x80?\x00\x00\x80?\x00\x00\x80?\x00\x00\x80?\x00\x00\x80?\x00\x00\x80?\x00\x00\x80?\x00\x00\x80?\x00\x00\x80?\x00\x00\x80?\x00\x00\x80?\x00\x00\x80?\x00\x00\x80?\x00\x00\x80?\x00\x00\x80?\x00\x00\x80?\x00\x00\x80?\x00\x00\x80?\x00\x00\x80?\x00\x00\x80?\x00\x00\x80?\x00\x00\x80?\x00\x00\x80?\x00\x00\x80?\x00\x00\x80?\x00\x00\x80?\x00\x00\x80?\x00\x00\x80?\x00\x00\x80?\x00\x00\x80?\x00\x00\x80?\x00\x00\x80?\x00\x00\x80?\x00\x00\x80?\x00\x00\x80?\x00\x00\x80?\x00\x00\x80?\x00\x00\x80?\x00\x00\x80?\x00\x00\x80?\x00\x00\x80?\x00\x00\x80?\x00\x00\x80?\x00\x00\x00\x00\x00\x00\x80?\x00\x00\x80?\x00\x00\x80?\x00\x00\x80?\x00\x00\x80?\x00\x00\x80?\x00\x00\x80?\x00\x00\x80?\x00\x00\x80?\x00\x00\x80?\x00\x00\x80?\x00\x00\x80?\x00\x00\x80?\x00\x00\x80?\x00\x00\x80?\x00\x00\x80?\x00\x00\x80?\x00\x00\x80?\x00\x00\x80?\x00\x00\x80?\x00\x00\x80?\x00\x00\x80?\x00\x00\x80?\x00\x00\x80?\x00\x00\x80?\x00\x00\x80?\x00\x00\x80?\x00\x00\x80?\x00\x00\x80?\x00\x00\x80?\x00\x00\x80?\x00\x00\x80?\x00\x00\x80?\x00\x00\x80?\x00\x00\x80?\x00\x00\x80?\x00\x00\x80?\x00\x00\x80?\x00\x00\x80?\x00\x00\x80?\x00\x00\x80?\x00\x00\x80?\x00\x00\x80?\x00\x00\x80?\x00\x00\x80?\x00\x00\x80?\x00\x00\x80?\x00\x00\x80?\x00\x00\x80?\x00\x00\x80?\x00\x00\x80?\x00\x00\x80?\x00\x00\x80?\x00\x00\x00\x00\x00\x00\x00\x00\x00\x00\x80?\x00\x00\x80?\x00\x00\x80?\x00\x00\x80?\x00\x00\x80?\x00\x00\x80?\x00\x00\x80?\x00\x00\x80?\x00\x00\x80?\x00\x00\x80?\x00\x00\x80?\x00\x00\x80?\x00\x00\x80?\x00\x00\x80?\x00\x00\x80?\x00\x00\x80?\x00\x00\x80?\x00\x00\x80?\x00\x00\x80?\x00\x00\x80?\x00\x00\x80?\x00\x00\x80?\x00\x00\x80?\x00\x00\x80?\x00\x00\x80?\x00\x00\x80?\x00\x00\x80?\x00\x00\x80?\x00\x00\x80?\x00\x00\x80?\x00\x00\x80?\x00\x00\x80?\x00\x00\x80?\x00\x00\x80?\x00\x00\x80?\x00\x00\x80?\x00\x00\x80?\x00\x00\x80?\x00\x00\x80?\x00\x00\x80?\x00\x00\x80?\x00\x00\x80?\x00\x00\x80?\x00\x00\x80?\x00\x00\x80?\x00\x00\x80?\x00\x00\x80?\x00\x00\x80?\x00\x00\x80?\x00\x00\x80?\x00\x00\x80?\x00\x00\x80?\x00\x00\x80?\x00\x00\x80?\x00\x00\x80?\x00\x00\x80?\x00\x00\x80?\x00\x00\x80?\x00\x00\x80?\x00\x00\x80?\x00\x00\x80?\x00\x00\x80?\x00\x00\x80?\x00\x00\x80?\x00\x00\x80?\x00\x00\x80?\x00\x00\x80?\x00\x00\x80?\x00\x00\x80?\x00\x00\x80?\x00\x00\x80?\x00\x00\x80?\x00\x00\x80?\x00\x00\x80?\x00\x00\x80?\x00\x00\x80?\x00\x00\x80?\x00\x00\x80?\x00\x00\x80?\x00\x00\x80?\x00\x00\x80?\x00\x00\x80?\x00\x00\x80?\x00\x00\x80?\x00\x00\x80?\x00\x00\x80?\x00\x00\x80?\x00\x00\x80?\x00\x00\x80?\x00\x00\x80?\x00\x00\x80?\x00\x00\x80?\x00\x00\x80?\x00\x00\x80?\x00\x00\x80?\x00\x00\x80?\x00\x00\x80?\x00\x00\x80?\x00\x00\x80?\x00\x00\x80?\x00\x00\x80?\x00\x00\x80?\x00\x00\x80?\x00\x00\x80?\x00\x00\x80?\x00\x00\x80?\x00\x00\x80?\x00\x00\x80?\x00\x00\x80?\x00\x00\x80?\x00\x00\x80?\x00\x00\x80?\x00\x00\x80?\x00\x00\x80?\x00\x00\x80?\x00\x00\x80?\x00\x00\x80?\x00\x00\x80?\x00\x00\x80?\x00\x00\x80?\x00\x00\x80?\x00\x00\x80?\x00\x00\x80?\x00\x00\x80?\x00\x00\x80?\x00\x00\x80?\x00\x00\x80?\x00\x00\x80?\x00\x00\x80?\x00\x00\x80?\x00\x00\x80?\x00\x00\x80?\x00\x00\x80?\x00\x00\x80?\x00\x00\x80?\x00\x00\x80?\x00\x00\x80?\x00\x00\x80?\x00\x00\x80?\x00\x00\x80?\x00\x00\x80?\x00\x00\x80?\x00\x00\x80?\x00\x00\x80?\x00\x00\x80?\x00\x00\x80?\x00\x00\x80?\x00\x00\x80?\x00\x00\x80?\x00\x00\x80?\x00\x00\x80?\x00\x00\x80?\x00\x00\x80?\x00\x00\x80?\x00\x00\x80?\x00\x00\x80?\x00\x00\x80?\x00\x00\x80?\x00\x00\x80?\x00\x00\x80?\x00\x00\x80?\x00\x00\x80?\x00\x00\x80?\x00\x00\x80?\x00\x00\x80?\x00\x00\x80?\x00\x00\x80?\x00\x00\x80?\x00\x00\x80?\x00\x00\x80?\x00\x00\x80?\x00\x00\x80?\x00\x00\x80?\x00\x00\x80?\x00\x00\x80?\x00\x00\x80?\x00\x00\x80?\x00\x00\x80?\x00\x00\x80?\x00\x00\x80?\x00\x00\x80?\x00\x00\x80?\x00\x00\x80?\x00\x00\x80?\x00\x00\x80?\x00\x00\x80?\x00\x00\x80?\x00\x00\x80?\x00\x00\x80?\x00\x00\x80?\x00\x00\x80?\x00\x00\x80?\x00\x00\x80?\x00\x00\x80?\x00\x00\x80?\x00\x00\x80?\x00\x00\x80?\x00\x00\x80?\x00\x00\x80?\x00\x00\x80?\x00\x00\x80?\x00\x00\x80?\x00\x00\x80?\x00\x00\x80?\x00\x00\x80?\x00\x00\x80?\x00\x00\x80?\x00\x00\x80?\x00\x00\x80?\x00\x00\x80?\x00\x00\x80?\x00\x00\x80?\x00\x00\x80?\x00\x00\x80?\x00\x00\x80?\x00\x00\x80?\x00\x00\x80?\x00\x00\x80?\x00\x00\x80?\x00\x00\x80?\x00\x00\x80?\x00\x00\x80?\x00\x00\x80?\x00\x00\x80?\x00\x00\x80?\x00\x00\x80?\x00\x00\x80?\x00\x00\x80?\x00\x00\x80?\x00\x00\x80?\x00\x00\x80?\x00\x00\x80?\x00\x00\x80?\x00\x00\x80?\x00\x00\x80?\x00\x00\x80?\x00\x00\x80?\x00\x00\x80?\x00\x00\x80?\x00\x00\x80?\x00\x00\x80?\x00\x00\x80?\x00\x00\x80?\x00\x00\x80?\x00\x00\x80?\x00\x00\x80?\x00\x00\x80?\x00\x00\x80?\x00\x00\x80?\x00\x00\x80?\x00\x00\x80?\x00\x00\x80?\x00\x00\x80?\x00\x00\x80?\x00\x00\x80?\x00\x00\x80?\x00\x00\x80?\x00\x00\x80?\x00\x00\x80?\x00\x00\x80?\x00\x00\x80?\x00\x00\x80?\x00\x00\x80?\x00\x00\x80?\x00\x00\x80?\x00\x00\x80?\x00\x00\x80?\x00\x00\x80?\x00\x00\x80?\x00\x00\x80?\x00\x00\x80?\x00\x00\x80?\x00\x00\x80?\x00\x00\x80?\x00\x00\x00\x00'
S'\x00\x00\x00\x00\x00\x00\x00\x00\x00\x00\x00\x00\x00\x00\x00\x00\x00\x00\x00\x00\x00\x00\x00\x00\x00\x00\x00\x00\x00\x00\x00\x00\x00\x00\x00\x00\x00\x00\x00\x00\x00\x00\x00\x00\x00\x00\x00\x00\x00\x00\x00\x00\x00\x00\x00\x00\x00\x00\x00\x00\x00\x00\x00\x00\x00\x00\x00\x00\x00\x00\x00\x00\x00\x00\x00\x00\x00\x00\x00\x00\x00\x00\x00\x00\x00\x00\x00\x00\x00\x00\x00\x00\x00\x00\x00\x00\x00\x00\x00\x00\x00\x00\x00\x00\x00\x00\x00\x00\x00\x00\x00\x00\x00\x00\x00\x00\x00\x00\x00\x00\x00\x00\x00\x00\x00\x00\x00\x00\x00\x00\x00\x00\x00\x00\x00\x00\x00\x00\x00\x00\x00\x00\x00\x00\x00\x00\x00\x00\x00\x00\x00\x00\x00\x00\x00\x00\x00\x00\x00\x00\x00\x00\x00\x00\x00\x00\x00\x00\x00\x00\x00\x00\x00\x00\x00\x00\x00\x00\x00\x00\x00\x00\x00\x00\x00\x00\x00\x00\x00\x00\x00\x00\x00\x00\x00\x00\x00\x00\x00\x00\x00\x00\x00\x00\x00\x00\x00\x00\x00\x00\x00\x00\x00\x00\x00\x00\x00\x00\x00\x00\x00\x00\x00\x00\x00\x00\x00\x00\x00\x00\x00\x00\x00\x00\x00\x00\x00\x00\x00\x00\x00\x00\x00\x00\x00\x00\x00\x00\x00\x00\x00\x00\x00\x00\x00\x00\x00\x00\x00\x00\x00\x00\x00\x00\x00\x00\x00\x00\x00\x00\x00\x00\x00\x00\x00\x00\x00\x00\x00\x00\x00\x00\x00\x00\x00\x00\x00\x00\x00\x00\x00\x00\x00\x00\x00\x00\x00\x00\x00\x00\x00\x00\x00\x00\x00\x00\x00\x00\x00\x00\x00\x00\x00\x00\x00\x00\x00\x00\x00\x00\x00\x00\x00\x00\x00\x00\x00\x00\x00\x00\x00\x00\x00\x00\x00\x00\x00\x00\x00\x00\x00\x00\x00\x00\x00\x00\x00\x00\x00\x00\x00\x00\x00\x00\x00\x00\x00\x00\x00\x00\x00\x00\x00\x00\x00\x00\x00\x00\x00\x00\x00\x00\x00\x00\x00\x00\x00\x00\x00\x00\x00\x00\x00\x00\x00\x00\x00\x00\x00\x00\x00\x00\x00\x00\x00\x00\x00\x00\x00\x00\x00\x00\x00\x00\x00\x00\x00\x00\x00\x00\x00\x00\x00\x00\x00\x00\x00\x00\x00\x00\x00\x00\x00\x00\x00\x00\x00\x00\x00\x00\x00\x00\x00\x00\x00\x00\x00\x00\x00\x00\x00\x00\x00\x00\x00\x00\x00\x00\x00\x00\x00\x00\x00\x00\x00\x00\x00\x00\x00\x00\x00\x00\x00\x00\x00\x00\x00\x00\x00\x00\x00\x00\x00\x00\x00\x00\x00\x00\x00\x00\x00\x00\x00\x00\x00\x00\x00\x00\x00\x00\x00\x00\x00\x00\x00\x00\x00\x00\x00\x00\x00\x00\x00\x00\x00\x00\x00\x00\x00\x00\x00\x00\x00\x00\x00\x00\x00\x00\x00\x00\x00\x00\x00\x00\x00\x00\x00\x00\x00\x00\x00\x00\x00\x00\x00\x00\x00\x00\x00\x00\x00\x00\x00\x00\x00\x00\x00\x00\x00\x00\x00\x00\x00\x00\x00\x00\x00\x00\x00\x00\x00\x00\x00\x00\x00\x00\x00\x00\x00\x00\x00\x00\x00\x00\x00\x00\x00\x00\x00\x00\x00\x00\x00\x00\x00\x00\x00\x00\x00\x00\x00\x00\x00\x00\x00\x00\x00\x00\x00\x00\x00\x00\x00\x00\x00'
NtbsS'order'
p55
g48
(g49
g50
g51
S'b'
tRp56
(I1
(I11
I55
tg54
I00
S'\x00\x00\xc0@\x00\x00\x80A\x00\x00\x88A\x00\x00\x90A\x00\x00\xf8A\x00\x00\x14B\x00\x00\x18B\x00\x00$B\x00\x00DB\x00\x00lB\x00\x00\x9eB\x00\x00\xc0B\x00\x00\xceB\x00\x00\xdeB\x00\x00\x00C\x00\x00\nC\x00\x00$C\x00\x00.C\x00\x000C\x00\x009C\x00\x00HC\x00\x00OC\x00\x00RC\x00\x00WC\x00\x80\x87C\x00\x00\x89C\x00\x80\x93C\x00\x80\x96C\x00\x00\x97C\x00\x00\x9aC\x00\x80\xa0C\x00\x80\xabC\x00\x00\xb1C\x00\x00\xb2C\x00\x00\xb9C\x00\x00\xbcC\x00\x80\xc1C\x00\x80\xc3C\x00\x00\xc4C\x00\x80\xd3C\x00\x00\xe0C\x00\x80\xe1C\x00\x00\xe5C\x00\x80\xf3C\x00\x00\xf6C\x00\x80\xf9C\x00\x80\x01D\x00\x80\x04D\x00\x80\x07D\x00\xc0\nD\x00\x00\x0bD\x00@\x0cD\x00@\x10D\x00\x80\x13D\x00\x80\x14D\x00\x00\xe8A\x00\x00\x00B\x00\x00LB\x00\x00TB\x00\x00dB\x00\x00|B\x00\x00\x8eB\x00\x00\xa2B\x00\x00\xa6B\x00\x00\xcaB\x00\x00\xccB\x00\x00\xd6B\x00\x00\xe8B\x00\x00\xf4B\x00\x00\x02C\x00\x00FC\x00\x00GC\x00\x00QC\x00\x00VC\x00\x00gC\x00\x00nC\x00\x00vC\x00\x00}C\x00\x80\x84C\x00\x80\x89C\x00\x00\x8cC\x00\x00\x8fC\x00\x00\x99C\x00\x80\x9fC\x00\x80\xa4C\x00\x80\xa5C\x00\x80\xb0C\x00\x80\xc0C\x00\x00\xc5C\x00\x00\xc7C\x00\x80\xc8C\x00\x00\xcaC\x00\x80\xd1C\x00\x00\xd4C\x00\x00\xd9C\x00\x00\xdcC\x00\x80\xe5C\x00\x00\xe6C\x00\x00\xeaC\x00\x00\xf2C\x00\x80\xf2C\x00\x80\xf7C\x00\x80\xfdC\x00\x80\xfeC\x00\x80\x00D\x00@\x03D\x00\x80\x05D\x00\x00\nD\x00\x80\x0bD\x00@\x12D\x00\x00PA\x00\x00\x98A\x00\x00\xa8A\x00\x00\xd8A\x00\x00\x1cB\x00\x00XB\x00\x00\x8cB\x00\x00\x90B\x00\x00\x98B\x00\x00\xdaB\x00\x00\x03C\x00\x00\x11C\x00\x00\x14C\x00\x00\x1cC\x00\x00;C\x00\x00AC\x00\x00SC\x00\x00[C\x00\x00iC\x00\x00oC\x00\x00\x85C\x00\x00\x8bC\x00\x80\x97C\x00\x80\x99C\x00\x80\x9bC\x00\x80\x9eC\x00\x00\x9fC\x00\x00\xa4C\x00\x00\xb0C\x00\x00\xb6C\x00\x80\xbaC\x00\x80\xc9C\x00\x00\xcdC\x00\x00\xceC\x00\x00\xd2C\x00\x00\xd6C\x00\x80\xd8C\x00\x80\xd9C\x00\x80\xdbC\x00\x00\xddC\x00\x80\xe2C\x00\x80\xebC\x00\x80\xedC\x00\x80\xf5C\x00\x80\xf8C\x00@\x02D\x00\x00\x04D\x00@\x04D\x00\xc0\x07D\x00@\nD\x00\x80\rD\x00\x00\x10D\x00\x80\x11D\x00\x00\x13D\x00\xc0\x14D\x00\x00\xc8A\x00\x00\xd0A\x00\x00\xe0A\x00\x00\x08B\x00\x00@B\x00\x00hB\x00\x00xB\x00\x00\x92B\x00\x00\x9aB\x00\x00\xc8B\x00\x00\xd0B\x00\x00\xfaB\x00\x00\x10C\x00\x00\x1bC\x00\x00/C\x00\x00:C\x00\x00>C\x00\x00MC\x00\x00TC\x00\x00YC\x00\x00kC\x00\x00{C\x00\x80\x83C\x00\x80\x8bC\x00\x80\x91C\x00\x00\x96C\x00\x00\x98C\x00\x00\x9cC\x00\x00\x9eC\x00\x00\xaaC\x00\x00\xabC\x00\x00\xafC\x00\x80\xbeC\x00\x00\xc3C\x00\x00\xc9C\x00\x00\xcbC\x00\x80\xdcC\x00\x00\xe4C\x00\x80\xe4C\x00\x80\xe9C\x00\x00\xebC\x00\x00\xfdC\x00@\x00D\x00\x80\x03D\x00\x00\x05D\x00@\x05D\x00@\x06D\x00\x80\x06D\x00\xc0\x0bD\x00\x00\x0eD\x00\x80\x0eD\x00\x00\x0fD\x00\xc0\x11D\x00\x80\x12D\x00\x00\x00\x00\x00\x00\x00\x00\x00\x00\xa0@\x00\x00@A\x00\x00\xc0A\x00\x00\x04B\x00\x00tB\x00\x00\x88B\x00\x00\xa8B\x00\x00\xbaB\x00\x00\xd2B\x00\x00\xf2B\x00\x00\xf6B\x00\x00\x0cC\x00\x00\x16C\x00\x00\x1aC\x00\x00\x1dC\x00\x00\x1eC\x00\x00%C\x00\x00+C\x00\x00-C\x00\x00<C\x00\x00?C\x00\x00NC\x00\x00ZC\x00\x00^C\x00\x00yC\x00\x00|C\x00\x00~C\x00\x80\x81C\x00\x00\x87C\x00\x00\x94C\x00\x80\x94C\x00\x00\x9bC\x00\x00\xadC\x00\x00\xb8C\x00\x80\xbbC\x00\x80\xbcC\x00\x00\xc0C\x00\x00\xc2C\x00\x00\xd3C\x00\x80\xd4C\x00\x00\xdbC\x00\x00\xdeC\x00\x80\xe8C\x00\x00\xefC\x00\x80\xf0C\x00\x00\xf9C\x00\x00\xfaC\x00\x80\xfaC\x00\x00\xfbC\x00\x00\x02D\x00\x80\x10D\x00\xc0\x10D\x00\x00\x12D\x00\x00\x00\x00\x00\x00pA\x00\x00\x0cB\x00\x004B\x00\x00\x82B\x00\x00\xa0B\x00\x00\xaaB\x00\x00\xacB\x00\x00\xb4B\x00\x00\xc2B\x00\x00\xc6B\x00\x00(C\x00\x001C\x00\x00BC\x00\x00CC\x00\x00EC\x00\x00XC\x00\x00cC\x00\x00\x7fC\x00\x80\x85C\x00\x00\x95C\x00\x80\x98C\x00\x00\xa3C\x00\x00\xacC\x00\x80\xadC\x00\x80\xb3C\x00\x80\xb4C\x00\x80\xb6C\x00\x00\xb7C\x00\x00\xbaC\x00\x00\xbdC\x00\x00\xbfC\x00\x80\xc2C\x00\x80\xc7C\x00\x80\xceC\x00\x00\xcfC\x00\x80\xd0C\x00\x80\xddC\x00\x00\xe1C\x00\x00\xe2C\x00\x00\xe3C\x00\x00\xe7C\x00\x00\xe9C\x00\x80\xf1C\x00\x80\xfcC\x00\x00\xfeC\x00\xc0\x01D\x00\x80\x02D\x00\x80\x08D\x00\xc0\x08D\x00\x80\nD\x00\x00\x11D\x00@\x13D\x00@\x15D\x00\x00\x00\x00\x00\x00\x00\x00\x00\x00\x80?\x00\x00\xe0@\x00\x00\x00A\x00\x000A\x00\x00\x94B\x00\x00\xbcB\x00\x00\xeaB\x00\x00\xecB\x00\x00\xeeB\x00\x00\xfeB\x00\x00\x07C\x00\x00\x08C\x00\x00\tC\x00\x00\rC\x00\x00\x17C\x00\x004C\x00\x006C\x00\x007C\x00\x00@C\x00\x00DC\x00\x00LC\x00\x00PC\x00\x00eC\x00\x00hC\x00\x00pC\x00\x00xC\x00\x00\x81C\x00\x00\x82C\x00\x00\x8eC\x00\x80\x95C\x00\x80\x9cC\x00\x80\x9dC\x00\x00\xa1C\x00\x00\xa2C\x00\x80\xa2C\x00\x80\xa6C\x00\x00\xa9C\x00\x80\xacC\x00\x80\xaeC\x00\x80\xb5C\x00\x00\xbbC\x00\x80\xc6C\x00\x00\xd0C\x00\x00\xd1C\x00\x80\xd2C\x00\x00\xd5C\x00\x80\xd7C\x00\x80\xe0C\x00\x80\xeeC\x00\x00\xf3C\x00\x80\xf4C\x00\x00\x03D\x00\xc0\x03D\x00\xc0\x06D\x00@\tD\x00\x00 B\x00\x00(B\x00\x00pB\x00\x00\x96B\x00\x00\xb2B\x00\x00\xbeB\x00\x00\xd4B\x00\x00\xe2B\x00\x00\xe4B\x00\x00\xf8B\x00\x00\x06C\x00\x00\x0fC\x00\x00\x15C\x00\x00\x19C\x00\x00 C\x00\x00!C\x00\x00&C\x00\x00)C\x00\x00,C\x00\x002C\x00\x003C\x00\x005C\x00\x00`C\x00\x00bC\x00\x00lC\x00\x00uC\x00\x00\x83C\x00\x00\x86C\x00\x80\x8dC\x00\x80\x8eC\x00\x00\x9dC\x00\x00\xa6C\x00\x80\xa7C\x00\x80\xa9C\x00\x80\xaaC\x00\x00\xb5C\x00\x80\xd6C\x00\x80\xdfC\x00\x80\xe3C\x00\x00\xecC\x00\x00\xedC\x00\x80\xefC\x00\x00\xf0C\x00\x00\xf4C\x00\x00\xf5C\x00\x80\xf6C\x00\x80\xfbC\x00\x80\xffC\x00\x00\x01D\x00@\x08D\x00\x80\tD\x00\x80\x0cD\x00\xc0\x0cD\x00@\x0eD\x00\xc0\x13D\x00\x00\x00@\x00\x00@@\x00\x00\x80@\x00\x00\x10A\x00\x00 A\x00\x00\xa0A\x00\x00\xb0A\x00\x00\x10B\x00\x00`B\x00\x00\x84B\x00\x00\x86B\x00\x00\x9cB\x00\x00\xaeB\x00\x00\xb0B\x00\x00\xb6B\x00\x00\xb8B\x00\x00\xd8B\x00\x00\xe0B\x00\x00\xe6B\x00\x00\xf0B\x00\x00\x0bC\x00\x00\x0eC\x00\x00"C\x00\x00IC\x00\x00qC\x00\x00sC\x00\x80\x80C\x00\x80\x82C\x00\x80\x88C\x00\x80\x8aC\x00\x80\x8fC\x00\x80\x9aC\x00\x80\xa3C\x00\x00\xa5C\x00\x80\xb1C\x00\x80\xb8C\x00\x80\xbdC\x00\x00\xc8C\x00\x80\xcaC\x00\x00\xd7C\x00\x80\xeaC\x00\x00\xeeC\x00\x00\xfcC\x00\xc0\x00D\x00\xc0\x02D\x00\xc0\x05D\x00@\x07D\x00\x00\x0cD\x00\x00\rD\x00@\rD\x00@\x0fD\x00\xc0\x0fD\x00\x00\x14D\x00@\x14D\x00\x00\x15D\x00\x00`A\x00\x008B\x00\x00HB\x00\x00PB\x00\x00\x8aB\x00\x00\xdcB\x00\x00\xfcB\x00\x00\x12C\x00\x00\x1fC\x00\x00*C\x00\x00JC\x00\x00KC\x00\x00UC\x00\x00\\C\x00\x00]C\x00\x00_C\x00\x00dC\x00\x00fC\x00\x00mC\x00\x00tC\x00\x00wC\x00\x00\x84C\x00\x00\x88C\x00\x00\x8aC\x00\x80\x8cC\x00\x00\x8dC\x00\x80\x90C\x00\x80\x92C\x00\x00\xa0C\x00\x00\xa7C\x00\x00\xaeC\x00\x80\xafC\x00\x80\xb2C\x00\x00\xb3C\x00\x00\xb4C\x00\x80\xb7C\x00\x80\xb9C\x00\x00\xbeC\x00\x80\xc4C\x00\x80\xc5C\x00\x00\xc6C\x00\x00\xccC\x00\x80\xdaC\x00\x80\xdeC\x00\x80\xe6C\x00\x80\xe7C\x00\x00\xe8C\x00\x00\xf1C\x00\x00\xf7C\x00\x00\xf8C\x00\x00\x06D\x00\x00\x07D\x00\x00\x08D\x00\x00\tD\x00\x80\x15D\x00\x00\xb8A\x00\x00\xf0A\x00\x00,B\x00\x000B\x00\x00<B\x00\x00\\B\x00\x00\x80B\x00\x00\xa4B\x00\x00\xc4B\x00\x00\x01C\x00\x00\x04C\x00\x00\x05C\x00\x00\x13C\x00\x00\x18C\x00\x00#C\x00\x00\'C\x00\x008C\x00\x00=C\x00\x00aC\x00\x00jC\x00\x00rC\x00\x00zC\x00\x00\x80C\x00\x80\x86C\x00\x00\x90C\x00\x00\x91C\x00\x00\x92C\x00\x00\x93C\x00\x80\xa1C\x00\x00\xa8C\x00\x80\xa8C\x00\x80\xbfC\x00\x00\xc1C\x00\x80\xcbC\x00\x80\xccC\x00\x80\xcdC\x00\x80\xcfC\x00\x80\xd5C\x00\x00\xd8C\x00\x00\xdaC\x00\x00\xdfC\x00\x80\xecC\x00\x00\xffC\x00\x00\x00D\x00@\x01D\x00\xc0\x04D\x00\xc0\tD\x00@\x0bD\x00\xc0\rD\x00\xc0\x0eD\x00\x80\x0fD\x00@\x11D\x00\xc0\x12D\x00\xc0\x15D\x00\x00\x00\x00'
S'\x00\x00\x00\x00\x00\x00\x00\x00\x00\x00\x00\x00\x00\x00\x00\x00\x00\x00\x00\x00\x00\x00\x00\x00\x00\x00\x00\x00\x00\x00\x00\x00\x00\x00\x00\x00\x00\x00\x00\x00\x00\x00\x00\x00\x00\x00\x00\x00\x00\x00\x00\x00\x00\x00\x00\x00\x00\x00\x00\x00\x00\x00\x00\x00\x00\x00\x00\x00\x00\x00\x00\x00\x00\x00\x00\x00\x00\x00\x00\x00\x00\x00\x00\x00\x00\x00\x00\x00\x00\x00\x00\x00\x00\x00\x00\x00\x00\x00\x00\x00\x00\x00\x00\x00\x00\x00\x00\x00\x00\x00\x00\x00\x00\x00\x00\x00\x00\x00\x00\x00\x00\x00\x00\x00\x00\x00\x00\x00\x00\x00\x00\x00\x00\x00\x00\x00\x00\x00\x00\x00\x00\x00\x00\x00\x00\x00\x00\x00\x00\x00\x00\x00\x00\x00\x00\x00\x00\x00\x00\x00\x00\x00\x00\x00\x00\x00\x00\x00\x00\x00\x00\x00\x00\x00\x00\x00\x00\x00\x00\x00\x00\x00\x00\x00\x00\x00\x00\x00\x00\x00\x00\x00\x00\x00\x00\x00\x00\x00\x00\x00\x00\x00\x00\x00\x00\x00\x00\x00\x00\x00\x00\x00\x00\x00\x00\x00\x00\x00\x00\x01\x00\x00\x00\x00\x00\x00\x00\x00\x00\x00\x00\x00\x00\x00\x00\x00\x00\x00\x00\x00\x00\x00\x00\x00\x00\x00\x00\x00\x00\x00\x00\x00\x00\x00\x00\x00\x00\x00\x00\x00\x00\x00\x00\x00\x00\x00\x00\x00\x00\x00\x00\x00\x00\x00\x01\x00\x00\x00\x00\x00\x00\x00\x00\x00\x00\x00\x00\x00\x00\x00\x00\x00\x00\x00\x00\x00\x00\x00\x00\x00\x00\x00\x00\x00\x00\x00\x00\x00\x00\x00\x00\x00\x00\x00\x00\x00\x00\x00\x00\x00\x00\x00\x00\x00\x00\x00\x00\x00\x01\x01\x00\x00\x00\x00\x00\x00\x00\x00\x00\x00\x00\x00\x00\x00\x00\x00\x00\x00\x00\x00\x00\x00\x00\x00\x00\x00\x00\x00\x00\x00\x00\x00\x00\x00\x00\x00\x00\x00\x00\x00\x00\x00\x00\x00\x00\x00\x00\x00\x00\x00\x00\x00\x00\x00\x00\x00\x00\x00\x00\x00\x00\x00\x00\x00\x00\x00\x00\x00\x00\x00\x00\x00\x00\x00\x00\x00\x00\x00\x00\x00\x00\x00\x00\x00\x00\x00\x00\x00\x00\x00\x00\x00\x00\x00\x00\x00\x00\x00\x00\x00\x00\x00\x00\x00\x00\x00\x00\x00\x00\x00\x00\x00\x00\x00\x00\x00\x00\x00\x00\x00\x00\x00\x00\x00\x00\x00\x00\x00\x00\x00\x00\x00\x00\x00\x00\x00\x00\x00\x00\x00\x00\x00\x00\x00\x00\x00\x00\x00\x00\x00\x00\x00\x00\x00\x00\x00\x00\x00\x00\x00\x00\x00\x00\x00\x00\x00\x00\x00\x00\x00\x00\x00\x00\x00\x00\x00\x00\x00\x00\x00\x00\x00\x00\x00\x00\x00\x00\x00\x00\x00\x00\x00\x00\x00\x00\x00\x00\x00\x00\x00\x00\x00\x00\x00\x00\x00\x00\x00\x00\x00\x00\x00\x00\x00\x00\x00\x00\x00\x00\x00\x00\x00\x00\x00\x00\x00\x00\x00\x00\x00\x00\x00\x00\x00\x00\x00\x00\x00\x00\x00\x00\x00\x00\x00\x00\x00\x00\x00\x00\x00\x00\x00\x00\x00\x00\x00\x00\x00\x00\x00\x00\x00\x00\x00\x00\x00\x00\x00\x00\x00\x00\x00\x00\x00\x01'
NtbstRp57
(dp58
S'isNumeric'
p59
(dp60
g47
I01
sg55
I01
ssS'trials'
p61
g36
sS'dataTypes'
p62
(lp63
g47
ag55
asS'dataShape'
p64
(lp65
I11
aI55
asbsS'method'
p66
S'fullRandom'
p67
sS'sequenceIndices'
p68
cnumpy.core.multiarray
_reconstruct
p69
(g50
(I0
tS'b'
tRp70
(I1
(I11
I55
tg53
(S'O4'
I0
I1
tRp71
(I3
S'|'
NNNI-1
I-1
I63
tbI00
(lp72
I4
aI6
aI8
aI4
aI10
aI10
aI8
aI3
aI8
aI5
aI9
aI4
aI10
aI7
aI4
aI4
aI0
aI2
aI1
aI1
aI9
aI1
aI10
aI1
aI9
aI1
aI1
aI4
aI0
aI1
aI8
aI7
aI2
aI6
aI6
aI1
aI9
aI10
aI6
aI7
aI1
aI0
aI5
aI10
aI1
aI1
aI3
aI10
aI2
aI6
aI7
aI0
aI3
aI3
aI0
aI6
aI4
aI10
aI3
aI5
aI8
aI8
aI8
aI7
aI3
aI0
aI1
aI10
aI3
aI3
aI7
aI5
aI4
aI1
aI0
aI9
aI6
aI8
aI4
aI1
aI9
aI8
aI5
aI8
aI9
aI1
aI3
aI1
aI2
aI4
aI10
aI6
aI9
aI1
aI8
aI3
aI5
aI9
aI7
aI1
aI9
aI1
aI0
aI2
aI9
aI10
aI7
aI8
aI4
aI2
aI8
aI2
aI4
aI5
aI9
aI1
aI4
aI0
aI5
aI1
aI8
aI4
aI7
aI2
aI2
aI10
aI7
aI10
aI0
aI2
aI4
aI2
aI9
aI5
aI2
aI8
aI10
aI6
aI4
aI0
aI7
aI0
aI0
aI5
aI0
aI0
aI1
aI10
aI2
aI6
aI2
aI2
aI9
aI2
aI6
aI2
aI5
aI5
aI0
aI8
aI1
aI7
aI10
aI1
aI8
aI8
aI9
aI3
aI8
aI10
aI3
aI9
aI5
aI8
aI1
aI7
aI7
aI6
aI9
aI4
aI5
aI7
aI3
aI8
aI3
aI9
aI10
aI7
aI10
aI5
aI2
aI9
aI3
aI2
aI6
aI6
aI5
aI8
aI5
aI4
aI4
aI5
aI2
aI6
aI10
aI5
aI5
aI4
aI8
aI0
aI4
aI1
aI4
aI10
aI0
aI2
aI8
aI8
aI3
aI5
aI8
aI5
aI3
aI0
aI3
aI0
aI2
aI1
aI8
aI0
aI7
aI3
aI6
aI10
aI4
aI7
aI6
aI4
aI9
aI9
aI7
aI3
aI1
aI8
aI7
aI3
aI10
aI0
aI3
aI10
aI9
aI6
aI0
aI9
aI5
aI5
aI8
aI10
aI4
aI2
aI4
aI7
aI5
aI6
aI7
aI0
aI10
aI2
aI3
aI2
aI5
aI8
aI2
aI10
aI9
aI4
aI0
aI2
aI0
aI0
aI7
aI1
aI10
aI4
aI3
aI8
aI9
aI6
aI2
aI9
aI9
aI7
aI6
aI9
aI1
aI10
aI7
aI9
aI6
aI10
aI1
aI3
aI0
aI6
aI6
aI7
aI4
aI9
aI4
aI8
aI3
aI1
aI2
aI0
aI1
aI9
aI3
aI3
aI4
aI6
aI4
aI7
aI5
aI3
aI9
aI0
aI2
aI0
aI2
aI10
aI0
aI0
aI3
aI2
aI9
aI4
aI2
aI1
aI6
aI4
aI1
aI6
aI0
aI7
aI7
aI4
aI6
aI2
aI6
aI0
aI7
aI9
aI6
aI4
aI4
aI9
aI10
aI2
aI7
aI6
aI10
aI5
aI9
aI8
aI9
aI0
aI3
aI5
aI1
aI2
aI10
aI3
aI1
aI7
aI7
aI4
aI10
aI8
aI1
aI7
aI0
aI10
aI4
aI5
aI10
aI6
aI0
aI1
aI7
aI1
aI3
aI3
aI4
aI7
aI7
aI6
aI0
aI8
aI4
aI7
aI7
aI6
aI5
aI3
aI5
aI5
aI1
aI4
aI6
aI0
aI9
aI9
aI3
aI6
aI5
aI10
aI9
aI5
aI0
aI3
aI0
aI2
aI5
aI4
aI10
aI7
aI0
aI8
aI7
aI2
aI4
aI3
aI6
aI8
aI5
aI10
aI3
aI4
aI0
aI4
aI6
aI2
aI10
aI0
aI9
aI1
aI6
aI5
aI0
aI1
aI6
aI10
aI4
aI6
aI8
aI4
aI10
aI5
aI4
aI3
aI9
aI2
aI10
aI8
aI9
aI7
aI10
aI5
aI3
aI8
aI6
aI6
aI9
aI9
aI5
aI9
aI1
aI10
aI6
aI9
aI0
aI1
aI3
aI4
aI0
aI7
aI1
aI1
aI9
aI5
aI1
aI7
aI5
aI7
aI3
aI8
aI8
aI0
aI7
aI1
aI10
aI7
aI5
aI5
aI8
aI6
aI1
aI6
aI10
aI10
aI0
aI0
aI6
aI0
aI4
aI6
aI6
aI3
aI7
aI8
aI6
aI0
aI1
aI2
aI2
aI7
aI3
aI5
aI5
aI10
aI1
aI8
aI6
aI10
aI4
aI6
aI1
aI2
aI9
aI7
aI8
aI8
aI3
aI3
aI9
aI3
aI3
aI10
aI8
aI5
aI8
aI2
aI1
aI10
aI2
aI5
aI2
aI8
aI10
aI2
aI8
aI2
aI8
aI7
aI0
aI3
aI3
aI5
aI6
aI2
aI9
aI8
aI4
aI3
aI0
aI7
aI4
aI2
aI2
aI1
aI3
aI9
aI7
aI2
aI4
aI9
aI3
aI5
aI2
aI2
aI5
aI9
aI7
aI5
aI9
aI5
aI7
aI6
aI3
aI6
aI8
aI10
aI2
aI8
aI5
atbsS'finished'
p73
I00
sS'nReps'
p74
I55
sS'nRemaining'
p75
I5
sS'trialList'
p76
(lp77
I0
aI1
aI2
aI3
aI4
aI5
aI6
aI7
aI8
aI9
aI10
asS'seed'
p78
NsS'thisIndex'
p79
I10
sS'thisN'
p80
I599
sS'thisTrialN'
p81
I5
sS'nTotal'
p82
I605
sS'_warnUseOfNext'
p83
I01
sbasS'saveWideText'
p84
I00
sS'thisEntry'
p85
(dp86
sS'version'
p87
S''
sS'_paramNamesSoFar'
p88
(lp89
sS'entries'
p90
(lp91
(dp92
g16
(lp93
S'k'
asS'.thisTrial'
p94
I4
sS'.thisRepN'
p95
I0
sg30
VF
sg31
g32
sS'.thisTrialN'
p96
I0
sS'.thisN'
p97
I0
sS'.thisIndex'
p98
I4
sg15
(lp99
S'k'
asg17
S'Y'
sg14
I1
sa(dp100
g16
(lp101
S'd'
asg94
I6
sS'.thisRepN'
p102
I0
sg30
VF
sg31
g32
sS'.thisTrialN'
p103
I1
sS'.thisN'
p104
I1
sS'.thisIndex'
p105
I6
sg15
(lp106
S'd'
asg17
S'Y'
sg14
I1
sa(dp107
g16
(lp108
S'k'
asg18
S'Y'
sS'.thisRepN'
p109
I0
sg20
S'N'
sg31
g32
sS'.thisTrialN'
p110
I2
sS'.thisN'
p111
I2
sS'.thisIndex'
p112
I8
sg15
(lp113
S'd'
asg30
VF
sg17
S'N'
sg14
I1
sg19
Nsg94
I8
sa(dp114
g16
(lp115
S'k'
asg18
S'N'
sS'.thisRepN'
p116
I0
sg20
S'Y'
sg31
g32
sS'.thisTrialN'
p117
I3
sS'.thisN'
p118
I3
sS'.thisIndex'
p119
I8
sg15
(lp120
S'k'
asg30
VF
sg17
S'Y'
sg14
I1
sg19
Nsg94
I8
sa(dp121
g16
(lp122
S'k'
asg18
S'Y'
sS'.thisRepN'
p123
I0
sg20
S'Y'
sg31
g32
sS'.thisTrialN'
p124
I4
sS'.thisN'
p125
I4
sS'.thisIndex'
p126
I8
sg15
(lp127
S'k'
asg30
VF
sg17
S'Y'
sg14
I1
sg19
(lp128
S'space'
p129
asg94
I8
sa(dp130
g16
(lp131
S'd'
asg18
S'N'
sS'.thisRepN'
p132
I0
sg20
S'Y'
sg31
g32
sS'.thisTrialN'
p133
I5
sS'.thisN'
p134
I5
sS'.thisIndex'
p135
I4
sg15
(lp136
S'k'
asg30
VF
sg17
S'N'
sg14
I1
sg19
Nsg94
I4
sa(dp137
g16
(lp138
S'd'
asg18
S'N'
sS'.thisRepN'
p139
I0
sg20
S'Y'
sg31
g32
sS'.thisTrialN'
p140
I6
sS'.thisN'
p141
I6
sS'.thisIndex'
p142
I0
sg15
(lp143
S'd'
asg30
VF
sg17
S'Y'
sg14
I1
sg19
Nsg94
I0
sa(dp144
g16
(lp145
S'k'
asg18
S'N'
sS'.thisRepN'
p146
I0
sg20
S'N'
sg31
g32
sS'.thisTrialN'
p147
I7
sS'.thisN'
p148
I7
sS'.thisIndex'
p149
I6
sg15
(lp150
S'k'
asg30
VF
sg17
S'Y'
sg14
I1
sg19
(lp151
S'space'
p152
asg94
I6
sa(dp153
g16
(lp154
S'k'
asg18
S'N'
sS'.thisRepN'
p155
I0
sg20
S'N'
sg31
g32
sS'.thisTrialN'
p156
I8
sS'.thisN'
p157
I8
sS'.thisIndex'
p158
I6
sg15
(lp159
S'k'
asg30
VF
sg17
S'Y'
sg14
I1
sg19
(lp160
S'space'
p161
asg94
I6
sa(dp162
g16
(lp163
S'k'
asg18
S'N'
sS'.thisRepN'
p164
I0
sg20
S'Y'
sg31
g32
sS'.thisTrialN'
p165
I9
sS'.thisN'
p166
I9
sS'.thisIndex'
p167
I8
sg15
(lp168
S'd'
asg30
VF
sg17
S'N'
sg14
I1
sg19
Nsg94
I8
sa(dp169
g16
(lp170
S'k'
asg18
S'Y'
sS'.thisRepN'
p171
I0
sg20
S'Y'
sg31
g32
sS'.thisTrialN'
p172
I10
sS'.thisN'
p173
I10
sS'.thisIndex'
p174
I8
sg15
(lp175
S'd'
asg30
VF
sg17
S'N'
sg14
I1
sg19
(lp176
S'space'
p177
asg94
I8
sa(dp178
g16
(lp179
S'd'
asg18
S'Y'
sS'.thisRepN'
p180
I1
sg20
S'N'
sg31
g32
sS'.thisTrialN'
p181
I0
sS'.thisN'
p182
I11
sS'.thisIndex'
p183
I6
sg15
(lp184
S'k'
asg30
VF
sg17
S'N'
sg14
I1
sg19
Nsg94
I6
sa(dp185
g16
(lp186
S'k'
asg18
S'Y'
sS'.thisRepN'
p187
I1
sg20
S'N'
sg31
g32
sS'.thisTrialN'
p188
I1
sS'.thisN'
p189
I12
sS'.thisIndex'
p190
I4
sg15
(lp191
S'd'
asg30
VF
sg17
S'N'
sg14
I1
sg19
Nsg94
I4
sa(dp192
g16
(lp193
S'd'
asg18
S'N'
sS'.thisRepN'
p194
I1
sg20
S'Y'
sg31
g32
sS'.thisTrialN'
p195
I2
sS'.thisN'
p196
I13
sS'.thisIndex'
p197
I2
sg15
(lp198
S'd'
asg30
VF
sg17
S'Y'
sg14
I1
sg19
Nsg94
I2
sa(dp199
g16
(lp200
S'd'
asg18
S'N'
sS'.thisRepN'
p201
I1
sg20
S'Y'
sg31
g32
sS'.thisTrialN'
p202
I3
sS'.thisN'
p203
I14
sS'.thisIndex'
p204
I9
sg15
(lp205
S'k'
asg30
VF
sg17
S'N'
sg14
I1
sg19
Nsg94
I9
sa(dp206
g16
(lp207
S'd'
asg18
S'N'
sS'.thisRepN'
p208
I1
sg20
S'Y'
sg31
g32
sS'.thisTrialN'
p209
I4
sS'.thisN'
p210
I15
sS'.thisIndex'
p211
I5
sg15
(lp212
S'd'
asg30
VF
sg17
S'Y'
sg14
I1
sg19
Nsg94
I5
sa(dp213
g16
(lp214
S'd'
asg18
S'N'
sS'.thisRepN'
p215
I1
sg20
S'Y'
sg31
g32
sS'.thisTrialN'
p216
I5
sS'.thisN'
p217
I16
sS'.thisIndex'
p218
I0
sg15
(lp219
S'k'
asg30
VF
sg17
S'N'
sg14
I1
sg19
Nsg94
I0
sa(dp220
g16
(lp221
S'd'
asg18
S'N'
sS'.thisRepN'
p222
I1
sg20
S'Y'
sg31
g32
sS'.thisTrialN'
p223
I6
sS'.thisN'
p224
I17
sS'.thisIndex'
p225
I0
sg15
(lp226
S'k'
asg30
VF
sg17
S'N'
sg14
I1
sg19
Nsg94
I0
sa(dp227
g16
(lp228
S'd'
asg18
S'Y'
sS'.thisRepN'
p229
I1
sg20
S'Y'
sg31
g32
sS'.thisTrialN'
p230
I7
sS'.thisN'
p231
I18
sS'.thisIndex'
p232
I0
sg15
(lp233
S'k'
asg30
VF
sg17
S'N'
sg14
I1
sg19
(lp234
S'space'
p235
asg94
I0
sa(dp236
g16
(lp237
S'k'
asg18
S'Y'
sS'.thisRepN'
p238
I1
sg20
S'Y'
sg31
g32
sS'.thisTrialN'
p239
I8
sS'.thisN'
p240
I19
sS'.thisIndex'
p241
I2
sg15
(lp242
S'k'
asg30
VF
sg17
S'Y'
sg14
I1
sg19
(lp243
S'space'
p244
asg94
I2
sa(dp245
g16
(lp246
S'k'
asg18
S'N'
sS'.thisRepN'
p247
I1
sg20
S'Y'
sg31
g32
sS'.thisTrialN'
p248
I9
sS'.thisN'
p249
I20
sS'.thisIndex'
p250
I8
sg15
(lp251
S'd'
asg30
VF
sg17
S'N'
sg14
I1
sg19
Nsg94
I8
sa(dp252
g16
(lp253
S'k'
asg18
S'Y'
sS'.thisRepN'
p254
I1
sg20
S'Y'
sg31
g32
sS'.thisTrialN'
p255
I10
sS'.thisN'
p256
I21
sS'.thisIndex'
p257
I2
sg15
(lp258
S'k'
asg30
VF
sg17
S'Y'
sg14
I1
sg19
(lp259
S'space'
p260
asg94
I2
sa(dp261
g16
(lp262
S'k'
asg18
S'Y'
sS'.thisRepN'
p263
I2
sg20
S'N'
sg31
g32
sS'.thisTrialN'
p264
I0
sS'.thisN'
p265
I22
sS'.thisIndex'
p266
I8
sg15
(lp267
S'k'
asg30
VF
sg17
S'Y'
sg14
I1
sg19
Nsg94
I8
sa(dp268
g16
(lp269
S'd'
asg18
S'N'
sS'.thisRepN'
p270
I2
sg20
S'Y'
sg31
g32
sS'.thisTrialN'
p271
I1
sS'.thisN'
p272
I23
sS'.thisIndex'
p273
I10
sg15
(lp274
S'k'
asg30
VF
sg17
S'N'
sg14
I1
sg19
Nsg94
I10
sa(dp275
g16
(lp276
S'k'
asg18
S'Y'
sS'.thisRepN'
p277
I2
sg20
S'Y'
sg31
g32
sS'.thisTrialN'
p278
I2
sS'.thisN'
p279
I24
sS'.thisIndex'
p280
I4
sg15
(lp281
S'd'
asg30
VF
sg17
S'N'
sg14
I1
sg19
(lp282
S'space'
p283
asg94
I4
sa(dp284
g16
(lp285
S'k'
asg18
S'N'
sS'.thisRepN'
p286
I2
sg20
S'Y'
sg31
g32
sS'.thisTrialN'
p287
I3
sS'.thisN'
p288
I25
sS'.thisIndex'
p289
I3
sg15
(lp290
S'k'
asg30
VF
sg17
S'Y'
sg14
I1
sg19
Nsg94
I3
sa(dp291
g16
(lp292
S'k'
asg18
S'N'
sS'.thisRepN'
p293
I2
sg20
S'N'
sg31
g32
sS'.thisTrialN'
p294
I4
sS'.thisN'
p295
I26
sS'.thisIndex'
p296
I3
sg15
(lp297
S'k'
asg30
VF
sg17
S'Y'
sg14
I1
sg19
(lp298
S'space'
p299
asg94
I3
sa(dp300
g16
(lp301
S'k'
asg18
S'Y'
sS'.thisRepN'
p302
I2
sg20
S'N'
sg31
g32
sS'.thisTrialN'
p303
I5
sS'.thisN'
p304
I27
sS'.thisIndex'
p305
I2
sg15
(lp306
S'd'
asg30
VF
sg17
S'N'
sg14
I1
sg19
Nsg94
I2
sa(dp307
g16
(lp308
S'k'
asg18
S'N'
sS'.thisRepN'
p309
I2
sg20
S'N'
sg31
g32
sS'.thisTrialN'
p310
I6
sS'.thisN'
p311
I28
sS'.thisIndex'
p312
I3
sg15
(lp313
S'k'
asg30
VF
sg17
S'Y'
sg14
I1
sg19
(lp314
S'space'
p315
asg94
I3
sa(dp316
g16
(lp317
S'd'
asg18
S'Y'
sS'.thisRepN'
p318
I2
sg20
S'Y'
sg31
g32
sS'.thisTrialN'
p319
I7
sS'.thisN'
p320
I29
sS'.thisIndex'
p321
I1
sg15
(lp322
S'k'
asg30
VF
sg17
S'N'
sg14
I1
sg19
(lp323
S'space'
p324
asg94
I1
sa(dp325
g16
(lp326
S'k'
asg18
S'Y'
sS'.thisRepN'
p327
I2
sg20
S'Y'
sg31
g32
sS'.thisTrialN'
p328
I8
sS'.thisN'
p329
I30
sS'.thisIndex'
p330
I10
sg15
(lp331
S'd'
asg30
VF
sg17
S'N'
sg14
I1
sg19
(lp332
S'space'
p333
asg94
I10
sa(dp334
g16
(lp335
S'k'
asg18
S'N'
sS'.thisRepN'
p336
I2
sg20
S'Y'
sg31
g32
sS'.thisTrialN'
p337
I9
sS'.thisN'
p338
I31
sS'.thisIndex'
p339
I0
sg15
(lp340
S'k'
asg30
VF
sg17
S'Y'
sg14
I1
sg19
Nsg94
I0
sa(dp341
g16
(lp342
S'd'
asg18
S'N'
sS'.thisRepN'
p343
I2
sg20
S'Y'
sg31
g32
sS'.thisTrialN'
p344
I10
sS'.thisN'
p345
I32
sS'.thisIndex'
p346
I1
sg15
(lp347
S'd'
asg30
VF
sg17
S'Y'
sg14
I1
sg19
Nsg94
I1
sa(dp348
g16
(lp349
S'd'
asg18
S'Y'
sS'.thisRepN'
p350
I3
sg20
S'Y'
sg31
g32
sS'.thisTrialN'
p351
I0
sS'.thisN'
p352
I33
sS'.thisIndex'
p353
I4
sg15
(lp354
S'k'
asg30
VF
sg17
S'N'
sg14
I1
sg19
(lp355
S'space'
p356
asg94
I4
sa(dp357
g16
(lp358
S'k'
asg18
S'N'
sS'.thisRepN'
p359
I3
sg20
S'Y'
sg31
g32
sS'.thisTrialN'
p360
I1
sS'.thisN'
p361
I34
sS'.thisIndex'
p362
I3
sg15
(lp363
S'd'
asg30
VF
sg17
S'N'
sg14
I1
sg19
Nsg94
I3
sa(dp364
g16
(lp365
S'd'
asg18
S'Y'
sS'.thisRepN'
p366
I3
sg20
S'N'
sg31
g32
sS'.thisTrialN'
p367
I2
sS'.thisN'
p368
I35
sS'.thisIndex'
p369
I5
sg15
(lp370
S'd'
asg30
VF
sg17
S'Y'
sg14
I1
sg19
Nsg94
I5
sa(dp371
g16
(lp372
S'd'
asg18
S'N'
sS'.thisRepN'
p373
I3
sg20
S'Y'
sg31
g32
sS'.thisTrialN'
p374
I3
sS'.thisN'
p375
I36
sS'.thisIndex'
p376
I8
sg15
(lp377
S'k'
asg30
VF
sg17
S'N'
sg14
I1
sg19
Nsg94
I8
sa(dp378
g16
(lp379
S'k'
asg18
S'N'
sS'.thisRepN'
p380
I3
sg20
S'Y'
sg31
g32
sS'.thisTrialN'
p381
I4
sS'.thisN'
p382
I37
sS'.thisIndex'
p383
I0
sg15
(lp384
S'd'
asg30
VF
sg17
S'N'
sg14
I1
sg19
Nsg94
I0
sa(dp385
g16
(lp386
S'k'
asg18
S'N'
sS'.thisRepN'
p387
I3
sg20
S'Y'
sg31
g32
sS'.thisTrialN'
p388
I5
sS'.thisN'
p389
I38
sS'.thisIndex'
p390
I0
sg15
(lp391
S'k'
asg30
VF
sg17
S'Y'
sg14
I1
sg19
Nsg94
I0
sa(dp392
g16
(lp393
S'd'
asg18
S'N'
sS'.thisRepN'
p394
I3
sg20
S'Y'
sg31
g32
sS'.thisTrialN'
p395
I6
sS'.thisN'
p396
I39
sS'.thisIndex'
p397
I2
sg15
(lp398
S'k'
asg30
VF
sg17
S'N'
sg14
I1
sg19
Nsg94
I2
sa(dp399
g16
(lp400
S'd'
asg18
S'Y'
sS'.thisRepN'
p401
I3
sg20
S'Y'
sg31
g32
sS'.thisTrialN'
p402
I7
sS'.thisN'
p403
I40
sS'.thisIndex'
p404
I7
sg15
(lp405
S'd'
asg30
VF
sg17
S'Y'
sg14
I1
sg19
(lp406
S'space'
p407
asg94
I7
sa(dp408
g16
(lp409
S'k'
asg18
S'Y'
sS'.thisRepN'
p410
I3
sg20
S'N'
sg31
g32
sS'.thisTrialN'
p411
I8
sS'.thisN'
p412
I41
sS'.thisIndex'
p413
I0
sg15
(lp414
S'k'
asg30
VF
sg17
S'Y'
sg14
I1
sg19
Nsg94
I0
sa(dp415
g16
(lp416
S'k'
asg18
S'N'
sS'.thisRepN'
p417
I3
sg20
S'Y'
sg31
g32
sS'.thisTrialN'
p418
I9
sS'.thisN'
p419
I42
sS'.thisIndex'
p420
I7
sg15
(lp421
S'd'
asg30
VF
sg17
S'N'
sg14
I1
sg19
Nsg94
I7
sa(dp422
g16
(lp423
S'd'
asg18
S'N'
sS'.thisRepN'
p424
I3
sg20
S'Y'
sg31
g32
sS'.thisTrialN'
p425
I10
sS'.thisN'
p426
I43
sS'.thisIndex'
p427
I10
sg15
(lp428
S'k'
asg30
VF
sg17
S'N'
sg14
I1
sg19
Nsg94
I10
sa(dp429
g16
(lp430
S'k'
asg18
S'Y'
sS'.thisRepN'
p431
I4
sg20
S'N'
sg31
g32
sS'.thisTrialN'
p432
I0
sS'.thisN'
p433
I44
sS'.thisIndex'
p434
I10
sg15
(lp435
S'd'
asg30
VF
sg17
S'N'
sg14
I1
sg19
Nsg94
I10
sa(dp436
g16
(lp437
S'd'
asg18
S'N'
sS'.thisRepN'
p438
I4
sg20
S'Y'
sg31
g32
sS'.thisTrialN'
p439
I1
sS'.thisN'
p440
I45
sS'.thisIndex'
p441
I5
sg15
(lp442
S'k'
asg30
VF
sg17
S'N'
sg14
I1
sg19
Nsg94
I5
sa(dp443
g16
(lp444
S'd'
asg18
S'N'
sS'.thisRepN'
p445
I4
sg20
S'Y'
sg31
g32
sS'.thisTrialN'
p446
I2
sS'.thisN'
p447
I46
sS'.thisIndex'
p448
I9
sg15
(lp449
S'd'
asg30
VF
sg17
S'Y'
sg14
I1
sg19
Nsg94
I9
sa(dp450
g16
(lp451
S'd'
asg18
S'Y'
sS'.thisRepN'
p452
I4
sg20
S'N'
sg31
g32
sS'.thisTrialN'
p453
I3
sS'.thisN'
p454
I47
sS'.thisIndex'
p455
I10
sg15
(lp456
S'k'
asg30
VF
sg17
S'N'
sg14
I1
sg19
Nsg94
I10
sa(dp457
g16
(lp458
S'd'
asg18
S'N'
sS'.thisRepN'
p459
I4
sg20
S'Y'
sg31
g32
sS'.thisTrialN'
p460
I4
sS'.thisN'
p461
I48
sS'.thisIndex'
p462
I3
sg15
(lp463
S'd'
asg30
VF
sg17
S'Y'
sg14
I1
sg19
Nsg94
I3
sa(dp464
g16
(lp465
S'd'
asg18
S'N'
sg22
I35
sS'.thisN'
p466
I49
sg20
S'Y'
sg31
g32
sS'.thisTrialN'
p467
I5
sS'.thisRepN'
p468
I4
sg21
I23
sS'.thisIndex'
p469
I0
sg23
I19
sg15
(lp470
S'k'
asg30
VF
sg17
S'N'
sg14
I1
sg19
Nsg94
I0
sa(dp471
g16
(lp472
S'd'
asg94
I9
sS'.thisRepN'
p473
I4
sg30
VF
sg31
g32
sS'.thisTrialN'
p474
I6
sS'.thisN'
p475
I50
sS'.thisIndex'
p476
I9
sg15
(lp477
S'd'
asg17
S'Y'
sg14
I2
sa(dp478
g16
(lp479
S'd'
asg94
I1
sS'.thisRepN'
p480
I4
sg30
VF
sg31
g32
sS'.thisTrialN'
p481
I7
sS'.thisN'
p482
I51
sS'.thisIndex'
p483
I1
sg15
(lp484
S'd'
asg17
S'Y'
sg14
I2
sa(dp485
g16
(lp486
S'd'
asg18
S'N'
sS'.thisRepN'
p487
I4
sg20
S'Y'
sg31
g32
sS'.thisTrialN'
p488
I8
sS'.thisN'
p489
I52
sS'.thisIndex'
p490
I9
sg15
(lp491
S'k'
asg30
VF
sg17
S'N'
sg14
I2
sg19
Nsg94
I9
sa(dp492
g16
(lp493
S'd'
asg18
S'N'
sS'.thisRepN'
p494
I4
sg20
S'Y'
sg31
g32
sS'.thisTrialN'
p495
I9
sS'.thisN'
p496
I53
sS'.thisIndex'
p497
I1
sg15
(lp498
S'k'
asg30
VF
sg17
S'N'
sg14
I2
sg19
Nsg94
I1
sa(dp499
g16
(lp500
S'k'
asg18
S'Y'
sS'.thisRepN'
p501
I4
sg20
S'N'
sg31
g32
sS'.thisTrialN'
p502
I10
sS'.thisN'
p503
I54
sS'.thisIndex'
p504
I2
sg15
(lp505
S'd'
asg30
VF
sg17
S'N'
sg14
I2
sg19
Nsg94
I2
sa(dp506
g16
(lp507
S'd'
asg18
S'N'
sS'.thisRepN'
p508
I5
sg20
S'Y'
sg31
g32
sS'.thisTrialN'
p509
I0
sS'.thisN'
p510
I55
sS'.thisIndex'
p511
I10
sg15
(lp512
S'k'
asg30
VF
sg17
S'N'
sg14
I2
sg19
Nsg94
I10
sa(dp513
g16
(lp514
S'd'
asg18
S'N'
sS'.thisRepN'
p515
I5
sg20
S'N'
sg31
g32
sS'.thisTrialN'
p516
I1
sS'.thisN'
p517
I56
sS'.thisIndex'
p518
I8
sg15
(lp519
S'd'
asg30
VF
sg17
S'Y'
sg14
I2
sg19
(lp520
S'space'
p521
asg94
I8
sa(dp522
g16
(lp523
S'd'
asg18
S'Y'
sS'.thisRepN'
p524
I5
sg20
S'N'
sg31
g32
sS'.thisTrialN'
p525
I2
sS'.thisN'
p526
I57
sS'.thisIndex'
p527
I1
sg15
(lp528
S'd'
asg30
VF
sg17
S'Y'
sg14
I2
sg19
Nsg94
I1
sa(dp529
g16
(lp530
S'k'
asg18
S'Y'
sS'.thisRepN'
p531
I5
sg20
S'N'
sg31
g32
sS'.thisTrialN'
p532
I3
sS'.thisN'
p533
I58
sS'.thisIndex'
p534
I3
sg15
(lp535
S'd'
asg30
VF
sg17
S'N'
sg14
I2
sg19
Nsg94
I3
sa(dp536
g16
(lp537
S'k'
asg18
S'Y'
sS'.thisRepN'
p538
I5
sg20
S'Y'
sg31
g32
sS'.thisTrialN'
p539
I4
sS'.thisN'
p540
I59
sS'.thisIndex'
p541
I0
sg15
(lp542
S'k'
asg30
VF
sg17
S'Y'
sg14
I2
sg19
(lp543
S'space'
p544
asg94
I0
sa(dp545
g16
(lp546
S'd'
asg18
S'Y'
sS'.thisRepN'
p547
I5
sg20
S'N'
sg31
g32
sS'.thisTrialN'
p548
I5
sS'.thisN'
p549
I60
sS'.thisIndex'
p550
I7
sg15
(lp551
S'k'
asg30
VF
sg17
S'N'
sg14
I2
sg19
Nsg94
I7
sa(dp552
g16
(lp553
S'd'
asg18
S'N'
sS'.thisRepN'
p554
I5
sg20
S'Y'
sg31
g32
sS'.thisTrialN'
p555
I6
sS'.thisN'
p556
I61
sS'.thisIndex'
p557
I4
sg15
(lp558
S'd'
asg30
VF
sg17
S'Y'
sg14
I2
sg19
Nsg94
I4
sa(dp559
g16
(lp560
S'k'
asg18
S'Y'
sS'.thisRepN'
p561
I5
sg20
S'N'
sg31
g32
sS'.thisTrialN'
p562
I7
sS'.thisN'
p563
I62
sS'.thisIndex'
p564
I3
sg15
(lp565
S'k'
asg30
VF
sg17
S'Y'
sg14
I2
sg19
Nsg94
I3
sa(dp566
g16
(lp567
S'd'
asg18
S'N'
sS'.thisRepN'
p568
I5
sg20
S'Y'
sg31
g32
sS'.thisTrialN'
p569
I8
sS'.thisN'
p570
I63
sS'.thisIndex'
p571
I1
sg15
(lp572
S'd'
asg30
VF
sg17
S'Y'
sg14
I2
sg19
Nsg94
I1
sa(dp573
g16
(lp574
S'd'
asg18
S'N'
sS'.thisRepN'
p575
I5
sg20
S'Y'
sg31
g32
sS'.thisTrialN'
p576
I9
sS'.thisN'
p577
I64
sS'.thisIndex'
p578
I10
sg15
(lp579
S'k'
asg30
VF
sg17
S'N'
sg14
I2
sg19
Nsg94
I10
sa(dp580
g16
(lp581
S'd'
asg18
S'Y'
sS'.thisRepN'
p582
I5
sg20
S'Y'
sg31
g32
sS'.thisTrialN'
p583
I10
sS'.thisN'
p584
I65
sS'.thisIndex'
p585
I5
sg15
(lp586
S'd'
asg30
VF
sg17
S'Y'
sg14
I2
sg19
(lp587
S'space'
p588
asg94
I5
sa(dp589
g16
(lp590
S'k'
asg18
S'Y'
sS'.thisRepN'
p591
I6
sg20
S'Y'
sg31
g32
sS'.thisTrialN'
p592
I0
sS'.thisN'
p593
I66
sS'.thisIndex'
p594
I8
sg15
(lp595
S'd'
asg30
VF
sg17
S'N'
sg14
I2
sg19
(lp596
S'space'
p597
asg94
I8
sa(dp598
g16
(lp599
S'k'
asg18
S'Y'
sS'.thisRepN'
p600
I6
sg20
S'Y'
sg31
g32
sS'.thisTrialN'
p601
I1
sS'.thisN'
p602
I67
sS'.thisIndex'
p603
I8
sg15
(lp604
S'k'
asg30
VF
sg17
S'Y'
sg14
I2
sg19
(lp605
S'space'
p606
asg94
I8
sa(dp607
g16
(lp608
S'd'
asg18
S'Y'
sS'.thisRepN'
p609
I6
sg20
S'N'
sg31
g32
sS'.thisTrialN'
p610
I2
sS'.thisN'
p611
I68
sS'.thisIndex'
p612
I4
sg15
(lp613
S'k'
asg30
VF
sg17
S'N'
sg14
I2
sg19
Nsg94
I4
sa(dp614
g18
S'N'
sS'.thisRepN'
p615
I6
sg20
S'Y'
sg31
g32
sS'.thisTrialN'
p616
I3
sS'.thisN'
p617
I69
sS'.thisIndex'
p618
I9
sg15
Nsg30
VF
sg17
S'Timed out'
p619
sg14
I2
sg19
Nsg94
I9
sa(dp620
g16
(lp621
S'k'
asg18
S'N'
sS'.thisRepN'
p622
I6
sg20
S'Y'
sg31
g32
sS'.thisTrialN'
p623
I4
sS'.thisN'
p624
I70
sS'.thisIndex'
p625
I2
sg15
(lp626
S'k'
asg30
VF
sg17
S'Y'
sg14
I2
sg19
Nsg94
I2
sa(dp627
g16
(lp628
S'k'
asg18
S'Y'
sS'.thisRepN'
p629
I6
sg20
S'N'
sg31
g32
sS'.thisTrialN'
p630
I5
sS'.thisN'
p631
I71
sS'.thisIndex'
p632
I1
sg15
(lp633
S'k'
asg30
VF
sg17
S'Y'
sg14
I2
sg19
Nsg94
I1
sa(dp634
g16
(lp635
S'k'
asg18
S'N'
sS'.thisRepN'
p636
I6
sg20
S'Y'
sg31
g32
sS'.thisTrialN'
p637
I6
sS'.thisN'
p638
I72
sS'.thisIndex'
p639
I2
sg15
(lp640
S'd'
asg30
VF
sg17
S'N'
sg14
I2
sg19
Nsg94
I2
sa(dp641
g16
(lp642
S'd'
asg18
S'N'
sS'.thisRepN'
p643
I6
sg20
S'Y'
sg31
g32
sS'.thisTrialN'
p644
I7
sS'.thisN'
p645
I73
sS'.thisIndex'
p646
I3
sg15
(lp647
S'k'
asg30
VF
sg17
S'N'
sg14
I2
sg19
Nsg94
I3
sa(dp648
g16
(lp649
S'k'
asg18
S'Y'
sS'.thisRepN'
p650
I6
sg20
S'Y'
sg31
g32
sS'.thisTrialN'
p651
I8
sS'.thisN'
p652
I74
sS'.thisIndex'
p653
I6
sg15
(lp654
S'd'
asg30
VF
sg17
S'N'
sg14
I2
sg19
(lp655
S'space'
p656
asg94
I6
sa(dp657
g16
(lp658
S'k'
asg18
S'Y'
sS'.thisRepN'
p659
I6
sg20
S'N'
sg31
g32
sS'.thisTrialN'
p660
I9
sS'.thisN'
p661
I75
sS'.thisIndex'
p662
I7
sg15
(lp663
S'k'
asg30
VF
sg17
S'Y'
sg14
I2
sg19
Nsg94
I7
sa(dp664
g16
(lp665
S'k'
asg18
S'N'
sS'.thisRepN'
p666
I6
sg20
S'Y'
sg31
g32
sS'.thisTrialN'
p667
I10
sS'.thisN'
p668
I76
sS'.thisIndex'
p669
I2
sg15
(lp670
S'd'
asg30
VF
sg17
S'N'
sg14
I2
sg19
Nsg94
I2
sa(dp671
g16
(lp672
S'k'
asg18
S'N'
sS'.thisRepN'
p673
I7
sg20
S'Y'
sg31
g32
sS'.thisTrialN'
p674
I0
sS'.thisN'
p675
I77
sS'.thisIndex'
p676
I3
sg15
(lp677
S'k'
asg30
VF
sg17
S'Y'
sg14
I2
sg19
Nsg94
I3
sa(dp678
g16
(lp679
S'k'
asg18
S'N'
sS'.thisRepN'
p680
I7
sg20
S'Y'
sg31
g32
sS'.thisTrialN'
p681
I1
sS'.thisN'
p682
I78
sS'.thisIndex'
p683
I8
sg15
(lp684
S'k'
asg30
VF
sg17
S'Y'
sg14
I2
sg19
Nsg94
I8
sa(dp685
g16
(lp686
S'd'
asg18
S'N'
sS'.thisRepN'
p687
I7
sg20
S'Y'
sg31
g32
sS'.thisTrialN'
p688
I2
sS'.thisN'
p689
I79
sS'.thisIndex'
p690
I0
sg15
(lp691
S'k'
asg30
VF
sg17
S'N'
sg14
I2
sg19
Nsg94
I0
sa(dp692
g16
(lp693
S'k'
asg18
S'Y'
sS'.thisRepN'
p694
I7
sg20
S'Y'
sg31
g32
sS'.thisTrialN'
p695
I3
sS'.thisN'
p696
I80
sS'.thisIndex'
p697
I5
sg15
(lp698
S'd'
asg30
VF
sg17
S'N'
sg14
I2
sg19
(lp699
S'space'
p700
asg94
I5
sa(dp701
g16
(lp702
S'k'
asg18
S'Y'
sS'.thisRepN'
p703
I7
sg20
S'Y'
sg31
g32
sS'.thisTrialN'
p704
I4
sS'.thisN'
p705
I81
sS'.thisIndex'
p706
I1
sg15
(lp707
S'k'
asg30
VF
sg17
S'Y'
sg14
I2
sg19
(lp708
S'space'
p709
asg94
I1
sa(dp710
g16
(lp711
S'k'
asg18
S'Y'
sS'.thisRepN'
p712
I7
sg20
S'Y'
sg31
g32
sS'.thisTrialN'
p713
I5
sS'.thisN'
p714
I82
sS'.thisIndex'
p715
I10
sg15
(lp716
S'k'
asg30
VF
sg17
S'Y'
sg14
I2
sg19
(lp717
S'space'
p718
asg94
I10
sa(dp719
g16
(lp720
S'd'
asg18
S'Y'
sS'.thisRepN'
p721
I7
sg20
S'N'
sg31
g32
sS'.thisTrialN'
p722
I6
sS'.thisN'
p723
I83
sS'.thisIndex'
p724
I1
sg15
(lp725
S'k'
asg30
VF
sg17
S'N'
sg14
I2
sg19
Nsg94
I1
sa(dp726
g16
(lp727
S'd'
asg18
S'Y'
sS'.thisRepN'
p728
I7
sg20
S'N'
sg31
g32
sS'.thisTrialN'
p729
I7
sS'.thisN'
p730
I84
sS'.thisIndex'
p731
I4
sg15
(lp732
S'k'
asg30
VF
sg17
S'N'
sg14
I2
sg19
Nsg94
I4
sa(dp733
g16
(lp734
S'd'
asg18
S'N'
sS'.thisRepN'
p735
I7
sg20
S'Y'
sg31
g32
sS'.thisTrialN'
p736
I8
sS'.thisN'
p737
I85
sS'.thisIndex'
p738
I5
sg15
(lp739
S'd'
asg30
VF
sg17
S'Y'
sg14
I2
sg19
Nsg94
I5
sa(dp740
g16
(lp741
S'd'
asg18
S'Y'
sS'.thisRepN'
p742
I7
sg20
S'N'
sg31
g32
sS'.thisTrialN'
p743
I9
sS'.thisN'
p744
I86
sS'.thisIndex'
p745
I5
sg15
(lp746
S'k'
asg30
VF
sg17
S'N'
sg14
I2
sg19
Nsg94
I5
sa(dp747
g16
(lp748
S'd'
asg18
S'N'
sS'.thisRepN'
p749
I7
sg20
S'N'
sg31
g32
sS'.thisTrialN'
p750
I10
sS'.thisN'
p751
I87
sS'.thisIndex'
p752
I8
sg15
(lp753
S'k'
asg30
VF
sg17
S'N'
sg14
I2
sg19
(lp754
S'space'
p755
asg94
I8
sa(dp756
g16
(lp757
S'd'
asg18
S'N'
sS'.thisRepN'
p758
I8
sg20
S'Y'
sg31
g32
sS'.thisTrialN'
p759
I0
sS'.thisN'
p760
I88
sS'.thisIndex'
p761
I8
sg15
(lp762
S'd'
asg30
VF
sg17
S'Y'
sg14
I2
sg19
Nsg94
I8
sa(dp763
g16
(lp764
S'd'
asg18
S'N'
sS'.thisRepN'
p765
I8
sg20
S'Y'
sg31
g32
sS'.thisTrialN'
p766
I1
sS'.thisN'
p767
I89
sS'.thisIndex'
p768
I7
sg15
(lp769
S'k'
asg30
VF
sg17
S'N'
sg14
I2
sg19
Nsg94
I7
sa(dp770
g16
(lp771
S'k'
asg18
S'N'
sS'.thisRepN'
p772
I8
sg20
S'Y'
sg31
g32
sS'.thisTrialN'
p773
I2
sS'.thisN'
p774
I90
sS'.thisIndex'
p775
I5
sg15
(lp776
S'k'
asg30
VF
sg17
S'Y'
sg14
I2
sg19
Nsg94
I5
sa(dp777
g16
(lp778
S'k'
asg18
S'N'
sS'.thisRepN'
p779
I8
sg20
S'N'
sg31
g32
sS'.thisTrialN'
p780
I3
sS'.thisN'
p781
I91
sS'.thisIndex'
p782
I8
sg15
(lp783
S'd'
asg30
VF
sg17
S'N'
sg14
I2
sg19
(lp784
S'space'
p785
asg94
I8
sa(dp786
g16
(lp787
S'k'
asg18
S'N'
sS'.thisRepN'
p788
I8
sg20
S'Y'
sg31
g32
sS'.thisTrialN'
p789
I4
sS'.thisN'
p790
I92
sS'.thisIndex'
p791
I8
sg15
(lp792
S'd'
asg30
VF
sg17
S'N'
sg14
I2
sg19
Nsg94
I8
sa(dp793
g16
(lp794
S'd'
asg18
S'N'
sS'.thisRepN'
p795
I8
sg20
S'N'
sg31
g32
sS'.thisTrialN'
p796
I5
sS'.thisN'
p797
I93
sS'.thisIndex'
p798
I4
sg15
(lp799
S'k'
asg30
VF
sg17
S'N'
sg14
I2
sg19
(lp800
S'k'
asg94
I4
sa(dp801
g16
(lp802
S'd'
asg18
S'Y'
sS'.thisRepN'
p803
I8
sg20
S'N'
sg31
g32
sS'.thisTrialN'
p804
I6
sS'.thisN'
p805
I94
sS'.thisIndex'
p806
I6
sg15
(lp807
S'k'
asg30
VF
sg17
S'N'
sg14
I2
sg19
(lp808
S'd'
asg94
I6
sa(dp809
g16
(lp810
S'd'
asg18
S'Y'
sS'.thisRepN'
p811
I8
sg20
S'N'
sg31
g32
sS'.thisTrialN'
p812
I7
sS'.thisN'
p813
I95
sS'.thisIndex'
p814
I7
sg15
(lp815
S'd'
asg30
VF
sg17
S'Y'
sg14
I2
sg19
Nsg94
I7
sa(dp816
g16
(lp817
S'd'
asg18
S'Y'
sS'.thisRepN'
p818
I8
sg20
S'Y'
sg31
g32
sS'.thisTrialN'
p819
I8
sS'.thisN'
p820
I96
sS'.thisIndex'
p821
I0
sg15
(lp822
S'd'
asg30
VF
sg17
S'Y'
sg14
I2
sg19
(lp823
S'space'
p824
asg94
I0
sa(dp825
g16
(lp826
S'd'
asg18
S'N'
sS'.thisRepN'
p827
I8
sg20
S'Y'
sg31
g32
sS'.thisTrialN'
p828
I9
sS'.thisN'
p829
I97
sS'.thisIndex'
p830
I5
sg15
(lp831
S'k'
asg30
VF
sg17
S'N'
sg14
I2
sg19
Nsg94
I5
sa(dp832
g16
(lp833
S'd'
asg18
S'N'
sS'.thisRepN'
p834
I8
sg20
S'Y'
sg31
g32
sS'.thisTrialN'
p835
I10
sS'.thisN'
p836
I98
sS'.thisIndex'
p837
I10
sg15
(lp838
S'd'
asg30
VF
sg17
S'Y'
sg14
I2
sg19
Nsg94
I10
sa(dp839
g16
(lp840
S'k'
asg18
S'Y'
sg22
I31
sS'.thisN'
p841
I99
sg20
S'Y'
sg31
g32
sS'.thisTrialN'
p842
I0
sS'.thisRepN'
p843
I9
sg21
I24
sS'.thisIndex'
p844
I5
sg23
I23
sg15
(lp845
S'k'
asg30
VF
sg17
S'Y'
sg14
I2
sg19
(lp846
S'space'
p847
asg94
I5
sa(dp848
g16
(lp849
S'd'
asg94
I3
sS'.thisRepN'
p850
I9
sg30
VF
sg31
g32
sS'.thisTrialN'
p851
I1
sS'.thisN'
p852
I100
sS'.thisIndex'
p853
I3
sg15
(lp854
S'd'
asg17
S'Y'
sg14
I3
sa(dp855
g16
(lp856
S'k'
asg94
I1
sS'.thisRepN'
p857
I9
sg30
VF
sg31
g32
sS'.thisTrialN'
p858
I2
sS'.thisN'
p859
I101
sS'.thisIndex'
p860
I1
sg15
(lp861
S'd'
asg17
S'N'
sg14
I3
sa(dp862
g16
(lp863
S'k'
asg18
S'N'
sS'.thisRepN'
p864
I9
sg20
S'Y'
sg31
g32
sS'.thisTrialN'
p865
I3
sS'.thisN'
p866
I102
sS'.thisIndex'
p867
I1
sg15
(lp868
S'k'
asg30
VF
sg17
S'Y'
sg14
I3
sg19
Nsg94
I1
sa(dp869
g16
(lp870
S'k'
asg18
S'N'
sS'.thisRepN'
p871
I9
sg20
S'Y'
sg31
g32
sS'.thisTrialN'
p872
I4
sS'.thisN'
p873
I103
sS'.thisIndex'
p874
I0
sg15
(lp875
S'd'
asg30
VF
sg17
S'N'
sg14
I3
sg19
Nsg94
I0
sa(dp876
g16
(lp877
S'd'
asg18
S'Y'
sS'.thisRepN'
p878
I9
sg20
S'Y'
sg31
g32
sS'.thisTrialN'
p879
I5
sS'.thisN'
p880
I104
sS'.thisIndex'
p881
I3
sg15
(lp882
S'k'
asg30
VF
sg17
S'N'
sg14
I3
sg19
(lp883
S'space'
p884
asg94
I3
sa(dp885
g16
(lp886
S'd'
asg18
S'N'
sS'.thisRepN'
p887
I9
sg20
S'Y'
sg31
g32
sS'.thisTrialN'
p888
I6
sS'.thisN'
p889
I105
sS'.thisIndex'
p890
I4
sg15
(lp891
S'k'
asg30
VF
sg17
S'N'
sg14
I3
sg19
Nsg94
I4
sa(dp892
g16
(lp893
S'k'
asg18
S'N'
sS'.thisRepN'
p894
I9
sg20
S'Y'
sg31
g32
sS'.thisTrialN'
p895
I7
sS'.thisN'
p896
I106
sS'.thisIndex'
p897
I7
sg15
(lp898
S'd'
asg30
VF
sg17
S'N'
sg14
I3
sg19
Nsg94
I7
sa(dp899
g16
(lp900
S'k'
asg18
S'N'
sS'.thisRepN'
p901
I9
sg20
S'Y'
sg31
g32
sS'.thisTrialN'
p902
I8
sS'.thisN'
p903
I107
sS'.thisIndex'
p904
I1
sg15
(lp905
S'k'
asg30
VF
sg17
S'Y'
sg14
I3
sg19
Nsg94
I1
sa(dp906
g18
S'N'
sS'.thisRepN'
p907
I9
sg20
S'Y'
sg31
g32
sS'.thisTrialN'
p908
I9
sS'.thisN'
p909
I108
sS'.thisIndex'
p910
I8
sg15
Nsg30
VF
sg17
g619
sg14
I3
sg19
Nsg94
I8
sa(dp911
g16
(lp912
S'd'
asg18
S'Y'
sS'.thisRepN'
p913
I9
sg20
S'N'
sg31
g32
sS'.thisTrialN'
p914
I10
sS'.thisN'
p915
I109
sS'.thisIndex'
p916
I2
sg15
(lp917
S'd'
asg30
VF
sg17
S'Y'
sg14
I3
sg19
Nsg94
I2
sa(dp918
g16
(lp919
S'd'
asg18
S'N'
sS'.thisRepN'
p920
I10
sg20
S'Y'
sg31
g32
sS'.thisTrialN'
p921
I0
sS'.thisN'
p922
I110
sS'.thisIndex'
p923
I9
sg15
(lp924
S'k'
asg30
VF
sg17
S'N'
sg14
I3
sg19
Nsg94
I9
sa(dp925
g16
(lp926
S'd'
asg18
S'Y'
sS'.thisRepN'
p927
I10
sg20
S'N'
sg31
g32
sS'.thisTrialN'
p928
I1
sS'.thisN'
p929
I111
sS'.thisIndex'
p930
I0
sg15
(lp931
S'd'
asg30
VF
sg17
S'Y'
sg14
I3
sg19
Nsg94
I0
sa(dp932
g16
(lp933
S'k'
asg18
S'Y'
sS'.thisRepN'
p934
I10
sg20
S'N'
sg31
g32
sS'.thisTrialN'
p935
I2
sS'.thisN'
p936
I112
sS'.thisIndex'
p937
I8
sg15
(lp938
S'd'
asg30
VF
sg17
S'N'
sg14
I3
sg19
(lp939
S'd'
asg94
I8
sa(dp940
g16
(lp941
S'k'
asg18
S'N'
sS'.thisRepN'
p942
I10
sg20
S'Y'
sg31
g32
sS'.thisTrialN'
p943
I3
sS'.thisN'
p944
I113
sS'.thisIndex'
p945
I7
sg15
(lp946
S'k'
asg30
VF
sg17
S'Y'
sg14
I3
sg19
Nsg94
I7
sa(dp947
g16
(lp948
S'd'
asg18
S'N'
sS'.thisRepN'
p949
I10
sg20
S'N'
sg31
g32
sS'.thisTrialN'
p950
I4
sS'.thisN'
p951
I114
sS'.thisIndex'
p952
I7
sg15
(lp953
S'k'
asg30
VF
sg17
S'N'
sg14
I3
sg19
(lp954
S'space'
p955
asg94
I7
sa(dp956
g16
(lp957
S'd'
asg18
S'N'
sS'.thisRepN'
p958
I10
sg20
S'Y'
sg31
g32
sS'.thisTrialN'
p959
I5
sS'.thisN'
p960
I115
sS'.thisIndex'
p961
I8
sg15
(lp962
S'd'
asg30
VF
sg17
S'Y'
sg14
I3
sg19
Nsg94
I8
sa(dp963
g16
(lp964
S'd'
asg18
S'Y'
sS'.thisRepN'
p965
I10
sg20
S'Y'
sg31
g32
sS'.thisTrialN'
p966
I6
sS'.thisN'
p967
I116
sS'.thisIndex'
p968
I1
sg15
(lp969
S'd'
asg30
VF
sg17
S'Y'
sg14
I3
sg19
(lp970
S'space'
p971
asg94
I1
sa(dp972
g16
(lp973
S'k'
asg18
S'N'
sS'.thisRepN'
p974
I10
sg20
S'Y'
sg31
g32
sS'.thisTrialN'
p975
I7
sS'.thisN'
p976
I117
sS'.thisIndex'
p977
I6
sg15
(lp978
S'k'
asg30
VF
sg17
S'Y'
sg14
I3
sg19
Nsg94
I6
sa(dp979
g18
S'N'
sS'.thisRepN'
p980
I10
sg20
S'Y'
sg31
g32
sS'.thisTrialN'
p981
I8
sS'.thisN'
p982
I118
sS'.thisIndex'
p983
I6
sg15
Nsg30
VF
sg17
g619
sg14
I3
sg19
Nsg94
I6
sa(dp984
g16
(lp985
S'd'
asg18
S'N'
sS'.thisRepN'
p986
I10
sg20
S'Y'
sg31
g32
sS'.thisTrialN'
p987
I9
sS'.thisN'
p988
I119
sS'.thisIndex'
p989
I6
sg15
(lp990
S'k'
asg30
VF
sg17
S'N'
sg14
I3
sg19
Nsg94
I6
sa(dp991
g16
(lp992
S'd'
asg18
S'N'
sS'.thisRepN'
p993
I10
sg20
S'N'
sg31
g32
sS'.thisTrialN'
p994
I10
sS'.thisN'
p995
I120
sS'.thisIndex'
p996
I8
sg15
(lp997
S'd'
asg30
VF
sg17
S'Y'
sg14
I3
sg19
(lp998
S'space'
p999
asg94
I8
sa(dp1000
g16
(lp1001
S'd'
asg18
S'N'
sS'.thisRepN'
p1002
I11
sg20
S'Y'
sg31
g32
sS'.thisTrialN'
p1003
I0
sS'.thisN'
p1004
I121
sS'.thisIndex'
p1005
I4
sg15
(lp1006
S'd'
asg30
VF
sg17
S'Y'
sg14
I3
sg19
Nsg94
I4
sa(dp1007
g16
(lp1008
S'k'
asg18
S'N'
sS'.thisRepN'
p1009
I11
sg20
S'Y'
sg31
g32
sS'.thisTrialN'
p1010
I1
sS'.thisN'
p1011
I122
sS'.thisIndex'
p1012
I1
sg15
(lp1013
S'd'
asg30
VF
sg17
S'N'
sg14
I3
sg19
Nsg94
I1
sa(dp1014
g16
(lp1015
S'd'
asg18
S'N'
sS'.thisRepN'
p1016
I11
sg20
S'Y'
sg31
g32
sS'.thisTrialN'
p1017
I2
sS'.thisN'
p1018
I123
sS'.thisIndex'
p1019
I4
sg15
(lp1020
S'k'
asg30
VF
sg17
S'N'
sg14
I3
sg19
Nsg94
I4
sa(dp1021
g16
(lp1022
S'k'
asg18
S'N'
sS'.thisRepN'
p1023
I11
sg20
S'Y'
sg31
g32
sS'.thisTrialN'
p1024
I3
sS'.thisN'
p1025
I124
sS'.thisIndex'
p1026
I7
sg15
(lp1027
S'd'
asg30
VF
sg17
S'N'
sg14
I3
sg19
Nsg94
I7
sa(dp1028
g16
(lp1029
S'k'
asg18
S'N'
sS'.thisRepN'
p1030
I11
sg20
S'Y'
sg31
g32
sS'.thisTrialN'
p1031
I4
sS'.thisN'
p1032
I125
sS'.thisIndex'
p1033
I3
sg15
(lp1034
S'k'
asg30
VF
sg17
S'Y'
sg14
I3
sg19
Nsg94
I3
sa(dp1035
g16
(lp1036
S'd'
asg18
S'N'
sS'.thisRepN'
p1037
I11
sg20
S'Y'
sg31
g32
sS'.thisTrialN'
p1038
I5
sS'.thisN'
p1039
I126
sS'.thisIndex'
p1040
I9
sg15
(lp1041
S'd'
asg30
VF
sg17
S'Y'
sg14
I3
sg19
Nsg94
I9
sa(dp1042
g18
S'N'
sS'.thisRepN'
p1043
I11
sg20
S'N'
sg31
g32
sS'.thisTrialN'
p1044
I6
sS'.thisN'
p1045
I127
sS'.thisIndex'
p1046
I6
sg15
Nsg30
VF
sg17
g619
sg14
I3
sg19
(lp1047
S'space'
p1048
asg94
I6
sa(dp1049
g16
(lp1050
S'd'
asg18
S'Y'
sS'.thisRepN'
p1051
I11
sg20
S'N'
sg31
g32
sS'.thisTrialN'
p1052
I7
sS'.thisN'
p1053
I128
sS'.thisIndex'
p1054
I0
sg15
(lp1055
S'd'
asg30
VF
sg17
S'Y'
sg14
I3
sg19
Nsg94
I0
sa(dp1056
g16
(lp1057
S'd'
asg18
S'N'
sS'.thisRepN'
p1058
I11
sg20
S'Y'
sg31
g32
sS'.thisTrialN'
p1059
I8
sS'.thisN'
p1060
I129
sS'.thisIndex'
p1061
I10
sg15
(lp1062
S'd'
asg30
VF
sg17
S'Y'
sg14
I3
sg19
Nsg94
I10
sa(dp1063
g16
(lp1064
S'k'
asg18
S'N'
sS'.thisRepN'
p1065
I11
sg20
S'Y'
sg31
g32
sS'.thisTrialN'
p1066
I9
sS'.thisN'
p1067
I130
sS'.thisIndex'
p1068
I1
sg15
(lp1069
S'd'
asg30
VF
sg17
S'N'
sg14
I3
sg19
Nsg94
I1
sa(dp1070
g16
(lp1071
S'd'
asg18
S'Y'
sS'.thisRepN'
p1072
I11
sg20
S'Y'
sg31
g32
sS'.thisTrialN'
p1073
I10
sS'.thisN'
p1074
I131
sS'.thisIndex'
p1075
I2
sg15
(lp1076
S'k'
asg30
VF
sg17
S'N'
sg14
I3
sg19
(lp1077
S'space'
p1078
asg94
I2
sa(dp1079
g16
(lp1080
S'k'
asg18
S'N'
sS'.thisRepN'
p1081
I12
sg20
S'N'
sg31
g32
sS'.thisTrialN'
p1082
I0
sS'.thisN'
p1083
I132
sS'.thisIndex'
p1084
I10
sg15
(lp1085
S'd'
asg30
VF
sg17
S'N'
sg14
I3
sg19
(lp1086
S'd'
asg94
I10
sa(dp1087
g16
(lp1088
S'k'
asg18
S'Y'
sS'.thisRepN'
p1089
I12
sg20
S'N'
sg31
g32
sS'.thisTrialN'
p1090
I1
sS'.thisN'
p1091
I133
sS'.thisIndex'
p1092
I10
sg15
(lp1093
S'd'
asg30
VF
sg17
S'N'
sg14
I3
sg19
Nsg94
I10
sa(dp1094
g16
(lp1095
S'd'
asg18
S'Y'
sS'.thisRepN'
p1096
I12
sg20
S'N'
sg31
g32
sS'.thisTrialN'
p1097
I2
sS'.thisN'
p1098
I134
sS'.thisIndex'
p1099
I7
sg15
(lp1100
S'd'
asg30
VF
sg17
S'Y'
sg14
I3
sg19
Nsg94
I7
sa(dp1101
g16
(lp1102
S'd'
asg18
S'Y'
sS'.thisRepN'
p1103
I12
sg20
S'N'
sg31
g32
sS'.thisTrialN'
p1104
I3
sS'.thisN'
p1105
I135
sS'.thisIndex'
p1106
I6
sg15
(lp1107
S'k'
asg30
VF
sg17
S'N'
sg14
I3
sg19
Nsg94
I6
sa(dp1108
g16
(lp1109
S'd'
asg18
S'Y'
sS'.thisRepN'
p1110
I12
sg20
S'Y'
sg31
g32
sS'.thisTrialN'
p1111
I4
sS'.thisN'
p1112
I136
sS'.thisIndex'
p1113
I6
sg15
(lp1114
S'd'
asg30
VF
sg17
S'Y'
sg14
I3
sg19
(lp1115
S'space'
p1116
asg94
I6
sa(dp1117
g16
(lp1118
S'k'
asg18
S'Y'
sS'.thisRepN'
p1119
I12
sg20
S'N'
sg31
g32
sS'.thisTrialN'
p1120
I5
sS'.thisN'
p1121
I137
sS'.thisIndex'
p1122
I6
sg15
(lp1123
S'd'
asg30
VF
sg17
S'N'
sg14
I3
sg19
Nsg94
I6
sa(dp1124
g16
(lp1125
S'k'
asg18
S'N'
sS'.thisRepN'
p1126
I12
sg20
S'Y'
sg31
g32
sS'.thisTrialN'
p1127
I6
sS'.thisN'
p1128
I138
sS'.thisIndex'
p1129
I0
sg15
(lp1130
S'k'
asg30
VF
sg17
S'Y'
sg14
I3
sg19
Nsg94
I0
sa(dp1131
g16
(lp1132
S'd'
asg18
S'Y'
sS'.thisRepN'
p1133
I12
sg20
S'N'
sg31
g32
sS'.thisTrialN'
p1134
I7
sS'.thisN'
p1135
I139
sS'.thisIndex'
p1136
I8
sg15
(lp1137
S'd'
asg30
VF
sg17
S'Y'
sg14
I3
sg19
Nsg94
I8
sa(dp1138
g16
(lp1139
S'k'
asg18
S'N'
sS'.thisRepN'
p1140
I12
sg20
S'Y'
sg31
g32
sS'.thisTrialN'
p1141
I8
sS'.thisN'
p1142
I140
sS'.thisIndex'
p1143
I4
sg15
(lp1144
S'd'
asg30
VF
sg17
S'N'
sg14
I3
sg19
Nsg94
I4
sa(dp1145
g16
(lp1146
S'd'
asg18
S'Y'
sS'.thisRepN'
p1147
I12
sg20
S'N'
sg31
g32
sS'.thisTrialN'
p1148
I9
sS'.thisN'
p1149
I141
sS'.thisIndex'
p1150
I6
sg15
(lp1151
S'k'
asg30
VF
sg17
S'N'
sg14
I3
sg19
Nsg94
I6
sa(dp1152
g18
S'Y'
sS'.thisRepN'
p1153
I12
sg20
S'N'
sg31
g32
sS'.thisTrialN'
p1154
I10
sS'.thisN'
p1155
I142
sS'.thisIndex'
p1156
I8
sg15
Nsg30
VF
sg17
g619
sg14
I3
sg19
Nsg94
I8
sa(dp1157
g16
(lp1158
S'd'
asg18
S'N'
sS'.thisRepN'
p1159
I13
sg20
S'Y'
sg31
g32
sS'.thisTrialN'
p1160
I0
sS'.thisN'
p1161
I143
sS'.thisIndex'
p1162
I7
sg15
(lp1163
S'd'
asg30
VF
sg17
S'Y'
sg14
I3
sg19
Nsg94
I7
sa(dp1164
g16
(lp1165
S'k'
asg18
S'Y'
sS'.thisRepN'
p1166
I13
sg20
S'N'
sg31
g32
sS'.thisTrialN'
p1167
I1
sS'.thisN'
p1168
I144
sS'.thisIndex'
p1169
I3
sg15
(lp1170
S'd'
asg30
VF
sg17
S'N'
sg14
I3
sg19
Nsg94
I3
sa(dp1171
g16
(lp1172
S'd'
asg18
S'N'
sS'.thisRepN'
p1173
I13
sg20
S'Y'
sg31
g32
sS'.thisTrialN'
p1174
I2
sS'.thisN'
p1175
I145
sS'.thisIndex'
p1176
I2
sg15
(lp1177
S'k'
asg30
VF
sg17
S'N'
sg14
I3
sg19
Nsg94
I2
sa(dp1178
g16
(lp1179
S'd'
asg18
S'Y'
sS'.thisRepN'
p1180
I13
sg20
S'N'
sg31
g32
sS'.thisTrialN'
p1181
I3
sS'.thisN'
p1182
I146
sS'.thisIndex'
p1183
I9
sg15
(lp1184
S'd'
asg30
VF
sg17
S'Y'
sg14
I3
sg19
Nsg94
I9
sa(dp1185
g16
(lp1186
S'd'
asg18
S'N'
sS'.thisRepN'
p1187
I13
sg20
S'Y'
sg31
g32
sS'.thisTrialN'
p1188
I4
sS'.thisN'
p1189
I147
sS'.thisIndex'
p1190
I10
sg15
(lp1191
S'k'
asg30
VF
sg17
S'N'
sg14
I3
sg19
Nsg94
I10
sa(dp1192
g16
(lp1193
S'd'
asg18
S'N'
sS'.thisRepN'
p1194
I13
sg20
S'Y'
sg31
g32
sS'.thisTrialN'
p1195
I5
sS'.thisN'
p1196
I148
sS'.thisIndex'
p1197
I2
sg15
(lp1198
S'd'
asg30
VF
sg17
S'Y'
sg14
I3
sg19
Nsg94
I2
sa(dp1199
g16
(lp1200
S'k'
asg18
S'Y'
sg22
I31
sS'.thisN'
p1201
I149
sg20
S'Y'
sg31
g32
sS'.thisTrialN'
p1202
I6
sS'.thisRepN'
p1203
I13
sg21
I23
sS'.thisIndex'
p1204
I7
sg23
I18
sg15
(lp1205
S'k'
asg30
VF
sg17
S'Y'
sg14
I3
sg19
(lp1206
S'space'
p1207
asg94
I7
sa(dp1208
g16
(lp1209
S'k'
asg94
I4
sS'.thisRepN'
p1210
I13
sg30
VF
sg31
g32
sS'.thisTrialN'
p1211
I7
sS'.thisN'
p1212
I150
sS'.thisIndex'
p1213
I4
sg15
(lp1214
S'd'
asg17
S'N'
sg14
I4
sa(dp1215
g16
(lp1216
S'k'
asg94
I6
sS'.thisRepN'
p1217
I13
sg30
VF
sg31
g32
sS'.thisTrialN'
p1218
I8
sS'.thisN'
p1219
I151
sS'.thisIndex'
p1220
I6
sg15
(lp1221
S'd'
asg17
S'N'
sg14
I4
sa(dp1222
g16
(lp1223
S'd'
asg18
S'N'
sS'.thisRepN'
p1224
I13
sg20
S'Y'
sg31
g32
sS'.thisTrialN'
p1225
I9
sS'.thisN'
p1226
I152
sS'.thisIndex'
p1227
I10
sg15
(lp1228
S'd'
asg30
VF
sg17
S'Y'
sg14
I4
sg19
Nsg94
I10
sa(dp1229
g18
S'Y'
sS'.thisRepN'
p1230
I13
sg20
S'N'
sg31
g32
sS'.thisTrialN'
p1231
I10
sS'.thisN'
p1232
I153
sS'.thisIndex'
p1233
I7
sg15
Nsg30
VF
sg17
g619
sg14
I4
sg19
Nsg94
I7
sa(dp1234
g16
(lp1235
S'd'
asg18
S'N'
sS'.thisRepN'
p1236
I14
sg20
S'Y'
sg31
g32
sS'.thisTrialN'
p1237
I0
sS'.thisN'
p1238
I154
sS'.thisIndex'
p1239
I4
sg15
(lp1240
S'k'
asg30
VF
sg17
S'N'
sg14
I4
sg19
Nsg94
I4
sa(dp1241
g16
(lp1242
S'k'
asg18
S'Y'
sS'.thisRepN'
p1243
I14
sg20
S'N'
sg31
g32
sS'.thisTrialN'
p1244
I1
sS'.thisN'
p1245
I155
sS'.thisIndex'
p1246
I3
sg15
(lp1247
S'd'
asg30
VF
sg17
S'N'
sg14
I4
sg19
Nsg94
I3
sa(dp1248
g16
(lp1249
S'k'
asg18
S'Y'
sS'.thisRepN'
p1250
I14
sg20
S'N'
sg31
g32
sS'.thisTrialN'
p1251
I2
sS'.thisN'
p1252
I156
sS'.thisIndex'
p1253
I2
sg15
(lp1254
S'k'
asg30
VF
sg17
S'Y'
sg14
I4
sg19
Nsg94
I2
sa(dp1255
g16
(lp1256
S'k'
asg18
S'N'
sS'.thisRepN'
p1257
I14
sg20
S'Y'
sg31
g32
sS'.thisTrialN'
p1258
I3
sS'.thisN'
p1259
I157
sS'.thisIndex'
p1260
I4
sg15
(lp1261
S'd'
asg30
VF
sg17
S'N'
sg14
I4
sg19
Nsg94
I4
sa(dp1262
g16
(lp1263
S'k'
asg18
S'Y'
sS'.thisRepN'
p1264
I14
sg20
S'N'
sg31
g32
sS'.thisTrialN'
p1265
I4
sS'.thisN'
p1266
I158
sS'.thisIndex'
p1267
I4
sg15
(lp1268
S'k'
asg30
VF
sg17
S'Y'
sg14
I4
sg19
Nsg94
I4
sa(dp1269
g16
(lp1270
S'd'
asg18
S'N'
sS'.thisRepN'
p1271
I14
sg20
S'Y'
sg31
g32
sS'.thisTrialN'
p1272
I5
sS'.thisN'
p1273
I159
sS'.thisIndex'
p1274
I9
sg15
(lp1275
S'k'
asg30
VF
sg17
S'N'
sg14
I4
sg19
Nsg94
I9
sa(dp1276
g16
(lp1277
S'd'
asg18
S'Y'
sS'.thisRepN'
p1278
I14
sg20
S'N'
sg31
g32
sS'.thisTrialN'
p1279
I6
sS'.thisN'
p1280
I160
sS'.thisIndex'
p1281
I7
sg15
(lp1282
S'k'
asg30
VF
sg17
S'N'
sg14
I4
sg19
Nsg94
I7
sa(dp1283
g16
(lp1284
S'd'
asg18
S'Y'
sS'.thisRepN'
p1285
I14
sg20
S'N'
sg31
g32
sS'.thisTrialN'
p1286
I7
sS'.thisN'
p1287
I161
sS'.thisIndex'
p1288
I7
sg15
(lp1289
S'd'
asg30
VF
sg17
S'Y'
sg14
I4
sg19
(lp1290
S'd'
asg94
I7
sa(dp1291
g16
(lp1292
S'k'
asg18
S'N'
sS'.thisRepN'
p1293
I14
sg20
S'Y'
sg31
g32
sS'.thisTrialN'
p1294
I8
sS'.thisN'
p1295
I162
sS'.thisIndex'
p1296
I8
sg15
(lp1297
S'k'
asg30
VF
sg17
S'Y'
sg14
I4
sg19
Nsg94
I8
sa(dp1298
g16
(lp1299
S'k'
asg18
S'Y'
sS'.thisRepN'
p1300
I14
sg20
S'N'
sg31
g32
sS'.thisTrialN'
p1301
I9
sS'.thisN'
p1302
I163
sS'.thisIndex'
p1303
I10
sg15
(lp1304
S'd'
asg30
VF
sg17
S'N'
sg14
I4
sg19
(lp1305
S'k'
asg94
I10
sa(dp1306
g16
(lp1307
S'd'
asg18
S'Y'
sS'.thisRepN'
p1308
I14
sg20
S'N'
sg31
g32
sS'.thisTrialN'
p1309
I10
sS'.thisN'
p1310
I164
sS'.thisIndex'
p1311
I0
sg15
(lp1312
S'k'
asg30
VF
sg17
S'N'
sg14
I4
sg19
(lp1313
S'k'
asg94
I0
sa(dp1314
g16
(lp1315
S'd'
asg18
S'Y'
sS'.thisRepN'
p1316
I15
sg20
S'N'
sg31
g32
sS'.thisTrialN'
p1317
I0
sS'.thisN'
p1318
I165
sS'.thisIndex'
p1319
I4
sg15
(lp1320
S'k'
asg30
VF
sg17
S'N'
sg14
I4
sg19
(lp1321
S'd'
asg94
I4
sa(dp1322
g16
(lp1323
S'k'
asg18
S'Y'
sS'.thisRepN'
p1324
I15
sg20
S'N'
sg31
g32
sS'.thisTrialN'
p1325
I1
sS'.thisN'
p1326
I166
sS'.thisIndex'
p1327
I7
sg15
(lp1328
S'k'
asg30
VF
sg17
S'Y'
sg14
I4
sg19
(lp1329
S'd'
asg94
I7
sa(dp1330
g16
(lp1331
S'd'
asg18
S'N'
sS'.thisRepN'
p1332
I15
sg20
S'N'
sg31
g32
sS'.thisTrialN'
p1333
I2
sS'.thisN'
p1334
I167
sS'.thisIndex'
p1335
I10
sg15
(lp1336
S'd'
asg30
VF
sg17
S'Y'
sg14
I4
sg19
(lp1337
S'k'
asg94
I10
sa(dp1338
g16
(lp1339
S'k'
asg18
S'N'
sS'.thisRepN'
p1340
I15
sg20
S'N'
sg31
g32
sS'.thisTrialN'
p1341
I3
sS'.thisN'
p1342
I168
sS'.thisIndex'
p1343
I5
sg15
(lp1344
S'd'
asg30
VF
sg17
S'N'
sg14
I4
sg19
(lp1345
S'k'
asg94
I5
sa(dp1346
g16
(lp1347
S'k'
asg18
S'Y'
sS'.thisRepN'
p1348
I15
sg20
S'N'
sg31
g32
sS'.thisTrialN'
p1349
I4
sS'.thisN'
p1350
I169
sS'.thisIndex'
p1351
I7
sg15
(lp1352
S'k'
asg30
VF
sg17
S'Y'
sg14
I4
sg19
Nsg94
I7
sa(dp1353
g16
(lp1354
S'k'
asg18
S'N'
sS'.thisRepN'
p1355
I15
sg20
S'Y'
sg31
g32
sS'.thisTrialN'
p1356
I5
sS'.thisN'
p1357
I170
sS'.thisIndex'
p1358
I9
sg15
(lp1359
S'd'
asg30
VF
sg17
S'N'
sg14
I4
sg19
Nsg94
I9
sa(dp1360
g16
(lp1361
S'd'
asg18
S'Y'
sS'.thisRepN'
p1362
I15
sg20
S'Y'
sg31
g32
sS'.thisTrialN'
p1363
I6
sS'.thisN'
p1364
I171
sS'.thisIndex'
p1365
I4
sg15
(lp1366
S'k'
asg30
VF
sg17
S'N'
sg14
I4
sg19
(lp1367
S'space'
p1368
asg94
I4
sa(dp1369
g16
(lp1370
S'k'
asg18
S'Y'
sS'.thisRepN'
p1371
I15
sg20
S'N'
sg31
g32
sS'.thisTrialN'
p1372
I7
sS'.thisN'
p1373
I172
sS'.thisIndex'
p1374
I7
sg15
(lp1375
S'd'
asg30
VF
sg17
S'N'
sg14
I4
sg19
Nsg94
I7
sa(dp1376
g16
(lp1377
S'k'
asg18
S'N'
sS'.thisRepN'
p1378
I15
sg20
S'Y'
sg31
g32
sS'.thisTrialN'
p1379
I8
sS'.thisN'
p1380
I173
sS'.thisIndex'
p1381
I4
sg15
(lp1382
S'k'
asg30
VF
sg17
S'Y'
sg14
I4
sg19
Nsg94
I4
sa(dp1383
g16
(lp1384
S'k'
asg18
S'Y'
sS'.thisRepN'
p1385
I15
sg20
S'N'
sg31
g32
sS'.thisTrialN'
p1386
I9
sS'.thisN'
p1387
I174
sS'.thisIndex'
p1388
I0
sg15
(lp1389
S'k'
asg30
VF
sg17
S'Y'
sg14
I4
sg19
Nsg94
I0
sa(dp1390
g16
(lp1391
S'k'
asg18
S'N'
sS'.thisRepN'
p1392
I15
sg20
S'Y'
sg31
g32
sS'.thisTrialN'
p1393
I10
sS'.thisN'
p1394
I175
sS'.thisIndex'
p1395
I3
sg15
(lp1396
S'k'
asg30
VF
sg17
S'Y'
sg14
I4
sg19
Nsg94
I3
sa(dp1397
g16
(lp1398
S'd'
asg18
S'N'
sS'.thisRepN'
p1399
I16
sg20
S'N'
sg31
g32
sS'.thisTrialN'
p1400
I0
sS'.thisN'
p1401
I176
sS'.thisIndex'
p1402
I0
sg15
(lp1403
S'd'
asg30
VF
sg17
S'Y'
sg14
I4
sg19
(lp1404
S'd'
asg94
I0
sa(dp1405
g16
(lp1406
S'k'
asg18
S'N'
sS'.thisRepN'
p1407
I16
sg20
S'Y'
sg31
g32
sS'.thisTrialN'
p1408
I1
sS'.thisN'
p1409
I177
sS'.thisIndex'
p1410
I5
sg15
(lp1411
S'd'
asg30
VF
sg17
S'N'
sg14
I4
sg19
Nsg94
I5
sa(dp1412
g16
(lp1413
S'd'
asg18
S'N'
sS'.thisRepN'
p1414
I16
sg20
S'Y'
sg31
g32
sS'.thisTrialN'
p1415
I2
sS'.thisN'
p1416
I178
sS'.thisIndex'
p1417
I7
sg15
(lp1418
S'd'
asg30
VF
sg17
S'Y'
sg14
I4
sg19
Nsg94
I7
sa(dp1419
g16
(lp1420
S'k'
asg18
S'Y'
sS'.thisRepN'
p1421
I16
sg20
S'N'
sg31
g32
sS'.thisTrialN'
p1422
I3
sS'.thisN'
p1423
I179
sS'.thisIndex'
p1424
I7
sg15
(lp1425
S'k'
asg30
VF
sg17
S'Y'
sg14
I4
sg19
Nsg94
I7
sa(dp1426
g18
S'Y'
sS'.thisRepN'
p1427
I16
sg20
S'N'
sg31
g32
sS'.thisTrialN'
p1428
I4
sS'.thisN'
p1429
I180
sS'.thisIndex'
p1430
I6
sg15
Nsg30
VF
sg17
g619
sg14
I4
sg19
Nsg94
I6
sa(dp1431
g18
S'N'
sS'.thisRepN'
p1432
I16
sg20
S'Y'
sg31
g32
sS'.thisTrialN'
p1433
I5
sS'.thisN'
p1434
I181
sS'.thisIndex'
p1435
I7
sg15
Nsg30
VF
sg17
g619
sg14
I4
sg19
Nsg94
I7
sa(dp1436
g16
(lp1437
S'k'
asg18
S'N'
sS'.thisRepN'
p1438
I16
sg20
S'Y'
sg31
g32
sS'.thisTrialN'
p1439
I6
sS'.thisN'
p1440
I182
sS'.thisIndex'
p1441
I6
sg15
(lp1442
S'd'
asg30
VF
sg17
S'N'
sg14
I4
sg19
Nsg94
I6
sa(dp1443
g16
(lp1444
S'd'
asg18
S'N'
sS'.thisRepN'
p1445
I16
sg20
S'Y'
sg31
g32
sS'.thisTrialN'
p1446
I7
sS'.thisN'
p1447
I183
sS'.thisIndex'
p1448
I6
sg15
(lp1449
S'k'
asg30
VF
sg17
S'N'
sg14
I4
sg19
Nsg94
I6
sa(dp1450
g16
(lp1451
S'k'
asg18
S'N'
sS'.thisRepN'
p1452
I16
sg20
S'Y'
sg31
g32
sS'.thisTrialN'
p1453
I8
sS'.thisN'
p1454
I184
sS'.thisIndex'
p1455
I10
sg15
(lp1456
S'd'
asg30
VF
sg17
S'N'
sg14
I4
sg19
Nsg94
I10
sa(dp1457
g16
(lp1458
S'd'
asg18
S'Y'
sS'.thisRepN'
p1459
I16
sg20
S'N'
sg31
g32
sS'.thisTrialN'
p1460
I9
sS'.thisN'
p1461
I185
sS'.thisIndex'
p1462
I0
sg15
(lp1463
S'k'
asg30
VF
sg17
S'N'
sg14
I4
sg19
Nsg94
I0
sa(dp1464
g16
(lp1465
S'd'
asg18
S'N'
sS'.thisRepN'
p1466
I16
sg20
S'N'
sg31
g32
sS'.thisTrialN'
p1467
I10
sS'.thisN'
p1468
I186
sS'.thisIndex'
p1469
I3
sg15
(lp1470
S'k'
asg30
VF
sg17
S'N'
sg14
I4
sg19
(lp1471
S'space'
p1472
asg94
I3
sa(dp1473
g16
(lp1474
S'd'
asg18
S'Y'
sS'.thisRepN'
p1475
I17
sg20
S'Y'
sg31
g32
sS'.thisTrialN'
p1476
I0
sS'.thisN'
p1477
I187
sS'.thisIndex'
p1478
I2
sg15
(lp1479
S'k'
asg30
VF
sg17
S'N'
sg14
I4
sg19
(lp1480
S'space'
p1481
asg94
I2
sa(dp1482
g16
(lp1483
S'k'
asg18
S'Y'
sS'.thisRepN'
p1484
I17
sg20
S'N'
sg31
g32
sS'.thisTrialN'
p1485
I1
sS'.thisN'
p1486
I188
sS'.thisIndex'
p1487
I4
sg15
(lp1488
S'd'
asg30
VF
sg17
S'N'
sg14
I4
sg19
(lp1489
S'd'
asg94
I4
sa(dp1490
g16
(lp1491
S'd'
asg18
S'Y'
sS'.thisRepN'
p1492
I17
sg20
S'N'
sg31
g32
sS'.thisTrialN'
p1493
I2
sS'.thisN'
p1494
I189
sS'.thisIndex'
p1495
I10
sg15
(lp1496
S'k'
asg30
VF
sg17
S'N'
sg14
I4
sg19
Nsg94
I10
sa(dp1497
g16
(lp1498
S'd'
asg18
S'N'
sS'.thisRepN'
p1499
I17
sg20
S'Y'
sg31
g32
sS'.thisTrialN'
p1500
I3
sS'.thisN'
p1501
I190
sS'.thisIndex'
p1502
I3
sg15
(lp1503
S'd'
asg30
VF
sg17
S'Y'
sg14
I4
sg19
Nsg94
I3
sa(dp1504
g16
(lp1505
S'k'
asg18
S'N'
sS'.thisRepN'
p1506
I17
sg20
S'Y'
sg31
g32
sS'.thisTrialN'
p1507
I4
sS'.thisN'
p1508
I191
sS'.thisIndex'
p1509
I4
sg15
(lp1510
S'k'
asg30
VF
sg17
S'Y'
sg14
I4
sg19
Nsg94
I4
sa(dp1511
g16
(lp1512
S'k'
asg18
S'N'
sS'.thisRepN'
p1513
I17
sg20
S'Y'
sg31
g32
sS'.thisTrialN'
p1514
I5
sS'.thisN'
p1515
I192
sS'.thisIndex'
p1516
I6
sg15
(lp1517
S'd'
asg30
VF
sg17
S'N'
sg14
I4
sg19
Nsg94
I6
sa(dp1518
g16
(lp1519
S'k'
asg18
S'N'
sS'.thisRepN'
p1520
I17
sg20
S'Y'
sg31
g32
sS'.thisTrialN'
p1521
I6
sS'.thisN'
p1522
I193
sS'.thisIndex'
p1523
I2
sg15
(lp1524
S'k'
asg30
VF
sg17
S'Y'
sg14
I4
sg19
Nsg94
I2
sa(dp1525
g16
(lp1526
S'd'
asg18
S'N'
sS'.thisRepN'
p1527
I17
sg20
S'Y'
sg31
g32
sS'.thisTrialN'
p1528
I7
sS'.thisN'
p1529
I194
sS'.thisIndex'
p1530
I5
sg15
(lp1531
S'k'
asg30
VF
sg17
S'N'
sg14
I4
sg19
Nsg94
I5
sa(dp1532
g18
S'Y'
sS'.thisRepN'
p1533
I17
sg20
S'N'
sg31
g32
sS'.thisTrialN'
p1534
I8
sS'.thisN'
p1535
I195
sS'.thisIndex'
p1536
I5
sg15
Nsg30
VF
sg17
g619
sg14
I4
sg19
Nsg94
I5
sa(dp1537
g16
(lp1538
S'd'
asg18
S'N'
sS'.thisRepN'
p1539
I17
sg20
S'Y'
sg31
g32
sS'.thisTrialN'
p1540
I9
sS'.thisN'
p1541
I196
sS'.thisIndex'
p1542
I6
sg15
(lp1543
S'd'
asg30
VF
sg17
S'Y'
sg14
I4
sg19
Nsg94
I6
sa(dp1544
g16
(lp1545
S'd'
asg18
S'N'
sS'.thisRepN'
p1546
I17
sg20
S'Y'
sg31
g32
sS'.thisTrialN'
p1547
I10
sS'.thisN'
p1548
I197
sS'.thisIndex'
p1549
I5
sg15
(lp1550
S'd'
asg30
VF
sg17
S'Y'
sg14
I4
sg19
Nsg94
I5
sa(dp1551
g16
(lp1552
S'k'
asg18
S'Y'
sS'.thisRepN'
p1553
I18
sg20
S'N'
sg31
g32
sS'.thisTrialN'
p1554
I0
sS'.thisN'
p1555
I198
sS'.thisIndex'
p1556
I1
sg15
(lp1557
S'k'
asg30
VF
sg17
S'Y'
sg14
I4
sg19
Nsg94
I1
sa(dp1558
g16
(lp1559
S'd'
asg18
S'Y'
sg22
I23
sS'.thisN'
p1560
I199
sg20
S'N'
sg31
g32
sS'.thisTrialN'
p1561
I1
sS'.thisRepN'
p1562
I18
sg21
I20
sS'.thisIndex'
p1563
I1
sg23
I23
sg15
(lp1564
S'k'
asg30
VF
sg17
S'N'
sg14
I4
sg19
Nsg94
I1
sa(dp1565
g94
I0
sS'.thisN'
p1566
I200
sg30
VF
sg31
g32
sS'.thisTrialN'
p1567
I2
sS'.thisRepN'
p1568
I18
sS'.thisIndex'
p1569
I0
sg15
Nsg17
g619
sg14
I5
sa(dp1570
g16
(lp1571
S'd'
asg94
I8
sS'.thisRepN'
p1572
I18
sg30
VF
sg31
g32
sS'.thisTrialN'
p1573
I3
sS'.thisN'
p1574
I201
sS'.thisIndex'
p1575
I8
sg15
(lp1576
S'd'
asg17
S'Y'
sg14
I5
sa(dp1577
g16
(lp1578
S'k'
asg18
S'Y'
sS'.thisRepN'
p1579
I18
sg20
S'N'
sg31
g32
sS'.thisTrialN'
p1580
I4
sS'.thisN'
p1581
I202
sS'.thisIndex'
p1582
I9
sg15
(lp1583
S'd'
asg30
VF
sg17
S'N'
sg14
I5
sg19
Nsg94
I9
sa(dp1584
g16
(lp1585
S'k'
asg18
S'N'
sS'.thisRepN'
p1586
I18
sg20
S'Y'
sg31
g32
sS'.thisTrialN'
p1587
I5
sS'.thisN'
p1588
I203
sS'.thisIndex'
p1589
I9
sg15
(lp1590
S'k'
asg30
VF
sg17
S'Y'
sg14
I5
sg19
Nsg94
I9
sa(dp1591
g16
(lp1592
S'd'
asg18
S'Y'
sS'.thisRepN'
p1593
I18
sg20
S'Y'
sg31
g32
sS'.thisTrialN'
p1594
I6
sS'.thisN'
p1595
I204
sS'.thisIndex'
p1596
I6
sg15
(lp1597
S'k'
asg30
VF
sg17
S'N'
sg14
I5
sg19
(lp1598
S'space'
p1599
asg94
I6
sa(dp1600
g16
(lp1601
S'd'
asg18
S'N'
sS'.thisRepN'
p1602
I18
sg20
S'Y'
sg31
g32
sS'.thisTrialN'
p1603
I7
sS'.thisN'
p1604
I205
sS'.thisIndex'
p1605
I3
sg15
(lp1606
S'd'
asg30
VF
sg17
S'Y'
sg14
I5
sg19
Nsg94
I3
sa(dp1607
g16
(lp1608
S'd'
asg18
S'N'
sS'.thisRepN'
p1609
I18
sg20
S'Y'
sg31
g32
sS'.thisTrialN'
p1610
I8
sS'.thisN'
p1611
I206
sS'.thisIndex'
p1612
I4
sg15
(lp1613
S'd'
asg30
VF
sg17
S'Y'
sg14
I5
sg19
Nsg94
I4
sa(dp1614
g16
(lp1615
S'd'
asg18
S'Y'
sS'.thisRepN'
p1616
I18
sg20
S'N'
sg31
g32
sS'.thisTrialN'
p1617
I9
sS'.thisN'
p1618
I207
sS'.thisIndex'
p1619
I0
sg15
(lp1620
S'd'
asg30
VF
sg17
S'Y'
sg14
I5
sg19
Nsg94
I0
sa(dp1621
g16
(lp1622
S'k'
asg18
S'N'
sS'.thisRepN'
p1623
I18
sg20
S'Y'
sg31
g32
sS'.thisTrialN'
p1624
I10
sS'.thisN'
p1625
I208
sS'.thisIndex'
p1626
I6
sg15
(lp1627
S'd'
asg30
VF
sg17
S'N'
sg14
I5
sg19
Nsg94
I6
sa(dp1628
g18
S'N'
sS'.thisRepN'
p1629
I19
sg20
S'Y'
sg31
g32
sS'.thisTrialN'
p1630
I0
sS'.thisN'
p1631
I209
sS'.thisIndex'
p1632
I1
sg15
Nsg30
VF
sg17
g619
sg14
I5
sg19
Nsg94
I1
sa(dp1633
g16
(lp1634
S'd'
asg18
S'N'
sS'.thisRepN'
p1635
I19
sg20
S'Y'
sg31
g32
sS'.thisTrialN'
p1636
I1
sS'.thisN'
p1637
I210
sS'.thisIndex'
p1638
I0
sg15
(lp1639
S'd'
asg30
VF
sg17
S'Y'
sg14
I5
sg19
Nsg94
I0
sa(dp1640
g16
(lp1641
S'd'
asg18
S'Y'
sS'.thisRepN'
p1642
I19
sg20
S'N'
sg31
g32
sS'.thisTrialN'
p1643
I2
sS'.thisN'
p1644
I211
sS'.thisIndex'
p1645
I2
sg15
(lp1646
S'd'
asg30
VF
sg17
S'Y'
sg14
I5
sg19
Nsg94
I2
sa(dp1647
g16
(lp1648
S'k'
asg18
S'N'
sS'.thisRepN'
p1649
I19
sg20
S'Y'
sg31
g32
sS'.thisTrialN'
p1650
I3
sS'.thisN'
p1651
I212
sS'.thisIndex'
p1652
I3
sg15
(lp1653
S'd'
asg30
VF
sg17
S'N'
sg14
I5
sg19
Nsg94
I3
sa(dp1654
g18
S'Y'
sS'.thisRepN'
p1655
I19
sg20
S'N'
sg31
g32
sS'.thisTrialN'
p1656
I4
sS'.thisN'
p1657
I213
sS'.thisIndex'
p1658
I9
sg15
Nsg30
VF
sg17
g619
sg14
I5
sg19
Nsg94
I9
sa(dp1659
g16
(lp1660
S'k'
asg18
S'N'
sS'.thisRepN'
p1661
I19
sg20
S'Y'
sg31
g32
sS'.thisTrialN'
p1662
I5
sS'.thisN'
p1663
I214
sS'.thisIndex'
p1664
I1
sg15
(lp1665
S'd'
asg30
VF
sg17
S'N'
sg14
I5
sg19
Nsg94
I1
sa(dp1666
g16
(lp1667
S'k'
asg18
S'Y'
sS'.thisRepN'
p1668
I19
sg20
S'N'
sg31
g32
sS'.thisTrialN'
p1669
I6
sS'.thisN'
p1670
I215
sS'.thisIndex'
p1671
I0
sg15
(lp1672
S'k'
asg30
VF
sg17
S'Y'
sg14
I5
sg19
Nsg94
I0
sa(dp1673
g16
(lp1674
S'd'
asg18
S'Y'
sS'.thisRepN'
p1675
I19
sg20
S'Y'
sg31
g32
sS'.thisTrialN'
p1676
I7
sS'.thisN'
p1677
I216
sS'.thisIndex'
p1678
I5
sg15
(lp1679
S'd'
asg30
VF
sg17
S'Y'
sg14
I5
sg19
(lp1680
S'space'
p1681
asg94
I5
sa(dp1682
g16
(lp1683
S'k'
asg18
S'N'
sS'.thisRepN'
p1684
I19
sg20
S'Y'
sg31
g32
sS'.thisTrialN'
p1685
I8
sS'.thisN'
p1686
I217
sS'.thisIndex'
p1687
I3
sg15
(lp1688
S'd'
asg30
VF
sg17
S'N'
sg14
I5
sg19
Nsg94
I3
sa(dp1689
g16
(lp1690
S'd'
asg18
S'Y'
sS'.thisRepN'
p1691
I19
sg20
S'Y'
sg31
g32
sS'.thisTrialN'
p1692
I9
sS'.thisN'
p1693
I218
sS'.thisIndex'
p1694
I4
sg15
(lp1695
S'k'
asg30
VF
sg17
S'N'
sg14
I5
sg19
(lp1696
S'space'
p1697
asg94
I4
sa(dp1698
g16
(lp1699
S'd'
asg18
S'N'
sS'.thisRepN'
p1700
I19
sg20
S'Y'
sg31
g32
sS'.thisTrialN'
p1701
I10
sS'.thisN'
p1702
I219
sS'.thisIndex'
p1703
I2
sg15
(lp1704
S'd'
asg30
VF
sg17
S'Y'
sg14
I5
sg19
Nsg94
I2
sa(dp1705
g16
(lp1706
S'd'
asg18
S'N'
sS'.thisRepN'
p1707
I20
sg20
S'Y'
sg31
g32
sS'.thisTrialN'
p1708
I0
sS'.thisN'
p1709
I220
sS'.thisIndex'
p1710
I9
sg15
(lp1711
S'd'
asg30
VF
sg17
S'Y'
sg14
I5
sg19
Nsg94
I9
sa(dp1712
g16
(lp1713
S'd'
asg18
S'N'
sS'.thisRepN'
p1714
I20
sg20
S'N'
sg31
g32
sS'.thisTrialN'
p1715
I1
sS'.thisN'
p1716
I221
sS'.thisIndex'
p1717
I9
sg15
(lp1718
S'k'
asg30
VF
sg17
S'N'
sg14
I5
sg19
(lp1719
S'space'
p1720
asg94
I9
sa(dp1721
g18
S'N'
sS'.thisRepN'
p1722
I20
sg20
S'Y'
sg31
g32
sS'.thisTrialN'
p1723
I2
sS'.thisN'
p1724
I222
sS'.thisIndex'
p1725
I4
sg15
Nsg30
VF
sg17
g619
sg14
I5
sg19
Nsg94
I4
sa(dp1726
g16
(lp1727
S'k'
asg18
S'Y'
sS'.thisRepN'
p1728
I20
sg20
S'Y'
sg31
g32
sS'.thisTrialN'
p1729
I3
sS'.thisN'
p1730
I223
sS'.thisIndex'
p1731
I9
sg15
(lp1732
S'd'
asg30
VF
sg17
S'N'
sg14
I5
sg19
(lp1733
S'space'
p1734
asg94
I9
sa(dp1735
g16
(lp1736
S'd'
asg18
S'N'
sS'.thisRepN'
p1737
I20
sg20
S'N'
sg31
g32
sS'.thisTrialN'
p1738
I4
sS'.thisN'
p1739
I224
sS'.thisIndex'
p1740
I7
sg15
(lp1741
S'k'
asg30
VF
sg17
S'N'
sg14
I5
sg19
(lp1742
S'k'
asg94
I7
sa(dp1743
g16
(lp1744
S'd'
asg18
S'N'
sS'.thisRepN'
p1745
I20
sg20
S'Y'
sg31
g32
sS'.thisTrialN'
p1746
I5
sS'.thisN'
p1747
I225
sS'.thisIndex'
p1748
I10
sg15
(lp1749
S'd'
asg30
VF
sg17
S'Y'
sg14
I5
sg19
Nsg94
I10
sa(dp1750
g16
(lp1751
S'd'
asg18
S'Y'
sS'.thisRepN'
p1752
I20
sg20
S'N'
sg31
g32
sS'.thisTrialN'
p1753
I6
sS'.thisN'
p1754
I226
sS'.thisIndex'
p1755
I7
sg15
(lp1756
S'd'
asg30
VF
sg17
S'Y'
sg14
I5
sg19
Nsg94
I7
sa(dp1757
g16
(lp1758
S'k'
asg18
S'Y'
sS'.thisRepN'
p1759
I20
sg20
S'N'
sg31
g32
sS'.thisTrialN'
p1760
I7
sS'.thisN'
p1761
I227
sS'.thisIndex'
p1762
I5
sg15
(lp1763
S'k'
asg30
VF
sg17
S'Y'
sg14
I5
sg19
Nsg94
I5
sa(dp1764
g16
(lp1765
S'k'
asg18
S'N'
sS'.thisRepN'
p1766
I20
sg20
S'N'
sg31
g32
sS'.thisTrialN'
p1767
I8
sS'.thisN'
p1768
I228
sS'.thisIndex'
p1769
I9
sg15
(lp1770
S'd'
asg30
VF
sg17
S'N'
sg14
I5
sg19
(lp1771
S'space'
p1772
asg94
I9
sa(dp1773
g16
(lp1774
S'd'
asg18
S'Y'
sS'.thisRepN'
p1775
I20
sg20
S'Y'
sg31
g32
sS'.thisTrialN'
p1776
I9
sS'.thisN'
p1777
I229
sS'.thisIndex'
p1778
I6
sg15
(lp1779
S'k'
asg30
VF
sg17
S'N'
sg14
I5
sg19
(lp1780
S'space'
p1781
asg94
I6
sa(dp1782
g16
(lp1783
S'd'
asg18
S'Y'
sS'.thisRepN'
p1784
I20
sg20
S'N'
sg31
g32
sS'.thisTrialN'
p1785
I10
sS'.thisN'
p1786
I230
sS'.thisIndex'
p1787
I9
sg15
(lp1788
S'k'
asg30
VF
sg17
S'N'
sg14
I5
sg19
(lp1789
S'd'
asg94
I9
sa(dp1790
g18
S'N'
sS'.thisRepN'
p1791
I21
sg20
S'Y'
sg31
g32
sS'.thisTrialN'
p1792
I0
sS'.thisN'
p1793
I231
sS'.thisIndex'
p1794
I1
sg15
Nsg30
VF
sg17
g619
sg14
I5
sg19
Nsg94
I1
sa(dp1795
g16
(lp1796
S'd'
asg18
S'Y'
sS'.thisRepN'
p1797
I21
sg20
S'N'
sg31
g32
sS'.thisTrialN'
p1798
I1
sS'.thisN'
p1799
I232
sS'.thisIndex'
p1800
I6
sg15
(lp1801
S'd'
asg30
VF
sg17
S'Y'
sg14
I5
sg19
Nsg94
I6
sa(dp1802
g16
(lp1803
S'd'
asg18
S'Y'
sS'.thisRepN'
p1804
I21
sg20
S'N'
sg31
g32
sS'.thisTrialN'
p1805
I2
sS'.thisN'
p1806
I233
sS'.thisIndex'
p1807
I2
sg15
(lp1808
S'k'
asg30
VF
sg17
S'N'
sg14
I5
sg19
Nsg94
I2
sa(dp1809
g16
(lp1810
S'd'
asg18
S'Y'
sS'.thisRepN'
p1811
I21
sg20
S'Y'
sg31
g32
sS'.thisTrialN'
p1812
I3
sS'.thisN'
p1813
I234
sS'.thisIndex'
p1814
I10
sg15
(lp1815
S'k'
asg30
VF
sg17
S'N'
sg14
I5
sg19
(lp1816
S'space'
p1817
asg94
I10
sa(dp1818
g16
(lp1819
S'd'
asg18
S'Y'
sS'.thisRepN'
p1820
I21
sg20
S'Y'
sg31
g32
sS'.thisTrialN'
p1821
I4
sS'.thisN'
p1822
I235
sS'.thisIndex'
p1823
I3
sg15
(lp1824
S'd'
asg30
VF
sg17
S'Y'
sg14
I5
sg19
(lp1825
S'space'
p1826
asg94
I3
sa(dp1827
g16
(lp1828
S'd'
asg18
S'Y'
sS'.thisRepN'
p1829
I21
sg20
S'Y'
sg31
g32
sS'.thisTrialN'
p1830
I5
sS'.thisN'
p1831
I236
sS'.thisIndex'
p1832
I7
sg15
(lp1833
S'k'
asg30
VF
sg17
S'N'
sg14
I5
sg19
(lp1834
S'space'
p1835
asg94
I7
sa(dp1836
g16
(lp1837
S'd'
asg18
S'N'
sS'.thisRepN'
p1838
I21
sg20
S'N'
sg31
g32
sS'.thisTrialN'
p1839
I6
sS'.thisN'
p1840
I237
sS'.thisIndex'
p1841
I9
sg15
(lp1842
S'd'
asg30
VF
sg17
S'Y'
sg14
I5
sg19
(lp1843
S'space'
p1844
asg94
I9
sa(dp1845
g16
(lp1846
S'k'
asg18
S'N'
sS'.thisRepN'
p1847
I21
sg20
S'N'
sg31
g32
sS'.thisTrialN'
p1848
I7
sS'.thisN'
p1849
I238
sS'.thisIndex'
p1850
I1
sg15
(lp1851
S'd'
asg30
VF
sg17
S'N'
sg14
I5
sg19
(lp1852
S'space'
p1853
asg94
I1
sa(dp1854
g16
(lp1855
S'k'
asg18
S'Y'
sS'.thisRepN'
p1856
I21
sg20
S'Y'
sg31
g32
sS'.thisTrialN'
p1857
I8
sS'.thisN'
p1858
I239
sS'.thisIndex'
p1859
I2
sg15
(lp1860
S'd'
asg30
VF
sg17
S'N'
sg14
I5
sg19
(lp1861
S'space'
p1862
asg94
I2
sa(dp1863
g16
(lp1864
S'd'
asg18
S'Y'
sS'.thisRepN'
p1865
I21
sg20
S'Y'
sg31
g32
sS'.thisTrialN'
p1866
I9
sS'.thisN'
p1867
I240
sS'.thisIndex'
p1868
I6
sg15
(lp1869
S'k'
asg30
VF
sg17
S'N'
sg14
I5
sg19
(lp1870
S'space'
p1871
asg94
I6
sa(dp1872
g16
(lp1873
S'd'
asg18
S'N'
sS'.thisRepN'
p1874
I21
sg20
S'N'
sg31
g32
sS'.thisTrialN'
p1875
I10
sS'.thisN'
p1876
I241
sS'.thisIndex'
p1877
I8
sg15
(lp1878
S'k'
asg30
VF
sg17
S'N'
sg14
I5
sg19
(lp1879
S'd'
asg94
I8
sa(dp1880
g16
(lp1881
S'k'
asg18
S'N'
sS'.thisRepN'
p1882
I22
sg20
S'N'
sg31
g32
sS'.thisTrialN'
p1883
I0
sS'.thisN'
p1884
I242
sS'.thisIndex'
p1885
I10
sg15
(lp1886
S'd'
asg30
VF
sg17
S'N'
sg14
I5
sg19
(lp1887
S'd'
asg94
I10
sa(dp1888
g16
(lp1889
S'd'
asg18
S'N'
sS'.thisRepN'
p1890
I22
sg20
S'N'
sg31
g32
sS'.thisTrialN'
p1891
I1
sS'.thisN'
p1892
I243
sS'.thisIndex'
p1893
I8
sg15
(lp1894
S'k'
asg30
VF
sg17
S'N'
sg14
I5
sg19
(lp1895
S'space'
p1896
asg94
I8
sa(dp1897
g18
S'N'
sS'.thisRepN'
p1898
I22
sg20
S'N'
sg31
g32
sS'.thisTrialN'
p1899
I2
sS'.thisN'
p1900
I244
sS'.thisIndex'
p1901
I9
sg15
Nsg30
VF
sg17
g619
sg14
I5
sg19
(lp1902
S'd'
asg94
I9
sa(dp1903
g16
(lp1904
S'k'
asg18
S'N'
sS'.thisRepN'
p1905
I22
sg20
S'Y'
sg31
g32
sS'.thisTrialN'
p1906
I3
sS'.thisN'
p1907
I245
sS'.thisIndex'
p1908
I7
sg15
(lp1909
S'd'
asg30
VF
sg17
S'N'
sg14
I5
sg19
Nsg94
I7
sa(dp1910
g16
(lp1911
S'k'
asg18
S'N'
sS'.thisRepN'
p1912
I22
sg20
S'Y'
sg31
g32
sS'.thisTrialN'
p1913
I4
sS'.thisN'
p1914
I246
sS'.thisIndex'
p1915
I1
sg15
(lp1916
S'k'
asg30
VF
sg17
S'Y'
sg14
I5
sg19
Nsg94
I1
sa(dp1917
g16
(lp1918
S'k'
asg18
S'N'
sS'.thisRepN'
p1919
I22
sg20
S'Y'
sg31
g32
sS'.thisTrialN'
p1920
I5
sS'.thisN'
p1921
I247
sS'.thisIndex'
p1922
I9
sg15
(lp1923
S'd'
asg30
VF
sg17
S'N'
sg14
I5
sg19
Nsg94
I9
sa(dp1924
g16
(lp1925
S'k'
asg18
S'Y'
sS'.thisRepN'
p1926
I22
sg20
S'N'
sg31
g32
sS'.thisTrialN'
p1927
I6
sS'.thisN'
p1928
I248
sS'.thisIndex'
p1929
I6
sg15
(lp1930
S'k'
asg30
VF
sg17
S'Y'
sg14
I5
sg19
Nsg94
I6
sa(dp1931
g16
(lp1932
S'd'
asg18
S'Y'
sg22
I28
sS'.thisN'
p1933
I249
sg20
S'Y'
sg31
g32
sS'.thisTrialN'
p1934
I7
sS'.thisRepN'
p1935
I22
sg21
I20
sS'.thisIndex'
p1936
I4
sg23
I22
sg15
(lp1937
S'd'
asg30
VF
sg17
S'Y'
sg14
I5
sg19
(lp1938
S'space'
p1939
asg94
I4
sa(dp1940
g16
(lp1941
S'd'
asg94
I10
sS'.thisRepN'
p1942
I22
sg30
VF
sg31
g32
sS'.thisTrialN'
p1943
I8
sS'.thisN'
p1944
I250
sS'.thisIndex'
p1945
I10
sg15
(lp1946
S'd'
asg17
S'Y'
sg14
I6
sa(dp1947
g16
(lp1948
S'k'
asg94
I3
sS'.thisRepN'
p1949
I22
sg30
VF
sg31
g32
sS'.thisTrialN'
p1950
I9
sS'.thisN'
p1951
I251
sS'.thisIndex'
p1952
I3
sg15
(lp1953
S'd'
asg17
S'N'
sg14
I6
sa(dp1954
g16
(lp1955
S'd'
asg18
S'Y'
sS'.thisRepN'
p1956
I22
sg20
S'Y'
sg31
g32
sS'.thisTrialN'
p1957
I10
sS'.thisN'
p1958
I252
sS'.thisIndex'
p1959
I4
sg15
(lp1960
S'd'
asg30
VF
sg17
S'Y'
sg14
I6
sg19
(lp1961
S'space'
p1962
asg94
I4
sa(dp1963
g16
(lp1964
S'd'
asg18
S'Y'
sS'.thisRepN'
p1965
I23
sg20
S'Y'
sg31
g32
sS'.thisTrialN'
p1966
I0
sS'.thisN'
p1967
I253
sS'.thisIndex'
p1968
I1
sg15
(lp1969
S'd'
asg30
VF
sg17
S'Y'
sg14
I6
sg19
(lp1970
S'space'
p1971
asg94
I1
sa(dp1972
g16
(lp1973
S'd'
asg18
S'Y'
sS'.thisRepN'
p1974
I23
sg20
S'Y'
sg31
g32
sS'.thisTrialN'
p1975
I1
sS'.thisN'
p1976
I254
sS'.thisIndex'
p1977
I4
sg15
(lp1978
S'd'
asg30
VF
sg17
S'Y'
sg14
I6
sg19
(lp1979
S'space'
p1980
asg94
I4
sa(dp1981
g16
(lp1982
S'k'
asg18
S'N'
sS'.thisRepN'
p1983
I23
sg20
S'Y'
sg31
g32
sS'.thisTrialN'
p1984
I2
sS'.thisN'
p1985
I255
sS'.thisIndex'
p1986
I5
sg15
(lp1987
S'k'
asg30
VF
sg17
S'Y'
sg14
I6
sg19
Nsg94
I5
sa(dp1988
g16
(lp1989
S'd'
asg18
S'N'
sS'.thisRepN'
p1990
I23
sg20
S'Y'
sg31
g32
sS'.thisTrialN'
p1991
I3
sS'.thisN'
p1992
I256
sS'.thisIndex'
p1993
I10
sg15
(lp1994
S'd'
asg30
VF
sg17
S'Y'
sg14
I6
sg19
Nsg94
I10
sa(dp1995
g16
(lp1996
S'k'
asg18
S'Y'
sS'.thisRepN'
p1997
I23
sg20
S'N'
sg31
g32
sS'.thisTrialN'
p1998
I4
sS'.thisN'
p1999
I257
sS'.thisIndex'
p2000
I8
sg15
(lp2001
S'k'
asg30
VF
sg17
S'Y'
sg14
I6
sg19
Nsg94
I8
sa(dp2002
g16
(lp2003
S'k'
asg18
S'Y'
sS'.thisRepN'
p2004
I23
sg20
S'Y'
sg31
g32
sS'.thisTrialN'
p2005
I5
sS'.thisN'
p2006
I258
sS'.thisIndex'
p2007
I6
sg15
(lp2008
S'd'
asg30
VF
sg17
S'N'
sg14
I6
sg19
(lp2009
S'space'
p2010
asg94
I6
sa(dp2011
g18
S'N'
sS'.thisRepN'
p2012
I23
sg20
S'Y'
sg31
g32
sS'.thisTrialN'
p2013
I6
sS'.thisN'
p2014
I259
sS'.thisIndex'
p2015
I4
sg15
Nsg30
VF
sg17
g619
sg14
I6
sg19
Nsg94
I4
sa(dp2016
g16
(lp2017
S'k'
asg18
S'Y'
sS'.thisRepN'
p2018
I23
sg20
S'N'
sg31
g32
sS'.thisTrialN'
p2019
I7
sS'.thisN'
p2020
I260
sS'.thisIndex'
p2021
I6
sg15
(lp2022
S'k'
asg30
VF
sg17
S'Y'
sg14
I6
sg19
(lp2023
S'd'
asg94
I6
sa(dp2024
g16
(lp2025
S'd'
asg18
S'Y'
sS'.thisRepN'
p2026
I23
sg20
S'N'
sg31
g32
sS'.thisTrialN'
p2027
I8
sS'.thisN'
p2028
I261
sS'.thisIndex'
p2029
I8
sg15
(lp2030
S'k'
asg30
VF
sg17
S'N'
sg14
I6
sg19
Nsg94
I8
sa(dp2031
g16
(lp2032
S'k'
asg18
S'N'
sS'.thisRepN'
p2033
I23
sg20
S'Y'
sg31
g32
sS'.thisTrialN'
p2034
I9
sS'.thisN'
p2035
I262
sS'.thisIndex'
p2036
I7
sg15
(lp2037
S'd'
asg30
VF
sg17
S'N'
sg14
I6
sg19
Nsg94
I7
sa(dp2038
g16
(lp2039
S'k'
asg18
S'Y'
sS'.thisRepN'
p2040
I23
sg20
S'Y'
sg31
g32
sS'.thisTrialN'
p2041
I10
sS'.thisN'
p2042
I263
sS'.thisIndex'
p2043
I3
sg15
(lp2044
S'k'
asg30
VF
sg17
S'Y'
sg14
I6
sg19
(lp2045
S'space'
p2046
asg94
I3
sa(dp2047
g16
(lp2048
S'k'
asg18
S'N'
sS'.thisRepN'
p2049
I24
sg20
S'Y'
sg31
g32
sS'.thisTrialN'
p2050
I0
sS'.thisN'
p2051
I264
sS'.thisIndex'
p2052
I9
sg15
(lp2053
S'k'
asg30
VF
sg17
S'Y'
sg14
I6
sg19
Nsg94
I9
sa(dp2054
g16
(lp2055
S'k'
asg18
S'Y'
sS'.thisRepN'
p2056
I24
sg20
S'N'
sg31
g32
sS'.thisTrialN'
p2057
I1
sS'.thisN'
p2058
I265
sS'.thisIndex'
p2059
I1
sg15
(lp2060
S'd'
asg30
VF
sg17
S'N'
sg14
I6
sg19
(lp2061
S'k'
asg94
I1
sa(dp2062
g16
(lp2063
S'd'
asg18
S'Y'
sS'.thisRepN'
p2064
I24
sg20
S'N'
sg31
g32
sS'.thisTrialN'
p2065
I2
sS'.thisN'
p2066
I266
sS'.thisIndex'
p2067
I2
sg15
(lp2068
S'k'
asg30
VF
sg17
S'N'
sg14
I6
sg19
(lp2069
S'k'
asg94
I2
sa(dp2070
g16
(lp2071
S'd'
asg18
S'Y'
sS'.thisRepN'
p2072
I24
sg20
S'N'
sg31
g32
sS'.thisTrialN'
p2073
I3
sS'.thisN'
p2074
I267
sS'.thisIndex'
p2075
I5
sg15
(lp2076
S'd'
asg30
VF
sg17
S'Y'
sg14
I6
sg19
(lp2077
S'd'
asg94
I5
sa(dp2078
g18
S'N'
sS'.thisRepN'
p2079
I24
sg20
S'N'
sg31
g32
sS'.thisTrialN'
p2080
I4
sS'.thisN'
p2081
I268
sS'.thisIndex'
p2082
I7
sg15
Nsg30
VF
sg17
g619
sg14
I6
sg19
(lp2083
S'space'
p2084
asg94
I7
sa(dp2085
g16
(lp2086
S'k'
asg18
S'Y'
sS'.thisRepN'
p2087
I24
sg20
S'N'
sg31
g32
sS'.thisTrialN'
p2088
I5
sS'.thisN'
p2089
I269
sS'.thisIndex'
p2090
I10
sg15
(lp2091
S'd'
asg30
VF
sg17
S'N'
sg14
I6
sg19
Nsg94
I10
sa(dp2092
g16
(lp2093
S'k'
asg18
S'N'
sS'.thisRepN'
p2094
I24
sg20
S'N'
sg31
g32
sS'.thisTrialN'
p2095
I6
sS'.thisN'
p2096
I270
sS'.thisIndex'
p2097
I4
sg15
(lp2098
S'k'
asg30
VF
sg17
S'Y'
sg14
I6
sg19
(lp2099
S'space'
p2100
asg94
I4
sa(dp2101
g16
(lp2102
S'd'
asg18
S'N'
sS'.thisRepN'
p2103
I24
sg20
S'Y'
sg31
g32
sS'.thisTrialN'
p2104
I7
sS'.thisN'
p2105
I271
sS'.thisIndex'
p2106
I0
sg15
(lp2107
S'k'
asg30
VF
sg17
S'N'
sg14
I6
sg19
Nsg94
I0
sa(dp2108
g16
(lp2109
S'd'
asg18
S'N'
sS'.thisRepN'
p2110
I24
sg20
S'Y'
sg31
g32
sS'.thisTrialN'
p2111
I8
sS'.thisN'
p2112
I272
sS'.thisIndex'
p2113
I9
sg15
(lp2114
S'd'
asg30
VF
sg17
S'Y'
sg14
I6
sg19
Nsg94
I9
sa(dp2115
g18
S'Y'
sS'.thisRepN'
p2116
I24
sg20
S'N'
sg31
g32
sS'.thisTrialN'
p2117
I9
sS'.thisN'
p2118
I273
sS'.thisIndex'
p2119
I8
sg15
Nsg30
VF
sg17
g619
sg14
I6
sg19
Nsg94
I8
sa(dp2120
g16
(lp2121
S'd'
asg18
S'Y'
sS'.thisRepN'
p2122
I24
sg20
S'Y'
sg31
g32
sS'.thisTrialN'
p2123
I10
sS'.thisN'
p2124
I274
sS'.thisIndex'
p2125
I0
sg15
(lp2126
S'd'
asg30
VF
sg17
S'Y'
sg14
I6
sg19
(lp2127
S'space'
p2128
asg94
I0
sa(dp2129
g16
(lp2130
S'k'
asg18
S'Y'
sS'.thisRepN'
p2131
I25
sg20
S'N'
sg31
g32
sS'.thisTrialN'
p2132
I0
sS'.thisN'
p2133
I275
sS'.thisIndex'
p2134
I1
sg15
(lp2135
S'k'
asg30
VF
sg17
S'Y'
sg14
I6
sg19
Nsg94
I1
sa(dp2136
g16
(lp2137
S'k'
asg18
S'N'
sS'.thisRepN'
p2138
I25
sg20
S'Y'
sg31
g32
sS'.thisTrialN'
p2139
I1
sS'.thisN'
p2140
I276
sS'.thisIndex'
p2141
I9
sg15
(lp2142
S'd'
asg30
VF
sg17
S'N'
sg14
I6
sg19
Nsg94
I9
sa(dp2143
g16
(lp2144
S'd'
asg18
S'Y'
sS'.thisRepN'
p2145
I25
sg20
S'Y'
sg31
g32
sS'.thisTrialN'
p2146
I2
sS'.thisN'
p2147
I277
sS'.thisIndex'
p2148
I8
sg15
(lp2149
S'k'
asg30
VF
sg17
S'N'
sg14
I6
sg19
(lp2150
S'space'
p2151
asg94
I8
sa(dp2152
g16
(lp2153
S'k'
asg18
S'Y'
sS'.thisRepN'
p2154
I25
sg20
S'N'
sg31
g32
sS'.thisTrialN'
p2155
I3
sS'.thisN'
p2156
I278
sS'.thisIndex'
p2157
I2
sg15
(lp2158
S'd'
asg30
VF
sg17
S'N'
sg14
I6
sg19
Nsg94
I2
sa(dp2159
g16
(lp2160
S'd'
asg18
S'Y'
sS'.thisRepN'
p2161
I25
sg20
S'Y'
sg31
g32
sS'.thisTrialN'
p2162
I4
sS'.thisN'
p2163
I279
sS'.thisIndex'
p2164
I3
sg15
(lp2165
S'd'
asg30
VF
sg17
S'Y'
sg14
I6
sg19
(lp2166
S'space'
p2167
asg94
I3
sa(dp2168
g16
(lp2169
S'k'
asg18
S'N'
sS'.thisRepN'
p2170
I25
sg20
S'Y'
sg31
g32
sS'.thisTrialN'
p2171
I5
sS'.thisN'
p2172
I280
sS'.thisIndex'
p2173
I1
sg15
(lp2174
S'd'
asg30
VF
sg17
S'N'
sg14
I6
sg19
Nsg94
I1
sa(dp2175
g16
(lp2176
S'k'
asg18
S'Y'
sS'.thisRepN'
p2177
I25
sg20
S'Y'
sg31
g32
sS'.thisTrialN'
p2178
I6
sS'.thisN'
p2179
I281
sS'.thisIndex'
p2180
I9
sg15
(lp2181
S'k'
asg30
VF
sg17
S'Y'
sg14
I6
sg19
(lp2182
S'space'
p2183
asg94
I9
sa(dp2184
g16
(lp2185
S'd'
asg18
S'N'
sS'.thisRepN'
p2186
I25
sg20
S'Y'
sg31
g32
sS'.thisTrialN'
p2187
I7
sS'.thisN'
p2188
I282
sS'.thisIndex'
p2189
I9
sg15
(lp2190
S'd'
asg30
VF
sg17
S'Y'
sg14
I6
sg19
Nsg94
I9
sa(dp2191
g16
(lp2192
S'k'
asg18
S'Y'
sS'.thisRepN'
p2193
I25
sg20
S'Y'
sg31
g32
sS'.thisTrialN'
p2194
I8
sS'.thisN'
p2195
I283
sS'.thisIndex'
p2196
I7
sg15
(lp2197
S'k'
asg30
VF
sg17
S'Y'
sg14
I6
sg19
(lp2198
S'space'
p2199
asg94
I7
sa(dp2200
g16
(lp2201
S'k'
asg18
S'Y'
sS'.thisRepN'
p2202
I25
sg20
S'N'
sg31
g32
sS'.thisTrialN'
p2203
I9
sS'.thisN'
p2204
I284
sS'.thisIndex'
p2205
I6
sg15
(lp2206
S'k'
asg30
VF
sg17
S'Y'
sg14
I6
sg19
Nsg94
I6
sa(dp2207
g16
(lp2208
S'k'
asg18
S'Y'
sS'.thisRepN'
p2209
I25
sg20
S'Y'
sg31
g32
sS'.thisTrialN'
p2210
I10
sS'.thisN'
p2211
I285
sS'.thisIndex'
p2212
I7
sg15
(lp2213
S'd'
asg30
VF
sg17
S'N'
sg14
I6
sg19
(lp2214
S'space'
p2215
asg94
I7
sa(dp2216
g16
(lp2217
S'k'
asg18
S'Y'
sS'.thisRepN'
p2218
I26
sg20
S'N'
sg31
g32
sS'.thisTrialN'
p2219
I0
sS'.thisN'
p2220
I286
sS'.thisIndex'
p2221
I1
sg15
(lp2222
S'k'
asg30
VF
sg17
S'Y'
sg14
I6
sg19
Nsg94
I1
sa(dp2223
g16
(lp2224
S'k'
asg18
S'Y'
sS'.thisRepN'
p2225
I26
sg20
S'N'
sg31
g32
sS'.thisTrialN'
p2226
I1
sS'.thisN'
p2227
I287
sS'.thisIndex'
p2228
I8
sg15
(lp2229
S'd'
asg30
VF
sg17
S'N'
sg14
I6
sg19
Nsg94
I8
sa(dp2230
g16
(lp2231
S'd'
asg18
S'N'
sS'.thisRepN'
p2232
I26
sg20
S'Y'
sg31
g32
sS'.thisTrialN'
p2233
I2
sS'.thisN'
p2234
I288
sS'.thisIndex'
p2235
I10
sg15
(lp2236
S'd'
asg30
VF
sg17
S'Y'
sg14
I6
sg19
Nsg94
I10
sa(dp2237
g16
(lp2238
S'k'
asg18
S'N'
sS'.thisRepN'
p2239
I26
sg20
S'Y'
sg31
g32
sS'.thisTrialN'
p2240
I3
sS'.thisN'
p2241
I289
sS'.thisIndex'
p2242
I9
sg15
(lp2243
S'd'
asg30
VF
sg17
S'N'
sg14
I6
sg19
Nsg94
I9
sa(dp2244
g16
(lp2245
S'k'
asg18
S'N'
sS'.thisRepN'
p2246
I26
sg20
S'Y'
sg31
g32
sS'.thisTrialN'
p2247
I4
sS'.thisN'
p2248
I290
sS'.thisIndex'
p2249
I10
sg15
(lp2250
S'k'
asg30
VF
sg17
S'Y'
sg14
I6
sg19
Nsg94
I10
sa(dp2251
g16
(lp2252
S'k'
asg18
S'N'
sS'.thisRepN'
p2253
I26
sg20
S'Y'
sg31
g32
sS'.thisTrialN'
p2254
I5
sS'.thisN'
p2255
I291
sS'.thisIndex'
p2256
I3
sg15
(lp2257
S'k'
asg30
VF
sg17
S'Y'
sg14
I6
sg19
Nsg94
I3
sa(dp2258
g16
(lp2259
S'd'
asg18
S'Y'
sS'.thisRepN'
p2260
I26
sg20
S'N'
sg31
g32
sS'.thisTrialN'
p2261
I6
sS'.thisN'
p2262
I292
sS'.thisIndex'
p2263
I10
sg15
(lp2264
S'k'
asg30
VF
sg17
S'N'
sg14
I6
sg19
Nsg94
I10
sa(dp2265
g16
(lp2266
S'k'
asg18
S'N'
sS'.thisRepN'
p2267
I26
sg20
S'Y'
sg31
g32
sS'.thisTrialN'
p2268
I7
sS'.thisN'
p2269
I293
sS'.thisIndex'
p2270
I9
sg15
(lp2271
S'd'
asg30
VF
sg17
S'N'
sg14
I6
sg19
Nsg94
I9
sa(dp2272
g16
(lp2273
S'd'
asg18
S'N'
sS'.thisRepN'
p2274
I26
sg20
S'Y'
sg31
g32
sS'.thisTrialN'
p2275
I8
sS'.thisN'
p2276
I294
sS'.thisIndex'
p2277
I10
sg15
(lp2278
S'k'
asg30
VF
sg17
S'N'
sg14
I6
sg19
Nsg94
I10
sa(dp2279
g16
(lp2280
S'd'
asg18
S'N'
sS'.thisRepN'
p2281
I26
sg20
S'Y'
sg31
g32
sS'.thisTrialN'
p2282
I9
sS'.thisN'
p2283
I295
sS'.thisIndex'
p2284
I0
sg15
(lp2285
S'd'
asg30
VF
sg17
S'Y'
sg14
I6
sg19
Nsg94
I0
sa(dp2286
g16
(lp2287
S'd'
asg18
S'N'
sS'.thisRepN'
p2288
I26
sg20
S'Y'
sg31
g32
sS'.thisTrialN'
p2289
I10
sS'.thisN'
p2290
I296
sS'.thisIndex'
p2291
I4
sg15
(lp2292
S'k'
asg30
VF
sg17
S'N'
sg14
I6
sg19
Nsg94
I4
sa(dp2293
g16
(lp2294
S'd'
asg18
S'N'
sS'.thisRepN'
p2295
I27
sg20
S'N'
sg31
g32
sS'.thisTrialN'
p2296
I0
sS'.thisN'
p2297
I297
sS'.thisIndex'
p2298
I4
sg15
(lp2299
S'd'
asg30
VF
sg17
S'Y'
sg14
I6
sg19
(lp2300
S'd'
asg94
I4
sa(dp2301
g16
(lp2302
S'd'
asg18
S'N'
sS'.thisRepN'
p2303
I27
sg20
S'Y'
sg31
g32
sS'.thisTrialN'
p2304
I1
sS'.thisN'
p2305
I298
sS'.thisIndex'
p2306
I5
sg15
(lp2307
S'd'
asg30
VF
sg17
S'Y'
sg14
I6
sg19
Nsg94
I5
sa(dp2308
g16
(lp2309
S'd'
asg18
S'N'
sg22
I31
sS'.thisN'
p2310
I299
sg20
S'Y'
sg31
g32
sS'.thisTrialN'
p2311
I2
sS'.thisRepN'
p2312
I27
sg21
I27
sS'.thisIndex'
p2313
I6
sg23
I25
sg15
(lp2314
S'k'
asg30
VF
sg17
S'N'
sg14
I6
sg19
Nsg94
I6
sa(dp2315
g16
(lp2316
S'k'
asg94
I3
sS'.thisRepN'
p2317
I27
sg30
VF
sg31
g32
sS'.thisTrialN'
p2318
I3
sS'.thisN'
p2319
I300
sS'.thisIndex'
p2320
I3
sg15
(lp2321
S'd'
asg17
S'N'
sg14
I7
sa(dp2322
g16
(lp2323
S'k'
asg94
I0
sS'.thisRepN'
p2324
I27
sg30
VF
sg31
g32
sS'.thisTrialN'
p2325
I4
sS'.thisN'
p2326
I301
sS'.thisIndex'
p2327
I0
sg15
(lp2328
S'k'
asg17
S'Y'
sg14
I7
sa(dp2329
g16
(lp2330
S'k'
asg18
S'N'
sS'.thisRepN'
p2331
I27
sg20
S'N'
sg31
g32
sS'.thisTrialN'
p2332
I5
sS'.thisN'
p2333
I302
sS'.thisIndex'
p2334
I0
sg15
(lp2335
S'k'
asg30
VF
sg17
S'Y'
sg14
I7
sg19
(lp2336
S'space'
p2337
asg94
I0
sa(dp2338
g16
(lp2339
S'd'
asg18
S'Y'
sS'.thisRepN'
p2340
I27
sg20
S'N'
sg31
g32
sS'.thisTrialN'
p2341
I6
sS'.thisN'
p2342
I303
sS'.thisIndex'
p2343
I2
sg15
(lp2344
S'd'
asg30
VF
sg17
S'Y'
sg14
I7
sg19
Nsg94
I2
sa(dp2345
g18
S'N'
sS'.thisRepN'
p2346
I27
sg20
S'N'
sg31
g32
sS'.thisTrialN'
p2347
I7
sS'.thisN'
p2348
I304
sS'.thisIndex'
p2349
I3
sg15
Nsg30
VF
sg17
g619
sg14
I7
sg19
(lp2350
S'space'
p2351
asg94
I3
sa(dp2352
g16
(lp2353
S'k'
asg18
S'Y'
sS'.thisRepN'
p2354
I27
sg20
S'N'
sg31
g32
sS'.thisTrialN'
p2355
I8
sS'.thisN'
p2356
I305
sS'.thisIndex'
p2357
I5
sg15
(lp2358
S'k'
asg30
VF
sg17
S'Y'
sg14
I7
sg19
Nsg94
I5
sa(dp2359
g16
(lp2360
S'k'
asg18
S'Y'
sS'.thisRepN'
p2361
I27
sg20
S'N'
sg31
g32
sS'.thisTrialN'
p2362
I9
sS'.thisN'
p2363
I306
sS'.thisIndex'
p2364
I1
sg15
(lp2365
S'd'
asg30
VF
sg17
S'N'
sg14
I7
sg19
Nsg94
I1
sa(dp2366
g16
(lp2367
S'k'
asg18
S'Y'
sS'.thisRepN'
p2368
I27
sg20
S'N'
sg31
g32
sS'.thisTrialN'
p2369
I10
sS'.thisN'
p2370
I307
sS'.thisIndex'
p2371
I2
sg15
(lp2372
S'k'
asg30
VF
sg17
S'Y'
sg14
I7
sg19
Nsg94
I2
sa(dp2373
g18
S'N'
sS'.thisRepN'
p2374
I28
sg20
S'Y'
sg31
g32
sS'.thisTrialN'
p2375
I0
sS'.thisN'
p2376
I308
sS'.thisIndex'
p2377
I0
sg15
Nsg30
VF
sg17
g619
sg14
I7
sg19
Nsg94
I0
sa(dp2378
g16
(lp2379
S'k'
asg18
S'Y'
sS'.thisRepN'
p2380
I28
sg20
S'N'
sg31
g32
sS'.thisTrialN'
p2381
I1
sS'.thisN'
p2382
I309
sS'.thisIndex'
p2383
I8
sg15
(lp2384
S'k'
asg30
VF
sg17
S'Y'
sg14
I7
sg19
Nsg94
I8
sa(dp2385
g16
(lp2386
S'k'
asg18
S'N'
sS'.thisRepN'
p2387
I28
sg20
S'Y'
sg31
g32
sS'.thisTrialN'
p2388
I2
sS'.thisN'
p2389
I310
sS'.thisIndex'
p2390
I4
sg15
(lp2391
S'k'
asg30
VF
sg17
S'Y'
sg14
I7
sg19
Nsg94
I4
sa(dp2392
g16
(lp2393
S'k'
asg18
S'Y'
sS'.thisRepN'
p2394
I28
sg20
S'N'
sg31
g32
sS'.thisTrialN'
p2395
I3
sS'.thisN'
p2396
I311
sS'.thisIndex'
p2397
I2
sg15
(lp2398
S'k'
asg30
VF
sg17
S'Y'
sg14
I7
sg19
Nsg94
I2
sa(dp2399
g16
(lp2400
S'k'
asg18
S'Y'
sS'.thisRepN'
p2401
I28
sg20
S'Y'
sg31
g32
sS'.thisTrialN'
p2402
I4
sS'.thisN'
p2403
I312
sS'.thisIndex'
p2404
I3
sg15
(lp2405
S'd'
asg30
VF
sg17
S'N'
sg14
I7
sg19
(lp2406
S'space'
p2407
asg94
I3
sa(dp2408
g16
(lp2409
S'k'
asg18
S'Y'
sS'.thisRepN'
p2410
I28
sg20
S'Y'
sg31
g32
sS'.thisTrialN'
p2411
I5
sS'.thisN'
p2412
I313
sS'.thisIndex'
p2413
I6
sg15
(lp2414
S'k'
asg30
VF
sg17
S'Y'
sg14
I7
sg19
(lp2415
S'space'
p2416
asg94
I6
sa(dp2417
g16
(lp2418
S'd'
asg18
S'N'
sS'.thisRepN'
p2419
I28
sg20
S'Y'
sg31
g32
sS'.thisTrialN'
p2420
I6
sS'.thisN'
p2421
I314
sS'.thisIndex'
p2422
I7
sg15
(lp2423
S'd'
asg30
VF
sg17
S'Y'
sg14
I7
sg19
Nsg94
I7
sa(dp2424
g16
(lp2425
S'k'
asg18
S'Y'
sS'.thisRepN'
p2426
I28
sg20
S'Y'
sg31
g32
sS'.thisTrialN'
p2427
I7
sS'.thisN'
p2428
I315
sS'.thisIndex'
p2429
I6
sg15
(lp2430
S'k'
asg30
VF
sg17
S'Y'
sg14
I7
sg19
(lp2431
S'space'
p2432
asg94
I6
sa(dp2433
g16
(lp2434
S'd'
asg18
S'Y'
sS'.thisRepN'
p2435
I28
sg20
S'Y'
sg31
g32
sS'.thisTrialN'
p2436
I8
sS'.thisN'
p2437
I316
sS'.thisIndex'
p2438
I3
sg15
(lp2439
S'd'
asg30
VF
sg17
S'Y'
sg14
I7
sg19
(lp2440
S'space'
p2441
asg94
I3
sa(dp2442
g18
S'N'
sS'.thisRepN'
p2443
I28
sg20
S'Y'
sg31
g32
sS'.thisTrialN'
p2444
I9
sS'.thisN'
p2445
I317
sS'.thisIndex'
p2446
I2
sg15
Nsg30
VF
sg17
g619
sg14
I7
sg19
Nsg94
I2
sa(dp2447
g16
(lp2448
S'k'
asg18
S'N'
sS'.thisRepN'
p2449
I28
sg20
S'Y'
sg31
g32
sS'.thisTrialN'
p2450
I10
sS'.thisN'
p2451
I318
sS'.thisIndex'
p2452
I2
sg15
(lp2453
S'd'
asg30
VF
sg17
S'N'
sg14
I7
sg19
Nsg94
I2
sa(dp2454
g16
(lp2455
S'd'
asg18
S'Y'
sS'.thisRepN'
p2456
I29
sg20
S'N'
sg31
g32
sS'.thisTrialN'
p2457
I0
sS'.thisN'
p2458
I319
sS'.thisIndex'
p2459
I1
sg15
(lp2460
S'k'
asg30
VF
sg17
S'N'
sg14
I7
sg19
Nsg94
I1
sa(dp2461
g16
(lp2462
S'k'
asg18
S'Y'
sS'.thisRepN'
p2463
I29
sg20
S'N'
sg31
g32
sS'.thisTrialN'
p2464
I1
sS'.thisN'
p2465
I320
sS'.thisIndex'
p2466
I9
sg15
(lp2467
S'd'
asg30
VF
sg17
S'N'
sg14
I7
sg19
Nsg94
I9
sa(dp2468
g16
(lp2469
S'd'
asg18
S'Y'
sS'.thisRepN'
p2470
I29
sg20
S'N'
sg31
g32
sS'.thisTrialN'
p2471
I2
sS'.thisN'
p2472
I321
sS'.thisIndex'
p2473
I0
sg15
(lp2474
S'k'
asg30
VF
sg17
S'N'
sg14
I7
sg19
(lp2475
S'k'
asg94
I0
sa(dp2476
g16
(lp2477
S'k'
asg18
S'N'
sS'.thisRepN'
p2478
I29
sg20
S'Y'
sg31
g32
sS'.thisTrialN'
p2479
I3
sS'.thisN'
p2480
I322
sS'.thisIndex'
p2481
I6
sg15
(lp2482
S'd'
asg30
VF
sg17
S'N'
sg14
I7
sg19
Nsg94
I6
sa(dp2483
g16
(lp2484
S'd'
asg18
S'N'
sS'.thisRepN'
p2485
I29
sg20
S'Y'
sg31
g32
sS'.thisTrialN'
p2486
I4
sS'.thisN'
p2487
I323
sS'.thisIndex'
p2488
I10
sg15
(lp2489
S'k'
asg30
VF
sg17
S'N'
sg14
I7
sg19
Nsg94
I10
sa(dp2490
g16
(lp2491
S'k'
asg18
S'Y'
sS'.thisRepN'
p2492
I29
sg20
S'N'
sg31
g32
sS'.thisTrialN'
p2493
I5
sS'.thisN'
p2494
I324
sS'.thisIndex'
p2495
I6
sg15
(lp2496
S'd'
asg30
VF
sg17
S'N'
sg14
I7
sg19
Nsg94
I6
sa(dp2497
g18
S'Y'
sS'.thisRepN'
p2498
I29
sg20
S'N'
sg31
g32
sS'.thisTrialN'
p2499
I6
sS'.thisN'
p2500
I325
sS'.thisIndex'
p2501
I6
sg15
Nsg30
VF
sg17
g619
sg14
I7
sg19
(lp2502
S'k'
asg94
I6
sa(dp2503
g16
(lp2504
S'k'
asg18
S'N'
sS'.thisRepN'
p2505
I29
sg20
S'N'
sg31
g32
sS'.thisTrialN'
p2506
I7
sS'.thisN'
p2507
I326
sS'.thisIndex'
p2508
I5
sg15
(lp2509
S'd'
asg30
VF
sg17
S'N'
sg14
I7
sg19
(lp2510
S'k'
asg94
I5
sa(dp2511
g16
(lp2512
S'k'
asg18
S'N'
sS'.thisRepN'
p2513
I29
sg20
S'Y'
sg31
g32
sS'.thisTrialN'
p2514
I8
sS'.thisN'
p2515
I327
sS'.thisIndex'
p2516
I8
sg15
(lp2517
S'k'
asg30
VF
sg17
S'Y'
sg14
I7
sg19
Nsg94
I8
sa(dp2518
g16
(lp2519
S'd'
asg18
S'Y'
sS'.thisRepN'
p2520
I29
sg20
S'N'
sg31
g32
sS'.thisTrialN'
p2521
I9
sS'.thisN'
p2522
I328
sS'.thisIndex'
p2523
I2
sg15
(lp2524
S'd'
asg30
VF
sg17
S'Y'
sg14
I7
sg19
Nsg94
I2
sa(dp2525
g16
(lp2526
S'd'
asg18
S'Y'
sS'.thisRepN'
p2527
I29
sg20
S'Y'
sg31
g32
sS'.thisTrialN'
p2528
I10
sS'.thisN'
p2529
I329
sS'.thisIndex'
p2530
I1
sg15
(lp2531
S'k'
asg30
VF
sg17
S'N'
sg14
I7
sg19
(lp2532
S'space'
p2533
asg94
I1
sa(dp2534
g16
(lp2535
S'k'
asg18
S'Y'
sS'.thisRepN'
p2536
I30
sg20
S'Y'
sg31
g32
sS'.thisTrialN'
p2537
I0
sS'.thisN'
p2538
I330
sS'.thisIndex'
p2539
I8
sg15
(lp2540
S'd'
asg30
VF
sg17
S'N'
sg14
I7
sg19
(lp2541
S'space'
p2542
asg94
I8
sa(dp2543
g16
(lp2544
S'k'
asg18
S'N'
sS'.thisRepN'
p2545
I30
sg20
S'Y'
sg31
g32
sS'.thisTrialN'
p2546
I1
sS'.thisN'
p2547
I331
sS'.thisIndex'
p2548
I1
sg15
(lp2549
S'k'
asg30
VF
sg17
S'Y'
sg14
I7
sg19
Nsg94
I1
sa(dp2550
g16
(lp2551
S'd'
asg18
S'N'
sS'.thisRepN'
p2552
I30
sg20
S'N'
sg31
g32
sS'.thisTrialN'
p2553
I2
sS'.thisN'
p2554
I332
sS'.thisIndex'
p2555
I7
sg15
(lp2556
S'd'
asg30
VF
sg17
S'Y'
sg14
I7
sg19
(lp2557
S'd'
asg94
I7
sa(dp2558
g16
(lp2559
S'd'
asg18
S'N'
sS'.thisRepN'
p2560
I30
sg20
S'Y'
sg31
g32
sS'.thisTrialN'
p2561
I3
sS'.thisN'
p2562
I333
sS'.thisIndex'
p2563
I6
sg15
(lp2564
S'd'
asg30
VF
sg17
S'Y'
sg14
I7
sg19
Nsg94
I6
sa(dp2565
g16
(lp2566
S'k'
asg18
S'N'
sS'.thisRepN'
p2567
I30
sg20
S'Y'
sg31
g32
sS'.thisTrialN'
p2568
I4
sS'.thisN'
p2569
I334
sS'.thisIndex'
p2570
I9
sg15
(lp2571
S'd'
asg30
VF
sg17
S'N'
sg14
I7
sg19
Nsg94
I9
sa(dp2572
g16
(lp2573
S'k'
asg18
S'N'
sS'.thisRepN'
p2574
I30
sg20
S'Y'
sg31
g32
sS'.thisTrialN'
p2575
I5
sS'.thisN'
p2576
I335
sS'.thisIndex'
p2577
I7
sg15
(lp2578
S'k'
asg30
VF
sg17
S'Y'
sg14
I7
sg19
Nsg94
I7
sa(dp2579
g16
(lp2580
S'd'
asg18
S'Y'
sS'.thisRepN'
p2581
I30
sg20
S'Y'
sg31
g32
sS'.thisTrialN'
p2582
I6
sS'.thisN'
p2583
I336
sS'.thisIndex'
p2584
I10
sg15
(lp2585
S'k'
asg30
VF
sg17
S'N'
sg14
I7
sg19
(lp2586
S'space'
p2587
asg94
I10
sa(dp2588
g16
(lp2589
S'd'
asg18
S'Y'
sS'.thisRepN'
p2590
I30
sg20
S'N'
sg31
g32
sS'.thisTrialN'
p2591
I7
sS'.thisN'
p2592
I337
sS'.thisIndex'
p2593
I10
sg15
(lp2594
S'd'
asg30
VF
sg17
S'Y'
sg14
I7
sg19
Nsg94
I10
sa(dp2595
g18
S'N'
sS'.thisRepN'
p2596
I30
sg20
S'Y'
sg31
g32
sS'.thisTrialN'
p2597
I8
sS'.thisN'
p2598
I338
sS'.thisIndex'
p2599
I6
sg15
Nsg30
VF
sg17
g619
sg14
I7
sg19
Nsg94
I6
sa(dp2600
g16
(lp2601
S'd'
asg18
S'N'
sS'.thisRepN'
p2602
I30
sg20
S'Y'
sg31
g32
sS'.thisTrialN'
p2603
I9
sS'.thisN'
p2604
I339
sS'.thisIndex'
p2605
I7
sg15
(lp2606
S'd'
asg30
VF
sg17
S'Y'
sg14
I7
sg19
Nsg94
I7
sa(dp2607
g16
(lp2608
S'd'
asg18
S'N'
sS'.thisRepN'
p2609
I30
sg20
S'Y'
sg31
g32
sS'.thisTrialN'
p2610
I10
sS'.thisN'
p2611
I340
sS'.thisIndex'
p2612
I3
sg15
(lp2613
S'd'
asg30
VF
sg17
S'Y'
sg14
I7
sg19
Nsg94
I3
sa(dp2614
g16
(lp2615
S'k'
asg18
S'Y'
sS'.thisRepN'
p2616
I31
sg20
S'N'
sg31
g32
sS'.thisTrialN'
p2617
I0
sS'.thisN'
p2618
I341
sS'.thisIndex'
p2619
I7
sg15
(lp2620
S'k'
asg30
VF
sg17
S'Y'
sg14
I7
sg19
Nsg94
I7
sa(dp2621
g18
S'Y'
sS'.thisRepN'
p2622
I31
sg20
S'Y'
sg31
g32
sS'.thisTrialN'
p2623
I1
sS'.thisN'
p2624
I342
sS'.thisIndex'
p2625
I3
sg15
Nsg30
VF
sg17
g619
sg14
I7
sg19
(lp2626
S'space'
p2627
asg94
I3
sa(dp2628
g16
(lp2629
S'k'
asg18
S'Y'
sS'.thisRepN'
p2630
I31
sg20
S'N'
sg31
g32
sS'.thisTrialN'
p2631
I2
sS'.thisN'
p2632
I343
sS'.thisIndex'
p2633
I0
sg15
(lp2634
S'k'
asg30
VF
sg17
S'Y'
sg14
I7
sg19
Nsg94
I0
sa(dp2635
g16
(lp2636
S'k'
asg18
S'N'
sS'.thisRepN'
p2637
I31
sg20
S'Y'
sg31
g32
sS'.thisTrialN'
p2638
I3
sS'.thisN'
p2639
I344
sS'.thisIndex'
p2640
I5
sg15
(lp2641
S'k'
asg30
VF
sg17
S'Y'
sg14
I7
sg19
Nsg94
I5
sa(dp2642
g16
(lp2643
S'd'
asg18
S'N'
sS'.thisRepN'
p2644
I31
sg20
S'Y'
sg31
g32
sS'.thisTrialN'
p2645
I4
sS'.thisN'
p2646
I345
sS'.thisIndex'
p2647
I6
sg15
(lp2648
S'k'
asg30
VF
sg17
S'N'
sg14
I7
sg19
Nsg94
I6
sa(dp2649
g16
(lp2650
S'd'
asg18
S'Y'
sS'.thisRepN'
p2651
I31
sg20
S'Y'
sg31
g32
sS'.thisTrialN'
p2652
I5
sS'.thisN'
p2653
I346
sS'.thisIndex'
p2654
I4
sg15
(lp2655
S'd'
asg30
VF
sg17
S'Y'
sg14
I7
sg19
(lp2656
S'space'
p2657
asg94
I4
sa(dp2658
g16
(lp2659
S'd'
asg18
S'N'
sS'.thisRepN'
p2660
I31
sg20
S'Y'
sg31
g32
sS'.thisTrialN'
p2661
I6
sS'.thisN'
p2662
I347
sS'.thisIndex'
p2663
I5
sg15
(lp2664
S'k'
asg30
VF
sg17
S'N'
sg14
I7
sg19
Nsg94
I5
sa(dp2665
g16
(lp2666
S'd'
asg18
S'N'
sS'.thisRepN'
p2667
I31
sg20
S'Y'
sg31
g32
sS'.thisTrialN'
p2668
I7
sS'.thisN'
p2669
I348
sS'.thisIndex'
p2670
I9
sg15
(lp2671
S'd'
asg30
VF
sg17
S'Y'
sg14
I7
sg19
Nsg94
I9
sa(dp2672
g16
(lp2673
S'd'
asg18
S'N'
sg22
I29
sS'.thisN'
p2674
I349
sg20
S'Y'
sg31
g32
sS'.thisTrialN'
p2675
I8
sS'.thisRepN'
p2676
I31
sg21
I27
sS'.thisIndex'
p2677
I6
sg23
I24
sg15
(lp2678
S'd'
asg30
VF
sg17
S'Y'
sg14
I7
sg19
Nsg94
I6
sa(dp2679
g16
(lp2680
S'k'
asg94
I3
sS'.thisRepN'
p2681
I31
sg30
VF
sg31
g32
sS'.thisTrialN'
p2682
I9
sS'.thisN'
p2683
I350
sS'.thisIndex'
p2684
I3
sg15
(lp2685
S'd'
asg17
S'N'
sg14
I8
sa(dp2686
g16
(lp2687
S'k'
asg94
I9
sS'.thisRepN'
p2688
I31
sg30
VF
sg31
g32
sS'.thisTrialN'
p2689
I10
sS'.thisN'
p2690
I351
sS'.thisIndex'
p2691
I9
sg15
(lp2692
S'k'
asg17
S'Y'
sg14
I8
sa(dp2693
g16
(lp2694
S'd'
asg18
S'Y'
sS'.thisRepN'
p2695
I32
sg20
S'N'
sg31
g32
sS'.thisTrialN'
p2696
I0
sS'.thisN'
p2697
I352
sS'.thisIndex'
p2698
I2
sg15
(lp2699
S'k'
asg30
VF
sg17
S'N'
sg14
I8
sg19
Nsg94
I2
sa(dp2700
g16
(lp2701
S'k'
asg18
S'Y'
sS'.thisRepN'
p2702
I32
sg20
S'N'
sg31
g32
sS'.thisTrialN'
p2703
I1
sS'.thisN'
p2704
I353
sS'.thisIndex'
p2705
I1
sg15
(lp2706
S'k'
asg30
VF
sg17
S'Y'
sg14
I8
sg19
(lp2707
S'd'
asg94
I1
sa(dp2708
g18
S'N'
sS'.thisRepN'
p2709
I32
sg20
S'Y'
sg31
g32
sS'.thisTrialN'
p2710
I2
sS'.thisN'
p2711
I354
sS'.thisIndex'
p2712
I0
sg15
Nsg30
VF
sg17
g619
sg14
I8
sg19
Nsg94
I0
sa(dp2713
g18
S'N'
sS'.thisRepN'
p2714
I32
sg20
S'Y'
sg31
g32
sS'.thisTrialN'
p2715
I3
sS'.thisN'
p2716
I355
sS'.thisIndex'
p2717
I8
sg15
Nsg30
VF
sg17
g619
sg14
I8
sg19
Nsg94
I8
sa(dp2718
g16
(lp2719
S'd'
asg18
S'Y'
sS'.thisRepN'
p2720
I32
sg20
S'N'
sg31
g32
sS'.thisTrialN'
p2721
I4
sS'.thisN'
p2722
I356
sS'.thisIndex'
p2723
I0
sg15
(lp2724
S'd'
asg30
VF
sg17
S'Y'
sg14
I8
sg19
Nsg94
I0
sa(dp2725
g16
(lp2726
S'k'
asg18
S'Y'
sS'.thisRepN'
p2727
I32
sg20
S'N'
sg31
g32
sS'.thisTrialN'
p2728
I5
sS'.thisN'
p2729
I357
sS'.thisIndex'
p2730
I9
sg15
(lp2731
S'k'
asg30
VF
sg17
S'Y'
sg14
I8
sg19
Nsg94
I9
sa(dp2732
g16
(lp2733
S'd'
asg18
S'N'
sS'.thisRepN'
p2734
I32
sg20
S'Y'
sg31
g32
sS'.thisTrialN'
p2735
I6
sS'.thisN'
p2736
I358
sS'.thisIndex'
p2737
I9
sg15
(lp2738
S'k'
asg30
VF
sg17
S'N'
sg14
I8
sg19
Nsg94
I9
sa(dp2739
g16
(lp2740
S'k'
asg18
S'Y'
sS'.thisRepN'
p2741
I32
sg20
S'N'
sg31
g32
sS'.thisTrialN'
p2742
I7
sS'.thisN'
p2743
I359
sS'.thisIndex'
p2744
I5
sg15
(lp2745
S'd'
asg30
VF
sg17
S'N'
sg14
I8
sg19
(lp2746
S'd'
asg94
I5
sa(dp2747
g16
(lp2748
S'k'
asg18
S'Y'
sS'.thisRepN'
p2749
I32
sg20
S'N'
sg31
g32
sS'.thisTrialN'
p2750
I8
sS'.thisN'
p2751
I360
sS'.thisIndex'
p2752
I9
sg15
(lp2753
S'k'
asg30
VF
sg17
S'Y'
sg14
I8
sg19
(lp2754
S'k'
asg94
I9
sa(dp2755
g16
(lp2756
S'k'
asg18
S'Y'
sS'.thisRepN'
p2757
I32
sg20
S'Y'
sg31
g32
sS'.thisTrialN'
p2758
I9
sS'.thisN'
p2759
I361
sS'.thisIndex'
p2760
I5
sg15
(lp2761
S'd'
asg30
VF
sg17
S'N'
sg14
I8
sg19
(lp2762
S'space'
p2763
asg94
I5
sa(dp2764
g16
(lp2765
S'd'
asg18
S'N'
sS'.thisRepN'
p2766
I32
sg20
S'Y'
sg31
g32
sS'.thisTrialN'
p2767
I10
sS'.thisN'
p2768
I362
sS'.thisIndex'
p2769
I7
sg15
(lp2770
S'k'
asg30
VF
sg17
S'N'
sg14
I8
sg19
Nsg94
I7
sa(dp2771
g16
(lp2772
S'k'
asg18
S'Y'
sS'.thisRepN'
p2773
I33
sg20
S'Y'
sg31
g32
sS'.thisTrialN'
p2774
I0
sS'.thisN'
p2775
I363
sS'.thisIndex'
p2776
I6
sg15
(lp2777
S'd'
asg30
VF
sg17
S'N'
sg14
I8
sg19
(lp2778
S'space'
p2779
asg94
I6
sa(dp2780
g16
(lp2781
S'k'
asg18
S'N'
sS'.thisRepN'
p2782
I33
sg20
S'Y'
sg31
g32
sS'.thisTrialN'
p2783
I1
sS'.thisN'
p2784
I364
sS'.thisIndex'
p2785
I2
sg15
(lp2786
S'k'
asg30
VF
sg17
S'Y'
sg14
I8
sg19
Nsg94
I2
sa(dp2787
g16
(lp2788
S'k'
asg18
S'Y'
sS'.thisRepN'
p2789
I33
sg20
S'Y'
sg31
g32
sS'.thisTrialN'
p2790
I2
sS'.thisN'
p2791
I365
sS'.thisIndex'
p2792
I5
sg15
(lp2793
S'd'
asg30
VF
sg17
S'N'
sg14
I8
sg19
(lp2794
S'space'
p2795
asg94
I5
sa(dp2796
g16
(lp2797
S'd'
asg18
S'Y'
sS'.thisRepN'
p2798
I33
sg20
S'Y'
sg31
g32
sS'.thisTrialN'
p2799
I3
sS'.thisN'
p2800
I366
sS'.thisIndex'
p2801
I5
sg15
(lp2802
S'k'
asg30
VF
sg17
S'N'
sg14
I8
sg19
(lp2803
S'space'
p2804
asg94
I5
sa(dp2805
g16
(lp2806
S'd'
asg18
S'N'
sS'.thisRepN'
p2807
I33
sg20
S'Y'
sg31
g32
sS'.thisTrialN'
p2808
I4
sS'.thisN'
p2809
I367
sS'.thisIndex'
p2810
I9
sg15
(lp2811
S'd'
asg30
VF
sg17
S'Y'
sg14
I8
sg19
Nsg94
I9
sa(dp2812
g18
S'Y'
sS'.thisRepN'
p2813
I33
sg20
S'N'
sg31
g32
sS'.thisTrialN'
p2814
I5
sS'.thisN'
p2815
I368
sS'.thisIndex'
p2816
I4
sg15
Nsg30
VF
sg17
g619
sg14
I8
sg19
Nsg94
I4
sa(dp2817
g16
(lp2818
S'd'
asg18
S'N'
sS'.thisRepN'
p2819
I33
sg20
S'Y'
sg31
g32
sS'.thisTrialN'
p2820
I6
sS'.thisN'
p2821
I369
sS'.thisIndex'
p2822
I8
sg15
(lp2823
S'k'
asg30
VF
sg17
S'N'
sg14
I8
sg19
Nsg94
I8
sa(dp2824
g16
(lp2825
S'k'
asg18
S'N'
sS'.thisRepN'
p2826
I33
sg20
S'Y'
sg31
g32
sS'.thisTrialN'
p2827
I7
sS'.thisN'
p2828
I370
sS'.thisIndex'
p2829
I0
sg15
(lp2830
S'd'
asg30
VF
sg17
S'N'
sg14
I8
sg19
Nsg94
I0
sa(dp2831
g16
(lp2832
S'd'
asg18
S'N'
sS'.thisRepN'
p2833
I33
sg20
S'Y'
sg31
g32
sS'.thisTrialN'
p2834
I8
sS'.thisN'
p2835
I371
sS'.thisIndex'
p2836
I9
sg15
(lp2837
S'k'
asg30
VF
sg17
S'N'
sg14
I8
sg19
Nsg94
I9
sa(dp2838
g16
(lp2839
S'd'
asg18
S'N'
sS'.thisRepN'
p2840
I33
sg20
S'Y'
sg31
g32
sS'.thisTrialN'
p2841
I9
sS'.thisN'
p2842
I372
sS'.thisIndex'
p2843
I5
sg15
(lp2844
S'd'
asg30
VF
sg17
S'Y'
sg14
I8
sg19
Nsg94
I5
sa(dp2845
g16
(lp2846
S'k'
asg18
S'N'
sS'.thisRepN'
p2847
I33
sg20
S'Y'
sg31
g32
sS'.thisTrialN'
p2848
I10
sS'.thisN'
p2849
I373
sS'.thisIndex'
p2850
I2
sg15
(lp2851
S'd'
asg30
VF
sg17
S'N'
sg14
I8
sg19
Nsg94
I2
sa(dp2852
g16
(lp2853
S'k'
asg18
S'N'
sS'.thisRepN'
p2854
I34
sg20
S'Y'
sg31
g32
sS'.thisTrialN'
p2855
I0
sS'.thisN'
p2856
I374
sS'.thisIndex'
p2857
I6
sg15
(lp2858
S'k'
asg30
VF
sg17
S'Y'
sg14
I8
sg19
Nsg94
I6
sa(dp2859
g16
(lp2860
S'k'
asg18
S'N'
sS'.thisRepN'
p2861
I34
sg20
S'Y'
sg31
g32
sS'.thisTrialN'
p2862
I1
sS'.thisN'
p2863
I375
sS'.thisIndex'
p2864
I4
sg15
(lp2865
S'd'
asg30
VF
sg17
S'N'
sg14
I8
sg19
Nsg94
I4
sa(dp2866
g16
(lp2867
S'd'
asg18
S'Y'
sS'.thisRepN'
p2868
I34
sg20
S'N'
sg31
g32
sS'.thisTrialN'
p2869
I2
sS'.thisN'
p2870
I376
sS'.thisIndex'
p2871
I0
sg15
(lp2872
S'k'
asg30
VF
sg17
S'N'
sg14
I8
sg19
Nsg94
I0
sa(dp2873
g16
(lp2874
S'k'
asg18
S'N'
sS'.thisRepN'
p2875
I34
sg20
S'Y'
sg31
g32
sS'.thisTrialN'
p2876
I3
sS'.thisN'
p2877
I377
sS'.thisIndex'
p2878
I4
sg15
(lp2879
S'd'
asg30
VF
sg17
S'N'
sg14
I8
sg19
Nsg94
I4
sa(dp2880
g16
(lp2881
S'd'
asg18
S'N'
sS'.thisRepN'
p2882
I34
sg20
S'N'
sg31
g32
sS'.thisTrialN'
p2883
I4
sS'.thisN'
p2884
I378
sS'.thisIndex'
p2885
I5
sg15
(lp2886
S'k'
asg30
VF
sg17
S'N'
sg14
I8
sg19
(lp2887
S'k'
asg94
I5
sa(dp2888
g16
(lp2889
S'k'
asg18
S'N'
sS'.thisRepN'
p2890
I34
sg20
S'N'
sg31
g32
sS'.thisTrialN'
p2891
I5
sS'.thisN'
p2892
I379
sS'.thisIndex'
p2893
I8
sg15
(lp2894
S'k'
asg30
VF
sg17
S'Y'
sg14
I8
sg19
(lp2895
S'space'
p2896
asg94
I8
sa(dp2897
g16
(lp2898
S'd'
asg18
S'Y'
sS'.thisRepN'
p2899
I34
sg20
S'N'
sg31
g32
sS'.thisTrialN'
p2900
I6
sS'.thisN'
p2901
I380
sS'.thisIndex'
p2902
I9
sg15
(lp2903
S'k'
asg30
VF
sg17
S'N'
sg14
I8
sg19
Nsg94
I9
sa(dp2904
g18
S'Y'
sS'.thisRepN'
p2905
I34
sg20
S'N'
sg31
g32
sS'.thisTrialN'
p2906
I7
sS'.thisN'
p2907
I381
sS'.thisIndex'
p2908
I3
sg15
Nsg30
VF
sg17
g619
sg14
I8
sg19
Nsg94
I3
sa(dp2909
g18
S'N'
sS'.thisRepN'
p2910
I34
sg20
S'Y'
sg31
g32
sS'.thisTrialN'
p2911
I8
sS'.thisN'
p2912
I382
sS'.thisIndex'
p2913
I5
sg15
Nsg30
VF
sg17
g619
sg14
I8
sg19
Nsg94
I5
sa(dp2914
g16
(lp2915
S'k'
asg18
S'Y'
sS'.thisRepN'
p2916
I34
sg20
S'N'
sg31
g32
sS'.thisTrialN'
p2917
I9
sS'.thisN'
p2918
I383
sS'.thisIndex'
p2919
I10
sg15
(lp2920
S'k'
asg30
VF
sg17
S'Y'
sg14
I8
sg19
Nsg94
I10
sa(dp2921
g16
(lp2922
S'k'
asg18
S'Y'
sS'.thisRepN'
p2923
I34
sg20
S'N'
sg31
g32
sS'.thisTrialN'
p2924
I10
sS'.thisN'
p2925
I384
sS'.thisIndex'
p2926
I4
sg15
(lp2927
S'k'
asg30
VF
sg17
S'Y'
sg14
I8
sg19
Nsg94
I4
sa(dp2928
g16
(lp2929
S'd'
asg18
S'N'
sS'.thisRepN'
p2930
I35
sg20
S'Y'
sg31
g32
sS'.thisTrialN'
p2931
I0
sS'.thisN'
p2932
I385
sS'.thisIndex'
p2933
I1
sg15
(lp2934
S'k'
asg30
VF
sg17
S'N'
sg14
I8
sg19
Nsg94
I1
sa(dp2935
g16
(lp2936
S'k'
asg18
S'Y'
sS'.thisRepN'
p2937
I35
sg20
S'Y'
sg31
g32
sS'.thisTrialN'
p2938
I1
sS'.thisN'
p2939
I386
sS'.thisIndex'
p2940
I10
sg15
(lp2941
S'k'
asg30
VF
sg17
S'Y'
sg14
I8
sg19
(lp2942
S'space'
p2943
asg94
I10
sa(dp2944
g16
(lp2945
S'd'
asg18
S'N'
sS'.thisRepN'
p2946
I35
sg20
S'Y'
sg31
g32
sS'.thisTrialN'
p2947
I2
sS'.thisN'
p2948
I387
sS'.thisIndex'
p2949
I0
sg15
(lp2950
S'k'
asg30
VF
sg17
S'N'
sg14
I8
sg19
Nsg94
I0
sa(dp2951
g16
(lp2952
S'd'
asg18
S'N'
sS'.thisRepN'
p2953
I35
sg20
S'Y'
sg31
g32
sS'.thisTrialN'
p2954
I3
sS'.thisN'
p2955
I388
sS'.thisIndex'
p2956
I4
sg15
(lp2957
S'd'
asg30
VF
sg17
S'Y'
sg14
I8
sg19
Nsg94
I4
sa(dp2958
g16
(lp2959
S'd'
asg18
S'N'
sS'.thisRepN'
p2960
I35
sg20
S'Y'
sg31
g32
sS'.thisTrialN'
p2961
I4
sS'.thisN'
p2962
I389
sS'.thisIndex'
p2963
I5
sg15
(lp2964
S'k'
asg30
VF
sg17
S'N'
sg14
I8
sg19
Nsg94
I5
sa(dp2965
g16
(lp2966
S'k'
asg18
S'Y'
sS'.thisRepN'
p2967
I35
sg20
S'N'
sg31
g32
sS'.thisTrialN'
p2968
I5
sS'.thisN'
p2969
I390
sS'.thisIndex'
p2970
I3
sg15
(lp2971
S'k'
asg30
VF
sg17
S'Y'
sg14
I8
sg19
(lp2972
S'd'
asg94
I3
sa(dp2973
g16
(lp2974
S'k'
asg18
S'Y'
sS'.thisRepN'
p2975
I35
sg20
S'N'
sg31
g32
sS'.thisTrialN'
p2976
I6
sS'.thisN'
p2977
I391
sS'.thisIndex'
p2978
I0
sg15
(lp2979
S'k'
asg30
VF
sg17
S'Y'
sg14
I8
sg19
(lp2980
S'd'
asg94
I0
sa(dp2981
g16
(lp2982
S'd'
asg18
S'N'
sS'.thisRepN'
p2983
I35
sg20
S'N'
sg31
g32
sS'.thisTrialN'
p2984
I7
sS'.thisN'
p2985
I392
sS'.thisIndex'
p2986
I0
sg15
(lp2987
S'd'
asg30
VF
sg17
S'Y'
sg14
I8
sg19
(lp2988
S'k'
asg94
I0
sa(dp2989
g16
(lp2990
S'k'
asg18
S'Y'
sS'.thisRepN'
p2991
I35
sg20
S'N'
sg31
g32
sS'.thisTrialN'
p2992
I8
sS'.thisN'
p2993
I393
sS'.thisIndex'
p2994
I9
sg15
(lp2995
S'k'
asg30
VF
sg17
S'Y'
sg14
I8
sg19
(lp2996
S'd'
asg94
I9
sa(dp2997
g16
(lp2998
S'd'
asg18
S'Y'
sS'.thisRepN'
p2999
I35
sg20
S'N'
sg31
g32
sS'.thisTrialN'
p3000
I9
sS'.thisN'
p3001
I394
sS'.thisIndex'
p3002
I1
sg15
(lp3003
S'd'
asg30
VF
sg17
S'Y'
sg14
I8
sg19
Nsg94
I1
sa(dp3004
g16
(lp3005
S'd'
asg18
S'Y'
sS'.thisRepN'
p3006
I35
sg20
S'N'
sg31
g32
sS'.thisTrialN'
p3007
I10
sS'.thisN'
p3008
I395
sS'.thisIndex'
p3009
I9
sg15
(lp3010
S'd'
asg30
VF
sg17
S'Y'
sg14
I8
sg19
Nsg94
I9
sa(dp3011
g16
(lp3012
S'k'
asg18
S'Y'
sS'.thisRepN'
p3013
I36
sg20
S'N'
sg31
g32
sS'.thisTrialN'
p3014
I0
sS'.thisN'
p3015
I396
sS'.thisIndex'
p3016
I9
sg15
(lp3017
S'd'
asg30
VF
sg17
S'N'
sg14
I8
sg19
Nsg94
I9
sa(dp3018
g16
(lp3019
S'd'
asg18
S'N'
sS'.thisRepN'
p3020
I36
sg20
S'Y'
sg31
g32
sS'.thisTrialN'
p3021
I1
sS'.thisN'
p3022
I397
sS'.thisIndex'
p3023
I6
sg15
(lp3024
S'k'
asg30
VF
sg17
S'N'
sg14
I8
sg19
Nsg94
I6
sa(dp3025
g16
(lp3026
S'd'
asg18
S'N'
sS'.thisRepN'
p3027
I36
sg20
S'Y'
sg31
g32
sS'.thisTrialN'
p3028
I2
sS'.thisN'
p3029
I398
sS'.thisIndex'
p3030
I1
sg15
(lp3031
S'd'
asg30
VF
sg17
S'Y'
sg14
I8
sg19
Nsg94
I1
sa(dp3032
g23
I24
sg18
S'Y'
sg22
I26
sS'.thisN'
p3033
I399
sg20
S'N'
sg31
g32
sS'.thisTrialN'
p3034
I3
sS'.thisRepN'
p3035
I36
sg21
I21
sS'.thisIndex'
p3036
I5
sg15
Nsg30
VF
sg17
g619
sg14
I8
sg19
Nsg94
I5
sa(dp3037
g16
(lp3038
S'k'
asg94
I8
sS'.thisRepN'
p3039
I36
sg30
VF
sg31
g32
sS'.thisTrialN'
p3040
I4
sS'.thisN'
p3041
I400
sS'.thisIndex'
p3042
I8
sg15
(lp3043
S'k'
asg17
S'Y'
sg14
I9
sa(dp3044
g16
(lp3045
S'k'
asg94
I1
sS'.thisRepN'
p3046
I36
sg30
VF
sg31
g32
sS'.thisTrialN'
p3047
I5
sS'.thisN'
p3048
I401
sS'.thisIndex'
p3049
I1
sg15
(lp3050
S'k'
asg17
S'Y'
sg14
I9
sa(dp3051
g16
(lp3052
S'k'
asg18
S'Y'
sS'.thisRepN'
p3053
I36
sg20
S'Y'
sg31
g32
sS'.thisTrialN'
p3054
I6
sS'.thisN'
p3055
I402
sS'.thisIndex'
p3056
I3
sg15
(lp3057
S'k'
asg30
VF
sg17
S'Y'
sg14
I9
sg19
(lp3058
S'space'
p3059
asg94
I3
sa(dp3060
g16
(lp3061
S'd'
asg18
S'N'
sS'.thisRepN'
p3062
I36
sg20
S'Y'
sg31
g32
sS'.thisTrialN'
p3063
I7
sS'.thisN'
p3064
I403
sS'.thisIndex'
p3065
I2
sg15
(lp3066
S'd'
asg30
VF
sg17
S'Y'
sg14
I9
sg19
Nsg94
I2
sa(dp3067
g16
(lp3068
S'd'
asg18
S'N'
sS'.thisRepN'
p3069
I36
sg20
S'N'
sg31
g32
sS'.thisTrialN'
p3070
I8
sS'.thisN'
p3071
I404
sS'.thisIndex'
p3072
I1
sg15
(lp3073
S'k'
asg30
VF
sg17
S'N'
sg14
I9
sg19
(lp3074
S'space'
p3075
asg94
I1
sa(dp3076
g18
S'N'
sS'.thisRepN'
p3077
I36
sg20
S'Y'
sg31
g32
sS'.thisTrialN'
p3078
I9
sS'.thisN'
p3079
I405
sS'.thisIndex'
p3080
I8
sg15
Nsg30
VF
sg17
g619
sg14
I9
sg19
Nsg94
I8
sa(dp3081
g16
(lp3082
S'd'
asg18
S'N'
sS'.thisRepN'
p3083
I36
sg20
S'Y'
sg31
g32
sS'.thisTrialN'
p3084
I10
sS'.thisN'
p3085
I406
sS'.thisIndex'
p3086
I3
sg15
(lp3087
S'k'
asg30
VF
sg17
S'N'
sg14
I9
sg19
Nsg94
I3
sa(dp3088
g16
(lp3089
S'k'
asg18
S'Y'
sS'.thisRepN'
p3090
I37
sg20
S'N'
sg31
g32
sS'.thisTrialN'
p3091
I0
sS'.thisN'
p3092
I407
sS'.thisIndex'
p3093
I10
sg15
(lp3094
S'd'
asg30
VF
sg17
S'N'
sg14
I9
sg19
Nsg94
I10
sa(dp3095
g18
S'N'
sS'.thisRepN'
p3096
I37
sg20
S'Y'
sg31
g32
sS'.thisTrialN'
p3097
I1
sS'.thisN'
p3098
I408
sS'.thisIndex'
p3099
I9
sg15
Nsg30
VF
sg17
g619
sg14
I9
sg19
Nsg94
I9
sa(dp3100
g16
(lp3101
S'k'
asg18
S'Y'
sS'.thisRepN'
p3102
I37
sg20
S'N'
sg31
g32
sS'.thisTrialN'
p3103
I2
sS'.thisN'
p3104
I409
sS'.thisIndex'
p3105
I10
sg15
(lp3106
S'd'
asg30
VF
sg17
S'N'
sg14
I9
sg19
Nsg94
I10
sa(dp3107
g16
(lp3108
S'd'
asg18
S'N'
sS'.thisRepN'
p3109
I37
sg20
S'Y'
sg31
g32
sS'.thisTrialN'
p3110
I3
sS'.thisN'
p3111
I410
sS'.thisIndex'
p3112
I2
sg15
(lp3113
S'k'
asg30
VF
sg17
S'N'
sg14
I9
sg19
Nsg94
I2
sa(dp3114
g16
(lp3115
S'd'
asg18
S'N'
sS'.thisRepN'
p3116
I37
sg20
S'Y'
sg31
g32
sS'.thisTrialN'
p3117
I4
sS'.thisN'
p3118
I411
sS'.thisIndex'
p3119
I10
sg15
(lp3120
S'd'
asg30
VF
sg17
S'Y'
sg14
I9
sg19
Nsg94
I10
sa(dp3121
g16
(lp3122
S'd'
asg18
S'Y'
sS'.thisRepN'
p3123
I37
sg20
S'Y'
sg31
g32
sS'.thisTrialN'
p3124
I5
sS'.thisN'
p3125
I412
sS'.thisIndex'
p3126
I2
sg15
(lp3127
S'k'
asg30
VF
sg17
S'N'
sg14
I9
sg19
(lp3128
S'space'
p3129
asg94
I2
sa(dp3130
g16
(lp3131
S'k'
asg18
S'Y'
sS'.thisRepN'
p3132
I37
sg20
S'Y'
sg31
g32
sS'.thisTrialN'
p3133
I6
sS'.thisN'
p3134
I413
sS'.thisIndex'
p3135
I5
sg15
(lp3136
S'd'
asg30
VF
sg17
S'N'
sg14
I9
sg19
(lp3137
S'space'
p3138
asg94
I5
sa(dp3139
g18
S'N'
sS'.thisRepN'
p3140
I37
sg20
S'Y'
sg31
g32
sS'.thisTrialN'
p3141
I7
sS'.thisN'
p3142
I414
sS'.thisIndex'
p3143
I5
sg15
Nsg30
VF
sg17
g619
sg14
I9
sg19
Nsg94
I5
sa(dp3144
g16
(lp3145
S'd'
asg18
S'N'
sS'.thisRepN'
p3146
I37
sg20
S'Y'
sg31
g32
sS'.thisTrialN'
p3147
I8
sS'.thisN'
p3148
I415
sS'.thisIndex'
p3149
I10
sg15
(lp3150
S'd'
asg30
VF
sg17
S'Y'
sg14
I9
sg19
Nsg94
I10
sa(dp3151
g16
(lp3152
S'k'
asg18
S'Y'
sS'.thisRepN'
p3153
I37
sg20
S'N'
sg31
g32
sS'.thisTrialN'
p3154
I9
sS'.thisN'
p3155
I416
sS'.thisIndex'
p3156
I6
sg15
(lp3157
S'k'
asg30
VF
sg17
S'Y'
sg14
I9
sg19
Nsg94
I6
sa(dp3158
g16
(lp3159
S'k'
asg18
S'N'
sS'.thisRepN'
p3160
I37
sg20
S'Y'
sg31
g32
sS'.thisTrialN'
p3161
I10
sS'.thisN'
p3162
I417
sS'.thisIndex'
p3163
I5
sg15
(lp3164
S'd'
asg30
VF
sg17
S'N'
sg14
I9
sg19
Nsg94
I5
sa(dp3165
g18
S'Y'
sS'.thisRepN'
p3166
I38
sg20
S'N'
sg31
g32
sS'.thisTrialN'
p3167
I0
sS'.thisN'
p3168
I418
sS'.thisIndex'
p3169
I6
sg15
Nsg30
VF
sg17
g619
sg14
I9
sg19
Nsg94
I6
sa(dp3170
g16
(lp3171
S'd'
asg18
S'Y'
sS'.thisRepN'
p3172
I38
sg20
S'N'
sg31
g32
sS'.thisTrialN'
p3173
I1
sS'.thisN'
p3174
I419
sS'.thisIndex'
p3175
I1
sg15
(lp3176
S'd'
asg30
VF
sg17
S'Y'
sg14
I9
sg19
Nsg94
I1
sa(dp3177
g18
S'Y'
sS'.thisRepN'
p3178
I38
sg20
S'N'
sg31
g32
sS'.thisTrialN'
p3179
I2
sS'.thisN'
p3180
I420
sS'.thisIndex'
p3181
I2
sg15
Nsg30
VF
sg17
g619
sg14
I9
sg19
Nsg94
I2
sa(dp3182
g16
(lp3183
S'k'
asg18
S'N'
sS'.thisRepN'
p3184
I38
sg20
S'Y'
sg31
g32
sS'.thisTrialN'
p3185
I3
sS'.thisN'
p3186
I421
sS'.thisIndex'
p3187
I6
sg15
(lp3188
S'k'
asg30
VF
sg17
S'Y'
sg14
I9
sg19
Nsg94
I6
sa(dp3189
g16
(lp3190
S'k'
asg18
S'Y'
sS'.thisRepN'
p3191
I38
sg20
S'N'
sg31
g32
sS'.thisTrialN'
p3192
I4
sS'.thisN'
p3193
I422
sS'.thisIndex'
p3194
I4
sg15
(lp3195
S'd'
asg30
VF
sg17
S'N'
sg14
I9
sg19
Nsg94
I4
sa(dp3196
g16
(lp3197
S'k'
asg18
S'Y'
sS'.thisRepN'
p3198
I38
sg20
S'N'
sg31
g32
sS'.thisTrialN'
p3199
I5
sS'.thisN'
p3200
I423
sS'.thisIndex'
p3201
I0
sg15
(lp3202
S'k'
asg30
VF
sg17
S'Y'
sg14
I9
sg19
Nsg94
I0
sa(dp3203
g18
S'Y'
sS'.thisRepN'
p3204
I38
sg20
S'N'
sg31
g32
sS'.thisTrialN'
p3205
I6
sS'.thisN'
p3206
I424
sS'.thisIndex'
p3207
I1
sg15
Nsg30
VF
sg17
g619
sg14
I9
sg19
Nsg94
I1
sa(dp3208
g18
S'N'
sS'.thisRepN'
p3209
I38
sg20
S'Y'
sg31
g32
sS'.thisTrialN'
p3210
I7
sS'.thisN'
p3211
I425
sS'.thisIndex'
p3212
I4
sg15
Nsg30
VF
sg17
g619
sg14
I9
sg19
Nsg94
I4
sa(dp3213
g16
(lp3214
S'k'
asg18
S'Y'
sS'.thisRepN'
p3215
I38
sg20
S'N'
sg31
g32
sS'.thisTrialN'
p3216
I8
sS'.thisN'
p3217
I426
sS'.thisIndex'
p3218
I6
sg15
(lp3219
S'k'
asg30
VF
sg17
S'Y'
sg14
I9
sg19
Nsg94
I6
sa(dp3220
g16
(lp3221
S'd'
asg18
S'N'
sS'.thisRepN'
p3222
I38
sg20
S'Y'
sg31
g32
sS'.thisTrialN'
p3223
I9
sS'.thisN'
p3224
I427
sS'.thisIndex'
p3225
I10
sg15
(lp3226
S'k'
asg30
VF
sg17
S'N'
sg14
I9
sg19
Nsg94
I10
sa(dp3227
g16
(lp3228
S'd'
asg18
S'N'
sS'.thisRepN'
p3229
I38
sg20
S'Y'
sg31
g32
sS'.thisTrialN'
p3230
I10
sS'.thisN'
p3231
I428
sS'.thisIndex'
p3232
I2
sg15
(lp3233
S'k'
asg30
VF
sg17
S'N'
sg14
I9
sg19
Nsg94
I2
sa(dp3234
g16
(lp3235
S'd'
asg18
S'N'
sS'.thisRepN'
p3236
I39
sg20
S'Y'
sg31
g32
sS'.thisTrialN'
p3237
I0
sS'.thisN'
p3238
I429
sS'.thisIndex'
p3239
I7
sg15
(lp3240
S'd'
asg30
VF
sg17
S'Y'
sg14
I9
sg19
Nsg94
I7
sa(dp3241
g16
(lp3242
S'd'
asg18
S'Y'
sS'.thisRepN'
p3243
I39
sg20
S'Y'
sg31
g32
sS'.thisTrialN'
p3244
I1
sS'.thisN'
p3245
I430
sS'.thisIndex'
p3246
I8
sg15
(lp3247
S'd'
asg30
VF
sg17
S'Y'
sg14
I9
sg19
(lp3248
S'space'
p3249
asg94
I8
sa(dp3250
g16
(lp3251
S'd'
asg18
S'Y'
sS'.thisRepN'
p3252
I39
sg20
S'N'
sg31
g32
sS'.thisTrialN'
p3253
I2
sS'.thisN'
p3254
I431
sS'.thisIndex'
p3255
I6
sg15
(lp3256
S'd'
asg30
VF
sg17
S'Y'
sg14
I9
sg19
Nsg94
I6
sa(dp3257
g16
(lp3258
S'k'
asg18
S'N'
sS'.thisRepN'
p3259
I39
sg20
S'Y'
sg31
g32
sS'.thisTrialN'
p3260
I3
sS'.thisN'
p3261
I432
sS'.thisIndex'
p3262
I10
sg15
(lp3263
S'd'
asg30
VF
sg17
S'N'
sg14
I9
sg19
Nsg94
I10
sa(dp3264
g16
(lp3265
S'd'
asg18
S'N'
sS'.thisRepN'
p3266
I39
sg20
S'Y'
sg31
g32
sS'.thisTrialN'
p3267
I4
sS'.thisN'
p3268
I433
sS'.thisIndex'
p3269
I2
sg15
(lp3270
S'k'
asg30
VF
sg17
S'N'
sg14
I9
sg19
Nsg94
I2
sa(dp3271
g16
(lp3272
S'd'
asg18
S'Y'
sS'.thisRepN'
p3273
I39
sg20
S'N'
sg31
g32
sS'.thisTrialN'
p3274
I5
sS'.thisN'
p3275
I434
sS'.thisIndex'
p3276
I1
sg15
(lp3277
S'd'
asg30
VF
sg17
S'Y'
sg14
I9
sg19
Nsg94
I1
sa(dp3278
g16
(lp3279
S'd'
asg18
S'Y'
sS'.thisRepN'
p3280
I39
sg20
S'N'
sg31
g32
sS'.thisTrialN'
p3281
I6
sS'.thisN'
p3282
I435
sS'.thisIndex'
p3283
I2
sg15
(lp3284
S'd'
asg30
VF
sg17
S'Y'
sg14
I9
sg19
Nsg94
I2
sa(dp3285
g16
(lp3286
S'd'
asg18
S'N'
sS'.thisRepN'
p3287
I39
sg20
S'Y'
sg31
g32
sS'.thisTrialN'
p3288
I7
sS'.thisN'
p3289
I436
sS'.thisIndex'
p3290
I10
sg15
(lp3291
S'd'
asg30
VF
sg17
S'Y'
sg14
I9
sg19
Nsg94
I10
sa(dp3292
g16
(lp3293
S'd'
asg18
S'N'
sS'.thisRepN'
p3294
I39
sg20
S'Y'
sg31
g32
sS'.thisTrialN'
p3295
I8
sS'.thisN'
p3296
I437
sS'.thisIndex'
p3297
I9
sg15
(lp3298
S'd'
asg30
VF
sg17
S'Y'
sg14
I9
sg19
Nsg94
I9
sa(dp3299
g16
(lp3300
S'd'
asg18
S'N'
sS'.thisRepN'
p3301
I39
sg20
S'Y'
sg31
g32
sS'.thisTrialN'
p3302
I9
sS'.thisN'
p3303
I438
sS'.thisIndex'
p3304
I4
sg15
(lp3305
S'k'
asg30
VF
sg17
S'N'
sg14
I9
sg19
Nsg94
I4
sa(dp3306
g16
(lp3307
S'k'
asg18
S'N'
sS'.thisRepN'
p3308
I39
sg20
S'N'
sg31
g32
sS'.thisTrialN'
p3309
I10
sS'.thisN'
p3310
I439
sS'.thisIndex'
p3311
I2
sg15
(lp3312
S'd'
asg30
VF
sg17
S'N'
sg14
I9
sg19
(lp3313
S'd'
asg94
I2
sa(dp3314
g16
(lp3315
S'k'
asg18
S'Y'
sS'.thisRepN'
p3316
I40
sg20
S'N'
sg31
g32
sS'.thisTrialN'
p3317
I0
sS'.thisN'
p3318
I440
sS'.thisIndex'
p3319
I1
sg15
(lp3320
S'k'
asg30
VF
sg17
S'Y'
sg14
I9
sg19
Nsg94
I1
sa(dp3321
g18
S'Y'
sS'.thisRepN'
p3322
I40
sg20
S'N'
sg31
g32
sS'.thisTrialN'
p3323
I1
sS'.thisN'
p3324
I441
sS'.thisIndex'
p3325
I3
sg15
Nsg30
VF
sg17
g619
sg14
I9
sg19
Nsg94
I3
sa(dp3326
g18
S'N'
sS'.thisRepN'
p3327
I40
sg20
S'Y'
sg31
g32
sS'.thisTrialN'
p3328
I2
sS'.thisN'
p3329
I442
sS'.thisIndex'
p3330
I2
sg15
Nsg30
VF
sg17
g619
sg14
I9
sg19
Nsg94
I2
sa(dp3331
g16
(lp3332
S'd'
asg18
S'N'
sS'.thisRepN'
p3333
I40
sg20
S'Y'
sg31
g32
sS'.thisTrialN'
p3334
I3
sS'.thisN'
p3335
I443
sS'.thisIndex'
p3336
I5
sg15
(lp3337
S'd'
asg30
VF
sg17
S'Y'
sg14
I9
sg19
Nsg94
I5
sa(dp3338
g16
(lp3339
S'd'
asg18
S'Y'
sS'.thisRepN'
p3340
I40
sg20
S'N'
sg31
g32
sS'.thisTrialN'
p3341
I4
sS'.thisN'
p3342
I444
sS'.thisIndex'
p3343
I4
sg15
(lp3344
S'd'
asg30
VF
sg17
S'Y'
sg14
I9
sg19
Nsg94
I4
sa(dp3345
g16
(lp3346
S'k'
asg18
S'Y'
sS'.thisRepN'
p3347
I40
sg20
S'N'
sg31
g32
sS'.thisTrialN'
p3348
I5
sS'.thisN'
p3349
I445
sS'.thisIndex'
p3350
I9
sg15
(lp3351
S'd'
asg30
VF
sg17
S'N'
sg14
I9
sg19
Nsg94
I9
sa(dp3352
g16
(lp3353
S'd'
asg18
S'Y'
sS'.thisRepN'
p3354
I40
sg20
S'Y'
sg31
g32
sS'.thisTrialN'
p3355
I6
sS'.thisN'
p3356
I446
sS'.thisIndex'
p3357
I10
sg15
(lp3358
S'd'
asg30
VF
sg17
S'Y'
sg14
I9
sg19
(lp3359
S'space'
p3360
asg94
I10
sa(dp3361
g16
(lp3362
S'k'
asg18
S'Y'
sS'.thisRepN'
p3363
I40
sg20
S'N'
sg31
g32
sS'.thisTrialN'
p3364
I7
sS'.thisN'
p3365
I447
sS'.thisIndex'
p3366
I7
sg15
(lp3367
S'k'
asg30
VF
sg17
S'Y'
sg14
I9
sg19
Nsg94
I7
sa(dp3368
g16
(lp3369
S'k'
asg18
S'N'
sS'.thisRepN'
p3370
I40
sg20
S'Y'
sg31
g32
sS'.thisTrialN'
p3371
I8
sS'.thisN'
p3372
I448
sS'.thisIndex'
p3373
I0
sg15
(lp3374
S'k'
asg30
VF
sg17
S'Y'
sg14
I9
sg19
Nsg94
I0
sa(dp3375
g23
I24
sg18
S'Y'
sg22
I28
sS'.thisN'
p3376
I449
sg20
S'Y'
sg31
g32
sS'.thisTrialN'
p3377
I9
sS'.thisRepN'
p3378
I40
sg21
I24
sS'.thisIndex'
p3379
I6
sg15
Nsg30
VF
sg17
g619
sg14
I9
sg19
(lp3380
S'space'
p3381
asg94
I6
sa(dp3382
g16
(lp3383
S'd'
asg94
I5
sS'.thisRepN'
p3384
I40
sg30
VF
sg31
g32
sS'.thisTrialN'
p3385
I10
sS'.thisN'
p3386
I450
sS'.thisIndex'
p3387
I5
sg15
(lp3388
S'd'
asg17
S'Y'
sg14
I10
sa(dp3389
g16
(lp3390
S'k'
asg94
I0
sS'.thisRepN'
p3391
I41
sg30
VF
sg31
g32
sS'.thisTrialN'
p3392
I0
sS'.thisN'
p3393
I451
sS'.thisIndex'
p3394
I0
sg15
(lp3395
S'k'
asg17
S'Y'
sg14
I10
sa(dp3396
g16
(lp3397
S'k'
asg18
S'Y'
sS'.thisRepN'
p3398
I41
sg20
S'Y'
sg31
g32
sS'.thisTrialN'
p3399
I1
sS'.thisN'
p3400
I452
sS'.thisIndex'
p3401
I5
sg15
(lp3402
S'k'
asg30
VF
sg17
S'Y'
sg14
I10
sg19
(lp3403
S'space'
p3404
asg94
I5
sa(dp3405
g16
(lp3406
S'd'
asg18
S'Y'
sS'.thisRepN'
p3407
I41
sg20
S'N'
sg31
g32
sS'.thisTrialN'
p3408
I2
sS'.thisN'
p3409
I453
sS'.thisIndex'
p3410
I2
sg15
(lp3411
S'k'
asg30
VF
sg17
S'N'
sg14
I10
sg19
Nsg94
I2
sa(dp3412
g16
(lp3413
S'd'
asg18
S'N'
sS'.thisRepN'
p3414
I41
sg20
S'Y'
sg31
g32
sS'.thisTrialN'
p3415
I3
sS'.thisN'
p3416
I454
sS'.thisIndex'
p3417
I5
sg15
(lp3418
S'd'
asg30
VF
sg17
S'Y'
sg14
I10
sg19
Nsg94
I5
sa(dp3419
g16
(lp3420
S'd'
asg18
S'Y'
sS'.thisRepN'
p3421
I41
sg20
S'N'
sg31
g32
sS'.thisTrialN'
p3422
I4
sS'.thisN'
p3423
I455
sS'.thisIndex'
p3424
I7
sg15
(lp3425
S'd'
asg30
VF
sg17
S'Y'
sg14
I10
sg19
Nsg94
I7
sa(dp3426
g16
(lp3427
S'k'
asg18
S'N'
sS'.thisRepN'
p3428
I41
sg20
S'Y'
sg31
g32
sS'.thisTrialN'
p3429
I5
sS'.thisN'
p3430
I456
sS'.thisIndex'
p3431
I3
sg15
(lp3432
S'k'
asg30
VF
sg17
S'Y'
sg14
I10
sg19
Nsg94
I3
sa(dp3433
g16
(lp3434
S'k'
asg18
S'Y'
sS'.thisRepN'
p3435
I41
sg20
S'Y'
sg31
g32
sS'.thisTrialN'
p3436
I6
sS'.thisN'
p3437
I457
sS'.thisIndex'
p3438
I3
sg15
(lp3439
S'k'
asg30
VF
sg17
S'Y'
sg14
I10
sg19
(lp3440
S'space'
p3441
asg94
I3
sa(dp3442
g16
(lp3443
S'k'
asg18
S'N'
sS'.thisRepN'
p3444
I41
sg20
S'Y'
sg31
g32
sS'.thisTrialN'
p3445
I7
sS'.thisN'
p3446
I458
sS'.thisIndex'
p3447
I0
sg15
(lp3448
S'k'
asg30
VF
sg17
S'Y'
sg14
I10
sg19
Nsg94
I0
sa(dp3449
g16
(lp3450
S'd'
asg18
S'N'
sS'.thisRepN'
p3451
I41
sg20
S'Y'
sg31
g32
sS'.thisTrialN'
p3452
I8
sS'.thisN'
p3453
I459
sS'.thisIndex'
p3454
I1
sg15
(lp3455
S'd'
asg30
VF
sg17
S'Y'
sg14
I10
sg19
Nsg94
I1
sa(dp3456
g16
(lp3457
S'k'
asg18
S'Y'
sS'.thisRepN'
p3458
I41
sg20
S'Y'
sg31
g32
sS'.thisTrialN'
p3459
I9
sS'.thisN'
p3460
I460
sS'.thisIndex'
p3461
I1
sg15
(lp3462
S'k'
asg30
VF
sg17
S'Y'
sg14
I10
sg19
(lp3463
S'space'
p3464
asg94
I1
sa(dp3465
g16
(lp3466
S'd'
asg18
S'Y'
sS'.thisRepN'
p3467
I41
sg20
S'Y'
sg31
g32
sS'.thisTrialN'
p3468
I10
sS'.thisN'
p3469
I461
sS'.thisIndex'
p3470
I9
sg15
(lp3471
S'd'
asg30
VF
sg17
S'Y'
sg14
I10
sg19
(lp3472
S'space'
p3473
asg94
I9
sa(dp3474
g16
(lp3475
S'd'
asg18
S'Y'
sS'.thisRepN'
p3476
I42
sg20
S'N'
sg31
g32
sS'.thisTrialN'
p3477
I0
sS'.thisN'
p3478
I462
sS'.thisIndex'
p3479
I5
sg15
(lp3480
S'd'
asg30
VF
sg17
S'Y'
sg14
I10
sg19
(lp3481
S'k'
asg94
I5
sa(dp3482
g16
(lp3483
S'd'
asg18
S'N'
sS'.thisRepN'
p3484
I42
sg20
S'Y'
sg31
g32
sS'.thisTrialN'
p3485
I1
sS'.thisN'
p3486
I463
sS'.thisIndex'
p3487
I9
sg15
(lp3488
S'k'
asg30
VF
sg17
S'N'
sg14
I10
sg19
Nsg94
I9
sa(dp3489
g16
(lp3490
S'k'
asg18
S'Y'
sS'.thisRepN'
p3491
I42
sg20
S'Y'
sg31
g32
sS'.thisTrialN'
p3492
I2
sS'.thisN'
p3493
I464
sS'.thisIndex'
p3494
I9
sg15
(lp3495
S'k'
asg30
VF
sg17
S'Y'
sg14
I10
sg19
(lp3496
S'space'
p3497
asg94
I9
sa(dp3498
g16
(lp3499
S'k'
asg18
S'Y'
sS'.thisRepN'
p3500
I42
sg20
S'N'
sg31
g32
sS'.thisTrialN'
p3501
I3
sS'.thisN'
p3502
I465
sS'.thisIndex'
p3503
I4
sg15
(lp3504
S'k'
asg30
VF
sg17
S'Y'
sg14
I10
sg19
Nsg94
I4
sa(dp3505
g16
(lp3506
S'd'
asg18
S'N'
sS'.thisRepN'
p3507
I42
sg20
S'Y'
sg31
g32
sS'.thisTrialN'
p3508
I4
sS'.thisN'
p3509
I466
sS'.thisIndex'
p3510
I5
sg15
(lp3511
S'd'
asg30
VF
sg17
S'Y'
sg14
I10
sg19
Nsg94
I5
sa(dp3512
g16
(lp3513
S'k'
asg18
S'N'
sS'.thisRepN'
p3514
I42
sg20
S'Y'
sg31
g32
sS'.thisTrialN'
p3515
I5
sS'.thisN'
p3516
I467
sS'.thisIndex'
p3517
I3
sg15
(lp3518
S'k'
asg30
VF
sg17
S'Y'
sg14
I10
sg19
Nsg94
I3
sa(dp3519
g16
(lp3520
S'k'
asg18
S'N'
sS'.thisRepN'
p3521
I42
sg20
S'Y'
sg31
g32
sS'.thisTrialN'
p3522
I6
sS'.thisN'
p3523
I468
sS'.thisIndex'
p3524
I1
sg15
(lp3525
S'k'
asg30
VF
sg17
S'Y'
sg14
I10
sg19
Nsg94
I1
sa(dp3526
g16
(lp3527
S'd'
asg18
S'N'
sS'.thisRepN'
p3528
I42
sg20
S'Y'
sg31
g32
sS'.thisTrialN'
p3529
I7
sS'.thisN'
p3530
I469
sS'.thisIndex'
p3531
I8
sg15
(lp3532
S'd'
asg30
VF
sg17
S'Y'
sg14
I10
sg19
Nsg94
I8
sa(dp3533
g16
(lp3534
S'k'
asg18
S'Y'
sS'.thisRepN'
p3535
I42
sg20
S'Y'
sg31
g32
sS'.thisTrialN'
p3536
I8
sS'.thisN'
p3537
I470
sS'.thisIndex'
p3538
I3
sg15
(lp3539
S'k'
asg30
VF
sg17
S'Y'
sg14
I10
sg19
(lp3540
S'space'
p3541
asg94
I3
sa(dp3542
g16
(lp3543
S'k'
asg18
S'Y'
sS'.thisRepN'
p3544
I42
sg20
S'N'
sg31
g32
sS'.thisTrialN'
p3545
I9
sS'.thisN'
p3546
I471
sS'.thisIndex'
p3547
I2
sg15
(lp3548
S'k'
asg30
VF
sg17
S'Y'
sg14
I10
sg19
Nsg94
I2
sa(dp3549
g16
(lp3550
S'k'
asg18
S'Y'
sS'.thisRepN'
p3551
I42
sg20
S'Y'
sg31
g32
sS'.thisTrialN'
p3552
I10
sS'.thisN'
p3553
I472
sS'.thisIndex'
p3554
I7
sg15
(lp3555
S'k'
asg30
VF
sg17
S'Y'
sg14
I10
sg19
(lp3556
S'space'
p3557
asg94
I7
sa(dp3558
g16
(lp3559
S'd'
asg18
S'N'
sS'.thisRepN'
p3560
I43
sg20
S'Y'
sg31
g32
sS'.thisTrialN'
p3561
I0
sS'.thisN'
p3562
I473
sS'.thisIndex'
p3563
I10
sg15
(lp3564
S'd'
asg30
VF
sg17
S'Y'
sg14
I10
sg19
Nsg94
I10
sa(dp3565
g16
(lp3566
S'd'
asg18
S'N'
sS'.thisRepN'
p3567
I43
sg20
S'Y'
sg31
g32
sS'.thisTrialN'
p3568
I1
sS'.thisN'
p3569
I474
sS'.thisIndex'
p3570
I7
sg15
(lp3571
S'd'
asg30
VF
sg17
S'Y'
sg14
I10
sg19
Nsg94
I7
sa(dp3572
g16
(lp3573
S'k'
asg18
S'Y'
sS'.thisRepN'
p3574
I43
sg20
S'N'
sg31
g32
sS'.thisTrialN'
p3575
I2
sS'.thisN'
p3576
I475
sS'.thisIndex'
p3577
I2
sg15
(lp3578
S'k'
asg30
VF
sg17
S'Y'
sg14
I10
sg19
Nsg94
I2
sa(dp3579
g16
(lp3580
S'd'
asg18
S'Y'
sS'.thisRepN'
p3581
I43
sg20
S'N'
sg31
g32
sS'.thisTrialN'
p3582
I3
sS'.thisN'
p3583
I476
sS'.thisIndex'
p3584
I8
sg15
(lp3585
S'd'
asg30
VF
sg17
S'Y'
sg14
I10
sg19
Nsg94
I8
sa(dp3586
g16
(lp3587
S'k'
asg18
S'Y'
sS'.thisRepN'
p3588
I43
sg20
S'Y'
sg31
g32
sS'.thisTrialN'
p3589
I4
sS'.thisN'
p3590
I477
sS'.thisIndex'
p3591
I6
sg15
(lp3592
S'k'
asg30
VF
sg17
S'Y'
sg14
I10
sg19
(lp3593
S'space'
p3594
asg94
I6
sa(dp3595
g16
(lp3596
S'k'
asg18
S'N'
sS'.thisRepN'
p3597
I43
sg20
S'Y'
sg31
g32
sS'.thisTrialN'
p3598
I5
sS'.thisN'
p3599
I478
sS'.thisIndex'
p3600
I4
sg15
(lp3601
S'k'
asg30
VF
sg17
S'Y'
sg14
I10
sg19
Nsg94
I4
sa(dp3602
g16
(lp3603
S'd'
asg18
S'N'
sS'.thisRepN'
p3604
I43
sg20
S'Y'
sg31
g32
sS'.thisTrialN'
p3605
I6
sS'.thisN'
p3606
I479
sS'.thisIndex'
p3607
I7
sg15
(lp3608
S'd'
asg30
VF
sg17
S'Y'
sg14
I10
sg19
Nsg94
I7
sa(dp3609
g16
(lp3610
S'd'
asg18
S'N'
sS'.thisRepN'
p3611
I43
sg20
S'N'
sg31
g32
sS'.thisTrialN'
p3612
I7
sS'.thisN'
p3613
I480
sS'.thisIndex'
p3614
I7
sg15
(lp3615
S'd'
asg30
VF
sg17
S'Y'
sg14
I10
sg19
(lp3616
S'space'
p3617
asg94
I7
sa(dp3618
g16
(lp3619
S'k'
asg18
S'Y'
sS'.thisRepN'
p3620
I43
sg20
S'N'
sg31
g32
sS'.thisTrialN'
p3621
I8
sS'.thisN'
p3622
I481
sS'.thisIndex'
p3623
I4
sg15
(lp3624
S'k'
asg30
VF
sg17
S'Y'
sg14
I10
sg19
Nsg94
I4
sa(dp3625
g16
(lp3626
S'd'
asg18
S'Y'
sS'.thisRepN'
p3627
I43
sg20
S'Y'
sg31
g32
sS'.thisTrialN'
p3628
I9
sS'.thisN'
p3629
I482
sS'.thisIndex'
p3630
I9
sg15
(lp3631
S'd'
asg30
VF
sg17
S'Y'
sg14
I10
sg19
(lp3632
S'space'
p3633
asg94
I9
sa(dp3634
g16
(lp3635
S'd'
asg18
S'Y'
sS'.thisRepN'
p3636
I43
sg20
S'N'
sg31
g32
sS'.thisTrialN'
p3637
I10
sS'.thisN'
p3638
I483
sS'.thisIndex'
p3639
I5
sg15
(lp3640
S'd'
asg30
VF
sg17
S'Y'
sg14
I10
sg19
Nsg94
I5
sa(dp3641
g16
(lp3642
S'k'
asg18
S'Y'
sS'.thisRepN'
p3643
I44
sg20
S'Y'
sg31
g32
sS'.thisTrialN'
p3644
I0
sS'.thisN'
p3645
I484
sS'.thisIndex'
p3646
I1
sg15
(lp3647
S'k'
asg30
VF
sg17
S'Y'
sg14
I10
sg19
(lp3648
S'space'
p3649
asg94
I1
sa(dp3650
g16
(lp3651
S'k'
asg18
S'N'
sS'.thisRepN'
p3652
I44
sg20
S'Y'
sg31
g32
sS'.thisTrialN'
p3653
I1
sS'.thisN'
p3654
I485
sS'.thisIndex'
p3655
I1
sg15
(lp3656
S'k'
asg30
VF
sg17
S'Y'
sg14
I10
sg19
Nsg94
I1
sa(dp3657
g16
(lp3658
S'd'
asg18
S'Y'
sS'.thisRepN'
p3659
I44
sg20
S'N'
sg31
g32
sS'.thisTrialN'
p3660
I2
sS'.thisN'
p3661
I486
sS'.thisIndex'
p3662
I6
sg15
(lp3663
S'k'
asg30
VF
sg17
S'N'
sg14
I10
sg19
Nsg94
I6
sa(dp3664
g16
(lp3665
S'd'
asg18
S'N'
sS'.thisRepN'
p3666
I44
sg20
S'N'
sg31
g32
sS'.thisTrialN'
p3667
I3
sS'.thisN'
p3668
I487
sS'.thisIndex'
p3669
I0
sg15
(lp3670
S'd'
asg30
VF
sg17
S'Y'
sg14
I10
sg19
(lp3671
S'space'
p3672
asg94
I0
sa(dp3673
g16
(lp3674
S'k'
asg18
S'Y'
sS'.thisRepN'
p3675
I44
sg20
S'N'
sg31
g32
sS'.thisTrialN'
p3676
I4
sS'.thisN'
p3677
I488
sS'.thisIndex'
p3678
I7
sg15
(lp3679
S'k'
asg30
VF
sg17
S'Y'
sg14
I10
sg19
Nsg94
I7
sa(dp3680
g16
(lp3681
S'd'
asg18
S'Y'
sS'.thisRepN'
p3682
I44
sg20
S'Y'
sg31
g32
sS'.thisTrialN'
p3683
I5
sS'.thisN'
p3684
I489
sS'.thisIndex'
p3685
I6
sg15
(lp3686
S'd'
asg30
VF
sg17
S'Y'
sg14
I10
sg19
(lp3687
S'space'
p3688
asg94
I6
sa(dp3689
g16
(lp3690
S'k'
asg18
S'N'
sS'.thisRepN'
p3691
I44
sg20
S'Y'
sg31
g32
sS'.thisTrialN'
p3692
I6
sS'.thisN'
p3693
I490
sS'.thisIndex'
p3694
I7
sg15
(lp3695
S'k'
asg30
VF
sg17
S'Y'
sg14
I10
sg19
Nsg94
I7
sa(dp3696
g16
(lp3697
S'k'
asg18
S'Y'
sS'.thisRepN'
p3698
I44
sg20
S'Y'
sg31
g32
sS'.thisTrialN'
p3699
I7
sS'.thisN'
p3700
I491
sS'.thisIndex'
p3701
I2
sg15
(lp3702
S'k'
asg30
VF
sg17
S'Y'
sg14
I10
sg19
(lp3703
S'space'
p3704
asg94
I2
sa(dp3705
g16
(lp3706
S'd'
asg18
S'N'
sS'.thisRepN'
p3707
I44
sg20
S'N'
sg31
g32
sS'.thisTrialN'
p3708
I8
sS'.thisN'
p3709
I492
sS'.thisIndex'
p3710
I0
sg15
(lp3711
S'd'
asg30
VF
sg17
S'Y'
sg14
I10
sg19
(lp3712
S'space'
p3713
asg94
I0
sa(dp3714
g16
(lp3715
S'd'
asg18
S'N'
sS'.thisRepN'
p3716
I44
sg20
S'N'
sg31
g32
sS'.thisTrialN'
p3717
I9
sS'.thisN'
p3718
I493
sS'.thisIndex'
p3719
I7
sg15
(lp3720
S'd'
asg30
VF
sg17
S'Y'
sg14
I10
sg19
(lp3721
S'space'
p3722
asg94
I7
sa(dp3723
g16
(lp3724
S'd'
asg18
S'Y'
sS'.thisRepN'
p3725
I44
sg20
S'Y'
sg31
g32
sS'.thisTrialN'
p3726
I10
sS'.thisN'
p3727
I494
sS'.thisIndex'
p3728
I9
sg15
(lp3729
S'd'
asg30
VF
sg17
S'Y'
sg14
I10
sg19
(lp3730
S'space'
p3731
asg94
I9
sa(dp3732
g16
(lp3733
S'k'
asg18
S'N'
sS'.thisRepN'
p3734
I45
sg20
S'Y'
sg31
g32
sS'.thisTrialN'
p3735
I0
sS'.thisN'
p3736
I495
sS'.thisIndex'
p3737
I1
sg15
(lp3738
S'k'
asg30
VF
sg17
S'Y'
sg14
I10
sg19
Nsg94
I1
sa(dp3739
g16
(lp3740
S'd'
asg18
S'Y'
sS'.thisRepN'
p3741
I45
sg20
S'N'
sg31
g32
sS'.thisTrialN'
p3742
I1
sS'.thisN'
p3743
I496
sS'.thisIndex'
p3744
I9
sg15
(lp3745
S'd'
asg30
VF
sg17
S'Y'
sg14
I10
sg19
Nsg94
I9
sa(dp3746
g16
(lp3747
S'k'
asg18
S'N'
sS'.thisRepN'
p3748
I45
sg20
S'Y'
sg31
g32
sS'.thisTrialN'
p3749
I2
sS'.thisN'
p3750
I497
sS'.thisIndex'
p3751
I2
sg15
(lp3752
S'k'
asg30
VF
sg17
S'Y'
sg14
I10
sg19
Nsg94
I2
sa(dp3753
g16
(lp3754
S'k'
asg18
S'N'
sS'.thisRepN'
p3755
I45
sg20
S'Y'
sg31
g32
sS'.thisTrialN'
p3756
I3
sS'.thisN'
p3757
I498
sS'.thisIndex'
p3758
I4
sg15
(lp3759
S'k'
asg30
VF
sg17
S'Y'
sg14
I10
sg19
Nsg94
I4
sa(dp3760
g16
(lp3761
S'k'
asg18
S'N'
sg22
I31
sS'.thisN'
p3762
I499
sg20
S'N'
sg31
g32
sS'.thisTrialN'
p3763
I4
sS'.thisRepN'
p3764
I45
sg21
I47
sS'.thisIndex'
p3765
I0
sg23
I25
sg15
(lp3766
S'k'
asg30
VF
sg17
S'Y'
sg14
I10
sg19
(lp3767
S'space'
p3768
asg94
I0
sa(dp3769
g16
(lp3770
S'k'
asS'.thisIndex'
p3771
I4
sS'.thisRepN'
p3772
I45
sg26
S'Y'
sg30
VF
sg31
g32
sS'.thisTrialN'
p3773
I5
sS'.thisN'
p3774
I500
sg25
S'Y'
sg24
S'Y'
sg15
(lp3775
S'k'
asg17
S'N'
sg14
I11
sg94
I4
sa(dp3776
g16
(lp3777
S'k'
asS'.thisIndex'
p3778
I4
sS'.thisRepN'
p3779
I45
sg26
S'Y'
sg30
VF
sg31
g32
sS'.thisTrialN'
p3780
I6
sS'.thisN'
p3781
I501
sg25
S'Y'
sg15
(lp3782
S'd'
asg17
S'Y'
sg14
I11
sg94
I4
sa(dp3783
g16
(lp3784
S'd'
asg18
S'N'
sS'.thisRepN'
p3785
I45
sg26
S'Y'
sg20
S'Y'
sg31
g32
sS'.thisTrialN'
p3786
I7
sS'.thisN'
p3787
I502
sg25
S'Y'
sg15
(lp3788
S'k'
asg30
VF
sg17
S'Y'
sg14
I11
sg19
Nsg94
I4
sS'.thisIndex'
p3789
I4
sa(dp3790
g16
(lp3791
S'd'
asg18
S'N'
sS'.thisRepN'
p3792
I45
sg26
S'Y'
sg20
S'Y'
sg31
g32
sS'.thisTrialN'
p3793
I8
sS'.thisN'
p3794
I503
sg25
S'Y'
sg15
(lp3795
S'k'
asg30
VF
sg17
S'Y'
sg14
I11
sg19
Nsg94
I7
sS'.thisIndex'
p3796
I7
sa(dp3797
g16
(lp3798
S'k'
asg18
S'Y'
sS'.thisRepN'
p3799
I45
sg26
S'Y'
sg20
S'Y'
sg31
g32
sS'.thisTrialN'
p3800
I9
sS'.thisN'
p3801
I504
sg25
S'Y'
sg15
(lp3802
S'd'
asg30
VF
sg17
S'Y'
sg14
I11
sg19
(lp3803
S'space'
p3804
asg94
I8
sS'.thisIndex'
p3805
I8
sa(dp3806
g16
(lp3807
S'd'
asg18
S'N'
sS'.thisRepN'
p3808
I45
sg26
S'Y'
sg20
S'Y'
sg31
g32
sS'.thisTrialN'
p3809
I10
sS'.thisN'
p3810
I505
sg25
S'Y'
sg15
(lp3811
S'k'
asg30
VF
sg17
S'Y'
sg14
I11
sg19
Nsg94
I5
sS'.thisIndex'
p3812
I5
sa(dp3813
g16
(lp3814
S'k'
asg18
S'N'
sS'.thisRepN'
p3815
I46
sg26
S'Y'
sg20
S'Y'
sg31
g32
sS'.thisTrialN'
p3816
I0
sS'.thisN'
p3817
I506
sg25
S'Y'
sg15
(lp3818
S'd'
asg30
VF
sg17
S'Y'
sg14
I11
sg19
Nsg94
I3
sS'.thisIndex'
p3819
I3
sa(dp3820
g16
(lp3821
S'k'
asg18
S'N'
sS'.thisRepN'
p3822
I46
sg26
S'Y'
sg20
S'N'
sg31
g32
sS'.thisTrialN'
p3823
I1
sS'.thisN'
p3824
I507
sg25
S'Y'
sg15
(lp3825
S'd'
asg30
VF
sg17
S'Y'
sg14
I11
sg19
(lp3826
S'space'
p3827
asg94
I1
sS'.thisIndex'
p3828
I1
sa(dp3829
g16
(lp3830
S'k'
asg18
S'Y'
sS'.thisRepN'
p3831
I46
sg26
S'Y'
sg20
S'Y'
sg31
g32
sS'.thisTrialN'
p3832
I2
sS'.thisN'
p3833
I508
sg25
S'Y'
sg15
(lp3834
S'k'
asg30
VF
sg17
S'N'
sg14
I11
sg19
(lp3835
S'space'
p3836
asg94
I5
sS'.thisIndex'
p3837
I5
sa(dp3838
g16
(lp3839
S'k'
asg18
S'N'
sS'.thisRepN'
p3840
I46
sg26
S'Y'
sg20
S'Y'
sg31
g32
sS'.thisTrialN'
p3841
I3
sS'.thisN'
p3842
I509
sg25
S'Y'
sg15
(lp3843
S'd'
asg30
VF
sg17
S'Y'
sg14
I11
sg19
Nsg94
I1
sS'.thisIndex'
p3844
I1
sa(dp3845
g16
(lp3846
S'k'
asg18
S'N'
sS'.thisRepN'
p3847
I46
sg26
S'Y'
sg20
S'Y'
sg31
g32
sS'.thisTrialN'
p3848
I4
sS'.thisN'
p3849
I510
sg25
S'Y'
sg15
(lp3850
S'd'
asg30
VF
sg17
S'Y'
sg14
I11
sg19
Nsg94
I10
sS'.thisIndex'
p3851
I10
sa(dp3852
g16
(lp3853
S'k'
asg18
S'N'
sS'.thisRepN'
p3854
I46
sg26
S'Y'
sg20
S'Y'
sg31
g32
sS'.thisTrialN'
p3855
I5
sS'.thisN'
p3856
I511
sg25
S'Y'
sg15
(lp3857
S'd'
asg30
VF
sg17
S'Y'
sg14
I11
sg19
Nsg94
I7
sS'.thisIndex'
p3858
I7
sa(dp3859
g18
S'Y'
sS'.thisRepN'
p3860
I46
sg26
S'Y'
sg20
S'N'
sg31
g32
sS'.thisTrialN'
p3861
I6
sS'.thisN'
p3862
I512
sg25
S'Y'
sg15
Nsg30
VF
sg17
g619
sg14
I11
sg19
Nsg94
I10
sS'.thisIndex'
p3863
I10
sa(dp3864
g16
(lp3865
S'k'
asg18
S'N'
sS'.thisRepN'
p3866
I46
sg26
S'Y'
sg20
S'Y'
sg31
g32
sS'.thisTrialN'
p3867
I7
sS'.thisN'
p3868
I513
sg25
S'Y'
sg15
(lp3869
S'd'
asg30
VF
sg17
S'Y'
sg14
I11
sg19
Nsg94
I3
sS'.thisIndex'
p3870
I3
sa(dp3871
g16
(lp3872
S'd'
asg18
S'N'
sS'.thisRepN'
p3873
I46
sg26
S'Y'
sg20
S'Y'
sg31
g32
sS'.thisTrialN'
p3874
I8
sS'.thisN'
p3875
I514
sg25
S'Y'
sg15
(lp3876
S'k'
asg30
VF
sg17
S'Y'
sg14
I11
sg19
Nsg94
I1
sS'.thisIndex'
p3877
I1
sa(dp3878
g16
(lp3879
S'd'
asg18
S'N'
sS'.thisRepN'
p3880
I46
sg26
S'Y'
sg20
S'Y'
sg31
g32
sS'.thisTrialN'
p3881
I9
sS'.thisN'
p3882
I515
sg25
S'Y'
sg15
(lp3883
S'k'
asg30
VF
sg17
S'Y'
sg14
I11
sg19
Nsg94
I8
sS'.thisIndex'
p3884
I8
sa(dp3885
g16
(lp3886
S'd'
asg18
S'N'
sS'.thisRepN'
p3887
I46
sg26
S'Y'
sg20
S'Y'
sg31
g32
sS'.thisTrialN'
p3888
I10
sS'.thisN'
p3889
I516
sg25
S'Y'
sg15
(lp3890
S'k'
asg30
VF
sg17
S'Y'
sg14
I11
sg19
Nsg94
I7
sS'.thisIndex'
p3891
I7
sa(dp3892
g16
(lp3893
S'k'
asg18
S'Y'
sS'.thisRepN'
p3894
I47
sg26
S'Y'
sg20
S'N'
sg31
g32
sS'.thisTrialN'
p3895
I0
sS'.thisN'
p3896
I517
sg25
S'Y'
sg15
(lp3897
S'd'
asg30
VF
sg17
S'Y'
sg14
I11
sg19
Nsg94
I10
sS'.thisIndex'
p3898
I10
sa(dp3899
g16
(lp3900
S'k'
asg18
S'N'
sS'.thisRepN'
p3901
I47
sg26
S'Y'
sg20
S'Y'
sg31
g32
sS'.thisTrialN'
p3902
I1
sS'.thisN'
p3903
I518
sg25
S'Y'
sg15
(lp3904
S'd'
asg30
VF
sg17
S'Y'
sg14
I11
sg19
Nsg94
I0
sS'.thisIndex'
p3905
I0
sa(dp3906
g16
(lp3907
S'd'
asg18
S'N'
sS'.thisRepN'
p3908
I47
sg26
S'Y'
sg20
S'Y'
sg31
g32
sS'.thisTrialN'
p3909
I2
sS'.thisN'
p3910
I519
sg25
S'Y'
sg15
(lp3911
S'k'
asg30
VF
sg17
S'Y'
sg14
I11
sg19
Nsg94
I5
sS'.thisIndex'
p3912
I5
sa(dp3913
g16
(lp3914
S'k'
asg18
S'Y'
sS'.thisRepN'
p3915
I47
sg26
S'Y'
sg20
S'N'
sg31
g32
sS'.thisTrialN'
p3916
I3
sS'.thisN'
p3917
I520
sg25
S'Y'
sg15
(lp3918
S'd'
asg30
VF
sg17
S'Y'
sg14
I11
sg19
Nsg94
I4
sS'.thisIndex'
p3919
I4
sa(dp3920
g16
(lp3921
S'd'
asg18
S'Y'
sS'.thisRepN'
p3922
I47
sg26
S'Y'
sg20
S'N'
sg31
g32
sS'.thisTrialN'
p3923
I4
sS'.thisN'
p3924
I521
sg25
S'Y'
sg15
(lp3925
S'k'
asg30
VF
sg17
S'Y'
sg14
I11
sg19
Nsg94
I2
sS'.thisIndex'
p3926
I2
sa(dp3927
g16
(lp3928
S'k'
asg18
S'Y'
sS'.thisRepN'
p3929
I47
sg26
S'Y'
sg20
S'N'
sg31
g32
sS'.thisTrialN'
p3930
I5
sS'.thisN'
p3931
I522
sg25
S'Y'
sg15
(lp3932
S'd'
asg30
VF
sg17
S'Y'
sg14
I11
sg19
Nsg94
I5
sS'.thisIndex'
p3933
I5
sa(dp3934
g16
(lp3935
S'k'
asg18
S'Y'
sS'.thisRepN'
p3936
I47
sg26
S'Y'
sg20
S'N'
sg31
g32
sS'.thisTrialN'
p3937
I6
sS'.thisN'
p3938
I523
sg25
S'Y'
sg15
(lp3939
S'd'
asg30
VF
sg17
S'Y'
sg14
I11
sg19
Nsg94
I8
sS'.thisIndex'
p3940
I8
sa(dp3941
g18
S'Y'
sS'.thisRepN'
p3942
I47
sg26
S'Y'
sg20
S'N'
sg31
g32
sS'.thisTrialN'
p3943
I7
sS'.thisN'
p3944
I524
sg25
S'Y'
sg15
Nsg30
VF
sg17
g619
sg14
I11
sg19
Nsg94
I6
sS'.thisIndex'
p3945
I6
sa(dp3946
g16
(lp3947
S'd'
asg18
S'Y'
sS'.thisRepN'
p3948
I47
sg26
S'Y'
sg20
S'N'
sg31
g32
sS'.thisTrialN'
p3949
I8
sS'.thisN'
p3950
I525
sg25
S'Y'
sg15
(lp3951
S'd'
asg30
VF
sg17
S'N'
sg14
I11
sg19
Nsg94
I1
sS'.thisIndex'
p3952
I1
sa(dp3953
g16
(lp3954
S'd'
asg18
S'Y'
sS'.thisRepN'
p3955
I47
sg26
S'Y'
sg20
S'N'
sg31
g32
sS'.thisTrialN'
p3956
I9
sS'.thisN'
p3957
I526
sg25
S'Y'
sg15
(lp3958
S'd'
asg30
VF
sg17
S'N'
sg14
I11
sg19
Nsg94
I3
sS'.thisIndex'
p3959
I3
sa(dp3960
g16
(lp3961
S'k'
asg18
S'N'
sS'.thisRepN'
p3962
I47
sg26
S'Y'
sg20
S'Y'
sg31
g32
sS'.thisTrialN'
p3963
I10
sS'.thisN'
p3964
I527
sg25
S'Y'
sg15
(lp3965
S'd'
asg30
VF
sg17
S'Y'
sg14
I11
sg19
Nsg94
I6
sS'.thisIndex'
p3966
I6
sa(dp3967
g16
(lp3968
S'k'
asg18
S'N'
sS'.thisRepN'
p3969
I48
sg26
S'Y'
sg20
S'Y'
sg31
g32
sS'.thisTrialN'
p3970
I0
sS'.thisN'
p3971
I528
sg25
S'Y'
sg15
(lp3972
S'd'
asg30
VF
sg17
S'Y'
sg14
I11
sg19
Nsg94
I2
sS'.thisIndex'
p3973
I2
sa(dp3974
g16
(lp3975
S'd'
asg18
S'N'
sS'.thisRepN'
p3976
I48
sg26
S'Y'
sg20
S'Y'
sg31
g32
sS'.thisTrialN'
p3977
I1
sS'.thisN'
p3978
I529
sg25
S'Y'
sg15
(lp3979
S'k'
asg30
VF
sg17
S'Y'
sg14
I11
sg19
Nsg94
I2
sS'.thisIndex'
p3980
I2
sa(dp3981
g16
(lp3982
S'k'
asg18
S'N'
sS'.thisRepN'
p3983
I48
sg26
S'Y'
sg20
S'Y'
sg31
g32
sS'.thisTrialN'
p3984
I2
sS'.thisN'
p3985
I530
sg25
S'Y'
sg15
(lp3986
S'd'
asg30
VF
sg17
S'Y'
sg14
I11
sg19
Nsg94
I0
sS'.thisIndex'
p3987
I0
sa(dp3988
g16
(lp3989
S'd'
asg18
S'N'
sS'.thisRepN'
p3990
I48
sg26
S'Y'
sg20
S'Y'
sg31
g32
sS'.thisTrialN'
p3991
I3
sS'.thisN'
p3992
I531
sg25
S'Y'
sg15
(lp3993
S'k'
asg30
VF
sg17
S'Y'
sg14
I11
sg19
Nsg94
I10
sS'.thisIndex'
p3994
I10
sa(dp3995
g18
S'Y'
sS'.thisRepN'
p3996
I48
sg26
S'Y'
sg20
S'Y'
sg31
g32
sS'.thisTrialN'
p3997
I4
sS'.thisN'
p3998
I532
sg25
S'Y'
sg15
Nsg30
VF
sg17
g619
sg14
I11
sg19
(lp3999
S'space'
p4000
asg94
I3
sS'.thisIndex'
p4001
I3
sa(dp4002
g16
(lp4003
S'd'
asg18
S'Y'
sS'.thisRepN'
p4004
I48
sg26
S'Y'
sg20
S'Y'
sg31
g32
sS'.thisTrialN'
p4005
I5
sS'.thisN'
p4006
I533
sg25
S'Y'
sg15
(lp4007
S'k'
asg30
VF
sg17
S'Y'
sg14
I11
sg19
(lp4008
S'space'
p4009
asg94
I3
sS'.thisIndex'
p4010
I3
sa(dp4011
g16
(lp4012
S'k'
asg18
S'Y'
sS'.thisRepN'
p4013
I48
sg26
S'Y'
sg20
S'N'
sg31
g32
sS'.thisTrialN'
p4014
I6
sS'.thisN'
p4015
I534
sg25
S'Y'
sg15
(lp4016
S'd'
asg30
VF
sg17
S'Y'
sg14
I11
sg19
Nsg94
I1
sS'.thisIndex'
p4017
I1
sa(dp4018
g16
(lp4019
S'k'
asg18
S'Y'
sS'.thisRepN'
p4020
I48
sg26
S'Y'
sg20
S'N'
sg31
g32
sS'.thisTrialN'
p4021
I7
sS'.thisN'
p4022
I535
sg25
S'Y'
sg15
(lp4023
S'd'
asg30
VF
sg17
S'Y'
sg14
I11
sg19
Nsg94
I8
sS'.thisIndex'
p4024
I8
sa(dp4025
g16
(lp4026
S'd'
asg18
S'Y'
sS'.thisRepN'
p4027
I48
sg26
S'Y'
sg20
S'Y'
sg31
g32
sS'.thisTrialN'
p4028
I8
sS'.thisN'
p4029
I536
sg25
S'Y'
sg15
(lp4030
S'k'
asg30
VF
sg17
S'Y'
sg14
I11
sg19
(lp4031
S'space'
p4032
asg94
I9
sS'.thisIndex'
p4033
I9
sa(dp4034
g16
(lp4035
S'd'
asg18
S'N'
sS'.thisRepN'
p4036
I48
sg26
S'Y'
sg20
S'Y'
sg31
g32
sS'.thisTrialN'
p4037
I9
sS'.thisN'
p4038
I537
sg25
S'Y'
sg15
(lp4039
S'k'
asg30
VF
sg17
S'Y'
sg14
I11
sg19
Nsg94
I3
sS'.thisIndex'
p4040
I3
sa(dp4041
g16
(lp4042
S'k'
asg18
S'Y'
sS'.thisRepN'
p4043
I48
sg26
S'Y'
sg20
S'Y'
sg31
g32
sS'.thisTrialN'
p4044
I10
sS'.thisN'
p4045
I538
sg25
S'Y'
sg15
(lp4046
S'd'
asg30
VF
sg17
S'Y'
sg14
I11
sg19
(lp4047
S'space'
p4048
asg94
I3
sS'.thisIndex'
p4049
I3
sa(dp4050
g16
(lp4051
S'k'
asg18
S'Y'
sS'.thisRepN'
p4052
I49
sg26
S'Y'
sg20
S'Y'
sg31
g32
sS'.thisTrialN'
p4053
I0
sS'.thisN'
p4054
I539
sg25
S'Y'
sg15
(lp4055
S'd'
asg30
VF
sg17
S'Y'
sg14
I11
sg19
(lp4056
S'space'
p4057
asg94
I6
sS'.thisIndex'
p4058
I6
sa(dp4059
g16
(lp4060
S'd'
asg18
S'Y'
sS'.thisRepN'
p4061
I49
sg26
S'Y'
sg20
S'Y'
sg31
g32
sS'.thisTrialN'
p4062
I1
sS'.thisN'
p4063
I540
sg25
S'Y'
sg15
(lp4064
S'k'
asg30
VF
sg17
S'Y'
sg14
I11
sg19
(lp4065
S'space'
p4066
asg94
I9
sS'.thisIndex'
p4067
I9
sa(dp4068
g16
(lp4069
S'd'
asg18
S'Y'
sS'.thisRepN'
p4070
I49
sg26
S'Y'
sg20
S'N'
sg31
g32
sS'.thisTrialN'
p4071
I2
sS'.thisN'
p4072
I541
sg25
S'Y'
sg15
(lp4073
S'k'
asg30
VF
sg17
S'Y'
sg14
I11
sg19
Nsg94
I8
sS'.thisIndex'
p4074
I8
sa(dp4075
g16
(lp4076
S'k'
asg18
S'Y'
sS'.thisRepN'
p4077
I49
sg26
S'Y'
sg20
S'Y'
sg31
g32
sS'.thisTrialN'
p4078
I3
sS'.thisN'
p4079
I542
sg25
S'Y'
sg15
(lp4080
S'd'
asg30
VF
sg17
S'Y'
sg14
I11
sg19
(lp4081
S'space'
p4082
asg94
I0
sS'.thisIndex'
p4083
I0
sa(dp4084
g16
(lp4085
S'd'
asg18
S'Y'
sS'.thisRepN'
p4086
I49
sg26
S'Y'
sg20
S'N'
sg31
g32
sS'.thisTrialN'
p4087
I4
sS'.thisN'
p4088
I543
sg25
S'Y'
sg15
(lp4089
S'k'
asg30
VF
sg17
S'Y'
sg14
I11
sg19
Nsg94
I2
sS'.thisIndex'
p4090
I2
sa(dp4091
g16
(lp4092
S'd'
asg18
S'N'
sS'.thisRepN'
p4093
I49
sg26
S'Y'
sg20
S'Y'
sg31
g32
sS'.thisTrialN'
p4094
I5
sS'.thisN'
p4095
I544
sg25
S'Y'
sg15
(lp4096
S'k'
asg30
VF
sg17
S'Y'
sg14
I11
sg19
Nsg94
I9
sS'.thisIndex'
p4097
I9
sa(dp4098
g16
(lp4099
S'k'
asg18
S'Y'
sS'.thisRepN'
p4100
I49
sg26
S'Y'
sg20
S'N'
sg31
g32
sS'.thisTrialN'
p4101
I6
sS'.thisN'
p4102
I545
sg25
S'Y'
sg15
(lp4103
S'd'
asg30
VF
sg17
S'Y'
sg14
I11
sg19
Nsg94
I7
sS'.thisIndex'
p4104
I7
sa(dp4105
g16
(lp4106
S'd'
asg18
S'Y'
sS'.thisRepN'
p4107
I49
sg26
S'Y'
sg20
S'N'
sg31
g32
sS'.thisTrialN'
p4108
I7
sS'.thisN'
p4109
I546
sg25
S'Y'
sg15
(lp4110
S'k'
asg30
VF
sg17
S'Y'
sg14
I11
sg19
Nsg94
I5
sS'.thisIndex'
p4111
I5
sa(dp4112
g16
(lp4113
S'k'
asg18
S'N'
sS'.thisRepN'
p4114
I49
sg26
S'Y'
sg20
S'Y'
sg31
g32
sS'.thisTrialN'
p4115
I8
sS'.thisN'
p4116
I547
sg25
S'Y'
sg15
(lp4117
S'd'
asg30
VF
sg17
S'Y'
sg14
I11
sg19
Nsg94
I5
sS'.thisIndex'
p4118
I5
sa(dp4119
g16
(lp4120
S'k'
asg18
S'Y'
sS'.thisRepN'
p4121
I49
sg26
S'Y'
sg20
S'N'
sg31
g32
sS'.thisTrialN'
p4122
I9
sS'.thisN'
p4123
I548
sg25
S'Y'
sg15
(lp4124
S'd'
asg30
VF
sg17
S'Y'
sg14
I11
sg19
Nsg94
I9
sS'.thisIndex'
p4125
I9
sa(dp4126
g16
(lp4127
S'd'
asg18
S'N'
sg22
I31
sg26
S'Y'
sS'.thisN'
p4128
I549
sg20
S'Y'
sg31
g32
sS'.thisTrialN'
p4129
I10
sS'.thisRepN'
p4130
I49
sg21
I43
sg25
S'Y'
sg23
I25
sg15
(lp4131
S'k'
asg30
VF
sg17
S'Y'
sg14
I11
sg19
Nsg94
I6
sS'.thisIndex'
p4132
I6
sa(dp4133
g16
(lp4134
S'k'
asS'.thisIndex'
p4135
I7
sS'.thisRepN'
p4136
I50
sg26
S'Y'
sg30
VF
sg31
g32
sS'.thisTrialN'
p4137
I0
sS'.thisN'
p4138
I550
sg25
S'Y'
sg15
(lp4139
S'd'
asg17
S'Y'
sg14
I12
sg94
I7
sa(dp4140
g16
(lp4141
S'd'
asS'.thisIndex'
p4142
I10
sS'.thisRepN'
p4143
I50
sg26
S'Y'
sg30
VF
sg31
g32
sS'.thisTrialN'
p4144
I1
sS'.thisN'
p4145
I551
sg25
S'Y'
sg15
(lp4146
S'k'
asg17
S'Y'
sg14
I12
sg94
I10
sa(dp4147
g16
(lp4148
S'k'
asg18
S'Y'
sS'.thisRepN'
p4149
I50
sg26
S'Y'
sg20
S'Y'
sg31
g32
sS'.thisTrialN'
p4150
I2
sS'.thisN'
p4151
I552
sg25
S'Y'
sg15
(lp4152
S'd'
asg30
VF
sg17
S'Y'
sg14
I12
sg19
(lp4153
S'space'
p4154
asg94
I1
sS'.thisIndex'
p4155
I1
sa(dp4156
g16
(lp4157
S'k'
asg18
S'Y'
sS'.thisRepN'
p4158
I50
sg26
S'Y'
sg20
S'Y'
sg31
g32
sS'.thisTrialN'
p4159
I3
sS'.thisN'
p4160
I553
sg25
S'Y'
sg15
(lp4161
S'd'
asg30
VF
sg17
S'Y'
sg14
I12
sg19
(lp4162
S'space'
p4163
asg94
I2
sS'.thisIndex'
p4164
I2
sa(dp4165
g16
(lp4166
S'd'
asg18
S'Y'
sS'.thisRepN'
p4167
I50
sg26
S'Y'
sg20
S'N'
sg31
g32
sS'.thisTrialN'
p4168
I4
sS'.thisN'
p4169
I554
sg25
S'Y'
sg15
(lp4170
S'k'
asg30
VF
sg17
S'Y'
sg14
I12
sg19
Nsg94
I5
sS'.thisIndex'
p4171
I5
sa(dp4172
g16
(lp4173
S'k'
asg18
S'N'
sS'.thisRepN'
p4174
I50
sg26
S'Y'
sg20
S'Y'
sg31
g32
sS'.thisTrialN'
p4175
I5
sS'.thisN'
p4176
I555
sg25
S'Y'
sg15
(lp4177
S'd'
asg30
VF
sg17
S'Y'
sg14
I12
sg19
Nsg94
I0
sS'.thisIndex'
p4178
I0
sa(dp4179
g16
(lp4180
S'k'
asg18
S'N'
sS'.thisRepN'
p4181
I50
sg26
S'Y'
sg20
S'Y'
sg31
g32
sS'.thisTrialN'
p4182
I6
sS'.thisN'
p4183
I556
sg25
S'Y'
sg15
(lp4184
S'd'
asg30
VF
sg17
S'Y'
sg14
I12
sg19
Nsg94
I0
sS'.thisIndex'
p4185
I0
sa(dp4186
g16
(lp4187
S'd'
asg18
S'Y'
sS'.thisRepN'
p4188
I50
sg26
S'Y'
sg20
S'Y'
sg31
g32
sS'.thisTrialN'
p4189
I7
sS'.thisN'
p4190
I557
sg25
S'Y'
sg15
(lp4191
S'k'
asg30
VF
sg17
S'Y'
sg14
I12
sg19
(lp4192
S'space'
p4193
asg94
I10
sS'.thisIndex'
p4194
I10
sa(dp4195
g16
(lp4196
S'k'
asg18
S'N'
sS'.thisRepN'
p4197
I50
sg26
S'Y'
sg20
S'Y'
sg31
g32
sS'.thisTrialN'
p4198
I8
sS'.thisN'
p4199
I558
sg25
S'Y'
sg15
(lp4200
S'd'
asg30
VF
sg17
S'Y'
sg14
I12
sg19
Nsg94
I1
sS'.thisIndex'
p4201
I1
sa(dp4202
g16
(lp4203
S'd'
asg18
S'Y'
sS'.thisRepN'
p4204
I50
sg26
S'Y'
sg20
S'Y'
sg31
g32
sS'.thisTrialN'
p4205
I9
sS'.thisN'
p4206
I559
sg25
S'Y'
sg15
(lp4207
S'k'
asg30
VF
sg17
S'Y'
sg14
I12
sg19
(lp4208
S'space'
p4209
asg94
I3
sS'.thisIndex'
p4210
I3
sa(dp4211
g16
(lp4212
S'd'
asg18
S'N'
sS'.thisRepN'
p4213
I50
sg26
S'Y'
sg20
S'Y'
sg31
g32
sS'.thisTrialN'
p4214
I10
sS'.thisN'
p4215
I560
sg25
S'Y'
sg15
(lp4216
S'd'
asg30
VF
sg17
S'N'
sg14
I12
sg19
Nsg94
I8
sS'.thisIndex'
p4217
I8
sa(dp4218
g16
(lp4219
S'd'
asg18
S'Y'
sS'.thisRepN'
p4220
I51
sg26
S'Y'
sg20
S'Y'
sg31
g32
sS'.thisTrialN'
p4221
I0
sS'.thisN'
p4222
I561
sg25
S'Y'
sg15
(lp4223
S'k'
asg30
VF
sg17
S'Y'
sg14
I12
sg19
(lp4224
S'space'
p4225
asg94
I0
sS'.thisIndex'
p4226
I0
sa(dp4227
g16
(lp4228
S'd'
asg18
S'Y'
sS'.thisRepN'
p4229
I51
sg26
S'Y'
sg20
S'N'
sg31
g32
sS'.thisTrialN'
p4230
I1
sS'.thisN'
p4231
I562
sg25
S'Y'
sg15
(lp4232
S'k'
asg30
VF
sg17
S'Y'
sg14
I12
sg19
Nsg94
I7
sS'.thisIndex'
p4233
I7
sa(dp4234
g16
(lp4235
S'k'
asg18
S'Y'
sS'.thisRepN'
p4236
I51
sg26
S'Y'
sg20
S'N'
sg31
g32
sS'.thisTrialN'
p4237
I2
sS'.thisN'
p4238
I563
sg25
S'Y'
sg15
(lp4239
S'd'
asg30
VF
sg17
S'Y'
sg14
I12
sg19
Nsg94
I7
sS'.thisIndex'
p4240
I7
sa(dp4241
g16
(lp4242
S'd'
asg18
S'N'
sS'.thisRepN'
p4243
I51
sg26
S'Y'
sg20
S'Y'
sg31
g32
sS'.thisTrialN'
p4244
I3
sS'.thisN'
p4245
I564
sg25
S'Y'
sg15
(lp4246
S'k'
asg30
VF
sg17
S'Y'
sg14
I12
sg19
Nsg94
I8
sS'.thisIndex'
p4247
I8
sa(dp4248
g16
(lp4249
S'd'
asg18
S'N'
sS'.thisRepN'
p4250
I51
sg26
S'Y'
sg20
S'Y'
sg31
g32
sS'.thisTrialN'
p4251
I4
sS'.thisN'
p4252
I565
sg25
S'Y'
sg15
(lp4253
S'k'
asg30
VF
sg17
S'Y'
sg14
I12
sg19
Nsg94
I8
sS'.thisIndex'
p4254
I8
sa(dp4255
g16
(lp4256
S'd'
asg18
S'Y'
sS'.thisRepN'
p4257
I51
sg26
S'Y'
sg20
S'N'
sg31
g32
sS'.thisTrialN'
p4258
I5
sS'.thisN'
p4259
I566
sg25
S'Y'
sg15
(lp4260
S'k'
asg30
VF
sg17
S'Y'
sg14
I12
sg19
Nsg94
I2
sS'.thisIndex'
p4261
I2
sa(dp4262
g16
(lp4263
S'd'
asg18
S'Y'
sS'.thisRepN'
p4264
I51
sg26
S'Y'
sg20
S'N'
sg31
g32
sS'.thisTrialN'
p4265
I6
sS'.thisN'
p4266
I567
sg25
S'Y'
sg15
(lp4267
S'k'
asg30
VF
sg17
S'Y'
sg14
I12
sg19
Nsg94
I10
sS'.thisIndex'
p4268
I10
sa(dp4269
g16
(lp4270
S'd'
asg18
S'N'
sS'.thisRepN'
p4271
I51
sg26
S'Y'
sg20
S'Y'
sg31
g32
sS'.thisTrialN'
p4272
I7
sS'.thisN'
p4273
I568
sg25
S'Y'
sg15
(lp4274
S'k'
asg30
VF
sg17
S'Y'
sg14
I12
sg19
Nsg94
I3
sS'.thisIndex'
p4275
I3
sa(dp4276
g16
(lp4277
S'k'
asg18
S'Y'
sS'.thisRepN'
p4278
I51
sg26
S'Y'
sg20
S'N'
sg31
g32
sS'.thisTrialN'
p4279
I8
sS'.thisN'
p4280
I569
sg25
S'Y'
sg15
(lp4281
S'd'
asg30
VF
sg17
S'Y'
sg14
I12
sg19
Nsg94
I7
sS'.thisIndex'
p4282
I7
sa(dp4283
g16
(lp4284
S'k'
asg18
S'N'
sS'.thisRepN'
p4285
I51
sg26
S'Y'
sg20
S'N'
sg31
g32
sS'.thisTrialN'
p4286
I9
sS'.thisN'
p4287
I570
sg25
S'Y'
sg15
(lp4288
S'd'
asg30
VF
sg17
S'Y'
sg14
I12
sg19
(lp4289
S'space'
p4290
asg94
I3
sS'.thisIndex'
p4291
I3
sa(dp4292
g16
(lp4293
S'd'
asg18
S'Y'
sS'.thisRepN'
p4294
I51
sg26
S'Y'
sg20
S'N'
sg31
g32
sS'.thisTrialN'
p4295
I10
sS'.thisN'
p4296
I571
sg25
S'Y'
sg15
(lp4297
S'k'
asg30
VF
sg17
S'Y'
sg14
I12
sg19
Nsg94
I10
sS'.thisIndex'
p4298
I10
sa(dp4299
g16
(lp4300
S'd'
asg18
S'Y'
sS'.thisRepN'
p4301
I52
sg26
S'Y'
sg20
S'Y'
sg31
g32
sS'.thisTrialN'
p4302
I0
sS'.thisN'
p4303
I572
sg25
S'Y'
sg15
(lp4304
S'k'
asg30
VF
sg17
S'Y'
sg14
I12
sg19
(lp4305
S'space'
p4306
asg94
I3
sS'.thisIndex'
p4307
I3
sa(dp4308
g16
(lp4309
S'k'
asg18
S'Y'
sS'.thisRepN'
p4310
I52
sg26
S'Y'
sg20
S'N'
sg31
g32
sS'.thisTrialN'
p4311
I1
sS'.thisN'
p4312
I573
sg25
S'Y'
sg15
(lp4313
S'd'
asg30
VF
sg17
S'Y'
sg14
I12
sg19
Nsg94
I8
sS'.thisIndex'
p4314
I8
sa(dp4315
g16
(lp4316
S'd'
asg18
S'N'
sS'.thisRepN'
p4317
I52
sg26
S'Y'
sg20
S'Y'
sg31
g32
sS'.thisTrialN'
p4318
I2
sS'.thisN'
p4319
I574
sg25
S'Y'
sg15
(lp4320
S'k'
asg30
VF
sg17
S'Y'
sg14
I12
sg19
Nsg94
I10
sS'.thisIndex'
p4321
I10
sa(dp4322
g16
(lp4323
S'd'
asg18
S'N'
sS'.thisRepN'
p4324
I52
sg26
S'Y'
sg20
S'Y'
sg31
g32
sS'.thisTrialN'
p4325
I3
sS'.thisN'
p4326
I575
sg25
S'Y'
sg15
(lp4327
S'k'
asg30
VF
sg17
S'Y'
sg14
I12
sg19
Nsg94
I8
sS'.thisIndex'
p4328
I8
sa(dp4329
g16
(lp4330
S'd'
asg18
S'Y'
sS'.thisRepN'
p4331
I52
sg26
S'Y'
sg20
S'Y'
sg31
g32
sS'.thisTrialN'
p4332
I4
sS'.thisN'
p4333
I576
sg25
S'Y'
sg15
(lp4334
S'k'
asg30
VF
sg17
S'Y'
sg14
I12
sg19
(lp4335
S'space'
p4336
asg94
I2
sS'.thisIndex'
p4337
I2
sa(dp4338
g16
(lp4339
S'k'
asg18
S'Y'
sS'.thisRepN'
p4340
I52
sg26
S'Y'
sg20
S'Y'
sg31
g32
sS'.thisTrialN'
p4341
I5
sS'.thisN'
p4342
I577
sg25
S'Y'
sg15
(lp4343
S'd'
asg30
VF
sg17
S'Y'
sg14
I12
sg19
(lp4344
S'space'
p4345
asg94
I0
sS'.thisIndex'
p4346
I0
sa(dp4347
g16
(lp4348
S'k'
asg18
S'Y'
sS'.thisRepN'
p4349
I52
sg26
S'Y'
sg20
S'Y'
sg31
g32
sS'.thisTrialN'
p4350
I6
sS'.thisN'
p4351
I578
sg25
S'Y'
sg15
(lp4352
S'd'
asg30
VF
sg17
S'Y'
sg14
I12
sg19
(lp4353
S'space'
p4354
asg94
I4
sS'.thisIndex'
p4355
I4
sa(dp4356
g16
(lp4357
S'k'
asg18
S'N'
sS'.thisRepN'
p4358
I52
sg26
S'Y'
sg20
S'Y'
sg31
g32
sS'.thisTrialN'
p4359
I7
sS'.thisN'
p4360
I579
sg25
S'Y'
sg15
(lp4361
S'd'
asg30
VF
sg17
S'Y'
sg14
I12
sg19
Nsg94
I4
sS'.thisIndex'
p4362
I4
sa(dp4363
g16
(lp4364
S'd'
asg18
S'Y'
sS'.thisRepN'
p4365
I52
sg26
S'Y'
sg20
S'N'
sg31
g32
sS'.thisTrialN'
p4366
I8
sS'.thisN'
p4367
I580
sg25
S'Y'
sg15
(lp4368
S'k'
asg30
VF
sg17
S'Y'
sg14
I12
sg19
Nsg94
I5
sS'.thisIndex'
p4369
I5
sa(dp4370
g18
S'Y'
sS'.thisRepN'
p4371
I52
sg26
S'Y'
sg20
S'N'
sg31
g32
sS'.thisTrialN'
p4372
I9
sS'.thisN'
p4373
I581
sg25
S'Y'
sg15
Nsg30
VF
sg17
g619
sg14
I12
sg19
Nsg94
I10
sS'.thisIndex'
p4374
I10
sa(dp4375
g16
(lp4376
S'd'
asg18
S'N'
sS'.thisRepN'
p4377
I52
sg26
S'Y'
sg20
S'Y'
sg31
g32
sS'.thisTrialN'
p4378
I10
sS'.thisN'
p4379
I582
sg25
S'Y'
sg15
(lp4380
S'k'
asg30
VF
sg17
S'Y'
sg14
I12
sg19
Nsg94
I2
sS'.thisIndex'
p4381
I2
sa(dp4382
g16
(lp4383
S'k'
asg18
S'N'
sS'.thisRepN'
p4384
I53
sg26
S'Y'
sg20
S'Y'
sg31
g32
sS'.thisTrialN'
p4385
I0
sS'.thisN'
p4386
I583
sg25
S'Y'
sg15
(lp4387
S'd'
asg30
VF
sg17
S'Y'
sg14
I12
sg19
Nsg94
I3
sS'.thisIndex'
p4388
I3
sa(dp4389
g16
(lp4390
S'k'
asg18
S'Y'
sS'.thisRepN'
p4391
I53
sg26
S'Y'
sg20
S'Y'
sg31
g32
sS'.thisTrialN'
p4392
I1
sS'.thisN'
p4393
I584
sg25
S'Y'
sg15
(lp4394
S'd'
asg30
VF
sg17
S'Y'
sg14
I12
sg19
(lp4395
S'space'
p4396
asg94
I4
sS'.thisIndex'
p4397
I4
sa(dp4398
g16
(lp4399
S'd'
asg18
S'N'
sS'.thisRepN'
p4400
I53
sg26
S'Y'
sg20
S'Y'
sg31
g32
sS'.thisTrialN'
p4401
I2
sS'.thisN'
p4402
I585
sg25
S'Y'
sg15
(lp4403
S'k'
asg30
VF
sg17
S'Y'
sg14
I12
sg19
Nsg94
I1
sS'.thisIndex'
p4404
I1
sa(dp4405
g16
(lp4406
S'k'
asg18
S'N'
sS'.thisRepN'
p4407
I53
sg26
S'Y'
sg20
S'N'
sg31
g32
sS'.thisTrialN'
p4408
I3
sS'.thisN'
p4409
I586
sg25
S'Y'
sg15
(lp4410
S'd'
asg30
VF
sg17
S'Y'
sg14
I12
sg19
(lp4411
S'space'
p4412
asg94
I3
sS'.thisIndex'
p4413
I3
sa(dp4414
g16
(lp4415
S'k'
asg18
S'Y'
sS'.thisRepN'
p4416
I53
sg26
S'Y'
sg20
S'Y'
sg31
g32
sS'.thisTrialN'
p4417
I4
sS'.thisN'
p4418
I587
sg25
S'Y'
sg15
(lp4419
S'd'
asg30
VF
sg17
S'Y'
sg14
I12
sg19
(lp4420
S'space'
p4421
asg94
I10
sS'.thisIndex'
p4422
I10
sa(dp4423
g16
(lp4424
S'd'
asg18
S'Y'
sS'.thisRepN'
p4425
I53
sg26
S'Y'
sg20
S'Y'
sg31
g32
sS'.thisTrialN'
p4426
I5
sS'.thisN'
p4427
I588
sg25
S'Y'
sg15
(lp4428
S'k'
asg30
VF
sg17
S'Y'
sg14
I12
sg19
(lp4429
S'space'
p4430
asg94
I2
sS'.thisIndex'
p4431
I2
sa(dp4432
g16
(lp4433
S'k'
asg18
S'N'
sS'.thisRepN'
p4434
I53
sg26
S'Y'
sg20
S'Y'
sg31
g32
sS'.thisTrialN'
p4435
I6
sS'.thisN'
p4436
I589
sg25
S'Y'
sg15
(lp4437
S'd'
asg30
VF
sg17
S'Y'
sg14
I12
sg19
Nsg94
I5
sS'.thisIndex'
p4438
I5
sa(dp4439
g16
(lp4440
S'd'
asg18
S'N'
sS'.thisRepN'
p4441
I53
sg26
S'Y'
sg20
S'Y'
sg31
g32
sS'.thisTrialN'
p4442
I7
sS'.thisN'
p4443
I590
sg25
S'Y'
sg15
(lp4444
S'k'
asg30
VF
sg17
S'Y'
sg14
I12
sg19
Nsg94
I0
sS'.thisIndex'
p4445
I0
sa(dp4446
g16
(lp4447
S'k'
asg18
S'Y'
sS'.thisRepN'
p4448
I53
sg26
S'Y'
sg20
S'Y'
sg31
g32
sS'.thisTrialN'
p4449
I8
sS'.thisN'
p4450
I591
sg25
S'Y'
sg15
(lp4451
S'd'
asg30
VF
sg17
S'Y'
sg14
I12
sg19
(lp4452
S'space'
p4453
asg94
I7
sS'.thisIndex'
p4454
I7
sa(dp4455
g16
(lp4456
S'k'
asg18
S'N'
sS'.thisRepN'
p4457
I53
sg26
S'Y'
sg20
S'Y'
sg31
g32
sS'.thisTrialN'
p4458
I9
sS'.thisN'
p4459
I592
sg25
S'Y'
sg15
(lp4460
S'd'
asg30
VF
sg17
S'Y'
sg14
I12
sg19
Nsg94
I8
sS'.thisIndex'
p4461
I8
sa(dp4462
g16
(lp4463
S'd'
asg18
S'N'
sS'.thisRepN'
p4464
I53
sg26
S'Y'
sg20
S'N'
sg31
g32
sS'.thisTrialN'
p4465
I10
sS'.thisN'
p4466
I593
sg25
S'Y'
sg15
(lp4467
S'k'
asg30
VF
sg17
S'Y'
sg14
I12
sg19
(lp4468
S'space'
p4469
asg94
I8
sS'.thisIndex'
p4470
I8
sa(dp4471
g16
(lp4472
S'k'
asg18
S'N'
sS'.thisRepN'
p4473
I54
sg26
S'Y'
sg20
S'Y'
sg31
g32
sS'.thisTrialN'
p4474
I0
sS'.thisN'
p4475
I594
sg25
S'Y'
sg15
(lp4476
S'd'
asg30
VF
sg17
S'Y'
sg14
I12
sg19
Nsg94
I0
sS'.thisIndex'
p4477
I0
sa(dp4478
g16
(lp4479
S'd'
asg18
S'Y'
sS'.thisRepN'
p4480
I54
sg26
S'Y'
sg20
S'N'
sg31
g32
sS'.thisTrialN'
p4481
I1
sS'.thisN'
p4482
I595
sg25
S'Y'
sg15
(lp4483
S'k'
asg30
VF
sg17
S'Y'
sg14
I12
sg19
Nsg94
I2
sS'.thisIndex'
p4484
I2
sa(dp4485
g16
(lp4486
S'k'
asg18
S'N'
sS'.thisRepN'
p4487
I54
sg26
S'Y'
sg20
S'N'
sg31
g32
sS'.thisTrialN'
p4488
I2
sS'.thisN'
p4489
I596
sg25
S'Y'
sg15
(lp4490
S'd'
asg30
VF
sg17
S'Y'
sg14
I12
sg19
(lp4491
S'space'
p4492
asg94
I8
sS'.thisIndex'
p4493
I8
sa(dp4494
g16
(lp4495
S'k'
asg18
S'Y'
sS'.thisRepN'
p4496
I54
sg26
S'Y'
sg20
S'Y'
sg31
g32
sS'.thisTrialN'
p4497
I3
sS'.thisN'
p4498
I597
sg25
S'Y'
sg15
(lp4499
S'd'
asg30
VF
sg17
S'Y'
sg14
I12
sg19
(lp4500
S'space'
p4501
asg94
I5
sS'.thisIndex'
p4502
I5
sa(dp4503
g16
(lp4504
S'k'
asg18
S'N'
sS'.thisRepN'
p4505
I54
sg26
S'Y'
sg20
S'Y'
sg31
g32
sS'.thisTrialN'
p4506
I4
sS'.thisN'
p4507
I598
sg25
S'Y'
sg15
(lp4508
S'd'
asg30
VF
sg17
S'Y'
sg14
I12
sg19
Nsg94
I9
sS'.thisIndex'
p4509
I9
sa(dp4510
g16
(lp4511
S'k'
asg18
S'N'
sg22
I33
sg26
S'Y'
sS'.thisN'
p4512
I599
sg20
S'Y'
sg31
g32
sS'.thisTrialN'
p4513
I5
sS'.thisRepN'
p4514
I54
sg21
I48
sg25
S'Y'
sg23
I25
sg15
(lp4515
S'd'
asg30
VF
sg17
S'Y'
sg14
I12
sg19
Nsg94
I10
sS'.thisIndex'
p4516
I10
sasS'loops'
p4517
(lp4518
g1
(g35
g3
NtRp4519
(dp4520
g38
Nsg39
(lp4521
sg40
I169107600
sg10
S''
sg6
g41
sg42
I1
sg27
I01
sg28
Nsg43
g1
(g44
g45
(dp4522
g47
g48
(g49
g50
g51
S'b'
tRp4523
(I1
(I600
I1
tg54
I00
S'\x00\x00\x80?\x00\x00\x80?\x00\x00\x80?\x00\x00\x80?\x00\x00\x80?\x00\x00\x80?\x00\x00\x80?\x00\x00\x80?\x00\x00\x80?\x00\x00\x80?\x00\x00\x80?\x00\x00\x80?\x00\x00\x80?\x00\x00\x80?\x00\x00\x80?\x00\x00\x80?\x00\x00\x80?\x00\x00\x80?\x00\x00\x80?\x00\x00\x80?\x00\x00\x80?\x00\x00\x80?\x00\x00\x80?\x00\x00\x80?\x00\x00\x80?\x00\x00\x80?\x00\x00\x80?\x00\x00\x80?\x00\x00\x80?\x00\x00\x80?\x00\x00\x80?\x00\x00\x80?\x00\x00\x80?\x00\x00\x80?\x00\x00\x80?\x00\x00\x80?\x00\x00\x80?\x00\x00\x80?\x00\x00\x80?\x00\x00\x80?\x00\x00\x80?\x00\x00\x80?\x00\x00\x80?\x00\x00\x80?\x00\x00\x80?\x00\x00\x80?\x00\x00\x80?\x00\x00\x80?\x00\x00\x80?\x00\x00\x80?\x00\x00\x80?\x00\x00\x80?\x00\x00\x80?\x00\x00\x80?\x00\x00\x80?\x00\x00\x80?\x00\x00\x80?\x00\x00\x80?\x00\x00\x80?\x00\x00\x80?\x00\x00\x80?\x00\x00\x80?\x00\x00\x80?\x00\x00\x80?\x00\x00\x80?\x00\x00\x80?\x00\x00\x80?\x00\x00\x80?\x00\x00\x80?\x00\x00\x80?\x00\x00\x80?\x00\x00\x80?\x00\x00\x80?\x00\x00\x80?\x00\x00\x80?\x00\x00\x80?\x00\x00\x80?\x00\x00\x80?\x00\x00\x80?\x00\x00\x80?\x00\x00\x80?\x00\x00\x80?\x00\x00\x80?\x00\x00\x80?\x00\x00\x80?\x00\x00\x80?\x00\x00\x80?\x00\x00\x80?\x00\x00\x80?\x00\x00\x80?\x00\x00\x80?\x00\x00\x80?\x00\x00\x80?\x00\x00\x80?\x00\x00\x80?\x00\x00\x80?\x00\x00\x80?\x00\x00\x80?\x00\x00\x80?\x00\x00\x80?\x00\x00\x80?\x00\x00\x80?\x00\x00\x80?\x00\x00\x80?\x00\x00\x80?\x00\x00\x80?\x00\x00\x80?\x00\x00\x80?\x00\x00\x80?\x00\x00\x80?\x00\x00\x80?\x00\x00\x80?\x00\x00\x80?\x00\x00\x80?\x00\x00\x80?\x00\x00\x80?\x00\x00\x80?\x00\x00\x80?\x00\x00\x80?\x00\x00\x80?\x00\x00\x80?\x00\x00\x80?\x00\x00\x80?\x00\x00\x80?\x00\x00\x80?\x00\x00\x80?\x00\x00\x80?\x00\x00\x80?\x00\x00\x80?\x00\x00\x80?\x00\x00\x80?\x00\x00\x80?\x00\x00\x80?\x00\x00\x80?\x00\x00\x80?\x00\x00\x80?\x00\x00\x80?\x00\x00\x80?\x00\x00\x80?\x00\x00\x80?\x00\x00\x80?\x00\x00\x80?\x00\x00\x80?\x00\x00\x80?\x00\x00\x80?\x00\x00\x80?\x00\x00\x80?\x00\x00\x80?\x00\x00\x80?\x00\x00\x80?\x00\x00\x80?\x00\x00\x80?\x00\x00\x80?\x00\x00\x80?\x00\x00\x80?\x00\x00\x80?\x00\x00\x80?\x00\x00\x80?\x00\x00\x80?\x00\x00\x80?\x00\x00\x80?\x00\x00\x80?\x00\x00\x80?\x00\x00\x80?\x00\x00\x80?\x00\x00\x80?\x00\x00\x80?\x00\x00\x80?\x00\x00\x80?\x00\x00\x80?\x00\x00\x80?\x00\x00\x80?\x00\x00\x80?\x00\x00\x80?\x00\x00\x80?\x00\x00\x80?\x00\x00\x80?\x00\x00\x80?\x00\x00\x80?\x00\x00\x80?\x00\x00\x80?\x00\x00\x80?\x00\x00\x80?\x00\x00\x80?\x00\x00\x80?\x00\x00\x80?\x00\x00\x80?\x00\x00\x80?\x00\x00\x80?\x00\x00\x80?\x00\x00\x80?\x00\x00\x80?\x00\x00\x80?\x00\x00\x80?\x00\x00\x80?\x00\x00\x80?\x00\x00\x80?\x00\x00\x80?\x00\x00\x80?\x00\x00\x80?\x00\x00\x80?\x00\x00\x80?\x00\x00\x80?\x00\x00\x80?\x00\x00\x80?\x00\x00\x80?\x00\x00\x80?\x00\x00\x80?\x00\x00\x80?\x00\x00\x80?\x00\x00\x80?\x00\x00\x80?\x00\x00\x80?\x00\x00\x80?\x00\x00\x80?\x00\x00\x80?\x00\x00\x80?\x00\x00\x80?\x00\x00\x80?\x00\x00\x80?\x00\x00\x80?\x00\x00\x80?\x00\x00\x80?\x00\x00\x80?\x00\x00\x80?\x00\x00\x80?\x00\x00\x80?\x00\x00\x80?\x00\x00\x80?\x00\x00\x80?\x00\x00\x80?\x00\x00\x80?\x00\x00\x80?\x00\x00\x80?\x00\x00\x80?\x00\x00\x80?\x00\x00\x80?\x00\x00\x80?\x00\x00\x80?\x00\x00\x80?\x00\x00\x80?\x00\x00\x80?\x00\x00\x80?\x00\x00\x80?\x00\x00\x80?\x00\x00\x80?\x00\x00\x80?\x00\x00\x80?\x00\x00\x80?\x00\x00\x80?\x00\x00\x80?\x00\x00\x80?\x00\x00\x80?\x00\x00\x80?\x00\x00\x80?\x00\x00\x80?\x00\x00\x80?\x00\x00\x80?\x00\x00\x80?\x00\x00\x80?\x00\x00\x80?\x00\x00\x80?\x00\x00\x80?\x00\x00\x80?\x00\x00\x80?\x00\x00\x80?\x00\x00\x80?\x00\x00\x80?\x00\x00\x80?\x00\x00\x80?\x00\x00\x80?\x00\x00\x80?\x00\x00\x80?\x00\x00\x80?\x00\x00\x80?\x00\x00\x80?\x00\x00\x80?\x00\x00\x80?\x00\x00\x80?\x00\x00\x80?\x00\x00\x80?\x00\x00\x80?\x00\x00\x80?\x00\x00\x80?\x00\x00\x80?\x00\x00\x80?\x00\x00\x80?\x00\x00\x80?\x00\x00\x80?\x00\x00\x80?\x00\x00\x80?\x00\x00\x80?\x00\x00\x80?\x00\x00\x80?\x00\x00\x80?\x00\x00\x80?\x00\x00\x80?\x00\x00\x80?\x00\x00\x80?\x00\x00\x80?\x00\x00\x80?\x00\x00\x80?\x00\x00\x80?\x00\x00\x80?\x00\x00\x80?\x00\x00\x80?\x00\x00\x80?\x00\x00\x80?\x00\x00\x80?\x00\x00\x80?\x00\x00\x80?\x00\x00\x80?\x00\x00\x80?\x00\x00\x80?\x00\x00\x80?\x00\x00\x80?\x00\x00\x80?\x00\x00\x80?\x00\x00\x80?\x00\x00\x80?\x00\x00\x80?\x00\x00\x80?\x00\x00\x80?\x00\x00\x80?\x00\x00\x80?\x00\x00\x80?\x00\x00\x80?\x00\x00\x80?\x00\x00\x80?\x00\x00\x80?\x00\x00\x80?\x00\x00\x80?\x00\x00\x80?\x00\x00\x80?\x00\x00\x80?\x00\x00\x80?\x00\x00\x80?\x00\x00\x80?\x00\x00\x80?\x00\x00\x80?\x00\x00\x80?\x00\x00\x80?\x00\x00\x80?\x00\x00\x80?\x00\x00\x80?\x00\x00\x80?\x00\x00\x80?\x00\x00\x80?\x00\x00\x80?\x00\x00\x80?\x00\x00\x80?\x00\x00\x80?\x00\x00\x80?\x00\x00\x80?\x00\x00\x80?\x00\x00\x80?\x00\x00\x80?\x00\x00\x80?\x00\x00\x80?\x00\x00\x80?\x00\x00\x80?\x00\x00\x80?\x00\x00\x80?\x00\x00\x80?\x00\x00\x80?\x00\x00\x80?\x00\x00\x80?\x00\x00\x80?\x00\x00\x80?\x00\x00\x80?\x00\x00\x80?\x00\x00\x80?\x00\x00\x80?\x00\x00\x80?\x00\x00\x80?\x00\x00\x80?\x00\x00\x80?\x00\x00\x80?\x00\x00\x80?\x00\x00\x80?\x00\x00\x80?\x00\x00\x80?\x00\x00\x80?\x00\x00\x80?\x00\x00\x80?\x00\x00\x80?\x00\x00\x80?\x00\x00\x80?\x00\x00\x80?\x00\x00\x80?\x00\x00\x80?\x00\x00\x80?\x00\x00\x80?\x00\x00\x80?\x00\x00\x80?\x00\x00\x80?\x00\x00\x80?\x00\x00\x80?\x00\x00\x80?\x00\x00\x80?\x00\x00\x80?\x00\x00\x80?\x00\x00\x80?\x00\x00\x80?\x00\x00\x80?\x00\x00\x80?\x00\x00\x80?\x00\x00\x80?\x00\x00\x80?\x00\x00\x80?\x00\x00\x80?\x00\x00\x80?\x00\x00\x80?\x00\x00\x80?\x00\x00\x80?\x00\x00\x80?\x00\x00\x80?\x00\x00\x80?\x00\x00\x80?\x00\x00\x80?\x00\x00\x80?\x00\x00\x80?\x00\x00\x80?\x00\x00\x80?\x00\x00\x80?\x00\x00\x80?\x00\x00\x80?\x00\x00\x80?\x00\x00\x80?\x00\x00\x80?\x00\x00\x80?\x00\x00\x80?\x00\x00\x80?\x00\x00\x80?\x00\x00\x80?\x00\x00\x80?\x00\x00\x80?\x00\x00\x80?\x00\x00\x80?\x00\x00\x80?\x00\x00\x80?\x00\x00\x80?\x00\x00\x80?\x00\x00\x80?\x00\x00\x80?\x00\x00\x80?\x00\x00\x80?\x00\x00\x80?\x00\x00\x80?\x00\x00\x80?\x00\x00\x80?\x00\x00\x80?\x00\x00\x80?\x00\x00\x80?\x00\x00\x80?\x00\x00\x80?\x00\x00\x80?\x00\x00\x80?\x00\x00\x80?\x00\x00\x80?\x00\x00\x80?\x00\x00\x80?\x00\x00\x80?\x00\x00\x80?\x00\x00\x80?\x00\x00\x80?\x00\x00\x80?\x00\x00\x80?\x00\x00\x80?\x00\x00\x80?\x00\x00\x80?\x00\x00\x80?\x00\x00\x80?\x00\x00\x80?\x00\x00\x80?\x00\x00\x80?\x00\x00\x80?\x00\x00\x80?\x00\x00\x80?\x00\x00\x80?\x00\x00\x80?\x00\x00\x80?\x00\x00\x80?\x00\x00\x80?\x00\x00\x80?\x00\x00\x80?\x00\x00\x80?\x00\x00\x80?\x00\x00\x80?\x00\x00\x80?\x00\x00\x80?\x00\x00\x80?\x00\x00\x80?\x00\x00\x80?\x00\x00\x80?\x00\x00\x80?\x00\x00\x80?\x00\x00\x80?\x00\x00\x80?\x00\x00\x80?\x00\x00\x80?\x00\x00\x80?\x00\x00\x80?\x00\x00\x80?\x00\x00\x80?\x00\x00\x80?\x00\x00\x80?\x00\x00\x80?\x00\x00\x80?\x00\x00\x80?\x00\x00\x80?\x00\x00\x80?\x00\x00\x80?\x00\x00\x80?\x00\x00\x80?\x00\x00\x80?\x00\x00\x80?\x00\x00\x80?\x00\x00\x80?\x00\x00\x80?\x00\x00\x80?\x00\x00\x80?\x00\x00\x80?\x00\x00\x80?\x00\x00\x80?\x00\x00\x80?\x00\x00\x80?\x00\x00\x80?\x00\x00\x80?\x00\x00\x80?\x00\x00\x80?\x00\x00\x80?\x00\x00\x80?\x00\x00\x80?\x00\x00\x80?\x00\x00\x80?\x00\x00\x80?\x00\x00\x80?\x00\x00\x80?\x00\x00\x80?\x00\x00\x80?\x00\x00\x80?\x00\x00\x80?\x00\x00\x80?\x00\x00\x80?\x00\x00\x80?\x00\x00\x80?\x00\x00\x80?\x00\x00\x80?\x00\x00\x80?\x00\x00\x80?\x00\x00\x80?\x00\x00\x80?\x00\x00\x80?\x00\x00\x80?\x00\x00\x80?\x00\x00\x80?\x00\x00\x80?\x00\x00\x80?\x00\x00\x80?\x00\x00\x80?\x00\x00\x80?\x00\x00\x80?\x00\x00\x80?\x00\x00\x80?\x00\x00\x80?\x00\x00\x80?\x00\x00\x80?\x00\x00\x80?\x00\x00\x80?\x00\x00\x80?\x00\x00\x80?\x00\x00\x80?\x00\x00\x80?\x00\x00\x80?\x00\x00\x80?\x00\x00\x80?\x00\x00\x80?\x00\x00\x80?\x00\x00\x80?\x00\x00\x80?\x00\x00\x80?\x00\x00\x80?\x00\x00\x80?\x00\x00\x80?\x00\x00\x80?\x00\x00\x80?\x00\x00\x80?\x00\x00\x80?\x00\x00\x80?\x00\x00\x80?\x00\x00\x80?\x00\x00\x80?\x00\x00\x80?\x00\x00\x80?\x00\x00\x80?\x00\x00\x80?\x00\x00\x80?\x00\x00\x80?\x00\x00\x80?'
S'\x00\x00\x00\x00\x00\x00\x00\x00\x00\x00\x00\x00\x00\x00\x00\x00\x00\x00\x00\x00\x00\x00\x00\x00\x00\x00\x00\x00\x00\x00\x00\x00\x00\x00\x00\x00\x00\x00\x00\x00\x00\x00\x00\x00\x00\x00\x00\x00\x00\x00\x00\x00\x00\x00\x00\x00\x00\x00\x00\x00\x00\x00\x00\x00\x00\x00\x00\x00\x00\x00\x00\x00\x00\x00\x00\x00\x00\x00\x00\x00\x00\x00\x00\x00\x00\x00\x00\x00\x00\x00\x00\x00\x00\x00\x00\x00\x00\x00\x00\x00\x00\x00\x00\x00\x00\x00\x00\x00\x00\x00\x00\x00\x00\x00\x00\x00\x00\x00\x00\x00\x00\x00\x00\x00\x00\x00\x00\x00\x00\x00\x00\x00\x00\x00\x00\x00\x00\x00\x00\x00\x00\x00\x00\x00\x00\x00\x00\x00\x00\x00\x00\x00\x00\x00\x00\x00\x00\x00\x00\x00\x00\x00\x00\x00\x00\x00\x00\x00\x00\x00\x00\x00\x00\x00\x00\x00\x00\x00\x00\x00\x00\x00\x00\x00\x00\x00\x00\x00\x00\x00\x00\x00\x00\x00\x00\x00\x00\x00\x00\x00\x00\x00\x00\x00\x00\x00\x00\x00\x00\x00\x00\x00\x00\x00\x00\x00\x00\x00\x00\x00\x00\x00\x00\x00\x00\x00\x00\x00\x00\x00\x00\x00\x00\x00\x00\x00\x00\x00\x00\x00\x00\x00\x00\x00\x00\x00\x00\x00\x00\x00\x00\x00\x00\x00\x00\x00\x00\x00\x00\x00\x00\x00\x00\x00\x00\x00\x00\x00\x00\x00\x00\x00\x00\x00\x00\x00\x00\x00\x00\x00\x00\x00\x00\x00\x00\x00\x00\x00\x00\x00\x00\x00\x00\x00\x00\x00\x00\x00\x00\x00\x00\x00\x00\x00\x00\x00\x00\x00\x00\x00\x00\x00\x00\x00\x00\x00\x00\x00\x00\x00\x00\x00\x00\x00\x00\x00\x00\x00\x00\x00\x00\x00\x00\x00\x00\x00\x00\x00\x00\x00\x00\x00\x00\x00\x00\x00\x00\x00\x00\x00\x00\x00\x00\x00\x00\x00\x00\x00\x00\x00\x00\x00\x00\x00\x00\x00\x00\x00\x00\x00\x00\x00\x00\x00\x00\x00\x00\x00\x00\x00\x00\x00\x00\x00\x00\x00\x00\x00\x00\x00\x00\x00\x00\x00\x00\x00\x00\x00\x00\x00\x00\x00\x00\x00\x00\x00\x00\x00\x00\x00\x00\x00\x00\x00\x00\x00\x00\x00\x00\x00\x00\x00\x00\x00\x00\x00\x00\x00\x00\x00\x00\x00\x00\x00\x00\x00\x00\x00\x00\x00\x00\x00\x00\x00\x00\x00\x00\x00\x00\x00\x00\x00\x00\x00\x00\x00\x00\x00\x00\x00\x00\x00\x00\x00\x00\x00\x00\x00\x00\x00\x00\x00\x00\x00\x00\x00\x00\x00\x00\x00\x00\x00\x00\x00\x00\x00\x00\x00\x00\x00\x00\x00\x00\x00\x00\x00\x00\x00\x00\x00\x00\x00\x00\x00\x00\x00\x00\x00\x00\x00\x00\x00\x00\x00\x00\x00\x00\x00\x00\x00\x00\x00\x00\x00\x00\x00\x00\x00\x00\x00\x00\x00\x00\x00\x00\x00\x00\x00\x00\x00\x00\x00\x00\x00\x00\x00\x00\x00\x00\x00\x00\x00\x00\x00\x00\x00\x00\x00\x00\x00\x00\x00\x00\x00\x00\x00\x00\x00\x00\x00\x00\x00\x00\x00\x00\x00\x00\x00\x00\x00\x00\x00\x00\x00\x00\x00\x00\x00\x00\x00\x00\x00\x00\x00\x00\x00\x00\x00\x00\x00'
Ntbsg55
g48
(g49
g50
g51
S'b'
tRp4524
(I1
(I600
I1
tg54
I00
S'\x00\x00\x98C\x00\x00\xbdC\x00\xc0\x01D\x00\x00\xe3C\x00\x00\x88C\x00\x00\xa8C\x00@\x0bD\x00\x80\xadC\x00\x00\xd7C\x00\x00\x9eB\x00\x00\xc4C\x00\x80\xd4C\x00\x00HB\x00\x00\x10B\x00\x007C\x00\x00}C\x00\x00IC\x00\x00\xb2C\x00\x00MC\x00\x80\xaeC\x00\x80\xeaC\x00\x80\xd6C\x00\x00\xc0B\x00\x80\x11D\x00\x80\xcdC\x00\x00\x90A\x00\x00\x95C\x00\x80\xa4C\x00\x00\x00C\x00\x00\x89C\x00\x00\xa4C\x00\x002C\x00\x80\x00D\x00\x80\xd7C\x00\x00SC\x00\x80\xf1C\x00\x80\xc0C\x00\x00qC\x00\x80\x93C\x00\x80\xa2C\x00\x00\xadC\x00\x00%C\x00\x80\x81C\x00\xc0\tD\x00\x00\xdcB\x00\x00\x13D\x00\x80\x13D\x00\x00DC\x00\x80\xa8C\x00\x00fC\x00\x80\xd9C\x00\x00\xa8B\x00\x00\xacB\x00\x80\xb8C\x00\x00\xa6C\x00\x00\x07D\x00\x00\x88A\x00@\x06D\x00\x00\xe1C\x00\x00\xf2B\x00\x80\xcfC\x00\x80\x03D\x00\x80\x87C\x00\x00aC\x00\x00\x0bC\x00\x00\xb5C\x00\x80\xe5C\x00\x00RC\x00\x00\xedC\x00\x00EC\x00\x00\xc2C\x00\x00lC\x00\x00\xc0@\x00\x00tB\x00\x00zC\x00\x00\rC\x00\x80\xe0C\x00\x80\xc5C\x00\x00+C\x00\x00|B\x00\x00dB\x00\x00\xe7C\x00\x00~C\x00@\x03D\x00@\x07D\x00\x00\xf8C\x00\x00\rD\x00\x00\x07C\x00\x80\xdaC\x00\x00\xe8A\x00\x80\x9fC\x00\x00\xd6C\x00\x00\xceC\x00\x00\xf3C\x00\x00\xd9C\x00\x00`A\x00\xc0\x0fD\x00\x00|C\x00\x80\xacC\x00\x80\xc2C\x00\x80\x94C\x00\x80\xfcC\x00\x00\x92C\x00\x00\x9dC\x00\x00;C\x00\x00`C\x00\x00=C\x00\x00\xf7C\x00\x00QC\x00\x00\xbeC\x00\x00\xdaC\x00\x00>C\x00\x00\xb3C\x00\x00\xbaC\x00\x00\x9eC\x00\x80\xecC\x00\x000C\x00\x00 C\x00\x00\x8dC\x00\x00\xd0B\x00\x00\x11D\x00\x00LC\x00\x00\xb0B\x00\x00bC\x00\x00\x00B\x00\x00LB\x00\x00\x90C\x00\x80\xc6C\x00\x000A\x00\x80\x8aC\x00\x00\x0fC\x00\x80\xe3C\x00\x00sC\x00\x00\x13C\x00\x00\xb2B\x00\x00\\B\x00\x00\xe6B\x00\x00yC\x00\x00OC\x00\x00\x85C\x00\x80\xa0C\x00\x00\xdeC\x00\x00\x0eD\x00\xc0\x04D\x00\x80\xefC\x00\x80\xd5C\x00\x80\rD\x00\xc0\x0eD\x00\x80\x97C\x00\x00jC\x00\x00\x86C\x00\x80\x9eC\x00\x00\xaeB\x00\x00\xc7C\x00\x00\x11C\x00@\x04D\x00\x80\x08D\x00\x00hC\x00\x00pB\x00\x80\x8bC\x00\x00$C\x00\x00!C\x00\x00\xecB\x00\x00\xbcB\x00\x80\xfbC\x00\x00eC\x00\x00:C\x00@\x14D\x00\x00\xbeB\x00\x00<B\x00\x00pC\x00\x00\x80?\x00\x00NC\x00\x80\xd8C\x00\x80\xa9C\x00\x00\x01C\x00\x00\xcdC\x00\x00XC\x00\x00\x1cB\x00\x00\xa0@\x00\x80\xf3C\x00\x00@B\x00\x004B\x00\x00\'C\x00\x00[C\x00\xc0\x14D\x00\xc0\x0bD\x00\x009C\x00\x00\x08C\x00\x80\xddC\x00\x00\xf0C\x00\x80\x82C\x00\x00\x82B\x00\x80\xf6C\x00\x80\xb9C\x00\x00\xf1C\x00\x00\xd2B\x00\x00\xb7C\x00\x00\x80A\x00\x00\x12C\x00\x80\xe2C\x00\x00\xcfC\x00\x00\xaaC\x00\x00\xeeC\x00\x00\\C\x00\x00\x06C\x00\x00\xe8B\x00\x00\xe9C\x00\x00`B\x00\x00\xd4C\x00@\x11D\x00\x00\x88B\x00\x00\x80C\x00\x00\xabC\x00\x00ZC\x00\x00\xdfC\x00\x00\xb0C\x00\x00TB\x00\x00\x14C\x00\x80\xe6C\x00\x80\xb7C\x00\x00PA\x00\x00\xc8B\x00\x004C\x00\x00\xf6B\x00\x00GC\x00\x00\xfbC\x00@\x0cD\x00\x00\xdaB\x00\x00\xdeB\x00\x00pA\x00\x00\xc4B\x00\x00kC\x00\x00mC\x00\x80\x95C\x00\x80\xf4C\x00\x00PB\x00\x00\xc5C\x00\x00\x06D\x00\xc0\rD\x00\x00 B\x00\x00\xb8A\x00\x80\x0fD\x00\x00\xbaB\x00\x80\xd1C\x00\x00iC\x00\x80\x0cD\x00\x80\xc1C\x00@\x12D\x00\x00\x10D\x00\x00\xaeC\x00\x80\xe7C\x00\x00\x0cB\x00\x80\xa6C\x00@\tD\x00\x00\xeeB\x00\x00\xf0B\x00\x00\x0fD\x00\xc0\x07D\x00\xc0\x00D\x00\x00\xf6C\x00\x00\x08D\x00\x80\xa1C\x00\x00\xbcC\x00\x00\xaaB\x00@\x05D\x00\x00\xb8C\x00\x00\xa6B\x00\x80\xc9C\x00@\x02D\x00\x00\xdbC\x00\x80\x85C\x00\x00\x00D\x00\x00\x03C\x00\x00\x01D\x00\x00\xe4B\x00\x00\x1fC\x00@\rD\x00\x00\x94C\x00\x00\x9aC\x00\x00]C\x00\x00\xcbC\x00\x80\xdcC\x00\x00\xcaC\x00\x00\xfcB\x00\x00\x04B\x00\x00\x93C\x00\x00BC\x00\x80\nD\x00\x00DB\x00\x008B\x00\x005C\x00\x00\x80B\x00\x00\xc2B\x00\x00,B\x00\x80\xcaC\x00\x00\x92B\x00\x00\x18C\x00\x00\x1aC\x00\x00\x0cD\x00\x00^C\x00\x80\x07D\x00\x00\xdcC\x00\x00\xc8C\x00\x80\xc7C\x00\x80\x96C\x00@\x01D\x00\x80\xbcC\x00\x80\x9cC\x00\x80\xbfC\x00\x80\xc8C\x00\x00\xe0A\x00\x80\x92C\x00\x80\xe1C\x00\x80\xbbC\x00\x00\xfcC\x00\x80\x89C\x00\x00\x98B\x00\x00\x0eC\x00\x80\xfaC\x00\x00@@\x00\x00\xd3C\x00@\x08D\x00\x80\xb4C\x00\x80\xc3C\x00\x00UC\x00\x00\x96B\x00\x00.C\x00\x00\xa3C\x00\xc0\x11D\x00\x00tC\x00\x80\xfeC\x00\x00\xfdC\x00\x00\xd8A\x00\x00\x98A\x00\x00/C\x00\x00<C\x00\x00\xddC\x00\x00\xa0B\x00\x00\x86B\x00\x00\x9fC\x00\x00lB\x00\x80\xcbC\x00\x80\xf9C\x00\x00\xf2C\x00@\x15D\x00\x80\xc4C\x00\x00\x8aC\x00\x80\x8cC\x00\xc0\x0cD\x00\x80\xf8C\x00\x00\xd0C\x00\x00\x81C\x00\x80\xb1C\x00\x80\xf0C\x00\x00#C\x00\x00nC\x00\x00\x04D\x00\x00\x00\x00\x00\x80\tD\x00\x00rC\x00\x00\xccB\x00\x00\xc0A\x00\x00\x8cB\x00\x00\xc0C\x00\x00\xe6C\x00\x00\x03D\x00\x00\xe4C\x00\x00\x02D\x00\x00dC\x00\x00\xa0A\x00\x00\xa0C\x00\x00\x8cC\x00\x00*C\x00\x00\xb6B\x00\x00xB\x00\x80\x8eC\x00\x00\xd8C\x00\x80\x02D\x00\x00\xeaC\x00\x00\xb9C\x00@\x0fD\x00\x00\x84B\x00\xc0\x13D\x00\x00\xebC\x00\x00\xf4C\x00\x00\nD\x00\x00\x15D\x00\x00\x90B\x00\x80\xdbC\x00\x80\xafC\x00\x80\x91C\x00\x00\xf0A\x00@\nD\x00\x00\x91C\x00\x00\x10A\x00\x00 A\x00\x80\xaaC\x00\x00\x83C\x00\x80\x01D\x00\x80\xebC\x00\x00&C\x00\x80\xf5C\x00\x80\x80C\x00\x00\x05D\x00\x00AC\x00\x80\x15D\x00\x00\xfeC\x00\x00\x15C\x00\x00\xacC\x00\x00\xe2C\x00\x00CC\x00\x00\xa1C\x00\x00\x00A\x00\x00\xfaB\x00\xc0\nD\x00\x80\xffC\x00\x00\x9bC\x00\x80\x0eD\x00\x00\xc3C\x00\xc0\x02D\x00\x00\xd5C\x00\x00,C\x00\x00\xefC\x00\x00cC\x00\x00\xf9C\x00\x00\xfaC\x00\x003C\x00\x00\x9aB\x00\x00\x8eC\x00\x00\xb1C\x00\x80\x8fC\x00\x00\xbbC\x00\x00@C\x00\x00\xb6C\x00\x00\xb4B\x00\x80\x0bD\x00\x80\x06D\x00\x00\xc9C\x00\x00)C\x00\x008C\x00\x00\x19C\x00\x00\xa5C\x00\x00\xa2B\x00\x00\xffC\x00\x80\x10D\x00\x00\x00@\x00\x00wC\x00\x00xC\x00\x00\x84C\x00\x00(C\x00\x80\x12D\x00\x00\xceB\x00\x00\x8bC\x00\x00\x02C\x00\x80\x9dC\x00\x001C\x00\x00\x12D\x00\x80\xe8C\x00@\x0eD\x00\x00\xb4C\x00\x80\xb2C\x00\x00\xc6B\x00\x00_C\x00\x00\x0cC\x00\x80\xa3C\x00\x00\x99C\x00\x80\xe4C\x00\x80\x88C\x00\x00\x8eB\x00\x00\xe0C\x00\x00\xb0A\x00\x00\xecC\x00\xc0\x10D\x00\x00\xd1C\x00\x00@A\x00\x80\xa5C\x00\x00TC\x00\x80\x90C\x00\x80\xfdC\x00\x00\x10C\x00\x00\x04C\x00\x80\xbeC\x00\x80\x84C\x00\x00XB\x00\x00\xd0A\x00\x00\xa9C\x00\x80\xd3C\x00\x80\xb3C\x00\x00FC\x00\x00WC\x00\x00\x1cC\x00\x80\xbdC\x00\x00\x9cB\x00\x00\x17C\x00\x00\x14D\x00\x80\xd0C\x00\x80\x9aC\x00\x00\x82C\x00\x00\xf8B\x00\x00\x96C\x00\x00$B\x00\x00(B\x00\x00\x18B\x00\x00\x16C\x00\x00\xc1C\x00\x80\xb6C\x00\x00\nC\x00\x00\xa7C\x00\x00\xa2C\x00\x00\xc6C\x00\x00\xd4B\x00\x00\xa4B\x00\x00\xeaB\x00\x80\xccC\x00\x00\x1eC\x00\x80\xd2C\x00\x80\x83C\x00\x00"C\x00\x00gC\x00\x00\xcaB\x00\x00\x14B\x00\x80\xabC\x00\x00\x1dC\x00\x00YC\x00\x00\xe0@\x00\x00\x0bD\x00\x00VC\x00\x80\xb5C\x00@\x13D\x00\x00PC\x00\xc0\x08D\x00\x00hB\x00\x00\x80@\x00\x80\xb0C\x00\x006C\x00\x00\xe2B\x00\x80\x98C\x00\x80\x04D\x00\x80\xdfC\x00\xc0\x05D\x00\x00\x8aB\x00\x00uC\x00\x80\x9bC\x00\x00-C\x00\x00\xb8B\x00\x00\xd6B\x00\x00\xd8B\x00@\x10D\x00\x00HC\x00\x000B\x00\x00\xe5C\x00\x80\xedC\x00\x00\x87C\x00\x80\xeeC\x00\xc0\x06D\x00\x00\xe0B\x00\x80\x05D\x00\xc0\x12D\x00\x00\x97C\x00\x00\xccC\x00\x00\xd2C\x00\x00\x05C\x00\x00\xfeB\x00\xc0\x03D\x00\x00\xe8C\x00\x00\xf5C\x00\x00\x8fC\x00\x00\xbfC\x00\x00{C\x00\x80\xbaC\x00\x00\xafC\x00\x00\x7fC\x00\x00\tC\x00\x00oC\x00\x80\xe9C\x00\x80\xceC\x00\x00vC\x00\x00\x1bC\x00\x80\xf2C\x00\x80\x86C\x00\x00\xc8A\x00\x00\tD\x00\x00\xf8A\x00\x00JC\x00\x80\x99C\x00\x80\xdeC\x00\x00KC\x00\xc0\x15D\x00@\x00D\x00\x80\x14D\x00\x80\x8dC\x00\x80\xa7C\x00\x00\x9cC\x00\x00\xa8A\x00\x00\x08B\x00\x80\xf7C\x00\x00\x94B\x00\x00?C\x00\x00\xf4B'
S'\x00\x00\x00\x00\x00\x00\x00\x00\x00\x00\x00\x00\x00\x00\x00\x00\x00\x00\x00\x00\x00\x00\x00\x00\x00\x00\x00\x00\x00\x00\x00\x00\x00\x00\x00\x00\x00\x00\x00\x00\x00\x00\x00\x00\x00\x00\x00\x00\x00\x00\x00\x00\x00\x00\x00\x00\x00\x00\x00\x00\x00\x00\x00\x00\x00\x00\x00\x00\x00\x00\x00\x00\x00\x00\x00\x00\x00\x00\x00\x00\x00\x00\x00\x00\x00\x00\x00\x00\x00\x00\x00\x00\x00\x00\x00\x00\x00\x00\x00\x00\x00\x00\x00\x00\x00\x00\x00\x00\x00\x00\x00\x00\x00\x00\x00\x00\x00\x00\x00\x00\x00\x00\x00\x00\x00\x00\x00\x00\x00\x00\x00\x00\x00\x00\x00\x00\x00\x00\x00\x00\x00\x00\x00\x00\x00\x00\x00\x00\x00\x00\x00\x00\x00\x00\x00\x00\x00\x00\x00\x00\x00\x00\x00\x00\x00\x00\x00\x00\x00\x00\x00\x00\x00\x00\x00\x00\x00\x00\x00\x00\x00\x00\x00\x00\x00\x00\x00\x00\x00\x00\x00\x00\x00\x00\x00\x00\x00\x00\x00\x00\x00\x00\x00\x00\x00\x00\x00\x00\x00\x00\x00\x00\x00\x00\x00\x00\x00\x00\x00\x00\x00\x00\x00\x00\x00\x00\x00\x00\x00\x00\x00\x00\x00\x00\x00\x00\x00\x00\x00\x00\x00\x00\x00\x00\x00\x00\x00\x00\x00\x00\x00\x00\x00\x00\x00\x00\x00\x00\x00\x00\x00\x00\x00\x00\x00\x00\x00\x00\x00\x00\x00\x00\x00\x00\x00\x00\x00\x00\x00\x00\x00\x00\x00\x00\x00\x00\x00\x00\x00\x00\x00\x00\x00\x00\x00\x00\x00\x00\x00\x00\x00\x00\x00\x00\x00\x00\x00\x00\x00\x00\x00\x00\x00\x00\x00\x00\x00\x00\x00\x00\x00\x00\x00\x00\x00\x00\x00\x00\x00\x00\x00\x00\x00\x00\x00\x00\x00\x00\x00\x00\x00\x00\x00\x00\x00\x00\x00\x00\x00\x00\x00\x00\x00\x00\x00\x00\x00\x00\x00\x00\x00\x00\x00\x00\x00\x00\x00\x00\x00\x00\x00\x00\x00\x00\x00\x00\x00\x00\x00\x00\x00\x00\x00\x00\x00\x00\x00\x00\x00\x00\x00\x00\x00\x00\x00\x00\x00\x00\x00\x00\x00\x00\x00\x00\x00\x00\x00\x00\x00\x00\x00\x00\x00\x00\x00\x00\x00\x00\x00\x00\x00\x00\x00\x00\x00\x00\x00\x00\x00\x00\x00\x00\x00\x00\x00\x00\x00\x00\x00\x00\x00\x00\x00\x00\x00\x00\x00\x00\x00\x00\x00\x00\x00\x00\x00\x00\x00\x00\x00\x00\x00\x00\x00\x00\x00\x00\x00\x00\x00\x00\x00\x00\x00\x00\x00\x00\x00\x00\x00\x00\x00\x00\x00\x00\x00\x00\x00\x00\x00\x00\x00\x00\x00\x00\x00\x00\x00\x00\x00\x00\x00\x00\x00\x00\x00\x00\x00\x00\x00\x00\x00\x00\x00\x00\x00\x00\x00\x00\x00\x00\x00\x00\x00\x00\x00\x00\x00\x00\x00\x00\x00\x00\x00\x00\x00\x00\x00\x00\x00\x00\x00\x00\x00\x00\x00\x00\x00\x00\x00\x00\x00\x00\x00\x00\x00\x00\x00\x00\x00\x00\x00\x00\x00\x00\x00\x00\x00\x00\x00\x00\x00\x00\x00\x00\x00\x00\x00\x00\x00\x00\x00\x00\x00\x00\x00\x00\x00\x00\x00\x00\x00\x00\x00\x00\x00\x00\x00\x00\x00\x00'
NtbstRp4525
(dp4526
g59
(dp4527
g47
I01
sg55
I01
ssg61
g4519
sg62
(lp4528
g47
ag55
asg64
(lp4529
I600
aI1
asbsg66
S'random'
p4530
sg68
g69
(g50
(I0
tS'b'
tRp4531
(I1
(I600
I1
tg53
(S'i4'
I0
I1
tRp4532
(I3
S'<'
NNNI-1
I-1
I0
tbI01
S'f\x01\x00\x00\xab\x00\x00\x00\xbe\x01\x00\x00@\x01\x00\x00\x15\x02\x00\x00\xb3\x00\x00\x00H\x00\x00\x00\r\x02\x00\x00\x9d\x01\x00\x00\x8b\x01\x00\x00\x8c\x01\x00\x00\x80\x00\x00\x00\xdb\x01\x00\x00\xdd\x00\x00\x00_\x00\x00\x00\xe6\x00\x00\x00\xc6\x00\x00\x008\x00\x00\x00\x19\x00\x00\x00N\x01\x00\x00r\x01\x00\x00R\x02\x00\x00\xd7\x01\x00\x00\xf1\x00\x00\x00j\x01\x00\x00E\x02\x00\x00\xe5\x01\x00\x00M\x01\x00\x007\x01\x00\x00Y\x00\x00\x00\x88\x01\x00\x00G\x02\x00\x00|\x00\x00\x00\x1d\x01\x00\x00S\x02\x00\x00\xfc\x00\x00\x00\r\x00\x00\x00\t\x02\x00\x00\xf7\x01\x00\x00\xb2\x00\x00\x00\xf0\x00\x00\x00\xf5\x01\x00\x00\xf6\x01\x00\x00&\x01\x00\x00&\x02\x00\x00\xb6\x00\x00\x00"\x01\x00\x00\xa9\x00\x00\x00\xb5\x00\x00\x00!\x01\x00\x00\x0c\x00\x00\x00}\x00\x00\x00\xec\x00\x00\x00\xd9\x00\x00\x00\xe4\x01\x00\x00\x87\x00\x00\x00\xd0\x00\x00\x00P\x00\x00\x00\x14\x02\x00\x00U\x01\x00\x00\x9e\x00\x00\x00I\x00\x00\x00w\x01\x00\x00O\x00\x00\x00$\x01\x00\x00\xc0\x00\x00\x00~\x01\x00\x00S\x01\x00\x00\xd3\x00\x00\x00\x1d\x02\x00\x00k\x01\x00\x00\xd5\x01\x00\x00\x84\x01\x00\x00(\x01\x00\x00U\x02\x00\x00F\x01\x00\x00=\x01\x00\x00\xac\x01\x00\x00\xed\x01\x00\x00\t\x00\x00\x00R\x01\x00\x00\xbb\x01\x00\x00\x00\x02\x00\x00\x0b\x01\x00\x003\x00\x00\x00\x08\x01\x00\x004\x00\x00\x00\x98\x00\x00\x00z\x00\x00\x00\x86\x00\x00\x00\xb3\x01\x00\x00v\x01\x00\x00!\x02\x00\x00\xf3\x00\x00\x00\xa3\x00\x00\x00\xa8\x00\x00\x00\x16\x00\x00\x00%\x01\x00\x00\xe7\x00\x00\x00\xce\x01\x00\x00\xde\x00\x00\x00\x08\x02\x00\x00i\x01\x00\x00\xc4\x01\x00\x00w\x00\x00\x00\xc4\x00\x00\x00\xff\x01\x00\x00"\x02\x00\x00#\x02\x00\x00\xe4\x00\x00\x00,\x00\x00\x00\xe5\x00\x00\x00,\x02\x00\x00\x18\x02\x00\x00\x13\x01\x00\x00\x88\x00\x00\x00\xce\x00\x00\x00\x01\x02\x00\x00\xa2\x00\x00\x00\xff\x00\x00\x00\x00\x01\x00\x00;\x00\x00\x00W\x02\x00\x00\xe0\x00\x00\x00\xf3\x01\x00\x00\x9e\x01\x00\x00\x1c\x01\x00\x003\x02\x00\x00\x1c\x00\x00\x00\xaf\x00\x00\x00\xc6\x01\x00\x00\x11\x01\x00\x00\xe1\x01\x00\x002\x02\x00\x00\xcd\x00\x00\x00W\x00\x00\x00\xbc\x00\x00\x00=\x02\x00\x00\xfb\x01\x00\x00@\x00\x00\x00\xd0\x01\x00\x00K\x00\x00\x00>\x01\x00\x00\x82\x00\x00\x00\xe0\x01\x00\x00\x9a\x00\x00\x00\xc7\x00\x00\x00\x85\x00\x00\x00\xda\x00\x00\x00\x98\x01\x00\x00\xf8\x01\x00\x00\xee\x01\x00\x00)\x01\x00\x00\xb9\x01\x00\x00*\x01\x00\x00B\x02\x00\x00\xeb\x01\x00\x00\x0b\x02\x00\x00\x03\x02\x00\x00\x14\x01\x00\x00u\x00\x00\x00\xa1\x00\x00\x00\x06\x02\x00\x00c\x01\x00\x00\xa0\x00\x00\x00)\x00\x00\x00\x91\x01\x00\x00\xb7\x00\x00\x00\xc2\x01\x00\x00\xb7\x01\x00\x00u\x01\x00\x00N\x00\x00\x00\xa6\x01\x00\x00 \x02\x00\x00G\x01\x00\x00O\x01\x00\x00t\x00\x00\x00\xc8\x01\x00\x00\x1f\x00\x00\x00\xab\x01\x00\x00\xdf\x00\x00\x00#\x01\x00\x00\x17\x02\x00\x00\x0e\x00\x00\x00\xb8\x01\x00\x00\xbb\x00\x00\x00\xa6\x00\x00\x00h\x00\x00\x00P\x01\x00\x00j\x00\x00\x00o\x00\x00\x00V\x02\x00\x00\xb1\x01\x00\x00\x95\x01\x00\x00\x1f\x01\x00\x00\x9b\x01\x00\x00/\x00\x00\x00E\x00\x00\x00\xe9\x01\x00\x00\xe1\x00\x00\x00%\x02\x00\x00\x10\x00\x00\x00H\x02\x00\x00K\x02\x00\x00y\x00\x00\x00\x12\x00\x00\x00\xac\x00\x00\x00\x8a\x00\x00\x00\x12\x02\x00\x00l\x00\x00\x00C\x00\x00\x00"\x00\x00\x00\xdd\x01\x00\x00E\x01\x00\x00\x0f\x02\x00\x00\xea\x01\x00\x00\xb1\x00\x00\x00\x0c\x02\x00\x00\xd6\x00\x00\x00\xb8\x00\x00\x00\xcc\x00\x00\x00\x18\x01\x00\x00,\x01\x00\x00\xcf\x01\x00\x00i\x00\x00\x00?\x00\x00\x00{\x00\x00\x00\xa8\x01\x00\x00q\x01\x00\x00\xa5\x00\x00\x001\x00\x00\x00\x07\x02\x00\x00\x9d\x00\x00\x00\xf5\x00\x00\x00\x95\x00\x00\x00\xe8\x00\x00\x00G\x00\x00\x00\xe9\x00\x00\x00d\x01\x00\x00>\x02\x00\x00\xaa\x00\x00\x00%\x00\x00\x00h\x01\x00\x00\x84\x00\x00\x00J\x01\x00\x00\x1e\x02\x00\x00A\x02\x00\x00\xbf\x01\x00\x00\xc0\x01\x00\x00\x89\x00\x00\x00J\x00\x00\x009\x02\x00\x00a\x00\x00\x00\x0f\x00\x00\x00R\x00\x00\x00<\x02\x00\x00\xd4\x00\x00\x00\x93\x01\x00\x00`\x01\x00\x00*\x00\x00\x00\xf2\x01\x00\x00\xbf\x00\x00\x00\x8e\x01\x00\x00\x05\x02\x00\x00\xc1\x01\x00\x00\xe3\x01\x00\x00\x8b\x00\x00\x00\x0f\x01\x00\x00\x96\x00\x00\x00D\x02\x00\x00)\x02\x00\x00>\x00\x00\x00\x04\x00\x00\x00\xd4\x01\x00\x00\x1d\x00\x00\x00<\x01\x00\x00[\x01\x00\x00\x81\x00\x00\x00\xc5\x01\x00\x00\x9f\x00\x00\x00t\x01\x00\x00\\\x01\x00\x00v\x00\x00\x00O\x02\x00\x00\xad\x01\x00\x00x\x01\x00\x007\x02\x00\x00\xaf\x01\x00\x00~\x00\x00\x00\xde\x01\x00\x00\x8a\x01\x00\x00\x87\x01\x00\x00f\x00\x00\x008\x01\x00\x00\x1e\x01\x00\x00&\x00\x00\x00\x16\x01\x00\x00d\x00\x00\x00\x1a\x00\x00\x00\xea\x00\x00\x00\xf4\x01\x00\x001\x01\x00\x00/\x02\x00\x00\x94\x00\x00\x00\x00\x00\x00\x00\x19\x02\x00\x00\xd2\x01\x00\x00I\x02\x00\x00\x17\x01\x00\x00\xf1\x01\x00\x00\xa1\x01\x00\x00\x1f\x02\x00\x00Q\x02\x00\x004\x01\x00\x00g\x00\x00\x00\xc7\x01\x00\x00r\x00\x00\x00\x97\x00\x00\x00T\x01\x00\x00Z\x00\x00\x00s\x01\x00\x00\x8c\x00\x00\x00\x9c\x01\x00\x00\x06\x01\x00\x00\xfd\x01\x00\x00\'\x00\x00\x00H\x01\x00\x00\xd1\x01\x00\x00\x1e\x00\x00\x00\x1b\x00\x00\x00\xba\x01\x00\x00\xdc\x01\x00\x006\x00\x00\x00\xfd\x00\x00\x00\xfc\x01\x00\x00P\x02\x00\x00\x05\x00\x00\x000\x00\x00\x00\xe6\x01\x00\x00\xae\x00\x00\x00\xca\x00\x00\x00\x8d\x01\x00\x00\xd5\x00\x00\x00\n\x02\x00\x00\x99\x01\x00\x00b\x00\x00\x00(\x00\x00\x00\x07\x00\x00\x00\xfa\x00\x00\x00\x13\x00\x00\x00;\x02\x00\x00\x86\x01\x00\x00\xd8\x00\x00\x00\x16\x02\x00\x00\xae\x01\x00\x00a\x01\x00\x00\x11\x00\x00\x00\xcd\x01\x00\x00p\x00\x00\x00\xe8\x01\x00\x00\xcc\x01\x00\x00C\x01\x00\x00A\x00\x00\x00\x10\x02\x00\x00\xb2\x01\x00\x00\xfa\x01\x00\x00\xc5\x00\x00\x00\xdc\x00\x00\x00\n\x01\x00\x005\x00\x00\x00|\x01\x00\x00\xc2\x00\x00\x00q\x00\x00\x00:\x02\x00\x00\xb0\x01\x00\x00:\x01\x00\x00\x07\x01\x00\x003\x01\x00\x00\x01\x00\x00\x00\xec\x01\x00\x00m\x00\x00\x00\xe2\x01\x00\x008\x02\x00\x005\x01\x00\x00l\x01\x00\x00$\x00\x00\x00\xf9\x01\x00\x00\xf7\x00\x00\x00F\x00\x00\x00c\x00\x00\x00\xa3\x01\x00\x00D\x01\x00\x00\n\x00\x00\x00Z\x01\x00\x00\xed\x00\x00\x00M\x00\x00\x00\xfe\x01\x00\x00\x7f\x00\x00\x00\x99\x00\x00\x000\x01\x00\x00/\x01\x00\x006\x01\x00\x00\xb6\x01\x00\x00\x0c\x01\x00\x00\x1b\x01\x00\x00\'\x01\x00\x00\x19\x01\x00\x00V\x01\x00\x000\x02\x00\x00\x02\x02\x00\x00\xb0\x00\x00\x00\x18\x00\x00\x00\\\x00\x00\x00@\x02\x00\x00\xc9\x00\x00\x00<\x00\x00\x00_\x01\x00\x00\xf0\x01\x00\x00\xda\x01\x00\x00\xf4\x00\x00\x001\x02\x00\x00\x04\x02\x00\x00A\x01\x00\x00\xe7\x01\x00\x00\xd1\x00\x00\x00\x0b\x00\x00\x00\xa5\x01\x00\x00\x91\x00\x00\x00[\x00\x00\x00\x15\x00\x00\x00\x08\x00\x00\x00!\x00\x00\x00y\x01\x00\x00\xad\x00\x00\x00^\x00\x00\x002\x00\x00\x00n\x00\x00\x00X\x00\x00\x00\x0e\x01\x00\x00\x85\x01\x00\x00.\x01\x00\x00\x1a\x01\x00\x00Q\x01\x00\x00\xbd\x00\x00\x00\x8d\x00\x00\x00J\x02\x00\x00\xd7\x00\x00\x00\x1b\x02\x00\x00\xd6\x01\x00\x00L\x00\x00\x00:\x00\x00\x009\x01\x00\x00\x9a\x01\x00\x00\xc8\x00\x00\x00\x03\x00\x00\x00\x83\x00\x00\x00o\x01\x00\x00\xd3\x01\x00\x00\'\x02\x00\x00B\x00\x00\x00m\x01\x00\x00\xdb\x00\x00\x00Q\x00\x00\x00\xfb\x00\x00\x005\x02\x00\x00\xca\x01\x00\x00\xcf\x00\x00\x00?\x02\x00\x00{\x01\x00\x00\x14\x00\x00\x00\x80\x01\x00\x00\x90\x01\x00\x00\xd8\x01\x00\x00s\x00\x00\x00D\x00\x00\x00(\x02\x00\x00\xcb\x00\x00\x00*\x02\x00\x00\xa7\x01\x00\x00\x90\x00\x00\x00\xbe\x00\x00\x00b\x01\x00\x00\xc3\x00\x00\x00#\x00\x00\x00X\x01\x00\x00C\x02\x00\x00]\x00\x00\x00\xb4\x00\x00\x00\x81\x01\x00\x00\xeb\x00\x00\x006\x02\x00\x00\x92\x01\x00\x00\x04\x01\x00\x00\xc1\x00\x00\x00k\x00\x00\x00T\x02\x00\x00U\x00\x00\x00^\x01\x00\x00\xa9\x01\x00\x00W\x01\x00\x00\xaa\x01\x00\x00?\x01\x00\x00\xe2\x00\x00\x00\xa4\x00\x00\x00;\x01\x00\x00e\x00\x00\x00L\x01\x00\x00\xdf\x01\x00\x00\x97\x01\x00\x00K\x01\x00\x00\xbc\x01\x00\x00\xa0\x01\x00\x00\x10\x01\x00\x00M\x02\x00\x00 \x00\x00\x00\x03\x01\x00\x00\x12\x01\x00\x002\x01\x00\x00\x8f\x01\x00\x00\x02\x00\x00\x00p\x01\x00\x00\r\x01\x00\x00z\x01\x00\x00\xa4\x01\x00\x00n\x01\x00\x00S\x00\x00\x00=\x00\x00\x004\x02\x00\x00e\x01\x00\x00\x9b\x00\x00\x00\x1a\x02\x00\x00\x8f\x00\x00\x00\x94\x01\x00\x00\t\x01\x00\x00-\x02\x00\x00\x1c\x02\x00\x00\xee\x00\x00\x009\x00\x00\x00\xb5\x01\x00\x00+\x02\x00\x007\x00\x00\x00T\x00\x00\x00-\x01\x00\x00\x02\x01\x00\x00\x05\x01\x00\x00B\x01\x00\x00\x9c\x00\x00\x00\x13\x02\x00\x00F\x02\x00\x00\xfe\x00\x00\x00g\x01\x00\x00+\x00\x00\x00\x82\x01\x00\x00\x89\x01\x00\x00 \x01\x00\x00\x9f\x01\x00\x00\x0e\x02\x00\x00\x06\x00\x00\x00\xb4\x01\x00\x00\xba\x00\x00\x00+\x01\x00\x00\xe3\x00\x00\x00\xf6\x00\x00\x00]\x01\x00\x00V\x00\x00\x00\x15\x01\x00\x00\x92\x00\x00\x00\xef\x00\x00\x00\x8e\x00\x00\x00\xcb\x01\x00\x00\xa2\x01\x00\x00\x93\x00\x00\x00\x01\x01\x00\x00}\x01\x00\x00\xf2\x00\x00\x00`\x00\x00\x00\xf9\x00\x00\x00$\x02\x00\x00\xbd\x01\x00\x00\xd9\x01\x00\x00x\x00\x00\x00\xd2\x00\x00\x00\x17\x00\x00\x00I\x01\x00\x00\xc9\x01\x00\x00\xf8\x00\x00\x00\xc3\x01\x00\x00.\x02\x00\x00-\x00\x00\x00\x11\x02\x00\x00.\x00\x00\x00\x7f\x01\x00\x00\xef\x01\x00\x00\xa7\x00\x00\x00N\x02\x00\x00\xb9\x00\x00\x00\x83\x01\x00\x00Y\x01\x00\x00\x96\x01\x00\x00L\x02\x00\x00'
tbsg73
I01
sg74
I1
sg75
I-1
sg76
(lp4533
I0
aI1
aI2
aI3
aI4
aI5
aI6
aI7
aI8
aI9
aI10
aI11
aI12
aI13
aI14
aI15
aI16
aI17
aI18
aI19
aI20
aI21
aI22
aI23
aI24
aI25
aI26
aI27
aI28
aI29
aI30
aI31
aI32
aI33
aI34
aI35
aI36
aI37
aI38
aI39
aI40
aI41
aI42
aI43
aI44
aI45
aI46
aI47
aI48
aI49
aI50
aI51
aI52
aI53
aI54
aI55
aI56
aI57
aI58
aI59
aI60
aI61
aI62
aI63
aI64
aI65
aI66
aI67
aI68
aI69
aI70
aI71
aI72
aI73
aI74
aI75
aI76
aI77
aI78
aI79
aI80
aI81
aI82
aI83
aI84
aI85
aI86
aI87
aI88
aI89
aI90
aI91
aI92
aI93
aI94
aI95
aI96
aI97
aI98
aI99
aI100
aI101
aI102
aI103
aI104
aI105
aI106
aI107
aI108
aI109
aI110
aI111
aI112
aI113
aI114
aI115
aI116
aI117
aI118
aI119
aI120
aI121
aI122
aI123
aI124
aI125
aI126
aI127
aI128
aI129
aI130
aI131
aI132
aI133
aI134
aI135
aI136
aI137
aI138
aI139
aI140
aI141
aI142
aI143
aI144
aI145
aI146
aI147
aI148
aI149
aI150
aI151
aI152
aI153
aI154
aI155
aI156
aI157
aI158
aI159
aI160
aI161
aI162
aI163
aI164
aI165
aI166
aI167
aI168
aI169
aI170
aI171
aI172
aI173
aI174
aI175
aI176
aI177
aI178
aI179
aI180
aI181
aI182
aI183
aI184
aI185
aI186
aI187
aI188
aI189
aI190
aI191
aI192
aI193
aI194
aI195
aI196
aI197
aI198
aI199
aI200
aI201
aI202
aI203
aI204
aI205
aI206
aI207
aI208
aI209
aI210
aI211
aI212
aI213
aI214
aI215
aI216
aI217
aI218
aI219
aI220
aI221
aI222
aI223
aI224
aI225
aI226
aI227
aI228
aI229
aI230
aI231
aI232
aI233
aI234
aI235
aI236
aI237
aI238
aI239
aI240
aI241
aI242
aI243
aI244
aI245
aI246
aI247
aI248
aI249
aI250
aI251
aI252
aI253
aI254
aI255
aI256
aI257
aI258
aI259
aI260
aI261
aI262
aI263
aI264
aI265
aI266
aI267
aI268
aI269
aI270
aI271
aI272
aI273
aI274
aI275
aI276
aI277
aI278
aI279
aI280
aI281
aI282
aI283
aI284
aI285
aI286
aI287
aI288
aI289
aI290
aI291
aI292
aI293
aI294
aI295
aI296
aI297
aI298
aI299
aI300
aI301
aI302
aI303
aI304
aI305
aI306
aI307
aI308
aI309
aI310
aI311
aI312
aI313
aI314
aI315
aI316
aI317
aI318
aI319
aI320
aI321
aI322
aI323
aI324
aI325
aI326
aI327
aI328
aI329
aI330
aI331
aI332
aI333
aI334
aI335
aI336
aI337
aI338
aI339
aI340
aI341
aI342
aI343
aI344
aI345
aI346
aI347
aI348
aI349
aI350
aI351
aI352
aI353
aI354
aI355
aI356
aI357
aI358
aI359
aI360
aI361
aI362
aI363
aI364
aI365
aI366
aI367
aI368
aI369
aI370
aI371
aI372
aI373
aI374
aI375
aI376
aI377
aI378
aI379
aI380
aI381
aI382
aI383
aI384
aI385
aI386
aI387
aI388
aI389
aI390
aI391
aI392
aI393
aI394
aI395
aI396
aI397
aI398
aI399
aI400
aI401
aI402
aI403
aI404
aI405
aI406
aI407
aI408
aI409
aI410
aI411
aI412
aI413
aI414
aI415
aI416
aI417
aI418
aI419
aI420
aI421
aI422
aI423
aI424
aI425
aI426
aI427
aI428
aI429
aI430
aI431
aI432
aI433
aI434
aI435
aI436
aI437
aI438
aI439
aI440
aI441
aI442
aI443
aI444
aI445
aI446
aI447
aI448
aI449
aI450
aI451
aI452
aI453
aI454
aI455
aI456
aI457
aI458
aI459
aI460
aI461
aI462
aI463
aI464
aI465
aI466
aI467
aI468
aI469
aI470
aI471
aI472
aI473
aI474
aI475
aI476
aI477
aI478
aI479
aI480
aI481
aI482
aI483
aI484
aI485
aI486
aI487
aI488
aI489
aI490
aI491
aI492
aI493
aI494
aI495
aI496
aI497
aI498
aI499
aI500
aI501
aI502
aI503
aI504
aI505
aI506
aI507
aI508
aI509
aI510
aI511
aI512
aI513
aI514
aI515
aI516
aI517
aI518
aI519
aI520
aI521
aI522
aI523
aI524
aI525
aI526
aI527
aI528
aI529
aI530
aI531
aI532
aI533
aI534
aI535
aI536
aI537
aI538
aI539
aI540
aI541
aI542
aI543
aI544
aI545
aI546
aI547
aI548
aI549
aI550
aI551
aI552
aI553
aI554
aI555
aI556
aI557
aI558
aI559
aI560
aI561
aI562
aI563
aI564
aI565
aI566
aI567
aI568
aI569
aI570
aI571
aI572
aI573
aI574
aI575
aI576
aI577
aI578
aI579
aI580
aI581
aI582
aI583
aI584
aI585
aI586
aI587
aI588
aI589
aI590
aI591
aI592
aI593
aI594
aI595
aI596
aI597
aI598
aI599
asg78
Nsg79
cnumpy.core.multiarray
scalar
p4534
(g4532
S'L\x02\x00\x00'
tRp4535
sg80
I600
sg81
I0
sg82
I600
sg83
I01
sbag36
asS'savePickle'
p4536
I00
sb.